##############################################################################
#                                                                            #
#                                                      24/Oct/2025  13:27:58 #
# IAR Atmel AVR C/C++ Compiler V4.12A/W32, Evaluation Version                #
# Copyright 1996-2005 IAR Systems. All rights reserved.                      #
#                                                                            #
#    Source file  =  E:\sim800Elam2560_bootnew_i2cerr_a7682e\Appl_sec.c      #
#    Command line =  E:\sim800Elam2560_bootnew_i2cerr_a7682e\Appl_sec.c      #
#                    --cpu=m2560 -ms -o E:\sim800Elam2560_bootnew_i2cerr_a76 #
#                    82e\Debug\Obj\ -lCN E:\sim800Elam2560_bootnew_i2cerr_a7 #
#                    682e\Debug\List\ -lA E:\sim800Elam2560_bootnew_i2cerr_a #
#                    7682e\Debug\List\ -y --initializers_in_flash -z9        #
#                    --no_inline --no_tbaa --cross_call_passes=1 --debug -e  #
#                    -I "E:\box\IAR Systems\Embedded Workbench 4.0           #
#                    Evaluation\avr\INC\" -I "E:\box\IAR Systems\Embedded    #
#                    Workbench 4.0 Evaluation\avr\INC\DLIB\" --eeprom_size   #
#                    4096 --dlib_config "E:\box\IAR Systems\Embedded         #
#                    Workbench 4.0 Evaluation\avr\LIB\DLIB\dlAVR-5s-ec-n.h"  #
#    List file    =  E:\sim800Elam2560_bootnew_i2cerr_a7682e\Debug\List\Appl #
#                    _sec.lst                                                #
#    Object file  =  E:\sim800Elam2560_bootnew_i2cerr_a7682e\Debug\Obj\Appl_ #
#                    sec.r90                                                 #
#                                                                            #
#                                                                            #
##############################################################################

E:\sim800Elam2560_bootnew_i2cerr_a7682e\Appl_sec.c
      1          #include <iom2560.h>
      2          #include "sec.h"
      3          #include "def_prot.h"
      4          
      5          
      6          
      7          
      8          extern unsigned int crc_m1(unsigned char *ka,unsigned int num,unsigned int crc);
      9          
     10          #define APPLICATION_ADDRESS 0
     11          typedef  void ( *pFunction)(void);

   \                                 In segment NEAR_Z, align 1, keep-with-next
   \   00000000                      REQUIRE `?<Segment init: NEAR_Z>`
     12          pFunction Jump_To_Application;
   \                     Jump_To_Application:
   \   00000000                      DS 3
     13          unsigned  int JumpAddress;
   \                     JumpAddress:
   \   00000003                      DS 2
     14          
     15          
     16          
     17          

   \                                 In segment FARCODE, align 2, keep-with-next
     18          void startNewProgram (void)
   \                     startNewProgram:
     19          {
     20          //	JumpAddress = *( unsigned  int*) (APPLICATION_ADDRESS + 4);
     21                  JumpAddress =  (APPLICATION_ADDRESS + 4);       
   \   00000000   ....               LDI     R30, LOW(Jump_To_Application)
   \   00000002   ....               LDI     R31, (Jump_To_Application) >> 8
   \   00000004   E004               LDI     R16, 4
   \   00000006   E010               LDI     R17, 0
   \   00000008   8303               STD     Z+3, R16
   \   0000000A   8314               STD     Z+4, R17
     22          	Jump_To_Application = (pFunction) JumpAddress;
   \   0000000C   8300               ST      Z, R16
   \   0000000E   8311               STD     Z+1, R17
   \   00000010   8312               STD     Z+2, R17
     23           //   __set_MSP(*(__IO uint32_t*) APPLICATION_ADDRESS);
     24              Jump_To_Application();	
   \   00000012   940C0002           JMP     0x04
     25          }
     26          
     27          
     28          
     29          

   \                                 In segment FARCODE, align 2, keep-with-next
     30          unsigned char write_to_buf(unsigned char *p_buf,unsigned int *ptr_in,unsigned int *ptr_out,unsigned int *ptr_out_kv,unsigned int *crc,unsigned char *p_data,unsigned int l_data, unsigned int max_buf)
   \                     write_to_buf:
     31          {
   \   00000000   ........           CALL    ?PROLOGUE16_L09
   \   00000004                      REQUIRE ?Register_R4_is_cg_reg
   \   00000004                      REQUIRE ?Register_R5_is_cg_reg
   \   00000004                      REQUIRE ?Register_R6_is_cg_reg
   \   00000004                      REQUIRE ?Register_R7_is_cg_reg
   \   00000004                      REQUIRE ?Register_R8_is_cg_reg
   \   00000004                      REQUIRE ?Register_R9_is_cg_reg
   \   00000004                      REQUIRE ?Register_R10_is_cg_reg
   \   00000004                      REQUIRE ?Register_R11_is_cg_reg
   \   00000004                      REQUIRE ?Register_R12_is_cg_reg
   \   00000004                      REQUIRE ?Register_R13_is_cg_reg
   \   00000004                      REQUIRE ?Register_R14_is_cg_reg
   \   00000004                      REQUIRE ?Register_R15_is_cg_reg
   \   00000004   9722               SBIW    R29:R28, 2
   \   00000006   8368               ST      Y, R22
   \   00000008   8379               STD     Y+1, R23
   \   0000000A   01D8               MOVW    R27:R26, R17:R16
   \   0000000C   0129               MOVW    R5:R4, R19:R18
   \   0000000E   016A               MOVW    R13:R12, R21:R20
   \   00000010   88AA               LDD     R10, Y+18
   \   00000012   88BB               LDD     R11, Y+19
   \   00000014   898C               LDD     R24, Y+20
   \   00000016   899D               LDD     R25, Y+21
   \   00000018   888E               LDD     R8, Y+22
   \   0000001A   889F               LDD     R9, Y+23
   \   0000001C   8C68               LDD     R6, Y+24
   \   0000001E   8C79               LDD     R7, Y+25
     32            unsigned int temp,i,j=0;
   \   00000020   24EE               CLR     R14
   \   00000022   24FF               CLR     R15
     33           
     34            if(*crc!=crc_m1(p_buf,max_buf,0xffff)) {*ptr_out=0;*ptr_in=0;*ptr_out_kv=0;} 
   \   00000024   EF4F               LDI     R20, 255
   \   00000026   EF5F               LDI     R21, 255
   \   00000028   0193               MOVW    R19:R18, R7:R6
   \   0000002A   ....               RCALL   ??Subroutine3_0
   \                     ??CrossCallReturnLabel_3:
   \   0000002C   01F5               MOVW    R31:R30, R11:R10
   \   0000002E   ....               RCALL   ?Subroutine4
   \                     ??CrossCallReturnLabel_6:
   \   00000030   1720               CP      R18, R16
   \   00000032   0731               CPC     R19, R17
   \   00000034   F051               BREQ    ??write_to_buf_0
   \   00000036   01F6               MOVW    R31:R30, R13:R12
   \   00000038   82E0               ST      Z, R14
   \   0000003A   82E1               STD     Z+1, R14
   \   0000003C   01F2               MOVW    R31:R30, R5:R4
   \   0000003E   82E0               ST      Z, R14
   \   00000040   82E1               STD     Z+1, R14
   \   00000042   81E8               LD      R30, Y
   \   00000044   81F9               LDD     R31, Y+1
   \   00000046   82E0               ST      Z, R14
   \   00000048   82E1               STD     Z+1, R14
     35           
     36            if(*ptr_in>=*ptr_out)
   \                     ??write_to_buf_0:
   \   0000004A   01F2               MOVW    R31:R30, R5:R4
   \   0000004C   8140               LD      R20, Z
   \   0000004E   8151               LDD     R21, Z+1
   \   00000050   01B4               MOVW    R23:R22, R9:R8
   \   00000052   0F64               ADD     R22, R20
   \   00000054   1F75               ADC     R23, R21
   \   00000056   01F6               MOVW    R31:R30, R13:R12
   \   00000058   ....               RCALL   ?Subroutine4
   \                     ??CrossCallReturnLabel_7:
   \   0000005A   1742               CP      R20, R18
   \   0000005C   0753               CPC     R21, R19
   \   0000005E   F408               BRCC    $+2+2
   \   00000060   C045               RJMP    ??write_to_buf_1
     37              {
     38              if((*ptr_out==0)&&(*ptr_in==(max_buf-1)))return(1);//âűőîä áóôĺđ ďĺđĺďîëíĺí
   \   00000062   0183               MOVW    R17:R16, R7:R6
   \   00000064   5001               SUBI    R16, 1
   \   00000066   4010               SBCI    R17, 0
   \   00000068   2E02               MOV     R0, R18
   \   0000006A   2A03               OR      R0, R19
   \   0000006C   F431               BRNE    ??write_to_buf_2
   \   0000006E   010A               MOVW    R1:R0, R21:R20
   \   00000070   1600               CP      R0, R16
   \   00000072   0611               CPC     R1, R17
   \   00000074   F411               BRNE    ??write_to_buf_2
   \                     ??write_to_buf_3:
   \   00000076   E001               LDI     R16, 1
   \   00000078   C055               RJMP    ??write_to_buf_4
     39              temp=(max_buf-1)-(*ptr_in);
     40              temp=temp+(*ptr_out);
     41              if(l_data>temp)return(1);// íĺëüç˙ çŕďčńŕňü - ďĺđĺďîëíĺíčĺ
   \                     ??write_to_buf_2:
   \   0000007A   1B04               SUB     R16, R20
   \   0000007C   0B15               SBC     R17, R21
   \   0000007E   0F02               ADD     R16, R18
   \   00000080   1F13               ADC     R17, R19
   \   00000082   1508               CP      R16, R8
   \   00000084   0519               CPC     R17, R9
   \   00000086   F3B8               BRCS    ??write_to_buf_3
     42              temp=(*ptr_in)+l_data;
   \   00000088   019B               MOVW    R19:R18, R23:R22
     43              if(temp>max_buf)
   \   0000008A   1666               CP      R6, R22
   \   0000008C   0677               CPC     R7, R23
   \   0000008E   018A               MOVW    R17:R16, R21:R20
   \   00000090   F4F0               BRCC    ??CrossCallReturnLabel_14
     44                {
     45                for(i=(*ptr_in);i<max_buf;i++)  {*(p_buf+i)=*(p_data+j); j++;}     
   \   00000092   C001               RJMP    ??CrossCallReturnLabel_13
   \                     ??write_to_buf_5:
   \   00000094   ....               RCALL   ?Subroutine0
   \                     ??CrossCallReturnLabel_13:
   \   00000096   1506               CP      R16, R6
   \   00000098   0517               CPC     R17, R7
   \   0000009A   F3E0               BRCS    ??write_to_buf_5
     46                (*ptr_in)=temp-max_buf;
   \   0000009C   1926               SUB     R18, R6
   \   0000009E   0937               SBC     R19, R7
   \   000000A0   01F2               MOVW    R31:R30, R5:R4
   \   000000A2   8320               ST      Z, R18
   \   000000A4   8331               STD     Z+1, R19
     47                for(i=0;i<(*ptr_in);i++) { *(p_buf+i)=*(p_data+j);j++;};
   \   000000A6   E000               LDI     R16, 0
   \   000000A8   E010               LDI     R17, 0
   \                     ??write_to_buf_6:
   \   000000AA   ....               RCALL   ?Subroutine2
   \                     ??CrossCallReturnLabel_0:
   \   000000AC   F598               BRCC    ??write_to_buf_7
   \   000000AE   01FC               MOVW    R31:R30, R25:R24
   \   000000B0   0DEE               ADD     R30, R14
   \   000000B2   1DFF               ADC     R31, R15
   \   000000B4   8120               LD      R18, Z
   \   000000B6   01FD               MOVW    R31:R30, R27:R26
   \   000000B8   0FE0               ADD     R30, R16
   \   000000BA   1FF1               ADC     R31, R17
   \   000000BC   8320               ST      Z, R18
   \   000000BE   E021               LDI     R18, 1
   \   000000C0   0EE2               ADD     R14, R18
   \   000000C2   E020               LDI     R18, 0
   \   000000C4   1EF2               ADC     R15, R18
   \   000000C6   5F0F               SUBI    R16, 255
   \   000000C8   4F1F               SBCI    R17, 255
   \   000000CA   CFEF               RJMP    ??write_to_buf_6
     48                }
     49                else
     50                {
     51                for(i=(*ptr_in);i<temp;i++)  {*(p_buf+i)=*(p_data+j); j++;}  
   \                     ??write_to_buf_8:
   \   000000CC   ....               RCALL   ?Subroutine0
   \                     ??CrossCallReturnLabel_14:
   \   000000CE   1706               CP      R16, R22
   \   000000D0   0717               CPC     R17, R23
   \   000000D2   F3E0               BRCS    ??write_to_buf_8
     52                if(temp==max_buf)(*ptr_in)=0;else(*ptr_in)=temp;
   \   000000D4   1526               CP      R18, R6
   \   000000D6   0537               CPC     R19, R7
   \   000000D8   F429               BRNE    ??write_to_buf_9
   \   000000DA   E000               LDI     R16, 0
   \   000000DC   01F2               MOVW    R31:R30, R5:R4
   \   000000DE   8300               ST      Z, R16
   \   000000E0   8301               STD     Z+1, R16
   \   000000E2   C018               RJMP    ??write_to_buf_7
   \                     ??write_to_buf_9:
   \   000000E4   01F2               MOVW    R31:R30, R5:R4
   \   000000E6   8360               ST      Z, R22
   \   000000E8   8371               STD     Z+1, R23
     53                }
     54              *crc=crc_m1(p_buf,max_buf,0xffff);// çŕďčńü CRC  
   \   000000EA   C014               RJMP    ??write_to_buf_7
     55              }
     56            
     57            else
     58              {
     59              if((*ptr_out-*ptr_in)==1) return(1);//âűőîä áóôĺđ ďĺđĺďîëíĺí
   \                     ??write_to_buf_1:
   \   000000EC   1B24               SUB     R18, R20
   \   000000EE   0B35               SBC     R19, R21
   \   000000F0   3021               CPI     R18, 1
   \   000000F2   053E               CPC     R19, R14
   \   000000F4   F201               BREQ    ??write_to_buf_3
     60              temp=(*ptr_out)-(*ptr_in)-1;
     61              if(l_data>temp)return(1);// íĺëüç˙ çŕďčńŕňü - ďĺđĺďîëíĺíčĺ
   \   000000F6   5021               SUBI    R18, 1
   \   000000F8   4030               SBCI    R19, 0
   \   000000FA   1528               CP      R18, R8
   \   000000FC   0539               CPC     R19, R9
   \   000000FE   F408               BRCC    $+2+2
   \   00000100   CFBA               RJMP    ??write_to_buf_3
     62              temp=(*ptr_in)+l_data;
     63              for(i=(*ptr_in);i<temp;i++){*(p_buf+i)=*(p_data+j); j++;} 
   \   00000102   018A               MOVW    R17:R16, R21:R20
   \   00000104   C001               RJMP    ??CrossCallReturnLabel_15
   \                     ??write_to_buf_10:
   \   00000106   ....               RCALL   ?Subroutine0
   \                     ??CrossCallReturnLabel_15:
   \   00000108   1706               CP      R16, R22
   \   0000010A   0717               CPC     R17, R23
   \   0000010C   F3E0               BRCS    ??write_to_buf_10
     64              (*ptr_in)=temp; 
   \   0000010E   01F2               MOVW    R31:R30, R5:R4
   \   00000110   8360               ST      Z, R22
   \   00000112   8371               STD     Z+1, R23
     65              *crc=crc_m1(p_buf,max_buf,0xffff);// çŕďčńü CRC 
   \                     ??write_to_buf_7:
   \   00000114   EF4F               LDI     R20, 255
   \   00000116   EF5F               LDI     R21, 255
   \   00000118   0193               MOVW    R19:R18, R7:R6
   \   0000011A   ....               RCALL   ?Subroutine3
   \                     ??CrossCallReturnLabel_5:
   \   0000011C   01F5               MOVW    R31:R30, R11:R10
   \   0000011E   8300               ST      Z, R16
   \   00000120   8311               STD     Z+1, R17
     66              } 
     67           return(0);
   \   00000122   E000               LDI     R16, 0
   \                     ??write_to_buf_4:
   \   00000124   9622               ADIW    R29:R28, 2
   \   00000126   E1E8               LDI     R30, 24
   \   00000128                      REQUIRE ?Subroutine5
   \   00000128                      ;               // Fall through to label ?Subroutine5
     68           
     69           }

   \                                 In segment FARCODE, align 2, keep-with-next
   \                     ?Subroutine5:
   \   00000000   ........           JMP     ?EPILOGUE_B16_L09

   \                                 In segment FARCODE, align 2, keep-with-next
   \                     ?Subroutine0:
   \   00000000   01FC               MOVW    R31:R30, R25:R24
   \   00000002   0DEE               ADD     R30, R14
   \   00000004   1DFF               ADC     R31, R15
   \   00000006   8140               LD      R20, Z
   \   00000008   01FD               MOVW    R31:R30, R27:R26
   \   0000000A   0FE0               ADD     R30, R16
   \   0000000C   1FF1               ADC     R31, R17
   \   0000000E   8340               ST      Z, R20
   \   00000010   E041               LDI     R20, 1
   \   00000012   0EE4               ADD     R14, R20
   \   00000014   E040               LDI     R20, 0
   \   00000016   1EF4               ADC     R15, R20
   \   00000018                      REQUIRE ?Subroutine6
   \   00000018                      ;               // Fall through to label ?Subroutine6

   \                                 In segment FARCODE, align 2, keep-with-next
   \                     ?Subroutine6:
   \   00000000   5F0F               SUBI    R16, 255
   \   00000002   4F1F               SBCI    R17, 255
   \   00000004   9508               RET

   \                                 In segment FARCODE, align 2, keep-with-next
   \                     ?Subroutine4:
   \   00000000   8120               LD      R18, Z
   \   00000002   8131               LDD     R19, Z+1
   \   00000004   9508               RET

   \                                 In segment FARCODE, align 2, keep-with-next
   \                     ?Subroutine3:
   \   00000000   018D               MOVW    R17:R16, R27:R26
   \                     ??Subroutine3_0:
   \   00000002   ........           JMP     crc_m1

   \                                 In segment FARCODE, align 2, keep-with-next
   \                     ?Subroutine2:
   \   00000000   01F2               MOVW    R31:R30, R5:R4
   \   00000002   8120               LD      R18, Z
   \   00000004   8131               LDD     R19, Z+1
   \   00000006   1702               CP      R16, R18
   \   00000008   0713               CPC     R17, R19
   \   0000000A   9508               RET
     70          

   \                                 In segment FARCODE, align 2, keep-with-next
     71          unsigned int read_from_buf(unsigned char *p_buf,unsigned int *ptr_in,unsigned int *ptr_out,unsigned int *ptr_out_kv,unsigned int *crc,unsigned char *p_data, unsigned int max_buf)
   \                     read_from_buf:
     72          {
   \   00000000   ........           CALL    ?PROLOGUE16_L09
   \   00000004                      REQUIRE ?Register_R4_is_cg_reg
   \   00000004                      REQUIRE ?Register_R5_is_cg_reg
   \   00000004                      REQUIRE ?Register_R6_is_cg_reg
   \   00000004                      REQUIRE ?Register_R7_is_cg_reg
   \   00000004                      REQUIRE ?Register_R8_is_cg_reg
   \   00000004                      REQUIRE ?Register_R9_is_cg_reg
   \   00000004                      REQUIRE ?Register_R10_is_cg_reg
   \   00000004                      REQUIRE ?Register_R11_is_cg_reg
   \   00000004                      REQUIRE ?Register_R12_is_cg_reg
   \   00000004                      REQUIRE ?Register_R13_is_cg_reg
   \   00000004                      REQUIRE ?Register_R14_is_cg_reg
   \   00000004                      REQUIRE ?Register_R15_is_cg_reg
   \   00000004   01D8               MOVW    R27:R26, R17:R16
   \   00000006   0129               MOVW    R5:R4, R19:R18
   \   00000008   013A               MOVW    R7:R6, R21:R20
   \   0000000A   017B               MOVW    R15:R14, R23:R22
   \   0000000C   8908               LDD     R16, Y+16
   \   0000000E   8919               LDD     R17, Y+17
   \   00000010   898A               LDD     R24, Y+18
   \   00000012   899B               LDD     R25, Y+19
   \   00000014   888C               LDD     R8, Y+20
   \   00000016   889D               LDD     R9, Y+21
     73           unsigned int i,j=0;
   \   00000018   24AA               CLR     R10
   \   0000001A   24BB               CLR     R11
     74          
     75           if(*ptr_in==*ptr_out)return(0);
   \   0000001C   01F9               MOVW    R31:R30, R19:R18
   \   0000001E   ....               RCALL   ?Subroutine4
   \                     ??CrossCallReturnLabel_8:
   \   00000020   01FA               MOVW    R31:R30, R21:R20
   \   00000022   8140               LD      R20, Z
   \   00000024   8151               LDD     R21, Z+1
   \   00000026   1724               CP      R18, R20
   \   00000028   0735               CPC     R19, R21
   \   0000002A   F421               BRNE    ??read_from_buf_0
   \                     ??read_from_buf_1:
   \   0000002C   E000               LDI     R16, 0
   \   0000002E   E010               LDI     R17, 0
   \                     ??read_from_buf_2:
   \   00000030   E1E6               LDI     R30, 22
   \   00000032   ....               RJMP    ?Subroutine5
     76            
     77            if(*crc!=crc_m1(p_buf,max_buf,0xffff)) {*ptr_out=0;*ptr_in=0;*ptr_out_kv=0; return(0);} 
   \                     ??read_from_buf_0:
   \   00000034   01F8               MOVW    R31:R30, R17:R16
   \   00000036   80C0               LD      R12, Z
   \   00000038   80D1               LDD     R13, Z+1
   \   0000003A   EF4F               LDI     R20, 255
   \   0000003C   EF5F               LDI     R21, 255
   \   0000003E   0194               MOVW    R19:R18, R9:R8
   \   00000040   ....               RCALL   ?Subroutine3
   \                     ??CrossCallReturnLabel_4:
   \   00000042   16C0               CP      R12, R16
   \   00000044   06D1               CPC     R13, R17
   \   00000046   01F3               MOVW    R31:R30, R7:R6
   \   00000048   F049               BREQ    ??read_from_buf_3
   \   0000004A   82A0               ST      Z, R10
   \   0000004C   82A1               STD     Z+1, R10
   \   0000004E   01F2               MOVW    R31:R30, R5:R4
   \   00000050   82A0               ST      Z, R10
   \   00000052   82A1               STD     Z+1, R10
   \   00000054   01F7               MOVW    R31:R30, R15:R14
   \   00000056   82A0               ST      Z, R10
   \   00000058   82A1               STD     Z+1, R10
   \   0000005A   CFE8               RJMP    ??read_from_buf_1
     78            
     79            if(*ptr_in>*ptr_out)
   \                     ??read_from_buf_3:
   \   0000005C   ....               RCALL   ?Subroutine4
   \                     ??CrossCallReturnLabel_9:
   \   0000005E   01F2               MOVW    R31:R30, R5:R4
   \   00000060   8100               LD      R16, Z
   \   00000062   8111               LDD     R17, Z+1
   \   00000064   1720               CP      R18, R16
   \   00000066   0731               CPC     R19, R17
   \   00000068   0189               MOVW    R17:R16, R19:R18
   \   0000006A   F458               BRCC    ??CrossCallReturnLabel_11
     80               {
     81               for(i=(*ptr_out);i<*ptr_in;i++) {*(p_data+j)=*(p_buf+i); j++;} 
   \                     ??read_from_buf_4:
   \   0000006C   ....               RCALL   ?Subroutine1
   \                     ??CrossCallReturnLabel_10:
   \   0000006E   ....               RCALL   ?Subroutine2
   \                     ??CrossCallReturnLabel_1:
   \   00000070   F3E8               BRCS    ??read_from_buf_4
     82               *ptr_out_kv=*ptr_in;  //ýňî íóćíî ďđč ďđčĺěĺ ęâčňęŕ, ďđč ďđĺěĺ ęâčňęŕ íóćíî p_out=p_out_kv
   \                     ??read_from_buf_5:
   \   00000072   8100               LD      R16, Z
   \   00000074   8111               LDD     R17, Z+1
   \   00000076   01F7               MOVW    R31:R30, R15:R14
   \   00000078   8300               ST      Z, R16
   \   0000007A   8311               STD     Z+1, R17
     83                 return(j);
   \   0000007C   0185               MOVW    R17:R16, R11:R10
   \   0000007E   CFD8               RJMP    ??read_from_buf_2
     84               }
     85               else
     86               {
     87               for(i=(*ptr_out);i<max_buf;i++)  {*(p_data+j)=*(p_buf+i); j++;} 
   \                     ??read_from_buf_6:
   \   00000080   ....               RCALL   ?Subroutine1
   \                     ??CrossCallReturnLabel_11:
   \   00000082   1508               CP      R16, R8
   \   00000084   0519               CPC     R17, R9
   \   00000086   F3E0               BRCS    ??read_from_buf_6
     88               for(i=0;i<(*ptr_in);i++)  {*(p_data+j)=*(p_buf+i); j++;} 
   \   00000088   E000               LDI     R16, 0
   \   0000008A   E010               LDI     R17, 0
   \                     ??read_from_buf_7:
   \   0000008C   ....               RCALL   ?Subroutine2
   \                     ??CrossCallReturnLabel_2:
   \   0000008E   F788               BRCC    ??read_from_buf_5
   \   00000090   ....               RCALL   ?Subroutine1
   \                     ??CrossCallReturnLabel_12:
   \   00000092   CFFC               RJMP    ??read_from_buf_7
     89               *ptr_out_kv=*ptr_in;
     90               return(j);
     91               }
     92          }

   \                                 In segment FARCODE, align 2, keep-with-next
   \                     ?Subroutine1:
   \   00000000   01FD               MOVW    R31:R30, R27:R26
   \   00000002   0FE0               ADD     R30, R16
   \   00000004   1FF1               ADC     R31, R17
   \   00000006   8120               LD      R18, Z
   \   00000008   01FC               MOVW    R31:R30, R25:R24
   \   0000000A   0DEA               ADD     R30, R10
   \   0000000C   1DFB               ADC     R31, R11
   \   0000000E   8320               ST      Z, R18
   \   00000010   E021               LDI     R18, 1
   \   00000012   0EA2               ADD     R10, R18
   \   00000014   E020               LDI     R18, 0
   \   00000016   1EB2               ADC     R11, R18
   \   00000018   ....               RJMP    ?Subroutine6
     93          
     94          

   Maximum stack usage in bytes:

     Function             CSTACK RSTACK
     --------             ------ ------
     read_from_buf           22      3
       -> crc_m1             22      3
     startNewProgram          0      3
       ->   Indirect call     0      3
     write_to_buf            26      3
       -> crc_m1             26      3
       -> crc_m1             26      3
       -> crc_m1             26      3


   Segment part sizes:

     Function/Label      Bytes
     --------------      -----
     Jump_To_Application    5
     startNewProgram       22
     write_to_buf         296
     ?Subroutine5           4
     ?Subroutine0          24
     ?Subroutine6           6
     ?Subroutine4           6
     ?Subroutine3           6
     ?Subroutine2          12
     read_from_buf        148
     ?Subroutine1          26
      Others                7

 
 550 bytes in segment FARCODE
   7 bytes in segment INITTAB
   5 bytes in segment NEAR_Z
 
 550 bytes of CODE memory (+ 7 bytes shared)
   5 bytes of DATA memory

Errors: none
Warnings: none
