//////////////////////////////////////////////////////////////////////////////
//                                                                           /
//                                                     21/Jan/2008  12:54:46 /
// IAR Atmel AVR C/C++ Compiler V4.12A/W32, Evaluation Version               /
// Copyright 1996-2005 IAR Systems. All rights reserved.                     /
//                                                                           /
//    Source file  =  D:\PRJIAR\NSSBETA2\base.c                              /
//    Command line =  D:\PRJIAR\NSSBETA2\base.c --cpu=m1280 -ms -o           /
//                    D:\PRJIAR\NSSBETA2\Debug\Obj\ -lCN                     /
//                    D:\PRJIAR\NSSBETA2\Debug\List\ -lA                     /
//                    D:\PRJIAR\NSSBETA2\Debug\List\ -y                      /
//                    --initializers_in_flash -z6 --no_inline                /
//                    --no_cross_call --no_tbaa --debug -e -I "D:\Program    /
//                    Files\IAR Systems\Embedded Workbench 4.0               /
//                    Evaluation\avr\INC\" -I "D:\Program Files\IAR          /
//                    Systems\Embedded Workbench 4.0                         /
//                    Evaluation\avr\INC\DLIB\" --eeprom_size 4096           /
//                    --dlib_config "D:\Program Files\IAR Systems\Embedded   /
//                    Workbench 4.0 Evaluation\avr\LIB\DLIB\dlAVR-3s-ec-n.h" /
//    List file    =  D:\PRJIAR\NSSBETA2\Debug\List\base.s90                 /
//                                                                           /
//                                                                           /
//////////////////////////////////////////////////////////////////////////////

        NAME base

        RTMODEL "__64bit_doubles", "disabled"
        RTMODEL "__cpu", "3"
        RTMODEL "__cpu_name", "ATmega1280"
        RTMODEL "__dlib_file_descriptor", "0"
        RTMODEL "__enhanced_core", "enabled"
        RTMODEL "__has_elpm", "true"
        RTMODEL "__memory_model", "2"
        RTMODEL "__no_rampd", "enabled"
        RTMODEL "__rt_version", "3"

        RSEG CSTACK:DATA:NOROOT(0)
        RSEG RSTACK:DATA:NOROOT(0)

        EXTERN ?CV_SWITCH_L06
        EXTERN ?EPILOGUE_B16_L09
        EXTERN ?EPILOGUE_B3_L09
        EXTERN ?EPILOGUE_B4_L09
        EXTERN ?EPILOGUE_B5_L09
        EXTERN ?EPILOGUE_B6_L09
        EXTERN ?EPILOGUE_B8_L09
        EXTERN ?L_EC_MUL_L03
        EXTERN ?PROLOGUE16_L09
        EXTERN ?PROLOGUE3_L09
        EXTERN ?PROLOGUE4_L09
        EXTERN ?PROLOGUE5_L09
        EXTERN ?PROLOGUE6_L09
        EXTERN ?PROLOGUE8_L09
        EXTERN ?Register_R10_is_cg_reg
        EXTERN ?Register_R11_is_cg_reg
        EXTERN ?Register_R12_is_cg_reg
        EXTERN ?Register_R13_is_cg_reg
        EXTERN ?Register_R14_is_cg_reg
        EXTERN ?Register_R15_is_cg_reg
        EXTERN ?Register_R4_is_cg_reg
        EXTERN ?Register_R5_is_cg_reg
        EXTERN ?Register_R6_is_cg_reg
        EXTERN ?Register_R7_is_cg_reg
        EXTERN ?SS_DIVMOD_L02
        EXTERN ?S_EC_MUL_L02
        EXTERN ?US_DIVMOD_L02
        EXTERN ?need_segment_init
        EXTERN __eeget8_16
        EXTERN __eeput8_16

        PUBWEAK `?<Segment init: NEAR_I>`
        PUBWEAK `?<Segment init: NEAR_Z>`
        PUBLIC Appl_RS232_2
        PUBLIC Appl_RS232_2_data_buf
        PUBLIC Appl_RS485_1
        PUBLIC Appl_RS485_1_data_buf
        PUBLIC Appl_RS485_2
        PUBLIC Appl_RS485_2_data_buf
        PUBLIC Appl_seq
        PUBLIC Appl_seq_buf
        PUBLIC Appl_seq_des
        PUBLIC Application_SEQ_tx
        FUNCTION Application_SEQ_tx,021203H
        LOCFRAME CSTACK, 14, STACK
        LOCFRAME RSTACK, 2, STACK
        PUBLIC Buf1_rx_ppp
        PUBLIC Buf2_rx_ppp
        PUBLIC Control
        PUBLIC Fl_ch_sim
        PUBWEAK _A_MCUSR
        PUBWEAK _A_PINE
        PUBWEAK _A_PORTB
        PUBWEAK _A_PORTC
        PUBWEAK _A_PORTD
        PUBWEAK _A_PORTE
        PUBWEAK _A_PORTG
        PUBWEAK _A_PORTH
        PUBWEAK _A_PORTJ
        PUBWEAK _A_SREG
        PUBWEAK _A_UBRR1
        PUBWEAK _A_UBRR2
        PUBWEAK _A_UBRR3
        PUBWEAK _A_UCSR0A
        PUBWEAK _A_UCSR0B
        PUBWEAK _A_UCSR1B
        PUBWEAK _A_UCSR1C
        PUBWEAK _A_UCSR2A
        PUBWEAK _A_UCSR2C
        PUBWEAK _A_UCSR3B
        PUBWEAK _A_UCSR3C
        PUBWEAK _A_UDR0
        PUBWEAK _A_UDR2
        PUBWEAK _A_UDR3
        PUBWEAK _A_WDTCSR
        PUBWEAK __?EEARH
        PUBWEAK __?EEARL
        PUBWEAK __?EECR
        PUBWEAK __?EEDR
        PUBLIC auchCRCHi
        PUBLIC auchCRCLo
        PUBLIC buf_opt_tr
        PUBLIC buf_tx_232
        PUBLIC check_cont_485_1
        FUNCTION check_cont_485_1,0203H
        LOCFRAME RSTACK, 2, STACK
        PUBLIC check_cts
        FUNCTION check_cts,0203H
        LOCFRAME RSTACK, 2, STACK
        PUBLIC check_ln_conf
        FUNCTION check_ln_conf,0203H
        LOCFRAME CSTACK, 4, STACK
        LOCFRAME RSTACK, 2, STACK
        PUBLIC check_wdt
        FUNCTION check_wdt,021203H
        LOCFRAME CSTACK, 4, STACK
        LOCFRAME RSTACK, 2, STACK
        PUBLIC clr_cntr_link
        FUNCTION clr_cntr_link,0203H
        LOCFRAME RSTACK, 2, STACK
        PUBLIC clr_cntr_link_2
        FUNCTION clr_cntr_link_2,0203H
        LOCFRAME RSTACK, 2, STACK
        PUBLIC clr_cntr_nat
        FUNCTION clr_cntr_nat,0203H
        LOCFRAME RSTACK, 2, STACK
        PUBLIC clr_var_ppp
        FUNCTION clr_var_ppp,0203H
        LOCFRAME RSTACK, 2, STACK
        PUBLIC clr_var_ppp_rx
        FUNCTION clr_var_ppp_rx,0203H
        LOCFRAME RSTACK, 2, STACK
        PUBLIC cnt_cts_off
        PUBLIC cnt_link_res
        PUBLIC cnt_no_link
        PUBLIC cnt_stm_tm1
        PUBLIC command_AT
        PUBLIC control_temperatura
        FUNCTION control_temperatura,0203H
        LOCFRAME RSTACK, 2, STACK
        PUBLIC count_summa_temperatura
        PUBLIC count_tx_ppp
        PUBLIC crc_m1
        FUNCTION crc_m1,0203H
        LOCFRAME RSTACK, 2, STACK
        PUBLIC crc_ozu
        FUNCTION crc_ozu,0203H
        LOCFRAME CSTACK, 2, STACK
        LOCFRAME RSTACK, 2, STACK
        PUBLIC delay
        FUNCTION delay,0203H
        LOCFRAME RSTACK, 2, STACK
        PUBLIC delay_on_contr
        FUNCTION delay_on_contr,021203H
        LOCFRAME CSTACK, 1, STACK
        LOCFRAME RSTACK, 2, STACK
        PUBWEAK e_rw_pdp
        PUBWEAK e_rw_pdp_r
        PUBLIC evc_alarm
        PUBLIC evc_bod
        PUBLIC evc_pwr
        PUBLIC evc_rst
        PUBLIC evc_state
        PUBLIC evc_taken
        PUBLIC evc_ts1
        PUBLIC evc_ts2
        PUBLIC evc_wdr
        PUBLIC event_modem
        PUBLIC evm_at_err
        PUBLIC evm_at_ok
        PUBLIC evm_ch_sim
        PUBLIC evm_cts_err
        PUBLIC evm_dcd_err
        PUBLIC evm_no_rec
        PUBLIC evm_ppp_err
        PUBLIC evm_ppp_ok
        PUBLIC evm_tm
        PUBLIC fl_appl_seq
        PUBLIC fl_appl_seq1
        PUBLIC fl_cts_232
        PUBLIC fl_cts_232_ignor
        PUBLIC fl_reg3
        PUBLIC fl_tx485
        PUBLIC fl_wdt
        PUBLIC form_buf_tx_ppp
        FUNCTION form_buf_tx_ppp,021203H
        LOCFRAME CSTACK, 10, STACK
        LOCFRAME RSTACK, 4, STACK
        PUBLIC ip_ls
        PUBLIC ip_self
        PUBLIC layer_PPP
        PUBLIC load_par_from_memory
        FUNCTION load_par_from_memory,021203H
        LOCFRAME CSTACK, 28, STACK
        LOCFRAME RSTACK, 4, STACK
        PUBLIC load_rw_pdp
        FUNCTION load_rw_pdp,021203H
        LOCFRAME CSTACK, 78, STACK
        LOCFRAME RSTACK, 4, STACK
        PUBLIC load_rw_pdp_r
        FUNCTION load_rw_pdp_r,021203H
        LOCFRAME CSTACK, 78, STACK
        LOCFRAME RSTACK, 4, STACK
        PUBLIC lock_it
        FUNCTION lock_it,0203H
        LOCFRAME RSTACK, 2, STACK
        PUBLIC long_delay
        FUNCTION long_delay,0203H
        LOCFRAME RSTACK, 2, STACK
        PUBLIC modem_engine
        FUNCTION modem_engine,021203H
        LOCFRAME CSTACK, 2, STACK
        LOCFRAME RSTACK, 2, STACK
        PUBLIC monitor1_rec_rs232_2
        FUNCTION monitor1_rec_rs232_2,021203H
        LOCFRAME CSTACK, 4, STACK
        LOCFRAME RSTACK, 2, STACK
        PUBLIC monitor1_rec_rs485_1
        FUNCTION monitor1_rec_rs485_1,021203H
        LOCFRAME CSTACK, 4, STACK
        LOCFRAME RSTACK, 2, STACK
        PUBLIC monitor1_rec_rs485_2
        FUNCTION monitor1_rec_rs485_2,021203H
        LOCFRAME CSTACK, 4, STACK
        LOCFRAME RSTACK, 2, STACK
        PUBLIC monitor1_tm_rs232_2
        FUNCTION monitor1_tm_rs232_2,021203H
        LOCFRAME RSTACK, 2, STACK
        PUBLIC monitor1_tm_rs485_1
        FUNCTION monitor1_tm_rs485_1,021203H
        LOCFRAME CSTACK, 2, STACK
        LOCFRAME RSTACK, 2, STACK
        PUBLIC monitor1_tm_rs485_2
        FUNCTION monitor1_tm_rs485_2,021203H
        LOCFRAME CSTACK, 2, STACK
        LOCFRAME RSTACK, 2, STACK
        PUBLIC monitor1_tx_rs232_2
        FUNCTION monitor1_tx_rs232_2,021203H
        LOCFRAME CSTACK, 4, STACK
        LOCFRAME RSTACK, 2, STACK
        PUBLIC monitor1_tx_rs485_1
        FUNCTION monitor1_tx_rs485_1,021203H
        LOCFRAME CSTACK, 4, STACK
        LOCFRAME RSTACK, 2, STACK
        PUBLIC monitor1_tx_rs485_2
        FUNCTION monitor1_tx_rs485_2,021203H
        LOCFRAME CSTACK, 4, STACK
        LOCFRAME RSTACK, 2, STACK
        PUBLIC monitor_beg_state_seq
        FUNCTION monitor_beg_state_seq,021203H
        LOCFRAME CSTACK, 24, STACK
        LOCFRAME RSTACK, 2, STACK
        PUBLIC monitor_change_state
        FUNCTION monitor_change_state,021203H
        LOCFRAME CSTACK, 23, STACK
        LOCFRAME RSTACK, 2, STACK
        PUBLIC monitor_cntr_ch
        FUNCTION monitor_cntr_ch,021203H
        LOCFRAME CSTACK, 2, STACK
        LOCFRAME RSTACK, 2, STACK
        PUBLIC monitor_cntr_cl_seq
        FUNCTION monitor_cntr_cl_seq,021203H
        LOCFRAME CSTACK, 4, STACK
        LOCFRAME RSTACK, 2, STACK
        PUBLIC monitor_cntr_nat
        FUNCTION monitor_cntr_nat,021203H
        LOCFRAME CSTACK, 1, STACK
        LOCFRAME RSTACK, 2, STACK
        PUBLIC monitor_rst
        FUNCTION monitor_rst,021203H
        LOCFRAME CSTACK, 21, STACK
        LOCFRAME RSTACK, 2, STACK
        PUBLIC mov_buf
        FUNCTION mov_buf,021203H
        LOCFRAME CSTACK, 4, STACK
        LOCFRAME RSTACK, 2, STACK
        PUBLIC mov_lf
        FUNCTION mov_lf,021203H
        LOCFRAME RSTACK, 2, STACK
        PUBLIC mov_s
        FUNCTION mov_s,021203H
        LOCFRAME CSTACK, 3, STACK
        LOCFRAME RSTACK, 2, STACK
        PUBLIC msg_ctrl_ch
        PUBLIC msg_ctrl_nat
        PUBLIC msg_evc
        PUBLIC num_self
        PUBLIC num_seq_cl
        PUBLIC port_udp
        PUBLIC proc_config
        FUNCTION proc_config,021203H
        LOCFRAME CSTACK, 40, STACK
        LOCFRAME RSTACK, 4, STACK
        PUBLIC prov_ozu
        PUBLIC req_out_ctrl_cl
        PUBLIC run_cont_232_2
        FUNCTION run_cont_232_2,0203H
        LOCFRAME CSTACK, 4, STACK
        LOCFRAME RSTACK, 2, STACK
        PUBLIC run_cont_485_1
        FUNCTION run_cont_485_1,0203H
        LOCFRAME CSTACK, 4, STACK
        LOCFRAME RSTACK, 2, STACK
        PUBLIC run_cont_485_2
        FUNCTION run_cont_485_2,0203H
        LOCFRAME CSTACK, 4, STACK
        LOCFRAME RSTACK, 2, STACK
        PUBLIC s_port
        FUNCTION s_port,0203H
        LOCFRAME RSTACK, 2, STACK
        PUBLIC send_err485
        FUNCTION send_err485,021203H
        LOCFRAME CSTACK, 5, STACK
        LOCFRAME RSTACK, 2, STACK
        PUBLIC send_info
        FUNCTION send_info,021203H
        LOCFRAME CSTACK, 16, STACK
        LOCFRAME RSTACK, 2, STACK
        PUBLIC simka
        PUBLIC start_func_stm_kon
        FUNCTION start_func_stm_kon,0203H
        LOCFRAME RSTACK, 2, STACK
        PUBLIC start_func_stm_off
        FUNCTION start_func_stm_off,021203H
        LOCFRAME RSTACK, 2, STACK
        PUBLIC start_func_stm_on
        FUNCTION start_func_stm_on,021203H
        LOCFRAME CSTACK, 2, STACK
        LOCFRAME RSTACK, 2, STACK
        PUBLIC start_func_stm_pwk
        FUNCTION start_func_stm_pwk,021203H
        LOCFRAME RSTACK, 2, STACK
        PUBLIC start_func_stm_scp
        FUNCTION start_func_stm_scp,021203H
        LOCFRAME CSTACK, 2, STACK
        LOCFRAME RSTACK, 2, STACK
        PUBLIC state_modem
        PUBLIC state_seq
        PUBLIC stm_base_sim
        PUBLIC stm_ppp
        PUBLIC stm_pwr_kon
        PUBLIC stm_pwr_off
        PUBLIC stm_pwr_on
        PUBLIC stm_rdc
        PUBLIC stm_res_sim
        PUBLIC stm_sc
        PUBLIC stm_scp
        PUBLIC stm_si
        PUBLIC summa_temperatura
        PUBLIC sv1
        PUBLIC sv2
        PUBLIC temperatura
        PUBLIC vol_cnt_link_res
        PUBLIC vol_cnt_no_link
        PUBLIC vol_tx_ppp
        
        CFI Names cfiNames0
        CFI StackFrame CFA_Y Y DATA
        CFI StackFrame CFA_SP SP DATA
        CFI VirtualResource ?RetPad:1, ?RetHigh:8, ?RetLow:8, ?Ret:17
        CFI Resource R0:8, R1:8, R2:8, R3:8, R4:8, R5:8, R6:8, R7:8, R8:8, R9:8
        CFI Resource R10:8, R11:8, R12:8, R13:8, R14:8, R15:8, R16:8, R17:8
        CFI Resource R18:8, R19:8, R20:8, R21:8, R22:8, R23:8, R24:8, R25:8
        CFI Resource R26:8, R27:8, R28:8, R29:8, R30:8, R31:8
        CFI Resource ?RetHighByteMask:8, SP:16, SPH:8, SPL:8, Y:16
        CFI ResourceParts ?Ret ?RetHigh, ?RetLow, ?RetPad
        CFI ResourceParts SP SPH, SPL
        CFI ResourceParts Y R29, R28
        CFI EndNames cfiNames0
        
        CFI Common cfiCommon0 Using cfiNames0
        CFI CodeAlign 1
        CFI DataAlign 1
        CFI ReturnAddress ?Ret CODE
        CFI CFA_Y Y+0
        CFI CFA_SP SP+2
        CFI ?RetPad 0
        CFI ?RetHigh and(load(1, DATA, sub(CFA_SP, 1)), ?RetHighByteMask)
        CFI ?RetLow Frame(CFA_SP, 0)
        CFI ?Ret Concat
        CFI R0 Undefined
        CFI R1 Undefined
        CFI R2 Undefined
        CFI R3 Undefined
        CFI R4 SameValue
        CFI R5 SameValue
        CFI R6 SameValue
        CFI R7 SameValue
        CFI R8 SameValue
        CFI R9 SameValue
        CFI R10 SameValue
        CFI R11 SameValue
        CFI R12 SameValue
        CFI R13 SameValue
        CFI R14 SameValue
        CFI R15 SameValue
        CFI R16 Undefined
        CFI R17 Undefined
        CFI R18 Undefined
        CFI R19 Undefined
        CFI R20 Undefined
        CFI R21 Undefined
        CFI R22 Undefined
        CFI R23 Undefined
        CFI R24 SameValue
        CFI R25 SameValue
        CFI R26 SameValue
        CFI R27 SameValue
        CFI R28 Undefined
        CFI R29 Undefined
        CFI R30 Undefined
        CFI R31 Undefined
        CFI ?RetHighByteMask SameValue
        CFI SPH Undefined
        CFI SPL Undefined
        CFI EndCommon cfiCommon0
        
        EXTERN RdFromFleshToArr
        FUNCTION RdFromFleshToArr,0202H
        EXTERN strlen
        FUNCTION strlen,010202H
        EXTERN WrArrayToFlesh
        FUNCTION WrArrayToFlesh,0202H
        EXTERN write_log_info
        FUNCTION write_log_info,0202H
        EXTERN kodirovka
        FUNCTION kodirovka,0202H
        EXTERN calc_crc_ip
        FUNCTION calc_crc_ip,0202H
        EXTERN calc_crc_udp_2
        FUNCTION calc_crc_udp_2,0202H
        EXTERN pppfcs16
        FUNCTION pppfcs16,0202H
        EXTERN burst_ds_r
        FUNCTION burst_ds_r,0202H
        EXTERN write_to_buf
        FUNCTION write_to_buf,0202H
        EXTERN read_from_buf
        FUNCTION read_from_buf,0202H
        EXTERN supervisorwdt
        FUNCTION supervisorwdt,0202H
        EXTERN init_scen_stm_si
        FUNCTION init_scen_stm_si,0202H
        EXTERN at_com_tx
        FUNCTION at_com_tx,0202H
        EXTERN at_com_rx
        FUNCTION at_com_rx,0202H
        EXTERN at_com_scen_init
        FUNCTION at_com_scen_init,0202H
        EXTERN init_scen_stm_sc
        FUNCTION init_scen_stm_sc,0202H
        EXTERN at_com_scen_stm_sc
        FUNCTION at_com_scen_stm_sc,0202H
        EXTERN analiz_ppp_rx
        FUNCTION analiz_ppp_rx,0202H
        EXTERN monitor_event_LCP
        FUNCTION monitor_event_LCP,0202H
        EXTERN monitor_act_LCP
        FUNCTION monitor_act_LCP,0202H
        EXTERN monitor_event_PAP
        FUNCTION monitor_event_PAP,0202H
        EXTERN monitor_act_PAP
        FUNCTION monitor_act_PAP,0202H
        EXTERN monitor_event_IPCP
        FUNCTION monitor_event_IPCP,0202H
        EXTERN monitor_act_IPCP
        FUNCTION monitor_act_IPCP,0202H
        EXTERN at_com_scen_stm_dc_1
        FUNCTION at_com_scen_stm_dc_1,0202H
        EXTERN ret_version
        FUNCTION ret_version,0202H
        EXTERN set_rlt
        FUNCTION set_rlt,0202H
        EXTERN sprintf
        FUNCTION sprintf,010202H
        EXTERN mov_massiv
        FUNCTION mov_massiv,0202H
        EXTERN IPCP_event
        EXTERN LCP_event
        EXTERN LCP_state
        EXTERN Obj_ppp_tx
        EXTERN PAP_event
        EXTERN Regim
        EXTERN Rs232_2
        EXTERN Rs232_2_buf_rx_tx
        EXTERN Rs485_1
        EXTERN Rs485_1_buf_rx_tx
        EXTERN Rs485_2
        EXTERN Rs485_2_buf_rx_tx
        EXTERN cnt_com
        EXTERN cnt_ip_tm_cntr
        EXTERN cnt_ipcp_tm_out
        EXTERN cnt_lcp_tm_out
        EXTERN cnt_pap_tm_out
        EXTERN cnt_rst_ipcp
        EXTERN cnt_rst_lcp
        EXTERN cnt_rst_pap
        EXTERN fl_232_2
        EXTERN fl_485_1
        EXTERN fl_485_2
        EXTERN fl_ip
        EXTERN fl_ipcp
        EXTERN fl_ipcp1
        EXTERN fl_ipcp2
        EXTERN fl_lcp
        EXTERN fl_lcp1
        EXTERN fl_lcp2
        EXTERN fl_pap
        EXTERN fl_rewrite
        EXTERN fl_rx_ppp
        EXTERN i_scan_ipcp
        EXTERN i_scan_lcp
        EXTERN i_scj_ipcp
        EXTERN i_scj_lcp
        EXTERN i_scr_ipcp
        EXTERN i_scr_lcp
        EXTERN i_scr_pap
        EXTERN i_sta_ipcp
        EXTERN i_sta_lcp
        EXTERN i_str_ipcp
        EXTERN i_str_lcp
        EXTERN keys
        EXTERN rcvd_protokol
        EXTERN real_time
        EXTERN rep
        EXTERN state_led_md
        EXTERN struct_tcc1
        EXTERN struct_tcc2
        EXTERN uk_in_act_IPCP
        EXTERN uk_in_act_LCP
        EXTERN uk_out_act_IPCP
        EXTERN uk_out_act_LCP

// D:\PRJIAR\NSSBETA2\base.c
//    1 #include <iom1280.h> 

        ASEGN ABSOLUTE:DATA:NOROOT,0136H
// union <unnamed> volatile __ext_io _A_UDR3
_A_UDR3:
        DS 1

        ASEGN ABSOLUTE:DATA:NOROOT,0134H
// union <unnamed> volatile __ext_io _A_UBRR3
_A_UBRR3:
        DS 2

        ASEGN ABSOLUTE:DATA:NOROOT,0132H
// union <unnamed> volatile __ext_io _A_UCSR3C
_A_UCSR3C:
        DS 1

        ASEGN ABSOLUTE:DATA:NOROOT,0131H
// union <unnamed> volatile __ext_io _A_UCSR3B
_A_UCSR3B:
        DS 1

        ASEGN ABSOLUTE:DATA:NOROOT,0105H
// union <unnamed> volatile __ext_io _A_PORTJ
_A_PORTJ:
        DS 1

        ASEGN ABSOLUTE:DATA:NOROOT,0102H
// union <unnamed> volatile __ext_io _A_PORTH
_A_PORTH:
        DS 1

        ASEGN ABSOLUTE:DATA:NOROOT,0d6H
// union <unnamed> volatile __io _A_UDR2
_A_UDR2:
        DS 1

        ASEGN ABSOLUTE:DATA:NOROOT,0d4H
// union <unnamed> volatile __io _A_UBRR2
_A_UBRR2:
        DS 2

        ASEGN ABSOLUTE:DATA:NOROOT,0d2H
// union <unnamed> volatile __io _A_UCSR2C
_A_UCSR2C:
        DS 1

        ASEGN ABSOLUTE:DATA:NOROOT,0d0H
// union <unnamed> volatile __io _A_UCSR2A
_A_UCSR2A:
        DS 1

        ASEGN ABSOLUTE:DATA:NOROOT,0ccH
// union <unnamed> volatile __io _A_UBRR1
_A_UBRR1:
        DS 2

        ASEGN ABSOLUTE:DATA:NOROOT,0caH
// union <unnamed> volatile __io _A_UCSR1C
_A_UCSR1C:
        DS 1

        ASEGN ABSOLUTE:DATA:NOROOT,0c9H
// union <unnamed> volatile __io _A_UCSR1B
_A_UCSR1B:
        DS 1

        ASEGN ABSOLUTE:DATA:NOROOT,0c6H
// union <unnamed> volatile __io _A_UDR0
_A_UDR0:
        DS 1

        ASEGN ABSOLUTE:DATA:NOROOT,0c1H
// union <unnamed> volatile __io _A_UCSR0B
_A_UCSR0B:
        DS 1

        ASEGN ABSOLUTE:DATA:NOROOT,0c0H
// union <unnamed> volatile __io _A_UCSR0A
_A_UCSR0A:
        DS 1

        ASEGN ABSOLUTE:DATA:NOROOT,060H
// union <unnamed> volatile __io _A_WDTCSR
_A_WDTCSR:
        DS 1

        ASEGN ABSOLUTE:DATA:NOROOT,05fH
// union <unnamed> volatile __io _A_SREG
_A_SREG:
        DS 1

        ASEGN ABSOLUTE:DATA:NOROOT,054H
// union <unnamed> volatile __io _A_MCUSR
_A_MCUSR:
        DS 1

        ASEGN ABSOLUTE:DATA:NOROOT,034H
// union <unnamed> volatile __io _A_PORTG
_A_PORTG:
        DS 1

        ASEGN ABSOLUTE:DATA:NOROOT,02eH
// union <unnamed> volatile __io _A_PORTE
_A_PORTE:
        DS 1

        ASEGN ABSOLUTE:DATA:NOROOT,02cH
// union <unnamed> volatile __io _A_PINE
_A_PINE:
        DS 1

        ASEGN ABSOLUTE:DATA:NOROOT,02bH
// union <unnamed> volatile __io _A_PORTD
_A_PORTD:
        DS 1

        ASEGN ABSOLUTE:DATA:NOROOT,028H
// union <unnamed> volatile __io _A_PORTC
_A_PORTC:
        DS 1

        ASEGN ABSOLUTE:DATA:NOROOT,025H
// union <unnamed> volatile __io _A_PORTB
_A_PORTB:
        DS 1
//    2 #include <inavr.h> 
//    3 #include "dfpin.h"
//    4 #include "dfproc.h"
//    5 #include "def_prot.h"
//    6 #include "def_conf.h"
//    7 #include "map_ef.h"
//    8 #include "map_ad.h"
//    9 #include "ozu_map.h"
//   10 #include "def_at.h"
//   11 #include "def_log.h"
//   12 #include "def_link.h"
//   13 #include "dfcnst.h"
//   14 #include <string.h>
//   15 #include "sec.h"
//   16 #include <stdio.h>
//   17 

        RSEG NEAR_F:CODE:NOROOT(0)
//   18 __flash char stm_pwr_on[]=        {'S','T','M',':','p','w','r',' ','o','n'};
stm_pwr_on:
        DB 83, 84, 77, 58, 112, 119, 114, 32, 111, 110
//   19 __flash char stm_pwr_kon[]=       {'S','T','M',':','p','w','r',' ','k','o','n'};
//   20 __flash char stm_pwr_off[]=       {'S','T','M',':','p','w','r',' ','o','f','f',};
//   21 __flash char stm_si[]=            {'S','T','M',':','s','i'};
//   22 __flash char stm_sc[]=            {'S','T','M',':','s','c'};
//   23 __flash char stm_scp[]=           {'S','T','M',':','s','c','p'};
//   24 __flash char stm_ppp[]=           {'S','T','M',':','p','p','p'};
//   25 __flash char stm_rdc[]=           {'S','T','M',':','r','d','c'};
//   26 
//   27 __flash char stm_base_sim[]=      {'S','T','M',':','b','a','s','e',' ','s','i','m'}; //dobavka
stm_base_sim:
        DB 83, 84, 77, 58, 98, 97, 115, 101, 32, 115, 105, 109
//   28 __flash char stm_res_sim[]=       {'S','T','M',':','r','e','s',' ','s','i','m'}; //dobavka
stm_res_sim:
        DB 83, 84, 77, 58, 114, 101, 115, 32, 115, 105, 109

        RSEG NEAR_F:CODE:NOROOT(0)
stm_pwr_kon:
        DB 83, 84, 77, 58, 112, 119, 114, 32, 107, 111, 110

        RSEG NEAR_F:CODE:NOROOT(0)
stm_pwr_off:
        DB 83, 84, 77, 58, 112, 119, 114, 32, 111, 102, 102

        RSEG NEAR_F:CODE:NOROOT(0)
stm_si:
        DB 83, 84, 77, 58, 115, 105
stm_sc:
        DB 83, 84, 77, 58, 115, 99
stm_scp:
        DB 83, 84, 77, 58, 115, 99, 112
stm_ppp:
        DB 83, 84, 77, 58, 112, 112, 112
//   29 
//   30 __flash char evm_tm[]=        {'E','V','M',':','t','m'};
evm_tm:
        DB 69, 86, 77, 58, 116, 109
//   31 __flash char evm_at_ok[]=     {'E','V','M',':','a','t',' ','o','k'};
//   32 __flash char evm_at_err[]=    {'E','V','M',':','a','t',' ','e','r','r'};
evm_at_err:
        DB 69, 86, 77, 58, 97, 116, 32, 101, 114, 114
//   33 __flash char evm_ppp_ok[]=    {'E','V','M',':','p','p','p',' ','o','k'};
//   34 __flash char evm_ppp_err[]=   {'E','V','M',':','p','p','p',' ','e','r','r'};
evm_ppp_err:
        DB 69, 86, 77, 58, 112, 112, 112, 32, 101, 114, 114
//   35 __flash char evm_dcd_err[]=   {'E','V','M',':','d','c','d',' ','e','r','r'};
evm_dcd_err:
        DB 69, 86, 77, 58, 100, 99, 100, 32, 101, 114, 114
//   36 __flash char evm_no_rec[]=     {'E','V','M',':','n','o',' ','r','e','c'};
evm_no_rec:
        DB 69, 86, 77, 58, 110, 111, 32, 114, 101, 99
//   37 __flash char evm_cts_err[]=   {'E','V','M',':','c','t','s',' ','e','r','r'}; //dobavka
evm_cts_err:
        DB 69, 86, 77, 58, 99, 116, 115, 32, 101, 114, 114
//   38 __flash char evm_ch_sim[]=    {'E','V','M',':','c','h',' ','s','i','m'};     //dobavka
evm_ch_sim:
        DB 69, 86, 77, 58, 99, 104, 32, 115, 105, 109

        RSEG NEAR_F:CODE:NOROOT(0)
stm_rdc:
        DB 83, 84, 77, 58, 114, 100, 99

        RSEG NEAR_F:CODE:NOROOT(0)
evm_at_ok:
        DB 69, 86, 77, 58, 97, 116, 32, 111, 107

        RSEG NEAR_F:CODE:NOROOT(0)
evm_ppp_ok:
        DB 69, 86, 77, 58, 112, 112, 112, 32, 111, 107
//   39 
//   40 //__flash char evc_heat_on[]=        {'E','V','C',':','h','e','a','t',' ','o','n'};
//   41 //__flash char evc_heat_off[]=       {'E','V','C',':','h','e','a','t',' ','o','f','f'};

        RSEG NEAR_F:CODE:NOROOT(0)
//   42 __flash char evc_taken[]=          {'E','V','C',':','t','a','k','e','n'};
evc_taken:
        DB 69, 86, 67, 58, 116, 97, 107, 101, 110
//   43 __flash char evc_alarm[]=          {'E','V','C',':','a','l','a','r','m'};
evc_alarm:
        DB 69, 86, 67, 58, 97, 108, 97, 114, 109
//   44 //__flash char evc_feed_akb[]=       {'E','V','C',':','f','e','e','d',' ','a','k','b'};
//   45 //__flash char evc_feed_220[]=       {'E','V','C',':','f','e','e','d',' ','2','2','0'};
//   46 __flash char evc_ts1[]=       {'E','V','C',':','t','s','1'};
evc_ts1:
        DB 69, 86, 67, 58, 116, 115, 49
//   47 __flash char evc_ts2[]=       {'E','V','C',':','t','s','2'};
evc_ts2:
        DB 69, 86, 67, 58, 116, 115, 50
//   48 

        RSEG NEAR_F:CODE:NOROOT(0)
//   49 __flash char evc_state[]=       {'E','V','C',':','s','t','a','t','e'};
evc_state:
        DB 69, 86, 67, 58, 115, 116, 97, 116, 101
//   50 

        RSEG NEAR_F:CODE:NOROOT(0)
//   51 __flash char evc_wdr[]=            {'E','V','C',':','w','d','r'};
evc_wdr:
        DB 69, 86, 67, 58, 119, 100, 114
//   52 __flash char evc_bod[]=            {'E','V','C',':','b','o','d'};
evc_bod:
        DB 69, 86, 67, 58, 98, 111, 100
//   53 __flash char evc_rst[]=            {'E','V','C',':','r','s','t'};
evc_rst:
        DB 69, 86, 67, 58, 114, 115, 116
//   54 __flash char evc_pwr[]=            {'E','V','C',':','p','w','r'};
evc_pwr:
        DB 69, 86, 67, 58, 112, 119, 114
//   55 

        RSEG NEAR_F:CODE:NOROOT(0)
//   56 __flash char msg_evc[]=          {'M','S','G',':','e','v','c',};
msg_evc:
        DB 77, 83, 71, 58, 101, 118, 99

        RSEG NEAR_F:CODE:NOROOT(0)
//   57 __flash char msg_ctrl_ch[]=      {'M','S','G',':','c','t','r','l',' ','c','h'};
msg_ctrl_ch:
        DB 77, 83, 71, 58, 99, 116, 114, 108, 32, 99, 104

        RSEG NEAR_F:CODE:NOROOT(0)
//   58 __flash char msg_ctrl_nat[]=     {'M','S','G',':','c','t','r','l',' ','n','a','t'};
msg_ctrl_nat:
        DB 77, 83, 71, 58, 99, 116, 114, 108, 32, 110, 97, 116
//   59 
//   60 

        RSEG NEAR_F:CODE:NOROOT(0)
//   61 __flash char req_out_ctrl_cl[]={'R','E','Q','-','>','c','t','r','l',' ','c','l'};
req_out_ctrl_cl:
        DB 82, 69, 81, 45, 62, 99, 116, 114, 108, 32, 99, 108
//   62 
//   63 
//   64 /*
//   65 __flash char rec []=             {'R','E','C'};
//   66 
//   67 __flash char req_out_ctrl_cl[]={'R','E','Q','-','>','c','t','r','l',' ','c','l'};
//   68 __flash char ans_in_ctrl_cl[]={'A','N','S','-','<','c','t','r','l',' ','c','l'};
//   69 
//   70 __flash char req_in_485_1[]={'R','E','Q','-','<','4','8','5','_','1'};
//   71 __flash char req_in_485_2[]={'R','E','Q','-','<','4','8','5','_','2'};
//   72 __flash char req_in_232[]={'R','E','Q','-','<','2','3','2'};
//   73 __flash char req_in_st_contr[]={'R','E','Q','-','<','s','t',' ','c','o','n','t','r'};
//   74 __flash char req_in_config[]={'R','E','Q','-','<','c','o','n','f','i','g'};
//   75 __flash char req_in_prog[]={'R','E','Q','-','<','p','r','o','g'};
//   76 
//   77 
//   78 __flash char ans_out_485_1[]={'A','N','S','-','>','4','8','5','_','1'};
//   79 __flash char ans_out_485_2[]={'A','N','S','-','>','4','8','5','_','2'};
//   80 __flash char ans_out_232[]={'A','N','S','-','>','2','3','2'};
//   81 __flash char ans_out_st_contr[]={'A','N','S','-','>','s','t',' ','c','o','n','t','r'};
//   82 __flash char ans_out_config[]={'A','N','S','-','>','c','o','n','f','i','g'};
//   83 __flash char ans_out_prog[]={'A','N','S','-','>','p','r','o','g'};
//   84 */
//   85 void supervisorwdt(void);
//   86 
//   87 void kodirovka(unsigned int kol_send_byte);
//   88 
//   89 void send_info(char size,char __flash *p,unsigned char fl_id,unsigned char id);
//   90 
//   91 void    mov_massiv (char size, char *p);
//   92 
//   93 void control_temperatura(void);
//   94 
//   95 void init_modem_only(void);
//   96 extern unsigned char Regim;
//   97 
//   98 void send_err485(unsigned char port,unsigned char err,unsigned char id,unsigned int dst);
//   99 unsigned int proc_config(unsigned char *buf_rx_ppp,unsigned char offset,unsigned int count_rx_ppp);
//  100 unsigned char check_ln_conf(unsigned char *buf_rx_ppp,unsigned char offset,unsigned int count_rx_ppp);
//  101 unsigned char check_cont_485_1 (unsigned char *pointer);
//  102 unsigned char check_cont_485_2 (unsigned char *pointer);
//  103 
//  104 unsigned char ret_version(unsigned char unit,unsigned char *ptr);
//  105 
//  106 unsigned int calc_crc_ip(unsigned char *p,unsigned int count);
//  107 unsigned int calc_crc_udp_2(unsigned char *buf_rx_ppp,unsigned int count);
//  108 unsigned int pppfcs16(unsigned int fcs,unsigned char *cp,unsigned int len);
//  109 
//  110 void monitor_event_PAP(void);
//  111 void monitor_act_LCP(void);
//  112 void monitor_event_LCP(void);
//  113 void monitor_act_IPCP(void);
//  114 void monitor_event_IPCP(void);
//  115 void monitor_act_PAP(void);
//  116 void clr_var_ppp_rx(void);
//  117 void clr_var_ppp(void);
//  118 
//  119 void analiz_ppp_rx(void);
//  120 
//  121 void monitor1_tx_rs485_1(void);   //GPRS-řňŕňíűé RS485_1
//  122 void monitor1_rec_rs485_1(void);
//  123 void monitor1_tm_rs485_1(void);
//  124 
//  125 void monitor1_tx_rs485_2(void);   //GPRS-řňŕňíűé RS485_2
//  126 void monitor1_rec_rs485_2(void);
//  127 void monitor1_tm_rs485_2(void);
//  128 
//  129 void monitor1_tx_rs232_2(void);   //GPRS-řňŕňíűé RS232_2
//  130 void monitor1_rec_rs232_2(void);
//  131 void monitor1_tm_rs232_2(void);
//  132 
//  133 
//  134 
//  135   extern void init_scen_stm_si(void);
//  136   extern void init_scen_stm_sc(void);
//  137   extern void init_scen_stm_dc(void);
//  138   extern void at_com_rx(unsigned char cnt);
//  139   extern void at_com_tx(unsigned char cnt);
//  140   extern unsigned char at_com_scen_init(unsigned char *cnt,unsigned char *rp);
//  141   extern unsigned char at_com_scen_stm_sc(unsigned char *cnt,unsigned char *rp);
//  142   //extern unsigned char at_com_scen_stm_dc(unsigned char *cnt,unsigned char *rp);
//  143   extern void init_scen_stm_dc_1(void);
//  144   extern unsigned char at_com_scen_stm_dc_1(unsigned char *cnt,unsigned char *rp);
//  145 
//  146    extern unsigned char cnt_com;
//  147    extern unsigned char rep;
//  148   
//  149   
//  150 
//  151 extern void WrArrayToFlesh(unsigned int adres_flesh,  unsigned char *adres_ozu, unsigned int num,unsigned char flag,unsigned char znach);
//  152 extern void RdFromFleshToArr(unsigned int adres_flesh, unsigned char *adres_ozu,unsigned int num);
//  153 extern void write_log_info(unsigned char sost,unsigned char mesto);
//  154 extern unsigned long int burst_ds_r(void);
//  155 void set_rlt(unsigned char address, unsigned char * data);
//  156 unsigned char write_to_buf(unsigned char *p_buf,unsigned int *ptr_in,unsigned int *ptr_out,unsigned int *ptr_out_kv,unsigned int *crc,unsigned char *p_data,unsigned int l_data, unsigned int max_buf);
//  157 unsigned int read_from_buf(unsigned char *p_buf,unsigned int *ptr_in,unsigned int *ptr_out,unsigned int *ptr_out_kv,unsigned int *crc,unsigned char *p_data, unsigned int max_buf);
//  158 
//  159 //enum t_version {VER1 = 1 ,VER2,VER3,VER4};
//  160 //enum t_type {ZAPR,OTV,SOOB,KVIT};                
//  161 enum t_state_modem {STM_NONE=0,STM_ON,STM_KON,STM_PWK,STM_SI,STM_SC,STM_SCP,STM_PPP,STM_RDC,STM_DC,STM_OFF};
//  162 enum t_state_modem state_modem;
//  163 enum t_event_modem event_modem;
//  164 enum bool command_AT;
//  165 
//  166 unsigned char cnt_stm_tm1;
//  167 
//  168 
//  169 extern unsigned char keys[10];
//  170 
//  171 extern struct
//  172         { // â äâîč÷íîě ęîäĺ
//  173           char r_sec;
//  174           char r_min;
//  175           char r_hor;
//  176           char r_day;
//  177           char r_date;
//  178           char r_month;
//  179           char r_year;
//  180           char r_control;
//  181         }  real_time; 
//  182 
//  183 
//  184 extern struct
//  185   {
//  186   unsigned char  ip         :1;
//  187   unsigned char  udp        :1;
//  188   unsigned char  num_self   :1;
//  189   unsigned char cnt_reset;
//  190   }fl_rewrite;
//  191 
//  192  #pragma location=A_RW_PDP 

        ASEGN EEPROM_AN:XDATA:NOROOT,01H
//  193 __eeprom __no_init unsigned char e_rw_pdp;
e_rw_pdp:
        DS 1
//  194 
//  195  #pragma location=A_RW_PDP_R 

        ASEGN EEPROM_AN:XDATA:NOROOT,02H
//  196 __eeprom __no_init unsigned char e_rw_pdp_r;
e_rw_pdp_r:
        DS 1
//  197 
//  198 

        RSEG NEAR_F:CODE:NOROOT(0)
//  199 __flash  unsigned char auchCRCHi[] ={
auchCRCHi:
        DB 0, 193, 129, 64, 1, 192, 128, 65, 1, 192, 128, 65, 0, 193, 129, 64
        DB 1, 192, 128, 65, 0, 193, 129, 64, 0, 193, 129, 64, 1, 192, 128, 65
        DB 1, 192, 128, 65, 0, 193, 129, 64, 0, 193, 129, 64, 1, 192, 128, 65
        DB 0, 193, 129, 64, 1, 192, 128, 65, 1, 192, 128, 65, 0, 193, 129, 64
        DB 1, 192, 128, 65, 0, 193, 129, 64, 0, 193, 129, 64, 1, 192, 128, 65
        DB 0, 193, 129, 64, 1, 192, 128, 65, 1, 192, 128, 65, 0, 193, 129, 64
        DB 0, 193, 129, 64, 1, 192, 128, 65, 1, 192, 128, 65, 0, 193, 129, 64
        DB 1, 192, 128, 65, 0, 193, 129, 64, 0, 193, 129, 64, 1, 192, 128, 65
        DB 1, 192, 128, 65, 0, 193, 129, 64, 0, 193, 129, 64, 1, 192, 128, 65
        DB 0, 193, 129, 64, 1, 192, 128, 65, 1, 192, 128, 65, 0, 193, 129, 64
        DB 0, 193, 129, 64, 1, 192, 128, 65, 1, 192, 128, 65, 0, 193, 129, 64
        DB 1, 192, 128, 65, 0, 193, 129, 64, 0, 193, 129, 64, 1, 192, 128, 65
        DB 0, 193, 129, 64, 1, 192, 128, 65, 1, 192, 128, 65, 0, 193, 129, 64
        DB 1, 192, 128, 65, 0, 193, 129, 64, 0, 193, 129, 64, 1, 192, 128, 65
        DB 1, 192, 128, 65, 0, 193, 129, 64, 0, 193, 129, 64, 1, 192, 128, 65
        DB 0, 193, 129, 64, 1, 192, 128, 65, 1, 192, 128, 65, 0, 193, 129, 64
//  200   0x00,0xC1,0x81,0x40,0x01,0xC0,0x80,0x41,0x01,0xC0,0x80,0x41,0x00,
//  201   0xC1,0x81,0x40,0x01,0xC0,0x80,0x41,0x00,0xC1,0x81,0x40,0x00,0xC1,
//  202   0x81,0x40,0x01,0xC0,0x80,0x41,0x01,0xC0,0x80,0x41,0x00,0xC1,0x81,
//  203   0x40,0x00,0xC1,0x81,0x40,0x01,0xC0,0x80,0x41,0x00,0xC1,0x81,0x40,
//  204   0x01,0xC0,0x80,0x41,0x01,0xC0,0x80,0x41,0x00,0xC1,0x81,0x40,0x01,
//  205   0xC0,0x80,0x41,0x00,0xC1,0x81,0x40,0x00,0xC1,0x81,0x40,0x01,0xC0,
//  206   0x80,0x41,0x00,0xC1,0x81,0x40,0x01,0xC0,0x80,0x41,0x01,0xC0,0x80,
//  207   0x41,0x00,0xC1,0x81,0x40,0x00,0xC1,0x81,0x40,0x01,0xC0,0x80,0x41,
//  208   0x01,0xC0,0x80,0x41,0x00,0xC1,0x81,0x40,0x01,0xC0,0x80,0x41,0x00,
//  209   0xC1,0x81,0x40,0x00,0xC1,0x81,0x40,0x01,0xC0,0x80,0x41,0x01,0xC0,
//  210   0x80,0x41,0x00,0xC1,0x81,0x40,0x00,0xC1,0x81,0x40,0x01,0xC0,0x80,
//  211   0x41,0x00,0xC1,0x81,0x40,0x01,0xC0,0x80,0x41,0x01,0xC0,0x80,0x41,
//  212   0x00,0xC1,0x81,0x40,0x00,0xC1,0x81,0x40,0x01,0xC0,0x80,0x41,0x01,
//  213   0xC0,0x80,0x41,0x00,0xC1,0x81,0x40,0x01,0xC0,0x80,0x41,0x00,0xC1,
//  214   0x81,0x40,0x00,0xC1,0x81,0x40,0x01,0xC0,0x80,0x41,0x00,0xC1,0x81,
//  215   0x40,0x01,0xC0,0x80,0x41,0x01,0xC0,0x80,0x41,0x00,0xC1,0x81,0x40,
//  216   0x01,0xC0,0x80,0x41,0x00,0xC1,0x81,0x40,0x00,0xC1,0x81,0x40,0x01,
//  217   0xC0,0x80,0x41,0x01,0xC0,0x80,0x41,0x00,0xC1,0x81,0x40,0x00,0xC1,
//  218   0x81,0x40,0x01,0xC0,0x80,0x41,0x00,0xC1,0x81,0x40,0x01,0xC0,0x80,
//  219   0x41,0x01,0xC0,0x80,0x41,0x00,0xC1,0x81,0x40};
//  220   
//  221     

        RSEG NEAR_F:CODE:NOROOT(0)
//  222 __flash   unsigned  char auchCRCLo[] = {
auchCRCLo:
        DB 0, 192, 193, 1, 195, 3, 2, 194, 198, 6, 7, 199, 5, 197, 196, 4, 204
        DB 12, 13, 205, 15, 207, 206, 14, 10, 202, 203, 11, 201, 9, 8, 200, 216
        DB 24, 25, 217, 27, 219, 218, 26, 30, 222, 223, 31, 221, 29, 28, 220
        DB 20, 212, 213, 21, 215, 23, 22, 214, 210, 18, 19, 211, 17, 209, 208
        DB 16, 240, 48, 49, 241, 51, 243, 242, 50, 54, 246, 247, 55, 245, 53
        DB 52, 244, 60, 252, 253, 61, 255, 63, 62, 254, 250, 58, 59, 251, 57
        DB 249, 248, 56, 40, 232, 233, 41, 235, 43, 42, 234, 238, 46, 47, 239
        DB 45, 237, 236, 44, 228, 36, 37, 229, 39, 231, 230, 38, 34, 226, 227
        DB 35, 225, 33, 32, 224, 160, 96, 97, 161, 99, 163, 162, 98, 102, 166
        DB 167, 103, 165, 101, 100, 164, 108, 172, 173, 109, 175, 111, 110, 174
        DB 170, 106, 107, 171, 105, 169, 168, 104, 120, 184, 185, 121, 187, 123
        DB 122, 186, 190, 126, 127, 191, 125, 189, 188, 124, 180, 116, 117, 181
        DB 119, 183, 182, 118, 114, 178, 179, 115, 177, 113, 112, 176, 80, 144
        DB 145, 81, 147, 83, 82, 146, 150, 86, 87, 151, 85, 149, 148, 84, 156
        DB 92, 93, 157, 95, 159, 158, 94, 90, 154, 155, 91, 153, 89, 88, 152
        DB 136, 72, 73, 137, 75, 139, 138, 74, 78, 142, 143, 79, 141, 77, 76
        DB 140, 68, 132, 133, 69, 135, 71, 70, 134, 130, 66, 67, 131, 65, 129
        DB 128, 64
//  223 0x00,0xC0,0xC1,0x01,0xC3,0x03,0x02,0xC2,0xC6,0x06,0x07,0xC7,0x05,
//  224 0xC5,0xC4,0x04,0xCC,0x0C,0x0D,0xCD,0x0F,0xCF,0xCE,0x0E,0x0A,0xCA,
//  225 0xCB,0x0B,0xC9,0x09,0x08,0xC8,0xD8,0x18,0x19,0xD9,0x1B,0xDB,0xDA,
//  226 0x1A,0x1E,0xDE,0xDF,0x1F,0xDD,0x1D,0x1C,0xDC,0x14,0xD4,0xD5,0x15,
//  227 0xD7,0x17,0x16,0xD6,0xD2,0x12,0x13,0xD3,0x11,0xD1,0xD0,0x10,0xF0,
//  228 0x30,0x31,0xF1,0x33,0xF3,0xF2,0x32,0x36,0xF6,0xF7,0x37,0xF5,0x35,
//  229 0x34,0xF4,0x3C,0xFC,0xFD,0x3D,0xFF,0x3F,0x3E,0xFE,0xFA,0x3A,0x3B,
//  230 0xFB,0x39,0xF9,0xF8,0x38,0x28,0xE8,0xE9,0x29,0xEB,0x2B,0x2A,0xEA,
//  231 0xEE,0x2E,0x2F,0xEF,0x2D,0xED,0xEC,0x2C,0xE4,0x24,0x25,0xE5,0x27,
//  232 0xE7,0xE6,0x26,0x22,0xE2,0xE3,0x23,0xE1,0x21,0x20,0xE0,0xA0,0x60,
//  233 0x61,0xA1,0x63,0xA3,0xA2,0x62,0x66,0xA6,0xA7,0x67,0xA5,0x65,0x64,
//  234 0xA4,0x6C,0xAC,0xAD,0x6D,0xAF,0x6F,0x6E,0xAE,0xAA,0x6A,0x6B,0xAB,
//  235 0x69,0xA9,0xA8,0x68,0x78,0xB8,0xB9,0x79,0xBB,0x7B,0x7A,0xBA,0xBE,
//  236 0x7E,0x7F,0xBF,0x7D,0xBD,0xBC,0x7C,0xB4,0x74,0x75,0xB5,0x77,0xB7,
//  237 0xB6,0x76,0x72,0xB2,0xB3,0x73,0xB1,0x71,0x70,0xB0,0x50,0x90,0x91,
//  238 0x51,0x93,0x53,0x52,0x92,0x96,0x56,0x57,0x97,0x55,0x95,0x94,0x54,
//  239 0x9C,0x5C,0x5D,0x9D,0x5F,0x9F,0x9E,0x5E,0x5A,0x9A,0x9B,0x5B,0x99,
//  240 0x59,0x58,0x98,0x88,0x48,0x49,0x89,0x4B,0x8B,0x8A,0x4A,0x4E,0x8E,
//  241 0x8F,0x4F,0x8D,0x4D,0x4C,0x8C,0x44,0x84,0x85,0x45,0x87,0x47,0x46,
//  242 0x86,0x82,0x42,0x43,0x83,0x41,0x81,0x80,0x40
//  243      };
//  244 
//  245 
//  246 

        RSEG NEAR_N:DATA:NOROOT(0)
//  247 __no_init unsigned char simka; //dobavka
simka:
        DS 1

        RSEG NEAR_Z:DATA:NOROOT(0)
        REQUIRE `?<Segment init: NEAR_Z>`
//  248 unsigned char Fl_ch_sim;       //dobavka
//  249 
//  250 
//  251  struct
//  252  {
//  253  unsigned char  clr_wdt     :1;
//  254  unsigned char  fl_out      :1;
//  255  unsigned char  from_timer0 :1;
//  256  unsigned char  fl_main     :1;
//  257  unsigned char  from_timer3 :1;
//  258  unsigned char  from_timer2 :1; 
//  259  unsigned char  from_adc :1;
//  260  }fl_wdt;
//  261 
//  262 
//  263 
//  264 extern struct                   //ńňđóęňóđŕ, îďčńűâŕţůŕ˙ îáúĺęň ďĺđĺäŕ÷č ďî PPP 
//  265   {  
//  266   enum bool prozr;      //âĺđńč˙       
//  267   enum t_version version;      //âĺđńč˙ 
//  268   enum t_type   type_pac;     //ňčď ďŕęĺňŕ
//  269   unsigned int num_src; // íîěĺđ îňďđŕâčňĺë˙
//  270   unsigned int num_dst; // íîěĺđ ďîëó÷ŕňĺë˙
//  271   unsigned char id_pac; // čäĺíňčôčęŕňîđ ďŕęĺňŕ  
//  272   unsigned char * p_opt; // //óęŕçŕňĺëü áóôĺđŕ îďöčé  
//  273   unsigned char l_opt;// äëčíŕ áóôĺđŕ îďöčé   
//  274   unsigned char kol_opt;// ęîëč÷ĺńňâî îďöčé   
//  275   unsigned char * p_data;  //óęŕçŕňĺëü áóôĺđŕ äŕííűő
//  276   unsigned int l_data;   // äëčíŕ äŕííűő
//  277   }Obj_ppp_tx;
//  278 
//  279 unsigned char buf_opt_tr[20]; 
//  280 unsigned int prov_ozu;
//  281 
//  282 
//  283 unsigned char buf_tx_232[VOL_TX_PPP];
//  284 unsigned int count_tx_ppp,vol_tx_ppp;
//  285 
//  286  //ńňđóęňóđű áóôĺđîâ íŕ ďđčĺě
//  287   struct
//  288  {
//  289   unsigned char data[VOL_RX_PPP];//ńŕě áóôĺđ
//  290   unsigned int ln_data;  // äëčíŕ äŕííűő
//  291   enum bool rec; // ďŕęĺň ďđčí˙ň
//  292   enum bool busy;// áóôĺđ çŕí˙ň
//  293   enum bool check_busy;// ďđîâĺđęŕ çŕí˙ň ëč áóôĺđ
//  294  }Buf1_rx_ppp,Buf2_rx_ppp; // 
//  295  
//  296 enum bool fl_cts_232_ignor;
//  297 unsigned int cnt_cts_off;
//  298 struct
//  299  {
//  300  unsigned char on: 1;
//  301  } fl_cts_232;
//  302 
//  303 
//  304 
//  305 
//  306 //unsigned char count_block_net,byte_state_net;
//  307 
//  308 //!!!!!!!!!!!!!!!!1ďŕđŕěĺňđű ęîíňđîëëĺđŕ
//  309 unsigned char ip_ls[4]; 
//  310 unsigned int num_self,num_seq_cl,port_udp;
//  311 
//  312 
//  313 
//  314 struct                   //ńňđóęňóđŕ, îďčńűâŕţůŕ˙ îáúĺęň ďĺđĺäŕ÷č ďî PPP 
//  315   {  
//  316   enum bool link_no ; //ńâ˙çč íĺň
//  317   enum bool link_waits; //îćčäŕíčĺ ęâčňęŕ íŕ ęîíňđîëü ńâ˙çč
//  318   enum bool link;      //ęîíňđîëü ńâ˙çč    
//  319   enum bool nat;      //ęîíňđîëü nat 
//  320   unsigned int cnt_link; // ń÷ĺň÷čę
//  321   unsigned int cnt_nat; // ń÷ĺň÷čę
//  322   unsigned int vol_link; // çíŕ÷ĺíčĺ  
//  323   unsigned int vol_nat; // //çíŕ÷ĺíčĺ 
//  324   unsigned int vol_waits; // çíŕ÷ĺíčĺ âđĺěĺíč ęâčňęŕ îćčäŕíč˙ ęîíňđîë˙ ńâ˙çč
//  325   unsigned char cnt_try; // ń÷ĺň÷čę ďîďűňîę ďîëó÷čňü ęâčňîę
//  326   unsigned char vol_try; // rjkbxtcndj ďîďűňîę ďîëó÷čňü ęâčňîę
//  327   unsigned int vol_nat_r; // ń÷ĺň÷čę
//  328   }Control;
//  329 
//  330 
//  331  unsigned long int vol_cnt_no_link, vol_cnt_link_res, cnt_no_link, cnt_link_res;; //dobavka
//  332 
//  333 
//  334   unsigned char Appl_RS485_1_data_buf[LN_BUF_485_1];// ńŕě áóôĺđ
//  335   unsigned char Appl_RS485_2_data_buf[LN_BUF_485_2];// ńŕě áóôĺđ
//  336   unsigned char Appl_RS232_2_data_buf[LN_BUF_232_2];// ńŕě áóôĺđ
//  337  
//  338     struct                   //ńňđóęňóđŕ îďčńűâŕţůŕ˙ đŕáîňó ďđčëîćĺíč˙ "RS485_1" 
//  339   {  
//  340   enum bool fl_data_buf; //čěĺĺňń˙ ëč çŕáóôĺđčçčđîâŕííűé ďŕęĺň äë˙ ďĺđĺäŕ÷č â ďîđň RS485_1
//  341   unsigned int ln_data_buf; // çŕáóôĺđčçčđîâŕííŕ˙ äëčíŕ áóôĺđŕ
//  342   unsigned int dst_buf; // çŕáóôĺđčçčđîâŕííűé ďîëó÷ŕňĺëü
//  343   unsigned char cont_buf[8];// çŕáóôĺđčçčđîâŕííűé ęîíňĺęńň
//  344   unsigned char id_buf; // çŕáóôĺđčçčđîâŕííűé id
//  345   unsigned int dst_tek;// ňĺęóůčé ďîëó÷ŕňĺëü
//  346   unsigned char id_tek; // ňĺęóůčé id
//  347   unsigned int pre_tx;//çŕäĺđćęŕ ďĺđĺä ďĺđĺäŕ÷ĺé
//  348   }Appl_RS485_1,Appl_RS485_2,Appl_RS232_2;
Appl_RS485_1:
        DS 19
Appl_RS485_2:
        DS 19
cnt_link_res:
        DS 4
//  349 
//  350   
//  351      struct
//  352  {
//  353  unsigned char mon1 : 1;
//  354  unsigned char mon2 : 1;
//  355  unsigned char mon232_2 : 1;
//  356  } fl_tx485;
//  357  
//  358 extern struct
//  359  {
//  360  unsigned char busy : 1;
//  361  unsigned char rec : 1;
//  362  unsigned char tm_out : 1;
//  363  unsigned char tx : 1;
//  364  unsigned char over : 1;
//  365  unsigned char buffed : 1;
//  366  }fl_485_1,fl_485_2,fl_232_2;
//  367 
//  368  
//  369 ///////////////////EEEEEEEEEEEEEEEEEEEEEEEEEEEEEEEEEEEEEEEE
//  370 
//  371   //!!!!!!!!!!!!!!!!!!!!!!!!!!!!!ńňđóęňóđű ďđčëîćĺíč˙
//  372  struct
//  373 {
//  374 unsigned char id;
//  375 unsigned int p_in;// óęŕçŕňĺëü ńâîáîäíîé ˙÷ĺéęč
//  376 unsigned int p_out;
//  377 unsigned int p_out_kv;
//  378 unsigned int crc;
//  379 unsigned int cnt_waits; // ń÷ĺň÷čę îćčäŕíč˙ ęâčňęŕ
//  380 unsigned char cnt_try; // ń÷ĺň÷čę ďîďűňîę ďîëó÷čňü ęâčňîę 
//  381 unsigned int l_data; // äëčíŕ ďîńűëŕĺěűő äŕííűő
//  382 unsigned char state;
//  383 unsigned char event;
//  384 unsigned int tm_vzat;
//  385 unsigned int vol_tm_vzat;
//  386 enum bool cntr_cl;
//  387 enum bool en_cntr_cl;
//  388 unsigned int cnt_cntr_cl;
//  389 unsigned int vol_cntr_cl;
//  390 }Appl_seq;
//  391 
//  392 unsigned char Appl_seq_des;
//  393 
//  394 unsigned char state_seq;
//  395 
//  396 unsigned char Appl_seq_buf[MAX_BUF_SEQ]; 
//  397 
//  398 
//  399 struct
//  400 {
//  401 unsigned char en_tx :1;
//  402 unsigned char kv_waits :1;
//  403 unsigned char en_povtor:1;
//  404 }fl_appl_seq;
//  405 
//  406 struct
//  407 {
//  408 unsigned char over_buf :1;
//  409 unsigned char send_state :1;
//  410 unsigned char enable:1; 
//  411 }fl_appl_seq1; 
//  412 
//  413 extern struct
//  414 {
//  415  
//  416   unsigned char tek_pin :1;
//  417   unsigned char old_pin :1;
//  418   unsigned char fl_ch_tc :1;
//  419   unsigned char real_tc;
//  420   unsigned int count_tc; 
//  421   unsigned char type;
//  422   unsigned char cnt_block_tc;
//  423 }struct_tcc1,struct_tcc2;
//  424 
//  425 struct
//  426 {
//  427   unsigned char tc:1;
//  428   unsigned char tc_old :1;
//  429 }sv1,sv2;
//  430   //EEEEEEEEEEEEEEEEEEEEEEEEEEEEEEEEEEEEEEEEE
//  431 
//  432 ///!!!!!!!!!!!!!!!!!!!!!!!!!!!!!!!!!!!äë˙ ĐĐĐ
//  433 extern  struct
//  434  {
//  435  unsigned char fl_7e : 1;//
//  436  unsigned char fl_7d : 1;//
//  437  unsigned char switcher : 1;//ďĺđĺęëţ÷ŕňĺëü áóôĺđîâ
//  438  } fl_rx_ppp;
//  439 
//  440 
//  441 unsigned char layer_PPP;
//  442 
//  443 extern struct
//  444  {
//  445   unsigned char act_lcp_end :1;  
//  446   unsigned char lcp_tm_out_en :1;
//  447   unsigned char t0_pl:1;
//  448   unsigned char t0_mi:1;
//  449  }fl_lcp; 
//  450  
//  451 
//  452 
//  453 extern struct
//  454  {
//  455   unsigned char act_ipcp_end :1;  
//  456   unsigned char ipcp_tm_out_en :1;
//  457   unsigned char t0_pl:1;
//  458   unsigned char t0_mi:1;
//  459  }fl_ipcp; 
//  460 
//  461 
//  462 extern struct
//  463  {
//  464   unsigned char act_ip_end :1; 
//  465   unsigned char ip_tm_cntr_en :1; 
//  466   unsigned char ip_tm_nat_en :1;
//  467  }fl_ip;
//  468 
//  469 
//  470 
//  471   
//  472 extern struct
//  473  {
//  474   unsigned char act_pap_end :1;  
//  475   unsigned char pap_tm_out_en:1;
//  476   unsigned char t0_pl:1;
//  477   unsigned char t0_mi:1;  
//  478   unsigned char up: 1; 
//  479  }fl_pap; 
//  480 
//  481 
//  482 struct
//  483  {
//  484   unsigned char add_byte :1; 
//  485  }fl_reg3;
//  486 
//  487 
//  488  extern struct
//  489  {
//  490   unsigned char up :1;  
//  491   unsigned char down :1;
//  492  }fl_lcp1; 
//  493 
//  494 
//  495 extern struct
//  496  {
//  497   unsigned char up :1;  
//  498   unsigned char down :1;
//  499  }fl_ipcp1;
//  500  
//  501  extern struct
//  502  {
//  503   unsigned char nac_rej :1; // reject - 1 
//  504  }fl_lcp2;
//  505    
//  506  extern struct
//  507  {
//  508   unsigned char nac_rej :1; // reject - 1 
//  509  }fl_ipcp2;
//  510  
//  511 
//  512 extern unsigned char pap_act_buf,PAP_state,PAP_event;
//  513 extern unsigned char LCP_state, LCP_event,LCP_act_buf[LCP_ACT_VOL];
//  514 extern unsigned char IPCP_state, IPCP_event,IPCP_act_buf[IPCP_ACT_VOL];
//  515 extern unsigned char uk_in_act_LCP,uk_out_act_LCP,uk_in_act_IPCP,uk_out_act_IPCP;
//  516 
//  517 extern unsigned char cnt_rst_lcp,vol_cnt_rst_lcp;
//  518 extern unsigned char cnt_rst_ipcp,vol_cnt_rst_ipcp;                       
//  519 extern unsigned char cnt_rst_pap,vol_cnt_rst_pap;       
//  520                       
//  521                         
//  522 extern unsigned int cnt_lcp_tm_out,cnt_ipcp_tm_out;
//  523 extern unsigned int cnt_pap_tm_out;
//  524 extern unsigned long int cnt_ip_tm_cntr;
//  525 extern unsigned char rcvd_protokol;
//  526 
//  527 extern unsigned char  i_scr_lcp,i_scan_lcp;
//  528 extern unsigned char  i_scj_lcp;//čäĺíňčôčęŕňîđű lcp
//  529 extern unsigned char  i_str_lcp,i_sta_lcp;
//  530  
//  531 extern unsigned char  i_scr_ipcp,i_scan_ipcp;
//  532 extern unsigned char  i_scj_ipcp;//čäĺíňčôčęŕňîđű ipcp
//  533 extern unsigned char  i_str_ipcp,i_sta_ipcp; 
//  534  
//  535   
//  536 extern unsigned char  i_scr_pap;
//  537  
//  538  
//  539  unsigned char ip_self[4];
ip_self:
        DS 4
count_tx_ppp:
        DS 2
cnt_cts_off:
        DS 2
state_modem:
        DS 1
event_modem:
        DS 1
command_AT:
        DS 1
cnt_stm_tm1:
        DS 1
Fl_ch_sim:
        DS 1
fl_wdt:
        DS 1
fl_cts_232_ignor:
        DS 1
fl_cts_232:
        DS 1
fl_tx485:
        DS 1
fl_appl_seq:
        DS 1
fl_appl_seq1:
        DS 1
layer_PPP:
        DS 1
fl_reg3:
        DS 1

        RSEG NEAR_Z:DATA:NOROOT(0)
        REQUIRE `?<Segment init: NEAR_Z>`
Appl_RS232_2:
        DS 19
buf_opt_tr:
        DS 20

        RSEG NEAR_Z:DATA:NOROOT(0)
        REQUIRE `?<Segment init: NEAR_Z>`
prov_ozu:
        DS 2

        RSEG NEAR_Z:DATA:NOROOT(0)
        REQUIRE `?<Segment init: NEAR_Z>`
buf_tx_232:
        DS 1100

        RSEG NEAR_Z:DATA:NOROOT(0)
        REQUIRE `?<Segment init: NEAR_Z>`
vol_tx_ppp:
        DS 2

        RSEG NEAR_Z:DATA:NOROOT(0)
        REQUIRE `?<Segment init: NEAR_Z>`
Buf1_rx_ppp:
        DS 335

        RSEG NEAR_Z:DATA:NOROOT(0)
        REQUIRE `?<Segment init: NEAR_Z>`
Buf2_rx_ppp:
        DS 335

        RSEG NEAR_Z:DATA:NOROOT(0)
        REQUIRE `?<Segment init: NEAR_Z>`
Appl_seq:
        DS 26
Control:
        DS 18
ip_ls:
        DS 4
vol_cnt_no_link:
        DS 4
vol_cnt_link_res:
        DS 4
num_self:
        DS 2
num_seq_cl:
        DS 2
port_udp:
        DS 2
Appl_seq_des:
        DS 1

        RSEG NEAR_Z:DATA:NOROOT(0)
        REQUIRE `?<Segment init: NEAR_Z>`
cnt_no_link:
        DS 4

        RSEG NEAR_Z:DATA:NOROOT(0)
        REQUIRE `?<Segment init: NEAR_Z>`
Appl_RS485_1_data_buf:
        DS 200

        RSEG NEAR_Z:DATA:NOROOT(0)
        REQUIRE `?<Segment init: NEAR_Z>`
Appl_RS485_2_data_buf:
        DS 200

        RSEG NEAR_Z:DATA:NOROOT(0)
        REQUIRE `?<Segment init: NEAR_Z>`
Appl_RS232_2_data_buf:
        DS 200

        RSEG NEAR_Z:DATA:NOROOT(0)
        REQUIRE `?<Segment init: NEAR_Z>`
state_seq:
        DS 1
sv1:
        DS 1
sv2:
        DS 1

        RSEG NEAR_Z:DATA:NOROOT(0)
        REQUIRE `?<Segment init: NEAR_Z>`
Appl_seq_buf:
        DS 200
//  540   //EEEEEEEEEEEEEEEEEEEEEEEEEEEEEEEEEEEEEEEEE
//  541 
//  542  
//  543  
//  544  extern unsigned char Rs485_1_buf_rx_tx[MAX_BUF_RS485_1];
//  545  extern unsigned char Rs485_2_buf_rx_tx[MAX_BUF_RS485_2];
//  546  extern unsigned char Rs232_2_buf_rx_tx[MAX_BUF_RS232_2];
//  547  
//  548  
//  549   extern struct                   //ńňđóęňóđŕ îďčńűâŕţůŕ˙ đŕáîňó ďîđňŕ "RS485_1" 
//  550   {
//  551   unsigned int  cnt_bt_rx_tx;       // ń÷ĺň÷čę áŕéňîâ íŕ ďđčĺě-ďĺđĺäŕ÷ó
//  552   unsigned int  cnt_tm_tx_out;    // ń÷ĺň÷čę âđĺěĺíč íŕ óäĺđćŕíčĺ rts ďîńëĺ ďĺđĺäŕ÷č
//  553   unsigned int  cnt_tm_pre_tx;    // ń÷ĺň÷čę âđĺěĺíč íŕ óäĺđćŕíčĺ rts ďĺđĺä ďĺđĺäŕ÷č
//  554   unsigned int  vol_tm_tx_out;    // ďđĺäĺë ń÷ĺň÷čę âđĺěĺíč íŕ óäĺđćŕíčĺ rts ďîńëĺ ďĺđĺäŕ÷č
//  555   unsigned int  cnt_tm_rx_out;   //  ń÷ĺň÷čę âđĺěĺíč íŕ îďđĺäĺëĺíčĺ ęîíöŕ ďđčĺěŕ
//  556   unsigned int  vol_tm_rx_out;   //  ďđĺäĺë âđĺěĺíč íŕ îďđĺäĺëĺíčĺ ęîíöŕ ďđčĺěŕ
//  557   unsigned int  cnt_tm_out;     // ń÷ĺň÷čę âđĺěĺíč íŕ ďđčĺě 
//  558   unsigned int  vol_tm_out;     // ďđĺäĺë ń÷ĺň÷čęŕ âđĺěĺíč íŕ ďđčĺě 
//  559   unsigned char *p_data485;   // óęŕçŕňĺëü íŕ áóôĺđ ďĺđĺäŕ÷č
//  560   }Rs485_1,Rs485_2,Rs232_2;
//  561  
//  562  
//  563 
//  564  
//  565  extern unsigned char state_led_md;
//  566  
//  567 

        RSEG NEAR_Z:DATA:NOROOT(0)
        REQUIRE `?<Segment init: NEAR_Z>`
//  568 unsigned long int summa_temperatura;         
summa_temperatura:
        DS 4

        RSEG NEAR_Z:DATA:NOROOT(0)
        REQUIRE `?<Segment init: NEAR_Z>`
//  569 unsigned int temperatura;
temperatura:
        DS 2

        RSEG NEAR_Z:DATA:NOROOT(0)
        REQUIRE `?<Segment init: NEAR_Z>`
//  570 unsigned int count_summa_temperatura; 
count_summa_temperatura:
        DS 2
//  571  
//  572  

        RSEG CODE:CODE:NOROOT(1)
//  573 void lock_it(void)
lock_it:
??lock_it_0:
        CFI Block cfiBlock0 Using cfiCommon0
        CFI Function lock_it
//  574                 {
//  575                 do
//  576                     {   
//  577                
//  578                       SREG=0;        
        LDI	R16, 0
        OUT	0x3F, R16
//  579                       WDTCSR=0x18;     
        LDI	R16, 24
        STS	96, R16
//  580                       WDTCSR=0x0f;     
        LDI	R16, 15
        STS	96, R16
//  581                      } while(1);
        RJMP	??lock_it_0
        CFI EndBlock cfiBlock0
//  582                     }      
//  583 

        RSEG CODE:CODE:NOROOT(1)
//  584 void delay(unsigned int period)
delay:
??delay_0:
        CFI Block cfiBlock1 Using cfiCommon0
        CFI Function delay
//  585   {
//  586   bad:
//  587   period--;
        SUBI	R16, 1
        SBCI	R17, 0
//  588   if(period !=0) goto bad;
        MOV	R18, R16
        OR	R18, R17
        BRNE	??delay_0
//  589   }
        RET
        CFI EndBlock cfiBlock1
//  590 
//  591 

        RSEG CODE:CODE:NOROOT(1)
//  592 void long_delay(unsigned long int period)
long_delay:
??long_delay_0:
        CFI Block cfiBlock2 Using cfiCommon0
        CFI Function long_delay
//  593 {
//  594   bad1:
//  595   period--;
        SUBI	R16, 1
        SBCI	R17, 0
        SBCI	R18, 0
        SBCI	R19, 0
//  596   __watchdog_reset();
        WDR
//  597   if(period !=0) goto bad1;
        MOV	R20, R16
        OR	R20, R17
        OR	R20, R18
        OR	R20, R19
        BRNE	??long_delay_0
//  598 }
        RET
        CFI EndBlock cfiBlock2
//  599 
//  600 

        RSEG CODE:CODE:NOROOT(1)
//  601 void delay_on_contr(void)
delay_on_contr:
        CFI Block cfiBlock3 Using cfiCommon0
        CFI Function delay_on_contr
//  602 {
        FUNCALL delay_on_contr, delay
        LOCFRAME CSTACK, 1, STACK
        LOCFRAME RSTACK, 2, STACK
        FUNCALL delay_on_contr, delay
        LOCFRAME CSTACK, 1, STACK
        LOCFRAME RSTACK, 2, STACK
        FUNCALL delay_on_contr, delay
        LOCFRAME CSTACK, 1, STACK
        LOCFRAME RSTACK, 2, STACK
        FUNCALL delay_on_contr, delay
        LOCFRAME CSTACK, 1, STACK
        LOCFRAME RSTACK, 2, STACK
        FUNCALL delay_on_contr, delay
        LOCFRAME CSTACK, 1, STACK
        LOCFRAME RSTACK, 2, STACK
        ST	-Y, R24
        CFI R24 Frame(CFA_Y, -1)
        CFI CFA_Y Y+1
//  603 unsigned char delay_count;
//  604 
//  605 delay_count=18;
        LDI	R24, 18
//  606 
//  607 S1_RD;
        SBI	0x14, 0x00
        CBI	0x14, 0x01
//  608 S2_RD;
        SBI	0x08, 0x00
        CBI	0x08, 0x01
//  609 S3_RD;
        SBI	0x08, 0x04
        CBI	0x08, 0x05
//  610 S4_RD;
        SBI	0x08, 0x02
        CBI	0x08, 0x03
//  611 S5_RD;
        SBI	0x08, 0x06
        CBI	0x08, 0x07
//  612 
//  613                     
//  614                       do
//  615                           {   
//  616                               __watchdog_reset();
??delay_on_contr_0:
        WDR
//  617                               delay(60000);
        LDI	R16, 96
        LDI	R17, 234
        RCALL	delay
//  618                               delay(60000);
        LDI	R16, 96
        LDI	R17, 234
        RCALL	delay
//  619                               delay(60000);
        LDI	R16, 96
        LDI	R17, 234
        RCALL	delay
//  620                               delay(60000);
        LDI	R16, 96
        LDI	R17, 234
        RCALL	delay
//  621                               delay(60000);
        LDI	R16, 96
        LDI	R17, 234
        RCALL	delay
//  622                               __watchdog_reset();
        WDR
//  623                               S1_CH;
        LDI	R16, 1
        IN	R17, 0x14
        EOR	R17, R16
        OUT	0x14, R17
        LDI	R16, 2
        IN	R17, 0x14
        EOR	R17, R16
        OUT	0x14, R17
//  624                               S2_CH;
        LDI	R16, 1
        IN	R17, 0x08
        EOR	R17, R16
        OUT	0x08, R17
        LDI	R16, 2
        IN	R17, 0x08
        EOR	R17, R16
        OUT	0x08, R17
//  625                               S3_CH;
        LDI	R16, 16
        IN	R17, 0x08
        EOR	R17, R16
        OUT	0x08, R17
        LDI	R16, 32
        IN	R17, 0x08
        EOR	R17, R16
        OUT	0x08, R17
//  626                               S4_CH;
        LDI	R16, 4
        IN	R17, 0x08
        EOR	R17, R16
        OUT	0x08, R17
        LDI	R16, 8
        IN	R17, 0x08
        EOR	R17, R16
        OUT	0x08, R17
//  627                               S5_CH;
        LDI	R16, 64
        IN	R17, 0x08
        EOR	R17, R16
        OUT	0x08, R17
        LDI	R16, 128
        IN	R17, 0x08
        EOR	R17, R16
        OUT	0x08, R17
//  628                               delay_count--;
        DEC	R24
//  629                            } while(delay_count!=0);
        BRNE	??delay_on_contr_0
//  630 
//  631 S1_OFF;
        CBI	0x14, 0x00
        CBI	0x14, 0x01
//  632 S2_OFF;
        CBI	0x08, 0x00
        CBI	0x08, 0x01
//  633 S3_OFF;
        CBI	0x08, 0x04
        CBI	0x08, 0x05
//  634 S4_OFF;
        CBI	0x08, 0x02
        CBI	0x08, 0x03
//  635 S5_OFF;
        CBI	0x08, 0x06
        CBI	0x08, 0x07
//  636 }
        LD	R24, Y+
        CFI R24 SameValue
        CFI CFA_Y Y+0
        RET
        CFI EndBlock cfiBlock3
//  637 
//  638 

        RSEG CODE:CODE:NOROOT(1)
//  639  unsigned int crc_m1(unsigned char *ka,unsigned int num,unsigned int crc)   
crc_m1:
        CFI Block cfiBlock4 Using cfiCommon0
        CFI Function crc_m1
//  640 
//  641      {
        MOV	R23, R25
        MOV	R2, R24
//  642       unsigned char uchCRCHi,uIndex;
//  643       unsigned char uchCRCLo;
//  644       unsigned int ii;      
//  645       uchCRCLo=crc;  
        MOV	R22, R20
//  646       uchCRCHi=crc>>8;
        MOV	R20, R21
//  647    
//  648       
//  649                    for (ii=0;ii<num;ii++)
        LDI	R24, 0
        LDI	R25, 0
        RJMP	??crc_m1_0
//  650                   {
//  651     
//  652        uIndex = uchCRCHi ^ *ka++;
??crc_m1_1:
        MOVW	R31:R30, R17:R16
        LD	R0, Z+
        MOVW	R17:R16, R31:R30
        EOR	R0, R20
//  653 
//  654        uchCRCHi = uchCRCLo ^ auchCRCHi[uIndex];
        CLR	R1
        LDI	R30, LOW(auchCRCHi)
        LDI	R31, (auchCRCHi) >> 8
        ADD	R30, R0
        ADC	R31, R1
        LPM	R20, Z
        EOR	R20, R22
//  655 
//  656        uchCRCLo = auchCRCLo[uIndex];
        LDI	R30, LOW(auchCRCLo)
        LDI	R31, (auchCRCLo) >> 8
        ADD	R30, R0
        ADC	R31, R1
        LPM	R22, Z
//  657        
//  658       }
        ADIW	R25:R24, 1
??crc_m1_0:
        CP	R24, R18
        CPC	R25, R19
        BRCS	??crc_m1_1
//  659 
//  660      return (uchCRCHi << 8  | uchCRCLo);
        MOV	R16, R22
        MOV	R17, R20
        MOV	R24, R2
        MOV	R25, R23
        RET
        CFI EndBlock cfiBlock4
//  661 
//  662      }
//  663 
//  664 
//  665 

        RSEG CODE:CODE:NOROOT(1)
//  666 unsigned char check_cts(void)
check_cts:
        CFI Block cfiBlock5 Using cfiCommon0
        CFI Function check_cts
//  667 { 
//  668  // if (PINE & CTS0)
//  669   if ((PINE & CTS0)==0)     
        SBIC	0x0C, 0x04
        RJMP	??check_cts_0
//  670   {
//  671   fl_cts_232.on=1;
        LDI	R30, LOW(Appl_RS485_1)
        LDI	R31, (Appl_RS485_1) >> 8
        LDD	R16, Z+57
        ORI	R16, 0x01
        STD	Z+57, R16
//  672   return(1);
        LDI	R16, 1
        RET
//  673   } //proverka CTS
//  674   return(0);  
??check_cts_0:
        LDI	R16, 0
        RET
        CFI EndBlock cfiBlock5
//  675 }  
//  676 
//  677 
//  678 

        RSEG CODE:CODE:NOROOT(1)
//  679 void s_port(unsigned char ch)
s_port:
??s_port_0:
        CFI Block cfiBlock6 Using cfiCommon0
        CFI Function s_port
//  680       {                             
//  681       wawa: 
//  682       if((UCSR2A & 0x20) ==0) goto wawa;
        LDS	R17, 208
        MOV	R18, R17
        SBRS	R18, 5
        RJMP	??s_port_0
//  683       UDR2=ch;
        STS	214, R16
//  684       }
        RET
        CFI EndBlock cfiBlock6
//  685 
//  686 

        RSEG CODE:CODE:NOROOT(1)
//  687  void    mov_s (char size, char __flash *p)
mov_s:
        CFI Block cfiBlock7 Using cfiCommon0
        CFI Function mov_s
//  688       {     
        FUNCALL mov_s, s_port
        LOCFRAME CSTACK, 3, STACK
        LOCFRAME RSTACK, 2, STACK
        CALL	?PROLOGUE3_L09
        CFI R26 Frame(CFA_Y, -1)
        CFI R25 Frame(CFA_Y, -2)
        CFI R24 Frame(CFA_Y, -3)
        CFI CFA_Y Y+3
        MOV	R26, R16
        MOVW	R25:R24, R19:R18
        RJMP	??mov_s_0
//  689        while(size--) s_port(*p++);
??mov_s_1:
        MOVW	R31:R30, R25:R24
        LPM	R16, Z+
        MOVW	R25:R24, R31:R30
        RCALL	s_port
??mov_s_0:
        MOV	R16, R26
        DEC	R26
        TST	R16
        BRNE	??mov_s_1
//  690       } 
        LDI	R30, 3
        JMP	?EPILOGUE_B3_L09
        CFI EndBlock cfiBlock7
//  691  
//  692 

        RSEG CODE:CODE:NOROOT(1)
//  693  void    mov_buf (char size,unsigned char * p)
mov_buf:
        CFI Block cfiBlock8 Using cfiCommon0
        CFI Function mov_buf
//  694       {     
        FUNCALL mov_buf, s_port
        LOCFRAME CSTACK, 4, STACK
        LOCFRAME RSTACK, 2, STACK
        CALL	?PROLOGUE4_L09
        CFI R27 Frame(CFA_Y, -1)
        CFI R26 Frame(CFA_Y, -2)
        CFI R25 Frame(CFA_Y, -3)
        CFI R24 Frame(CFA_Y, -4)
        CFI CFA_Y Y+4
        MOV	R24, R16
        MOVW	R27:R26, R19:R18
        RJMP	??mov_buf_0
//  695        while(size--) s_port(*p++);
??mov_buf_1:
        LD	R16, X+
        RCALL	s_port
??mov_buf_0:
        MOV	R16, R24
        DEC	R24
        TST	R16
        BRNE	??mov_buf_1
//  696       }
        LDI	R30, 4
        JMP	?EPILOGUE_B4_L09
        CFI EndBlock cfiBlock8
//  697 
//  698 

        RSEG CODE:CODE:NOROOT(1)
//  699 void    mov_lf (void)
mov_lf:
        CFI Block cfiBlock9 Using cfiCommon0
        CFI Function mov_lf
//  700      {     
//  701      s_port(0xd);
        FUNCALL mov_lf, s_port
        LOCFRAME RSTACK, 2, STACK
        FUNCALL mov_lf, s_port
        LOCFRAME RSTACK, 2, STACK
        LDI	R16, 13
        RCALL	s_port
//  702      s_port(0xa);
        LDI	R16, 10
        RCALL	s_port
//  703      }      
        RET
        CFI EndBlock cfiBlock9
//  704 
//  705 

        RSEG CODE:CODE:NOROOT(1)
//  706 unsigned int crc_ozu(void)
crc_ozu:
        CFI Block cfiBlock10 Using cfiCommon0
        CFI Function crc_ozu
//  707    
//  708 
//  709      {
        ST	-Y, R27
        CFI R27 Frame(CFA_Y, -1)
        CFI CFA_Y Y+1
        ST	-Y, R26
        CFI R26 Frame(CFA_Y, -2)
        CFI CFA_Y Y+2
//  710       unsigned char uchCRCHi;
//  711       unsigned char uchCRCLo;
//  712       unsigned char temp;
//  713       
//  714       uchCRCLo=0xff;  
//  715       uchCRCHi=0xff;
//  716          
//  717       uchCRCHi = uchCRCLo ^ auchCRCHi[uchCRCHi ^ ip_ls[0]];
        LDI	R26, LOW(Appl_seq)
        LDI	R27, (Appl_seq) >> 8
        MOVW	R31:R30, R27:R26
        LDD	R22, Z+44
        LDI	R23, 0
        LDI	R30, LOW(auchCRCHi)
        LDI	R31, (auchCRCHi) >> 8
        LDI	R16, 255
        LDI	R17, 0
        EOR	R16, R22
        ADD	R30, R16
        ADC	R31, R23
        LPM	R16, Z
        LDI	R20, 255
        EOR	R20, R16
        MOVW	R31:R30, R27:R26
        LDD	R18, Z+45
        LDI	R19, 0
        LDI	R21, 0
        LDI	R30, LOW(auchCRCLo)
        LDI	R31, (auchCRCLo) >> 8
        EOR	R22, R20
        ADD	R30, R22
        ADC	R31, R23
        LPM	R16, Z
        LDI	R30, LOW(auchCRCHi)
        LDI	R31, (auchCRCHi) >> 8
        MOVW	R23:R22, R19:R18
        EOR	R22, R20
        ADD	R30, R22
        ADC	R31, R17
        LPM	R20, Z
        EOR	R20, R16
        MOVW	R31:R30, R27:R26
        LDD	R16, Z+46
        LDI	R30, LOW(auchCRCLo)
        LDI	R31, (auchCRCLo) >> 8
        EOR	R18, R20
        ADD	R30, R18
        ADC	R31, R17
        LPM	R18, Z
        LDI	R30, LOW(auchCRCHi)
        LDI	R31, (auchCRCHi) >> 8
        MOVW	R23:R22, R17:R16
        EOR	R22, R20
        ADD	R30, R22
        ADC	R31, R17
        LPM	R20, Z
        EOR	R20, R18
        MOVW	R31:R30, R27:R26
        LDD	R22, Z+47
        LDI	R30, LOW(auchCRCLo)
        LDI	R31, (auchCRCLo) >> 8
        EOR	R16, R20
        ADD	R30, R16
        ADC	R31, R17
        LPM	R16, Z
        LDI	R30, LOW(auchCRCHi)
        LDI	R31, (auchCRCHi) >> 8
        MOVW	R19:R18, R23:R22
        EOR	R18, R20
        ADD	R30, R18
        ADC	R31, R17
        LPM	R20, Z
        EOR	R20, R16
//  718       uchCRCLo = auchCRCLo[uchCRCHi ^ ip_ls[0]];
//  719       uchCRCHi = uchCRCLo ^ auchCRCHi[uchCRCHi ^ ip_ls[1]];
//  720       uchCRCLo = auchCRCLo[uchCRCHi ^ ip_ls[1]];
//  721       uchCRCHi = uchCRCLo ^ auchCRCHi[uchCRCHi ^ ip_ls[2]];
//  722       uchCRCLo = auchCRCLo[uchCRCHi ^ ip_ls[2]];
//  723       uchCRCHi = uchCRCLo ^ auchCRCHi[uchCRCHi ^ ip_ls[3]];
//  724       uchCRCLo = auchCRCLo[uchCRCHi ^ ip_ls[3]];
//  725       
//  726       temp=port_udp;
        MOVW	R31:R30, R27:R26
        ADIW	R31:R30, 60
        LD	R18, Z
        LDD	R19, Z+1
        MOV	R16, R18
//  727       uchCRCHi = uchCRCLo ^ auchCRCHi[uchCRCHi ^ temp];
        LDI	R30, LOW(auchCRCLo)
        LDI	R31, (auchCRCLo) >> 8
        EOR	R22, R20
        ADD	R30, R22
        ADC	R31, R17
        LPM	R22, Z
        LDI	R30, LOW(auchCRCHi)
        LDI	R31, (auchCRCHi) >> 8
        MOVW	R1:R0, R17:R16
        EOR	R0, R20
        ADD	R30, R0
        ADC	R31, R17
        LPM	R20, Z
        EOR	R20, R22
//  728       uchCRCLo = auchCRCLo[uchCRCHi ^ temp];
        MOV	R22, R20
        LDI	R30, LOW(auchCRCLo)
        LDI	R31, (auchCRCLo) >> 8
        EOR	R16, R20
        ADD	R30, R16
        ADC	R31, R17
        LPM	R20, Z
//  729       temp=port_udp>>8;
        MOV	R18, R19
        MOV	R16, R18
//  730       uchCRCHi = uchCRCLo ^ auchCRCHi[uchCRCHi ^ temp];
        LDI	R30, LOW(auchCRCHi)
        LDI	R31, (auchCRCHi) >> 8
        EOR	R18, R22
        ADD	R30, R18
        ADC	R31, R17
        LPM	R18, Z
        EOR	R18, R20
//  731       uchCRCLo = auchCRCLo[uchCRCHi ^ temp];
        LDI	R30, LOW(auchCRCLo)
        LDI	R31, (auchCRCLo) >> 8
        EOR	R16, R18
        ADD	R30, R16
        ADC	R31, R17
        LPM	R20, Z
//  732       
//  733       temp=num_self;
        MOVW	R31:R30, R27:R26
        LDD	R22, Z+56
        LDD	R23, Z+57
        MOV	R16, R22
//  734       uchCRCHi = uchCRCLo ^ auchCRCHi[uchCRCHi ^ temp];
        LDI	R30, LOW(auchCRCHi)
        LDI	R31, (auchCRCHi) >> 8
        MOVW	R1:R0, R17:R16
        EOR	R0, R18
        ADD	R30, R0
        ADC	R31, R17
        LPM	R18, Z
        EOR	R18, R20
//  735       uchCRCLo = auchCRCLo[uchCRCHi ^ temp];
        LDI	R30, LOW(auchCRCLo)
        LDI	R31, (auchCRCLo) >> 8
        EOR	R16, R18
        ADD	R30, R16
        ADC	R31, R17
        LPM	R20, Z
//  736       temp=num_self>>8;
        MOV	R22, R23
        MOV	R16, R22
//  737       uchCRCHi = uchCRCLo ^ auchCRCHi[uchCRCHi ^ temp];
        LDI	R30, LOW(auchCRCHi)
        LDI	R31, (auchCRCHi) >> 8
        EOR	R22, R18
        ADD	R30, R22
        ADC	R31, R17
        LPM	R18, Z
        EOR	R18, R20
//  738       uchCRCLo = auchCRCLo[uchCRCHi ^ temp];
        LDI	R30, LOW(auchCRCLo)
        LDI	R31, (auchCRCLo) >> 8
        EOR	R16, R18
        ADD	R30, R16
        ADC	R31, R17
        LPM	R20, Z
//  739       
//  740       temp=Control.vol_nat;
        MOVW	R31:R30, R27:R26
        LDD	R22, Z+36
        LDD	R23, Z+37
        MOV	R16, R22
//  741       uchCRCHi = uchCRCLo ^ auchCRCHi[uchCRCHi ^ temp];
        LDI	R30, LOW(auchCRCHi)
        LDI	R31, (auchCRCHi) >> 8
        MOVW	R1:R0, R17:R16
        EOR	R0, R18
        ADD	R30, R0
        ADC	R31, R17
        LPM	R18, Z
        EOR	R18, R20
//  742       uchCRCLo = auchCRCLo[uchCRCHi ^ temp];
        LDI	R30, LOW(auchCRCLo)
        LDI	R31, (auchCRCLo) >> 8
        EOR	R16, R18
        ADD	R30, R16
        ADC	R31, R17
        LPM	R20, Z
//  743       temp=Control.vol_nat>>8;
        MOV	R22, R23
        MOV	R16, R22
//  744       uchCRCHi = uchCRCLo ^ auchCRCHi[uchCRCHi ^ temp];
        LDI	R30, LOW(auchCRCHi)
        LDI	R31, (auchCRCHi) >> 8
        EOR	R22, R18
        ADD	R30, R22
        ADC	R31, R17
        LPM	R18, Z
        EOR	R18, R20
//  745       uchCRCLo = auchCRCLo[uchCRCHi ^ temp];
        LDI	R30, LOW(auchCRCLo)
        LDI	R31, (auchCRCLo) >> 8
        EOR	R16, R18
        ADD	R30, R16
        ADC	R31, R17
        LPM	R20, Z
//  746       
//  747       temp=Control.vol_nat_r;
        MOVW	R31:R30, R27:R26
        LDD	R22, Z+42
        LDD	R23, Z+43
        MOV	R16, R22
//  748       uchCRCHi = uchCRCLo ^ auchCRCHi[uchCRCHi ^ temp];
        LDI	R30, LOW(auchCRCHi)
        LDI	R31, (auchCRCHi) >> 8
        MOVW	R1:R0, R17:R16
        EOR	R0, R18
        ADD	R30, R0
        ADC	R31, R17
        LPM	R18, Z
        EOR	R18, R20
//  749       uchCRCLo = auchCRCLo[uchCRCHi ^ temp];
        LDI	R30, LOW(auchCRCLo)
        LDI	R31, (auchCRCLo) >> 8
        EOR	R16, R18
        ADD	R30, R16
        ADC	R31, R17
        LPM	R20, Z
//  750       temp=Control.vol_nat_r>>8;
        MOV	R22, R23
        MOV	R16, R22
//  751       uchCRCHi = uchCRCLo ^ auchCRCHi[uchCRCHi ^ temp];
        LDI	R30, LOW(auchCRCHi)
        LDI	R31, (auchCRCHi) >> 8
        EOR	R22, R18
        ADD	R30, R22
        ADC	R31, R17
        LPM	R18, Z
        EOR	R18, R20
//  752       uchCRCLo = auchCRCLo[uchCRCHi ^ temp];
        LDI	R30, LOW(auchCRCLo)
        LDI	R31, (auchCRCLo) >> 8
        EOR	R16, R18
        ADD	R30, R16
        ADC	R31, R17
        LPM	R20, Z
//  753       
//  754       temp=Control.vol_link;
        MOVW	R31:R30, R27:R26
        LDD	R22, Z+34
        LDD	R23, Z+35
        MOV	R16, R22
//  755       uchCRCHi = uchCRCLo ^ auchCRCHi[uchCRCHi ^ temp];
        LDI	R30, LOW(auchCRCHi)
        LDI	R31, (auchCRCHi) >> 8
        MOVW	R1:R0, R17:R16
        EOR	R0, R18
        ADD	R30, R0
        ADC	R31, R17
        LPM	R18, Z
        EOR	R18, R20
//  756       uchCRCLo = auchCRCLo[uchCRCHi ^ temp];
        LDI	R30, LOW(auchCRCLo)
        LDI	R31, (auchCRCLo) >> 8
        EOR	R16, R18
        ADD	R30, R16
        ADC	R31, R17
        LPM	R20, Z
//  757       temp=Control.vol_link>>8;
        MOV	R22, R23
        MOV	R16, R22
//  758       uchCRCHi = uchCRCLo ^ auchCRCHi[uchCRCHi ^ temp];
        LDI	R30, LOW(auchCRCHi)
        LDI	R31, (auchCRCHi) >> 8
        EOR	R22, R18
        ADD	R30, R22
        ADC	R31, R17
        LPM	R18, Z
        EOR	R18, R20
//  759       uchCRCLo = auchCRCLo[uchCRCHi ^ temp];
        LDI	R30, LOW(auchCRCLo)
        LDI	R31, (auchCRCLo) >> 8
        EOR	R16, R18
        ADD	R30, R16
        ADC	R31, R17
        LPM	R20, Z
//  760       
//  761       temp=Control.vol_waits;
        MOVW	R31:R30, R27:R26
        LDD	R22, Z+38
        LDD	R23, Z+39
        MOV	R16, R22
//  762       uchCRCHi = uchCRCLo ^ auchCRCHi[uchCRCHi ^ temp];
        LDI	R30, LOW(auchCRCHi)
        LDI	R31, (auchCRCHi) >> 8
        MOVW	R1:R0, R17:R16
        EOR	R0, R18
        ADD	R30, R0
        ADC	R31, R17
        LPM	R18, Z
        EOR	R18, R20
//  763       uchCRCLo = auchCRCLo[uchCRCHi ^ temp];
        LDI	R30, LOW(auchCRCLo)
        LDI	R31, (auchCRCLo) >> 8
        EOR	R16, R18
        ADD	R30, R16
        ADC	R31, R17
        LPM	R20, Z
//  764       temp=Control.vol_waits>>8;
        MOV	R22, R23
        MOV	R16, R22
//  765       uchCRCHi = uchCRCLo ^ auchCRCHi[uchCRCHi ^ temp];
        LDI	R30, LOW(auchCRCHi)
        LDI	R31, (auchCRCHi) >> 8
        EOR	R22, R18
        ADD	R30, R22
        ADC	R31, R17
        LPM	R18, Z
        EOR	R18, R20
//  766       uchCRCLo = auchCRCLo[uchCRCHi ^ temp];
        LDI	R30, LOW(auchCRCLo)
        LDI	R31, (auchCRCLo) >> 8
        EOR	R16, R18
        ADD	R30, R16
        ADC	R31, R17
        LPM	R20, Z
//  767       
//  768       temp=Control.vol_try;
        MOVW	R31:R30, R27:R26
        LDD	R16, Z+41
//  769       uchCRCHi = uchCRCLo ^ auchCRCHi[uchCRCHi ^ temp];
        LDI	R30, LOW(auchCRCHi)
        LDI	R31, (auchCRCHi) >> 8
        MOVW	R23:R22, R17:R16
        EOR	R22, R18
        ADD	R30, R22
        ADC	R31, R17
        LPM	R18, Z
        EOR	R18, R20
//  770       uchCRCLo = auchCRCLo[uchCRCHi ^ temp];
//  771       temp=Control.vol_try>>8;
//  772       uchCRCHi = uchCRCLo ^ auchCRCHi[uchCRCHi ^ temp];
        LDI	R30, LOW(auchCRCLo)
        LDI	R31, (auchCRCLo) >> 8
        EOR	R16, R18
        ADD	R30, R16
        ADC	R31, R17
        LPM	R16, Z
        LDI	R30, LOW(auchCRCHi)
        LDI	R31, (auchCRCHi) >> 8
        ADD	R30, R18
        ADC	R31, R17
        LPM	R20, Z
        EOR	R20, R16
//  773       uchCRCLo = auchCRCLo[uchCRCHi ^ temp];
//  774       
//  775       
//  776       //!!!!!!!!!!!!!!!!!! dobavka
//  777       temp=vol_cnt_no_link;
        MOVW	R31:R30, R27:R26
        LDD	R16, Z+48
        LDD	R17, Z+49
        LDD	R18, Z+50
        LDD	R19, Z+51
        MOVW	R1:R0, R17:R16
        MOVW	R3:R2, R19:R18
//  778       uchCRCHi = uchCRCLo ^ auchCRCHi[uchCRCHi ^ temp];
        LDI	R17, 0
        LDI	R30, LOW(auchCRCLo)
        LDI	R31, (auchCRCLo) >> 8
        ADD	R30, R20
        ADC	R31, R21
        LPM	R18, Z
        LDI	R30, LOW(auchCRCHi)
        LDI	R31, (auchCRCHi) >> 8
        MOVW	R23:R22, R17:R16
        EOR	R22, R20
        ADD	R30, R22
        ADC	R31, R21
        LPM	R20, Z
        EOR	R20, R18
//  779       uchCRCLo = auchCRCLo[uchCRCHi ^ temp];
        MOV	R18, R20
        LDI	R30, LOW(auchCRCLo)
        LDI	R31, (auchCRCLo) >> 8
        EOR	R16, R20
        ADD	R30, R16
        ADC	R31, R21
        LPM	R20, Z
//  780       temp=vol_cnt_no_link>>8;
        MOVW	R17:R16, R1:R0
        MOV	R16, R17
//  781       uchCRCHi = uchCRCLo ^ auchCRCHi[uchCRCHi ^ temp];
        LDI	R17, 0
        LDI	R30, LOW(auchCRCHi)
        LDI	R31, (auchCRCHi) >> 8
        MOVW	R23:R22, R17:R16
        EOR	R22, R18
        ADD	R30, R22
        ADC	R31, R21
        LPM	R18, Z
        EOR	R18, R20
        MOV	R20, R18
//  782       uchCRCLo = auchCRCLo[uchCRCHi ^ temp];
        MOV	R22, R20
        LDI	R30, LOW(auchCRCLo)
        LDI	R31, (auchCRCLo) >> 8
        EOR	R16, R18
        ADD	R30, R16
        ADC	R31, R21
        LPM	R20, Z
//  783       temp=vol_cnt_no_link>>16;
        MOVW	R19:R18, R3:R2
        MOV	R16, R18
//  784       uchCRCHi = uchCRCLo ^ auchCRCHi[uchCRCHi ^ temp];
        LDI	R30, LOW(auchCRCHi)
        LDI	R31, (auchCRCHi) >> 8
        EOR	R18, R22
        ADD	R30, R18
        ADC	R31, R21
        LPM	R18, Z
        EOR	R18, R20
//  785       uchCRCLo = auchCRCLo[uchCRCHi ^ temp];
        LDI	R30, LOW(auchCRCLo)
        LDI	R31, (auchCRCLo) >> 8
        EOR	R16, R18
        ADD	R30, R16
        ADC	R31, R21
        LPM	R20, Z
//  786       temp=vol_cnt_no_link>>24;
        MOV	R0, R3
        MOV	R16, R0
//  787       uchCRCHi = uchCRCLo ^ auchCRCHi[uchCRCHi ^ temp];
        LDI	R30, LOW(auchCRCHi)
        LDI	R31, (auchCRCHi) >> 8
        MOVW	R23:R22, R17:R16
        EOR	R22, R18
        ADD	R30, R22
        ADC	R31, R21
        LPM	R18, Z
        EOR	R18, R20
        MOV	R20, R18
//  788       uchCRCLo = auchCRCLo[uchCRCHi ^ temp];
        MOV	R22, R20
        LDI	R30, LOW(auchCRCLo)
        LDI	R31, (auchCRCLo) >> 8
        EOR	R16, R18
        ADD	R30, R16
        ADC	R31, R21
        LPM	R20, Z
//  789       
//  790       temp=vol_cnt_link_res;
        MOVW	R31:R30, R27:R26
        LDD	R16, Z+52
        LDD	R17, Z+53
        LDD	R18, Z+54
        LDD	R19, Z+55
        MOVW	R1:R0, R17:R16
        MOVW	R3:R2, R19:R18
//  791       uchCRCHi = uchCRCLo ^ auchCRCHi[uchCRCHi ^ temp];
        LDI	R17, 0
        LDI	R30, LOW(auchCRCHi)
        LDI	R31, (auchCRCHi) >> 8
        MOVW	R19:R18, R17:R16
        EOR	R18, R22
        ADD	R30, R18
        ADC	R31, R21
        LPM	R18, Z
        EOR	R18, R20
//  792       uchCRCLo = auchCRCLo[uchCRCHi ^ temp];
        LDI	R30, LOW(auchCRCLo)
        LDI	R31, (auchCRCLo) >> 8
        EOR	R16, R18
        ADD	R30, R16
        ADC	R31, R21
        LPM	R20, Z
//  793       temp=vol_cnt_link_res>>8;
        MOVW	R17:R16, R1:R0
        MOV	R16, R17
//  794       uchCRCHi = uchCRCLo ^ auchCRCHi[uchCRCHi ^ temp];
        LDI	R17, 0
        LDI	R30, LOW(auchCRCHi)
        LDI	R31, (auchCRCHi) >> 8
        MOVW	R23:R22, R17:R16
        EOR	R22, R18
        ADD	R30, R22
        ADC	R31, R21
        LPM	R18, Z
        EOR	R18, R20
        MOV	R20, R18
//  795       uchCRCLo = auchCRCLo[uchCRCHi ^ temp];
        MOV	R22, R20
        LDI	R30, LOW(auchCRCLo)
        LDI	R31, (auchCRCLo) >> 8
        EOR	R16, R18
        ADD	R30, R16
        ADC	R31, R21
        LPM	R20, Z
//  796       temp=vol_cnt_link_res>>16;
        MOVW	R19:R18, R3:R2
        MOV	R16, R18
//  797       uchCRCHi = uchCRCLo ^ auchCRCHi[uchCRCHi ^ temp];
        LDI	R30, LOW(auchCRCHi)
        LDI	R31, (auchCRCHi) >> 8
        MOVW	R19:R18, R17:R16
        EOR	R18, R22
        ADD	R30, R18
        ADC	R31, R21
        LPM	R18, Z
        EOR	R18, R20
//  798       uchCRCLo = auchCRCLo[uchCRCHi ^ temp];
        LDI	R30, LOW(auchCRCLo)
        LDI	R31, (auchCRCLo) >> 8
        EOR	R16, R18
        ADD	R30, R16
        ADC	R31, R21
        LPM	R20, Z
//  799       temp=vol_cnt_link_res>>24;
        MOV	R0, R3
        MOV	R16, R0
//  800       uchCRCHi = uchCRCLo ^ auchCRCHi[uchCRCHi ^ temp];
        LDI	R30, LOW(auchCRCHi)
        LDI	R31, (auchCRCHi) >> 8
        MOVW	R23:R22, R17:R16
        EOR	R22, R18
        ADD	R30, R22
        ADC	R31, R21
        LPM	R18, Z
        EOR	R18, R20
        MOV	R20, R18
        MOVW	R31:R30, R27:R26
        ADIW	R31:R30, 62
        LD	R18, Z
        LDI	R30, LOW(auchCRCLo)
        LDI	R31, (auchCRCLo) >> 8
        EOR	R16, R20
        ADD	R30, R16
        ADC	R31, R21
        LPM	R16, Z
        LDI	R30, LOW(auchCRCHi)
        LDI	R31, (auchCRCHi) >> 8
        MOVW	R23:R22, R19:R18
        EOR	R22, R20
        ADD	R30, R22
        ADC	R31, R21
        LPM	R20, Z
        EOR	R20, R16
        LDS	R16, (struct_tcc1 + 4)
        LDI	R30, LOW(auchCRCLo)
        LDI	R31, (auchCRCLo) >> 8
        EOR	R18, R20
        ADD	R30, R18
        ADC	R31, R21
        LPM	R18, Z
        LDI	R30, LOW(auchCRCHi)
        LDI	R31, (auchCRCHi) >> 8
        MOVW	R23:R22, R17:R16
        EOR	R22, R20
        ADD	R30, R22
        ADC	R31, R21
        LPM	R20, Z
        EOR	R20, R18
        LDS	R18, (struct_tcc2 + 4)
        LDI	R30, LOW(auchCRCLo)
        LDI	R31, (auchCRCLo) >> 8
        EOR	R16, R20
        ADD	R30, R16
        ADC	R31, R21
        LPM	R16, Z
        LDI	R30, LOW(auchCRCHi)
        LDI	R31, (auchCRCHi) >> 8
        MOVW	R23:R22, R19:R18
        EOR	R22, R20
        ADD	R30, R22
        ADC	R31, R21
        LPM	R20, Z
        EOR	R20, R16
//  801       uchCRCLo = auchCRCLo[uchCRCHi ^ temp];
//  802       //EEEEEEEEEEEEEEEEEEEEEEEEE dobavka
//  803       
//  804       uchCRCHi = uchCRCLo ^ auchCRCHi[uchCRCHi ^ Appl_seq_des];
//  805       uchCRCLo = auchCRCLo[uchCRCHi ^ Appl_seq_des];
//  806       
//  807       uchCRCHi = uchCRCLo ^ auchCRCHi[uchCRCHi ^ struct_tcc1.type];
//  808       uchCRCLo = auchCRCLo[uchCRCHi ^ struct_tcc1.type];
//  809       
//  810       uchCRCHi = uchCRCLo ^ auchCRCHi[uchCRCHi ^ struct_tcc2.type];
//  811       uchCRCLo = auchCRCLo[uchCRCHi ^ struct_tcc2.type];
//  812       
//  813       
//  814       temp=num_seq_cl;
        MOVW	R31:R30, R27:R26
        LDD	R22, Z+58
        LDD	R23, Z+59
        MOV	R16, R22
//  815       uchCRCHi = uchCRCLo ^ auchCRCHi[uchCRCHi ^ temp];
        LDI	R30, LOW(auchCRCLo)
        LDI	R31, (auchCRCLo) >> 8
        EOR	R18, R20
        ADD	R30, R18
        ADC	R31, R21
        LPM	R18, Z
        LDI	R30, LOW(auchCRCHi)
        LDI	R31, (auchCRCHi) >> 8
        MOVW	R1:R0, R17:R16
        EOR	R0, R20
        ADD	R30, R0
        ADC	R31, R21
        LPM	R20, Z
        EOR	R20, R18
//  816       uchCRCLo = auchCRCLo[uchCRCHi ^ temp];
        MOV	R18, R20
        LDI	R30, LOW(auchCRCLo)
        LDI	R31, (auchCRCLo) >> 8
        EOR	R16, R20
        ADD	R30, R16
        ADC	R31, R21
        LPM	R20, Z
//  817       temp=num_seq_cl>>8;
        MOV	R22, R23
        MOV	R16, R22
//  818       uchCRCHi = uchCRCLo ^ auchCRCHi[uchCRCHi ^ temp];
        LDI	R30, LOW(auchCRCHi)
        LDI	R31, (auchCRCHi) >> 8
        EOR	R22, R18
        ADD	R30, R22
        ADC	R31, R21
        LPM	R18, Z
        EOR	R18, R20
//  819       uchCRCLo = auchCRCLo[uchCRCHi ^ temp];
        LDI	R30, LOW(auchCRCLo)
        LDI	R31, (auchCRCLo) >> 8
        EOR	R16, R18
        ADD	R30, R16
        ADC	R31, R21
        LPM	R20, Z
//  820       
//  821       temp=Appl_seq.vol_tm_vzat;
        MOVW	R31:R30, R27:R26
        LDD	R22, Z+18
        LDD	R23, Z+19
        MOV	R16, R22
//  822       uchCRCHi = uchCRCLo ^ auchCRCHi[uchCRCHi ^ temp];
        LDI	R30, LOW(auchCRCHi)
        LDI	R31, (auchCRCHi) >> 8
        MOVW	R1:R0, R17:R16
        EOR	R0, R18
        ADD	R30, R0
        ADC	R31, R21
        LPM	R18, Z
        EOR	R18, R20
//  823       uchCRCLo = auchCRCLo[uchCRCHi ^ temp];
        LDI	R30, LOW(auchCRCLo)
        LDI	R31, (auchCRCLo) >> 8
        EOR	R16, R18
        ADD	R30, R16
        ADC	R31, R21
        LPM	R20, Z
//  824       temp=Appl_seq.vol_tm_vzat>>8;
        MOV	R22, R23
        MOV	R16, R22
//  825       uchCRCHi = uchCRCLo ^ auchCRCHi[uchCRCHi ^ temp];
        LDI	R30, LOW(auchCRCHi)
        LDI	R31, (auchCRCHi) >> 8
        EOR	R22, R18
        ADD	R30, R22
        ADC	R31, R21
        LPM	R18, Z
        EOR	R18, R20
//  826       uchCRCLo = auchCRCLo[uchCRCHi ^ temp];
        LDI	R30, LOW(auchCRCLo)
        LDI	R31, (auchCRCLo) >> 8
        EOR	R16, R18
        ADD	R30, R16
        ADC	R31, R21
        LPM	R20, Z
//  827      
//  828       temp=Appl_seq.vol_cntr_cl;
        MOVW	R31:R30, R27:R26
        LDD	R22, Z+24
        LDD	R23, Z+25
        MOV	R16, R22
//  829       uchCRCHi = uchCRCLo ^ auchCRCHi[uchCRCHi ^ temp];
        LDI	R30, LOW(auchCRCHi)
        LDI	R31, (auchCRCHi) >> 8
        MOVW	R1:R0, R17:R16
        EOR	R0, R18
        ADD	R30, R0
        ADC	R31, R21
        LPM	R18, Z
        EOR	R18, R20
//  830       uchCRCLo = auchCRCLo[uchCRCHi ^ temp];
        LDI	R30, LOW(auchCRCLo)
        LDI	R31, (auchCRCLo) >> 8
        EOR	R16, R18
        ADD	R30, R16
        ADC	R31, R21
        LPM	R20, Z
//  831       temp=Appl_seq.vol_cntr_cl>>8;
        MOV	R22, R23
        MOV	R16, R22
//  832       uchCRCHi = uchCRCLo ^ auchCRCHi[uchCRCHi ^ temp];
        LDI	R30, LOW(auchCRCHi)
        LDI	R31, (auchCRCHi) >> 8
        EOR	R22, R18
        ADD	R30, R22
        ADC	R31, R21
        LPM	R18, Z
        EOR	R18, R20
//  833       uchCRCLo = auchCRCLo[uchCRCHi ^ temp];
//  834       
//  835       return (uchCRCHi << 8  | uchCRCLo);
        LDI	R30, LOW(auchCRCLo)
        LDI	R31, (auchCRCLo) >> 8
        EOR	R16, R18
        ADD	R30, R16
        ADC	R31, R21
        LPM	R16, Z
        OR	R17, R18
        LD	R26, Y+
        CFI R26 SameValue
        CFI CFA_Y Y+1
        LD	R27, Y+
        CFI R27 SameValue
        CFI CFA_Y Y+0
        RET
        CFI EndBlock cfiBlock10
//  836 
//  837      } 
//  838 
//  839 

        RSEG CODE:CODE:NOROOT(1)
//  840 void load_rw_pdp(void)
load_rw_pdp:
        CFI Block cfiBlock11 Using cfiCommon0
        CFI Function load_rw_pdp
//  841 {
        FUNCALL load_rw_pdp, RdFromFleshToArr
        LOCFRAME CSTACK, 78, STACK
        LOCFRAME RSTACK, 2, STACK
        FUNCALL load_rw_pdp, strlen
        LOCFRAME CSTACK, 78, STACK
        LOCFRAME RSTACK, 2, STACK
        FUNCALL load_rw_pdp, strlen
        LOCFRAME CSTACK, 78, STACK
        LOCFRAME RSTACK, 2, STACK
        FUNCALL load_rw_pdp, strlen
        LOCFRAME CSTACK, 78, STACK
        LOCFRAME RSTACK, 2, STACK
        FUNCALL load_rw_pdp, crc_m1
        LOCFRAME CSTACK, 78, STACK
        LOCFRAME RSTACK, 2, STACK
        FUNCALL load_rw_pdp, WrArrayToFlesh
        LOCFRAME CSTACK, 78, STACK
        LOCFRAME RSTACK, 2, STACK
        CALL	?PROLOGUE8_L09
        CFI R7 Frame(CFA_Y, -1)
        CFI R6 Frame(CFA_Y, -2)
        CFI R5 Frame(CFA_Y, -3)
        CFI R4 Frame(CFA_Y, -4)
        CFI R27 Frame(CFA_Y, -5)
        CFI R26 Frame(CFA_Y, -6)
        CFI R25 Frame(CFA_Y, -7)
        CFI R24 Frame(CFA_Y, -8)
        CFI CFA_Y Y+8
        REQUIRE	?Register_R4_is_cg_reg
        REQUIRE	?Register_R5_is_cg_reg
        REQUIRE	?Register_R7_is_cg_reg
        SBIW	R29:R28, 63
        CFI CFA_Y Y+71
        SBIW	R29:R28, 7
        CFI CFA_Y Y+78
//  842  char buf[70];
//  843  unsigned char i,j,temp;
//  844  unsigned int kol;
//  845  
//  846  buf[69]=0;
        LDI	R16, 0
        MOVW	R31:R30, R29:R28
        ADIW	R31:R30, 63
        STD	Z+6, R16
//  847  
//  848  if((MCUSR & 0x01)!=0x01)return;
        IN	R16, 0x34
        MOV	R17, R16
        SBRS	R17, 0
        RJMP	??load_rw_pdp_0
//  849 
//  850  if (e_rw_pdp!=0)return;
        LDI	R20, 1
        LDI	R21, 0
        CALL	__eeget8_16
        TST	R16
        BRNE	??load_rw_pdp_0
//  851  RdFromFleshToArr(ABUF_C_GPRS,&buf[0],L_C_GPRS_MAX-2);                                                                     
        LDI	R20, 58
        LDI	R21, 0
        MOVW	R19:R18, R29:R28
        LDI	R16, 16
        LDI	R17, 39
        CALL	RdFromFleshToArr
//  852  if(buf[0]!=0)
        LD	R16, Y
        TST	R16
        BREQ	??load_rw_pdp_1
//  853    {
//  854     j=0;
        LDI	R24, 0
//  855     kol=0;
//  856     
//  857        temp=strlen(&buf[j]);
        MOVW	R17:R16, R29:R28
        CALL	strlen
//  858        if(temp>35){e_rw_pdp=0xff;return;}
        CPI	R16, 36
        BRCS	??load_rw_pdp_2
??load_rw_pdp_1:
        LDI	R16, 255
        LDI	R20, 1
        LDI	R21, 0
        CALL	__eeput8_16
??load_rw_pdp_0:
        ADIW	R29:R28, 63
        CFI CFA_Y Y+15
        ADIW	R29:R28, 7
        CFI CFA_Y Y+8
        LDI	R30, 8
        JMP	?EPILOGUE_B8_L09
        CFI CFA_Y Y+78
//  859        buf_tx_232[j]=temp;
??load_rw_pdp_2:
        LDI	R26, LOW(buf_tx_232)
        LDI	R27, (buf_tx_232) >> 8
        ST	X, R16
//  860        for(i=0;i<temp;i++) {buf_tx_232[j+1]=buf[j];j++;}
        LDI	R17, 0
        RJMP	??load_rw_pdp_3
??load_rw_pdp_4:
        MOV	R18, R24
        LDI	R19, 0
        MOVW	R31:R30, R29:R28
        ADD	R30, R18
        ADC	R31, R19
        LD	R20, Z
        MOVW	R31:R30, R27:R26
        ADD	R30, R18
        ADC	R31, R19
        STD	Z+1, R20
        INC	R24
        INC	R17
??load_rw_pdp_3:
        CP	R17, R16
        BRCS	??load_rw_pdp_4
//  861        kol=kol+temp;
        MOV	R4, R16
        CLR	R5
//  862        
//  863        j++;
        INC	R24
//  864        temp=strlen(&buf[j]);
        CLR	R7
        MOVW	R17:R16, R29:R28
        ADD	R16, R24
        ADC	R17, R5
        CALL	strlen
//  865        if(temp>15){e_rw_pdp=0xff;return;}
        CPI	R16, 16
        BRCC	??load_rw_pdp_1
//  866        buf_tx_232[j]=temp;
        MOVW	R31:R30, R27:R26
        ADD	R30, R24
        ADC	R31, R5
        ST	Z, R16
//  867        for(i=0;i<temp;i++) {buf_tx_232[j+1]=buf[j];j++;}
        LDI	R17, 0
        RJMP	??load_rw_pdp_5
??load_rw_pdp_6:
        MOV	R18, R24
        MOVW	R31:R30, R29:R28
        ADD	R30, R18
        ADC	R31, R5
        LD	R20, Z
        MOVW	R31:R30, R27:R26
        ADD	R30, R18
        ADC	R31, R5
        STD	Z+1, R20
        INC	R24
        INC	R17
??load_rw_pdp_5:
        CP	R17, R16
        BRCS	??load_rw_pdp_6
//  868        kol=kol+temp;
        ADD	R4, R16
        ADC	R5, R5
//  869     
//  870        j++;
        INC	R24
//  871        temp=strlen(&buf[j]);
        MOVW	R17:R16, R29:R28
        ADD	R16, R24
        ADC	R17, R7
        CALL	strlen
//  872        if(temp>15){e_rw_pdp=0xff;return;}
        CPI	R16, 16
        BRCS	$+2+2
        RJMP	??load_rw_pdp_1
//  873        buf_tx_232[j]=temp;
        MOVW	R31:R30, R27:R26
        ADD	R30, R24
        ADC	R31, R7
        ST	Z, R16
//  874        for(i=0;i<temp;i++) {buf_tx_232[j+1]=buf[j];j++;}
        LDI	R17, 0
        RJMP	??load_rw_pdp_7
??load_rw_pdp_8:
        MOV	R18, R24
        MOVW	R31:R30, R29:R28
        ADD	R30, R18
        ADC	R31, R7
        LD	R20, Z
        MOVW	R31:R30, R27:R26
        ADD	R30, R18
        ADC	R31, R7
        STD	Z+1, R20
        INC	R24
        INC	R17
??load_rw_pdp_7:
        CP	R17, R16
        BRCS	??load_rw_pdp_8
//  875        kol=kol+temp;
//  876        
//  877        kol=kol+3;      
//  878        if(kol>(L_C_GPRS_MAX-2)){e_rw_pdp=0xff;return;}
        MOV	R30, R16
        LDI	R31, 0
        ADD	R30, R4
        ADC	R31, R5
        ADIW	R31:R30, 3
        SBIW	R31:R30, 59
        BRCS	$+2+2
        RJMP	??load_rw_pdp_1
//  879        
//  880        *(unsigned int*)&buf_tx_232[L_C_GPRS_MAX-2]=crc_m1(&buf_tx_232[0],L_C_GPRS_MAX-2,0xffff);
        LDI	R20, 255
        LDI	R21, 255
        LDI	R18, 58
        LDI	R19, 0
        MOVW	R17:R16, R27:R26
        RCALL	crc_m1
        MOVW	R31:R30, R27:R26
        STD	Z+58, R16
        STD	Z+59, R17
//  881        WrArrayToFlesh(A_C_GPRS, &buf_tx_232[0],L_C_GPRS_MAX,0,0);
        LDI	R23, 0
        LDI	R22, 0
        LDI	R20, 60
        LDI	R21, 0
        MOVW	R19:R18, R27:R26
        LDI	R16, 20
        LDI	R17, 0
        CALL	WrArrayToFlesh
        RJMP	??load_rw_pdp_1
        CFI EndBlock cfiBlock11
//  882        
//  883    }
//  884  e_rw_pdp=0xff;  
//  885 } 
//  886 
//  887 
//  888 

        RSEG CODE:CODE:NOROOT(1)
//  889 void load_rw_pdp_r(void)
load_rw_pdp_r:
        CFI Block cfiBlock12 Using cfiCommon0
        CFI Function load_rw_pdp_r
//  890 {
        FUNCALL load_rw_pdp_r, RdFromFleshToArr
        LOCFRAME CSTACK, 78, STACK
        LOCFRAME RSTACK, 2, STACK
        FUNCALL load_rw_pdp_r, strlen
        LOCFRAME CSTACK, 78, STACK
        LOCFRAME RSTACK, 2, STACK
        FUNCALL load_rw_pdp_r, strlen
        LOCFRAME CSTACK, 78, STACK
        LOCFRAME RSTACK, 2, STACK
        FUNCALL load_rw_pdp_r, strlen
        LOCFRAME CSTACK, 78, STACK
        LOCFRAME RSTACK, 2, STACK
        FUNCALL load_rw_pdp_r, crc_m1
        LOCFRAME CSTACK, 78, STACK
        LOCFRAME RSTACK, 2, STACK
        FUNCALL load_rw_pdp_r, WrArrayToFlesh
        LOCFRAME CSTACK, 78, STACK
        LOCFRAME RSTACK, 2, STACK
        CALL	?PROLOGUE8_L09
        CFI R7 Frame(CFA_Y, -1)
        CFI R6 Frame(CFA_Y, -2)
        CFI R5 Frame(CFA_Y, -3)
        CFI R4 Frame(CFA_Y, -4)
        CFI R27 Frame(CFA_Y, -5)
        CFI R26 Frame(CFA_Y, -6)
        CFI R25 Frame(CFA_Y, -7)
        CFI R24 Frame(CFA_Y, -8)
        CFI CFA_Y Y+8
        REQUIRE	?Register_R4_is_cg_reg
        REQUIRE	?Register_R5_is_cg_reg
        REQUIRE	?Register_R7_is_cg_reg
        SBIW	R29:R28, 63
        CFI CFA_Y Y+71
        SBIW	R29:R28, 7
        CFI CFA_Y Y+78
//  891  char buf[70];
//  892  unsigned char i,j,temp;
//  893  unsigned int kol;
//  894  
//  895  buf[69]=0;
        LDI	R16, 0
        MOVW	R31:R30, R29:R28
        ADIW	R31:R30, 63
        STD	Z+6, R16
//  896  
//  897  if((MCUSR & 0x01)!=0x01)return;
        IN	R16, 0x34
        MOV	R17, R16
        SBRS	R17, 0
        RJMP	??load_rw_pdp_r_0
//  898 
//  899  if (e_rw_pdp_r!=0)return;
        LDI	R20, 2
        LDI	R21, 0
        CALL	__eeget8_16
        TST	R16
        BRNE	??load_rw_pdp_r_0
//  900  RdFromFleshToArr(ABUF_CR_GPRS,&buf[0],L_CR_GPRS_MAX-2);                                                                     
        LDI	R20, 58
        LDI	R21, 0
        MOVW	R19:R18, R29:R28
        LDI	R16, 72
        LDI	R17, 38
        CALL	RdFromFleshToArr
//  901  if(buf[0]!=0)
        LD	R16, Y
        TST	R16
        BREQ	??load_rw_pdp_r_1
//  902    {
//  903     j=0;
        LDI	R24, 0
//  904     kol=0;
//  905     
//  906        temp=strlen(&buf[j]);
        MOVW	R17:R16, R29:R28
        CALL	strlen
//  907        if(temp>35){e_rw_pdp_r=0xff;return;}
        CPI	R16, 36
        BRCS	??load_rw_pdp_r_2
??load_rw_pdp_r_1:
        LDI	R16, 255
        LDI	R20, 2
        LDI	R21, 0
        CALL	__eeput8_16
??load_rw_pdp_r_0:
        ADIW	R29:R28, 63
        CFI CFA_Y Y+15
        ADIW	R29:R28, 7
        CFI CFA_Y Y+8
        LDI	R30, 8
        JMP	?EPILOGUE_B8_L09
        CFI CFA_Y Y+78
//  908        buf_tx_232[j]=temp;
??load_rw_pdp_r_2:
        LDI	R26, LOW(buf_tx_232)
        LDI	R27, (buf_tx_232) >> 8
        ST	X, R16
//  909        for(i=0;i<temp;i++) {buf_tx_232[j+1]=buf[j];j++;}
        LDI	R17, 0
        RJMP	??load_rw_pdp_r_3
??load_rw_pdp_r_4:
        MOV	R18, R24
        LDI	R19, 0
        MOVW	R31:R30, R29:R28
        ADD	R30, R18
        ADC	R31, R19
        LD	R20, Z
        MOVW	R31:R30, R27:R26
        ADD	R30, R18
        ADC	R31, R19
        STD	Z+1, R20
        INC	R24
        INC	R17
??load_rw_pdp_r_3:
        CP	R17, R16
        BRCS	??load_rw_pdp_r_4
//  910        kol=kol+temp;
        MOV	R4, R16
        CLR	R5
//  911        
//  912        j++;
        INC	R24
//  913        temp=strlen(&buf[j]);
        CLR	R7
        MOVW	R17:R16, R29:R28
        ADD	R16, R24
        ADC	R17, R5
        CALL	strlen
//  914        if(temp>15){e_rw_pdp_r=0xff;return;}
        CPI	R16, 16
        BRCC	??load_rw_pdp_r_1
//  915        buf_tx_232[j]=temp;
        MOVW	R31:R30, R27:R26
        ADD	R30, R24
        ADC	R31, R5
        ST	Z, R16
//  916        for(i=0;i<temp;i++) {buf_tx_232[j+1]=buf[j];j++;}
        LDI	R17, 0
        RJMP	??load_rw_pdp_r_5
??load_rw_pdp_r_6:
        MOV	R18, R24
        MOVW	R31:R30, R29:R28
        ADD	R30, R18
        ADC	R31, R5
        LD	R20, Z
        MOVW	R31:R30, R27:R26
        ADD	R30, R18
        ADC	R31, R5
        STD	Z+1, R20
        INC	R24
        INC	R17
??load_rw_pdp_r_5:
        CP	R17, R16
        BRCS	??load_rw_pdp_r_6
//  917        kol=kol+temp;
        ADD	R4, R16
        ADC	R5, R5
//  918     
//  919        j++;
        INC	R24
//  920        temp=strlen(&buf[j]);
        MOVW	R17:R16, R29:R28
        ADD	R16, R24
        ADC	R17, R7
        CALL	strlen
//  921        if(temp>15){e_rw_pdp_r=0xff;return;}
        CPI	R16, 16
        BRCS	$+2+2
        RJMP	??load_rw_pdp_r_1
//  922        buf_tx_232[j]=temp;
        MOVW	R31:R30, R27:R26
        ADD	R30, R24
        ADC	R31, R7
        ST	Z, R16
//  923        for(i=0;i<temp;i++) {buf_tx_232[j+1]=buf[j];j++;}
        LDI	R17, 0
        RJMP	??load_rw_pdp_r_7
??load_rw_pdp_r_8:
        MOV	R18, R24
        MOVW	R31:R30, R29:R28
        ADD	R30, R18
        ADC	R31, R7
        LD	R20, Z
        MOVW	R31:R30, R27:R26
        ADD	R30, R18
        ADC	R31, R7
        STD	Z+1, R20
        INC	R24
        INC	R17
??load_rw_pdp_r_7:
        CP	R17, R16
        BRCS	??load_rw_pdp_r_8
//  924        kol=kol+temp;
//  925        
//  926        kol=kol+3;      
//  927        if(kol>(L_CR_GPRS_MAX-2)){e_rw_pdp_r=0xff;return;}
        MOV	R30, R16
        LDI	R31, 0
        ADD	R30, R4
        ADC	R31, R5
        ADIW	R31:R30, 3
        SBIW	R31:R30, 59
        BRCS	$+2+2
        RJMP	??load_rw_pdp_r_1
//  928        
//  929        *(unsigned int*)&buf_tx_232[L_C_GPRS_MAX-2]=crc_m1(&buf_tx_232[0],L_CR_GPRS_MAX-2,0xffff);
        LDI	R20, 255
        LDI	R21, 255
        LDI	R18, 58
        LDI	R19, 0
        MOVW	R17:R16, R27:R26
        RCALL	crc_m1
        MOVW	R31:R30, R27:R26
        STD	Z+58, R16
        STD	Z+59, R17
//  930        WrArrayToFlesh(A_CR_GPRS, &buf_tx_232[0],L_CR_GPRS_MAX,0,0);
        LDI	R23, 0
        LDI	R22, 0
        LDI	R20, 60
        LDI	R21, 0
        MOVW	R19:R18, R27:R26
        LDI	R16, 80
        LDI	R17, 0
        CALL	WrArrayToFlesh
        RJMP	??load_rw_pdp_r_1
        CFI EndBlock cfiBlock12
//  931        
//  932    }
//  933  e_rw_pdp_r=0xff;  
//  934 } 
//  935 
//  936 
//  937 
//  938 

        RSEG CODE:CODE:NOROOT(1)
//  939 void load_par_from_memory(void)
load_par_from_memory:
        CFI Block cfiBlock13 Using cfiCommon0
        CFI Function load_par_from_memory
//  940 {
        FUNCALL load_par_from_memory, RdFromFleshToArr
        LOCFRAME CSTACK, 28, STACK
        LOCFRAME RSTACK, 2, STACK
        FUNCALL load_par_from_memory, crc_m1
        LOCFRAME CSTACK, 28, STACK
        LOCFRAME RSTACK, 2, STACK
        FUNCALL load_par_from_memory, RdFromFleshToArr
        LOCFRAME CSTACK, 28, STACK
        LOCFRAME RSTACK, 2, STACK
        FUNCALL load_par_from_memory, crc_m1
        LOCFRAME CSTACK, 28, STACK
        LOCFRAME RSTACK, 2, STACK
        FUNCALL load_par_from_memory, RdFromFleshToArr
        LOCFRAME CSTACK, 28, STACK
        LOCFRAME RSTACK, 2, STACK
        FUNCALL load_par_from_memory, crc_m1
        LOCFRAME CSTACK, 28, STACK
        LOCFRAME RSTACK, 2, STACK
        CALL	?PROLOGUE8_L09
        CFI R7 Frame(CFA_Y, -1)
        CFI R6 Frame(CFA_Y, -2)
        CFI R5 Frame(CFA_Y, -3)
        CFI R4 Frame(CFA_Y, -4)
        CFI R27 Frame(CFA_Y, -5)
        CFI R26 Frame(CFA_Y, -6)
        CFI R25 Frame(CFA_Y, -7)
        CFI R24 Frame(CFA_Y, -8)
        CFI CFA_Y Y+8
        REQUIRE	?Register_R6_is_cg_reg
        REQUIRE	?Register_R7_is_cg_reg
        SBIW	R29:R28, 20
        CFI CFA_Y Y+28
//  941 unsigned char buf[20];
//  942   
//  943 
//  944 RdFromFleshToArr(A_IP_PAR,&buf[0],L_IP_PAR);
        LDI	R20, 10
        LDI	R21, 0
        MOVW	R19:R18, R29:R28
        LDI	R16, 140
        LDI	R17, 0
        CALL	RdFromFleshToArr
//  945 if(*(unsigned int*)&buf[OFS_IP_PAR_CRC]!=crc_m1(&buf[0],L_IP_PAR-2,0xffff))
        LDI	R26, LOW(Appl_seq)
        LDI	R27, (Appl_seq) >> 8
        LDD	R24, Y+8
        LDD	R25, Y+9
        LDI	R20, 255
        LDI	R21, 255
        LDI	R18, 8
        LDI	R19, 0
        MOVW	R17:R16, R29:R28
        RCALL	crc_m1
        CP	R24, R16
        CPC	R25, R17
        BREQ	??load_par_from_memory_0
//  946   {
//  947    
//  948    ip_ls[0]=DEF_IP_SRV_0;
        LDI	R16, 88
        MOVW	R31:R30, R27:R26
        STD	Z+44, R16
//  949    ip_ls[1]=DEF_IP_SRV_1;
        LDI	R16, 82
        STD	Z+45, R16
//  950    ip_ls[2]=DEF_IP_SRV_2;
        LDI	R16, 69
        STD	Z+46, R16
//  951    ip_ls[3]=DEF_IP_SRV_3;
        LDI	R16, 228
        STD	Z+47, R16
//  952    num_self=DEF_NUM_SELF;
        LDI	R16, 2
        LDI	R17, 0
        STD	Z+56, R16
        STD	Z+57, R17
//  953    port_udp=DEF_UDP_PORT;
        LDI	R16, 186
        LDI	R17, 19
        ADIW	R31:R30, 60
        ST	Z, R16
        STD	Z+1, R17
        RJMP	??load_par_from_memory_1
//  954   }
//  955   else
//  956   {  
//  957   
//  958    ip_ls[0]=buf[OFS_IP];
??load_par_from_memory_0:
        LD	R16, Y
        MOVW	R31:R30, R27:R26
        STD	Z+44, R16
//  959    ip_ls[1]=buf[OFS_IP+1];
        LDD	R16, Y+1
        STD	Z+45, R16
//  960    ip_ls[2]=buf[OFS_IP+2];
        LDD	R16, Y+2
        STD	Z+46, R16
//  961    ip_ls[3]=buf[OFS_IP+3];
        LDD	R16, Y+3
        STD	Z+47, R16
//  962    port_udp=*(unsigned int*)&buf[OFS_PORT];
        LDD	R16, Y+4
        LDD	R17, Y+5
        ADIW	R31:R30, 60
        ST	Z, R16
        STD	Z+1, R17
//  963    num_self=*(unsigned int*)&buf[OFS_NUM];
        LDD	R16, Y+6
        LDD	R17, Y+7
        MOVW	R31:R30, R27:R26
        STD	Z+56, R16
        STD	Z+57, R17
//  964   }
//  965 
//  966 
//  967   
//  968 RdFromFleshToArr(A_C_PAR,&buf[0],L_C_PAR);
??load_par_from_memory_1:
        LDI	R20, 14
        LDI	R21, 0
        MOVW	R19:R18, R29:R28
        LDI	R16, 150
        LDI	R17, 0
        CALL	RdFromFleshToArr
//  969 if(*(unsigned int*)&buf[OFS_C_PAR_CRC]!=crc_m1(&buf[0],L_C_PAR-2,0xffff))
        LDD	R24, Y+12
        LDD	R25, Y+13
        LDI	R20, 255
        LDI	R21, 255
        LDI	R18, 12
        LDI	R19, 0
        MOVW	R17:R16, R29:R28
        RCALL	crc_m1
        CP	R24, R16
        CPC	R25, R17
        BREQ	??load_par_from_memory_2
//  970   {
//  971   
//  972    Control.vol_nat=DEF_CNTR_NAT;
        LDI	R16, 50
        LDI	R17, 0
        MOVW	R31:R30, R27:R26
        STD	Z+36, R16
        STD	Z+37, R17
//  973    Control.vol_nat_r=DEF_CNTR_NAT_R;
        LDI	R16, 45
        STD	Z+42, R16
        STD	Z+43, R17
//  974    Control.vol_link=DEF_CNTR_LINK;
        LDI	R16, 120
        STD	Z+34, R16
        STD	Z+35, R17
//  975    Control.vol_waits=DEF_CNTR_LINK_WAITS;
        LDI	R16, 12
        STD	Z+38, R16
        STD	Z+39, R17
//  976    Control.vol_try=DEF_TM_CNTR_LINK/Control.vol_waits;  
        LDI	R16, 5
        STD	Z+41, R16
//  977    
//  978    vol_cnt_no_link=DEF_TM_NO_LINK * 60;  //dobavka
        LDI	R16, 88
        LDI	R17, 2
        LDI	R18, 0
        STD	Z+48, R16
        STD	Z+49, R17
        STD	Z+50, R18
        STD	Z+51, R18
//  979    vol_cnt_link_res=DEF_TM_LINK_RES * 60;  //dobavka
        LDI	R16, 16
        LDI	R17, 14
        STD	Z+52, R16
        STD	Z+53, R17
        STD	Z+54, R18
        STD	Z+55, R18
        RJMP	??load_par_from_memory_3
//  980    
//  981   }
//  982   else
//  983   {
//  984    
//  985    Control.vol_nat=*(unsigned int*)&buf[OFS_NAT];
??load_par_from_memory_2:
        LD	R16, Y
        LDD	R17, Y+1
        MOVW	R31:R30, R27:R26
        STD	Z+36, R16
        STD	Z+37, R17
//  986    Control.vol_link=*(unsigned int*)&buf[OFS_CCH];
        LDD	R16, Y+2
        LDD	R17, Y+3
        STD	Z+34, R16
        STD	Z+35, R17
//  987    Control.vol_waits=DEF_CNTR_LINK_WAITS;
        LDI	R16, 12
        LDI	R17, 0
        STD	Z+38, R16
        STD	Z+39, R17
//  988    Control.vol_try=*(unsigned int*)&buf[OFS_TM_CH]/Control.vol_waits;
        LDD	R16, Y+4
        LDD	R17, Y+5
        LDI	R20, 12
        LDI	R21, 0
        CALL	?US_DIVMOD_L02
        MOVW	R31:R30, R27:R26
        STD	Z+41, R16
//  989    
//  990    vol_cnt_no_link=*(unsigned int*)&buf[OFS_TM_NO_LINK]*60;   //dobavka
        LDD	R20, Y+6
        LDD	R21, Y+7
        LDI	R16, 60
        LDI	R17, 0
        CALL	?S_EC_MUL_L02
        LDI	R18, 0
        STD	Z+48, R16
        STD	Z+49, R17
        STD	Z+50, R18
        STD	Z+51, R18
//  991    vol_cnt_link_res=*(unsigned int*)&buf[OFS_TM_LINK_RES]*60; //dobavka
        LDD	R20, Y+8
        LDD	R21, Y+9
        LDI	R16, 60
        LDI	R17, 0
        CALL	?S_EC_MUL_L02
        STD	Z+52, R16
        STD	Z+53, R17
        STD	Z+54, R18
        STD	Z+55, R18
//  992    
//  993    Control.vol_nat_r=*(unsigned int*)&buf[OFS_NAT_R];
        LDD	R16, Y+10
        LDD	R17, Y+11
        STD	Z+42, R16
        STD	Z+43, R17
//  994   }
//  995 
//  996 
//  997 
//  998 RdFromFleshToArr(A_SEQ_PAR,&buf[0],L_SEQ_PAR);
??load_par_from_memory_3:
        LDI	R20, 11
        LDI	R21, 0
        MOVW	R19:R18, R29:R28
        LDI	R16, 164
        LDI	R17, 0
        CALL	RdFromFleshToArr
//  999 if(*(unsigned int*)&buf[OFS_SEQ_PAR_CRC]!=crc_m1(&buf[0],L_SEQ_PAR-2,0xffff))
        LDI	R24, LOW(struct_tcc1)
        LDI	R25, (struct_tcc1) >> 8
        LDD	R6, Y+9
        LDD	R7, Y+10
        LDI	R20, 255
        LDI	R21, 255
        LDI	R18, 9
        LDI	R19, 0
        MOVW	R17:R16, R29:R28
        RCALL	crc_m1
        CP	R6, R16
        CPC	R7, R17
        BREQ	??load_par_from_memory_4
// 1000   {
// 1001    
// 1002    Appl_seq_des=~DEF_DES_SEQ;
        LDI	R16, 254
        MOVW	R31:R30, R27:R26
        ADIW	R31:R30, 62
        ST	Z, R16
// 1003    num_seq_cl=DEF_NUM_DST_SEQ;
        LDI	R16, 255
        MOVW	R31:R30, R27:R26
        STD	Z+58, R16
        STD	Z+59, R16
// 1004    Appl_seq.vol_tm_vzat=DEF_VOL_TM_VZAT;
        LDI	R16, 30
        LDI	R17, 0
        STD	Z+18, R16
        STD	Z+19, R17
// 1005    Appl_seq.vol_cntr_cl=DEF_TM_CNTR_CL;
        LDI	R16, 10
        STD	Z+24, R16
        STD	Z+25, R17
// 1006    struct_tcc1.type=DEF_TP_TS1;
        LDI	R16, 1
        MOVW	R31:R30, R25:R24
        STD	Z+4, R16
// 1007    struct_tcc2.type=DEF_TP_TS1;
        RJMP	??load_par_from_memory_5
// 1008   }
// 1009   else
// 1010   {
// 1011  
// 1012   Appl_seq_des=buf[OFS_DES_SEQ];
??load_par_from_memory_4:
        LD	R16, Y
        MOVW	R31:R30, R27:R26
        ADIW	R31:R30, 62
        ST	Z, R16
// 1013   num_seq_cl=*(unsigned int*)&buf[OFS_NUM_CL];
        LDD	R16, Y+1
        LDD	R17, Y+2
        MOVW	R31:R30, R27:R26
        STD	Z+58, R16
        STD	Z+59, R17
// 1014   Appl_seq.vol_tm_vzat=*(unsigned int*)&buf[OFS_TM_VZ];
        LDD	R16, Y+3
        LDD	R17, Y+4
        STD	Z+18, R16
        STD	Z+19, R17
// 1015   Appl_seq.vol_cntr_cl=*(unsigned int*)&buf[OFS_TM_CL];
        LDD	R16, Y+5
        LDD	R17, Y+6
        STD	Z+24, R16
        STD	Z+25, R17
// 1016   struct_tcc1.type=buf[OFS_TP_TS];
        LDD	R16, Y+7
        MOVW	R31:R30, R25:R24
        STD	Z+4, R16
// 1017   struct_tcc2.type=buf[OFS_TP_TS+1];
        LDD	R16, Y+8
??load_par_from_memory_5:
        LDI	R30, LOW(struct_tcc2)
        LDI	R31, (struct_tcc2) >> 8
        STD	Z+4, R16
// 1018   }
// 1019  
// 1020 }
        ADIW	R29:R28, 20
        CFI CFA_Y Y+8
        LDI	R30, 8
        JMP	?EPILOGUE_B8_L09
        CFI EndBlock cfiBlock13
// 1021 
// 1022 

        RSEG CODE:CODE:NOROOT(1)
// 1023 void start_func_stm_off(void)
start_func_stm_off:
        CFI Block cfiBlock14 Using cfiCommon0
        CFI Function start_func_stm_off
// 1024 {
// 1025   S2_OFF;
        FUNCALL start_func_stm_off, write_log_info
        LOCFRAME RSTACK, 2, STACK
        FUNCALL start_func_stm_off, send_info
        LOCFRAME RSTACK, 2, STACK
        CBI	0x08, 0x00
        CBI	0x08, 0x01
// 1026   
// 1027   if(Regim!=RG_DEBAG){S3_OFF;S4_OFF;S5_OFF;}
        LDS	R16, Regim
        CPI	R16, 1
        BREQ	??start_func_stm_off_0
        CBI	0x08, 0x04
        CBI	0x08, 0x05
        CBI	0x08, 0x02
        CBI	0x08, 0x03
        CBI	0x08, 0x06
        CBI	0x08, 0x07
// 1028   
// 1029   state_led_md=LED_MD_OFF;
??start_func_stm_off_0:
        LDI	R16, 1
        STS	state_led_md, R16
// 1030   command_AT=TRUE;// âęëţ÷ĺí ęîěěŕíäíűé đĺćčě
        LDI	R30, LOW(Appl_RS485_1)
        LDI	R31, (Appl_RS485_1) >> 8
        STD	Z+52, R16
// 1031   CLR_PWR;
        LDS	R16, 261
        ANDI	R16, 0xBF
        STS	261, R16
// 1032   CLR_PWRK;
        CBI	0x05, 0x04
// 1033   state_modem=STM_OFF;
        LDI	R16, 10
        STD	Z+50, R16
// 1034   cnt_stm_tm1=DEF_TM_STM_OFF;
        LDI	R16, 3
        STD	Z+53, R16
// 1035   event_modem=EVM_NONE;
        LDI	R16, 0
        STD	Z+51, R16
// 1036   write_log_info(ST_MODEM,MDM_OFF);
        LDI	R17, 5
        LDI	R16, 3
        CALL	write_log_info
// 1037   send_info(sizeof(stm_pwr_off),stm_pwr_off,0,0);
        LDI	R20, 0
        LDI	R17, 0
        LDI	R18, LOW(stm_pwr_off)
        LDI	R19, (stm_pwr_off) >> 8
        LDI	R16, 11
        CALL	send_info
// 1038 }   
        RET
        CFI EndBlock cfiBlock14
// 1039 
// 1040 

        RSEG CODE:CODE:NOROOT(1)
// 1041 void start_func_stm_on(void)
start_func_stm_on:
        CFI Block cfiBlock15 Using cfiCommon0
        CFI Function start_func_stm_on
// 1042 {
        FUNCALL start_func_stm_on, write_log_info
        LOCFRAME CSTACK, 2, STACK
        LOCFRAME RSTACK, 2, STACK
        FUNCALL start_func_stm_on, send_info
        LOCFRAME CSTACK, 2, STACK
        LOCFRAME RSTACK, 2, STACK
        FUNCALL start_func_stm_on, write_log_info
        LOCFRAME CSTACK, 2, STACK
        LOCFRAME RSTACK, 2, STACK
        FUNCALL start_func_stm_on, send_info
        LOCFRAME CSTACK, 2, STACK
        LOCFRAME RSTACK, 2, STACK
        FUNCALL start_func_stm_on, send_info
        LOCFRAME CSTACK, 2, STACK
        LOCFRAME RSTACK, 2, STACK
        ST	-Y, R27
        CFI R27 Frame(CFA_Y, -1)
        CFI CFA_Y Y+1
        ST	-Y, R26
        CFI R26 Frame(CFA_Y, -2)
        CFI CFA_Y Y+2
// 1043   S2_OFF;
        CBI	0x08, 0x00
        CBI	0x08, 0x01
// 1044   
// 1045   if(Regim!=RG_DEBAG){S3_OFF;S4_OFF;S5_OFF;}
        LDS	R16, Regim
        CPI	R16, 1
        BREQ	??start_func_stm_on_0
        CBI	0x08, 0x04
        CBI	0x08, 0x05
        CBI	0x08, 0x02
        CBI	0x08, 0x03
        CBI	0x08, 0x06
        CBI	0x08, 0x07
// 1046  
// 1047     //!!!! dobavka
// 1048   if(Fl_ch_sim==1)
??start_func_stm_on_0:
        LDI	R26, LOW(Appl_RS485_1)
        LDI	R27, (Appl_RS485_1) >> 8
        MOVW	R31:R30, R27:R26
        LDD	R16, Z+54
        CPI	R16, 1
        BRNE	??start_func_stm_on_1
// 1049   {
// 1050     Fl_ch_sim=0;
        LDI	R16, 0
        STD	Z+54, R16
// 1051     simka=simka^SIM_TRIG;
        LDI	R16, 1
        LDI	R30, LOW(simka)
        LDI	R31, (simka) >> 8
        LD	R17, Z
        EOR	R17, R16
        ST	Z, R17
// 1052     cnt_no_link=vol_cnt_no_link;
        LDI	R30, LOW(Appl_seq)
        LDI	R31, (Appl_seq) >> 8
        LDD	R16, Z+48
        LDD	R17, Z+49
        LDD	R18, Z+50
        LDD	R19, Z+51
        LDI	R30, LOW(cnt_no_link)
        LDI	R31, (cnt_no_link) >> 8
        ST	Z, R16
        STD	Z+1, R17
        STD	Z+2, R18
        STD	Z+3, R19
// 1053     cnt_link_res=0;    
        LDI	R16, 0
        MOVW	R31:R30, R27:R26
        STD	Z+38, R16
        STD	Z+39, R16
        STD	Z+40, R16
        STD	Z+41, R16
// 1054   }
// 1055   simka=simka & 0x01; 
??start_func_stm_on_1:
        LDI	R30, LOW(simka)
        LDI	R31, (simka) >> 8
        LD	R16, Z
        ANDI	R16, 0x01
        STS	simka, R16
// 1056   if(simka==SIM_BASE)
        LDS	R16, simka
        TST	R16
        LDS	R16, 261
        BRNE	??start_func_stm_on_2
// 1057     {
// 1058        
// 1059        SET_SIM1;
        ANDI	R16, 0xEF
        STS	261, R16
        LDS	R16, 261
        ORI	R16, 0x20
        STS	261, R16
// 1060        write_log_info(ST_MODEM,BASE_SIM);
        LDI	R17, 6
        LDI	R16, 3
        CALL	write_log_info
// 1061        send_info(sizeof(stm_base_sim),stm_base_sim,0,0);   
        LDI	R20, 0
        LDI	R17, 0
        LDI	R18, LOW((stm_pwr_on + 10))
        LDI	R19, HIGH((stm_pwr_on + 10))
        LDI	R16, 12
        RJMP	??start_func_stm_on_3
// 1062     }else
// 1063     {
// 1064       SET_SIM2;
??start_func_stm_on_2:
        ANDI	R16, 0xDF
        STS	261, R16
        LDS	R16, 261
        ORI	R16, 0x10
        STS	261, R16
// 1065       write_log_info(ST_MODEM,RES_SIM);
        LDI	R17, 7
        LDI	R16, 3
        CALL	write_log_info
// 1066       send_info(sizeof(stm_res_sim),stm_res_sim,0,0);  
        LDI	R20, 0
        LDI	R17, 0
        LDI	R18, LOW((stm_pwr_on + 22))
        LDI	R19, HIGH((stm_pwr_on + 22))
        LDI	R16, 11
??start_func_stm_on_3:
        CALL	send_info
// 1067     }
// 1068   ///EEEEEEEEEEEE dobavka
// 1069   
// 1070 
// 1071   state_led_md=LED_MD_NO_CREG;
        LDI	R16, 2
        STS	state_led_md, R16
// 1072   command_AT=TRUE;// âęëţ÷ĺí ęîěěŕíäíűé đĺćčě
        LDI	R16, 1
        MOVW	R31:R30, R27:R26
        STD	Z+52, R16
// 1073   SET_RTS0;
        CBI	0x0E, 0x02
// 1074   SET_PWR;
        LDS	R16, 261
        ORI	R16, 0x40
        STS	261, R16
// 1075   CLR_PWRK;
        CBI	0x05, 0x04
// 1076   state_modem=STM_ON;
        LDI	R16, 1
        STD	Z+50, R16
// 1077   cnt_stm_tm1=DEF_TM_STM_ON;
        LDI	R16, 4
        STD	Z+53, R16
// 1078   event_modem=EVM_NONE; 
        LDI	R16, 0
        STD	Z+51, R16
// 1079   // write_log_info(ST_MODEM,MDM_ON);
// 1080   send_info(sizeof(stm_pwr_on),stm_pwr_on,0,0);    //ot dobavka   
        LDI	R20, 0
        LDI	R17, 0
        LDI	R18, LOW(stm_pwr_on)
        LDI	R19, (stm_pwr_on) >> 8
        LDI	R16, 10
        CALL	send_info
// 1081 }  
        LD	R26, Y+
        CFI R26 SameValue
        CFI CFA_Y Y+1
        LD	R27, Y+
        CFI R27 SameValue
        CFI CFA_Y Y+0
        RET
        CFI EndBlock cfiBlock15
// 1082 

        RSEG CODE:CODE:NOROOT(1)
// 1083 void start_func_stm_kon(void)
start_func_stm_kon:
        CFI Block cfiBlock16 Using cfiCommon0
        CFI Function start_func_stm_kon
// 1084 { 
// 1085   SET_PWRK;
        SBI	0x05, 0x04
// 1086   state_modem=STM_KON;
        LDI	R30, LOW(Appl_RS485_1)
        LDI	R31, (Appl_RS485_1) >> 8
        LDI	R16, 2
        STD	Z+50, R16
// 1087   cnt_stm_tm1=DEF_TM_STM_KON;
        LDI	R16, 3
        STD	Z+53, R16
// 1088   event_modem=EVM_NONE; 
        LDI	R16, 0
        STD	Z+51, R16
// 1089  
// 1090 }  
        RET
        CFI EndBlock cfiBlock16
// 1091 

        RSEG CODE:CODE:NOROOT(1)
// 1092 void start_func_stm_pwk(void)
start_func_stm_pwk:
        CFI Block cfiBlock17 Using cfiCommon0
        CFI Function start_func_stm_pwk
// 1093 { 
// 1094   CLR_PWRK
        FUNCALL start_func_stm_pwk, send_info
        LOCFRAME RSTACK, 2, STACK
        CBI	0x05, 0x04
// 1095   state_modem=STM_PWK;
        LDI	R30, LOW(Appl_RS485_1)
        LDI	R31, (Appl_RS485_1) >> 8
        LDI	R16, 3
        STD	Z+50, R16
// 1096   cnt_stm_tm1=DEF_TM_STM_PWK;
        LDI	R16, 1
        STD	Z+53, R16
// 1097   event_modem=EVM_NONE;
        LDI	R16, 0
        STD	Z+51, R16
// 1098   send_info(sizeof(stm_pwr_kon),stm_pwr_kon,0,0);
        LDI	R20, 0
        LDI	R17, 0
        LDI	R18, LOW(stm_pwr_kon)
        LDI	R19, (stm_pwr_kon) >> 8
        LDI	R16, 11
        CALL	send_info
// 1099 }  
        RET
        CFI EndBlock cfiBlock17
// 1100 
// 1101 
// 1102 

        RSEG CODE:CODE:NOROOT(1)
// 1103 void start_func_stm_scp(void)
start_func_stm_scp:
        CFI Block cfiBlock18 Using cfiCommon0
        CFI Function start_func_stm_scp
// 1104 {
        FUNCALL start_func_stm_scp, clr_var_ppp_rx
        LOCFRAME CSTACK, 2, STACK
        LOCFRAME RSTACK, 2, STACK
        FUNCALL start_func_stm_scp, clr_var_ppp
        LOCFRAME CSTACK, 2, STACK
        LOCFRAME RSTACK, 2, STACK
        ST	-Y, R27
        CFI R27 Frame(CFA_Y, -1)
        CFI CFA_Y Y+1
        ST	-Y, R26
        CFI R26 Frame(CFA_Y, -2)
        CFI CFA_Y Y+2
// 1105    unsigned char temp;
// 1106    clr_var_ppp_rx();
        RCALL	clr_var_ppp_rx
// 1107 
// 1108    UCSR0B=UCSR0B & ~RXEN;
        LDS	R16, 193
        ANDI	R16, 0xEF
        STS	193, R16
// 1109    UCSR0B=UCSR0B & ~RXCIE;
        LDS	R16, 193
        ANDI	R16, 0x7F
        STS	193, R16
// 1110  
// 1111  //******************************************************************
// 1112    //UCSR0B=UCSR0B & ~TXEN;  !!!!!!
// 1113    
// 1114    UCSR0A=UCSR0A | TXC;
        LDS	R16, 192
        ORI	R16, 0x40
        STS	192, R16
// 1115  
// 1116    command_AT=FALSE;// âűęëţ÷ĺí ęîěěŕíäíűé đĺćčě
        LDI	R26, LOW(Appl_RS485_1)
        LDI	R27, (Appl_RS485_1) >> 8
        LDI	R16, 0
        MOVW	R31:R30, R27:R26
        STD	Z+52, R16
// 1117  
// 1118    clr_var_ppp();
        RCALL	clr_var_ppp
// 1119   
// 1120    count_tx_ppp=0; 
        LDI	R16, 0
        LDI	R17, 0
        MOVW	R31:R30, R27:R26
        STD	Z+46, R16
        STD	Z+47, R16
// 1121  // äë˙ ŕęňčâŕöčč óńňŕíîâęč ńîĺäčíĺíč˙ PPP 
// 1122   //!!!!!!!!!!!!!!!!!!!!!!!!!!!!!!!!!!!!!!!!!!!!!!!
// 1123   
// 1124   fl_lcp1.up=1;
// 1125   fl_lcp1.down=0;
        LDS	R16, fl_lcp1
        ANDI	R16, 0xFD
        ORI	R16, 0x01
        STS	fl_lcp1, R16
// 1126  //ęîíôčăóđŕöč˙ ńîĺäčíĺíč˙  
// 1127  
// 1128   //ęîíôčăóđŕöč˙ ęŕíŕëŕ
// 1129   
// 1130   layer_PPP=LAYER_LCP;
        LDI	R16, 1
        ADIW	R31:R30, 61
        ST	Z, R16
// 1131   LCP_state=START_ST; 
        STS	LCP_state, R16
// 1132   
// 1133   IPCP_event=NO_EVENT;
        LDI	R16, 255
        STS	IPCP_event, R16
// 1134   LCP_event=NO_EVENT;
        STS	LCP_event, R16
// 1135   PAP_event=NO_EVENT;
        STS	PAP_event, R16
// 1136  
// 1137   uk_in_act_IPCP=0;
        STS	uk_in_act_IPCP, R17
// 1138   uk_out_act_IPCP=0;
        STS	uk_out_act_IPCP, R17
// 1139   
// 1140   uk_in_act_LCP=0;
        STS	uk_in_act_LCP, R17
// 1141   uk_out_act_LCP=0;
        STS	uk_out_act_LCP, R17
// 1142   
// 1143   cnt_lcp_tm_out=VOL_LCP_TM_OUT;
        LDI	R16, 184
        LDI	R17, 11
        LDI	R30, LOW(cnt_lcp_tm_out)
        LDI	R31, (cnt_lcp_tm_out) >> 8
        ST	Z, R16
        STD	Z+1, R17
// 1144   fl_lcp.act_lcp_end=1;           //äĺéńňâč˙ âńĺ çŕęîí÷ĺíű
        LDI	R30, LOW(fl_lcp)
        LDI	R31, (fl_lcp) >> 8
        LD	R16, Z
        ORI	R16, 0x01
        ST	Z, R16
// 1145   fl_pap.act_pap_end=1;     
        LDI	R30, LOW(fl_pap)
        LDI	R31, (fl_pap) >> 8
        LD	R16, Z
        ORI	R16, 0x01
        ST	Z, R16
// 1146   fl_ipcp.act_ipcp_end=1;
        LDI	R30, LOW(fl_ipcp)
        LDI	R31, (fl_ipcp) >> 8
        LD	R16, Z
        ORI	R16, 0x01
        ST	Z, R16
// 1147   fl_ip.act_ip_end=1;
        LDI	R30, LOW(fl_ip)
        LDI	R31, (fl_ip) >> 8
        LD	R16, Z
        ORI	R16, 0x01
        ST	Z, R16
// 1148   //!!!!!!!!!!!!!!!!!!!!!!!!!!!!!!!!!!!!!!!!!!!!!!!  
// 1149   
// 1150   UCSR0B=UCSR0B | RXEN; 
        LDS	R16, 193
        ORI	R16, 0x10
        STS	193, R16
// 1151   temp=UDR0;
        LDS	R16, 198
// 1152   UCSR0B=UCSR0B | RXCIE;  
        LDS	R16, 193
        ORI	R16, 0x80
        STS	193, R16
// 1153   
// 1154   cnt_stm_tm1=DEF_TM_STM_SCP; 
        LDI	R16, 30
        MOVW	R31:R30, R27:R26
        STD	Z+53, R16
// 1155 }     
        LD	R26, Y+
        CFI R26 SameValue
        CFI CFA_Y Y+1
        LD	R27, Y+
        CFI R27 SameValue
        CFI CFA_Y Y+0
        RET
        CFI EndBlock cfiBlock18
// 1156 
// 1157 
// 1158 
// 1159 
// 1160 
// 1161 
// 1162 
// 1163 
// 1164 
// 1165  //ďîäăîňîâęŕ áóôĺđŕ ę îňďđŕâęĺ ďî PPP 
// 1166  

        RSEG CODE:CODE:NOROOT(1)
// 1167 void form_buf_tx_ppp(void) 
form_buf_tx_ppp:
        CFI Block cfiBlock19 Using cfiCommon0
        CFI Function form_buf_tx_ppp
// 1168 {   
        FUNCALL form_buf_tx_ppp, crc_m1
        LOCFRAME CSTACK, 10, STACK
        LOCFRAME RSTACK, 2, STACK
        FUNCALL form_buf_tx_ppp, kodirovka
        LOCFRAME CSTACK, 10, STACK
        LOCFRAME RSTACK, 2, STACK
        FUNCALL form_buf_tx_ppp, calc_crc_ip
        LOCFRAME CSTACK, 10, STACK
        LOCFRAME RSTACK, 2, STACK
        FUNCALL form_buf_tx_ppp, calc_crc_udp_2
        LOCFRAME CSTACK, 10, STACK
        LOCFRAME RSTACK, 2, STACK
        FUNCALL form_buf_tx_ppp, pppfcs16
        LOCFRAME CSTACK, 10, STACK
        LOCFRAME RSTACK, 2, STACK
        CALL	?PROLOGUE6_L09
        CFI R5 Frame(CFA_Y, -1)
        CFI R4 Frame(CFA_Y, -2)
        CFI R27 Frame(CFA_Y, -3)
        CFI R26 Frame(CFA_Y, -4)
        CFI R25 Frame(CFA_Y, -5)
        CFI R24 Frame(CFA_Y, -6)
        CFI CFA_Y Y+6
        REQUIRE	?Register_R4_is_cg_reg
        REQUIRE	?Register_R5_is_cg_reg
        SBIW	R29:R28, 2
        CFI CFA_Y Y+8
// 1169 unsigned int i;
// 1170 unsigned char nopp,j;     
// 1171 unsigned char *pointer; 
// 1172 union
// 1173  {
// 1174  unsigned char bytes[2]; 
// 1175  unsigned int word;
// 1176  } temp;
// 1177 
// 1178  
// 1179  buf_tx_232[PPP_BEG]=0x7e;               
        LDI	R26, LOW(buf_tx_232)
        LDI	R27, (buf_tx_232) >> 8
        LDI	R16, 126
        ST	X, R16
// 1180  buf_tx_232[PPP_PROT]=0x21;
        LDI	R16, 33
        MOVW	R31:R30, R27:R26
        STD	Z+1, R16
// 1181                   
// 1182            //çŕăîëîâîę IP
// 1183   buf_tx_232[IP_VLEN]=0x45;               
        LDI	R16, 69
        STD	Z+2, R16
// 1184   buf_tx_232[IP_TYPE]=0;               
        LDI	R16, 0
        STD	Z+3, R16
// 1185   
// 1186    
// 1187   
// 1188   //îáůŕ˙ äëčíŕ IP 
// 1189   //20 -IP
// 1190   //8 -UDP
// 1191   //12 - Çŕăîëîâîę Äŕííűő
// 1192   //+ Äëčíŕ áóôĺđŕ îďöčé
// 1193   //+ Çŕďîëíčňĺëü
// 1194   //+ Äëčíŕ äŕííűő
// 1195   nopp=0;
        CLR	R4
// 1196   
// 1197   // Đŕń÷ĺň çŕďîëíčňĺë˙
// 1198   if(Obj_ppp_tx.prozr==FALSE)
        LDI	R24, LOW(Obj_ppp_tx)
        LDI	R25, (Obj_ppp_tx) >> 8
        MOVW	R31:R30, R25:R24
        LD	R16, Z
        TST	R16
        BRNE	??form_buf_tx_ppp_0
// 1199   {
// 1200    if((Obj_ppp_tx.l_opt<=4)&&(Obj_ppp_tx.l_opt>0))nopp=4-Obj_ppp_tx.l_opt;   
        LDD	R16, Z+10
        CPI	R16, 5
        BRCC	??form_buf_tx_ppp_1
        TST	R16
        BREQ	??form_buf_tx_ppp_1
        LDI	R17, 4
        MOV	R4, R17
        SUB	R4, R16
// 1201    if(Obj_ppp_tx.l_opt%4!=0) nopp=4-Obj_ppp_tx.l_opt%4;
??form_buf_tx_ppp_1:
        MOV	R17, R16
        ANDI	R17, 0x03
        BREQ	??form_buf_tx_ppp_2
        LDI	R18, 4
        MOV	R4, R18
        SUB	R4, R17
// 1202    temp.word=20+8+12+Obj_ppp_tx.l_opt+nopp+Obj_ppp_tx.l_data;
??form_buf_tx_ppp_2:
        MOV	R18, R16
        LDI	R19, 0
        MOV	R16, R4
        LDI	R17, 0
        ADD	R16, R18
        ADC	R17, R19
        SUBI	R16, 216
        SBCI	R17, 255
        LDD	R18, Z+14
        LDD	R19, Z+15
        ADD	R18, R16
        ADC	R19, R17
        ST	Y, R18
        STD	Y+1, R19
        RJMP	??form_buf_tx_ppp_3
// 1203   }else temp.word=20+8+Obj_ppp_tx.l_data;
??form_buf_tx_ppp_0:
        LDD	R16, Z+14
        LDD	R17, Z+15
        SUBI	R16, 228
        SBCI	R17, 255
        ST	Y, R16
        STD	Y+1, R17
// 1204    
// 1205   buf_tx_232[IP_LN]=temp.bytes[1]; //äëčíŕ IP ďŕęĺňŕ         ///////////////!!!!!!!!!!!!!!!!!      
??form_buf_tx_ppp_3:
        LDD	R16, Y+1
        MOVW	R31:R30, R27:R26
        STD	Z+4, R16
// 1206   buf_tx_232[IP_LN+1]=temp.bytes[0];                         ///////////////!!!!!!!!!!!!!!!!!
        LD	R16, Y
        STD	Z+5, R16
// 1207       
// 1208   buf_tx_232[IP_ID]=0;               
        LDI	R16, 0
        STD	Z+6, R16
// 1209   buf_tx_232[IP_ID+1]=0;
        STD	Z+7, R16
// 1210   
// 1211   buf_tx_232[IP_FUK]=0;               
        STD	Z+8, R16
// 1212   buf_tx_232[IP_FUK+1]=0; 
        STD	Z+9, R16
// 1213   buf_tx_232[IP_TIME]=0x80;    
        LDI	R16, 128
        STD	Z+10, R16
// 1214   buf_tx_232[IP_PROT]=0x11;     //UDP
        LDI	R16, 17
        STD	Z+11, R16
// 1215   
// 1216  // buf_tx_232[IP_CRC]=0;     
// 1217  // buf_tx_232[IP_CRC+1]=0; //IP - CRC
// 1218   *(unsigned int*)&buf_tx_232[IP_CRC]=0;
        LDI	R16, 0
        STD	Z+12, R16
        STD	Z+13, R16
// 1219      
// 1220   buf_tx_232[IP_SRC]=ip_self[0];
        LDI	R30, LOW(Appl_RS485_1)
        LDI	R31, (Appl_RS485_1) >> 8
        LDD	R16, Z+42
        MOVW	R31:R30, R27:R26
        STD	Z+14, R16
// 1221   buf_tx_232[IP_SRC+1]=ip_self[1]; 
        LDI	R30, LOW(Appl_RS485_1)
        LDI	R31, (Appl_RS485_1) >> 8
        LDD	R16, Z+43
        MOVW	R31:R30, R27:R26
        STD	Z+15, R16
// 1222   buf_tx_232[IP_SRC+2]=ip_self[2];    
        LDI	R30, LOW(Appl_RS485_1)
        LDI	R31, (Appl_RS485_1) >> 8
        LDD	R16, Z+44
        MOVW	R31:R30, R27:R26
        STD	Z+16, R16
// 1223   buf_tx_232[IP_SRC+3]=ip_self[3];
        LDI	R30, LOW(Appl_RS485_1)
        LDI	R31, (Appl_RS485_1) >> 8
        LDD	R16, Z+45
        MOVW	R31:R30, R27:R26
        STD	Z+17, R16
// 1224   
// 1225   buf_tx_232[IP_DST]=ip_ls[0]; 
        LDI	R16, LOW(Appl_seq)
        LDI	R17, (Appl_seq) >> 8
        MOVW	R31:R30, R17:R16
        LDD	R18, Z+44
        MOVW	R31:R30, R27:R26
        STD	Z+18, R18
// 1226   buf_tx_232[IP_DST+1]=ip_ls[1];    
        MOVW	R31:R30, R17:R16
        LDD	R18, Z+45
        MOVW	R31:R30, R27:R26
        STD	Z+19, R18
// 1227   buf_tx_232[IP_DST+2]=ip_ls[2]; 
        MOVW	R31:R30, R17:R16
        LDD	R18, Z+46
        MOVW	R31:R30, R27:R26
        STD	Z+20, R18
// 1228   buf_tx_232[IP_DST+3]=ip_ls[3];    
        MOVW	R31:R30, R17:R16
        LDD	R18, Z+47
        MOVW	R31:R30, R27:R26
        STD	Z+21, R18
// 1229                                 
// 1230  // buf_tx_232[18]=read_eeprom(ADR_IP_SRV);
// 1231  // buf_tx_232[19]=read_eeprom(ADR_IP_SRV+1);
// 1232  // buf_tx_232[20]=read_eeprom(ADR_IP_SRV+2);
// 1233   //buf_tx_232[21]=read_eeprom(ADR_IP_SRV+3);
// 1234                  
// 1235                                  
// 1236  //çŕăîëîâîę UDP
// 1237   //buf_tx_232[22]=UDP_PORT_H;
// 1238   //buf_tx_232[23]=UDP_PORT_L;
// 1239   //buf_tx_232[24]=UDP_PORT_H;
// 1240   //buf_tx_232[25]=UDP_PORT_L;       
// 1241   /*
// 1242   buf_tx_232[UDP_PSRC]=read_eeprom(ADR_UDP_PORT_HI);
// 1243   buf_tx_232[UDP_PSRC+1]=read_eeprom(ADR_UDP_PORT_LO);
// 1244   buf_tx_232[UDP_PDST]=read_eeprom(ADR_UDP_PORT_HI);
// 1245   buf_tx_232[UDP_PDST+1]=read_eeprom(ADR_UDP_PORT_LO);
// 1246   */
// 1247   buf_tx_232[UDP_PSRC]=port_udp>>8;
        SUBI	R16, 196
        SBCI	R17, 255
        MOVW	R31:R30, R17:R16
        LD	R18, Z
        LDD	R19, Z+1
        MOVW	R31:R30, R27:R26
        STD	Z+22, R19
// 1248   buf_tx_232[UDP_PSRC+1]=port_udp;
        STD	Z+23, R18
// 1249   buf_tx_232[UDP_PDST]=port_udp>>8;
        STD	Z+24, R19
// 1250   buf_tx_232[UDP_PDST+1]=port_udp;
        STD	Z+25, R18
// 1251   
// 1252   
// 1253     //îáůŕ˙ äëčíŕ UDP 
// 1254   
// 1255  // 8 -UDP
// 1256  // 12 - Çŕăîëîâîę Äŕííűő
// 1257  // + Äëčíŕ áóôĺđŕ îďöčé
// 1258  // + Çŕďîëíčňĺëü
// 1259  // + Äëčíŕ äŕííűő
// 1260    
// 1261  
// 1262    temp.word=temp.word-20;
        LD	R16, Y
        LDD	R17, Y+1
        SUBI	R16, 20
        SBCI	R17, 0
        ST	Y, R16
        STD	Y+1, R17
// 1263   
// 1264   buf_tx_232[UDP_LN]=temp.bytes[1]; ///////////////äëčíŕ UDP 
        LDD	R16, Y+1
        STD	Z+26, R16
// 1265   buf_tx_232[UDP_LN+1]=temp.bytes[0];        ////////////   
        LD	R16, Y
        STD	Z+27, R16
// 1266     
// 1267   //buf_tx_232[UDP_CRC]=0;        //ŃRŃ UDP ďŕęĺňŕ
// 1268   //buf_tx_232[UDP_CRC+1]=0;
// 1269   *(unsigned int*)&buf_tx_232[UDP_CRC]=0; 
        LDI	R16, 0
        STD	Z+28, R16
        STD	Z+29, R16
// 1270     
// 1271  if(Obj_ppp_tx.prozr==FALSE)
        MOVW	R31:R30, R25:R24
        LD	R16, Z
        TST	R16
        BREQ	$+2+2
        RJMP	??form_buf_tx_ppp_4
// 1272   {  
// 1273  //Ňđŕíńďîđňíűé çŕăîëîâîę
// 1274  //buf_tx_232[30]=0;        //CRC
// 1275  //buf_tx_232[31]=0; 
// 1276  //*(unsigned int*)&buf_tx_232[TR_CRC]=0;
// 1277                              
// 1278  temp.word=temp.word-8;                             
        LD	R16, Y
        LDD	R17, Y+1
        SUBI	R16, 8
        SBCI	R17, 0
        ST	Y, R16
        STD	Y+1, R17
// 1279  //buf_tx_232[32]=temp.bytes[1];        //ďîëíŕ˙ äëčíŕ
// 1280  //buf_tx_232[33]=temp.bytes[0];                 
// 1281  *(unsigned int*)&buf_tx_232[TR_LEN]=temp.word;
        LD	R16, Y
        LDD	R17, Y+1
        MOVW	R31:R30, R27:R26
        STD	Z+32, R16
        STD	Z+33, R17
// 1282  
// 1283 // buf_tx_232[34]=0;        //řčôđ
// 1284 // buf_tx_232[35]=0;              
// 1285  
// 1286   *(unsigned int*)&buf_tx_232[TR_KOD]=0;        
        LDI	R16, 0
        STD	Z+34, R16
        STD	Z+35, R16
// 1287           
// 1288  buf_tx_232[TR_V]=Obj_ppp_tx.version;                                     //âĺđńč˙
// 1289  buf_tx_232[TR_V]=(buf_tx_232[TR_V]<<2) | Obj_ppp_tx.type_pac;              // ňčď
// 1290  buf_tx_232[TR_V]=(buf_tx_232[TR_V]<<4) | ((12+Obj_ppp_tx.l_opt+nopp)/4);   // äëčíŕ ňđŕńďîđňíîăî çŕăîëîâęŕ
        MOVW	R31:R30, R25:R24
        LDD	R17, Z+1
        LSL	R17
        LSL	R17
        LDD	R16, Z+2
        OR	R16, R17
        SWAP	R16
        ANDI	R16, 0xF0
        MOV	R5, R16
        LDD	R18, Z+10
        LDI	R19, 0
        MOV	R16, R4
        LDI	R17, 0
        ADD	R16, R18
        ADC	R17, R19
        SUBI	R16, 244
        SBCI	R17, 255
        LDI	R20, 4
        LDI	R21, 0
        CALL	?SS_DIVMOD_L02
        OR	R16, R5
        MOVW	R31:R30, R27:R26
        STD	Z+36, R16
// 1291     
// 1292  
// 1293  buf_tx_232[TR_ID]=Obj_ppp_tx.id_pac; 
        MOVW	R31:R30, R25:R24
        LDD	R16, Z+7
        MOVW	R31:R30, R27:R26
        STD	Z+37, R16
// 1294  
// 1295    *(unsigned int*)&buf_tx_232[TR_SRC]=Obj_ppp_tx.num_src;   //íîěĺđ îňďđŕâčňĺë˙
        MOVW	R31:R30, R25:R24
        LDD	R16, Z+3
        LDD	R17, Z+4
        MOVW	R31:R30, R27:R26
        STD	Z+30, R16
        STD	Z+31, R17
// 1296    *(unsigned int*)&buf_tx_232[TR_DST]=Obj_ppp_tx.num_dst;   //íîěĺđ ďîëó÷ŕňĺë˙ 
        MOVW	R31:R30, R25:R24
        LDD	R16, Z+5
        LDD	R17, Z+6
        MOVW	R31:R30, R27:R26
        STD	Z+40, R16
        STD	Z+41, R17
// 1297  
// 1298            
// 1299  pointer=&buf_tx_232[TR_OP_DATA];         
        MOVW	R17:R16, R27:R26
        SUBI	R16, 214
        SBCI	R17, 255
// 1300   
// 1301  //Çŕáčâęŕ îďöčč č çŕďîëíčňĺë˙
// 1302  if(Obj_ppp_tx.l_opt!=0)
        MOVW	R31:R30, R25:R24
        LDD	R18, Z+10
        TST	R18
        BREQ	??form_buf_tx_ppp_5
// 1303  {
// 1304   for(j=0;j<Obj_ppp_tx.l_opt;j++)
        LDI	R20, 0
        RJMP	??form_buf_tx_ppp_6
// 1305       {
// 1306        *pointer=*Obj_ppp_tx.p_opt;
??form_buf_tx_ppp_7:
        LDD	R18, Z+8
        LDD	R19, Z+9
        MOVW	R31:R30, R19:R18
        LD	R18, Z
        MOVW	R31:R30, R17:R16
        ST	Z+, R18
        MOVW	R17:R16, R31:R30
// 1307        pointer++;
// 1308        Obj_ppp_tx.p_opt++;
        MOVW	R31:R30, R25:R24
        LDD	R18, Z+8
        LDD	R19, Z+9
        SUBI	R18, 255
        SBCI	R19, 255
        STD	Z+8, R18
        STD	Z+9, R19
// 1309       }   
        INC	R20
??form_buf_tx_ppp_6:
        LDD	R18, Z+10
        CP	R20, R18
        BRCS	??form_buf_tx_ppp_7
// 1310   if(nopp!=0)
        TST	R4
        BREQ	??form_buf_tx_ppp_5
// 1311      for(j=0;j<nopp;j++)
        LDI	R20, 0
        RJMP	??form_buf_tx_ppp_8
// 1312         {
// 1313         *pointer=NOPPER;
??form_buf_tx_ppp_9:
        LDI	R18, 0
        MOVW	R31:R30, R17:R16
        ST	Z+, R18
        MOVW	R17:R16, R31:R30
// 1314         pointer++; 
// 1315         }     
        INC	R20
??form_buf_tx_ppp_8:
        CP	R20, R4
        BRCS	??form_buf_tx_ppp_9
// 1316  }
// 1317    
// 1318  //Çŕáčâęŕ äŕííűő   
// 1319  for(i=0;i<Obj_ppp_tx.l_data;i++)
??form_buf_tx_ppp_5:
        CLR	R4
        CLR	R5
        RJMP	??form_buf_tx_ppp_10
// 1320      {
// 1321        *pointer=*Obj_ppp_tx.p_data;
??form_buf_tx_ppp_11:
        LDD	R18, Z+12
        LDD	R19, Z+13
        MOVW	R31:R30, R19:R18
        LD	R18, Z
        MOVW	R31:R30, R17:R16
        ST	Z+, R18
        MOVW	R17:R16, R31:R30
// 1322        pointer++;
// 1323        Obj_ppp_tx.p_data++;
        MOVW	R31:R30, R25:R24
        LDD	R18, Z+12
        LDD	R19, Z+13
        SUBI	R18, 255
        SBCI	R19, 255
        STD	Z+12, R18
        STD	Z+13, R19
// 1324       }   
        LDI	R18, 1
        ADD	R4, R18
        LDI	R18, 0
        ADC	R5, R18
??form_buf_tx_ppp_10:
        MOVW	R31:R30, R25:R24
        LDD	R18, Z+14
        LDD	R19, Z+15
        CP	R4, R18
        CPC	R5, R19
        BRCS	??form_buf_tx_ppp_11
// 1325  
// 1326    //crc
// 1327   *(unsigned int*)&buf_tx_232[TR_KOD]=0;
        LDI	R16, 0
        MOVW	R31:R30, R27:R26
        STD	Z+34, R16
        STD	Z+35, R16
// 1328  
// 1329   *(unsigned int*)&buf_tx_232[TR_CRC]=0;
        STD	Z+38, R16
        STD	Z+39, R16
// 1330   *(unsigned int*)&buf_tx_232[TR_CRC]=crc_m1(&buf_tx_232[TR_SRC],*(unsigned int*)&buf_tx_232[TR_LEN],0xffff);
        LDI	R20, 255
        LDI	R21, 255
        LDD	R18, Z+32
        LDD	R19, Z+33
        MOVW	R17:R16, R27:R26
        SUBI	R16, 226
        SBCI	R17, 255
        RCALL	crc_m1
        MOVW	R31:R30, R27:R26
        STD	Z+38, R16
        STD	Z+39, R17
// 1331  
// 1332 
// 1333    kodirovka(*(unsigned int*)&buf_tx_232[TR_LEN]);
        LDD	R16, Z+32
        LDD	R17, Z+33
        CALL	kodirovka
        RJMP	??form_buf_tx_ppp_12
// 1334   
// 1335    
// 1336   }
// 1337   else 
// 1338   {
// 1339   
// 1340   pointer=&buf_tx_232[TR_SRC];   
??form_buf_tx_ppp_4:
        MOVW	R17:R16, R27:R26
        SUBI	R16, 226
        SBCI	R17, 255
// 1341   for(i=0;i<Obj_ppp_tx.l_data;i++)
        CLR	R4
        CLR	R5
        RJMP	??form_buf_tx_ppp_13
// 1342      {
// 1343        *pointer=*Obj_ppp_tx.p_data;
??form_buf_tx_ppp_14:
        LDD	R18, Z+12
        LDD	R19, Z+13
        MOVW	R31:R30, R19:R18
        LD	R18, Z
        MOVW	R31:R30, R17:R16
        ST	Z+, R18
        MOVW	R17:R16, R31:R30
// 1344        pointer++;
// 1345        Obj_ppp_tx.p_data++;
        MOVW	R31:R30, R25:R24
        LDD	R18, Z+12
        LDD	R19, Z+13
        SUBI	R18, 255
        SBCI	R19, 255
        STD	Z+12, R18
        STD	Z+13, R19
// 1346       }   
        LDI	R18, 1
        ADD	R4, R18
        LDI	R18, 0
        ADC	R5, R18
??form_buf_tx_ppp_13:
        LDD	R18, Z+14
        LDD	R19, Z+15
        CP	R4, R18
        CPC	R5, R19
        BRCS	??form_buf_tx_ppp_14
// 1347    } 
// 1348     
// 1349    
// 1350    
// 1351  // temp.word=calc_crc_ip(&buf_tx_232[2],20);
// 1352  // buf_tx_232[12]=temp.bytes[0]; 
// 1353  // buf_tx_232[13]=temp.bytes[1];  
// 1354   
// 1355  
// 1356   
// 1357   
// 1358  
// 1359   *(unsigned int*)&buf_tx_232[IP_CRC]=calc_crc_ip(&buf_tx_232[IP_VLEN],20); 
??form_buf_tx_ppp_12:
        LDI	R18, 20
        LDI	R19, 0
        MOVW	R17:R16, R27:R26
        SUBI	R16, 254
        SBCI	R17, 255
        CALL	calc_crc_ip
        MOVW	R31:R30, R27:R26
        STD	Z+12, R16
        STD	Z+13, R17
// 1360   
// 1361 
// 1362   temp.bytes[1]=buf_tx_232[UDP_LN]; ///////////////äëčíŕ UDP 
        LDD	R16, Z+26
        STD	Y+1, R16
// 1363   temp.bytes[0]=buf_tx_232[UDP_LN+1];    
        LDD	R16, Z+27
        ST	Y, R16
// 1364   
// 1365  // *(unsigned int*)&buf_tx_232[UDP_CRC]=calc_crc_udp(&buf_tx_232[UDP_PSRC],temp.word);
// 1366   *(unsigned int*)&buf_tx_232[UDP_CRC]=calc_crc_udp_2(&buf_tx_232[0],temp.word);
        LD	R18, Y
        LDD	R19, Y+1
        MOVW	R17:R16, R27:R26
        CALL	calc_crc_udp_2
        MOVW	R31:R30, R27:R26
        STD	Z+28, R16
        STD	Z+29, R17
// 1367 
// 1368   
// 1369   i=buf_tx_232[IP_LN];
// 1370   i=(i<<8)+buf_tx_232[IP_LN+1];  //äëčíŕ IP ďŕęĺňŕ         ///////////////!!!!!!!!!!!!!!!!!  
// 1371   i=i+5;                  //äëčíŕ PPP ďŕęĺňŕ         ///////////////!!!!!!!!!!!!!!!!! 
        LDD	R17, Z+4
        LDI	R16, 0
        LDD	R4, Z+5
        CLR	R5
        ADD	R4, R16
        ADC	R5, R17
        LDI	R16, 5
        ADD	R4, R16
        LDI	R16, 0
        ADC	R5, R16
// 1372                            
// 1373   temp.word=pppfcs16(PPPINITFCS16,&buf_tx_232[PPP_PROT],i-4) ^ 0xffff;    // //äëčíŕ IP+1 ň.ĺ   
        MOVW	R21:R20, R5:R4
        SUBI	R20, 4
        SBCI	R21, 0
        MOVW	R19:R18, R27:R26
        SUBI	R18, 255
        SBCI	R19, 255
        LDI	R16, 255
        LDI	R17, 255
        CALL	pppfcs16
        LDI	R18, 255
        LDI	R19, 255
        EOR	R18, R16
        EOR	R19, R17
        ST	Y, R18
        STD	Y+1, R19
// 1374   buf_tx_232[i-3]=temp.bytes[0];
        ADD	R26, R4
        ADC	R27, R5
        SBIW	R27:R26, 3
        MOVW	R31:R30, R27:R26
        LD	R16, Y
        ST	Z, R16
// 1375   buf_tx_232[i-2]=temp.bytes[1];                 
        LDD	R16, Y+1
        STD	Z+1, R16
// 1376   buf_tx_232[i-1]=0x7e;  
        LDI	R16, 126
        STD	Z+2, R16
// 1377   
// 1378   vol_tx_ppp=i;
        LDI	R30, LOW(vol_tx_ppp)
        LDI	R31, (vol_tx_ppp) >> 8
        ST	Z, R4
        STD	Z+1, R5
// 1379   count_tx_ppp=0;                
        LDI	R16, 0
        LDI	R30, LOW(Appl_RS485_1)
        LDI	R31, (Appl_RS485_1) >> 8
        STD	Z+46, R16
        STD	Z+47, R16
// 1380   
// 1381    
// 1382 } 
        ADIW	R29:R28, 2
        CFI CFA_Y Y+6
        LDI	R30, 6
        JMP	?EPILOGUE_B6_L09
        CFI EndBlock cfiBlock19
// 1383 
// 1384 
// 1385 
// 1386 
// 1387 
// 1388 
// 1389 
// 1390 
// 1391 
// 1392 
// 1393 
// 1394 
// 1395 
// 1396 

        RSEG CODE:CODE:NOROOT(1)
// 1397   void clr_cntr_link_2(void)
clr_cntr_link_2:
        CFI Block cfiBlock20 Using cfiCommon0
        CFI Function clr_cntr_link_2
// 1398  {
// 1399  Control.link_waits=FALSE;
        LDI	R30, LOW(Appl_seq)
        LDI	R31, (Appl_seq) >> 8
        LDI	R16, 0
        STD	Z+27, R16
// 1400  Control.link=FALSE;
        STD	Z+28, R16
// 1401  Control.cnt_link=Control.vol_link;
        LDD	R16, Z+34
        LDD	R17, Z+35
        STD	Z+30, R16
        STD	Z+31, R17
// 1402  Control.cnt_try=0;
        LDI	R16, 0
        STD	Z+40, R16
// 1403  Control.link_no=FALSE;
        STD	Z+26, R16
// 1404  } 
        RET
        CFI EndBlock cfiBlock20
// 1405  
// 1406  
// 1407  

        RSEG CODE:CODE:NOROOT(1)
// 1408  void clr_cntr_link(void)
clr_cntr_link:
        CFI Block cfiBlock21 Using cfiCommon0
        CFI Function clr_cntr_link
// 1409  {
        MOVW	R21:R20, R27:R26
// 1410  if(Control.link_waits==FALSE)
        LDI	R30, LOW(Appl_seq)
        LDI	R31, (Appl_seq) >> 8
        LDD	R16, Z+27
        TST	R16
        BRNE	??clr_cntr_link_0
// 1411  {
// 1412  cnt_no_link=vol_cnt_no_link;//dobavka
        LDD	R16, Z+48
        LDD	R17, Z+49
        LDD	R18, Z+50
        LDD	R19, Z+51
        LDI	R26, LOW(cnt_no_link)
        LDI	R27, (cnt_no_link) >> 8
        ST	X+, R16
        ST	X+, R17
        ST	X+, R18
        ST	X, R19
// 1413  Control.link=FALSE;
        LDI	R16, 0
        STD	Z+28, R16
// 1414  Control.cnt_link=Control.vol_link;
        LDD	R16, Z+34
        LDD	R17, Z+35
        STD	Z+30, R16
        STD	Z+31, R17
// 1415  }
// 1416  } 
??clr_cntr_link_0:
        MOVW	R27:R26, R21:R20
        RET
        CFI EndBlock cfiBlock21
// 1417   
// 1418   
// 1419 
// 1420 
// 1421 

        RSEG CODE:CODE:NOROOT(1)
// 1422 void monitor_rst(void)
monitor_rst:
        CFI Block cfiBlock22 Using cfiCommon0
        CFI Function monitor_rst
// 1423 {
        FUNCALL monitor_rst, send_info
        LOCFRAME CSTACK, 13, STACK
        LOCFRAME RSTACK, 2, STACK
        FUNCALL monitor_rst, write_log_info
        LOCFRAME CSTACK, 13, STACK
        LOCFRAME RSTACK, 2, STACK
        FUNCALL monitor_rst, burst_ds_r
        LOCFRAME CSTACK, 13, STACK
        LOCFRAME RSTACK, 2, STACK
        FUNCALL monitor_rst, write_to_buf
        LOCFRAME CSTACK, 21, STACK
        LOCFRAME RSTACK, 2, STACK
        FUNCALL monitor_rst, write_log_info
        LOCFRAME CSTACK, 13, STACK
        LOCFRAME RSTACK, 2, STACK
        FUNCALL monitor_rst, send_info
        LOCFRAME CSTACK, 13, STACK
        LOCFRAME RSTACK, 2, STACK
        FUNCALL monitor_rst, write_log_info
        LOCFRAME CSTACK, 13, STACK
        LOCFRAME RSTACK, 2, STACK
        FUNCALL monitor_rst, send_info
        LOCFRAME CSTACK, 13, STACK
        LOCFRAME RSTACK, 2, STACK
        FUNCALL monitor_rst, write_log_info
        LOCFRAME CSTACK, 13, STACK
        LOCFRAME RSTACK, 2, STACK
        FUNCALL monitor_rst, send_info
        LOCFRAME CSTACK, 13, STACK
        LOCFRAME RSTACK, 2, STACK
        FUNCALL monitor_rst, burst_ds_r
        LOCFRAME CSTACK, 13, STACK
        LOCFRAME RSTACK, 2, STACK
        FUNCALL monitor_rst, write_to_buf
        LOCFRAME CSTACK, 21, STACK
        LOCFRAME RSTACK, 2, STACK
        CALL	?PROLOGUE4_L09
        CFI R27 Frame(CFA_Y, -1)
        CFI R26 Frame(CFA_Y, -2)
        CFI R25 Frame(CFA_Y, -3)
        CFI R24 Frame(CFA_Y, -4)
        CFI CFA_Y Y+4
        SBIW	R29:R28, 9
        CFI CFA_Y Y+13
// 1424 unsigned char buf[9];
// 1425 
// 1426 
// 1427 if((MCUSR & 0x01)==0x01)
        LDI	R24, LOW(Appl_seq)
        LDI	R25, (Appl_seq) >> 8
        LDI	R26, LOW(Appl_RS485_1)
        LDI	R27, (Appl_RS485_1) >> 8
        IN	R16, 0x34
        MOV	R17, R16
        SBRS	R17, 0
        RJMP	??monitor_rst_0
// 1428 {
// 1429 
// 1430 
// 1431 simka=SIM_RES; //dobavka
        LDI	R16, 1
        STS	simka, R16
// 1432 Fl_ch_sim=1;  //dobavka
        MOVW	R31:R30, R27:R26
        STD	Z+54, R16
// 1433   
// 1434 send_info(sizeof(evc_pwr),evc_pwr,0,0); 
        LDI	R20, 0
        LDI	R17, 0
        LDI	R18, LOW((evc_wdr + 21))
        LDI	R19, HIGH((evc_wdr + 21))
        LDI	R16, 7
        CALL	send_info
// 1435 write_log_info(ST_PIT_ON,RESET_POWER);
        LDI	R17, 1
        LDI	R16, 1
        CALL	write_log_info
// 1436 
// 1437 if (Appl_seq_des==1){MCUSR=0;return;}// áëîęčđîâęŕ 
        MOVW	R31:R30, R25:R24
        ADIW	R31:R30, 62
        LD	R16, Z
        CPI	R16, 1
        BRNE	??monitor_rst_1
??monitor_rst_2:
        LDI	R16, 0
        OUT	0x34, R16
        ADIW	R29:R28, 9
        CFI CFA_Y Y+4
        LDI	R30, 4
        JMP	?EPILOGUE_B4_L09
        CFI CFA_Y Y+13
// 1438 
// 1439 buf[0]=COOL_RESET;
??monitor_rst_1:
        LDI	R16, 2
        ST	Y, R16
// 1440 *(unsigned int*)&buf[1]=L_COOL_RESET;
        LDI	R16, 4
        LDI	R17, 0
        STD	Y+1, R16
        STD	Y+2, R17
// 1441 *(unsigned long int*)&buf[3]=burst_ds_r();
        CALL	burst_ds_r
        STD	Y+3, R16
        STD	Y+4, R17
        STD	Y+5, R18
        STD	Y+6, R19
// 1442 if(write_to_buf(&Appl_seq_buf[0],&Appl_seq.p_in,&Appl_seq.p_out,&Appl_seq.p_out_kv,&Appl_seq.crc,&buf[0],L_COOL_RESET+3, sizeof(Appl_seq_buf))==1)
        LDI	R16, 200
        LDI	R17, 0
        ST	-Y, R17
        CFI CFA_Y Y+14
        ST	-Y, R16
        CFI CFA_Y Y+15
        LDI	R16, 7
        ST	-Y, R17
        CFI CFA_Y Y+16
        ST	-Y, R16
        CFI CFA_Y Y+17
        MOVW	R17:R16, R29:R28
        SUBI	R16, 252
        SBCI	R17, 255
        ST	-Y, R17
        CFI CFA_Y Y+18
        ST	-Y, R16
        CFI CFA_Y Y+19
        MOVW	R17:R16, R25:R24
        SUBI	R16, 249
        SBCI	R17, 255
        ST	-Y, R17
        CFI CFA_Y Y+20
        ST	-Y, R16
        CFI CFA_Y Y+21
        MOVW	R23:R22, R25:R24
        SUBI	R22, 251
        SBCI	R23, 255
        MOVW	R21:R20, R25:R24
        SUBI	R20, 253
        SBCI	R21, 255
        ADIW	R25:R24, 1
        MOVW	R19:R18, R25:R24
        LDI	R16, LOW(Appl_seq_buf)
        LDI	R17, (Appl_seq_buf) >> 8
        CALL	write_to_buf
        CFI CFA_Y Y+13
        CPI	R16, 1
        BRNE	??monitor_rst_2
// 1443    {
// 1444    fl_appl_seq1.over_buf=1;
??monitor_rst_3:
        ADIW	R27:R26, 60
        LD	R16, X
        ORI	R16, 0x01
        ST	X, R16
        RJMP	??monitor_rst_2
// 1445    }
// 1446 
// 1447 }
// 1448 else
// 1449 {
// 1450 
// 1451 if(simka>1)  {simka=SIM_RES; Fl_ch_sim=1;}  //dobavka
??monitor_rst_0:
        LDS	R16, simka
        CPI	R16, 2
        BRCS	??monitor_rst_4
        LDI	R16, 1
        STS	simka, R16
        MOVW	R31:R30, R27:R26
        STD	Z+54, R16
// 1452   
// 1453 if((MCUSR & 0x02)==0x02){write_log_info(ST_PIT_ON,RESET_EXT);send_info(sizeof(evc_rst),evc_rst,0,0);}
??monitor_rst_4:
        IN	R16, 0x34
        MOV	R17, R16
        SBRS	R17, 1
        RJMP	??monitor_rst_5
        LDI	R17, 2
        LDI	R16, 1
        CALL	write_log_info
        LDI	R20, 0
        LDI	R17, 0
        LDI	R18, LOW((evc_wdr + 14))
        LDI	R19, HIGH((evc_wdr + 14))
        LDI	R16, 7
        CALL	send_info
// 1454 if((MCUSR & 0x04)==0x04){write_log_info(ST_PIT_ON,RESET_BROWN);send_info(sizeof(evc_bod),evc_bod,0,0);}
??monitor_rst_5:
        IN	R16, 0x34
        MOV	R17, R16
        SBRS	R17, 2
        RJMP	??monitor_rst_6
        LDI	R17, 3
        LDI	R16, 1
        CALL	write_log_info
        LDI	R20, 0
        LDI	R17, 0
        LDI	R18, LOW((evc_wdr + 7))
        LDI	R19, HIGH((evc_wdr + 7))
        LDI	R16, 7
        CALL	send_info
// 1455 if((MCUSR & 0x08)==0x08){write_log_info(ST_PIT_ON,RESET_WDR);send_info(sizeof(evc_wdr),evc_wdr,0,0);}
??monitor_rst_6:
        IN	R16, 0x34
        MOV	R17, R16
        SBRS	R17, 3
        RJMP	??monitor_rst_7
        LDI	R17, 4
        LDI	R16, 1
        CALL	write_log_info
        LDI	R20, 0
        LDI	R17, 0
        LDI	R18, LOW(evc_wdr)
        LDI	R19, (evc_wdr) >> 8
        LDI	R16, 7
        CALL	send_info
// 1456 
// 1457 if (Appl_seq_des==1){MCUSR=0;return;}// áëîęčđîâęŕ 
??monitor_rst_7:
        MOVW	R31:R30, R25:R24
        ADIW	R31:R30, 62
        LD	R16, Z
        CPI	R16, 1
        BRNE	$+2+2
        RJMP	??monitor_rst_2
// 1458 
// 1459 buf[0]=HOT_RESET;
        LDI	R16, 3
        ST	Y, R16
// 1460 *(unsigned int*)&buf[1]=L_HOT_RESET;
        LDI	R16, 6
        LDI	R17, 0
        STD	Y+1, R16
        STD	Y+2, R17
// 1461 *(unsigned long int*)&buf[3]=burst_ds_r();
        CALL	burst_ds_r
        STD	Y+3, R16
        STD	Y+4, R17
        STD	Y+5, R18
        STD	Y+6, R19
// 1462 if((MCUSR & 0x02)==0x02)buf[7]=RST_EXT;
        IN	R16, 0x34
        MOV	R17, R16
        SBRS	R17, 1
        RJMP	??monitor_rst_8
        LDI	R16, 0
        STD	Y+7, R16
// 1463 if((MCUSR & 0x04)==0x04)buf[7]=RST_BROWN;
??monitor_rst_8:
        IN	R16, 0x34
        MOV	R17, R16
        SBRS	R17, 2
        RJMP	??monitor_rst_9
        LDI	R16, 1
        STD	Y+7, R16
// 1464 if((MCUSR & 0x08)==0x08)buf[7]=RST_WDR;
??monitor_rst_9:
        IN	R16, 0x34
        MOV	R17, R16
        SBRS	R17, 3
        RJMP	??monitor_rst_10
        LDI	R16, 2
        STD	Y+7, R16
// 1465 buf[8]=0;
??monitor_rst_10:
        LDI	R16, 0
        STD	Y+8, R16
// 1466 if(write_to_buf(&Appl_seq_buf[0],&Appl_seq.p_in,&Appl_seq.p_out,&Appl_seq.p_out_kv,&Appl_seq.crc,&buf[0],L_HOT_RESET+3, sizeof(Appl_seq_buf))==1)
        LDI	R16, 200
        LDI	R17, 0
        ST	-Y, R17
        CFI CFA_Y Y+14
        ST	-Y, R16
        CFI CFA_Y Y+15
        LDI	R16, 9
        ST	-Y, R17
        CFI CFA_Y Y+16
        ST	-Y, R16
        CFI CFA_Y Y+17
        MOVW	R17:R16, R29:R28
        SUBI	R16, 252
        SBCI	R17, 255
        ST	-Y, R17
        CFI CFA_Y Y+18
        ST	-Y, R16
        CFI CFA_Y Y+19
        MOVW	R17:R16, R25:R24
        SUBI	R16, 249
        SBCI	R17, 255
        ST	-Y, R17
        CFI CFA_Y Y+20
        ST	-Y, R16
        CFI CFA_Y Y+21
        MOVW	R23:R22, R25:R24
        SUBI	R22, 251
        SBCI	R23, 255
        MOVW	R21:R20, R25:R24
        SUBI	R20, 253
        SBCI	R21, 255
        ADIW	R25:R24, 1
        MOVW	R19:R18, R25:R24
        LDI	R16, LOW(Appl_seq_buf)
        LDI	R17, (Appl_seq_buf) >> 8
        CALL	write_to_buf
        CFI CFA_Y Y+13
        CPI	R16, 1
        BREQ	$+2+2
        RJMP	??monitor_rst_2
        RJMP	??monitor_rst_3
        CFI EndBlock cfiBlock22
// 1467    {
// 1468    fl_appl_seq1.over_buf=1;
// 1469    }
// 1470 }
// 1471 
// 1472 MCUSR=0;
// 1473 } 
// 1474 
// 1475 
// 1476 /*
// 1477 void monitor_over_net(void)
// 1478    {        
// 1479      unsigned char buf[9];
// 1480     
// 1481      if (Appl_seq_des==1)return;// áëîęčđîâęŕ îďđîńŕ îőđŕíęč     
// 1482      if(count_block_net!=0)return;//áëîęčđîâęŕ ěîíčňîđŕ   
// 1483      if (((PINA & TCC2)&&(byte_state_net==YES_NET))|| (((PINA & TCC2)==0)&&(byte_state_net==NO_NET)))
// 1484           {
// 1485             if(byte_state_net==YES_NET) {byte_state_net=NO_NET;send_info(sizeof(evc_feed_akb),evc_feed_akb,0,0);}
// 1486             else {byte_state_net=YES_NET;send_info(sizeof(evc_feed_220),evc_feed_220,0,0);}
// 1487             count_block_net=3;
// 1488             buf[0]=AKB_SET;
// 1489             *(unsigned int*)&buf[1]=L_AKB_SET;
// 1490             *(unsigned long int*)&buf[3]=burst_ds_r();
// 1491             buf[7]=byte_state_net;
// 1492             buf[8]=0; 
// 1493             if(write_to_buf(&Appl_seq_buf[0],&Appl_seq.p_in,&Appl_seq.p_out,&Appl_seq.p_out_kv,&Appl_seq.crc,&buf[0],L_AKB_SET+3, sizeof(Appl_seq_buf))==1)
// 1494                          {
// 1495                          fl_appl_seq1.over_buf=1;
// 1496                          } 
// 1497            
// 1498           }
// 1499    
// 1500    }
// 1501 
// 1502 */
// 1503 
// 1504 
// 1505  
// 1506  

        RSEG CODE:CODE:NOROOT(1)
// 1507 void monitor_beg_state_seq(unsigned char zad)
monitor_beg_state_seq:
        CFI Block cfiBlock23 Using cfiCommon0
        CFI Function monitor_beg_state_seq
// 1508 {
        FUNCALL monitor_beg_state_seq, delay
        LOCFRAME CSTACK, 16, STACK
        LOCFRAME RSTACK, 2, STACK
        FUNCALL monitor_beg_state_seq, delay
        LOCFRAME CSTACK, 16, STACK
        LOCFRAME RSTACK, 2, STACK
        FUNCALL monitor_beg_state_seq, burst_ds_r
        LOCFRAME CSTACK, 16, STACK
        LOCFRAME RSTACK, 2, STACK
        FUNCALL monitor_beg_state_seq, send_info
        LOCFRAME CSTACK, 16, STACK
        LOCFRAME RSTACK, 2, STACK
        FUNCALL monitor_beg_state_seq, write_to_buf
        LOCFRAME CSTACK, 24, STACK
        LOCFRAME RSTACK, 2, STACK
        CALL	?PROLOGUE4_L09
        CFI R27 Frame(CFA_Y, -1)
        CFI R26 Frame(CFA_Y, -2)
        CFI R25 Frame(CFA_Y, -3)
        CFI R24 Frame(CFA_Y, -4)
        CFI CFA_Y Y+4
        SBIW	R29:R28, 10
        CFI CFA_Y Y+14
// 1509    // çäĺńü äîëćíŕ áűňü ďŕóçŕ ÷ňîáű îďđĺäĺëčëčńü ňĺęóůčĺ ŇŃ
// 1510  unsigned char buf[10];
// 1511  unsigned char i=0;
        LDI	R26, 0
// 1512 
// 1513  
// 1514  if(zad==0)
        LDI	R24, LOW(struct_tcc2)
        LDI	R25, (struct_tcc2) >> 8
        TST	R16
        BRNE	??monitor_beg_state_seq_0
        RJMP	??monitor_beg_state_seq_1
// 1515  {
// 1516    while(i<200) //400 ěńĺę
// 1517    {
// 1518    __watchdog_reset();
??monitor_beg_state_seq_2:
        WDR
// 1519    delay(16000);//1mcek
        LDI	R16, 128
        LDI	R17, 62
        CALL	delay
// 1520    delay(16000);//1mcek
        LDI	R16, 128
        LDI	R17, 62
        CALL	delay
// 1521    i++;
        INC	R26
// 1522    }
??monitor_beg_state_seq_1:
        CPI	R26, 200
        BRCS	??monitor_beg_state_seq_2
// 1523   struct_tcc1.real_tc=0x01 & (~struct_tcc1.tek_pin);
        LDI	R30, LOW(struct_tcc1)
        LDI	R31, (struct_tcc1) >> 8
        LD	R16, Z
        ANDI	R16, 0x01
        COM	R16
        ANDI	R16, 0x01
        STD	Z+1, R16
// 1524   struct_tcc2.real_tc=0x01 & (~struct_tcc2.tek_pin);
        MOVW	R31:R30, R25:R24
        LD	R16, Z
        ANDI	R16, 0x01
        COM	R16
        ANDI	R16, 0x01
        STD	Z+1, R16
// 1525  }
// 1526  
// 1527  
// 1528            
// 1529               sv1.tc=struct_tcc1.real_tc;
??monitor_beg_state_seq_0:
        LDI	R30, LOW(struct_tcc1)
        LDI	R31, (struct_tcc1) >> 8
        LDD	R16, Z+1
        ANDI	R16, 0x01
        LDI	R30, LOW(state_seq)
        LDI	R31, (state_seq) >> 8
        BST	R16, 0
        LDD	R16, Z+1
        BLD	R16, 0
        STD	Z+1, R16
// 1530               sv1.tc_old=sv1.tc;
        LDD	R16, Z+1
        ANDI	R16, 0x01
        BST	R16, 0
        LDD	R16, Z+1
        BLD	R16, 1
        STD	Z+1, R16
// 1531               sv2.tc=struct_tcc2.real_tc;
        MOVW	R31:R30, R25:R24
        LDD	R16, Z+1
        ANDI	R16, 0x01
        LDI	R30, LOW(state_seq)
        LDI	R31, (state_seq) >> 8
        BST	R16, 0
        LDD	R16, Z+2
        BLD	R16, 0
        STD	Z+2, R16
// 1532               sv2.tc_old=sv2.tc;
        LDD	R16, Z+2
        ANDI	R16, 0x01
        BST	R16, 0
        LDD	R16, Z+2
        BLD	R16, 1
        STD	Z+2, R16
// 1533               
// 1534             
// 1535 if (Appl_seq_des==1)return;// áëîęčđîâęŕ ńîîáůäĺíčé            
        LDI	R26, LOW(Appl_seq)
        LDI	R27, (Appl_seq) >> 8
        MOVW	R31:R30, R27:R26
        ADIW	R31:R30, 62
        LD	R16, Z
        CPI	R16, 1
        BRNE	$+2+2
        RJMP	??monitor_beg_state_seq_3
// 1536 
// 1537 
// 1538 buf[0]=SEQ_STATE;
        LDI	R16, 6
        ST	Y, R16
// 1539 *(unsigned int*)&buf[1]=L_STATE;
        LDI	R16, 7
        LDI	R17, 0
        STD	Y+1, R16
        STD	Y+2, R17
// 1540 *(unsigned long int*)&buf[3]=burst_ds_r();
        CALL	burst_ds_r
        STD	Y+3, R16
        STD	Y+4, R17
        STD	Y+5, R18
        STD	Y+6, R19
// 1541 
// 1542 switch (struct_tcc1.type)
        LDI	R30, LOW(struct_tcc1)
        LDI	R31, (struct_tcc1) >> 8
        LDD	R16, Z+4
        SUBI	R16, 1
        BREQ	??monitor_beg_state_seq_4
        DEC	R16
        BREQ	??monitor_beg_state_seq_5
        RJMP	??monitor_beg_state_seq_6
// 1543 {
// 1544 case TC_SUHOI:
// 1545             struct_tcc1.cnt_block_tc=VOL_BLOCK_TC;
??monitor_beg_state_seq_4:
        LDI	R16, 3
        STD	Z+5, R16
// 1546             buf[7]=DES_SEQ;
        LDI	R16, 255
        RJMP	??monitor_beg_state_seq_7
// 1547             buf[8]=sv1.tc & 0x01;
// 1548             break;
// 1549 case TC_SHL:
// 1550             if(sv1.tc & 0x01)
??monitor_beg_state_seq_5:
        LDI	R30, LOW(state_seq)
        LDI	R31, (state_seq) >> 8
        LDD	R16, Z+1
        SBRS	R16, 0
        RJMP	??monitor_beg_state_seq_8
// 1551                 {
// 1552               //   send_info(sizeof(evc_taken),evc_taken,0,0);
// 1553                  Appl_seq.event=EV_TC_NORMA;
        LDI	R16, 1
        MOVW	R31:R30, R27:R26
        STD	Z+15, R16
// 1554                  Appl_seq.state=ST_VZAT;
        STD	Z+14, R16
// 1555                  state_seq=VZAT;
        LDI	R16, 5
        RJMP	??monitor_beg_state_seq_9
// 1556                  buf[7]=VZAT;
// 1557                 }
// 1558                 else
// 1559                 {
// 1560              //    send_info(sizeof(evc_alarm),evc_alarm,0,0);
// 1561                  Appl_seq.event=EV_TC_ALARM;
??monitor_beg_state_seq_8:
        LDI	R16, 0
        MOVW	R31:R30, R27:R26
        STD	Z+15, R16
// 1562                  Appl_seq.tm_vzat=Appl_seq.vol_tm_vzat;
        LDD	R16, Z+18
        LDD	R17, Z+19
        STD	Z+16, R16
        STD	Z+17, R17
// 1563                  Appl_seq.state=ST_ALARM;
        LDI	R16, 0
        STD	Z+14, R16
// 1564                  state_seq=ALARM;
        LDI	R16, 4
??monitor_beg_state_seq_9:
        STS	state_seq, R16
// 1565                  buf[7]=ALARM;
??monitor_beg_state_seq_7:
        STD	Y+7, R16
// 1566                 }
// 1567             buf[8]=sv1.tc & 0x01;
        LDI	R30, LOW(state_seq)
        LDI	R31, (state_seq) >> 8
        LDD	R16, Z+1
        ANDI	R16, 0x01
        RJMP	??monitor_beg_state_seq_10
// 1568             break;
// 1569 default:    
// 1570             buf[7]=DES_SEQ;
??monitor_beg_state_seq_6:
        LDI	R16, 255
        STD	Y+7, R16
// 1571             buf[8]=DES_SEQ;
??monitor_beg_state_seq_10:
        STD	Y+8, R16
// 1572             break;
// 1573       
// 1574 }    
// 1575 
// 1576 if(struct_tcc2.type==TC_SUHOI)
        MOVW	R31:R30, R25:R24
        LDD	R16, Z+4
        CPI	R16, 1
        BRNE	??monitor_beg_state_seq_11
// 1577    {
// 1578      struct_tcc2.cnt_block_tc=VOL_BLOCK_TC;
        LDI	R16, 3
        STD	Z+5, R16
// 1579      buf[9]=sv2.tc & 0x01;
        LDI	R30, LOW(state_seq)
        LDI	R31, (state_seq) >> 8
        LDD	R16, Z+2
        ANDI	R16, 0x01
        RJMP	??monitor_beg_state_seq_12
// 1580    }else buf[9]=DES_SEQ;
??monitor_beg_state_seq_11:
        LDI	R16, 255
??monitor_beg_state_seq_12:
        STD	Y+9, R16
// 1581 
// 1582 
// 1583 send_info(sizeof(evc_state),evc_state,0,0);
        LDI	R20, 0
        LDI	R17, 0
        LDI	R18, LOW(evc_state)
        LDI	R19, (evc_state) >> 8
        LDI	R16, 9
        CALL	send_info
// 1584 
// 1585 if(write_to_buf(&Appl_seq_buf[0],&Appl_seq.p_in,&Appl_seq.p_out,&Appl_seq.p_out_kv,&Appl_seq.crc,&buf[0],L_STATE+3, sizeof(Appl_seq_buf))==1)
        LDI	R16, 200
        LDI	R17, 0
        ST	-Y, R17
        CFI CFA_Y Y+15
        ST	-Y, R16
        CFI CFA_Y Y+16
        LDI	R16, 10
        ST	-Y, R17
        CFI CFA_Y Y+17
        ST	-Y, R16
        CFI CFA_Y Y+18
        MOVW	R17:R16, R29:R28
        SUBI	R16, 252
        SBCI	R17, 255
        ST	-Y, R17
        CFI CFA_Y Y+19
        ST	-Y, R16
        CFI CFA_Y Y+20
        MOVW	R17:R16, R27:R26
        SUBI	R16, 249
        SBCI	R17, 255
        ST	-Y, R17
        CFI CFA_Y Y+21
        ST	-Y, R16
        CFI CFA_Y Y+22
        MOVW	R23:R22, R27:R26
        SUBI	R22, 251
        SBCI	R23, 255
        MOVW	R21:R20, R27:R26
        SUBI	R20, 253
        SBCI	R21, 255
        ADIW	R27:R26, 1
        MOVW	R19:R18, R27:R26
        LDI	R16, LOW(Appl_seq_buf)
        LDI	R17, (Appl_seq_buf) >> 8
        CALL	write_to_buf
        CFI CFA_Y Y+14
        CPI	R16, 1
        BRNE	??monitor_beg_state_seq_3
// 1586                    {
// 1587                     fl_appl_seq1.over_buf=1;
        LDI	R30, LOW((Appl_RS485_1 + 60))
        LDI	R31, HIGH((Appl_RS485_1 + 60))
        LD	R16, Z
        ORI	R16, 0x01
        ST	Z, R16
??monitor_beg_state_seq_3:
        ADIW	R29:R28, 10
        CFI CFA_Y Y+4
        LDI	R30, 4
        JMP	?EPILOGUE_B4_L09
        CFI EndBlock cfiBlock23
// 1588                    }
// 1589 
// 1590 
// 1591 
// 1592 /*
// 1593 
// 1594             if(sv1.tc & 0x01)
// 1595                 {
// 1596                  send_info(sizeof(evc_taken),evc_taken,0,0);
// 1597                  
// 1598                  Appl_seq.event=EV_TC_NORMA;
// 1599                  Appl_seq.state=ST_VZAT;
// 1600                  state_seq=VZAT;
// 1601                  buf[0]=VZAT;
// 1602                  *(unsigned int*)&buf[1]=L_VZAT;
// 1603                  *(unsigned long int*)&buf[3]=burst_ds_r();
// 1604                  buf[7]=sv1.tc & 0x01;
// 1605                  buf[8]=0;
// 1606                  if(write_to_buf(&Appl_seq_buf[0],&Appl_seq.p_in,&Appl_seq.p_out,&Appl_seq.p_out_kv,&Appl_seq.crc,&buf[0],L_VZAT+3, sizeof(Appl_seq_buf))==1)
// 1607                     {
// 1608                      fl_appl_seq1.over_buf=1;
// 1609                     }
// 1610                 }else 
// 1611                  {
// 1612                  send_info(sizeof(evc_alarm),evc_alarm,0,0);
// 1613                  Appl_seq.event=EV_TC_ALARM;
// 1614                  Appl_seq.tm_vzat=Appl_seq.vol_tm_vzat;
// 1615                  Appl_seq.state=ST_ALARM;
// 1616                  state_seq=ALARM;
// 1617                  buf[0]=ALARM;
// 1618                  *(unsigned int*)&buf[1]=L_ALARM;
// 1619                  *(unsigned long int*)&buf[3]=burst_ds_r();
// 1620                  buf[7]=sv1.tc & 0x01;
// 1621                  buf[8]=0;
// 1622                  if(write_to_buf(&Appl_seq_buf[0],&Appl_seq.p_in,&Appl_seq.p_out,&Appl_seq.p_out_kv,&Appl_seq.crc,&buf[0],L_ALARM+3, sizeof(Appl_seq_buf))==1)
// 1623                    {
// 1624                     fl_appl_seq1.over_buf=1;
// 1625                    }
// 1626                  }
// 1627 
// 1628             if (PINA & TCC2) {byte_state_net=NO_NET;send_info(sizeof(evc_feed_akb),evc_feed_akb,0,0);}
// 1629             else {byte_state_net=YES_NET;send_info(sizeof(evc_feed_220),evc_feed_220,0,0);}
// 1630             
// 1631             count_block_net=3;
// 1632             buf[0]=AKB_SET;
// 1633             *(unsigned int*)&buf[1]=L_AKB_SET;
// 1634             *(unsigned long int*)&buf[3]=burst_ds_r();
// 1635             buf[7]=byte_state_net;
// 1636             buf[8]=0;
// 1637             if(write_to_buf(&Appl_seq_buf[0],&Appl_seq.p_in,&Appl_seq.p_out,&Appl_seq.p_out_kv,&Appl_seq.crc,&buf[0],L_AKB_SET+3, sizeof(Appl_seq_buf))==1)
// 1638                          {
// 1639                          fl_appl_seq1.over_buf=1;
// 1640                          }     
// 1641 
// 1642             
// 1643        */     
// 1644             
// 1645             
// 1646 } 
// 1647 
// 1648 

        RSEG CODE:CODE:NOROOT(1)
// 1649 void clr_cntr_nat(void)
clr_cntr_nat:
        CFI Block cfiBlock24 Using cfiCommon0
        CFI Function clr_cntr_nat
// 1650  {
// 1651  Control.nat=FALSE;
        LDI	R30, LOW(Appl_seq)
        LDI	R31, (Appl_seq) >> 8
        LDI	R16, 0
        STD	Z+29, R16
// 1652  //Control.cnt_nat=Control.vol_nat;
// 1653  if(simka==SIM_RES)Control.cnt_nat=Control.vol_nat_r;else Control.cnt_nat=Control.vol_nat;
        LDS	R16, simka
        CPI	R16, 1
        BRNE	??clr_cntr_nat_0
        LDD	R16, Z+42
        LDD	R17, Z+43
        RJMP	??clr_cntr_nat_1
??clr_cntr_nat_0:
        LDD	R16, Z+36
        LDD	R17, Z+37
??clr_cntr_nat_1:
        STD	Z+32, R16
        STD	Z+33, R17
// 1654  } 
        RET
        CFI EndBlock cfiBlock24
// 1655 
// 1656 

        RSEG CODE:CODE:NOROOT(1)
// 1657 void clr_var_ppp_rx(void)
clr_var_ppp_rx:
        CFI Block cfiBlock25 Using cfiCommon0
        CFI Function clr_var_ppp_rx
// 1658 {
// 1659  UCSR0B=UCSR0B & ~RXEN;
        LDS	R16, 193
        ANDI	R16, 0xEF
        STS	193, R16
// 1660  UCSR0B=UCSR0B & ~RXCIE;
        LDS	R16, 193
        ANDI	R16, 0x7F
        STS	193, R16
// 1661  fl_rx_ppp.switcher=0;
// 1662  fl_rx_ppp.fl_7e=0;
// 1663  fl_rx_ppp.fl_7d=0;
        LDI	R30, LOW(fl_rx_ppp)
        LDI	R31, (fl_rx_ppp) >> 8
        LD	R16, Z
        ANDI	R16, 0xF8
        ST	Z, R16
// 1664  Buf1_rx_ppp.ln_data=0;
        LDI	R16, 0
        LDI	R17, 0
        LDI	R30, LOW((Buf1_rx_ppp + 330))
        LDI	R31, HIGH((Buf1_rx_ppp + 330))
        ST	Z, R16
        STD	Z+1, R16
// 1665  Buf1_rx_ppp.rec=FALSE;
        STS	(Buf1_rx_ppp + 332), R16
// 1666  Buf1_rx_ppp.busy=FALSE;
        STS	(Buf1_rx_ppp + 333), R16
// 1667  Buf2_rx_ppp.ln_data=0;
        LDI	R30, LOW((Buf2_rx_ppp + 330))
        LDI	R31, HIGH((Buf2_rx_ppp + 330))
        ST	Z, R16
        STD	Z+1, R16
// 1668  Buf2_rx_ppp.rec=FALSE;
        STS	(Buf2_rx_ppp + 332), R16
// 1669  Buf2_rx_ppp.busy=FALSE;  
        STS	(Buf2_rx_ppp + 333), R16
// 1670  
// 1671   fl_ip.ip_tm_cntr_en=0;   //21.01.2008
// 1672   fl_ip.ip_tm_nat_en=0;    //21.01.2008
        LDI	R30, LOW(fl_ip)
        LDI	R31, (fl_ip) >> 8
        LD	R16, Z
        ANDI	R16, 0xF9
        ST	Z, R16
// 1673   Control.cnt_link=0;      //21.01.2008
        LDI	R30, LOW(Appl_seq)
        LDI	R31, (Appl_seq) >> 8
        STD	Z+30, R17
        STD	Z+31, R17
// 1674   Control.link_waits=FALSE;//21.01.2008
        STD	Z+27, R17
// 1675   Control.cnt_try=0;       //21.01.2008
        STD	Z+40, R17
// 1676 }  
        RET
        CFI EndBlock cfiBlock25
// 1677 
// 1678 

        RSEG CODE:CODE:NOROOT(1)
// 1679 void clr_var_ppp(void)
clr_var_ppp:
        CFI Block cfiBlock26 Using cfiCommon0
        CFI Function clr_var_ppp
// 1680 {
        MOVW	R21:R20, R27:R26
// 1681 //UCSR0B=UCSR0B & ~TXEN; !!!!!!
// 1682 //UCSR0B=UCSR0B & ~TXCIE; !!!!!
// 1683 
// 1684 count_tx_ppp=0;
        LDI	R16, LOW(Appl_RS485_1)
        LDI	R17, (Appl_RS485_1) >> 8
        LDI	R18, 0
        LDI	R19, 0
        MOVW	R31:R30, R17:R16
        STD	Z+46, R18
        STD	Z+47, R18
// 1685 
// 1686 fl_reg3.add_byte=0;
        ADIW	R31:R30, 62
        LD	R18, Z
        ANDI	R18, 0xFE
        ST	Z, R18
// 1687 fl_lcp.act_lcp_end=1;
        LDI	R30, LOW(fl_lcp)
        LDI	R31, (fl_lcp) >> 8
        LD	R18, Z
        ORI	R18, 0x01
        ST	Z, R18
// 1688 fl_pap.act_pap_end=1;
        LDI	R30, LOW(fl_pap)
        LDI	R31, (fl_pap) >> 8
        LD	R18, Z
        ORI	R18, 0x01
        ST	Z, R18
// 1689 fl_ipcp.act_ipcp_end=1;
        LDI	R30, LOW(fl_ipcp)
        LDI	R31, (fl_ipcp) >> 8
        LD	R18, Z
        ORI	R18, 0x01
        ST	Z, R18
// 1690 fl_ip.act_ip_end=1;
        LDI	R30, LOW(fl_ip)
        LDI	R31, (fl_ip) >> 8
        LD	R18, Z
        ORI	R18, 0x01
        ST	Z, R18
// 1691 
// 1692 cnt_rst_lcp=0;
        STS	cnt_rst_lcp, R19
// 1693 cnt_rst_ipcp=0;                      
        STS	cnt_rst_ipcp, R19
// 1694 cnt_rst_pap=0;                     
        STS	cnt_rst_pap, R19
// 1695                         
// 1696 cnt_lcp_tm_out=0;
        LDI	R30, LOW(cnt_lcp_tm_out)
        LDI	R31, (cnt_lcp_tm_out) >> 8
        ST	Z, R19
        STD	Z+1, R19
// 1697 cnt_ipcp_tm_out=0;
        LDI	R30, LOW(cnt_ipcp_tm_out)
        LDI	R31, (cnt_ipcp_tm_out) >> 8
        ST	Z, R19
        STD	Z+1, R19
// 1698 cnt_pap_tm_out=0;
        LDI	R30, LOW(cnt_pap_tm_out)
        LDI	R31, (cnt_pap_tm_out) >> 8
        ST	Z, R19
        STD	Z+1, R19
// 1699 cnt_ip_tm_cntr=0;
        LDI	R30, LOW(cnt_ip_tm_cntr)
        LDI	R31, (cnt_ip_tm_cntr) >> 8
        ST	Z, R19
        STD	Z+1, R19
        STD	Z+2, R19
        STD	Z+3, R19
// 1700 
// 1701 rcvd_protokol=0;
        STS	rcvd_protokol, R19
// 1702 
// 1703   i_scr_lcp=0;
        STS	i_scr_lcp, R19
// 1704   i_scan_lcp=0;
        STS	i_scan_lcp, R19
// 1705   i_scj_lcp=0;
        STS	i_scj_lcp, R19
// 1706   i_str_lcp=0;
        STS	i_str_lcp, R19
// 1707   i_sta_lcp=0;
        STS	i_sta_lcp, R19
// 1708   
// 1709   i_scr_ipcp=0;
        STS	i_scr_ipcp, R19
// 1710   i_scan_ipcp=0;
        STS	i_scan_ipcp, R19
// 1711   i_scj_ipcp=0;
        STS	i_scj_ipcp, R19
// 1712   i_str_ipcp=0;
        STS	i_str_ipcp, R19
// 1713   i_sta_ipcp=0; 
        STS	i_sta_ipcp, R19
// 1714   
// 1715   i_scr_pap=0;
        STS	i_scr_pap, R19
// 1716   
// 1717   ip_self[0]=0;
        MOVW	R31:R30, R17:R16
        STD	Z+42, R19
// 1718   ip_self[1]=0;
        STD	Z+43, R19
// 1719   ip_self[2]=0;
        STD	Z+44, R19
// 1720   ip_self[3]=0;
        STD	Z+45, R19
// 1721  
// 1722   fl_lcp.lcp_tm_out_en=0;
// 1723   fl_lcp.t0_pl=0;
// 1724   fl_lcp.t0_mi=0;
        LDI	R30, LOW(fl_lcp)
        LDI	R31, (fl_lcp) >> 8
        LD	R18, Z
        ANDI	R18, 0xF1
        ST	Z, R18
// 1725 
// 1726   fl_ipcp.ipcp_tm_out_en=0;
// 1727   fl_ipcp.t0_pl=0;
// 1728   fl_ipcp.t0_mi=0;
        LDI	R30, LOW(fl_ipcp)
        LDI	R31, (fl_ipcp) >> 8
        LD	R18, Z
        ANDI	R18, 0xF1
        ST	Z, R18
// 1729   
// 1730   fl_ip.ip_tm_cntr_en=0; 
// 1731   fl_ip.ip_tm_nat_en=0;
        LDI	R30, LOW(fl_ip)
        LDI	R31, (fl_ip) >> 8
        LD	R18, Z
        ANDI	R18, 0xF9
        ST	Z, R18
// 1732   
// 1733   fl_pap.pap_tm_out_en=0;
// 1734   fl_pap.t0_pl=0;
// 1735   fl_pap.t0_mi=0;
// 1736   fl_pap.up=0;
        LDI	R30, LOW(fl_pap)
        LDI	R31, (fl_pap) >> 8
        LD	R18, Z
        ANDI	R18, 0xE1
        ST	Z, R18
// 1737   
// 1738   fl_lcp1.up=0;
// 1739   fl_lcp1.down=0;
        LDI	R30, LOW(fl_lcp1)
        LDI	R31, (fl_lcp1) >> 8
        LD	R18, Z
        ANDI	R18, 0xFC
        ST	Z, R18
// 1740   
// 1741   fl_ipcp1.up=0;
// 1742   fl_ipcp1.down=0;
        LDI	R30, LOW(fl_ipcp1)
        LDI	R31, (fl_ipcp1) >> 8
        LD	R18, Z
        ANDI	R18, 0xFC
        ST	Z, R18
// 1743   
// 1744   fl_lcp2.nac_rej=0;
        LDI	R30, LOW(fl_lcp2)
        LDI	R31, (fl_lcp2) >> 8
        LD	R18, Z
        ANDI	R18, 0xFE
        ST	Z, R18
// 1745   
// 1746   fl_ipcp2.nac_rej=0;
        LDI	R30, LOW(fl_ipcp2)
        LDI	R31, (fl_ipcp2) >> 8
        LD	R18, Z
        ANDI	R18, 0xFE
        ST	Z, R18
// 1747   fl_cts_232.on=0;
        MOVW	R31:R30, R17:R16
        LDD	R18, Z+57
        ANDI	R18, 0xFE
        STD	Z+57, R18
// 1748   fl_cts_232_ignor=FALSE;
        STD	Z+56, R19
// 1749   
// 1750   Control.cnt_link=0;
// 1751   Control.cnt_nat=0;
// 1752   Control.link_no=FALSE;
        LDI	R30, LOW(Appl_seq)
        LDI	R31, (Appl_seq) >> 8
        STD	Z+26, R19
// 1753   Control.link_waits=FALSE;
        STD	Z+27, R19
// 1754   Control.cnt_link=0;
        STD	Z+30, R19
        STD	Z+31, R19
// 1755   Control.cnt_nat=0;
        STD	Z+32, R19
        STD	Z+33, R19
// 1756   Control.cnt_try=0;
        STD	Z+40, R19
// 1757   
// 1758   Appl_RS485_1.fl_data_buf=FALSE;
        MOVW	R27:R26, R17:R16
        ST	X, R19
// 1759   Appl_RS485_2.fl_data_buf=FALSE;
        ADIW	R27:R26, 19
        ST	X, R19
// 1760   Appl_RS485_1.id_tek=0;
        MOVW	R27:R26, R17:R16
        ADIW	R27:R26, 16
        ST	X, R19
// 1761   Appl_RS485_2.id_tek=0;
        MOVW	R27:R26, R17:R16
        ADIW	R27:R26, 35
        ST	X, R19
// 1762   fl_tx485.mon1=0;
        MOVW	R27:R26, R17:R16
        ADIW	R27:R26, 58
        LD	R18, X
        ANDI	R18, 0xFE
        ST	X, R18
// 1763   
// 1764   Appl_seq.cnt_waits=0;
        STD	Z+9, R19
        STD	Z+10, R19
// 1765   Appl_seq.cnt_try=0;
        STD	Z+11, R19
// 1766   fl_appl_seq.en_tx=0;
// 1767   fl_appl_seq.kv_waits=0;
// 1768   fl_appl_seq.en_povtor=0;
        MOVW	R27:R26, R17:R16
        ADIW	R27:R26, 59
        LD	R18, X
        ANDI	R18, 0xF8
        ST	X, R18
// 1769   Appl_seq.l_data=0;
        STD	Z+12, R19
        STD	Z+13, R19
// 1770   
// 1771   fl_appl_seq1.enable=0; //21.01.2008
        MOVW	R27:R26, R17:R16
        ADIW	R27:R26, 60
        LD	R18, X
        ANDI	R18, 0xFB
        ST	X, R18
// 1772   
// 1773   Appl_seq.cntr_cl=FALSE;
        STD	Z+20, R19
// 1774   Appl_seq.en_cntr_cl=FALSE;
        STD	Z+21, R19
// 1775   Appl_seq.cnt_cntr_cl=0;
        STD	Z+22, R19
        STD	Z+23, R19
// 1776   
// 1777   cnt_cts_off=0;
        MOVW	R31:R30, R17:R16
        STD	Z+48, R19
        STD	Z+49, R19
// 1778 }
        MOVW	R27:R26, R21:R20
        RET
        CFI EndBlock cfiBlock26
// 1779 
// 1780 
// 1781 
// 1782 

        RSEG CODE:CODE:NOROOT(1)
// 1783  void monitor_cntr_ch(void)
monitor_cntr_ch:
        CFI Block cfiBlock27 Using cfiCommon0
        CFI Function monitor_cntr_ch
// 1784  {
        FUNCALL monitor_cntr_ch, clr_cntr_nat
        LOCFRAME CSTACK, 2, STACK
        LOCFRAME RSTACK, 2, STACK
        FUNCALL monitor_cntr_ch, send_info
        LOCFRAME CSTACK, 2, STACK
        LOCFRAME RSTACK, 2, STACK
        FUNCALL monitor_cntr_ch, form_buf_tx_ppp
        LOCFRAME CSTACK, 2, STACK
        LOCFRAME RSTACK, 2, STACK
        FUNCALL monitor_cntr_ch, check_cts
        LOCFRAME CSTACK, 2, STACK
        LOCFRAME RSTACK, 2, STACK
        ST	-Y, R27
        CFI R27 Frame(CFA_Y, -1)
        CFI CFA_Y Y+1
        ST	-Y, R26
        CFI R26 Frame(CFA_Y, -2)
        CFI CFA_Y Y+2
// 1785    
// 1786    
// 1787   if((fl_lcp.act_lcp_end!=1)&&(fl_pap.act_pap_end!=1)||(fl_ipcp.act_ipcp_end!=1)||(fl_ip.act_ip_end!=1))return;
        LDI	R30, LOW(fl_lcp)
        LDI	R31, (fl_lcp) >> 8
        LD	R16, Z
        ANDI	R16, 0x01
        LDI	R30, LOW(fl_pap)
        LDI	R31, (fl_pap) >> 8
        LD	R17, Z
        ANDI	R17, 0x01
        OR	R17, R16
        LDI	R30, LOW(fl_ipcp)
        LDI	R31, (fl_ipcp) >> 8
        LD	R16, Z
        ANDI	R16, 0x01
        AND	R16, R17
        LDI	R30, LOW(fl_ip)
        LDI	R31, (fl_ip) >> 8
        LD	R17, Z
        ANDI	R17, 0x01
        AND	R17, R16
        BRNE	$+2+2
        RJMP	??monitor_cntr_ch_0
// 1788    
// 1789   if(Control.link_waits==TRUE) return; 
        LDI	R26, LOW(Appl_seq)
        LDI	R27, (Appl_seq) >> 8
        MOVW	R31:R30, R27:R26
        LDD	R16, Z+27
        CPI	R16, 1
        BRNE	$+2+2
        RJMP	??monitor_cntr_ch_0
// 1790   if(Control.link==FALSE) return;  
        LDD	R16, Z+28
        TST	R16
        BRNE	$+2+2
        RJMP	??monitor_cntr_ch_0
// 1791   Control.link=FALSE;
        LDI	R16, 0
        STD	Z+28, R16
// 1792   
// 1793   
// 1794   
// 1795   clr_cntr_nat();
        RCALL	clr_cntr_nat
// 1796   
// 1797   fl_ip.act_ip_end=0;
        LDI	R30, LOW(fl_ip)
        LDI	R31, (fl_ip) >> 8
        LD	R16, Z
        ANDI	R16, 0xFE
        ST	Z, R16
// 1798   
// 1799   Obj_ppp_tx.prozr=FALSE;      //âĺđńč˙       
        LDI	R18, LOW(Obj_ppp_tx)
        LDI	R19, (Obj_ppp_tx) >> 8
        LDI	R16, 0
        MOVW	R31:R30, R19:R18
        ST	Z, R16
// 1800   Obj_ppp_tx.version=VER2;      //âĺđńč˙ 
        LDI	R16, 2
        STD	Z+1, R16
// 1801   Obj_ppp_tx.type_pac=SOOB;     //ňčď ďŕęĺňŕ
        STD	Z+2, R16
// 1802   Obj_ppp_tx.num_src=num_self; // íîěĺđ îňďđŕâčňĺë˙
        MOVW	R31:R30, R27:R26
        LDD	R16, Z+56
        LDD	R17, Z+57
        MOVW	R31:R30, R19:R18
        STD	Z+3, R16
        STD	Z+4, R17
// 1803   Obj_ppp_tx.num_dst=NUM_SRV_LINK; // íîěĺđ ďîëó÷ŕňĺë˙
        LDI	R16, 0
        STD	Z+5, R16
        STD	Z+6, R16
// 1804   Obj_ppp_tx.id_pac=ID_CC; // čäĺíňčôčęŕňîđ ďŕęĺňŕ  
        STD	Z+7, R16
// 1805   Obj_ppp_tx.p_opt=&buf_opt_tr[0]; // //óęŕçŕňĺëü áóôĺđŕ îďöčé  
        LDI	R16, LOW(Appl_RS232_2)
        LDI	R17, (Appl_RS232_2) >> 8
        MOVW	R21:R20, R17:R16
        SUBI	R20, 237
        SBCI	R21, 255
        STD	Z+8, R20
        STD	Z+9, R21
// 1806   
// 1807   Obj_ppp_tx.l_opt=0;// äëčíŕ áóôĺđŕ îďöčé   
        LDI	R20, 0
        STD	Z+10, R20
// 1808   buf_opt_tr[0]=1;
        LDI	R20, 1
        MOVW	R31:R30, R17:R16
        STD	Z+19, R20
// 1809   buf_opt_tr[1]=2;
        LDI	R20, 2
        STD	Z+20, R20
// 1810   buf_opt_tr[2]=3;  
        LDI	R20, 3
        STD	Z+21, R20
// 1811   buf_opt_tr[3]=4;
        LDI	R20, 4
        STD	Z+22, R20
// 1812   buf_opt_tr[4]=5;
        LDI	R20, 5
        STD	Z+23, R20
// 1813   buf_opt_tr[5]=6;
        LDI	R20, 6
        STD	Z+24, R20
// 1814   buf_opt_tr[6]=7;
        LDI	R20, 7
        STD	Z+25, R20
// 1815   buf_opt_tr[7]=8;
        LDI	R20, 8
        STD	Z+26, R20
// 1816   buf_opt_tr[8]=9;  
        LDI	R20, 9
        STD	Z+27, R20
// 1817   buf_opt_tr[9]=10;   
        LDI	R20, 10
        STD	Z+28, R20
// 1818   buf_opt_tr[10]=11;  
        LDI	R20, 11
        STD	Z+29, R20
// 1819   
// 1820   Obj_ppp_tx.kol_opt=0;// ęîëč÷ĺńňâî îďöčé   
        LDI	R16, 0
        MOVW	R31:R30, R19:R18
        STD	Z+11, R16
// 1821   
// 1822   Obj_ppp_tx.l_data=0;   // äëčíŕ äŕííűő
        STD	Z+14, R16
        STD	Z+15, R16
// 1823   Obj_ppp_tx.p_data=&buf_tx_232[TR_OP_DATA];  //óęŕçŕňĺëü áóôĺđŕ äŕííűő
        LDI	R16, LOW((buf_tx_232 + 42))
        LDI	R17, HIGH((buf_tx_232 + 42))
        STD	Z+12, R16
        STD	Z+13, R17
// 1824   
// 1825   
// 1826   send_info(sizeof(msg_ctrl_ch),msg_ctrl_ch,1,Obj_ppp_tx.id_pac);
        LDD	R20, Z+7
        LDI	R17, 1
        LDI	R18, LOW(msg_ctrl_ch)
        LDI	R19, (msg_ctrl_ch) >> 8
        LDI	R16, 11
        CALL	send_info
// 1827  
// 1828   form_buf_tx_ppp();                            
        RCALL	form_buf_tx_ppp
// 1829 
// 1830   Control.cnt_link=Control.vol_waits;
        MOVW	R31:R30, R27:R26
        LDD	R16, Z+38
        LDD	R17, Z+39
        STD	Z+30, R16
        STD	Z+31, R17
// 1831   Control.link_waits=TRUE;
        LDI	R16, 1
        STD	Z+27, R16
// 1832   UCSR0A=UCSR0A | TXC;                            
        LDS	R16, 192
        ORI	R16, 0x40
        STS	192, R16
// 1833   UCSR0B=UCSR0B | TXEN;
        LDS	R16, 193
        ORI	R16, 0x08
        STS	193, R16
// 1834   UCSR0B=UCSR0B | TXCIE;
        LDS	R16, 193
        ORI	R16, 0x40
        STS	193, R16
// 1835   if(check_cts()==1) return;     
        CALL	check_cts
        CPI	R16, 1
        BREQ	??monitor_cntr_ch_0
// 1836   S2_RD;          
        SBI	0x08, 0x00
        CBI	0x08, 0x01
// 1837   UDR0=buf_tx_232[0];
        LDS	R16, buf_tx_232
        STS	198, R16
// 1838   if(Regim==RG_DEBAG) UDR3=buf_tx_232[0];
        LDS	R16, Regim
        CPI	R16, 1
        BRNE	??monitor_cntr_ch_0
        LDS	R16, buf_tx_232
        STS	310, R16
??monitor_cntr_ch_0:
        LD	R26, Y+
        CFI R26 SameValue
        CFI CFA_Y Y+1
        LD	R27, Y+
        CFI R27 SameValue
        CFI CFA_Y Y+0
        RET
        CFI EndBlock cfiBlock27
// 1839 
// 1840   return;     
// 1841  
// 1842  }  
// 1843   
// 1844   
// 1845  

        RSEG CODE:CODE:NOROOT(1)
// 1846  void monitor_cntr_nat(void)
monitor_cntr_nat:
        CFI Block cfiBlock28 Using cfiCommon0
        CFI Function monitor_cntr_nat
// 1847  {
        FUNCALL monitor_cntr_nat, clr_cntr_nat
        LOCFRAME CSTACK, 1, STACK
        LOCFRAME RSTACK, 2, STACK
        FUNCALL monitor_cntr_nat, send_info
        LOCFRAME CSTACK, 1, STACK
        LOCFRAME RSTACK, 2, STACK
        FUNCALL monitor_cntr_nat, form_buf_tx_ppp
        LOCFRAME CSTACK, 1, STACK
        LOCFRAME RSTACK, 2, STACK
        FUNCALL monitor_cntr_nat, check_cts
        LOCFRAME CSTACK, 1, STACK
        LOCFRAME RSTACK, 2, STACK
        SBIW	R29:R28, 1
        CFI CFA_Y Y+1
// 1848  unsigned char temp=NOPPER;
        LDI	R16, 0
        ST	Y, R16
// 1849   if((fl_lcp.act_lcp_end!=1)&&(fl_pap.act_pap_end!=1)||(fl_ipcp.act_ipcp_end!=1)||(fl_ip.act_ip_end!=1))return; 
        LDI	R30, LOW(fl_lcp)
        LDI	R31, (fl_lcp) >> 8
        LD	R16, Z
        ANDI	R16, 0x01
        LDI	R30, LOW(fl_pap)
        LDI	R31, (fl_pap) >> 8
        LD	R17, Z
        ANDI	R17, 0x01
        OR	R17, R16
        LDI	R30, LOW(fl_ipcp)
        LDI	R31, (fl_ipcp) >> 8
        LD	R16, Z
        ANDI	R16, 0x01
        AND	R16, R17
        LDI	R30, LOW(fl_ip)
        LDI	R31, (fl_ip) >> 8
        LD	R17, Z
        ANDI	R17, 0x01
        AND	R17, R16
        BREQ	??monitor_cntr_nat_0
// 1850    
// 1851   if(Control.nat==FALSE) return;    
        LDS	R16, (Appl_seq + 29)
        TST	R16
        BREQ	??monitor_cntr_nat_0
// 1852   clr_cntr_nat();
        RCALL	clr_cntr_nat
// 1853   fl_ip.act_ip_end=0;
        LDI	R30, LOW(fl_ip)
        LDI	R31, (fl_ip) >> 8
        LD	R16, Z
        ANDI	R16, 0xFE
        ST	Z, R16
// 1854  
// 1855   Obj_ppp_tx.prozr=TRUE;           
        LDI	R30, LOW(Obj_ppp_tx)
        LDI	R31, (Obj_ppp_tx) >> 8
        LDI	R16, 1
        ST	Z, R16
// 1856   Obj_ppp_tx.l_data=1;   // äëčíŕ äŕííűő
        LDI	R17, 0
        STD	Z+14, R16
        STD	Z+15, R17
// 1857   Obj_ppp_tx.p_data=&temp;  //óęŕçŕňĺëü áóôĺđŕ äŕííűő
        MOVW	R17:R16, R29:R28
        STD	Z+12, R16
        STD	Z+13, R17
// 1858   
// 1859   send_info(sizeof(msg_ctrl_nat),msg_ctrl_nat,0,0);
        LDI	R20, 0
        LDI	R17, 0
        LDI	R18, LOW(msg_ctrl_nat)
        LDI	R19, (msg_ctrl_nat) >> 8
        LDI	R16, 12
        CALL	send_info
// 1860   
// 1861   form_buf_tx_ppp();                               
        RCALL	form_buf_tx_ppp
// 1862   UCSR0A=UCSR0A | TXC;                            
        LDS	R16, 192
        ORI	R16, 0x40
        STS	192, R16
// 1863   UCSR0B=UCSR0B | TXEN;
        LDS	R16, 193
        ORI	R16, 0x08
        STS	193, R16
// 1864   UCSR0B=UCSR0B | TXCIE;
        LDS	R16, 193
        ORI	R16, 0x40
        STS	193, R16
// 1865   if(check_cts()==1) return;                
        CALL	check_cts
        CPI	R16, 1
        BREQ	??monitor_cntr_nat_0
// 1866   S2_RD; 
        SBI	0x08, 0x00
        CBI	0x08, 0x01
// 1867   UDR0=buf_tx_232[0];
        LDS	R16, buf_tx_232
        STS	198, R16
// 1868   if(Regim==RG_DEBAG) UDR3=buf_tx_232[0];
        LDS	R16, Regim
        CPI	R16, 1
        BRNE	??monitor_cntr_nat_0
        LDS	R16, buf_tx_232
        STS	310, R16
??monitor_cntr_nat_0:
        ADIW	R29:R28, 1
        CFI CFA_Y Y+0
        RET
        CFI EndBlock cfiBlock28
// 1869   return; 
// 1870  }
// 1871  
// 1872  

        RSEG CODE:CODE:NOROOT(1)
// 1873   void monitor_cntr_cl_seq(void)
monitor_cntr_cl_seq:
        CFI Block cfiBlock29 Using cfiCommon0
        CFI Function monitor_cntr_cl_seq
// 1874  {
        FUNCALL monitor_cntr_cl_seq, clr_cntr_nat
        LOCFRAME CSTACK, 4, STACK
        LOCFRAME RSTACK, 2, STACK
        FUNCALL monitor_cntr_cl_seq, send_info
        LOCFRAME CSTACK, 4, STACK
        LOCFRAME RSTACK, 2, STACK
        FUNCALL monitor_cntr_cl_seq, form_buf_tx_ppp
        LOCFRAME CSTACK, 4, STACK
        LOCFRAME RSTACK, 2, STACK
        FUNCALL monitor_cntr_cl_seq, check_cts
        LOCFRAME CSTACK, 4, STACK
        LOCFRAME RSTACK, 2, STACK
        CALL	?PROLOGUE4_L09
        CFI R27 Frame(CFA_Y, -1)
        CFI R26 Frame(CFA_Y, -2)
        CFI R25 Frame(CFA_Y, -3)
        CFI R24 Frame(CFA_Y, -4)
        CFI CFA_Y Y+4
// 1875 
// 1876   if((fl_lcp.act_lcp_end!=1)&&(fl_pap.act_pap_end!=1)||(fl_ipcp.act_ipcp_end!=1)||(fl_ip.act_ip_end!=1))return;
        LDI	R30, LOW(fl_lcp)
        LDI	R31, (fl_lcp) >> 8
        LD	R16, Z
        ANDI	R16, 0x01
        LDI	R30, LOW(fl_pap)
        LDI	R31, (fl_pap) >> 8
        LD	R17, Z
        ANDI	R17, 0x01
        OR	R17, R16
        LDI	R30, LOW(fl_ipcp)
        LDI	R31, (fl_ipcp) >> 8
        LD	R16, Z
        ANDI	R16, 0x01
        AND	R16, R17
        LDI	R30, LOW(fl_ip)
        LDI	R31, (fl_ip) >> 8
        LD	R17, Z
        ANDI	R17, 0x01
        AND	R17, R16
        BRNE	$+2+2
        RJMP	??monitor_cntr_cl_seq_0
// 1877   if(Appl_seq.cntr_cl==FALSE) return;  
        LDI	R24, LOW(Appl_seq)
        LDI	R25, (Appl_seq) >> 8
        MOVW	R31:R30, R25:R24
        LDD	R16, Z+20
        TST	R16
        BRNE	$+2+2
        RJMP	??monitor_cntr_cl_seq_0
// 1878   if(Appl_seq.en_cntr_cl==FALSE) return; 
        LDD	R16, Z+21
        TST	R16
        BRNE	$+2+2
        RJMP	??monitor_cntr_cl_seq_0
// 1879   Appl_seq.cnt_cntr_cl=Appl_seq.vol_cntr_cl; 
        LDD	R16, Z+24
        LDD	R17, Z+25
        STD	Z+22, R16
        STD	Z+23, R17
// 1880   Appl_seq.en_cntr_cl=FALSE;
        LDI	R16, 0
        STD	Z+21, R16
// 1881 
// 1882   if (Appl_seq_des==1)return;// áëîęčđîâęŕ 
        ADIW	R31:R30, 62
        LD	R16, Z
        CPI	R16, 1
        BRNE	$+2+2
        RJMP	??monitor_cntr_cl_seq_0
// 1883   
// 1884   clr_cntr_nat();
        RCALL	clr_cntr_nat
// 1885   fl_ip.act_ip_end=0;
        LDI	R30, LOW(fl_ip)
        LDI	R31, (fl_ip) >> 8
        LD	R16, Z
        ANDI	R16, 0xFE
        ST	Z, R16
// 1886   Obj_ppp_tx.prozr=FALSE;      //âĺđńč˙       
        LDI	R16, LOW(Obj_ppp_tx)
        LDI	R17, (Obj_ppp_tx) >> 8
        LDI	R18, 0
        MOVW	R31:R30, R17:R16
        ST	Z, R18
// 1887   Obj_ppp_tx.version=VER2;      //âĺđńč˙ 
        LDI	R18, 2
        STD	Z+1, R18
// 1888   Obj_ppp_tx.type_pac=ZAPR;     //ňčď ďŕęĺňŕ
        LDI	R18, 0
        STD	Z+2, R18
// 1889   Obj_ppp_tx.num_src=num_self; // íîěĺđ îňďđŕâčňĺë˙
        MOVW	R31:R30, R25:R24
        LDD	R18, Z+56
        LDD	R19, Z+57
        MOVW	R31:R30, R17:R16
        STD	Z+3, R18
        STD	Z+4, R19
// 1890   Obj_ppp_tx.num_dst=NUM_SRV_LINK; // íîěĺđ ďîëó÷ŕňĺë˙
        LDI	R18, 0
        STD	Z+5, R18
        STD	Z+6, R18
// 1891   Obj_ppp_tx.id_pac=0; // čäĺíňčôčęŕňîđ ďŕęĺňŕ  
        STD	Z+7, R18
// 1892   Obj_ppp_tx.p_opt=&buf_opt_tr[0]; // //óęŕçŕňĺëü áóôĺđŕ îďöčé  
        LDI	R30, LOW(Appl_RS232_2)
        LDI	R31, (Appl_RS232_2) >> 8
        MOVW	R19:R18, R31:R30
        SUBI	R18, 237
        SBCI	R19, 255
        MOVW	R27:R26, R17:R16
        ADIW	R27:R26, 8
        ST	X+, R18
        ST	X, R19
// 1893   Obj_ppp_tx.l_opt=0;// äëčíŕ áóôĺđŕ îďöčé   
        LDI	R18, 0
        MOVW	R27:R26, R17:R16
        ADIW	R27:R26, 10
        ST	X, R18
// 1894   buf_opt_tr[0]=PROT_SL_LS;
        LDI	R18, 3
        STD	Z+19, R18
// 1895   buf_opt_tr[1]=COM_CNTR_CL;
        LDI	R18, 2
        STD	Z+20, R18
// 1896   *(unsigned int*)&buf_opt_tr[2]=L_COM_CNTR_CL;  
        LDI	R19, 0
        STD	Z+21, R18
        STD	Z+22, R19
// 1897   *(unsigned int*)&buf_opt_tr[4]=num_seq_cl;
        MOVW	R27:R26, R25:R24
        ADIW	R27:R26, 58
        LD	R18, X+
        LD	R19, X
        STD	Z+23, R18
        STD	Z+24, R19
// 1898   Obj_ppp_tx.kol_opt=0;// ęîëč÷ĺńňâî îďöčé     
        LDI	R18, 0
        MOVW	R27:R26, R17:R16
        ADIW	R27:R26, 11
        ST	X, R18
// 1899   Obj_ppp_tx.l_data=6;   // äëčíŕ äŕííűő
        LDI	R18, 6
        LDI	R19, 0
        MOVW	R27:R26, R17:R16
        ADIW	R27:R26, 14
        ST	X+, R18
        ST	X, R19
// 1900   Obj_ppp_tx.p_data=&buf_opt_tr[0];  //óęŕçŕňĺëü áóôĺđŕ äŕííűő    
        ADIW	R31:R30, 19
        MOVW	R27:R26, R17:R16
        ADIW	R27:R26, 12
        ST	X+, R30
        ST	X, R31
// 1901 
// 1902    send_info(sizeof(req_out_ctrl_cl),req_out_ctrl_cl,1,Obj_ppp_tx.id_pac);
        MOVW	R31:R30, R17:R16
        LDD	R20, Z+7
        LDI	R17, 1
        LDI	R18, LOW(req_out_ctrl_cl)
        LDI	R19, (req_out_ctrl_cl) >> 8
        LDI	R16, 12
        CALL	send_info
// 1903   
// 1904   form_buf_tx_ppp();                            
        RCALL	form_buf_tx_ppp
// 1905   UCSR0A=UCSR0A | TXC;                            
        LDS	R16, 192
        ORI	R16, 0x40
        STS	192, R16
// 1906   UCSR0B=UCSR0B | TXEN;
        LDS	R16, 193
        ORI	R16, 0x08
        STS	193, R16
// 1907   UCSR0B=UCSR0B | TXCIE;
        LDS	R16, 193
        ORI	R16, 0x40
        STS	193, R16
// 1908   if(check_cts()==1) return; 
        CALL	check_cts
        CPI	R16, 1
        BREQ	??monitor_cntr_cl_seq_0
// 1909   S2_RD;               
        SBI	0x08, 0x00
        CBI	0x08, 0x01
// 1910   UDR0=buf_tx_232[0];
        LDS	R16, buf_tx_232
        STS	198, R16
// 1911   if(Regim==RG_DEBAG) UDR3=buf_tx_232[0];
        LDS	R16, Regim
        CPI	R16, 1
        BRNE	??monitor_cntr_cl_seq_0
        LDS	R16, buf_tx_232
        STS	310, R16
??monitor_cntr_cl_seq_0:
        LDI	R30, 4
        JMP	?EPILOGUE_B4_L09
        CFI EndBlock cfiBlock29
// 1912   return;      
// 1913  }  
// 1914 
// 1915 /*
// 1916 
// 1917 void monitor_change_state(void)
// 1918 {
// 1919 
// 1920 unsigned char buf[10];                                                                           
// 1921 
// 1922 sv1.tc=struct_tcc1.real_tc;
// 1923 
// 1924 if (Appl_seq_des==1)return;// áëîęčđîâęŕ îďđîńŕ îőđŕíęč
// 1925 
// 1926 
// 1927 if(fl_appl_seq1.send_state==1)
// 1928 {
// 1929 fl_appl_seq1.send_state=0;
// 1930 buf[0]=SEQ_STATE;
// 1931 *(unsigned int*)&buf[1]=L_STATE;
// 1932 *(unsigned long int*)&buf[3]=burst_ds_r();
// 1933 buf[7]=state_seq;
// 1934 buf[8]=sv1.tc & 0x01;
// 1935 //buf[9]=0;
// 1936 buf[9]=byte_state_net & 0x01;
// 1937 if(write_to_buf(&Appl_seq_buf[0],&Appl_seq.p_in,&Appl_seq.p_out,&Appl_seq.p_out_kv,&Appl_seq.crc,&buf[0],L_STATE+3, sizeof(Appl_seq_buf))==1)
// 1938   {
// 1939    fl_appl_seq1.over_buf=1;
// 1940   }
// 1941 }
// 1942 
// 1943 
// 1944 
// 1945 
// 1946 
// 1947 if( (sv1.tc & 0x01)!=(sv1.tc_old & 0x01))
// 1948   {
// 1949   if(sv1.tc & 0x01)Appl_seq.event=EV_TC_NORMA; else Appl_seq.event=EV_TC_ALARM;
// 1950   sv1.tc_old=sv1.tc;
// 1951   }
// 1952 
// 1953 
// 1954 switch(Appl_seq.state)
// 1955 {
// 1956 case ST_ALARM:
// 1957                         
// 1958              switch(Appl_seq.event)
// 1959              {
// 1960              case(EV_TC_NORMA):                   
// 1961                          Appl_seq.tm_vzat=Appl_seq.vol_tm_vzat;
// 1962                          Appl_seq.state=ST_VZATIE;
// 1963                          break;
// 1964              case(EV_TM_OUT):
// 1965                          Appl_seq.tm_vzat=Appl_seq.vol_tm_vzat;
// 1966                          break;            
// 1967              default: break;
// 1968              }
// 1969      break;
// 1970 case ST_VZAT:
// 1971 
// 1972 
// 1973              switch(Appl_seq.event)
// 1974              {
// 1975              case(EV_TC_ALARM):
// 1976                          send_info(sizeof(evc_alarm),evc_alarm,0,0);
// 1977                         
// 1978                          Appl_seq.tm_vzat=Appl_seq.vol_tm_vzat;
// 1979                          Appl_seq.state=ST_ALARM;
// 1980                          state_seq=ALARM;
// 1981                          buf[0]=ALARM;
// 1982                          *(unsigned int*)&buf[1]=L_ALARM;
// 1983                          *(unsigned long int*)&buf[3]=burst_ds_r();
// 1984                          buf[7]=sv1.tc & 0x01;
// 1985                          buf[8]=0;
// 1986                          if(write_to_buf(&Appl_seq_buf[0],&Appl_seq.p_in,&Appl_seq.p_out,&Appl_seq.p_out_kv,&Appl_seq.crc,&buf[0],L_ALARM+3, sizeof(Appl_seq_buf))==1)
// 1987                          {
// 1988                          fl_appl_seq1.over_buf=1;
// 1989                          }
// 1990                          break;
// 1991              default: break;
// 1992              }
// 1993      break;     
// 1994 case ST_VZATIE:
// 1995              switch(Appl_seq.event)
// 1996              {
// 1997              case(EV_TC_ALARM):
// 1998                          Appl_seq.tm_vzat=Appl_seq.vol_tm_vzat;
// 1999                          Appl_seq.state=ST_ALARM;
// 2000                          break;
// 2001              case(EV_TM_OUT):
// 2002                          
// 2003                          send_info(sizeof(evc_taken),evc_taken,0,0);
// 2004                          
// 2005                          Appl_seq.state=ST_VZAT;
// 2006                           state_seq=VZAT;
// 2007                           buf[0]=VZAT;
// 2008                          *(unsigned int*)&buf[1]=L_VZAT;
// 2009                          *(unsigned long int*)&buf[3]=burst_ds_r();
// 2010                          buf[7]=sv1.tc & 0x01;
// 2011                          buf[8]=0;
// 2012                          if(write_to_buf(&Appl_seq_buf[0],&Appl_seq.p_in,&Appl_seq.p_out,&Appl_seq.p_out_kv,&Appl_seq.crc,&buf[0],L_VZAT+3, sizeof(Appl_seq_buf))==1)
// 2013                          {
// 2014                          fl_appl_seq1.over_buf=1;
// 2015                          }
// 2016                          break;       
// 2017              default: break;
// 2018              }
// 2019      break;          
// 2020      
// 2021 default: break;
// 2022 }
// 2023 
// 2024 } 
// 2025  
// 2026  
// 2027 */
// 2028 
// 2029 

        RSEG CODE:CODE:NOROOT(1)
// 2030 void monitor_change_state(void)
monitor_change_state:
        CFI Block cfiBlock30 Using cfiCommon0
        CFI Function monitor_change_state
// 2031 {
        FUNCALL monitor_change_state, send_info
        LOCFRAME CSTACK, 15, STACK
        LOCFRAME RSTACK, 2, STACK
        FUNCALL monitor_change_state, send_info
        LOCFRAME CSTACK, 15, STACK
        LOCFRAME RSTACK, 2, STACK
        FUNCALL monitor_change_state, send_info
        LOCFRAME CSTACK, 15, STACK
        LOCFRAME RSTACK, 2, STACK
        FUNCALL monitor_change_state, send_info
        LOCFRAME CSTACK, 15, STACK
        LOCFRAME RSTACK, 2, STACK
        FUNCALL monitor_change_state, burst_ds_r
        LOCFRAME CSTACK, 15, STACK
        LOCFRAME RSTACK, 2, STACK
        FUNCALL monitor_change_state, write_to_buf
        LOCFRAME CSTACK, 23, STACK
        LOCFRAME RSTACK, 2, STACK
        CALL	?PROLOGUE5_L09
        CFI R4 Frame(CFA_Y, -1)
        CFI R27 Frame(CFA_Y, -2)
        CFI R26 Frame(CFA_Y, -3)
        CFI R25 Frame(CFA_Y, -4)
        CFI R24 Frame(CFA_Y, -5)
        CFI CFA_Y Y+5
        REQUIRE	?Register_R4_is_cg_reg
        SBIW	R29:R28, 10
        CFI CFA_Y Y+15
// 2032 
// 2033 unsigned char buf[10]; 
// 2034 unsigned char flag_msg=0;
        CLR	R4
// 2035 
// 2036 
// 2037 sv1.tc=struct_tcc1.real_tc;
        LDI	R24, LOW(struct_tcc1)
        LDI	R25, (struct_tcc1) >> 8
        MOVW	R31:R30, R25:R24
        LDD	R16, Z+1
        ANDI	R16, 0x01
        LDI	R30, LOW(state_seq)
        LDI	R31, (state_seq) >> 8
        BST	R16, 0
        LDD	R16, Z+1
        BLD	R16, 0
        STD	Z+1, R16
// 2038 switch (struct_tcc1.type)
        LDI	R26, LOW(Appl_seq)
        LDI	R27, (Appl_seq) >> 8
        MOVW	R31:R30, R25:R24
        LDD	R16, Z+4
        SUBI	R16, 1
        BREQ	??monitor_change_state_0
        DEC	R16
        BREQ	??monitor_change_state_1
        RJMP	??monitor_change_state_2
// 2039 {
// 2040 case TC_SUHOI:
// 2041        if(struct_tcc1.cnt_block_tc==0)       
??monitor_change_state_0:
        LDD	R16, Z+5
        TST	R16
        BRNE	??monitor_change_state_3
// 2042        {
// 2043          if( (sv1.tc & 0x01)!=(sv1.tc_old & 0x01))
        LDI	R30, LOW(state_seq)
        LDI	R31, (state_seq) >> 8
        LDD	R16, Z+1
        ANDI	R16, 0x01
        LDD	R17, Z+1
        BST	R17, 1
        LDI	R17, 0
        BLD	R17, 0
        CP	R16, R17
        BREQ	??monitor_change_state_3
// 2044          { 
// 2045          struct_tcc1.cnt_block_tc=VOL_BLOCK_TC;
        LDI	R16, 3
        MOVW	R31:R30, R25:R24
        STD	Z+5, R16
// 2046          //óńňŕíîâčňü ôëŕă ĺńňü ńîáűňčĺ
// 2047          flag_msg=1;
        INC	R4
// 2048          sv1.tc_old=sv1.tc;
        LDI	R30, LOW(state_seq)
        LDI	R31, (state_seq) >> 8
        LDD	R16, Z+1
        ANDI	R16, 0x01
        BST	R16, 0
        LDD	R16, Z+1
        BLD	R16, 1
        STD	Z+1, R16
// 2049          send_info(sizeof(evc_ts1),evc_ts1,0,0);
        LDI	R20, 0
        LDI	R17, 0
        LDI	R18, LOW((evc_taken + 18))
        LDI	R19, HIGH((evc_taken + 18))
        LDI	R16, 7
        CALL	send_info
// 2050          }
// 2051        }
// 2052        buf[7]=DES_SEQ;
??monitor_change_state_3:
        LDI	R16, 255
        STD	Y+7, R16
        RJMP	??monitor_change_state_4
// 2053        buf[8]=sv1.tc & 0x01;
// 2054        break;
// 2055 case TC_SHL:
// 2056        if( (sv1.tc & 0x01)!=(sv1.tc_old & 0x01))
??monitor_change_state_1:
        LDI	R30, LOW(state_seq)
        LDI	R31, (state_seq) >> 8
        LDD	R16, Z+1
        ANDI	R16, 0x01
        LDD	R17, Z+1
        BST	R17, 1
        LDI	R17, 0
        BLD	R17, 0
        CP	R16, R17
        BREQ	??monitor_change_state_4
// 2057        {
// 2058          if(sv1.tc & 0x01)Appl_seq.event=EV_TC_NORMA; else Appl_seq.event=EV_TC_ALARM;
        LDD	R16, Z+1
        SBRS	R16, 0
        RJMP	??monitor_change_state_5
        LDI	R16, 1
        MOVW	R31:R30, R27:R26
        STD	Z+15, R16
        RJMP	??monitor_change_state_6
??monitor_change_state_5:
        MOVW	R31:R30, R27:R26
        STD	Z+15, R4
// 2059          sv1.tc_old=sv1.tc;
??monitor_change_state_6:
        LDI	R30, LOW(state_seq)
        LDI	R31, (state_seq) >> 8
        LDD	R16, Z+1
        ANDI	R16, 0x01
        BST	R16, 0
        LDD	R16, Z+1
        BLD	R16, 1
        STD	Z+1, R16
// 2060        }
// 2061        buf[8]=sv1.tc & 0x01;
??monitor_change_state_4:
        LDI	R30, LOW(state_seq)
        LDI	R31, (state_seq) >> 8
        LDD	R16, Z+1
        ANDI	R16, 0x01
        RJMP	??monitor_change_state_7
// 2062        break;
// 2063 default:  
// 2064          buf[7]=DES_SEQ;
??monitor_change_state_2:
        LDI	R16, 255
        STD	Y+7, R16
// 2065          sv1.tc_old=sv1.tc; 
        LDI	R30, LOW(state_seq)
        LDI	R31, (state_seq) >> 8
        LDD	R16, Z+1
        ANDI	R16, 0x01
        BST	R16, 0
        LDD	R16, Z+1
        BLD	R16, 1
        STD	Z+1, R16
// 2066          buf[8]=DES_SEQ;
        LDI	R16, 255
??monitor_change_state_7:
        STD	Y+8, R16
// 2067 }
// 2068    
// 2069 
// 2070 sv2.tc=struct_tcc2.real_tc;
        LDI	R16, LOW(struct_tcc2)
        LDI	R17, (struct_tcc2) >> 8
        MOVW	R31:R30, R17:R16
        LDD	R18, Z+1
        ANDI	R18, 0x01
        LDI	R30, LOW(state_seq)
        LDI	R31, (state_seq) >> 8
        BST	R18, 0
        LDD	R18, Z+2
        BLD	R18, 0
        STD	Z+2, R18
// 2071 if(struct_tcc2.type==TC_SUHOI)
        MOVW	R31:R30, R17:R16
        LDD	R18, Z+4
        CPI	R18, 1
        BRNE	??monitor_change_state_8
// 2072    {
// 2073      if(struct_tcc2.cnt_block_tc==0)
        LDD	R18, Z+5
        TST	R18
        BRNE	??monitor_change_state_9
// 2074      {
// 2075        if( (sv2.tc & 0x01)!=(sv2.tc_old & 0x01))
        LDI	R30, LOW(state_seq)
        LDI	R31, (state_seq) >> 8
        LDD	R18, Z+2
        ANDI	R18, 0x01
        LDD	R19, Z+2
        BST	R19, 1
        LDI	R19, 0
        BLD	R19, 0
        CP	R18, R19
        BREQ	??monitor_change_state_9
// 2076          {
// 2077            struct_tcc2.cnt_block_tc=VOL_BLOCK_TC;
        LDI	R18, 3
        MOVW	R31:R30, R17:R16
        STD	Z+5, R18
// 2078            //óńňŕíîâčňü ôëŕă ĺńňü ńîáűňčĺ;
// 2079            send_info(sizeof(evc_ts2),evc_ts2,0,0);
        LDI	R20, 0
        LDI	R17, 0
        LDI	R18, LOW((evc_taken + 25))
        LDI	R19, HIGH((evc_taken + 25))
        LDI	R16, 7
        CALL	send_info
// 2080            flag_msg=1;
        CLR	R4
        INC	R4
// 2081            sv2.tc_old=sv2.tc;
        LDI	R30, LOW(state_seq)
        LDI	R31, (state_seq) >> 8
        LDD	R16, Z+2
        ANDI	R16, 0x01
        BST	R16, 0
        LDD	R16, Z+2
        BLD	R16, 1
        STD	Z+2, R16
// 2082           }
// 2083       }
// 2084      
// 2085      buf[9]=sv2.tc & 0x01;
??monitor_change_state_9:
        LDI	R30, LOW(state_seq)
        LDI	R31, (state_seq) >> 8
        LDD	R16, Z+2
        ANDI	R16, 0x01
        RJMP	??monitor_change_state_10
// 2086    }
// 2087 else {sv2.tc_old=sv2.tc; buf[9]=DES_SEQ;}
??monitor_change_state_8:
        LDI	R30, LOW(state_seq)
        LDI	R31, (state_seq) >> 8
        LDD	R16, Z+2
        ANDI	R16, 0x01
        BST	R16, 0
        LDD	R16, Z+2
        BLD	R16, 1
        STD	Z+2, R16
        LDI	R16, 255
??monitor_change_state_10:
        STD	Y+9, R16
// 2088 
// 2089 
// 2090 
// 2091 
// 2092 if(struct_tcc1.type==TC_SHL)
        MOVW	R31:R30, R25:R24
        LDD	R16, Z+4
        CPI	R16, 2
        BREQ	$+2+2
        RJMP	??monitor_change_state_11
// 2093 {
// 2094 switch(Appl_seq.state)
        MOVW	R31:R30, R27:R26
        LDD	R16, Z+18
        LDD	R17, Z+19
        LDD	R19, Z+15
        LDD	R18, Z+14
        SUBI	R18, 0
        BREQ	??monitor_change_state_12
        DEC	R18
        BREQ	??monitor_change_state_13
        DEC	R18
        BREQ	??monitor_change_state_14
        RJMP	??monitor_change_state_11
// 2095 {
// 2096 case ST_ALARM:
// 2097                         
// 2098              switch(Appl_seq.event)
??monitor_change_state_12:
        SUBI	R19, 1
        BREQ	??monitor_change_state_15
        DEC	R19
        BREQ	??monitor_change_state_16
        RJMP	??monitor_change_state_11
// 2099              {
// 2100              case(EV_TC_NORMA):                   
// 2101                          Appl_seq.tm_vzat=Appl_seq.vol_tm_vzat;
??monitor_change_state_15:
        STD	Z+16, R16
        STD	Z+17, R17
// 2102                          Appl_seq.state=ST_VZATIE;
        LDI	R16, 2
??monitor_change_state_17:
        STD	Z+14, R16
        RJMP	??monitor_change_state_11
// 2103                          break;
// 2104              case(EV_TM_OUT):
// 2105                          Appl_seq.tm_vzat=Appl_seq.vol_tm_vzat;
??monitor_change_state_16:
        STD	Z+16, R16
        STD	Z+17, R17
        RJMP	??monitor_change_state_11
// 2106                          break;            
// 2107              default: break;
// 2108              }
// 2109      break;
// 2110 case ST_VZAT:
// 2111 
// 2112 
// 2113              switch(Appl_seq.event)
??monitor_change_state_13:
        SUBI	R19, 0
        BRNE	??monitor_change_state_11
// 2114              {
// 2115              case(EV_TC_ALARM):
// 2116                          send_info(sizeof(evc_alarm),evc_alarm,0,0);
        LDI	R20, 0
        LDI	R17, 0
        LDI	R18, LOW((evc_taken + 9))
        LDI	R19, HIGH((evc_taken + 9))
        LDI	R16, 9
        CALL	send_info
// 2117                         
// 2118                          Appl_seq.tm_vzat=Appl_seq.vol_tm_vzat;
        MOVW	R31:R30, R27:R26
        LDD	R16, Z+18
        LDD	R17, Z+19
        STD	Z+16, R16
        STD	Z+17, R17
// 2119                          Appl_seq.state=ST_ALARM;
        LDI	R16, 0
        STD	Z+14, R16
// 2120                          state_seq=ALARM;
        LDI	R16, 4
        RJMP	??monitor_change_state_18
// 2121                          buf[7]=ALARM;
// 2122                          buf[8]=sv1.tc & 0x01;
// 2123                          //óńňŕíîâčňü ôëŕă ĺńňü ńîáűňčĺ;
// 2124                          flag_msg=1;
// 2125                          break;
// 2126              default: break;
// 2127              }
// 2128      break;     
// 2129 case ST_VZATIE:
// 2130              switch(Appl_seq.event)
??monitor_change_state_14:
        SUBI	R19, 0
        BREQ	??monitor_change_state_19
        SUBI	R19, 2
        BREQ	??monitor_change_state_20
        RJMP	??monitor_change_state_11
// 2131              {
// 2132              case(EV_TC_ALARM):
// 2133                          Appl_seq.tm_vzat=Appl_seq.vol_tm_vzat;
??monitor_change_state_19:
        STD	Z+16, R16
        STD	Z+17, R17
// 2134                          Appl_seq.state=ST_ALARM;
        LDI	R16, 0
        RJMP	??monitor_change_state_17
// 2135                          break;
// 2136              case(EV_TM_OUT):
// 2137                          
// 2138                          send_info(sizeof(evc_taken),evc_taken,0,0);
??monitor_change_state_20:
        LDI	R20, 0
        LDI	R17, 0
        LDI	R18, LOW(evc_taken)
        LDI	R19, (evc_taken) >> 8
        LDI	R16, 9
        CALL	send_info
// 2139                          
// 2140                          Appl_seq.state=ST_VZAT;
        LDI	R16, 1
        MOVW	R31:R30, R27:R26
        STD	Z+14, R16
// 2141                          state_seq=VZAT;
        LDI	R16, 5
??monitor_change_state_18:
        STS	state_seq, R16
// 2142                          buf[7]=VZAT;
        STD	Y+7, R16
// 2143                          buf[8]=sv1.tc & 0x01;
        LDI	R30, LOW(state_seq)
        LDI	R31, (state_seq) >> 8
        LDD	R16, Z+1
        ANDI	R16, 0x01
        STD	Y+8, R16
// 2144                          flag_msg=1;
        CLR	R4
        INC	R4
// 2145                          //óńňŕíîâčňü ôëŕă ĺńňü ńîáűňčĺ;
// 2146                          break;       
// 2147              default: break;
// 2148              }
// 2149      break;          
// 2150      
// 2151 default: break;
// 2152 }
// 2153 
// 2154 }
// 2155 
// 2156 
// 2157 
// 2158 
// 2159 
// 2160 if (Appl_seq_des==1)return;//áëîęčđîâęŕ ńîîáůĺíčé
??monitor_change_state_11:
        MOVW	R31:R30, R27:R26
        ADIW	R31:R30, 62
        LD	R16, Z
        CPI	R16, 1
        BRNE	$+2+2
        RJMP	??monitor_change_state_21
// 2161 
// 2162 
// 2163 if ((flag_msg==1)||(fl_appl_seq1.send_state==1))
        LDI	R16, 1
        CP	R4, R16
        BREQ	??monitor_change_state_22
        LDI	R30, LOW((Appl_RS485_1 + 60))
        LDI	R31, HIGH((Appl_RS485_1 + 60))
        LD	R16, Z
        SBRS	R16, 1
        RJMP	??monitor_change_state_21
// 2164 {
// 2165 if(fl_appl_seq1.send_state==1)fl_appl_seq1.send_state=0; 
??monitor_change_state_22:
        LDI	R30, LOW((Appl_RS485_1 + 60))
        LDI	R31, HIGH((Appl_RS485_1 + 60))
        LD	R16, Z
        SBRS	R16, 1
        RJMP	??monitor_change_state_23
        LD	R16, Z
        ANDI	R16, 0xFD
        ST	Z, R16
// 2166 buf[0]=SEQ_STATE;
??monitor_change_state_23:
        LDI	R16, 6
        ST	Y, R16
// 2167 *(unsigned int*)&buf[1]=L_STATE;
        LDI	R16, 7
        LDI	R17, 0
        STD	Y+1, R16
        STD	Y+2, R17
// 2168 *(unsigned long int*)&buf[3]=burst_ds_r();
        CALL	burst_ds_r
        STD	Y+3, R16
        STD	Y+4, R17
        STD	Y+5, R18
        STD	Y+6, R19
// 2169 if(write_to_buf(&Appl_seq_buf[0],&Appl_seq.p_in,&Appl_seq.p_out,&Appl_seq.p_out_kv,&Appl_seq.crc,&buf[0],L_STATE+3, sizeof(Appl_seq_buf))==1)
        LDI	R16, 200
        LDI	R17, 0
        ST	-Y, R17
        CFI CFA_Y Y+16
        ST	-Y, R16
        CFI CFA_Y Y+17
        LDI	R16, 10
        ST	-Y, R17
        CFI CFA_Y Y+18
        ST	-Y, R16
        CFI CFA_Y Y+19
        MOVW	R17:R16, R29:R28
        SUBI	R16, 252
        SBCI	R17, 255
        ST	-Y, R17
        CFI CFA_Y Y+20
        ST	-Y, R16
        CFI CFA_Y Y+21
        MOVW	R17:R16, R27:R26
        SUBI	R16, 249
        SBCI	R17, 255
        ST	-Y, R17
        CFI CFA_Y Y+22
        ST	-Y, R16
        CFI CFA_Y Y+23
        MOVW	R23:R22, R27:R26
        SUBI	R22, 251
        SBCI	R23, 255
        MOVW	R21:R20, R27:R26
        SUBI	R20, 253
        SBCI	R21, 255
        ADIW	R27:R26, 1
        MOVW	R19:R18, R27:R26
        LDI	R16, LOW(Appl_seq_buf)
        LDI	R17, (Appl_seq_buf) >> 8
        CALL	write_to_buf
        CFI CFA_Y Y+15
        CPI	R16, 1
        BRNE	??monitor_change_state_21
// 2170                          {
// 2171                          fl_appl_seq1.over_buf=1;
        LDI	R30, LOW((Appl_RS485_1 + 60))
        LDI	R31, HIGH((Appl_RS485_1 + 60))
        LD	R16, Z
        ORI	R16, 0x01
        ST	Z, R16
??monitor_change_state_21:
        ADIW	R29:R28, 10
        CFI CFA_Y Y+5
        LDI	R30, 5
        JMP	?EPILOGUE_B5_L09
        CFI EndBlock cfiBlock30
// 2172                          }
// 2173 
// 2174 }
// 2175 
// 2176 
// 2177 } 
// 2178 
// 2179 
// 2180  

        RSEG CODE:CODE:NOROOT(1)
// 2181 void Application_SEQ_tx(void)
Application_SEQ_tx:
        CFI Block cfiBlock31 Using cfiCommon0
        CFI Function Application_SEQ_tx
// 2182 {
        FUNCALL Application_SEQ_tx, read_from_buf
        LOCFRAME CSTACK, 14, STACK
        LOCFRAME RSTACK, 2, STACK
        FUNCALL Application_SEQ_tx, clr_cntr_nat
        LOCFRAME CSTACK, 8, STACK
        LOCFRAME RSTACK, 2, STACK
        FUNCALL Application_SEQ_tx, send_info
        LOCFRAME CSTACK, 8, STACK
        LOCFRAME RSTACK, 2, STACK
        FUNCALL Application_SEQ_tx, form_buf_tx_ppp
        LOCFRAME CSTACK, 8, STACK
        LOCFRAME RSTACK, 2, STACK
        FUNCALL Application_SEQ_tx, check_cts
        LOCFRAME CSTACK, 8, STACK
        LOCFRAME RSTACK, 2, STACK
        CALL	?PROLOGUE4_L09
        CFI R27 Frame(CFA_Y, -1)
        CFI R26 Frame(CFA_Y, -2)
        CFI R25 Frame(CFA_Y, -3)
        CFI R24 Frame(CFA_Y, -4)
        CFI CFA_Y Y+4
// 2183  if(fl_appl_seq1.enable==0)return;
        LDI	R30, LOW(Appl_RS485_1)
        LDI	R31, (Appl_RS485_1) >> 8
        ADIW	R31:R30, 60
        LD	R16, Z
        SBRS	R16, 2
        RJMP	??Application_SEQ_tx_0
// 2184   
// 2185  if (Appl_seq_des==1)return;// áëîęčđîâęŕ ńîîáůĺíčé
        LDI	R24, LOW(Appl_seq)
        LDI	R25, (Appl_seq) >> 8
        MOVW	R31:R30, R25:R24
        ADIW	R31:R30, 62
        LD	R16, Z
        CPI	R16, 1
        BRNE	$+2+2
        RJMP	??Application_SEQ_tx_0
// 2186  
// 2187  if(Appl_seq.cntr_cl==TRUE) return;
        MOVW	R31:R30, R25:R24
        LDD	R16, Z+20
        CPI	R16, 1
        BRNE	$+2+2
        RJMP	??Application_SEQ_tx_0
// 2188  
// 2189  if((fl_lcp.act_lcp_end!=1)&&(fl_pap.act_pap_end!=1)||(fl_ipcp.act_ipcp_end!=1)||(fl_ip.act_ip_end!=1))return;
        LDI	R30, LOW(fl_lcp)
        LDI	R31, (fl_lcp) >> 8
        LD	R16, Z
        ANDI	R16, 0x01
        LDI	R30, LOW(fl_pap)
        LDI	R31, (fl_pap) >> 8
        LD	R17, Z
        ANDI	R17, 0x01
        OR	R17, R16
        LDI	R30, LOW(fl_ipcp)
        LDI	R31, (fl_ipcp) >> 8
        LD	R16, Z
        ANDI	R16, 0x01
        AND	R16, R17
        LDI	R30, LOW(fl_ip)
        LDI	R31, (fl_ip) >> 8
        LD	R17, Z
        ANDI	R17, 0x01
        AND	R17, R16
        BRNE	$+2+2
        RJMP	??Application_SEQ_tx_0
// 2190       //ďđîâĺđ˙ňü çäĺńü ăîňîâî ëč äë˙ îňďđŕâęč áóôĺđ PPP 
// 2191       
// 2192   
// 2193         Obj_ppp_tx.l_data=read_from_buf(&Appl_seq_buf[0],&Appl_seq.p_in,&Appl_seq.p_out,&Appl_seq.p_out_kv,&Appl_seq.crc,&buf_tx_232[TR_OP_DATA+C1_DATA],sizeof(Appl_seq_buf));  
        LDI	R26, LOW(Obj_ppp_tx)
        LDI	R27, (Obj_ppp_tx) >> 8
        LDI	R16, 200
        LDI	R17, 0
        ST	-Y, R17
        CFI CFA_Y Y+5
        ST	-Y, R16
        CFI CFA_Y Y+6
        LDI	R16, LOW(buf_tx_232)
        LDI	R17, (buf_tx_232) >> 8
        SUBI	R16, 212
        SBCI	R17, 255
        ST	-Y, R17
        CFI CFA_Y Y+7
        ST	-Y, R16
        CFI CFA_Y Y+8
        MOVW	R17:R16, R25:R24
        SUBI	R16, 249
        SBCI	R17, 255
        ST	-Y, R17
        CFI CFA_Y Y+9
        ST	-Y, R16
        CFI CFA_Y Y+10
        MOVW	R23:R22, R25:R24
        SUBI	R22, 251
        SBCI	R23, 255
        MOVW	R21:R20, R25:R24
        SUBI	R20, 253
        SBCI	R21, 255
        MOVW	R19:R18, R25:R24
        SUBI	R18, 255
        SBCI	R19, 255
        LDI	R16, LOW(Appl_seq_buf)
        LDI	R17, (Appl_seq_buf) >> 8
        CALL	read_from_buf
        CFI CFA_Y Y+4
        MOVW	R31:R30, R27:R26
        STD	Z+14, R16
        STD	Z+15, R17
// 2194           if(Obj_ppp_tx.l_data!=0)
        LDD	R16, Z+14
        LDD	R17, Z+15
        MOV	R18, R16
        OR	R18, R17
        BRNE	$+2+2
        RJMP	??Application_SEQ_tx_0
// 2195            {
// 2196               // ďđčđŕůĺíčĺ čäĺíňčôčęŕňîđŕ
// 2197               if(Appl_seq.l_data!=Obj_ppp_tx.l_data)
        MOVW	R31:R30, R25:R24
        LDD	R18, Z+12
        LDD	R19, Z+13
        CP	R18, R16
        CPC	R19, R17
        BRNE	$+2+2
        RJMP	??Application_SEQ_tx_0
// 2198                  {
// 2199                  if(fl_appl_seq.en_povtor==0)Appl_seq.id++;
        LDI	R30, LOW(Appl_RS485_1)
        LDI	R31, (Appl_RS485_1) >> 8
        LDD	R16, Z+59
        SBRC	R16, 2
        RJMP	??Application_SEQ_tx_1
        MOVW	R31:R30, R25:R24
        LD	R16, Z
        INC	R16
        ST	Z, R16
// 2200                  }else return;
// 2201                
// 2202 
// 2203                
// 2204                Appl_seq.cnt_waits=Control.vol_waits;              
??Application_SEQ_tx_1:
        MOVW	R31:R30, R25:R24
        LDD	R16, Z+38
        LDD	R17, Z+39
        STD	Z+9, R16
        STD	Z+10, R17
// 2205                fl_appl_seq.kv_waits=1;      
// 2206                fl_appl_seq.en_povtor=0;  
        LDI	R30, LOW(Appl_RS485_1)
        LDI	R31, (Appl_RS485_1) >> 8
        LDD	R16, Z+59
        ANDI	R16, 0xFB
        ORI	R16, 0x02
        STD	Z+59, R16
// 2207                Appl_seq.l_data=Obj_ppp_tx.l_data;
        MOVW	R31:R30, R27:R26
        LDD	R16, Z+14
        LDD	R17, Z+15
        MOVW	R31:R30, R25:R24
        STD	Z+12, R16
        STD	Z+13, R17
// 2208              
// 2209              
// 2210              //ôîđěčđîâŕíčĺ íŕ ďĺđĺäŕ÷ó â áóôôĺđ
// 2211                clr_cntr_nat();
        RCALL	clr_cntr_nat
// 2212               
// 2213               // clr_cntr_link_2(); // proverka
// 2214                
// 2215                fl_ip.act_ip_end=0;
        LDI	R30, LOW(fl_ip)
        LDI	R31, (fl_ip) >> 8
        LD	R16, Z
        ANDI	R16, 0xFE
        ST	Z, R16
// 2216   
// 2217                Obj_ppp_tx.prozr=FALSE;            
        LDI	R16, 0
        ST	X, R16
// 2218                Obj_ppp_tx.version=VER2;      //âĺđńč˙ 
        LDI	R16, 2
        MOVW	R31:R30, R27:R26
        STD	Z+1, R16
// 2219                Obj_ppp_tx.type_pac=SOOB;     //ňčď ďŕęĺňŕ
        STD	Z+2, R16
// 2220                Obj_ppp_tx.num_src=num_self; // íîěĺđ îňďđŕâčňĺë˙
        MOVW	R31:R30, R25:R24
        LDD	R16, Z+56
        LDD	R17, Z+57
        MOVW	R31:R30, R27:R26
        STD	Z+3, R16
        STD	Z+4, R17
// 2221                Obj_ppp_tx.num_dst=num_seq_cl; // íîěĺđ ďîëó÷ŕňĺë˙ // ďîňîě óńňŕíîâčňü ďîäóěŕňü íĺ îňîřëĺňń˙ ëč ýňî äđóăčě ęîňíđîëëĺđŕě
        MOVW	R31:R30, R25:R24
        LDD	R16, Z+58
        LDD	R17, Z+59
        MOVW	R31:R30, R27:R26
        STD	Z+5, R16
        STD	Z+6, R17
// 2222                Obj_ppp_tx.id_pac=Appl_seq.id; // čäĺíňčôčęŕňîđ ďŕęĺňŕ  
        MOVW	R31:R30, R25:R24
        LD	R16, Z
        MOVW	R31:R30, R27:R26
        STD	Z+7, R16
// 2223                Obj_ppp_tx.p_opt=&buf_opt_tr[0]; // //óęŕçŕňĺëü áóôĺđŕ îďöčé  
        LDI	R16, LOW((Appl_RS232_2 + 19))
        LDI	R17, HIGH((Appl_RS232_2 + 19))
        STD	Z+8, R16
        STD	Z+9, R17
// 2224                Obj_ppp_tx.l_opt=0;// äëčíŕ áóôĺđŕ îďöčé   
        LDI	R16, 0
        STD	Z+10, R16
// 2225                Obj_ppp_tx.kol_opt=0;// ęîëč÷ĺńňâî îďöčé 
        STD	Z+11, R16
// 2226   
// 2227 
// 2228                buf_tx_232[TR_OP_DATA+C1_PROT]=PROT_C1;
        LDI	R16, 1
        LDI	R30, LOW(buf_tx_232)
        LDI	R31, (buf_tx_232) >> 8
        STD	Z+42, R16
// 2229                buf_tx_232[TR_OP_DATA+C1_PORT]=PORT_SEQ;
        LDI	R16, 4
        STD	Z+43, R16
// 2230                
// 2231                Obj_ppp_tx.l_data=2+Obj_ppp_tx.l_data;   // äëčíŕ äŕííűő
        MOVW	R31:R30, R27:R26
        LDD	R16, Z+14
        LDD	R17, Z+15
        SUBI	R16, 254
        SBCI	R17, 255
        STD	Z+14, R16
        STD	Z+15, R17
// 2232                Obj_ppp_tx.p_data=&buf_tx_232[TR_OP_DATA+C1_PROT];  //óęŕçŕňĺëü áóôĺđŕ äŕííűő 
        LDI	R16, LOW(buf_tx_232)
        LDI	R17, (buf_tx_232) >> 8
        SUBI	R16, 214
        SBCI	R17, 255
        STD	Z+12, R16
        STD	Z+13, R17
// 2233  
// 2234                send_info(sizeof(msg_evc),msg_evc,1,Obj_ppp_tx.id_pac);
        LDD	R20, Z+7
        LDI	R17, 1
        LDI	R18, LOW(msg_evc)
        LDI	R19, (msg_evc) >> 8
        LDI	R16, 7
        CALL	send_info
// 2235                
// 2236                form_buf_tx_ppp();    
        RCALL	form_buf_tx_ppp
// 2237                
// 2238                                 
// 2239                UCSR0A=UCSR0A | TXC;                            
        LDS	R16, 192
        ORI	R16, 0x40
        STS	192, R16
// 2240                UCSR0B=UCSR0B | TXEN;
        LDS	R16, 193
        ORI	R16, 0x08
        STS	193, R16
// 2241                UCSR0B=UCSR0B | TXCIE;
        LDS	R16, 193
        ORI	R16, 0x40
        STS	193, R16
// 2242                if(check_cts()==1) return;                
        CALL	check_cts
        CPI	R16, 1
        BREQ	??Application_SEQ_tx_0
// 2243                S2_RD;
        SBI	0x08, 0x00
        CBI	0x08, 0x01
// 2244                UDR0=buf_tx_232[0];
        LDI	R30, LOW(buf_tx_232)
        LDI	R31, (buf_tx_232) >> 8
        LD	R16, Z
        STS	198, R16
// 2245                if(Regim==RG_DEBAG) UDR3=buf_tx_232[0];
        LDS	R16, Regim
        CPI	R16, 1
        BRNE	??Application_SEQ_tx_0
        LD	R16, Z
        STS	310, R16
??Application_SEQ_tx_0:
        LDI	R30, 4
        JMP	?EPILOGUE_B4_L09
        CFI EndBlock cfiBlock31
// 2246 
// 2247                 return;     
// 2248            }    
// 2249 
// 2250  
// 2251  }
// 2252 
// 2253 

        RSEG CODE:CODE:NOROOT(1)
// 2254  void check_wdt(void)
check_wdt:
        CFI Block cfiBlock32 Using cfiCommon0
        CFI Function check_wdt
// 2255  {
        FUNCALL check_wdt, write_log_info
        LOCFRAME CSTACK, 4, STACK
        LOCFRAME RSTACK, 2, STACK
        FUNCALL check_wdt, lock_it
        LOCFRAME CSTACK, 4, STACK
        LOCFRAME RSTACK, 2, STACK
        FUNCALL check_wdt, crc_ozu
        LOCFRAME CSTACK, 4, STACK
        LOCFRAME RSTACK, 2, STACK
        FUNCALL check_wdt, write_log_info
        LOCFRAME CSTACK, 4, STACK
        LOCFRAME RSTACK, 2, STACK
        FUNCALL check_wdt, lock_it
        LOCFRAME CSTACK, 4, STACK
        LOCFRAME RSTACK, 2, STACK
        FUNCALL check_wdt, crc_m1
        LOCFRAME CSTACK, 4, STACK
        LOCFRAME RSTACK, 2, STACK
        FUNCALL check_wdt, write_log_info
        LOCFRAME CSTACK, 4, STACK
        LOCFRAME RSTACK, 2, STACK
        FUNCALL check_wdt, lock_it
        LOCFRAME CSTACK, 4, STACK
        LOCFRAME RSTACK, 2, STACK
        CALL	?PROLOGUE4_L09
        CFI R27 Frame(CFA_Y, -1)
        CFI R26 Frame(CFA_Y, -2)
        CFI R25 Frame(CFA_Y, -3)
        CFI R24 Frame(CFA_Y, -4)
        CFI CFA_Y Y+4
// 2256  fl_wdt.clr_wdt=0;  
        LDI	R26, LOW(Appl_RS485_1)
        LDI	R27, (Appl_RS485_1) >> 8
        MOVW	R31:R30, R27:R26
        LDD	R16, Z+55
        ANDI	R16, 0xFE
        STD	Z+55, R16
// 2257   
// 2258  if (fl_wdt.fl_out==1)
        LDD	R16, Z+55
        SBRS	R16, 1
        RJMP	??check_wdt_0
// 2259      {                 
// 2260      
// 2261                  
// 2262      if((fl_wdt.from_timer0!=1)||(fl_wdt.fl_main!=1)||
// 2263         (fl_wdt.from_timer3!=1)||
// 2264         (fl_wdt.from_timer2!=1)||
// 2265         (fl_wdt.from_adc!=1))
        LDD	R16, Z+55
        ANDI	R16, 0x7C
        CPI	R16, 124
        BREQ	??check_wdt_1
// 2266         {
// 2267         write_log_info(ST_ERROR,ERR1);
        LDI	R17, 1
        LDI	R16, 2
        CALL	write_log_info
// 2268         lock_it();
        CALL	lock_it
// 2269         }
// 2270 
// 2271      if (prov_ozu!=crc_ozu())
??check_wdt_1:
        LDI	R30, LOW(prov_ozu)
        LDI	R31, (prov_ozu) >> 8
        LD	R24, Z
        LDD	R25, Z+1
        CALL	crc_ozu
        CP	R24, R16
        CPC	R25, R17
        BREQ	??check_wdt_2
// 2272          {
// 2273          write_log_info(ST_ERROR,ERR2);
        LDI	R17, 2
        LDI	R16, 2
        CALL	write_log_info
// 2274          lock_it();
        CALL	lock_it
// 2275          }
// 2276      
// 2277      if(*(unsigned int*)&keys[L_KEYS-2]!=crc_m1(&keys[0],L_KEYS-2,0xffff))
??check_wdt_2:
        LDI	R16, LOW(keys)
        LDI	R17, (keys) >> 8
        MOVW	R31:R30, R17:R16
        LDD	R24, Z+8
        LDD	R25, Z+9
        LDI	R20, 255
        LDI	R21, 255
        LDI	R18, 8
        LDI	R19, 0
        CALL	crc_m1
        CP	R24, R16
        CPC	R25, R17
        BREQ	??check_wdt_3
// 2278      {
// 2279        write_log_info(ST_ERROR,ERR3);
        LDI	R17, 3
        LDI	R16, 2
        CALL	write_log_info
// 2280        lock_it();
        CALL	lock_it
// 2281      }
// 2282      
// 2283      
// 2284      fl_wdt.from_timer0=0; 
// 2285      fl_wdt.from_timer3=0; 
// 2286      fl_wdt.from_timer2=0;
// 2287      fl_wdt.fl_main=0;    
// 2288      fl_wdt.fl_out=0;  
??check_wdt_3:
        MOVW	R31:R30, R27:R26
        LDD	R16, Z+55
        ANDI	R16, 0xC1
        STD	Z+55, R16
// 2289      }  
// 2290   __watchdog_reset();   
??check_wdt_0:
        WDR
// 2291  }  
        LDI	R30, 4
        JMP	?EPILOGUE_B4_L09
        CFI EndBlock cfiBlock32
// 2292 
// 2293 
// 2294 
// 2295 
// 2296 

        RSEG CODE:CODE:NOROOT(1)
// 2297 void modem_engine(void)  
modem_engine:
        CFI Block cfiBlock33 Using cfiCommon0
        CFI Function modem_engine
// 2298 {
        FUNCALL modem_engine, start_func_stm_on
        LOCFRAME CSTACK, 2, STACK
        LOCFRAME RSTACK, 2, STACK
        FUNCALL modem_engine, write_log_info
        LOCFRAME CSTACK, 2, STACK
        LOCFRAME RSTACK, 2, STACK
        FUNCALL modem_engine, lock_it
        LOCFRAME CSTACK, 2, STACK
        LOCFRAME RSTACK, 2, STACK
        FUNCALL modem_engine, check_wdt
        LOCFRAME CSTACK, 2, STACK
        LOCFRAME RSTACK, 2, STACK
        FUNCALL modem_engine, supervisorwdt
        LOCFRAME CSTACK, 2, STACK
        LOCFRAME RSTACK, 2, STACK
        FUNCALL modem_engine, monitor_change_state
        LOCFRAME CSTACK, 2, STACK
        LOCFRAME RSTACK, 2, STACK
        FUNCALL modem_engine, control_temperatura
        LOCFRAME CSTACK, 2, STACK
        LOCFRAME RSTACK, 2, STACK
        FUNCALL modem_engine, start_func_stm_kon
        LOCFRAME CSTACK, 2, STACK
        LOCFRAME RSTACK, 2, STACK
        FUNCALL modem_engine, write_log_info
        LOCFRAME CSTACK, 2, STACK
        LOCFRAME RSTACK, 2, STACK
        FUNCALL modem_engine, lock_it
        LOCFRAME CSTACK, 2, STACK
        LOCFRAME RSTACK, 2, STACK
        FUNCALL modem_engine, start_func_stm_pwk
        LOCFRAME CSTACK, 2, STACK
        LOCFRAME RSTACK, 2, STACK
        FUNCALL modem_engine, send_info
        LOCFRAME CSTACK, 2, STACK
        LOCFRAME RSTACK, 2, STACK
        FUNCALL modem_engine, init_scen_stm_si
        LOCFRAME CSTACK, 2, STACK
        LOCFRAME RSTACK, 2, STACK
        FUNCALL modem_engine, at_com_tx
        LOCFRAME CSTACK, 2, STACK
        LOCFRAME RSTACK, 2, STACK
        FUNCALL modem_engine, at_com_rx
        LOCFRAME CSTACK, 2, STACK
        LOCFRAME RSTACK, 2, STACK
        FUNCALL modem_engine, at_com_scen_init
        LOCFRAME CSTACK, 2, STACK
        LOCFRAME RSTACK, 2, STACK
        FUNCALL modem_engine, send_info
        LOCFRAME CSTACK, 2, STACK
        LOCFRAME RSTACK, 2, STACK
        FUNCALL modem_engine, write_log_info
        LOCFRAME CSTACK, 2, STACK
        LOCFRAME RSTACK, 2, STACK
        FUNCALL modem_engine, init_scen_stm_sc
        LOCFRAME CSTACK, 2, STACK
        LOCFRAME RSTACK, 2, STACK
        FUNCALL modem_engine, send_info
        LOCFRAME CSTACK, 2, STACK
        LOCFRAME RSTACK, 2, STACK
        FUNCALL modem_engine, start_func_stm_off
        LOCFRAME CSTACK, 2, STACK
        LOCFRAME RSTACK, 2, STACK
        FUNCALL modem_engine, send_info
        LOCFRAME CSTACK, 2, STACK
        LOCFRAME RSTACK, 2, STACK
        FUNCALL modem_engine, start_func_stm_off
        LOCFRAME CSTACK, 2, STACK
        LOCFRAME RSTACK, 2, STACK
        FUNCALL modem_engine, at_com_tx
        LOCFRAME CSTACK, 2, STACK
        LOCFRAME RSTACK, 2, STACK
        FUNCALL modem_engine, at_com_rx
        LOCFRAME CSTACK, 2, STACK
        LOCFRAME RSTACK, 2, STACK
        FUNCALL modem_engine, at_com_scen_stm_sc
        LOCFRAME CSTACK, 2, STACK
        LOCFRAME RSTACK, 2, STACK
        FUNCALL modem_engine, send_info
        LOCFRAME CSTACK, 2, STACK
        LOCFRAME RSTACK, 2, STACK
        FUNCALL modem_engine, write_log_info
        LOCFRAME CSTACK, 2, STACK
        LOCFRAME RSTACK, 2, STACK
        FUNCALL modem_engine, start_func_stm_scp
        LOCFRAME CSTACK, 2, STACK
        LOCFRAME RSTACK, 2, STACK
        FUNCALL modem_engine, analiz_ppp_rx
        LOCFRAME CSTACK, 2, STACK
        LOCFRAME RSTACK, 2, STACK
        FUNCALL modem_engine, monitor_event_LCP
        LOCFRAME CSTACK, 2, STACK
        LOCFRAME RSTACK, 2, STACK
        FUNCALL modem_engine, monitor_act_LCP
        LOCFRAME CSTACK, 2, STACK
        LOCFRAME RSTACK, 2, STACK
        FUNCALL modem_engine, monitor_event_PAP
        LOCFRAME CSTACK, 2, STACK
        LOCFRAME RSTACK, 2, STACK
        FUNCALL modem_engine, monitor_act_PAP
        LOCFRAME CSTACK, 2, STACK
        LOCFRAME RSTACK, 2, STACK
        FUNCALL modem_engine, monitor_event_IPCP
        LOCFRAME CSTACK, 2, STACK
        LOCFRAME RSTACK, 2, STACK
        FUNCALL modem_engine, monitor_act_IPCP
        LOCFRAME CSTACK, 2, STACK
        LOCFRAME RSTACK, 2, STACK
        FUNCALL modem_engine, send_info
        LOCFRAME CSTACK, 2, STACK
        LOCFRAME RSTACK, 2, STACK
        FUNCALL modem_engine, write_log_info
        LOCFRAME CSTACK, 2, STACK
        LOCFRAME RSTACK, 2, STACK
        FUNCALL modem_engine, send_info
        LOCFRAME CSTACK, 2, STACK
        LOCFRAME RSTACK, 2, STACK
        FUNCALL modem_engine, write_log_info
        LOCFRAME CSTACK, 2, STACK
        LOCFRAME RSTACK, 2, STACK
        FUNCALL modem_engine, send_info
        LOCFRAME CSTACK, 2, STACK
        LOCFRAME RSTACK, 2, STACK
        FUNCALL modem_engine, write_log_info
        LOCFRAME CSTACK, 2, STACK
        LOCFRAME RSTACK, 2, STACK
        FUNCALL modem_engine, send_info
        LOCFRAME CSTACK, 2, STACK
        LOCFRAME RSTACK, 2, STACK
        FUNCALL modem_engine, write_log_info
        LOCFRAME CSTACK, 2, STACK
        LOCFRAME RSTACK, 2, STACK
        FUNCALL modem_engine, send_info
        LOCFRAME CSTACK, 2, STACK
        LOCFRAME RSTACK, 2, STACK
        FUNCALL modem_engine, write_log_info
        LOCFRAME CSTACK, 2, STACK
        LOCFRAME RSTACK, 2, STACK
        FUNCALL modem_engine, clr_var_ppp_rx
        LOCFRAME CSTACK, 2, STACK
        LOCFRAME RSTACK, 2, STACK
        FUNCALL modem_engine, analiz_ppp_rx
        LOCFRAME CSTACK, 2, STACK
        LOCFRAME RSTACK, 2, STACK
        FUNCALL modem_engine, monitor_event_IPCP
        LOCFRAME CSTACK, 2, STACK
        LOCFRAME RSTACK, 2, STACK
        FUNCALL modem_engine, monitor_act_IPCP
        LOCFRAME CSTACK, 2, STACK
        LOCFRAME RSTACK, 2, STACK
        FUNCALL modem_engine, monitor1_tx_rs485_1
        LOCFRAME CSTACK, 2, STACK
        LOCFRAME RSTACK, 2, STACK
        FUNCALL modem_engine, monitor1_rec_rs485_1
        LOCFRAME CSTACK, 2, STACK
        LOCFRAME RSTACK, 2, STACK
        FUNCALL modem_engine, monitor1_tm_rs485_1
        LOCFRAME CSTACK, 2, STACK
        LOCFRAME RSTACK, 2, STACK
        FUNCALL modem_engine, monitor1_tx_rs485_2
        LOCFRAME CSTACK, 2, STACK
        LOCFRAME RSTACK, 2, STACK
        FUNCALL modem_engine, monitor1_rec_rs485_2
        LOCFRAME CSTACK, 2, STACK
        LOCFRAME RSTACK, 2, STACK
        FUNCALL modem_engine, monitor1_tm_rs485_2
        LOCFRAME CSTACK, 2, STACK
        LOCFRAME RSTACK, 2, STACK
        FUNCALL modem_engine, monitor1_tx_rs232_2
        LOCFRAME CSTACK, 2, STACK
        LOCFRAME RSTACK, 2, STACK
        FUNCALL modem_engine, monitor1_rec_rs232_2
        LOCFRAME CSTACK, 2, STACK
        LOCFRAME RSTACK, 2, STACK
        FUNCALL modem_engine, monitor1_tm_rs232_2
        LOCFRAME CSTACK, 2, STACK
        LOCFRAME RSTACK, 2, STACK
        FUNCALL modem_engine, Application_SEQ_tx
        LOCFRAME CSTACK, 2, STACK
        LOCFRAME RSTACK, 2, STACK
        FUNCALL modem_engine, monitor_cntr_ch
        LOCFRAME CSTACK, 2, STACK
        LOCFRAME RSTACK, 2, STACK
        FUNCALL modem_engine, monitor_cntr_cl_seq
        LOCFRAME CSTACK, 2, STACK
        LOCFRAME RSTACK, 2, STACK
        FUNCALL modem_engine, monitor_cntr_nat
        LOCFRAME CSTACK, 2, STACK
        LOCFRAME RSTACK, 2, STACK
        FUNCALL modem_engine, send_info
        LOCFRAME CSTACK, 2, STACK
        LOCFRAME RSTACK, 2, STACK
        FUNCALL modem_engine, write_log_info
        LOCFRAME CSTACK, 2, STACK
        LOCFRAME RSTACK, 2, STACK
        FUNCALL modem_engine, send_info
        LOCFRAME CSTACK, 2, STACK
        LOCFRAME RSTACK, 2, STACK
        FUNCALL modem_engine, write_log_info
        LOCFRAME CSTACK, 2, STACK
        LOCFRAME RSTACK, 2, STACK
        FUNCALL modem_engine, clr_var_ppp_rx
        LOCFRAME CSTACK, 2, STACK
        LOCFRAME RSTACK, 2, STACK
        FUNCALL modem_engine, send_info
        LOCFRAME CSTACK, 2, STACK
        LOCFRAME RSTACK, 2, STACK
        FUNCALL modem_engine, write_log_info
        LOCFRAME CSTACK, 2, STACK
        LOCFRAME RSTACK, 2, STACK
        FUNCALL modem_engine, send_info
        LOCFRAME CSTACK, 2, STACK
        LOCFRAME RSTACK, 2, STACK
        FUNCALL modem_engine, write_log_info
        LOCFRAME CSTACK, 2, STACK
        LOCFRAME RSTACK, 2, STACK
        FUNCALL modem_engine, send_info
        LOCFRAME CSTACK, 2, STACK
        LOCFRAME RSTACK, 2, STACK
        FUNCALL modem_engine, write_log_info
        LOCFRAME CSTACK, 2, STACK
        LOCFRAME RSTACK, 2, STACK
        FUNCALL modem_engine, monitor1_rec_rs485_1
        LOCFRAME CSTACK, 2, STACK
        LOCFRAME RSTACK, 2, STACK
        FUNCALL modem_engine, monitor1_tm_rs485_1
        LOCFRAME CSTACK, 2, STACK
        LOCFRAME RSTACK, 2, STACK
        FUNCALL modem_engine, monitor1_rec_rs485_2
        LOCFRAME CSTACK, 2, STACK
        LOCFRAME RSTACK, 2, STACK
        FUNCALL modem_engine, monitor1_tm_rs485_2
        LOCFRAME CSTACK, 2, STACK
        LOCFRAME RSTACK, 2, STACK
        FUNCALL modem_engine, monitor1_rec_rs232_2
        LOCFRAME CSTACK, 2, STACK
        LOCFRAME RSTACK, 2, STACK
        FUNCALL modem_engine, monitor1_tm_rs232_2
        LOCFRAME CSTACK, 2, STACK
        LOCFRAME RSTACK, 2, STACK
        FUNCALL modem_engine, write_log_info
        LOCFRAME CSTACK, 2, STACK
        LOCFRAME RSTACK, 2, STACK
        FUNCALL modem_engine, start_func_stm_off
        LOCFRAME CSTACK, 2, STACK
        LOCFRAME RSTACK, 2, STACK
        FUNCALL modem_engine, at_com_tx
        LOCFRAME CSTACK, 2, STACK
        LOCFRAME RSTACK, 2, STACK
        FUNCALL modem_engine, at_com_rx
        LOCFRAME CSTACK, 2, STACK
        LOCFRAME RSTACK, 2, STACK
        FUNCALL modem_engine, at_com_scen_stm_dc_1
        LOCFRAME CSTACK, 2, STACK
        LOCFRAME RSTACK, 2, STACK
        FUNCALL modem_engine, write_log_info
        LOCFRAME CSTACK, 2, STACK
        LOCFRAME RSTACK, 2, STACK
        FUNCALL modem_engine, init_scen_stm_sc
        LOCFRAME CSTACK, 2, STACK
        LOCFRAME RSTACK, 2, STACK
        FUNCALL modem_engine, write_log_info
        LOCFRAME CSTACK, 2, STACK
        LOCFRAME RSTACK, 2, STACK
        FUNCALL modem_engine, start_func_stm_off
        LOCFRAME CSTACK, 2, STACK
        LOCFRAME RSTACK, 2, STACK
        FUNCALL modem_engine, start_func_stm_on
        LOCFRAME CSTACK, 2, STACK
        LOCFRAME RSTACK, 2, STACK
        ST	-Y, R27
        CFI R27 Frame(CFA_Y, -1)
        CFI CFA_Y Y+1
        ST	-Y, R26
        CFI R26 Frame(CFA_Y, -2)
        CFI CFA_Y Y+2
// 2299   start_func_stm_on();//ďîäŕ÷ŕ ďčňŕíč˙-âęëţ÷ĺíčĺ ěîäĺěŕ â đŕáî÷ĺě đĺćčěĺ
        CALL	start_func_stm_on
        RJMP	??modem_engine_0
// 2300   //fl_wdt.fl_main=1;
// 2301   
// 2302   while(1){
// 2303             
// 2304             
// 2305             
// 2306            if(fl_wdt.clr_wdt==1) check_wdt();
// 2307            fl_wdt.fl_main=1; 
// 2308            
// 2309            
// 2310            supervisorwdt();
// 2311             
// 2312             
// 2313             monitor_change_state(); // çŕďčńč ńîńňî˙íčč îőđŕíű
// 2314 
// 2315             control_temperatura();
// 2316             
// 2317             switch(state_modem)
// 2318                {
// 2319                  case STM_ON: 
// 2320                               
// 2321                               switch(event_modem)
// 2322                                      {
// 2323                                      case EVM_TM1:
// 2324                                                   
// 2325                                                   start_func_stm_kon();
// 2326                                                   break;  
// 2327                                     
// 2328                                      case EVM_NONE: break;
// 2329                                      
// 2330                                                      
// 2331                                      default:            
// 2332                                                      write_log_info(ST_ERROR,ERR8);
// 2333                                                      lock_it();        
// 2334                                                      break;
// 2335                                      }
// 2336                   break;
// 2337                   
// 2338                  case STM_KON: 
// 2339                               
// 2340                               switch(event_modem)
// 2341                                      {
// 2342                                      case EVM_TM1:
// 2343                                                   start_func_stm_pwk();
// 2344                                                   break;
// 2345                                                   
// 2346                                      case EVM_NONE: break;
// 2347                                      
// 2348                                                      
// 2349                                     default:            
// 2350                                                      write_log_info(ST_ERROR,ERR8);
// 2351                                                     lock_it();        
// 2352                                                      break;
// 2353                                      }
// 2354                   break;  
// 2355                
// 2356                 case STM_PWK: 
// 2357                               
// 2358                               switch(event_modem)
// 2359                                      {
// 2360                                      case EVM_TM1:
// 2361                                                   send_info(sizeof(stm_si),stm_si,0,0);
// 2362                                                   state_modem=STM_SI;
// 2363                                                   init_scen_stm_si();
// 2364                                                   event_modem=EVM_NONE;
// 2365                                                   command_AT=TRUE;// âęëţ÷ĺí ęîěěŕíäíűé đĺćčě
// 2366                                      break;
// 2367                                      
// 2368                                                   
// 2369                                      case EVM_NONE: break;
// 2370                                                      
// 2371                                       default: 
// 2372                                                 write_log_info(ST_ERROR,ERR8);
// 2373                                                 lock_it();
// 2374                                                break; 
// 2375                                      
// 2376                                      }
// 2377                   break; 
// 2378                
// 2379                case STM_SI:
// 2380                              // âűďîëíĺíčĺ ďđîöĺäóđ - ńöĺíŕđčé
// 2381                               at_com_tx(cnt_com);
// 2382                               at_com_rx(cnt_com);
// 2383                               at_com_scen_init(&cnt_com,&rep);
// 2384      
// 2385                               switch(event_modem)
// 2386                                      {
// 2387                                      case EVM_AT_OK:
// 2388                                                    send_info(sizeof(stm_sc),stm_sc,0,0);
// 2389                                                    write_log_info(ST_MODEM,MDM_INIT); 
// 2390                                                    state_modem=STM_SC;
// 2391                                                    init_scen_stm_sc();
// 2392                                                    event_modem=EVM_NONE;
// 2393                                                    command_AT=TRUE;// âęëţ÷ĺí ęîěěŕíäíűé đĺćčě
// 2394                                      break;
// 2395                                      case EVM_AT_ERR:
// 2396                                                     send_info(sizeof(evm_at_err),evm_at_err,0,0); 
// 2397                                                     start_func_stm_off();
// 2398 
// 2399                                      break;
// 2400                                      
// 2401                                      
// 2402                                                   
// 2403                                     case EVM_NONE:
// 2404                                                      if(Fl_ch_sim==1)
// 2405                                                         {
// 2406                                                          send_info(sizeof(evm_ch_sim),evm_ch_sim,0,0); 
// 2407                                                         //âűęëţ÷ŕĺě ěîäĺě ńđŕçó!!!!
// 2408                                                          state_modem=STM_OFF;
// 2409                                                          start_func_stm_off();
// 2410                                                          event_modem=EVM_NONE;
// 2411                                                          command_AT=TRUE;// âęëţ÷ĺí ęîěěŕíäíűé đĺćčě
// 2412                                                   /////////////////////////////////////////////     
// 2413                                                         }break;
// 2414                                                      
// 2415                                       default: 
// 2416                                                write_log_info(ST_ERROR,ERR8);
// 2417                                                lock_it();
// 2418                                                break; 
// 2419                                      
// 2420                                      }
// 2421                   break;
// 2422                   
// 2423                
// 2424                case STM_SC:
// 2425                                    // âűďîëíĺíčĺ ďđîöĺäóđ - ńöĺíŕđčé
// 2426                                    
// 2427                               at_com_tx(cnt_com);
// 2428                               at_com_rx(cnt_com);
// 2429                               at_com_scen_stm_sc(&cnt_com,&rep);                                   
// 2430                               switch(event_modem)
// 2431                                      {
// 2432                                      case EVM_AT_OK:
// 2433                                                    send_info(sizeof(stm_scp),stm_scp,0,0);
// 2434                                                    write_log_info(ST_MODEM,MDM_CON); 
// 2435                                                    state_modem=STM_SCP;
// 2436                                                    start_func_stm_scp();
// 2437                                                    event_modem=EVM_NONE;
// 2438  
// 2439                                      break;
// 2440                                      case EVM_AT_ERR:
// 2441                                                    send_info(sizeof(evm_at_err),evm_at_err,0,0);
// 2442                                                    start_func_stm_off();
// 2443                                      break;
// 2444                                      
// 2445                                      
// 2446                                                   
// 2447                                      case EVM_NONE: break;
// 2448                                                      
// 2449                                       default: write_log_info(ST_ERROR,ERR8);
// 2450                                                lock_it();
// 2451                                                break; 
// 2452                                      
// 2453                                      }
// 2454                   break;
// 2455                   
// 2456               
// 2457                case STM_SCP:
// 2458                                    
// 2459                  
// 2460                                       // âűďîëíĺíčĺ ďđîöĺäóđ - ńöĺíŕđčé
// 2461                             analiz_ppp_rx();          
// 2462                           
// 2463                          
// 2464                              if (layer_PPP!=LAYER_HW) 
// 2465                                              {
// 2466                                               monitor_event_LCP();   
// 2467                                               monitor_act_LCP();  
// 2468                                               }  
// 2469                              
// 2470                           
// 2471                                         if (layer_PPP==LAYER_PAP) 
// 2472                                              {
// 2473     
// 2474                                                monitor_event_PAP();   
// 2475                                                monitor_act_PAP();  
// 2476                                              }  
// 2477 
// 2478                                    
// 2479                 
// 2480                                         if ((layer_PPP!=LAYER_HW)&&(layer_PPP!=LAYER_PAP)) 
// 2481                                              {
// 2482                                                 
// 2483                                                 monitor_event_IPCP();   
// 2484                                                 monitor_act_IPCP();  
// 2485                                              } 
// 2486                                         
// 2487                                        
// 2488           
// 2489                    
// 2490                                           
// 2491                                         
// 2492                                          if(PINE & DCD0==0)event_modem=EVM_DCD_ERR;
// 2493 
// 2494                                         
// 2495                                 
// 2496                                         
// 2497                   
// 2498                                switch(event_modem)
// 2499                                      {                                  
// 2500                                      case EVM_NONE: break;
// 2501                                      case EVM_PPP_OK:
// 2502                                                    send_info(sizeof(stm_ppp),stm_ppp,0,0);
// 2503                                                    write_log_info(ST_SET_PPP,SET_PPP_OK); 
// 2504                                                    
// 2505                                                    S5_OFF;
// 2506                                                    
// 2507                                                    state_led_md=LED_MD_PPP;
// 2508                                                    cnt_stm_tm1=0;
// 2509                                                    state_modem=STM_PPP;
// 2510                                                    event_modem=EVM_NONE;
// 2511                                                    command_AT=FALSE;// âűęëţ÷ĺí ęîěěŕíäíűé đĺćčě
// 2512                                                    
// 2513                                                    //!!!!!! dobavka
// 2514                                                    if((simka==SIM_RES)&&(cnt_link_res==0))cnt_link_res=vol_cnt_link_res;
// 2515                                                    //EEEEEEEEE dobavka
// 2516                                                    
// 2517                                                    break;
// 2518                                      case EVM_TM1: 
// 2519                                                   send_info(sizeof(evm_tm),evm_tm,0,0);
// 2520                                                   write_log_info(ST_SET_PPP,SET_PPP_TM); 
// 2521                                                   goto err_set_ppp;
// 2522                                      case EVM_PPP_ERR: 
// 2523                                                   send_info(sizeof(evm_ppp_err),evm_ppp_err,0,0);
// 2524                                                   write_log_info(ST_SET_PPP,SET_PPP_RJ);
// 2525                                                   goto err_set_ppp;   
// 2526                                      case EVM_DCD_ERR:
// 2527                                                    send_info(sizeof(evm_dcd_err),evm_dcd_err,0,0);
// 2528                                                    write_log_info(ST_SET_PPP,SET_PPP_DCD);
// 2529                                                    goto err_set_ppp;
// 2530                                      case EVM_CTS_ERR:
// 2531                                                    send_info(sizeof(evm_cts_err),evm_cts_err,0,0);
// 2532                                                    write_log_info(ST_SET_PPP,SET_PPP_CTS); 
// 2533                                        err_set_ppp:  
// 2534                                             
// 2535                                                    
// 2536                                                       //  st_gprs_att();
// 2537                                                       cnt_cts_off=0;             
// 2538                                                       fl_cts_232_ignor=TRUE;
// 2539                                                       state_modem=STM_RDC; 
// 2540                                                       clr_var_ppp_rx();//îáíóëčňü âńĺ ÷ňî ęŕńŕĺňń˙ ďđčĺěó ďî GPRS č çŕďđĺňčňü ďđčĺě
// 2541                                                       event_modem=EVM_NONE;
// 2542                                                       command_AT=FALSE;// âűęëţ÷ĺí ęîěěŕíäíűé đĺćčě
// 2543                                      break;
// 2544                                      
// 2545                                      
// 2546                                      default:  write_log_info(ST_ERROR,ERR8);
// 2547                                                lock_it();
// 2548                                                break; 
// 2549                                      
// 2550                                      }
// 2551                                      
// 2552                                      
// 2553                                      
// 2554                   break;
// 2555                   
// 2556                   case STM_PPP:
// 2557                                               
// 2558                                                 
// 2559                                                 analiz_ppp_rx();  
// 2560                                                
// 2561                                                 
// 2562                                                 monitor_event_IPCP();   
// 2563                                                 monitor_act_IPCP();  
// 2564                                                
// 2565                                                 
// 2566                                                  monitor1_tx_rs485_1();   //GPRS-řňŕňíűé RS485_1
// 2567                                                  monitor1_rec_rs485_1();
// 2568                                                  monitor1_tm_rs485_1();
// 2569                
// 2570                
// 2571                                                  monitor1_tx_rs485_2();   //GPRS-řňŕňíűé RS485_2
// 2572                                                  monitor1_rec_rs485_2();
// 2573                                                  monitor1_tm_rs485_2();
// 2574                   
// 2575                                                  monitor1_tx_rs232_2();   //GPRS-řňŕňíűé RS232_2
// 2576                                                  monitor1_rec_rs232_2();
// 2577                                                  monitor1_tm_rs232_2();
// 2578                                                  
// 2579 
// 2580                                                 Application_SEQ_tx();// ěîíčňîđ ďĺđĺäŕ÷č ńîîáůĺíčé îőđŕíű              
// 2581                                              
// 2582                                                 monitor_cntr_ch();
// 2583                                                 monitor_cntr_cl_seq();
// 2584                                                 monitor_cntr_nat(); 
// 2585                                       
// 2586                                                
// 2587                               
// 2588                               
// 2589                               
// 2590                               if(((PINE & DCD0)==0) || (Fl_ch_sim==1))  //dobavka
// 2591                               {
// 2592                               if((fl_tx485.mon1==0)&&(fl_tx485.mon2==0)&&(fl_tx485.mon232_2==0)&&(fl_ip.act_ip_end==1)) 
// 2593                                {
// 2594                                    //!!!!!! dobavka
// 2595                                 if(Fl_ch_sim==1)
// 2596                                 {
// 2597                                 send_info(sizeof(evm_ch_sim),evm_ch_sim,0,0);
// 2598                                 write_log_info(ST_PPP,PPP_CH_SIM);  
// 2599                                 }
// 2600                                 else
// 2601                                 {
// 2602                                 send_info(sizeof(evm_dcd_err),evm_dcd_err,0,0);
// 2603                                 write_log_info(ST_PPP,PPP_DCD);
// 2604                                 }
// 2605                                 //EEEEEEEEEEE dobavka
// 2606                               //  st_gprs_att(); !!!!!!!!!!!!!!!!!!!!!11
// 2607                                 cnt_cts_off=0;
// 2608                                 state_modem=STM_RDC; 
// 2609                                 clr_var_ppp_rx();//îáíóëčňü âńĺ ÷ňî ęŕńŕĺňń˙ ďđčĺěó ďî GPRS č çŕďđĺňčňü ďđčĺě
// 2610                                 command_AT=FALSE;// âűęëţ÷ĺí ęîěěŕíäíűé đĺćčě
// 2611                                 //event_modem=EVM_RDC; //21.01.2008
// 2612                                 event_modem=EVM_NONE;
// 2613                                }
// 2614                               }
// 2615                               
// 2616                               
// 2617 
// 2618 
// 2619 
// 2620 
// 2621                   
// 2622                                switch(event_modem)
// 2623                                      {                                  
// 2624 
// 2625                                      case EVM_PPP_ERR:
// 2626                                                       send_info(sizeof(evm_ppp_err),evm_ppp_err,0,0);
// 2627                                                       write_log_info(ST_PPP,PPP_RJ);
// 2628                                                       goto err_ppp;
// 2629                                                                                                   
// 2630                                      case EVM_MS_LMT:
// 2631                                                       send_info(sizeof(evm_no_rec),evm_no_rec,0,0);
// 2632                                                       write_log_info(ST_PPP,PPP_LS); 
// 2633                                                       goto err_ppp; 
// 2634                                      case EVM_CTS_ERR:
// 2635                                                       send_info(sizeof(evm_cts_err),evm_cts_err,0,0);
// 2636                                                       write_log_info(ST_PPP,PPP_CTS);
// 2637                                                err_ppp:      
// 2638                                         //              st_gprs_att();
// 2639                                                       cnt_cts_off=0;
// 2640                                                       fl_cts_232_ignor=TRUE;
// 2641                                                       state_modem=STM_RDC; 
// 2642                                                       clr_var_ppp_rx();//îáíóëčňü âńĺ ÷ňî ęŕńŕĺňń˙ ďđčĺěó ďî GPRS č çŕďđĺňčňü ďđčĺě
// 2643                                                       event_modem=EVM_NONE;
// 2644                                                       command_AT=FALSE;// âűęëţ÷ĺí ęîěěŕíäíűé đĺćčě
// 2645                                      break;
// 2646                                  
// 2647                                      }
// 2648                   break;
// 2649                   
// 2650                   case STM_RDC:
// 2651                                                 //GPRS-řňŕňíűé RS485 
// 2652                                                 monitor1_rec_rs485_1();
// 2653                                                 monitor1_tm_rs485_1();
// 2654                
// 2655                                               //GPRS-řňŕňíűé RS485 
// 2656                                                 monitor1_rec_rs485_2();
// 2657                                                 monitor1_tm_rs485_2();  
// 2658                                                 
// 2659                                                 //GPRS-řňŕňíűé RS232 
// 2660                                                 monitor1_rec_rs232_2();
// 2661                                                 monitor1_tm_rs232_2();  
// 2662                                                 
// 2663                                                 
// 2664                                                 if((fl_tx485.mon1==0)&&(fl_tx485.mon2==0)&&(fl_tx485.mon232_2==0)&&(fl_ip.act_ip_end==1))//!!!!!!!!!!!!!!!!!!!!!!!!!!!!!!!!!
// 2665                                                    {
// 2666                                                    fl_cts_232_ignor=FALSE;
// 2667                                                    event_modem=EVM_RDC;
// 2668                                                    }
// 2669                                                   
// 2670 
// 2671                                
// 2672                                switch(event_modem)
// 2673                                      {
// 2674                                      case EVM_RDC:
// 2675                                                   /*
// 2676                                                   write_log_info(ST_CLR_PPP,CLR_PPP_RDY); 
// 2677                                                  
// 2678                                                    state_modem=STM_DC;
// 2679                                                        //îáíóëĺíčĺ ppp ďĺđĺěĺííűő
// 2680                                                        //č çŕďđňčňü ďĺđĺäŕ÷ó ďî GPRS
// 2681                                                    UCSR0B=UCSR0B & ~TXEN;
// 2682                                                    UCSR0B=UCSR0B & ~TXCIE;
// 2683                                                    clr_var_ppp();   
// 2684                                                    init_scen_stm_dc_1();
// 2685                                                    event_modem=EVM_NONE;
// 2686                                                    command_AT=TRUE;// âęëţ÷ĺí ęîěěŕíäíűé đĺćčě
// 2687                                                    //SVD2_1_OFF;!!!!!
// 2688                                                    //SVD2_2_OFF;!!!!!!!!!
// 2689                                                    */
// 2690                                                   
// 2691                                                   //âűęëţ÷ŕĺě ěîäĺě ńđŕçó!!!!
// 2692                                                    write_log_info(ST_CLR_PPP,CLR_PPP_RDY); 
// 2693                                                    state_modem=STM_OFF;
// 2694                                                    start_func_stm_off();
// 2695                                                    event_modem=EVM_NONE;
// 2696                                                    command_AT=TRUE;// âęëţ÷ĺí ęîěěŕíäíűé đĺćčě
// 2697                                                   ///////////////////////////////////////////// 
// 2698                                                    
// 2699                                      break;
// 2700                                      }
// 2701                   
// 2702                   break;
// 2703                   
// 2704                   case STM_DC:
// 2705                               
// 2706                               at_com_tx(cnt_com);
// 2707                               at_com_rx(cnt_com);
// 2708                               at_com_scen_stm_dc_1(&cnt_com,&rep);  
// 2709                                
// 2710                                
// 2711                                switch(event_modem)
// 2712                                      {
// 2713                                      case EVM_AT_OK:
// 2714                                                    write_log_info(ST_CLR_PPP,CLR_PPP_OK);
// 2715                                                    state_modem=STM_SC;
// 2716                                                    init_scen_stm_sc();
// 2717                                                    event_modem=EVM_NONE;
// 2718                                                    command_AT=TRUE;// âęëţ÷ĺí ęîěěŕíäíűé đĺćčě
// 2719                                                    
// 2720                                      break;
// 2721                                      case EVM_AT_ERR:
// 2722                                                    write_log_info(ST_CLR_PPP,CLR_PPP_ERR);
// 2723                                                    state_modem=STM_OFF;
// 2724                                                    start_func_stm_off();
// 2725                                                    event_modem=EVM_NONE;
// 2726                                                    command_AT=TRUE;// âęëţ÷ĺí ęîěěŕíäíűé đĺćčě
// 2727                                                    
// 2728                                      break;
// 2729                                      }
// 2730                   break;
// 2731                   
// 2732                   
// 2733                   case STM_OFF:
// 2734                                switch(event_modem)
// 2735                                      {
// 2736                                      case EVM_TM1:
// 2737                                                  
// 2738                                                   start_func_stm_on();
// 2739                                                   event_modem=EVM_NONE;
// 2740                                                   break;
// 2741                                      
// 2742                                      case EVM_NONE: break;
// 2743                                                      
// 2744                                       default: 
// 2745                                                write_log_info(ST_ERROR,ERR8);
// 2746                                                lock_it();
// 2747                                                break;              
// 2748                                      }
// 2749                   break;
// 2750          
// 2751                   
// 2752                  default: 
// 2753                    write_log_info(ST_ERROR,ERR9);    
??modem_engine_1:
        LDI	R17, 9
??modem_engine_2:
        LDI	R16, 2
        CALL	write_log_info
// 2754                    lock_it();
        CALL	lock_it
??modem_engine_0:
        LDI	R26, LOW(Appl_RS485_1)
        LDI	R27, (Appl_RS485_1) >> 8
        MOVW	R31:R30, R27:R26
        LDD	R16, Z+55
        SBRC	R16, 0
        RCALL	check_wdt
??modem_engine_3:
        MOVW	R31:R30, R27:R26
        LDD	R16, Z+55
        ORI	R16, 0x08
        STD	Z+55, R16
        CALL	supervisorwdt
        RCALL	monitor_change_state
        CALL	control_temperatura
        MOVW	R31:R30, R27:R26
        LDD	R16, Z+50
        LDI	R30, LOW(`?<Jumptable for modem_engine>_0`)
        LDI	R31, (`?<Jumptable for modem_engine>_0`) >> 16
        OUT	0x3B, R31
        LDI	R31, HIGH(`?<Jumptable for modem_engine>_0`)
        JMP	?CV_SWITCH_L06
??modem_engine_4:
        MOVW	R31:R30, R27:R26
        LDD	R16, Z+51
        SUBI	R16, 0
        BREQ	??modem_engine_0
        DEC	R16
        BRNE	??modem_engine_5
        CALL	start_func_stm_kon
        RJMP	??modem_engine_0
??modem_engine_5:
        LDI	R17, 8
        RJMP	??modem_engine_2
??modem_engine_6:
        MOVW	R31:R30, R27:R26
        LDD	R16, Z+51
        SUBI	R16, 0
        BREQ	??modem_engine_0
        DEC	R16
        BRNE	??modem_engine_5
        CALL	start_func_stm_pwk
        RJMP	??modem_engine_0
??modem_engine_7:
        MOVW	R31:R30, R27:R26
        LDD	R16, Z+51
        SUBI	R16, 0
        BREQ	??modem_engine_0
        DEC	R16
        BRNE	??modem_engine_5
        LDI	R20, 0
        LDI	R17, 0
        LDI	R18, LOW(stm_si)
        LDI	R19, (stm_si) >> 8
        LDI	R16, 6
        CALL	send_info
        LDI	R16, 4
        MOVW	R31:R30, R27:R26
        STD	Z+50, R16
        CALL	init_scen_stm_si
??modem_engine_8:
        LDI	R16, 0
        MOVW	R31:R30, R27:R26
        STD	Z+51, R16
        LDI	R16, 1
??modem_engine_9:
        STD	Z+52, R16
        RJMP	??modem_engine_0
??modem_engine_10:
        LDS	R16, cnt_com
        CALL	at_com_tx
        LDS	R16, cnt_com
        CALL	at_com_rx
        LDI	R18, LOW(rep)
        LDI	R19, (rep) >> 8
        LDI	R16, LOW(cnt_com)
        LDI	R17, (cnt_com) >> 8
        CALL	at_com_scen_init
        MOVW	R31:R30, R27:R26
        LDD	R16, Z+51
        SUBI	R16, 0
        BREQ	??modem_engine_11
        SUBI	R16, 2
        BREQ	??modem_engine_12
??modem_engine_13:
        DEC	R16
        BREQ	??modem_engine_14
        RJMP	??modem_engine_5
??modem_engine_12:
        LDI	R20, 0
        LDI	R17, 0
        LDI	R18, LOW((stm_si + 6))
        LDI	R19, HIGH((stm_si + 6))
        LDI	R16, 6
        CALL	send_info
        LDI	R17, 3
        LDI	R16, 3
??modem_engine_15:
        CALL	write_log_info
        LDI	R16, 5
        MOVW	R31:R30, R27:R26
        STD	Z+50, R16
        CALL	init_scen_stm_sc
        RJMP	??modem_engine_8
??modem_engine_14:
        LDI	R20, 0
        LDI	R17, 0
        LDI	R18, LOW((stm_si + 32))
        LDI	R19, HIGH((stm_si + 32))
        LDI	R16, 10
        CALL	send_info
        CALL	start_func_stm_off
        RJMP	??modem_engine_0
??modem_engine_11:
        LDD	R16, Z+54
        CPI	R16, 1
        BREQ	$+2+2
        RJMP	??modem_engine_0
        LDI	R20, 0
        LDI	R17, 0
        LDI	R18, LOW((stm_si + 85))
        LDI	R19, HIGH((stm_si + 85))
        LDI	R16, 10
        CALL	send_info
??modem_engine_16:
        LDI	R16, 10
        MOVW	R31:R30, R27:R26
        STD	Z+50, R16
        CALL	start_func_stm_off
        RJMP	??modem_engine_8
??modem_engine_17:
        LDS	R16, cnt_com
        CALL	at_com_tx
        LDS	R16, cnt_com
        CALL	at_com_rx
        LDI	R18, LOW(rep)
        LDI	R19, (rep) >> 8
        LDI	R16, LOW(cnt_com)
        LDI	R17, (cnt_com) >> 8
        CALL	at_com_scen_stm_sc
        MOVW	R31:R30, R27:R26
        LDD	R16, Z+51
        SUBI	R16, 0
        BRNE	$+2+2
        RJMP	??modem_engine_0
        SUBI	R16, 2
        BREQ	$+2+2
        RJMP	??modem_engine_13
        LDI	R20, 0
        LDI	R17, 0
        LDI	R18, LOW((stm_si + 12))
        LDI	R19, HIGH((stm_si + 12))
        LDI	R16, 7
        CALL	send_info
        LDI	R17, 4
        LDI	R16, 3
        CALL	write_log_info
        LDI	R16, 6
        MOVW	R31:R30, R27:R26
        STD	Z+50, R16
        CALL	start_func_stm_scp
??modem_engine_18:
        LDI	R16, 0
        MOVW	R31:R30, R27:R26
        STD	Z+51, R16
        RJMP	??modem_engine_0
??modem_engine_19:
        CALL	analiz_ppp_rx
        MOVW	R31:R30, R27:R26
        ADIW	R31:R30, 61
        LD	R16, Z
        TST	R16
        BREQ	??modem_engine_20
        CALL	monitor_event_LCP
        CALL	monitor_act_LCP
??modem_engine_20:
        MOVW	R31:R30, R27:R26
        ADIW	R31:R30, 61
        LD	R16, Z
        CPI	R16, 2
        BRNE	??modem_engine_21
        CALL	monitor_event_PAP
        CALL	monitor_act_PAP
??modem_engine_21:
        MOVW	R31:R30, R27:R26
        ADIW	R31:R30, 61
        LD	R16, Z
        TST	R16
        BREQ	??modem_engine_22
        CPI	R16, 2
        BREQ	??modem_engine_22
        CALL	monitor_event_IPCP
        CALL	monitor_act_IPCP
??modem_engine_22:
        IN	R16, 0x0C
        MOVW	R31:R30, R27:R26
        LDD	R16, Z+51
        SUBI	R16, 0
        BRNE	$+2+2
        RJMP	??modem_engine_0
        DEC	R16
        BREQ	??modem_engine_23
        SUBI	R16, 3
        BREQ	??modem_engine_24
        DEC	R16
        BRNE	$+2+2
        RJMP	??modem_engine_25
        DEC	R16
        BRNE	$+2+2
        RJMP	??modem_engine_26
        SUBI	R16, 3
        BRNE	$+2+2
        RJMP	??modem_engine_27
        RJMP	??modem_engine_5
??modem_engine_24:
        LDI	R20, 0
        LDI	R17, 0
        LDI	R18, LOW((stm_si + 19))
        LDI	R19, HIGH((stm_si + 19))
        LDI	R16, 7
        CALL	send_info
        LDI	R17, 2
        LDI	R16, 4
        CALL	write_log_info
        CBI	0x08, 0x06
        CBI	0x08, 0x07
        LDI	R16, 5
        STS	state_led_md, R16
        LDI	R16, 0
        MOVW	R31:R30, R27:R26
        STD	Z+53, R16
        LDI	R16, 7
        STD	Z+50, R16
        LDI	R16, 0
        STD	Z+51, R16
        STD	Z+52, R16
        LDS	R16, simka
        CPI	R16, 1
        BREQ	$+2+2
        RJMP	??modem_engine_0
        LDD	R16, Z+38
        LDD	R17, Z+39
        LDD	R18, Z+40
        LDD	R19, Z+41
        OR	R16, R17
        OR	R16, R18
        OR	R16, R19
        BREQ	$+2+2
        RJMP	??modem_engine_0
        LDI	R30, LOW(Appl_seq)
        LDI	R31, (Appl_seq) >> 8
        LDD	R16, Z+52
        LDD	R17, Z+53
        LDD	R18, Z+54
        LDD	R19, Z+55
        MOVW	R31:R30, R27:R26
        STD	Z+38, R16
        STD	Z+39, R17
        STD	Z+40, R18
        STD	Z+41, R19
        RJMP	??modem_engine_0
??modem_engine_23:
        LDI	R20, 0
        LDI	R17, 0
        LDI	R18, LOW((stm_si + 26))
        LDI	R19, HIGH((stm_si + 26))
        LDI	R16, 6
        CALL	send_info
        LDI	R17, 1
        RJMP	??modem_engine_28
??modem_engine_25:
        LDI	R20, 0
        LDI	R17, 0
        LDI	R18, LOW((stm_si + 42))
        LDI	R19, HIGH((stm_si + 42))
        LDI	R16, 11
        CALL	send_info
        LDI	R17, 3
        RJMP	??modem_engine_28
??modem_engine_26:
        LDI	R20, 0
        LDI	R17, 0
        LDI	R18, LOW((stm_si + 53))
        LDI	R19, HIGH((stm_si + 53))
        LDI	R16, 11
        CALL	send_info
        LDI	R17, 4
        RJMP	??modem_engine_28
??modem_engine_27:
        LDI	R20, 0
        LDI	R17, 0
        LDI	R18, LOW((stm_si + 74))
        LDI	R19, HIGH((stm_si + 74))
        LDI	R16, 11
        CALL	send_info
        LDI	R17, 5
??modem_engine_28:
        LDI	R16, 4
??modem_engine_29:
        CALL	write_log_info
        LDI	R16, 0
        MOVW	R31:R30, R27:R26
        STD	Z+48, R16
        STD	Z+49, R16
        LDI	R16, 1
        STD	Z+56, R16
        LDI	R16, 8
        STD	Z+50, R16
        RCALL	clr_var_ppp_rx
        LDI	R16, 0
        MOVW	R31:R30, R27:R26
        STD	Z+51, R16
        RJMP	??modem_engine_9
??modem_engine_30:
        CALL	analiz_ppp_rx
        CALL	monitor_event_IPCP
        CALL	monitor_act_IPCP
        CALL	monitor1_tx_rs485_1
        CALL	monitor1_rec_rs485_1
        CALL	monitor1_tm_rs485_1
        CALL	monitor1_tx_rs485_2
        CALL	monitor1_rec_rs485_2
        CALL	monitor1_tm_rs485_2
        CALL	monitor1_tx_rs232_2
        CALL	monitor1_rec_rs232_2
        CALL	monitor1_tm_rs232_2
        RCALL	Application_SEQ_tx
        RCALL	monitor_cntr_ch
        RCALL	monitor_cntr_cl_seq
        RCALL	monitor_cntr_nat
        SBIS	0x0C, 0x06
        RJMP	??modem_engine_31
        MOVW	R31:R30, R27:R26
        LDD	R16, Z+54
        CPI	R16, 1
        BRNE	??modem_engine_32
??modem_engine_31:
        MOVW	R31:R30, R27:R26
        LDD	R16, Z+58
        ANDI	R16, 0x07
        BRNE	??modem_engine_32
        LDI	R30, LOW(fl_ip)
        LDI	R31, (fl_ip) >> 8
        LD	R16, Z
        SBRS	R16, 0
        RJMP	??modem_engine_32
        MOVW	R31:R30, R27:R26
        LDD	R16, Z+54
        CPI	R16, 1
        LDI	R20, 0
        LDI	R17, 0
        BRNE	??modem_engine_33
        LDI	R18, LOW((stm_si + 85))
        LDI	R19, HIGH((stm_si + 85))
        LDI	R16, 10
        CALL	send_info
        LDI	R17, 5
        RJMP	??modem_engine_34
??modem_engine_33:
        LDI	R18, LOW((stm_si + 53))
        LDI	R19, HIGH((stm_si + 53))
        LDI	R16, 11
        CALL	send_info
        LDI	R17, 2
??modem_engine_34:
        LDI	R16, 5
        CALL	write_log_info
        LDI	R16, 0
        MOVW	R31:R30, R27:R26
        STD	Z+48, R16
        STD	Z+49, R16
        LDI	R16, 8
        STD	Z+50, R16
        RCALL	clr_var_ppp_rx
        LDI	R16, 0
        MOVW	R31:R30, R27:R26
        STD	Z+52, R16
        STD	Z+51, R16
??modem_engine_32:
        MOVW	R31:R30, R27:R26
        LDD	R16, Z+51
        SUBI	R16, 5
        BREQ	??modem_engine_35
        SUBI	R16, 2
        BREQ	??modem_engine_36
        SUBI	R16, 2
        BREQ	??modem_engine_37
        RJMP	??modem_engine_0
??modem_engine_35:
        LDI	R20, 0
        LDI	R17, 0
        LDI	R18, LOW((stm_si + 42))
        LDI	R19, HIGH((stm_si + 42))
        LDI	R16, 11
        CALL	send_info
        LDI	R17, 1
??modem_engine_38:
        LDI	R16, 5
        RJMP	??modem_engine_29
??modem_engine_36:
        LDI	R20, 0
        LDI	R17, 0
        LDI	R18, LOW((stm_si + 64))
        LDI	R19, HIGH((stm_si + 64))
        LDI	R16, 10
        CALL	send_info
        LDI	R17, 4
        RJMP	??modem_engine_38
??modem_engine_37:
        LDI	R20, 0
        LDI	R17, 0
        LDI	R18, LOW((stm_si + 74))
        LDI	R19, HIGH((stm_si + 74))
        LDI	R16, 11
        CALL	send_info
        LDI	R17, 3
        RJMP	??modem_engine_38
??modem_engine_39:
        CALL	monitor1_rec_rs485_1
        CALL	monitor1_tm_rs485_1
        CALL	monitor1_rec_rs485_2
        CALL	monitor1_tm_rs485_2
        CALL	monitor1_rec_rs232_2
        CALL	monitor1_tm_rs232_2
        MOVW	R31:R30, R27:R26
        LDD	R16, Z+58
        ANDI	R16, 0x07
        BRNE	??modem_engine_40
        LDI	R30, LOW(fl_ip)
        LDI	R31, (fl_ip) >> 8
        LD	R16, Z
        SBRS	R16, 0
        RJMP	??modem_engine_40
        LDI	R16, 0
        MOVW	R31:R30, R27:R26
        STD	Z+56, R16
        LDI	R16, 8
        STD	Z+51, R16
??modem_engine_40:
        MOVW	R31:R30, R27:R26
        LDD	R16, Z+51
        SUBI	R16, 8
        BREQ	$+2+2
        RJMP	??modem_engine_0
        LDI	R17, 1
??modem_engine_41:
        LDI	R16, 6
        CALL	write_log_info
        RJMP	??modem_engine_16
??modem_engine_42:
        LDS	R16, cnt_com
        CALL	at_com_tx
        LDS	R16, cnt_com
        CALL	at_com_rx
        LDI	R18, LOW(rep)
        LDI	R19, (rep) >> 8
        LDI	R16, LOW(cnt_com)
        LDI	R17, (cnt_com) >> 8
        CALL	at_com_scen_stm_dc_1
        MOVW	R31:R30, R27:R26
        LDD	R16, Z+51
        SUBI	R16, 2
        BREQ	??modem_engine_43
        DEC	R16
        BREQ	??modem_engine_44
        RJMP	??modem_engine_0
??modem_engine_43:
        LDI	R17, 2
        LDI	R16, 6
        RJMP	??modem_engine_15
??modem_engine_44:
        LDI	R17, 3
        RJMP	??modem_engine_41
??modem_engine_45:
        MOVW	R31:R30, R27:R26
        LDD	R16, Z+51
        SUBI	R16, 0
        BRNE	$+2+2
        RJMP	??modem_engine_0
        DEC	R16
        BREQ	$+2+2
        RJMP	??modem_engine_5
        CALL	start_func_stm_on
        RJMP	??modem_engine_18
        CFI EndBlock cfiBlock33
// 2755                   
// 2756                }
// 2757           } 
// 2758   
// 2759 }
// 2760 
// 2761 
// 2762 

        RSEG CODE:CODE:NOROOT(1)
// 2763 void send_err485(unsigned char port,unsigned char err,unsigned char id,unsigned int dst)
send_err485:
        CFI Block cfiBlock34 Using cfiCommon0
        CFI Function send_err485
// 2764     {
        FUNCALL send_err485, clr_cntr_nat
        LOCFRAME CSTACK, 5, STACK
        LOCFRAME RSTACK, 2, STACK
        FUNCALL send_err485, clr_cntr_link
        LOCFRAME CSTACK, 5, STACK
        LOCFRAME RSTACK, 2, STACK
        FUNCALL send_err485, form_buf_tx_ppp
        LOCFRAME CSTACK, 5, STACK
        LOCFRAME RSTACK, 2, STACK
        FUNCALL send_err485, check_cts
        LOCFRAME CSTACK, 5, STACK
        LOCFRAME RSTACK, 2, STACK
        CALL	?PROLOGUE5_L09
        CFI R4 Frame(CFA_Y, -1)
        CFI R27 Frame(CFA_Y, -2)
        CFI R26 Frame(CFA_Y, -3)
        CFI R25 Frame(CFA_Y, -4)
        CFI R24 Frame(CFA_Y, -5)
        CFI CFA_Y Y+5
        REQUIRE	?Register_R4_is_cg_reg
        MOV	R4, R16
        MOV	R27, R17
        MOV	R26, R18
        MOVW	R25:R24, R21:R20
// 2765        if(fl_ip.act_ip_end!=1)return;
        LDI	R30, LOW(fl_ip)
        LDI	R31, (fl_ip) >> 8
        LD	R16, Z
        SBRS	R16, 0
        RJMP	??send_err485_0
// 2766           fl_ip.act_ip_end=0;      
        LD	R16, Z
        ANDI	R16, 0xFE
        ST	Z, R16
// 2767           clr_cntr_nat();
        RCALL	clr_cntr_nat
// 2768           clr_cntr_link();
        CALL	clr_cntr_link
// 2769           Obj_ppp_tx.prozr=FALSE;            
        LDI	R16, LOW(Obj_ppp_tx)
        LDI	R17, (Obj_ppp_tx) >> 8
        LDI	R18, 0
        MOVW	R31:R30, R17:R16
        ST	Z, R18
// 2770           Obj_ppp_tx.version=VER2;      //âĺđńč˙ 
        LDI	R18, 2
        STD	Z+1, R18
// 2771           Obj_ppp_tx.type_pac=OTV;     //ňčď ďŕęĺňŕ
        LDI	R18, 1
        STD	Z+2, R18
// 2772           Obj_ppp_tx.num_src=num_self; // íîěĺđ îňďđŕâčňĺë˙
        LDI	R30, LOW(Appl_seq)
        LDI	R31, (Appl_seq) >> 8
        LDD	R18, Z+56
        LDD	R19, Z+57
        MOVW	R31:R30, R17:R16
        STD	Z+3, R18
        STD	Z+4, R19
// 2773           Obj_ppp_tx.num_dst=dst; // íîěĺđ ďîëó÷ŕňĺë˙
        STD	Z+5, R24
        STD	Z+6, R25
// 2774           Obj_ppp_tx.id_pac=id; // čäĺíňčôčęŕňîđ ďŕęĺňŕ  
        STD	Z+7, R26
// 2775           Obj_ppp_tx.p_opt=&buf_opt_tr[0]; // //óęŕçŕňĺëü áóôĺđŕ îďöčé  
        LDI	R18, LOW((Appl_RS232_2 + 19))
        LDI	R19, HIGH((Appl_RS232_2 + 19))
        STD	Z+8, R18
        STD	Z+9, R19
// 2776           Obj_ppp_tx.l_opt=0;// äëčíŕ áóôĺđŕ îďöčé   
        LDI	R18, 0
        STD	Z+10, R18
// 2777           Obj_ppp_tx.kol_opt=0;// ęîëč÷ĺńňâî îďöčé   
        STD	Z+11, R18
// 2778          
// 2779          buf_tx_232[TR_OP_DATA+C1_PROT]=PROT_C1;
        LDI	R24, LOW(buf_tx_232)
        LDI	R25, (buf_tx_232) >> 8
        LDI	R18, 1
        MOVW	R31:R30, R25:R24
        STD	Z+42, R18
// 2780          buf_tx_232[TR_OP_DATA+C1_PORT]=PORT_SYS;
        LDI	R18, 5
        STD	Z+43, R18
// 2781 
// 2782          buf_tx_232[TR_OP_DATA+C1_DATA]=RS485_ERR;
        LDI	R18, 1
        STD	Z+44, R18
// 2783          *(unsigned int*)&buf_tx_232[TR_OP_DATA+C1_DATA+1]=LN_RS485_ERR;
        LDI	R18, 2
        LDI	R19, 0
        STD	Z+45, R18
        STD	Z+46, R19
// 2784          buf_tx_232[TR_OP_DATA+C1_DATA+3]=port;
        STD	Z+47, R4
// 2785          buf_tx_232[TR_OP_DATA+C1_DATA+4]=err;
        STD	Z+48, R27
// 2786          Obj_ppp_tx.l_data=5+LN_RS485_ERR;   // äëčíŕ äŕííűő
        LDI	R18, 7
        MOVW	R31:R30, R17:R16
        STD	Z+14, R18
        STD	Z+15, R19
// 2787          Obj_ppp_tx.p_data=&buf_tx_232[TR_OP_DATA+C1_PROT];  //óęŕçŕňĺëü áóôĺđŕ äŕííűő
        MOVW	R19:R18, R25:R24
        SUBI	R18, 214
        SBCI	R19, 255
        STD	Z+12, R18
        STD	Z+13, R19
// 2788         
// 2789          form_buf_tx_ppp();                            
        CALL	form_buf_tx_ppp
// 2790          UCSR0A=UCSR0A | TXC;                            
        LDS	R16, 192
        ORI	R16, 0x40
        STS	192, R16
// 2791          UCSR0B=UCSR0B | TXEN;
        LDS	R16, 193
        ORI	R16, 0x08
        STS	193, R16
// 2792          UCSR0B=UCSR0B | TXCIE;
        LDS	R16, 193
        ORI	R16, 0x40
        STS	193, R16
// 2793          if(check_cts()==1) return;                
        CALL	check_cts
        CPI	R16, 1
        BREQ	??send_err485_0
// 2794          S2_RD;
        SBI	0x08, 0x00
        CBI	0x08, 0x01
// 2795          UDR0=buf_tx_232[0];
        MOVW	R31:R30, R25:R24
        LD	R16, Z
        STS	198, R16
// 2796          if(Regim==RG_DEBAG) UDR3=buf_tx_232[0];
        LDS	R16, Regim
        CPI	R16, 1
        BRNE	??send_err485_0
        LD	R16, Z
        STS	310, R16
??send_err485_0:
        LDI	R30, 5
        JMP	?EPILOGUE_B5_L09
        CFI EndBlock cfiBlock34
// 2797          return;     
// 2798     }
// 2799 
// 2800 
// 2801 
// 2802 
// 2803 

        RSEG CODE:CODE:NOROOT(1)
// 2804 unsigned char check_cont_485_1 (unsigned char *pointer)
check_cont_485_1:
        CFI Block cfiBlock35 Using cfiCommon0
        CFI Function check_cont_485_1
// 2805 {
        MOV	R21, R25
        MOV	R22, R24
// 2806    
// 2807          
// 2808                     switch (*pointer)
        MOVW	R31:R30, R17:R16
        LD	R18, Z
        SUBI	R18, 4
        SUBI	R18, 3
        BRCS	??check_cont_485_1_0
        DEC	R18
        BRNE	??check_cont_485_1_1
// 2809                             {
// 2810                               case B2400:
// 2811                               case B4800:
// 2812                               case B9600:
// 2813                               case B19200:break;
// 2814                               default: return(1);
// 2815                             }
// 2816          
// 2817          
// 2818                 switch ((*(pointer+1)) & 0x07)
??check_cont_485_1_0:
        LDD	R18, Z+1
        ANDI	R18, 0x07
        SUBI	R18, 3
        BRCS	??check_cont_485_1_2
??check_cont_485_1_1:
        LDI	R16, 1
        RJMP	??check_cont_485_1_3
// 2819                            {
// 2820                            case NON:
// 2821                            case ODD:
// 2822                            case EVEN: break;
// 2823                            default: return(1);
// 2824                            }
// 2825          
// 2826 
// 2827                     switch (((*(pointer+1))>>3)& 0x03)
??check_cont_485_1_2:
        LDD	R18, Z+1
        LSR	R18
        LSR	R18
        LSR	R18
        ANDI	R18, 0x03
        BREQ	??check_cont_485_1_4
        SUBI	R18, 2
        BRNE	??check_cont_485_1_1
// 2828                            {
// 2829                            case STOP1:
// 2830                            case STOP2:break;
// 2831                            default: return(1);
// 2832                            }
// 2833             
// 2834                     
// 2835                     switch (((*(pointer+1))>>5)& 0x03)
??check_cont_485_1_4:
        LDD	R18, Z+1
        SWAP	R18
        ANDI	R18, 0x0F
        LSR	R18
        ANDI	R18, 0x03
        SUBI	R18, 2
        BREQ	??check_cont_485_1_5
        DEC	R18
        BRNE	??check_cont_485_1_1
// 2836                            {
// 2837                            case INF7:
// 2838                            case INF8:break;
// 2839                            default: return(1);
// 2840                            }
// 2841 
// 2842 
// 2843 
// 2844                   if((*(unsigned int*)(pointer+2))>10000)return(1);
??check_cont_485_1_5:
        LDD	R18, Z+2
        LDD	R19, Z+3
        CPI	R18, 17
        LDI	R20, 39
        CPC	R19, R20
        BRCC	??check_cont_485_1_1
// 2845                   
// 2846                   if((*(unsigned int*)(pointer+4))==0)return(1);
        LDD	R18, Z+4
        LDD	R19, Z+5
        OR	R18, R19
        BREQ	??check_cont_485_1_1
// 2847                   if((*(unsigned int*)(pointer+4))>10000)return(1);
        LDD	R18, Z+4
        LDD	R19, Z+5
        CPI	R18, 17
        CPC	R19, R20
        BRCC	??check_cont_485_1_1
// 2848                   
// 2849                   if((*(unsigned int*)(pointer+6))<3)return(1);
        LDD	R24, Z+6
        LDD	R25, Z+7
        CPI	R24, 3
        SBCI	R25, 0
        BRCS	??check_cont_485_1_1
// 2850                   
// 2851                   return(0);
        LDI	R16, 0
??check_cont_485_1_3:
        MOV	R24, R22
        MOV	R25, R21
        RET
        CFI EndBlock cfiBlock35
// 2852 }
// 2853 
// 2854 
// 2855 
// 2856 

        RSEG CODE:CODE:NOROOT(1)
// 2857 unsigned char run_cont_485_1 (unsigned char *pointer)
run_cont_485_1:
        CFI Block cfiBlock36 Using cfiCommon0
        CFI Function run_cont_485_1
// 2858 {
        CALL	?PROLOGUE4_L09
        CFI R27 Frame(CFA_Y, -1)
        CFI R26 Frame(CFA_Y, -2)
        CFI R25 Frame(CFA_Y, -3)
        CFI R24 Frame(CFA_Y, -4)
        CFI CFA_Y Y+4
        MOVW	R27:R26, R17:R16
// 2859     
// 2860    
// 2861                 switch ((*(pointer+1)) & 0x07)
        MOVW	R31:R30, R27:R26
        LDD	R16, Z+1
        ANDI	R16, 0x07
        BREQ	??run_cont_485_1_0
        DEC	R16
        BREQ	??run_cont_485_1_1
        DEC	R16
        BREQ	??run_cont_485_1_2
        RJMP	??run_cont_485_1_3
// 2862                            {
// 2863                            case NON:  UCSR3C=UCSR3C & ~0x30;
??run_cont_485_1_0:
        LDS	R16, 306
        ANDI	R16, 0xCF
??run_cont_485_1_4:
        STS	306, R16
// 2864                                  break;
// 2865                            case ODD:  UCSR3C=UCSR3C | 0x30;
// 2866                                  break;
// 2867                            case EVEN: UCSR3C=UCSR3C & ~0x30;
// 2868                                  UCSR3C=UCSR3C | 0x20;
// 2869                                  break;
// 2870                            default: return(1);
// 2871                            }
// 2872          
// 2873 
// 2874                     switch (((*(pointer+1))>>3)& 0x03)
        LDD	R16, Z+1
        LSR	R16
        LSR	R16
        LSR	R16
        ANDI	R16, 0x03
        BREQ	??run_cont_485_1_5
        SUBI	R16, 2
        BREQ	??run_cont_485_1_6
        RJMP	??run_cont_485_1_3
// 2875                            {
// 2876                            case STOP1:UCSR3C=UCSR3C & ~0x08; 
??run_cont_485_1_5:
        LDS	R16, 306
        ANDI	R16, 0xF7
        RJMP	??run_cont_485_1_7
??run_cont_485_1_1:
        LDS	R16, 306
        ORI	R16, 0x30
        RJMP	??run_cont_485_1_4
??run_cont_485_1_2:
        LDS	R16, 306
        ANDI	R16, 0xCF
        STS	306, R16
        LDS	R16, 306
        ORI	R16, 0x20
        RJMP	??run_cont_485_1_4
??run_cont_485_1_3:
        LDI	R16, 1
        RJMP	??run_cont_485_1_8
// 2877                                  break;
// 2878                            case STOP2:
// 2879                                  UCSR3C=UCSR3C | 0x08; 
??run_cont_485_1_6:
        LDS	R16, 306
        ORI	R16, 0x08
??run_cont_485_1_7:
        STS	306, R16
// 2880                                  break;
// 2881                            default: return(1);
// 2882                            }
// 2883             
// 2884             
// 2885                     switch (((*(pointer+1))>>5)& 0x03)
        LDD	R16, Z+1
        SWAP	R16
        ANDI	R16, 0x0F
        LSR	R16
        ANDI	R16, 0x03
        SUBI	R16, 2
        BREQ	??run_cont_485_1_9
        DEC	R16
        BREQ	??run_cont_485_1_10
        RJMP	??run_cont_485_1_3
// 2886                            {
// 2887                            case INF7:
// 2888                                 UCSR3C=UCSR3C & ~0x06;
??run_cont_485_1_9:
        LDS	R16, 306
        ANDI	R16, 0xF9
        STS	306, R16
// 2889                                 UCSR3C=UCSR3C | 0x04;
        LDS	R16, 306
        ORI	R16, 0x04
        RJMP	??run_cont_485_1_11
// 2890                                 break;
// 2891                            case INF8:
// 2892                                 UCSR3C=UCSR3C | 0x06;
??run_cont_485_1_10:
        LDS	R16, 306
        ORI	R16, 0x06
??run_cont_485_1_11:
        STS	306, R16
// 2893                                 break;
// 2894                            default: return(1);
// 2895                            }
// 2896 
// 2897 
// 2898                   if((*(unsigned int*)(pointer+2))>10000)return(1);
        LDD	R16, Z+2
        LDD	R17, Z+3
        CPI	R16, 17
        LDI	R18, 39
        CPC	R17, R18
        BRCC	??run_cont_485_1_3
// 2899                   Rs485_1.cnt_tm_tx_out=0;
        LDI	R30, LOW(Rs485_1)
        LDI	R31, (Rs485_1) >> 8
        LDI	R16, 0
        STD	Z+2, R16
        STD	Z+3, R16
// 2900                   Rs485_1.vol_tm_tx_out=*(unsigned int*)(pointer+2);
        ADIW	R27:R26, 2
        LD	R16, X+
        LD	R17, X
        SBIW	R27:R26, 3
        STD	Z+6, R16
        STD	Z+7, R17
// 2901                   
// 2902                   if((*(unsigned int*)(pointer+4))==0)return(1);
        ADIW	R27:R26, 4
        LD	R16, X+
        LD	R17, X
        SBIW	R27:R26, 5
        OR	R16, R17
        BREQ	??run_cont_485_1_3
// 2903                   if((*(unsigned int*)(pointer+4))>10000)return(1);
        ADIW	R27:R26, 4
        LD	R16, X+
        LD	R17, X
        SBIW	R27:R26, 5
        CPI	R16, 17
        CPC	R17, R18
        BRCC	??run_cont_485_1_3
// 2904                   Rs485_1.cnt_tm_rx_out=0;
        LDI	R16, 0
        STD	Z+8, R16
        STD	Z+9, R16
// 2905                   Rs485_1.vol_tm_rx_out=*(unsigned int*)(pointer+4);
        ADIW	R27:R26, 4
        LD	R16, X+
        LD	R17, X
        SBIW	R27:R26, 5
        STD	Z+10, R16
        STD	Z+11, R17
// 2906                   
// 2907                   
// 2908                   if((*(unsigned int*)(pointer+6))<3)return(1);
        ADIW	R27:R26, 6
        LD	R24, X+
        LD	R25, X
        SBIW	R27:R26, 7
        CPI	R24, 3
        SBCI	R25, 0
        BRCC	$+2+2
        RJMP	??run_cont_485_1_3
// 2909                   Rs485_1.cnt_tm_out=0;
        LDI	R16, 0
        STD	Z+12, R16
        STD	Z+13, R16
// 2910                   Rs485_1.vol_tm_out=*(unsigned int*)(pointer+6); // 1000 ěčëëčńĺęóíä
        ADIW	R27:R26, 6
        LD	R16, X+
        LD	R17, X
        SBIW	R27:R26, 7
        STD	Z+14, R16
        STD	Z+15, R17
// 2911                    
// 2912                    
// 2913                    
// 2914                  switch (*pointer)
        LDI	R16, LOW(Appl_RS485_1)
        LDI	R17, (Appl_RS485_1) >> 8
        LD	R18, X
        SUBI	R18, 4
        BREQ	??run_cont_485_1_12
        DEC	R18
        BREQ	??run_cont_485_1_13
        DEC	R18
        BREQ	??run_cont_485_1_14
        SUBI	R18, 2
        BREQ	??run_cont_485_1_15
        RJMP	??run_cont_485_1_3
// 2915                             {
// 2916                               case B2400:
// 2917                                      UBRR3H=R2400_H;
??run_cont_485_1_12:
        LDI	R18, 1
        STS	309, R18
// 2918                                      UBRR3L=R2400_L;
        LDI	R18, 159
        STS	308, R18
// 2919                                      
// 2920                                      
// 2921                                      if(Appl_RS485_1.pre_tx!=0)
        MOVW	R27:R26, R17:R16
        ADIW	R27:R26, 17
        LD	R18, X+
        LD	R19, X
        OR	R18, R19
        BREQ	??run_cont_485_1_16
// 2922                                           {
// 2923                                           // ďĺđĺőâŕň ďîđňŕ äë˙ ëŕôęčíŕ
// 2924                                           
// 2925                                         //  __disable_interrupt();
// 2926                                           SET_RTS1;
??run_cont_485_1_17:
        LDS	R18, 261
        ORI	R18, 0x04
        STS	261, R18
// 2927                                         //  __enable_interrupt();
// 2928                                           
// 2929                                           
// 2930                                           Rs485_1.cnt_tm_pre_tx=Appl_RS485_1.pre_tx;//çŕäĺđćęŕ ďĺđĺä ďĺđĺäŕ÷ĺé
        MOVW	R27:R26, R17:R16
        ADIW	R27:R26, 17
        LD	R16, X+
        LD	R17, X
        RJMP	??run_cont_485_1_18
// 2931                                           }
// 2932                                         else Rs485_1.cnt_tm_pre_tx=17;// 17 ěčëëčńĺęóíä
??run_cont_485_1_16:
        LDI	R16, 17
        RJMP	??run_cont_485_1_19
// 2933                                     
// 2934                                   //   Rs485_1.vol_tm_tx_out=Rs485_1.vol_tm_tx_out+5;
// 2935                                      break;
// 2936                               case B4800:
// 2937                                      UBRR3H=R4800_H;
??run_cont_485_1_13:
        LDI	R18, 0
        STS	309, R18
// 2938                                      UBRR3L=R4800_L;
        LDI	R18, 207
        STS	308, R18
// 2939                                      
// 2940                                      if(Appl_RS485_1.pre_tx!=0)
        MOVW	R27:R26, R17:R16
        ADIW	R27:R26, 17
        LD	R18, X+
        LD	R19, X
        OR	R18, R19
        BRNE	??run_cont_485_1_17
// 2941                                           {
// 2942                                           // ďĺđĺőâŕň ďîđňŕ äë˙ ëŕôęčíŕ
// 2943                                         //  __disable_interrupt();
// 2944                                          SET_RTS1;
// 2945                                        //   __enable_interrupt();
// 2946                                           
// 2947                                           Rs485_1.cnt_tm_pre_tx=Appl_RS485_1.pre_tx;//çŕäĺđćęŕ ďĺđĺä ďĺđĺäŕ÷ĺé
// 2948                                           }
// 2949                                         else Rs485_1.cnt_tm_pre_tx=9;// 9 ěčëëčńĺęóíä
        LDI	R16, 9
        RJMP	??run_cont_485_1_19
// 2950                                         
// 2951                                //      Rs485_1.vol_tm_tx_out=Rs485_1.vol_tm_tx_out+3;
// 2952                                      break;
// 2953                               case B9600:
// 2954                                      UBRR3H=R9600_H;
??run_cont_485_1_14:
        LDI	R18, 0
        STS	309, R18
// 2955                                      UBRR3L=R9600_L;
        LDI	R18, 103
        STS	308, R18
// 2956                                                                           
// 2957                                      if(Appl_RS485_1.pre_tx!=0)
        MOVW	R27:R26, R17:R16
        ADIW	R27:R26, 17
        LD	R18, X+
        LD	R19, X
        OR	R18, R19
        BRNE	??run_cont_485_1_17
// 2958                                           {
// 2959                                           // ďĺđĺőâŕň ďîđňŕ äë˙ ëŕôęčíŕ
// 2960                                          // __disable_interrupt();
// 2961                                           SET_RTS1;
// 2962                                         //  __enable_interrupt();
// 2963                                           
// 2964                                           Rs485_1.cnt_tm_pre_tx=Appl_RS485_1.pre_tx;//çŕäĺđćęŕ ďĺđĺä ďĺđĺäŕ÷ĺé
// 2965                                           }
// 2966                                         else Rs485_1.cnt_tm_pre_tx=4;// 4 ěčëëčńĺęóíä
        LDI	R16, 4
        RJMP	??run_cont_485_1_19
// 2967                                         
// 2968                                //      Rs485_1.vol_tm_tx_out=Rs485_1.vol_tm_tx_out+2;
// 2969                                      break;
// 2970                               case B19200:
// 2971                                      UBRR3H=R19200_H;
??run_cont_485_1_15:
        LDI	R18, 0
        STS	309, R18
// 2972                                      UBRR3L=R19200_L;
        LDI	R18, 51
        STS	308, R18
// 2973                                                                           
// 2974                                      if(Appl_RS485_1.pre_tx!=0)
        MOVW	R27:R26, R17:R16
        ADIW	R27:R26, 17
        LD	R18, X+
        LD	R19, X
        OR	R18, R19
        BRNE	??run_cont_485_1_17
// 2975                                           {
// 2976                                           // ďĺđĺőâŕň ďîđňŕ äë˙ ëŕôęčíŕ
// 2977                                            
// 2978                                           // __disable_interrupt();
// 2979                                           SET_RTS1;
// 2980                                          // __enable_interrupt();
// 2981                                           
// 2982                                           Rs485_1.cnt_tm_pre_tx=Appl_RS485_1.pre_tx;//çŕäĺđćęŕ ďĺđĺä ďĺđĺäŕ÷ĺé
// 2983                                           }
// 2984                                         else Rs485_1.cnt_tm_pre_tx=2;// 2 ěčëëčńĺęóíä
        LDI	R16, 2
??run_cont_485_1_19:
        LDI	R17, 0
??run_cont_485_1_18:
        STD	Z+4, R16
        STD	Z+5, R17
// 2985                                         
// 2986                                //      Rs485_1.vol_tm_tx_out=Rs485_1.vol_tm_tx_out+1;
// 2987                                      break;
// 2988                               default: return(1);
// 2989                             }  
// 2990                    
// 2991                    
// 2992                    
// 2993                    
// 2994 return(0);
        LDI	R16, 0
??run_cont_485_1_8:
        LDI	R30, 4
        JMP	?EPILOGUE_B4_L09
        CFI EndBlock cfiBlock36
// 2995 }
// 2996 
// 2997 
// 2998 

        RSEG CODE:CODE:NOROOT(1)
// 2999 unsigned char run_cont_485_2 (unsigned char *pointer)
run_cont_485_2:
        CFI Block cfiBlock37 Using cfiCommon0
        CFI Function run_cont_485_2
// 3000 {
        CALL	?PROLOGUE4_L09
        CFI R27 Frame(CFA_Y, -1)
        CFI R26 Frame(CFA_Y, -2)
        CFI R25 Frame(CFA_Y, -3)
        CFI R24 Frame(CFA_Y, -4)
        CFI CFA_Y Y+4
        MOVW	R27:R26, R17:R16
// 3001     
// 3002    
// 3003                 switch ((*(pointer+1)) & 0x07)
        MOVW	R31:R30, R27:R26
        LDD	R16, Z+1
        ANDI	R16, 0x07
        BREQ	??run_cont_485_2_0
        DEC	R16
        BREQ	??run_cont_485_2_1
        DEC	R16
        BREQ	??run_cont_485_2_2
        RJMP	??run_cont_485_2_3
// 3004                            {
// 3005                            case NON:  UCSR1C=UCSR1C & ~0x30;
??run_cont_485_2_0:
        LDS	R16, 202
        ANDI	R16, 0xCF
??run_cont_485_2_4:
        STS	202, R16
// 3006                                  break;
// 3007                            case ODD:  UCSR1C=UCSR1C | 0x30;
// 3008                                  break;
// 3009                            case EVEN: UCSR1C=UCSR1C & ~0x30;
// 3010                                  UCSR1C=UCSR1C | 0x20;
// 3011                                  break;
// 3012                            default: return(1);
// 3013                            }
// 3014          
// 3015 
// 3016                     switch (((*(pointer+1))>>3)& 0x03)
        LDD	R16, Z+1
        LSR	R16
        LSR	R16
        LSR	R16
        ANDI	R16, 0x03
        BREQ	??run_cont_485_2_5
        SUBI	R16, 2
        BREQ	??run_cont_485_2_6
        RJMP	??run_cont_485_2_3
// 3017                            {
// 3018                            case STOP1:UCSR1C=UCSR1C & ~0x08; 
??run_cont_485_2_5:
        LDS	R16, 202
        ANDI	R16, 0xF7
        RJMP	??run_cont_485_2_7
??run_cont_485_2_1:
        LDS	R16, 202
        ORI	R16, 0x30
        RJMP	??run_cont_485_2_4
??run_cont_485_2_2:
        LDS	R16, 202
        ANDI	R16, 0xCF
        STS	202, R16
        LDS	R16, 202
        ORI	R16, 0x20
        RJMP	??run_cont_485_2_4
??run_cont_485_2_3:
        LDI	R16, 1
        RJMP	??run_cont_485_2_8
// 3019                                  break;
// 3020                            case STOP2:
// 3021                                  UCSR1C=UCSR1C | 0x08; 
??run_cont_485_2_6:
        LDS	R16, 202
        ORI	R16, 0x08
??run_cont_485_2_7:
        STS	202, R16
// 3022                                  break;
// 3023                            default: return(1);
// 3024                            }
// 3025             
// 3026             
// 3027                     switch (((*(pointer+1))>>5)& 0x03)
        LDD	R16, Z+1
        SWAP	R16
        ANDI	R16, 0x0F
        LSR	R16
        ANDI	R16, 0x03
        SUBI	R16, 2
        BREQ	??run_cont_485_2_9
        DEC	R16
        BREQ	??run_cont_485_2_10
        RJMP	??run_cont_485_2_3
// 3028                            {
// 3029                            case INF7:
// 3030                                 UCSR1C=UCSR1C & ~0x06;
??run_cont_485_2_9:
        LDS	R16, 202
        ANDI	R16, 0xF9
        STS	202, R16
// 3031                                 UCSR1C=UCSR1C | 0x04;
        LDS	R16, 202
        ORI	R16, 0x04
        RJMP	??run_cont_485_2_11
// 3032                                 break;
// 3033                            case INF8:
// 3034                                 UCSR1C=UCSR1C | 0x06;
??run_cont_485_2_10:
        LDS	R16, 202
        ORI	R16, 0x06
??run_cont_485_2_11:
        STS	202, R16
// 3035                                 break;
// 3036                            default: return(1);
// 3037                            }
// 3038 
// 3039 
// 3040                   if((*(unsigned int*)(pointer+2))>10000)return(1);
        LDD	R16, Z+2
        LDD	R17, Z+3
        CPI	R16, 17
        LDI	R18, 39
        CPC	R17, R18
        BRCC	??run_cont_485_2_3
// 3041                   Rs485_2.cnt_tm_tx_out=0;
        LDI	R30, LOW(Rs485_2)
        LDI	R31, (Rs485_2) >> 8
        LDI	R16, 0
        STD	Z+2, R16
        STD	Z+3, R16
// 3042                   Rs485_2.vol_tm_tx_out=*(unsigned int*)(pointer+2);
        ADIW	R27:R26, 2
        LD	R16, X+
        LD	R17, X
        SBIW	R27:R26, 3
        STD	Z+6, R16
        STD	Z+7, R17
// 3043                   
// 3044                   if((*(unsigned int*)(pointer+4))==0)return(1);
        ADIW	R27:R26, 4
        LD	R16, X+
        LD	R17, X
        SBIW	R27:R26, 5
        OR	R16, R17
        BREQ	??run_cont_485_2_3
// 3045                   if((*(unsigned int*)(pointer+4))>10000)return(1);
        ADIW	R27:R26, 4
        LD	R16, X+
        LD	R17, X
        SBIW	R27:R26, 5
        CPI	R16, 17
        CPC	R17, R18
        BRCC	??run_cont_485_2_3
// 3046                   Rs485_2.cnt_tm_rx_out=0;
        LDI	R16, 0
        STD	Z+8, R16
        STD	Z+9, R16
// 3047                   Rs485_2.vol_tm_rx_out=*(unsigned int*)(pointer+4);
        ADIW	R27:R26, 4
        LD	R16, X+
        LD	R17, X
        SBIW	R27:R26, 5
        STD	Z+10, R16
        STD	Z+11, R17
// 3048                   
// 3049                   
// 3050                   if((*(unsigned int*)(pointer+6))<3)return(1);
        ADIW	R27:R26, 6
        LD	R24, X+
        LD	R25, X
        SBIW	R27:R26, 7
        CPI	R24, 3
        SBCI	R25, 0
        BRCC	$+2+2
        RJMP	??run_cont_485_2_3
// 3051                   Rs485_2.cnt_tm_out=0;
        LDI	R16, 0
        STD	Z+12, R16
        STD	Z+13, R16
// 3052                   Rs485_2.vol_tm_out=*(unsigned int*)(pointer+6); // 1000 ěčëëčńĺęóíä
        ADIW	R27:R26, 6
        LD	R16, X+
        LD	R17, X
        SBIW	R27:R26, 7
        STD	Z+14, R16
        STD	Z+15, R17
// 3053                    
// 3054                    
// 3055                    
// 3056                  switch (*pointer)
        LDI	R16, LOW(Appl_RS485_1)
        LDI	R17, (Appl_RS485_1) >> 8
        LD	R18, X
        SUBI	R18, 4
        BREQ	??run_cont_485_2_12
        DEC	R18
        BREQ	??run_cont_485_2_13
        DEC	R18
        BREQ	??run_cont_485_2_14
        SUBI	R18, 2
        BREQ	??run_cont_485_2_15
        RJMP	??run_cont_485_2_3
// 3057                             {
// 3058                               case B2400:
// 3059                                      UBRR1H=R2400_H;
??run_cont_485_2_12:
        LDI	R18, 1
        STS	205, R18
// 3060                                      UBRR1L=R2400_L;
        LDI	R18, 159
        STS	204, R18
// 3061                                      
// 3062                                      
// 3063                                      if(Appl_RS485_2.pre_tx!=0)
        MOVW	R27:R26, R17:R16
        ADIW	R27:R26, 36
        LD	R18, X+
        LD	R19, X
        OR	R18, R19
        BREQ	??run_cont_485_2_16
// 3064                                           {
// 3065                                           // ďĺđĺőâŕň ďîđňŕ äë˙ ëŕôęčíŕ
// 3066                                           
// 3067                                         //  __disable_interrupt();
// 3068                                           SET_RTS3;
??run_cont_485_2_17:
        SBI	0x0B, 0x04
// 3069                                         //  __enable_interrupt();
// 3070                                           
// 3071                                           
// 3072                                           Rs485_2.cnt_tm_pre_tx=Appl_RS485_2.pre_tx;//çŕäĺđćęŕ ďĺđĺä ďĺđĺäŕ÷ĺé
        MOVW	R27:R26, R17:R16
        ADIW	R27:R26, 36
        LD	R16, X+
        LD	R17, X
        RJMP	??run_cont_485_2_18
// 3073                                           }
// 3074                                         else Rs485_2.cnt_tm_pre_tx=17;// 17 ěčëëčńĺęóíä
??run_cont_485_2_16:
        LDI	R16, 17
        RJMP	??run_cont_485_2_19
// 3075                                     
// 3076                                 //     Rs485_2.vol_tm_tx_out=Rs485_2.vol_tm_tx_out+5;
// 3077                                      break;
// 3078                               case B4800:
// 3079                                      UBRR1H=R4800_H;
??run_cont_485_2_13:
        LDI	R18, 0
        STS	205, R18
// 3080                                      UBRR1L=R4800_L;
        LDI	R18, 207
        STS	204, R18
// 3081                                      
// 3082                                      if(Appl_RS485_2.pre_tx!=0)
        MOVW	R27:R26, R17:R16
        ADIW	R27:R26, 36
        LD	R18, X+
        LD	R19, X
        OR	R18, R19
        BRNE	??run_cont_485_2_17
// 3083                                           {
// 3084                                           // ďĺđĺőâŕň ďîđňŕ äë˙ ëŕôęčíŕ
// 3085                                         //  __disable_interrupt();
// 3086                                          SET_RTS3;
// 3087                                        //   __enable_interrupt();
// 3088                                           
// 3089                                           Rs485_2.cnt_tm_pre_tx=Appl_RS485_2.pre_tx;//çŕäĺđćęŕ ďĺđĺä ďĺđĺäŕ÷ĺé
// 3090                                           }
// 3091                                         else Rs485_2.cnt_tm_pre_tx=9;// 9 ěčëëčńĺęóíä
        LDI	R16, 9
        RJMP	??run_cont_485_2_19
// 3092                                         
// 3093                                  //    Rs485_2.vol_tm_tx_out=Rs485_2.vol_tm_tx_out+3;
// 3094                                      break;
// 3095                               case B9600:
// 3096                                      UBRR1H=R9600_H;
??run_cont_485_2_14:
        LDI	R18, 0
        STS	205, R18
// 3097                                      UBRR1L=R9600_L;
        LDI	R18, 103
        STS	204, R18
// 3098                                                                           
// 3099                                      if(Appl_RS485_2.pre_tx!=0)
        MOVW	R27:R26, R17:R16
        ADIW	R27:R26, 36
        LD	R18, X+
        LD	R19, X
        OR	R18, R19
        BRNE	??run_cont_485_2_17
// 3100                                           {
// 3101                                           // ďĺđĺőâŕň ďîđňŕ äë˙ ëŕôęčíŕ
// 3102                                          // __disable_interrupt();
// 3103                                           SET_RTS3;
// 3104                                         //  __enable_interrupt();
// 3105                                           
// 3106                                           Rs485_2.cnt_tm_pre_tx=Appl_RS485_2.pre_tx;//çŕäĺđćęŕ ďĺđĺä ďĺđĺäŕ÷ĺé
// 3107                                           }
// 3108                                         else Rs485_2.cnt_tm_pre_tx=4;// 4 ěčëëčńĺęóíä
        LDI	R16, 4
        RJMP	??run_cont_485_2_19
// 3109                                         
// 3110                                 //     Rs485_2.vol_tm_tx_out=Rs485_2.vol_tm_tx_out+2;
// 3111                                      break;
// 3112                               case B19200:
// 3113                                      UBRR1H=R19200_H;
??run_cont_485_2_15:
        LDI	R18, 0
        STS	205, R18
// 3114                                      UBRR1L=R19200_L;
        LDI	R18, 51
        STS	204, R18
// 3115                                                                           
// 3116                                      if(Appl_RS485_2.pre_tx!=0)
        MOVW	R27:R26, R17:R16
        ADIW	R27:R26, 36
        LD	R18, X+
        LD	R19, X
        OR	R18, R19
        BRNE	??run_cont_485_2_17
// 3117                                           {
// 3118                                           // ďĺđĺőâŕň ďîđňŕ äë˙ ëŕôęčíŕ
// 3119                                            
// 3120                                           // __disable_interrupt();
// 3121                                           SET_RTS3;
// 3122                                          // __enable_interrupt();
// 3123                                           
// 3124                                           Rs485_2.cnt_tm_pre_tx=Appl_RS485_2.pre_tx;//çŕäĺđćęŕ ďĺđĺä ďĺđĺäŕ÷ĺé
// 3125                                           }
// 3126                                         else Rs485_2.cnt_tm_pre_tx=2;// 2 ěčëëčńĺęóíä
        LDI	R16, 2
??run_cont_485_2_19:
        LDI	R17, 0
??run_cont_485_2_18:
        STD	Z+4, R16
        STD	Z+5, R17
// 3127                                         
// 3128                                 //     Rs485_2.vol_tm_tx_out=Rs485_2.vol_tm_tx_out+1;
// 3129                                      break;
// 3130                               default: return(1);
// 3131                             }  
// 3132                    
// 3133                    
// 3134                    
// 3135                    
// 3136 return(0);
        LDI	R16, 0
??run_cont_485_2_8:
        LDI	R30, 4
        JMP	?EPILOGUE_B4_L09
        CFI EndBlock cfiBlock37
// 3137 }
// 3138 
// 3139 
// 3140 
// 3141 

        RSEG CODE:CODE:NOROOT(1)
// 3142 unsigned char run_cont_232_2 (unsigned char *pointer)
run_cont_232_2:
        CFI Block cfiBlock38 Using cfiCommon0
        CFI Function run_cont_232_2
// 3143 {
        CALL	?PROLOGUE4_L09
        CFI R27 Frame(CFA_Y, -1)
        CFI R26 Frame(CFA_Y, -2)
        CFI R25 Frame(CFA_Y, -3)
        CFI R24 Frame(CFA_Y, -4)
        CFI CFA_Y Y+4
        MOVW	R27:R26, R17:R16
// 3144     
// 3145    
// 3146                 switch ((*(pointer+1)) & 0x07)
        MOVW	R31:R30, R27:R26
        LDD	R16, Z+1
        ANDI	R16, 0x07
        BREQ	??run_cont_232_2_0
        DEC	R16
        BREQ	??run_cont_232_2_1
        DEC	R16
        BREQ	??run_cont_232_2_2
        RJMP	??run_cont_232_2_3
// 3147                            {
// 3148                            case NON:  UCSR2C=UCSR2C & ~0x30;
??run_cont_232_2_0:
        LDS	R16, 210
        ANDI	R16, 0xCF
??run_cont_232_2_4:
        STS	210, R16
// 3149                                  break;
// 3150                            case ODD:  UCSR2C=UCSR2C | 0x30;
// 3151                                  break;
// 3152                            case EVEN: UCSR2C=UCSR2C & ~0x30;
// 3153                                  UCSR2C=UCSR2C | 0x20;
// 3154                                  break;
// 3155                            default: return(1);
// 3156                            }
// 3157          
// 3158 
// 3159                     switch (((*(pointer+1))>>3)& 0x03)
        LDD	R16, Z+1
        LSR	R16
        LSR	R16
        LSR	R16
        ANDI	R16, 0x03
        BREQ	??run_cont_232_2_5
        SUBI	R16, 2
        BREQ	??run_cont_232_2_6
        RJMP	??run_cont_232_2_3
// 3160                            {
// 3161                            case STOP1:UCSR2C=UCSR2C & ~0x08; 
??run_cont_232_2_5:
        LDS	R16, 210
        ANDI	R16, 0xF7
        RJMP	??run_cont_232_2_7
??run_cont_232_2_1:
        LDS	R16, 210
        ORI	R16, 0x30
        RJMP	??run_cont_232_2_4
??run_cont_232_2_2:
        LDS	R16, 210
        ANDI	R16, 0xCF
        STS	210, R16
        LDS	R16, 210
        ORI	R16, 0x20
        RJMP	??run_cont_232_2_4
??run_cont_232_2_3:
        LDI	R16, 1
        RJMP	??run_cont_232_2_8
// 3162                                  break;
// 3163                            case STOP2:
// 3164                                  UCSR2C=UCSR2C | 0x08; 
??run_cont_232_2_6:
        LDS	R16, 210
        ORI	R16, 0x08
??run_cont_232_2_7:
        STS	210, R16
// 3165                                  break;
// 3166                            default: return(1);
// 3167                            }
// 3168             
// 3169             
// 3170                     switch (((*(pointer+1))>>5)& 0x03)
        LDD	R16, Z+1
        SWAP	R16
        ANDI	R16, 0x0F
        LSR	R16
        ANDI	R16, 0x03
        SUBI	R16, 2
        BREQ	??run_cont_232_2_9
        DEC	R16
        BREQ	??run_cont_232_2_10
        RJMP	??run_cont_232_2_3
// 3171                            {
// 3172                            case INF7:
// 3173                                 UCSR2C=UCSR2C & ~0x06;
??run_cont_232_2_9:
        LDS	R16, 210
        ANDI	R16, 0xF9
        STS	210, R16
// 3174                                 UCSR2C=UCSR2C | 0x04;
        LDS	R16, 210
        ORI	R16, 0x04
        RJMP	??run_cont_232_2_11
// 3175                                 break;
// 3176                            case INF8:
// 3177                                 UCSR2C=UCSR2C | 0x06;
??run_cont_232_2_10:
        LDS	R16, 210
        ORI	R16, 0x06
??run_cont_232_2_11:
        STS	210, R16
// 3178                                 break;
// 3179                            default: return(1);
// 3180                            }
// 3181 
// 3182 
// 3183                   if((*(unsigned int*)(pointer+2))>10000)return(1);
        LDD	R16, Z+2
        LDD	R17, Z+3
        CPI	R16, 17
        LDI	R18, 39
        CPC	R17, R18
        BRCC	??run_cont_232_2_3
// 3184                   Rs232_2.cnt_tm_tx_out=0;
        LDI	R30, LOW(Rs232_2)
        LDI	R31, (Rs232_2) >> 8
        LDI	R16, 0
        STD	Z+2, R16
        STD	Z+3, R16
// 3185                   Rs232_2.vol_tm_tx_out=*(unsigned int*)(pointer+2);
        ADIW	R27:R26, 2
        LD	R16, X+
        LD	R17, X
        SBIW	R27:R26, 3
        STD	Z+6, R16
        STD	Z+7, R17
// 3186                   
// 3187                   if((*(unsigned int*)(pointer+4))==0)return(1);
        ADIW	R27:R26, 4
        LD	R16, X+
        LD	R17, X
        SBIW	R27:R26, 5
        OR	R16, R17
        BREQ	??run_cont_232_2_3
// 3188                   if((*(unsigned int*)(pointer+4))>10000)return(1);
        ADIW	R27:R26, 4
        LD	R16, X+
        LD	R17, X
        SBIW	R27:R26, 5
        CPI	R16, 17
        CPC	R17, R18
        BRCC	??run_cont_232_2_3
// 3189                   Rs232_2.cnt_tm_rx_out=0;
        LDI	R16, 0
        STD	Z+8, R16
        STD	Z+9, R16
// 3190                   Rs232_2.vol_tm_rx_out=*(unsigned int*)(pointer+4);
        ADIW	R27:R26, 4
        LD	R16, X+
        LD	R17, X
        SBIW	R27:R26, 5
        STD	Z+10, R16
        STD	Z+11, R17
// 3191                   
// 3192                   
// 3193                   if((*(unsigned int*)(pointer+6))<3)return(1);
        ADIW	R27:R26, 6
        LD	R24, X+
        LD	R25, X
        SBIW	R27:R26, 7
        CPI	R24, 3
        SBCI	R25, 0
        BRCC	$+2+2
        RJMP	??run_cont_232_2_3
// 3194                   Rs232_2.cnt_tm_out=0;
        LDI	R16, 0
        STD	Z+12, R16
        STD	Z+13, R16
// 3195                   Rs232_2.vol_tm_out=*(unsigned int*)(pointer+6); // 1000 ěčëëčńĺęóíä
        ADIW	R27:R26, 6
        LD	R16, X+
        LD	R17, X
        SBIW	R27:R26, 7
        STD	Z+14, R16
        STD	Z+15, R17
// 3196                    
// 3197                    
// 3198                    
// 3199                  switch (*pointer)
        LDI	R16, LOW(Appl_RS232_2)
        LDI	R17, (Appl_RS232_2) >> 8
        LD	R18, X
        SUBI	R18, 4
        BREQ	??run_cont_232_2_12
        DEC	R18
        BREQ	??run_cont_232_2_13
        DEC	R18
        BREQ	??run_cont_232_2_14
        SUBI	R18, 2
        BREQ	??run_cont_232_2_15
        RJMP	??run_cont_232_2_3
// 3200                             {
// 3201                               case B2400:
// 3202                                      UBRR2H=R2400_H;
??run_cont_232_2_12:
        LDI	R18, 1
        STS	213, R18
// 3203                                      UBRR2L=R2400_L;
        LDI	R18, 159
        STS	212, R18
// 3204                                      
// 3205                                      
// 3206                                      if(Appl_RS232_2.pre_tx!=0)
        MOVW	R27:R26, R17:R16
        ADIW	R27:R26, 17
        LD	R18, X+
        LD	R19, X
        OR	R18, R19
        BREQ	??run_cont_232_2_16
// 3207                                           {
// 3208                                           // ďĺđĺőâŕň ďîđňŕ äë˙ ëŕôęčíŕ
// 3209                                           
// 3210                                         //  __disable_interrupt();
// 3211                                           SET_RTS2;
??run_cont_232_2_17:
        LDS	R18, 258
        ANDI	R18, 0xFB
        STS	258, R18
// 3212                                         //  __enable_interrupt();
// 3213                                           
// 3214                                           
// 3215                                           Rs232_2.cnt_tm_pre_tx=Appl_RS232_2.pre_tx;//çŕäĺđćęŕ ďĺđĺä ďĺđĺäŕ÷ĺé
        MOVW	R27:R26, R17:R16
        ADIW	R27:R26, 17
        LD	R16, X+
        LD	R17, X
        RJMP	??run_cont_232_2_18
// 3216                                           }
// 3217                                         else Rs232_2.cnt_tm_pre_tx=17;// 17 ěčëëčńĺęóíä
??run_cont_232_2_16:
        LDI	R16, 17
        RJMP	??run_cont_232_2_19
// 3218                                     
// 3219                                   //   Rs232_2.vol_tm_tx_out=Rs232_2.vol_tm_tx_out+5;
// 3220                                      break;
// 3221                               case B4800:
// 3222                                      UBRR2H=R4800_H;
??run_cont_232_2_13:
        LDI	R18, 0
        STS	213, R18
// 3223                                      UBRR2L=R4800_L;
        LDI	R18, 207
        STS	212, R18
// 3224                                      
// 3225                                      if(Appl_RS232_2.pre_tx!=0)
        MOVW	R27:R26, R17:R16
        ADIW	R27:R26, 17
        LD	R18, X+
        LD	R19, X
        OR	R18, R19
        BRNE	??run_cont_232_2_17
// 3226                                           {
// 3227                                           // ďĺđĺőâŕň ďîđňŕ äë˙ ëŕôęčíŕ
// 3228                                         //  __disable_interrupt();
// 3229                                          SET_RTS2;
// 3230                                        //   __enable_interrupt();
// 3231                                           
// 3232                                           Rs232_2.cnt_tm_pre_tx=Appl_RS232_2.pre_tx;//çŕäĺđćęŕ ďĺđĺä ďĺđĺäŕ÷ĺé
// 3233                                           }
// 3234                                         else Rs232_2.cnt_tm_pre_tx=9;// 9 ěčëëčńĺęóíä
        LDI	R16, 9
        RJMP	??run_cont_232_2_19
// 3235                                         
// 3236                                  //    Rs232_2.vol_tm_tx_out=Rs232_2.vol_tm_tx_out+3;
// 3237                                      break;
// 3238                               case B9600:
// 3239                                      UBRR2H=R9600_H;
??run_cont_232_2_14:
        LDI	R18, 0
        STS	213, R18
// 3240                                      UBRR2L=R9600_L;
        LDI	R18, 103
        STS	212, R18
// 3241                                                                           
// 3242                                      if(Appl_RS232_2.pre_tx!=0)
        MOVW	R27:R26, R17:R16
        ADIW	R27:R26, 17
        LD	R18, X+
        LD	R19, X
        OR	R18, R19
        BRNE	??run_cont_232_2_17
// 3243                                           {
// 3244                                           // ďĺđĺőâŕň ďîđňŕ äë˙ ëŕôęčíŕ
// 3245                                          // __disable_interrupt();
// 3246                                           SET_RTS2;
// 3247                                         //  __enable_interrupt();
// 3248                                           
// 3249                                           Rs232_2.cnt_tm_pre_tx=Appl_RS232_2.pre_tx;//çŕäĺđćęŕ ďĺđĺä ďĺđĺäŕ÷ĺé
// 3250                                           }
// 3251                                         else Rs232_2.cnt_tm_pre_tx=4;// 4 ěčëëčńĺęóíä
        LDI	R16, 4
        RJMP	??run_cont_232_2_19
// 3252                                         
// 3253                                //      Rs232_2.vol_tm_tx_out=Rs232_2.vol_tm_tx_out+2;
// 3254                                      break;
// 3255                               case B19200:
// 3256                                      UBRR2H=R19200_H;
??run_cont_232_2_15:
        LDI	R18, 0
        STS	213, R18
// 3257                                      UBRR2L=R19200_L;
        LDI	R18, 51
        STS	212, R18
// 3258                                                                           
// 3259                                      if(Appl_RS232_2.pre_tx!=0)
        MOVW	R27:R26, R17:R16
        ADIW	R27:R26, 17
        LD	R18, X+
        LD	R19, X
        OR	R18, R19
        BRNE	??run_cont_232_2_17
// 3260                                           {
// 3261                                           // ďĺđĺőâŕň ďîđňŕ äë˙ ëŕôęčíŕ
// 3262                                            
// 3263                                           // __disable_interrupt();
// 3264                                           SET_RTS2;
// 3265                                          // __enable_interrupt();
// 3266                                           
// 3267                                           Rs232_2.cnt_tm_pre_tx=Appl_RS232_2.pre_tx;//çŕäĺđćęŕ ďĺđĺä ďĺđĺäŕ÷ĺé
// 3268                                           }
// 3269                                         else Rs232_2.cnt_tm_pre_tx=2;// 2 ěčëëčńĺęóíä
        LDI	R16, 2
??run_cont_232_2_19:
        LDI	R17, 0
??run_cont_232_2_18:
        STD	Z+4, R16
        STD	Z+5, R17
// 3270                                         
// 3271                                //      Rs232_2.vol_tm_tx_out=Rs232_2.vol_tm_tx_out+1;
// 3272                                      break;
// 3273                               default: return(1);
// 3274                             }  
// 3275                    
// 3276                    
// 3277                    
// 3278                    
// 3279 return(0);
        LDI	R16, 0
??run_cont_232_2_8:
        LDI	R30, 4
        JMP	?EPILOGUE_B4_L09
        CFI EndBlock cfiBlock38
// 3280 }
// 3281 
// 3282 
// 3283 
// 3284 
// 3285 
// 3286 
// 3287 
// 3288 
// 3289 

        RSEG CODE:CODE:NOROOT(1)
// 3290  unsigned char check_ln_conf(unsigned char *buf_rx_ppp,unsigned char offset,unsigned int count_rx_ppp)
check_ln_conf:
        CFI Block cfiBlock39 Using cfiCommon0
        CFI Function check_ln_conf
// 3291  {
        CALL	?PROLOGUE4_L09
        CFI R27 Frame(CFA_Y, -1)
        CFI R26 Frame(CFA_Y, -2)
        CFI R25 Frame(CFA_Y, -3)
        CFI R24 Frame(CFA_Y, -4)
        CFI CFA_Y Y+4
// 3292  unsigned int ind;
// 3293 
// 3294  ind=offset+C1_DATA;
        MOV	R24, R18
        LDI	R25, 0
        ADIW	R25:R24, 2
// 3295  next_check_ln: 
// 3296                ind=ind+3+*(unsigned int*)&buf_rx_ppp[ind+1]; 
??check_ln_conf_0:
        MOVW	R31:R30, R17:R16
        ADD	R30, R24
        ADC	R31, R25
        LDD	R26, Z+1
        LDD	R27, Z+2
        ADIW	R27:R26, 3
        ADD	R24, R26
        ADC	R25, R27
// 3297                if(ind>count_rx_ppp-3)return(1);
        MOVW	R31:R30, R21:R20
        SBIW	R31:R30, 3
        CP	R30, R24
        CPC	R31, R25
        BRCC	??check_ln_conf_1
        LDI	R16, 1
        RJMP	??check_ln_conf_2
// 3298                if(ind==count_rx_ppp-3)return(0);
??check_ln_conf_1:
        CP	R24, R30
        CPC	R25, R31
        BRNE	??check_ln_conf_0
        LDI	R16, 0
??check_ln_conf_2:
        LDI	R30, 4
        JMP	?EPILOGUE_B4_L09
        CFI EndBlock cfiBlock39
// 3299                goto next_check_ln;
// 3300  } 
// 3301 
// 3302 
// 3303 

        RSEG CODE:CODE:NOROOT(1)
// 3304 unsigned int proc_config(unsigned char *buf_rx_ppp,unsigned char offset,unsigned int count_rx_ppp)
proc_config:
        CFI Block cfiBlock40 Using cfiCommon0
        CFI Function proc_config
// 3305  {
        FUNCALL proc_config, ret_version
        LOCFRAME CSTACK, 40, STACK
        LOCFRAME RSTACK, 2, STACK
        FUNCALL proc_config, ret_version
        LOCFRAME CSTACK, 40, STACK
        LOCFRAME RSTACK, 2, STACK
        FUNCALL proc_config, ret_version
        LOCFRAME CSTACK, 40, STACK
        LOCFRAME RSTACK, 2, STACK
        FUNCALL proc_config, RdFromFleshToArr
        LOCFRAME CSTACK, 40, STACK
        LOCFRAME RSTACK, 2, STACK
        FUNCALL proc_config, crc_m1
        LOCFRAME CSTACK, 40, STACK
        LOCFRAME RSTACK, 2, STACK
        FUNCALL proc_config, WrArrayToFlesh
        LOCFRAME CSTACK, 40, STACK
        LOCFRAME RSTACK, 2, STACK
        FUNCALL proc_config, crc_ozu
        LOCFRAME CSTACK, 40, STACK
        LOCFRAME RSTACK, 2, STACK
        FUNCALL proc_config, RdFromFleshToArr
        LOCFRAME CSTACK, 40, STACK
        LOCFRAME RSTACK, 2, STACK
        FUNCALL proc_config, RdFromFleshToArr
        LOCFRAME CSTACK, 40, STACK
        LOCFRAME RSTACK, 2, STACK
        FUNCALL proc_config, crc_m1
        LOCFRAME CSTACK, 40, STACK
        LOCFRAME RSTACK, 2, STACK
        FUNCALL proc_config, WrArrayToFlesh
        LOCFRAME CSTACK, 40, STACK
        LOCFRAME RSTACK, 2, STACK
        FUNCALL proc_config, crc_ozu
        LOCFRAME CSTACK, 40, STACK
        LOCFRAME RSTACK, 2, STACK
        FUNCALL proc_config, RdFromFleshToArr
        LOCFRAME CSTACK, 40, STACK
        LOCFRAME RSTACK, 2, STACK
        FUNCALL proc_config, RdFromFleshToArr
        LOCFRAME CSTACK, 40, STACK
        LOCFRAME RSTACK, 2, STACK
        FUNCALL proc_config, crc_m1
        LOCFRAME CSTACK, 40, STACK
        LOCFRAME RSTACK, 2, STACK
        FUNCALL proc_config, WrArrayToFlesh
        LOCFRAME CSTACK, 40, STACK
        LOCFRAME RSTACK, 2, STACK
        FUNCALL proc_config, crc_ozu
        LOCFRAME CSTACK, 40, STACK
        LOCFRAME RSTACK, 2, STACK
        FUNCALL proc_config, RdFromFleshToArr
        LOCFRAME CSTACK, 40, STACK
        LOCFRAME RSTACK, 2, STACK
        FUNCALL proc_config, RdFromFleshToArr
        LOCFRAME CSTACK, 40, STACK
        LOCFRAME RSTACK, 2, STACK
        FUNCALL proc_config, crc_m1
        LOCFRAME CSTACK, 40, STACK
        LOCFRAME RSTACK, 2, STACK
        FUNCALL proc_config, WrArrayToFlesh
        LOCFRAME CSTACK, 40, STACK
        LOCFRAME RSTACK, 2, STACK
        FUNCALL proc_config, crc_ozu
        LOCFRAME CSTACK, 40, STACK
        LOCFRAME RSTACK, 2, STACK
        FUNCALL proc_config, RdFromFleshToArr
        LOCFRAME CSTACK, 40, STACK
        LOCFRAME RSTACK, 2, STACK
        FUNCALL proc_config, RdFromFleshToArr
        LOCFRAME CSTACK, 40, STACK
        LOCFRAME RSTACK, 2, STACK
        FUNCALL proc_config, crc_m1
        LOCFRAME CSTACK, 40, STACK
        LOCFRAME RSTACK, 2, STACK
        FUNCALL proc_config, WrArrayToFlesh
        LOCFRAME CSTACK, 40, STACK
        LOCFRAME RSTACK, 2, STACK
        FUNCALL proc_config, crc_ozu
        LOCFRAME CSTACK, 40, STACK
        LOCFRAME RSTACK, 2, STACK
        FUNCALL proc_config, RdFromFleshToArr
        LOCFRAME CSTACK, 40, STACK
        LOCFRAME RSTACK, 2, STACK
        FUNCALL proc_config, RdFromFleshToArr
        LOCFRAME CSTACK, 40, STACK
        LOCFRAME RSTACK, 2, STACK
        FUNCALL proc_config, crc_m1
        LOCFRAME CSTACK, 40, STACK
        LOCFRAME RSTACK, 2, STACK
        FUNCALL proc_config, WrArrayToFlesh
        LOCFRAME CSTACK, 40, STACK
        LOCFRAME RSTACK, 2, STACK
        FUNCALL proc_config, crc_ozu
        LOCFRAME CSTACK, 40, STACK
        LOCFRAME RSTACK, 2, STACK
        FUNCALL proc_config, RdFromFleshToArr
        LOCFRAME CSTACK, 40, STACK
        LOCFRAME RSTACK, 2, STACK
        FUNCALL proc_config, RdFromFleshToArr
        LOCFRAME CSTACK, 40, STACK
        LOCFRAME RSTACK, 2, STACK
        FUNCALL proc_config, crc_m1
        LOCFRAME CSTACK, 40, STACK
        LOCFRAME RSTACK, 2, STACK
        FUNCALL proc_config, WrArrayToFlesh
        LOCFRAME CSTACK, 40, STACK
        LOCFRAME RSTACK, 2, STACK
        FUNCALL proc_config, crc_ozu
        LOCFRAME CSTACK, 40, STACK
        LOCFRAME RSTACK, 2, STACK
        FUNCALL proc_config, monitor_beg_state_seq
        LOCFRAME CSTACK, 40, STACK
        LOCFRAME RSTACK, 2, STACK
        FUNCALL proc_config, RdFromFleshToArr
        LOCFRAME CSTACK, 40, STACK
        LOCFRAME RSTACK, 2, STACK
        FUNCALL proc_config, RdFromFleshToArr
        LOCFRAME CSTACK, 40, STACK
        LOCFRAME RSTACK, 2, STACK
        FUNCALL proc_config, crc_m1
        LOCFRAME CSTACK, 40, STACK
        LOCFRAME RSTACK, 2, STACK
        FUNCALL proc_config, WrArrayToFlesh
        LOCFRAME CSTACK, 40, STACK
        LOCFRAME RSTACK, 2, STACK
        FUNCALL proc_config, RdFromFleshToArr
        LOCFRAME CSTACK, 40, STACK
        LOCFRAME RSTACK, 2, STACK
        FUNCALL proc_config, RdFromFleshToArr
        LOCFRAME CSTACK, 40, STACK
        LOCFRAME RSTACK, 2, STACK
        FUNCALL proc_config, crc_m1
        LOCFRAME CSTACK, 40, STACK
        LOCFRAME RSTACK, 2, STACK
        FUNCALL proc_config, WrArrayToFlesh
        LOCFRAME CSTACK, 40, STACK
        LOCFRAME RSTACK, 2, STACK
        FUNCALL proc_config, RdFromFleshToArr
        LOCFRAME CSTACK, 40, STACK
        LOCFRAME RSTACK, 2, STACK
        FUNCALL proc_config, RdFromFleshToArr
        LOCFRAME CSTACK, 40, STACK
        LOCFRAME RSTACK, 2, STACK
        FUNCALL proc_config, crc_m1
        LOCFRAME CSTACK, 40, STACK
        LOCFRAME RSTACK, 2, STACK
        FUNCALL proc_config, WrArrayToFlesh
        LOCFRAME CSTACK, 40, STACK
        LOCFRAME RSTACK, 2, STACK
        FUNCALL proc_config, RdFromFleshToArr
        LOCFRAME CSTACK, 40, STACK
        LOCFRAME RSTACK, 2, STACK
        FUNCALL proc_config, RdFromFleshToArr
        LOCFRAME CSTACK, 40, STACK
        LOCFRAME RSTACK, 2, STACK
        FUNCALL proc_config, WrArrayToFlesh
        LOCFRAME CSTACK, 40, STACK
        LOCFRAME RSTACK, 2, STACK
        FUNCALL proc_config, WrArrayToFlesh
        LOCFRAME CSTACK, 40, STACK
        LOCFRAME RSTACK, 2, STACK
        FUNCALL proc_config, RdFromFleshToArr
        LOCFRAME CSTACK, 40, STACK
        LOCFRAME RSTACK, 2, STACK
        FUNCALL proc_config, set_rlt
        LOCFRAME CSTACK, 40, STACK
        LOCFRAME RSTACK, 2, STACK
        FUNCALL proc_config, burst_ds_r
        LOCFRAME CSTACK, 40, STACK
        LOCFRAME RSTACK, 2, STACK
        FUNCALL proc_config, RdFromFleshToArr
        LOCFRAME CSTACK, 40, STACK
        LOCFRAME RSTACK, 2, STACK
        FUNCALL proc_config, WrArrayToFlesh
        LOCFRAME CSTACK, 40, STACK
        LOCFRAME RSTACK, 2, STACK
        FUNCALL proc_config, WrArrayToFlesh
        LOCFRAME CSTACK, 40, STACK
        LOCFRAME RSTACK, 2, STACK
        FUNCALL proc_config, RdFromFleshToArr
        LOCFRAME CSTACK, 40, STACK
        LOCFRAME RSTACK, 2, STACK
        FUNCALL proc_config, crc_m1
        LOCFRAME CSTACK, 40, STACK
        LOCFRAME RSTACK, 2, STACK
        FUNCALL proc_config, WrArrayToFlesh
        LOCFRAME CSTACK, 40, STACK
        LOCFRAME RSTACK, 2, STACK
        FUNCALL proc_config, RdFromFleshToArr
        LOCFRAME CSTACK, 40, STACK
        LOCFRAME RSTACK, 2, STACK
        FUNCALL proc_config, RdFromFleshToArr
        LOCFRAME CSTACK, 40, STACK
        LOCFRAME RSTACK, 2, STACK
        FUNCALL proc_config, crc_m1
        LOCFRAME CSTACK, 40, STACK
        LOCFRAME RSTACK, 2, STACK
        FUNCALL proc_config, WrArrayToFlesh
        LOCFRAME CSTACK, 40, STACK
        LOCFRAME RSTACK, 2, STACK
        FUNCALL proc_config, crc_ozu
        LOCFRAME CSTACK, 40, STACK
        LOCFRAME RSTACK, 2, STACK
        FUNCALL proc_config, RdFromFleshToArr
        LOCFRAME CSTACK, 40, STACK
        LOCFRAME RSTACK, 2, STACK
        FUNCALL proc_config, RdFromFleshToArr
        LOCFRAME CSTACK, 40, STACK
        LOCFRAME RSTACK, 2, STACK
        FUNCALL proc_config, crc_m1
        LOCFRAME CSTACK, 40, STACK
        LOCFRAME RSTACK, 2, STACK
        FUNCALL proc_config, WrArrayToFlesh
        LOCFRAME CSTACK, 40, STACK
        LOCFRAME RSTACK, 2, STACK
        FUNCALL proc_config, crc_ozu
        LOCFRAME CSTACK, 40, STACK
        LOCFRAME RSTACK, 2, STACK
        FUNCALL proc_config, RdFromFleshToArr
        LOCFRAME CSTACK, 40, STACK
        LOCFRAME RSTACK, 2, STACK
        FUNCALL proc_config, RdFromFleshToArr
        LOCFRAME CSTACK, 40, STACK
        LOCFRAME RSTACK, 2, STACK
        FUNCALL proc_config, crc_m1
        LOCFRAME CSTACK, 40, STACK
        LOCFRAME RSTACK, 2, STACK
        FUNCALL proc_config, WrArrayToFlesh
        LOCFRAME CSTACK, 40, STACK
        LOCFRAME RSTACK, 2, STACK
        FUNCALL proc_config, crc_ozu
        LOCFRAME CSTACK, 40, STACK
        LOCFRAME RSTACK, 2, STACK
        FUNCALL proc_config, monitor_beg_state_seq
        LOCFRAME CSTACK, 40, STACK
        LOCFRAME RSTACK, 2, STACK
        FUNCALL proc_config, RdFromFleshToArr
        LOCFRAME CSTACK, 40, STACK
        LOCFRAME RSTACK, 2, STACK
        FUNCALL proc_config, RdFromFleshToArr
        LOCFRAME CSTACK, 40, STACK
        LOCFRAME RSTACK, 2, STACK
        FUNCALL proc_config, crc_m1
        LOCFRAME CSTACK, 40, STACK
        LOCFRAME RSTACK, 2, STACK
        FUNCALL proc_config, WrArrayToFlesh
        LOCFRAME CSTACK, 40, STACK
        LOCFRAME RSTACK, 2, STACK
        FUNCALL proc_config, crc_ozu
        LOCFRAME CSTACK, 40, STACK
        LOCFRAME RSTACK, 2, STACK
        FUNCALL proc_config, RdFromFleshToArr
        LOCFRAME CSTACK, 40, STACK
        LOCFRAME RSTACK, 2, STACK
        CALL	?PROLOGUE16_L09
        CFI R15 Frame(CFA_Y, -1)
        CFI R14 Frame(CFA_Y, -2)
        CFI R13 Frame(CFA_Y, -3)
        CFI R12 Frame(CFA_Y, -4)
        CFI R11 Frame(CFA_Y, -5)
        CFI R10 Frame(CFA_Y, -6)
        CFI R9 Frame(CFA_Y, -7)
        CFI R8 Frame(CFA_Y, -8)
        CFI R7 Frame(CFA_Y, -9)
        CFI R6 Frame(CFA_Y, -10)
        CFI R5 Frame(CFA_Y, -11)
        CFI R4 Frame(CFA_Y, -12)
        CFI R27 Frame(CFA_Y, -13)
        CFI R26 Frame(CFA_Y, -14)
        CFI R25 Frame(CFA_Y, -15)
        CFI R24 Frame(CFA_Y, -16)
        CFI CFA_Y Y+16
        REQUIRE	?Register_R4_is_cg_reg
        REQUIRE	?Register_R5_is_cg_reg
        REQUIRE	?Register_R6_is_cg_reg
        REQUIRE	?Register_R7_is_cg_reg
        REQUIRE	?Register_R10_is_cg_reg
        REQUIRE	?Register_R11_is_cg_reg
        REQUIRE	?Register_R12_is_cg_reg
        REQUIRE	?Register_R13_is_cg_reg
        REQUIRE	?Register_R14_is_cg_reg
        REQUIRE	?Register_R15_is_cg_reg
        SBIW	R29:R28, 24
        CFI CFA_Y Y+40
        STD	Y+22, R20
        STD	Y+23, R21
        MOVW	R13:R12, R17:R16
// 3306 
// 3307  //unsigned char flag_monitor_beg=0;
// 3308  unsigned int ind,temp,ofs,i;
// 3309  unsigned int cnt_bt;
// 3310  unsigned char buf[20];
// 3311  cnt_bt=0;
        CLR	R10
        CLR	R11
// 3312  ind=offset+C1_DATA;
        MOV	R14, R18
        CLR	R15
        MOVW	R25:R24, R15:R14
        ADIW	R25:R24, 2
        STD	Y+20, R24
        STD	Y+21, R25
// 3313  next_parametr: 
// 3314                
// 3315                switch(buf_rx_ppp[ind]&0x7f)
??proc_config_0:
        LDI	R26, LOW(buf_tx_232)
        LDI	R27, (buf_tx_232) >> 8
        ADD	R26, R10
        ADC	R27, R11
        MOVW	R5:R4, R13:R12
        ADD	R4, R14
        ADC	R5, R15
        LDD	R16, Y+20
        LDD	R17, Y+21
        MOVW	R25:R24, R13:R12
        ADD	R24, R16
        ADC	R25, R17
        LDI	R16, LOW(Appl_seq)
        MOV	R6, R16
        LDI	R16, (Appl_seq) >> 8
        MOV	R7, R16
        MOVW	R31:R30, R25:R24
        LD	R16, Z
        ANDI	R16, 0x7F
        LDI	R30, LOW(`?<Jumptable for proc_config>_0`)
        LDI	R31, (`?<Jumptable for proc_config>_0`) >> 16
        OUT	0x3B, R31
        LDI	R31, HIGH(`?<Jumptable for proc_config>_0`)
        JMP	?CV_SWITCH_L06
// 3316                  {
// 3317                  case CONF_VERS:  if((buf_rx_ppp[ind] & 0x80)==0x80)goto bad_com;
??proc_config_1:
        MOVW	R31:R30, R25:R24
        LD	R16, Z
        SBRC	R16, 7
        RJMP	??proc_config_2
// 3318                                     else
// 3319                                     {
// 3320                                     if(*(unsigned int*)&buf_rx_ppp[ind+1]!=L_RD_CONF_VERS)goto bad_com;   
        LDD	R16, Z+1
        LDD	R17, Z+2
        OR	R16, R17
        BREQ	$+2+2
        RJMP	??proc_config_2
// 3321                                     }
// 3322                                    buf_tx_232[TR_OP_DATA+C1_DATA+cnt_bt]=buf_rx_ppp[ind];  
        LD	R16, Z
        MOVW	R31:R30, R27:R26
        STD	Z+44, R16
// 3323                                    buf_tx_232[TR_OP_DATA+C1_DATA+3+cnt_bt]=0x00; //OK  
        LDI	R16, 0
        STD	Z+47, R16
// 3324                                    buf[0]=ret_version(0,&buf_tx_232[TR_OP_DATA+C1_DATA+4+cnt_bt]);
        MOVW	R19:R18, R27:R26
        SUBI	R18, 208
        SBCI	R19, 255
??proc_config_3:
        CALL	ret_version
        ST	Y, R16
// 3325                                    *(unsigned int*)&buf_tx_232[TR_OP_DATA+C1_DATA+1+cnt_bt]=buf[0]+1;
        LD	R16, Y
        LDI	R17, 0
        SUBI	R16, 255
        SBCI	R17, 255
        MOVW	R31:R30, R27:R26
        STD	Z+45, R16
        STD	Z+46, R17
// 3326                                   cnt_bt=cnt_bt+buf[0]+1+3;
        LD	R16, Y
        MOV	R30, R16
        LDI	R31, 0
        ADIW	R31:R30, 4
        ADD	R10, R30
        ADC	R11, R31
        RJMP	??proc_config_4
// 3327                                   break;
// 3328                  
// 3329                  case CONF_MAP:  if((buf_rx_ppp[ind] & 0x80)==0x80)goto bad_com;
??proc_config_5:
        MOVW	R31:R30, R25:R24
        LD	R16, Z
        SBRC	R16, 7
        RJMP	??proc_config_2
// 3330                                     else
// 3331                                     {
// 3332                                     if(*(unsigned int*)&buf_rx_ppp[ind+1]!=L_RD_CONF_MAP)goto bad_com;   
        LDD	R16, Z+1
        LDD	R17, Z+2
        OR	R16, R17
        BREQ	$+2+2
        RJMP	??proc_config_2
// 3333                                     }
// 3334                                    buf_tx_232[TR_OP_DATA+C1_DATA+cnt_bt]=buf_rx_ppp[ind];  
        LD	R16, Z
        MOVW	R31:R30, R27:R26
        STD	Z+44, R16
// 3335                                    buf_tx_232[TR_OP_DATA+C1_DATA+3+cnt_bt]=0x00; //OK  
        STD	Z+47, R15
// 3336                                    buf[0]=ret_version(1,&buf_tx_232[TR_OP_DATA+C1_DATA+4+cnt_bt]);
        MOVW	R19:R18, R27:R26
        SUBI	R18, 208
        SBCI	R19, 255
        LDI	R16, 1
        RJMP	??proc_config_3
// 3337                                    *(unsigned int*)&buf_tx_232[TR_OP_DATA+C1_DATA+1+cnt_bt]=buf[0]+1;
// 3338                                   cnt_bt=cnt_bt+buf[0]+1+3;
// 3339                                   break;
// 3340                  
// 3341                  
// 3342                 case CONF_OZU:  if((buf_rx_ppp[ind] & 0x80)==0x80)goto bad_com;
??proc_config_6:
        MOVW	R31:R30, R25:R24
        LD	R16, Z
        SBRC	R16, 7
        RJMP	??proc_config_2
// 3343                                     else
// 3344                                     {
// 3345                                     if(*(unsigned int*)&buf_rx_ppp[ind+1]!=L_RD_CONF_OZU)goto bad_com;   
        LDD	R16, Z+1
        LDD	R17, Z+2
        OR	R16, R17
        BREQ	$+2+2
        RJMP	??proc_config_2
// 3346                                     }
// 3347                                    buf_tx_232[TR_OP_DATA+C1_DATA+cnt_bt]=buf_rx_ppp[ind];  
        LD	R16, Z
        MOVW	R31:R30, R27:R26
        STD	Z+44, R16
// 3348                                    buf_tx_232[TR_OP_DATA+C1_DATA+3+cnt_bt]=0x00; //OK  
        STD	Z+47, R15
// 3349                                    buf[0]=ret_version(2,&buf_tx_232[TR_OP_DATA+C1_DATA+4+cnt_bt]);
        MOVW	R19:R18, R27:R26
        SUBI	R18, 208
        SBCI	R19, 255
        LDI	R16, 2
        RJMP	??proc_config_3
// 3350                                    *(unsigned int*)&buf_tx_232[TR_OP_DATA+C1_DATA+1+cnt_bt]=buf[0]+1;
// 3351                                   cnt_bt=cnt_bt+buf[0]+1+3;
// 3352                                   break;
// 3353                 
// 3354                  case CONF_TM_NAT:  
// 3355                  
// 3356                                   
// 3357                                   if((buf_rx_ppp[offset+C1_DATA] & 0x80)==0x80)
??proc_config_7:
        MOVW	R31:R30, R5:R4
        LDD	R16, Z+2
        MOVW	R31:R30, R25:R24
        SBRS	R16, 7
        RJMP	??proc_config_8
// 3358                                     {
// 3359                                     if(*(unsigned int*)&buf_rx_ppp[ind+1]!=L_CONF_TM_NAT)goto bad_com;
        LDD	R18, Z+1
        LDD	R19, Z+2
        CPI	R18, 2
        CPC	R19, R15
        BREQ	$+2+2
        RJMP	??proc_config_2
// 3360                                     //çŕďčńü
// 3361                                     temp=*(unsigned int*)&buf_rx_ppp[ind+3];
        LDD	R4, Z+3
        LDD	R5, Z+4
// 3362                                     
// 3363                                     if (temp<10){buf_tx_232[TR_OP_DATA+C1_DATA+3+cnt_bt]=0x01;goto nocorr_com;}
        LDI	R16, 10
        CP	R4, R16
        CPC	R5, R15
        BRCC	??proc_config_9
??proc_config_10:
        LDI	R16, 1
        RJMP	??proc_config_11
// 3364                                     
// 3365                                     
// 3366                                     Control.vol_nat=temp;
??proc_config_9:
        LDI	R30, LOW(Appl_seq)
        LDI	R31, (Appl_seq) >> 8
        STD	Z+36, R4
        STD	Z+37, R5
// 3367                                     RdFromFleshToArr(A_C_PAR,&buf[0],L_C_PAR); 
        LDI	R20, 14
        LDI	R21, 0
        MOVW	R19:R18, R29:R28
        LDI	R16, 150
        LDI	R17, 0
        CALL	RdFromFleshToArr
// 3368                                     *(unsigned int*)&buf[OFS_NAT]=temp;
        ST	Y, R4
        STD	Y+1, R5
// 3369                                     *(unsigned int*)&buf[OFS_C_PAR_CRC]=crc_m1(&buf[0],L_C_PAR-2,0xffff);
        LDI	R20, 255
        LDI	R21, 255
        LDI	R18, 12
        LDI	R19, 0
        MOVW	R17:R16, R29:R28
        CALL	crc_m1
        STD	Y+12, R16
        STD	Y+13, R17
// 3370                                     WrArrayToFlesh(A_C_PAR, &buf[0],L_C_PAR,0,0);
        LDI	R23, 0
        LDI	R22, 0
        LDI	R20, 14
        LDI	R21, 0
        MOVW	R19:R18, R29:R28
        LDI	R16, 150
        LDI	R17, 0
        CALL	WrArrayToFlesh
// 3371                                     prov_ozu=crc_ozu();
        CALL	crc_ozu
        LDI	R30, LOW(prov_ozu)
        LDI	R31, (prov_ozu) >> 8
        ST	Z, R16
        STD	Z+1, R17
        RJMP	??proc_config_12
// 3372                                     }
// 3373                                     else {if(*(unsigned int*)&buf_rx_ppp[ind+1]!=(L_CONF_TM_NAT-2))goto bad_com;}
??proc_config_8:
        LDD	R16, Z+1
        LDD	R17, Z+2
        OR	R16, R17
        BREQ	$+2+2
        RJMP	??proc_config_2
// 3374                                      
// 3375 
// 3376                                     buf_tx_232[TR_OP_DATA+C1_DATA+cnt_bt]=buf_rx_ppp[ind];  //÷ňĺíčĺ
??proc_config_12:
        MOVW	R31:R30, R25:R24
        LD	R16, Z
        MOVW	R31:R30, R27:R26
        STD	Z+44, R16
// 3377                                     *(unsigned int*)&buf_tx_232[TR_OP_DATA+C1_DATA+1+cnt_bt]=L_CONF_TM_NAT+1;   
        LDI	R16, 3
        LDI	R17, 0
        STD	Z+45, R16
        STD	Z+46, R17
// 3378                                     buf_tx_232[TR_OP_DATA+C1_DATA+3+cnt_bt]=0x00; //OK  
        STD	Z+47, R17
// 3379                                     RdFromFleshToArr(A_C_PAR+OFS_NAT,&buf_tx_232[TR_OP_DATA+C1_DATA+4+cnt_bt],2);
        LDI	R20, 2
        LDI	R21, 0
        ADIW	R27:R26, 48
        MOVW	R19:R18, R27:R26
        LDI	R16, 150
??proc_config_13:
        CALL	RdFromFleshToArr
// 3380                                     
// 3381                                     cnt_bt=cnt_bt+L_CONF_TM_NAT+1+3;
??proc_config_14:
        LDI	R16, 6
        RJMP	??proc_config_15
// 3382                                   break;
// 3383                    
// 3384                    case CONF_TM_CC:  
// 3385                  
// 3386                                   
// 3387                                   if((buf_rx_ppp[offset+C1_DATA] & 0x80)==0x80)
??proc_config_16:
        MOVW	R31:R30, R5:R4
        LDD	R16, Z+2
        MOVW	R31:R30, R25:R24
        SBRS	R16, 7
        RJMP	??proc_config_17
// 3388                                     {
// 3389                                     if(*(unsigned int*)&buf_rx_ppp[ind+1]!=L_CONF_TM_CC)goto bad_com;
        LDD	R18, Z+1
        LDD	R19, Z+2
        CPI	R18, 2
        CPC	R19, R15
        BREQ	$+2+2
        RJMP	??proc_config_2
// 3390                                     //çŕďčńü
// 3391                                     temp=*(unsigned int*)&buf_rx_ppp[ind+3];
        LDD	R4, Z+3
        LDD	R5, Z+4
// 3392                                     
// 3393                                     if (temp<10){buf_tx_232[TR_OP_DATA+C1_DATA+3+cnt_bt]=0x01;goto nocorr_com;}
        LDI	R16, 10
        CP	R4, R16
        CPC	R5, R15
        BRCC	$+2+2
        RJMP	??proc_config_10
// 3394                                     
// 3395                                     Control.vol_link=temp;
        LDI	R30, LOW(Appl_seq)
        LDI	R31, (Appl_seq) >> 8
        STD	Z+34, R4
        STD	Z+35, R5
// 3396                                     RdFromFleshToArr(A_C_PAR,&buf[0],L_C_PAR); 
        LDI	R20, 14
        LDI	R21, 0
        MOVW	R19:R18, R29:R28
        LDI	R16, 150
        LDI	R17, 0
        CALL	RdFromFleshToArr
// 3397                                     *(unsigned int*)&buf[OFS_CCH]=temp;
        STD	Y+2, R4
        STD	Y+3, R5
// 3398                                     *(unsigned int*)&buf[OFS_C_PAR_CRC]=crc_m1(&buf[0],L_C_PAR-2,0xffff);
        LDI	R20, 255
        LDI	R21, 255
        LDI	R18, 12
        LDI	R19, 0
        MOVW	R17:R16, R29:R28
        CALL	crc_m1
        STD	Y+12, R16
        STD	Y+13, R17
// 3399                                     WrArrayToFlesh(A_C_PAR, &buf[0],L_C_PAR,0,0);
        LDI	R23, 0
        LDI	R22, 0
        LDI	R20, 14
        LDI	R21, 0
        MOVW	R19:R18, R29:R28
        LDI	R16, 150
        LDI	R17, 0
        CALL	WrArrayToFlesh
// 3400                                     prov_ozu=crc_ozu();
        CALL	crc_ozu
        LDI	R30, LOW(prov_ozu)
        LDI	R31, (prov_ozu) >> 8
        ST	Z, R16
        STD	Z+1, R17
        RJMP	??proc_config_18
// 3401                                     }
// 3402                                     else {if(*(unsigned int*)&buf_rx_ppp[ind+1]!=(L_CONF_TM_CC-2))goto bad_com;}
??proc_config_17:
        LDD	R16, Z+1
        LDD	R17, Z+2
        OR	R16, R17
        BREQ	$+2+2
        RJMP	??proc_config_2
// 3403                                      
// 3404 
// 3405                                     buf_tx_232[TR_OP_DATA+C1_DATA+cnt_bt]=buf_rx_ppp[ind];  //÷ňĺíčĺ
??proc_config_18:
        MOVW	R31:R30, R25:R24
        LD	R16, Z
        MOVW	R31:R30, R27:R26
        STD	Z+44, R16
// 3406                                     *(unsigned int*)&buf_tx_232[TR_OP_DATA+C1_DATA+1+cnt_bt]=L_CONF_TM_CC+1;   
        LDI	R16, 3
        LDI	R17, 0
        STD	Z+45, R16
        STD	Z+46, R17
// 3407                                     buf_tx_232[TR_OP_DATA+C1_DATA+3+cnt_bt]=0x00; //OK  
        STD	Z+47, R17
// 3408                                     RdFromFleshToArr(A_C_PAR+OFS_CCH,&buf_tx_232[TR_OP_DATA+C1_DATA+4+cnt_bt],2);
        LDI	R20, 2
        LDI	R21, 0
        ADIW	R27:R26, 48
        MOVW	R19:R18, R27:R26
        LDI	R16, 152
        RJMP	??proc_config_13
// 3409                                     
// 3410                                     cnt_bt=cnt_bt+L_CONF_TM_CC+1+3;
// 3411                                   break;
// 3412                                   
// 3413                                   
// 3414                     case CONF_TM_WT :  
// 3415                  
// 3416                                   
// 3417                                   if((buf_rx_ppp[offset+C1_DATA] & 0x80)==0x80)
??proc_config_19:
        MOVW	R31:R30, R5:R4
        LDD	R16, Z+2
        MOVW	R31:R30, R25:R24
        SBRS	R16, 7
        RJMP	??proc_config_20
// 3418                                     {
// 3419                                     if(*(unsigned int*)&buf_rx_ppp[ind+1]!=L_CONF_TM_WT)goto bad_com;
        LDD	R18, Z+1
        LDD	R19, Z+2
        CPI	R18, 2
        CPC	R19, R15
        BREQ	$+2+2
        RJMP	??proc_config_2
// 3420                                     //çŕďčńü
// 3421                                     temp=*(unsigned int*)&buf_rx_ppp[ind+3];
        LDD	R4, Z+3
        LDD	R5, Z+4
// 3422                                      
// 3423                                     if (temp<5){buf_tx_232[TR_OP_DATA+C1_DATA+3+cnt_bt]=0x01;goto nocorr_com;}
        LDI	R16, 5
        CP	R4, R16
        CPC	R5, R15
        BRCC	$+2+2
        RJMP	??proc_config_10
// 3424 
// 3425                                     Control.vol_try=temp/Control.vol_waits;
        MOVW	R17:R16, R5:R4
        LDI	R30, LOW(Appl_seq)
        LDI	R31, (Appl_seq) >> 8
        LDD	R20, Z+38
        LDD	R21, Z+39
        CALL	?US_DIVMOD_L02
        LDI	R30, LOW(Appl_seq)
        STD	Z+41, R16
// 3426                                    
// 3427                                     RdFromFleshToArr(A_C_PAR,&buf[0],L_C_PAR); 
        LDI	R20, 14
        LDI	R21, 0
        MOVW	R19:R18, R29:R28
        LDI	R16, 150
        LDI	R17, 0
        CALL	RdFromFleshToArr
// 3428                                     *(unsigned int*)&buf[OFS_TM_CH]=temp;
        STD	Y+4, R4
        STD	Y+5, R5
// 3429                                     *(unsigned int*)&buf[OFS_C_PAR_CRC]=crc_m1(&buf[0],L_C_PAR-2,0xffff);
        LDI	R20, 255
        LDI	R21, 255
        LDI	R18, 12
        LDI	R19, 0
        MOVW	R17:R16, R29:R28
        CALL	crc_m1
        STD	Y+12, R16
        STD	Y+13, R17
// 3430                                     WrArrayToFlesh(A_C_PAR, &buf[0],L_C_PAR,0,0);
        LDI	R23, 0
        LDI	R22, 0
        LDI	R20, 14
        LDI	R21, 0
        MOVW	R19:R18, R29:R28
        LDI	R16, 150
        LDI	R17, 0
        CALL	WrArrayToFlesh
// 3431                                     prov_ozu=crc_ozu();
        CALL	crc_ozu
        LDI	R30, LOW(prov_ozu)
        LDI	R31, (prov_ozu) >> 8
        ST	Z, R16
        STD	Z+1, R17
        RJMP	??proc_config_21
// 3432                                     }
// 3433                                     else {if(*(unsigned int*)&buf_rx_ppp[ind+1]!=(L_CONF_TM_WT-2))goto bad_com;}
??proc_config_20:
        LDD	R16, Z+1
        LDD	R17, Z+2
        OR	R16, R17
        BREQ	$+2+2
        RJMP	??proc_config_2
// 3434                                      
// 3435 
// 3436                                     buf_tx_232[TR_OP_DATA+C1_DATA+cnt_bt]=buf_rx_ppp[ind];  //÷ňĺíčĺ
??proc_config_21:
        MOVW	R31:R30, R25:R24
        LD	R16, Z
        MOVW	R31:R30, R27:R26
        STD	Z+44, R16
// 3437                                     *(unsigned int*)&buf_tx_232[TR_OP_DATA+C1_DATA+1+cnt_bt]=L_CONF_TM_WT+1;   
        LDI	R16, 3
        LDI	R17, 0
        STD	Z+45, R16
        STD	Z+46, R17
// 3438                                     buf_tx_232[TR_OP_DATA+C1_DATA+3+cnt_bt]=0x00; //OK  
        STD	Z+47, R17
// 3439                                     RdFromFleshToArr(A_C_PAR+OFS_TM_CH,&buf_tx_232[TR_OP_DATA+C1_DATA+4+cnt_bt],2);
        LDI	R20, 2
        LDI	R21, 0
        ADIW	R27:R26, 48
        MOVW	R19:R18, R27:R26
        LDI	R16, 154
        RJMP	??proc_config_13
// 3440                                     
// 3441                                     cnt_bt=cnt_bt+L_CONF_TM_WT+1+3;
// 3442                                   break;              
// 3443 
// 3444 
// 3445                case CONF_NUM_CL :  
// 3446                  
// 3447                                   
// 3448                                   if((buf_rx_ppp[offset+C1_DATA] & 0x80)==0x80)
??proc_config_22:
        MOVW	R31:R30, R5:R4
        LDD	R16, Z+2
        MOVW	R31:R30, R25:R24
        SBRS	R16, 7
        RJMP	??proc_config_23
// 3449                                     {
// 3450                                     if(*(unsigned int*)&buf_rx_ppp[ind+1]!=L_CONF_NUM_CL)goto bad_com;
        LDD	R18, Z+1
        LDD	R19, Z+2
        CPI	R18, 2
        CPC	R19, R15
        BREQ	$+2+2
        RJMP	??proc_config_2
// 3451                                     //çŕďčńü
// 3452                                     temp=*(unsigned int*)&buf_rx_ppp[ind+3];
        LDD	R4, Z+3
        LDD	R5, Z+4
// 3453                                      
// 3454                                     if (temp<3){buf_tx_232[TR_OP_DATA+C1_DATA+3+cnt_bt]=0x01;goto nocorr_com;}
        LDI	R16, 3
        CP	R4, R16
        CPC	R5, R15
        BRCC	$+2+2
        RJMP	??proc_config_10
// 3455 
// 3456                                     num_seq_cl=temp;
        LDI	R30, LOW(Appl_seq)
        LDI	R31, (Appl_seq) >> 8
        STD	Z+58, R4
        STD	Z+59, R5
// 3457                                     
// 3458                                     RdFromFleshToArr(A_SEQ_PAR,&buf[0],L_SEQ_PAR); 
        LDI	R20, 11
        LDI	R21, 0
        MOVW	R19:R18, R29:R28
        LDI	R16, 164
        LDI	R17, 0
        CALL	RdFromFleshToArr
// 3459                                     *(unsigned int*)&buf[OFS_NUM_CL]=temp;
        STD	Y+1, R4
        STD	Y+2, R5
// 3460                                     *(unsigned int*)&buf[OFS_SEQ_PAR_CRC]=crc_m1(&buf[0],L_SEQ_PAR-2,0xffff);
        LDI	R20, 255
        LDI	R21, 255
        LDI	R18, 9
        LDI	R19, 0
        MOVW	R17:R16, R29:R28
        CALL	crc_m1
        STD	Y+9, R16
        STD	Y+10, R17
// 3461                                     WrArrayToFlesh(A_SEQ_PAR, &buf[0],L_SEQ_PAR,0,0);
        LDI	R23, 0
        LDI	R22, 0
        LDI	R20, 11
        LDI	R21, 0
        MOVW	R19:R18, R29:R28
        LDI	R16, 164
        LDI	R17, 0
        CALL	WrArrayToFlesh
// 3462                                     prov_ozu=crc_ozu();
        CALL	crc_ozu
        LDI	R30, LOW(prov_ozu)
        LDI	R31, (prov_ozu) >> 8
        ST	Z, R16
        STD	Z+1, R17
        RJMP	??proc_config_24
// 3463                                     }
// 3464                                     else {if(*(unsigned int*)&buf_rx_ppp[ind+1]!=(L_CONF_NUM_CL-2))goto bad_com;}
??proc_config_23:
        LDD	R16, Z+1
        LDD	R17, Z+2
        OR	R16, R17
        BREQ	$+2+2
        RJMP	??proc_config_2
// 3465                                      
// 3466 
// 3467                                     buf_tx_232[TR_OP_DATA+C1_DATA+cnt_bt]=buf_rx_ppp[ind];  //÷ňĺíčĺ
??proc_config_24:
        MOVW	R31:R30, R25:R24
        LD	R16, Z
        MOVW	R31:R30, R27:R26
        STD	Z+44, R16
// 3468                                     *(unsigned int*)&buf_tx_232[TR_OP_DATA+C1_DATA+1+cnt_bt]=L_CONF_NUM_CL+1;   
        LDI	R16, 3
        LDI	R17, 0
        STD	Z+45, R16
        STD	Z+46, R17
// 3469                                     buf_tx_232[TR_OP_DATA+C1_DATA+3+cnt_bt]=0x00; //OK  
        STD	Z+47, R17
// 3470                                     RdFromFleshToArr(A_SEQ_PAR+OFS_NUM_CL,&buf_tx_232[TR_OP_DATA+C1_DATA+4+cnt_bt],2);
        LDI	R20, 2
        LDI	R21, 0
        ADIW	R27:R26, 48
        MOVW	R19:R18, R27:R26
        LDI	R16, 165
        RJMP	??proc_config_13
// 3471                                     
// 3472                                     cnt_bt=cnt_bt+L_CONF_NUM_CL+1+3;
// 3473                                   break;   
// 3474                case CONF_TM_VZ :  
// 3475                  
// 3476                                   
// 3477                                   if((buf_rx_ppp[offset+C1_DATA] & 0x80)==0x80)
??proc_config_25:
        MOVW	R31:R30, R5:R4
        LDD	R16, Z+2
        MOVW	R31:R30, R25:R24
        SBRS	R16, 7
        RJMP	??proc_config_26
// 3478                                     {
// 3479                                     if(*(unsigned int*)&buf_rx_ppp[ind+1]!=L_CONF_TM_VZ)goto bad_com;
        LDD	R18, Z+1
        LDD	R19, Z+2
        CPI	R18, 2
        CPC	R19, R15
        BREQ	$+2+2
        RJMP	??proc_config_2
// 3480                                     //çŕďčńü
// 3481                                     temp=*(unsigned int*)&buf_rx_ppp[ind+3];
        LDD	R4, Z+3
        LDD	R5, Z+4
// 3482                                      
// 3483                                     if (temp<1){buf_tx_232[TR_OP_DATA+C1_DATA+3+cnt_bt]=0x01;goto nocorr_com;}
        MOV	R16, R4
        OR	R16, R5
        BRNE	$+2+2
        RJMP	??proc_config_10
// 3484 
// 3485                                     Appl_seq.vol_tm_vzat=temp;
        LDI	R30, LOW(Appl_seq)
        LDI	R31, (Appl_seq) >> 8
        STD	Z+18, R4
        STD	Z+19, R5
// 3486                                     
// 3487                                     RdFromFleshToArr(A_SEQ_PAR,&buf[0],L_SEQ_PAR); 
        LDI	R20, 11
        LDI	R21, 0
        MOVW	R19:R18, R29:R28
        LDI	R16, 164
        LDI	R17, 0
        CALL	RdFromFleshToArr
// 3488                                     *(unsigned int*)&buf[OFS_TM_VZ]=temp;
        STD	Y+3, R4
        STD	Y+4, R5
// 3489                                     *(unsigned int*)&buf[OFS_SEQ_PAR_CRC]=crc_m1(&buf[0],L_SEQ_PAR-2,0xffff);
        LDI	R20, 255
        LDI	R21, 255
        LDI	R18, 9
        LDI	R19, 0
        MOVW	R17:R16, R29:R28
        CALL	crc_m1
        STD	Y+9, R16
        STD	Y+10, R17
// 3490                                     WrArrayToFlesh(A_SEQ_PAR, &buf[0],L_SEQ_PAR,0,0);
        LDI	R23, 0
        LDI	R22, 0
        LDI	R20, 11
        LDI	R21, 0
        MOVW	R19:R18, R29:R28
        LDI	R16, 164
        LDI	R17, 0
        CALL	WrArrayToFlesh
// 3491                                     prov_ozu=crc_ozu();
        CALL	crc_ozu
        LDI	R30, LOW(prov_ozu)
        LDI	R31, (prov_ozu) >> 8
        ST	Z, R16
        STD	Z+1, R17
        RJMP	??proc_config_27
// 3492                                     }
// 3493                                     else {if(*(unsigned int*)&buf_rx_ppp[ind+1]!=(L_CONF_TM_VZ-2))goto bad_com;}
??proc_config_26:
        LDD	R16, Z+1
        LDD	R17, Z+2
        OR	R16, R17
        BREQ	$+2+2
        RJMP	??proc_config_2
// 3494                                      
// 3495 
// 3496                                     buf_tx_232[TR_OP_DATA+C1_DATA+cnt_bt]=buf_rx_ppp[ind];  //÷ňĺíčĺ
??proc_config_27:
        MOVW	R31:R30, R25:R24
        LD	R16, Z
        MOVW	R31:R30, R27:R26
        STD	Z+44, R16
// 3497                                     *(unsigned int*)&buf_tx_232[TR_OP_DATA+C1_DATA+1+cnt_bt]=L_CONF_TM_VZ+1;   
        LDI	R16, 3
        LDI	R17, 0
        STD	Z+45, R16
        STD	Z+46, R17
// 3498                                     buf_tx_232[TR_OP_DATA+C1_DATA+3+cnt_bt]=0x00; //OK  
        STD	Z+47, R17
// 3499                                     RdFromFleshToArr(A_SEQ_PAR+OFS_TM_VZ,&buf_tx_232[TR_OP_DATA+C1_DATA+4+cnt_bt],2);
        LDI	R20, 2
        LDI	R21, 0
        ADIW	R27:R26, 48
        MOVW	R19:R18, R27:R26
        LDI	R16, 167
        RJMP	??proc_config_13
// 3500                                     
// 3501                                     cnt_bt=cnt_bt+L_CONF_TM_VZ+1+3;
// 3502                                   break;   
// 3503 
// 3504                case CONF_TM_CL :  
// 3505                  
// 3506                                   
// 3507                                   if((buf_rx_ppp[offset+C1_DATA] & 0x80)==0x80)
??proc_config_28:
        MOVW	R31:R30, R5:R4
        LDD	R16, Z+2
        MOVW	R31:R30, R25:R24
        SBRS	R16, 7
        RJMP	??proc_config_29
// 3508                                     {
// 3509                                     if(*(unsigned int*)&buf_rx_ppp[ind+1]!=L_CONF_TM_CL)goto bad_com;
        LDD	R18, Z+1
        LDD	R19, Z+2
        CPI	R18, 2
        CPC	R19, R15
        BREQ	$+2+2
        RJMP	??proc_config_2
// 3510                                     //çŕďčńü
// 3511                                     temp=*(unsigned int*)&buf_rx_ppp[ind+3];
        LDD	R4, Z+3
        LDD	R5, Z+4
// 3512                                      
// 3513                                     if (temp<5){buf_tx_232[TR_OP_DATA+C1_DATA+3+cnt_bt]=0x01;goto nocorr_com;}
        LDI	R16, 5
        CP	R4, R16
        CPC	R5, R15
        BRCC	$+2+2
        RJMP	??proc_config_10
// 3514 
// 3515                                     Appl_seq.vol_cntr_cl=temp;
        LDI	R30, LOW(Appl_seq)
        LDI	R31, (Appl_seq) >> 8
        STD	Z+24, R4
        STD	Z+25, R5
// 3516                                     
// 3517                                     RdFromFleshToArr(A_SEQ_PAR,&buf[0],L_SEQ_PAR); 
        LDI	R20, 11
        LDI	R21, 0
        MOVW	R19:R18, R29:R28
        LDI	R16, 164
        LDI	R17, 0
        CALL	RdFromFleshToArr
// 3518                                     *(unsigned int*)&buf[OFS_TM_CL]=temp;
        STD	Y+5, R4
        STD	Y+6, R5
// 3519                                     *(unsigned int*)&buf[OFS_SEQ_PAR_CRC]=crc_m1(&buf[0],L_SEQ_PAR-2,0xffff);
        LDI	R20, 255
        LDI	R21, 255
        LDI	R18, 9
        LDI	R19, 0
        MOVW	R17:R16, R29:R28
        CALL	crc_m1
        STD	Y+9, R16
        STD	Y+10, R17
// 3520                                     WrArrayToFlesh(A_SEQ_PAR, &buf[0],L_SEQ_PAR,0,0);
        LDI	R23, 0
        LDI	R22, 0
        LDI	R20, 11
        LDI	R21, 0
        MOVW	R19:R18, R29:R28
        LDI	R16, 164
        LDI	R17, 0
        CALL	WrArrayToFlesh
// 3521                                     prov_ozu=crc_ozu();
        CALL	crc_ozu
        LDI	R30, LOW(prov_ozu)
        LDI	R31, (prov_ozu) >> 8
        ST	Z, R16
        STD	Z+1, R17
        RJMP	??proc_config_30
// 3522                                     }
// 3523                                     else {if(*(unsigned int*)&buf_rx_ppp[ind+1]!=(L_CONF_TM_CL-2))goto bad_com;}
??proc_config_29:
        LDD	R16, Z+1
        LDD	R17, Z+2
        OR	R16, R17
        BREQ	$+2+2
        RJMP	??proc_config_2
// 3524                                      
// 3525 
// 3526                                     buf_tx_232[TR_OP_DATA+C1_DATA+cnt_bt]=buf_rx_ppp[ind];  //÷ňĺíčĺ
??proc_config_30:
        MOVW	R31:R30, R25:R24
        LD	R16, Z
        MOVW	R31:R30, R27:R26
        STD	Z+44, R16
// 3527                                     *(unsigned int*)&buf_tx_232[TR_OP_DATA+C1_DATA+1+cnt_bt]=L_CONF_TM_CL+1;   
        LDI	R16, 3
        LDI	R17, 0
        STD	Z+45, R16
        STD	Z+46, R17
// 3528                                     buf_tx_232[TR_OP_DATA+C1_DATA+3+cnt_bt]=0x00; //OK  
        STD	Z+47, R17
// 3529                                     RdFromFleshToArr(A_SEQ_PAR+OFS_TM_CL,&buf_tx_232[TR_OP_DATA+C1_DATA+4+cnt_bt],2);
        LDI	R20, 2
        LDI	R21, 0
        ADIW	R27:R26, 48
        MOVW	R19:R18, R27:R26
        LDI	R16, 169
        RJMP	??proc_config_13
// 3530                                     
// 3531                                     cnt_bt=cnt_bt+L_CONF_TM_CL+1+3;
// 3532                                   break;   
// 3533              
// 3534              case CONF_DES_OHR :  
// 3535                  
// 3536                                   
// 3537                                   if((buf_rx_ppp[offset+C1_DATA] & 0x80)==0x80)
??proc_config_31:
        MOVW	R31:R30, R5:R4
        LDD	R16, Z+2
        MOVW	R31:R30, R25:R24
        SBRS	R16, 7
        RJMP	??proc_config_32
// 3538                                     {
// 3539                                     if(*(unsigned int*)&buf_rx_ppp[ind+1]!=L_CONF_DES_OHR)goto bad_com;
        LDD	R18, Z+1
        LDD	R19, Z+2
        CPI	R18, 1
        CPC	R19, R15
        BREQ	$+2+2
        RJMP	??proc_config_2
// 3540                                     //çŕďčńü
// 3541                                     temp=buf_rx_ppp[ind+3];
        LDD	R4, Z+3
        CLR	R5
// 3542                                      
// 3543                                     if (temp>2){buf_tx_232[TR_OP_DATA+C1_DATA+3+cnt_bt]=0x01;goto nocorr_com;}
        LDI	R16, 3
        CP	R4, R16
        CPC	R5, R15
        BRCS	$+2+2
        RJMP	??proc_config_10
// 3544 
// 3545                                     Appl_seq_des=temp;
        LDI	R17, 62
        ADD	R6, R17
        LDI	R17, 0
        ADC	R7, R17
        MOVW	R31:R30, R7:R6
        ST	Z, R4
// 3546                                     
// 3547                                     RdFromFleshToArr(A_SEQ_PAR,&buf[0],L_SEQ_PAR); 
        LDI	R20, 11
        LDI	R21, 0
        MOVW	R19:R18, R29:R28
        LDI	R16, 164
        CALL	RdFromFleshToArr
// 3548                                     buf[OFS_DES_SEQ]=temp;
        ST	Y, R4
// 3549                                     *(unsigned int*)&buf[OFS_SEQ_PAR_CRC]=crc_m1(&buf[0],L_SEQ_PAR-2,0xffff);
        LDI	R20, 255
        LDI	R21, 255
        LDI	R18, 9
        LDI	R19, 0
        MOVW	R17:R16, R29:R28
        CALL	crc_m1
        STD	Y+9, R16
        STD	Y+10, R17
// 3550                                     WrArrayToFlesh(A_SEQ_PAR, &buf[0],L_SEQ_PAR,0,0);
        LDI	R23, 0
        LDI	R22, 0
        LDI	R20, 11
        LDI	R21, 0
        MOVW	R19:R18, R29:R28
        LDI	R16, 164
        LDI	R17, 0
        CALL	WrArrayToFlesh
// 3551                                     prov_ozu=crc_ozu();
        CALL	crc_ozu
        LDI	R30, LOW(prov_ozu)
        LDI	R31, (prov_ozu) >> 8
        ST	Z, R16
        STD	Z+1, R17
// 3552                                     
// 3553                                     monitor_beg_state_seq(1);
        LDI	R16, 1
        CALL	monitor_beg_state_seq
        RJMP	??proc_config_33
// 3554                                     /*
// 3555                                     if(Appl_seq_des!=1)
// 3556                                     { 
// 3557                                       if(flag_monitor_beg==0)
// 3558                                        {
// 3559                                         flag_monitor_beg=1; 
// 3560                                         monitor_beg_state_seq(1);
// 3561                                        }
// 3562                                     }
// 3563                                     */
// 3564                                       
// 3565                                     }
// 3566                                     else {if(*(unsigned int*)&buf_rx_ppp[ind+1]!=(L_CONF_DES_OHR-1))goto bad_com;}
??proc_config_32:
        LDD	R16, Z+1
        LDD	R17, Z+2
        OR	R16, R17
        BREQ	$+2+2
        RJMP	??proc_config_2
// 3567                                      
// 3568 
// 3569                                     buf_tx_232[TR_OP_DATA+C1_DATA+cnt_bt]=buf_rx_ppp[ind];  //÷ňĺíčĺ
??proc_config_33:
        MOVW	R31:R30, R25:R24
        LD	R16, Z
        MOVW	R31:R30, R27:R26
        STD	Z+44, R16
// 3570                                     *(unsigned int*)&buf_tx_232[TR_OP_DATA+C1_DATA+1+cnt_bt]=L_CONF_DES_OHR+1;   
        LDI	R16, 2
        LDI	R17, 0
        STD	Z+45, R16
        STD	Z+46, R17
// 3571                                     buf_tx_232[TR_OP_DATA+C1_DATA+3+cnt_bt]=0x00; //OK  
        STD	Z+47, R17
// 3572                                     RdFromFleshToArr(A_SEQ_PAR+OFS_DES_SEQ,&buf_tx_232[TR_OP_DATA+C1_DATA+4+cnt_bt],1);
        LDI	R20, 1
        LDI	R21, 0
        ADIW	R27:R26, 48
        MOVW	R19:R18, R27:R26
        LDI	R16, 164
        CALL	RdFromFleshToArr
// 3573                                     
// 3574                                     cnt_bt=cnt_bt+L_CONF_DES_OHR+1+3;
        LDI	R16, 5
        RJMP	??proc_config_15
// 3575                                   break;  
// 3576 
// 3577 
// 3578                  case CONF_NUM_SELF :  
// 3579                  
// 3580                                   
// 3581                                   if((buf_rx_ppp[offset+C1_DATA] & 0x80)==0x80)
??proc_config_34:
        MOVW	R31:R30, R5:R4
        LDD	R16, Z+2
        MOVW	R31:R30, R25:R24
        SBRS	R16, 7
        RJMP	??proc_config_35
// 3582                                     {
// 3583                                     if(*(unsigned int*)&buf_rx_ppp[ind+1]!=L_CONF_NUM_SELF)goto bad_com;
        LDD	R18, Z+1
        LDD	R19, Z+2
        CPI	R18, 2
        CPC	R19, R15
        BREQ	$+2+2
        RJMP	??proc_config_2
// 3584                                     //çŕďčńü
// 3585                                     temp=*(unsigned int*)&buf_rx_ppp[ind+3];
        LDD	R4, Z+3
        LDD	R5, Z+4
// 3586                                      
// 3587                                     if (temp<3){buf_tx_232[TR_OP_DATA+C1_DATA+3+cnt_bt]=0x01;goto nocorr_com;}
        LDI	R16, 3
        CP	R4, R16
        CPC	R5, R15
        BRCC	$+2+2
        RJMP	??proc_config_10
// 3588                                      
// 3589                                     fl_rewrite.num_self=1;  
        LDI	R30, LOW(fl_rewrite)
        LDI	R31, (fl_rewrite) >> 8
        LD	R16, Z
        ORI	R16, 0x04
        ST	Z, R16
// 3590                                     
// 3591                                     //WrArrayToFlesh(ABUF_NUM,&buf_rx_ppp[ind+3],L_CONF_NUM_SELF,0,0);                                  
// 3592                                    // RdFromFleshToArr(ABUF_NUM,&buf_tx_232[TR_OP_DATA+C1_DATA+4+cnt_bt],2);
// 3593                                                                                               
// 3594                                     RdFromFleshToArr(A_IP_PAR,&buf[0],L_IP_PAR); 
        LDI	R20, 10
        LDI	R21, 0
        MOVW	R19:R18, R29:R28
        LDI	R16, 140
        LDI	R17, 0
        CALL	RdFromFleshToArr
// 3595                                     *(unsigned int*)&buf[OFS_NUM]=temp;
        STD	Y+6, R4
        STD	Y+7, R5
// 3596                                     *(unsigned int*)&buf[OFS_IP_PAR_CRC]=crc_m1(&buf[0],L_IP_PAR-2,0xffff);
        LDI	R20, 255
        LDI	R21, 255
        LDI	R18, 8
        LDI	R19, 0
        MOVW	R17:R16, R29:R28
        CALL	crc_m1
        STD	Y+8, R16
        STD	Y+9, R17
// 3597                                     WrArrayToFlesh(A_IP_PAR, &buf[0],L_IP_PAR,0,0);
        LDI	R23, 0
        LDI	R22, 0
        LDI	R20, 10
        LDI	R21, 0
        MOVW	R19:R18, R29:R28
        LDI	R16, 140
        LDI	R17, 0
        CALL	WrArrayToFlesh
        RJMP	??proc_config_36
// 3598                                   //  prov_ozu=crc_ozu();
// 3599                                     
// 3600                                     }
// 3601                                     else if(*(unsigned int*)&buf_rx_ppp[ind+1]!=(L_CONF_NUM_SELF-2))goto bad_com;
??proc_config_35:
        LDD	R16, Z+1
        LDD	R17, Z+2
        OR	R16, R17
        BREQ	$+2+2
        RJMP	??proc_config_2
// 3602                                          
// 3603 
// 3604                                     RdFromFleshToArr(A_IP_PAR+OFS_NUM,&buf_tx_232[TR_OP_DATA+C1_DATA+4+cnt_bt],2);
??proc_config_36:
        LDI	R20, 2
        LDI	R21, 0
        MOVW	R19:R18, R27:R26
        SUBI	R18, 208
        SBCI	R19, 255
        LDI	R16, 146
??proc_config_37:
        LDI	R17, 0
        CALL	RdFromFleshToArr
// 3605                                     buf_tx_232[TR_OP_DATA+C1_DATA+cnt_bt]=buf_rx_ppp[ind];  //÷ňĺíčĺ
        MOVW	R31:R30, R25:R24
        LD	R16, Z
        MOVW	R31:R30, R27:R26
        STD	Z+44, R16
// 3606                                     *(unsigned int*)&buf_tx_232[TR_OP_DATA+C1_DATA+1+cnt_bt]=L_CONF_NUM_SELF+1;   
        LDI	R16, 3
        STD	Z+45, R16
        STD	Z+46, R15
// 3607                                     buf_tx_232[TR_OP_DATA+C1_DATA+3+cnt_bt]=0x00; //OK  
        STD	Z+47, R15
// 3608                                     
// 3609                                     
// 3610                                     cnt_bt=cnt_bt+L_CONF_NUM_SELF+1+3;
        RJMP	??proc_config_14
// 3611                                   break;   
// 3612 
// 3613                   case CONF_UDP :  
// 3614                  
// 3615                                   
// 3616                                   if((buf_rx_ppp[offset+C1_DATA] & 0x80)==0x80)
??proc_config_38:
        MOVW	R31:R30, R5:R4
        LDD	R16, Z+2
        MOVW	R31:R30, R25:R24
        SBRS	R16, 7
        RJMP	??proc_config_39
// 3617                                     {
// 3618                                     if(*(unsigned int*)&buf_rx_ppp[ind+1]!=L_CONF_UDP)goto bad_com;
        LDD	R18, Z+1
        LDD	R19, Z+2
        CPI	R18, 2
        CPC	R19, R15
        BREQ	$+2+2
        RJMP	??proc_config_2
// 3619                                    
// 3620                                    
// 3621                                     //çŕďčńü
// 3622                                     fl_rewrite.udp=1;
        LDI	R30, LOW(fl_rewrite)
        LDI	R31, (fl_rewrite) >> 8
        LD	R16, Z
        ORI	R16, 0x02
        ST	Z, R16
// 3623                                     temp=*(unsigned int*)&buf_rx_ppp[ind+3];
        MOVW	R31:R30, R25:R24
        LDD	R4, Z+3
        LDD	R5, Z+4
// 3624                                    // WrArrayToFlesh(ABUF_PORT, &buf_rx_ppp[ind+3],L_CONF_UDP,0,0);
// 3625                                    // RdFromFleshToArr(ABUF_PORT,&buf_tx_232[TR_OP_DATA+C1_DATA+4+cnt_bt],2);
// 3626                                     
// 3627                                     RdFromFleshToArr(A_IP_PAR,&buf[0],L_IP_PAR); 
        LDI	R20, 10
        LDI	R21, 0
        MOVW	R19:R18, R29:R28
        LDI	R16, 140
        LDI	R17, 0
        CALL	RdFromFleshToArr
// 3628                                     *(unsigned int*)&buf[OFS_PORT]=temp;
        STD	Y+4, R4
        STD	Y+5, R5
// 3629                                     *(unsigned int*)&buf[OFS_IP_PAR_CRC]=crc_m1(&buf[0],L_IP_PAR-2,0xffff);
        LDI	R20, 255
        LDI	R21, 255
        LDI	R18, 8
        LDI	R19, 0
        MOVW	R17:R16, R29:R28
        CALL	crc_m1
        STD	Y+8, R16
        STD	Y+9, R17
// 3630                                     WrArrayToFlesh(A_IP_PAR, &buf[0],L_IP_PAR,0,0);
        LDI	R23, 0
        LDI	R22, 0
        LDI	R20, 10
        LDI	R21, 0
        MOVW	R19:R18, R29:R28
        LDI	R16, 140
        LDI	R17, 0
        CALL	WrArrayToFlesh
        RJMP	??proc_config_40
// 3631                                     
// 3632                                     }
// 3633                                     else if(*(unsigned int*)&buf_rx_ppp[ind+1]!=(L_CONF_UDP-2))goto bad_com;
??proc_config_39:
        LDD	R16, Z+1
        LDD	R17, Z+2
        OR	R16, R17
        BREQ	$+2+2
        RJMP	??proc_config_2
// 3634                                       
// 3635 
// 3636                                      
// 3637                                     RdFromFleshToArr(A_IP_PAR+OFS_PORT,&buf_tx_232[TR_OP_DATA+C1_DATA+4+cnt_bt],2);
??proc_config_40:
        LDI	R20, 2
        LDI	R21, 0
        MOVW	R19:R18, R27:R26
        SUBI	R18, 208
        SBCI	R19, 255
        LDI	R16, 144
        RJMP	??proc_config_37
// 3638                                     buf_tx_232[TR_OP_DATA+C1_DATA+cnt_bt]=buf_rx_ppp[ind];  //÷ňĺíčĺ
// 3639                                     *(unsigned int*)&buf_tx_232[TR_OP_DATA+C1_DATA+1+cnt_bt]=L_CONF_UDP+1;   
// 3640                                     buf_tx_232[TR_OP_DATA+C1_DATA+3+cnt_bt]=0x00; //OK  
// 3641                                     
// 3642                                     
// 3643                                     cnt_bt=cnt_bt+L_CONF_UDP+1+3;
// 3644                                   break;   
// 3645                    
// 3646                    case CONF_IP :  
// 3647                                                    
// 3648                                   if((buf_rx_ppp[offset+C1_DATA] & 0x80)==0x80)
??proc_config_41:
        MOVW	R31:R30, R5:R4
        LDD	R16, Z+2
        MOVW	R31:R30, R25:R24
        SBRS	R16, 7
        RJMP	??proc_config_42
// 3649                                     {
// 3650                                     if(*(unsigned int*)&buf_rx_ppp[ind+1]!=L_CONF_IP)goto bad_com;
        LDD	R18, Z+1
        LDD	R19, Z+2
        CPI	R18, 4
        CPC	R19, R15
        BREQ	$+2+2
        RJMP	??proc_config_2
// 3651                                       
// 3652                                     fl_rewrite.ip=1;
        LDI	R30, LOW(fl_rewrite)
        LDI	R31, (fl_rewrite) >> 8
        LD	R16, Z
        ORI	R16, 0x01
        ST	Z, R16
// 3653                                     
// 3654                                     //çŕďčńü
// 3655                                    // WrArrayToFlesh(ABUF_IP, &buf_rx_ppp[ind+3],L_CONF_IP,0,0);
// 3656                                    // RdFromFleshToArr(ABUF_IP,&buf_tx_232[TR_OP_DATA+C1_DATA+4+cnt_bt],4);
// 3657                                     
// 3658                               
// 3659                                     RdFromFleshToArr(A_IP_PAR,&buf[0],L_IP_PAR); 
        LDI	R20, 10
        LDI	R21, 0
        MOVW	R19:R18, R29:R28
        LDI	R16, 140
        LDI	R17, 0
        CALL	RdFromFleshToArr
// 3660                                     buf[OFS_IP]=buf_rx_ppp[ind+3];
        MOVW	R31:R30, R25:R24
        LDD	R16, Z+3
        ST	Y, R16
// 3661                                     buf[OFS_IP+1]=buf_rx_ppp[ind+4];
        LDD	R16, Z+4
        STD	Y+1, R16
// 3662                                     buf[OFS_IP+2]=buf_rx_ppp[ind+5];
        LDD	R16, Z+5
        STD	Y+2, R16
// 3663                                     buf[OFS_IP+3]=buf_rx_ppp[ind+6];
        LDD	R16, Z+6
        STD	Y+3, R16
// 3664                                     *(unsigned int*)&buf[OFS_IP_PAR_CRC]=crc_m1(&buf[0],L_IP_PAR-2,0xffff);
        LDI	R20, 255
        LDI	R21, 255
        LDI	R18, 8
        LDI	R19, 0
        MOVW	R17:R16, R29:R28
        CALL	crc_m1
        STD	Y+8, R16
        STD	Y+9, R17
// 3665                                     WrArrayToFlesh(A_IP_PAR, &buf[0],L_IP_PAR,0,0);
        LDI	R23, 0
        LDI	R22, 0
        LDI	R20, 10
        LDI	R21, 0
        MOVW	R19:R18, R29:R28
        LDI	R16, 140
        LDI	R17, 0
        CALL	WrArrayToFlesh
        RJMP	??proc_config_43
// 3666                                     //prov_ozu=crc_ozu();
// 3667                                     
// 3668                                     }
// 3669                                     else if(*(unsigned int*)&buf_rx_ppp[ind+1]!=(L_CONF_IP-4))goto bad_com;
??proc_config_42:
        LDD	R16, Z+1
        LDD	R17, Z+2
        OR	R16, R17
        BREQ	$+2+2
        RJMP	??proc_config_2
// 3670                                         
// 3671                                     RdFromFleshToArr(A_IP_PAR+OFS_IP,&buf_tx_232[TR_OP_DATA+C1_DATA+4+cnt_bt],4);  
??proc_config_43:
        LDI	R20, 4
        LDI	R21, 0
        MOVW	R19:R18, R27:R26
        SUBI	R18, 208
        SBCI	R19, 255
        LDI	R16, 140
        LDI	R17, 0
        CALL	RdFromFleshToArr
// 3672                                     buf_tx_232[TR_OP_DATA+C1_DATA+cnt_bt]=buf_rx_ppp[ind];  //÷ňĺíčĺ
        MOVW	R31:R30, R25:R24
        LD	R16, Z
        MOVW	R31:R30, R27:R26
        STD	Z+44, R16
// 3673                                     *(unsigned int*)&buf_tx_232[TR_OP_DATA+C1_DATA+1+cnt_bt]=L_CONF_IP+1;   
        LDI	R16, 5
        STD	Z+45, R16
        STD	Z+46, R15
// 3674                                     buf_tx_232[TR_OP_DATA+C1_DATA+3+cnt_bt]=0x00; //OK  
        STD	Z+47, R15
// 3675 
// 3676                                     cnt_bt=cnt_bt+L_CONF_IP+1+3;
        LDI	R16, 8
        RJMP	??proc_config_15
// 3677                                   break;   
// 3678 
// 3679 
// 3680                    case CONF_PDP :                                                  
// 3681                                   if((buf_rx_ppp[offset+C1_DATA] & 0x80)==0x80)
??proc_config_44:
        MOVW	R31:R30, R5:R4
        LDD	R16, Z+2
        SBRC	R16, 7
        RJMP	??proc_config_2
// 3682                                     {
// 3683                                     goto bad_com;
// 3684                                     }
// 3685                                     else {if(*(unsigned int*)&buf_rx_ppp[ind+1]!=0)goto bad_com;}
        MOVW	R31:R30, R25:R24
        LDD	R16, Z+1
        LDD	R17, Z+2
        OR	R16, R17
        BREQ	$+2+2
        RJMP	??proc_config_2
// 3686                                      
// 3687 
// 3688                                     buf_tx_232[TR_OP_DATA+C1_DATA+cnt_bt]=buf_rx_ppp[ind];  //÷ňĺíčĺ                                    
        LD	R16, Z
        MOVW	R31:R30, R27:R26
        STD	Z+44, R16
// 3689                                     buf_tx_232[TR_OP_DATA+C1_DATA+3+cnt_bt]=0x00; //OK  
        STD	Z+47, R15
// 3690                                   
// 3691                                     RdFromFleshToArr(A_C_GPRS,&buf_tx_232[TR_OP_DATA+C1_DATA+4+cnt_bt],L_C_GPRS_MAX);
        LDI	R20, 60
        LDI	R21, 0
        MOVW	R19:R18, R27:R26
        SUBI	R18, 208
        SBCI	R19, 255
        LDI	R16, 20
??proc_config_45:
        LDI	R17, 0
        CALL	RdFromFleshToArr
// 3692                                     
// 3693                  same_1:            ofs=TR_OP_DATA+C1_DATA+4+cnt_bt;
        MOVW	R17:R16, R11:R10
        SUBI	R16, 208
        SBCI	R17, 255
// 3694                                     temp=buf_tx_232[ofs];
        MOVW	R31:R30, R17:R16
        SUBI	R30, LOW((-(buf_tx_232) & 0xFFFF))
        SBCI	R31, (-(buf_tx_232) & 0xFFFF) >> 8
        LD	R4, Z
        CLR	R5
// 3695                                     for(i=0;i<temp;i++)buf_tx_232[ofs+i]=buf_tx_232[ofs+i+1];
        LDI	R18, 0
        LDI	R19, 0
        RJMP	??proc_config_46
??proc_config_47:
        LDD	R20, Z+1
        ST	Z, R20
        SUBI	R18, 255
        SBCI	R19, 255
??proc_config_46:
        LDI	R30, LOW(buf_tx_232)
        LDI	R31, (buf_tx_232) >> 8
        MOVW	R21:R20, R19:R18
        ADD	R20, R16
        ADC	R21, R17
        ADD	R30, R20
        ADC	R31, R21
        CP	R18, R4
        CPC	R19, R15
        BRCS	??proc_config_47
// 3696                                     buf_tx_232[ofs+i]=0;
        ST	Z, R15
// 3697                               
// 3698                                     
// 3699                                     ofs=ofs+temp+1;
        LDI	R18, 1
        ADD	R4, R18
        LDI	R18, 0
        ADC	R5, R15
        ADD	R16, R4
        ADC	R17, R5
// 3700                                     temp=buf_tx_232[ofs];
        MOVW	R31:R30, R17:R16
        SUBI	R30, LOW((-(buf_tx_232) & 0xFFFF))
        SBCI	R31, (-(buf_tx_232) & 0xFFFF) >> 8
        LD	R4, Z
        CLR	R5
// 3701                                     for(i=0;i<temp;i++)buf_tx_232[ofs+i]=buf_tx_232[ofs+i+1];
        LDI	R19, 0
        RJMP	??proc_config_48
??proc_config_49:
        LDD	R20, Z+1
        ST	Z, R20
        SUBI	R18, 255
        SBCI	R19, 255
??proc_config_48:
        LDI	R30, LOW(buf_tx_232)
        LDI	R31, (buf_tx_232) >> 8
        MOVW	R21:R20, R19:R18
        ADD	R20, R16
        ADC	R21, R17
        ADD	R30, R20
        ADC	R31, R21
        CP	R18, R4
        CPC	R19, R15
        BRCS	??proc_config_49
// 3702                                     buf_tx_232[ofs+i]=0;
        ST	Z, R15
// 3703 
// 3704                                  
// 3705                                     ofs=ofs+temp+1;
        LDI	R18, 1
        ADD	R4, R18
        LDI	R18, 0
        ADC	R5, R15
        ADD	R16, R4
        ADC	R17, R5
// 3706                                     temp=buf_tx_232[ofs];
        MOVW	R31:R30, R17:R16
        SUBI	R30, LOW((-(buf_tx_232) & 0xFFFF))
        SBCI	R31, (-(buf_tx_232) & 0xFFFF) >> 8
        LD	R4, Z
        CLR	R5
// 3707                                     for(i=0;i<temp;i++)buf_tx_232[ofs+i]=buf_tx_232[ofs+i+1];
        LDI	R19, 0
        RJMP	??proc_config_50
??proc_config_51:
        LDD	R20, Z+1
        ST	Z, R20
        SUBI	R18, 255
        SBCI	R19, 255
??proc_config_50:
        LDI	R30, LOW(buf_tx_232)
        LDI	R31, (buf_tx_232) >> 8
        MOVW	R21:R20, R19:R18
        ADD	R20, R16
        ADC	R21, R17
        ADD	R30, R20
        ADC	R31, R21
        CP	R18, R4
        CPC	R19, R15
        BRCS	??proc_config_51
// 3708                                     buf_tx_232[ofs+i]=0;
        ST	Z, R15
// 3709                                     
// 3710                                     ofs=ofs+temp+1;
// 3711                                     ofs=ofs-(TR_OP_DATA+C1_DATA+4+cnt_bt);
        ADD	R4, R16
        ADC	R5, R17
        LDI	R16, 1
        ADD	R4, R16
        ADC	R5, R15
        SUB	R4, R10
        SBC	R5, R11
        LDI	R16, 208
        ADD	R4, R16
        LDI	R16, 255
        ADC	R5, R16
        MOVW	R17:R16, R5:R4
// 3712                                  
// 3713  
// 3714                                     *(unsigned int*)&buf_tx_232[TR_OP_DATA+C1_DATA+1+cnt_bt]=ofs+1;   
        MOVW	R19:R18, R17:R16
        SUBI	R18, 255
        SBCI	R19, 255
        MOVW	R31:R30, R27:R26
        STD	Z+45, R18
        STD	Z+46, R19
// 3715                                     cnt_bt=cnt_bt+ofs+1+3;
        SUBI	R16, 252
        SBCI	R17, 255
        ADD	R10, R16
        ADC	R11, R17
        RJMP	??proc_config_4
// 3716                                   
// 3717                                   break;   
// 3718                  
// 3719                  
// 3720                case CONF_RESET:          
// 3721                                  if((buf_rx_ppp[offset+C1_DATA] & 0x80)==0x80)
??proc_config_52:
        MOVW	R31:R30, R5:R4
        LDD	R16, Z+2
        SBRS	R16, 7
        RJMP	??proc_config_2
// 3722                                     {
// 3723                                     if(*(unsigned int*)&buf_rx_ppp[ind+1]!=0)goto bad_com;
        MOVW	R31:R30, R25:R24
        LDD	R16, Z+1
        LDD	R17, Z+2
        OR	R16, R17
        BREQ	$+2+2
        RJMP	??proc_config_2
// 3724                                     buf_tx_232[TR_OP_DATA+C1_DATA+cnt_bt]=buf_rx_ppp[ind];
        LD	R16, Z
        MOVW	R31:R30, R27:R26
        STD	Z+44, R16
// 3725                                     *(unsigned int*)&buf_tx_232[TR_OP_DATA+C1_DATA+1+cnt_bt]=1;   
        LDI	R16, 1
        STD	Z+45, R16
        STD	Z+46, R15
// 3726                                     buf_tx_232[TR_OP_DATA+C1_DATA+3+cnt_bt]=0x00; //OK  
        STD	Z+47, R15
// 3727                                     cnt_bt=cnt_bt+1+3;
        LDI	R16, 4
        ADD	R10, R16
        ADC	R11, R15
// 3728                                     fl_rewrite.cnt_reset=4;
        LDI	R30, LOW(fl_rewrite)
        LDI	R31, (fl_rewrite) >> 8
        STD	Z+1, R16
// 3729                                     break;
        RJMP	??proc_config_4
// 3730                                     }
// 3731                                     else goto bad_com;
// 3732                  
// 3733                  
// 3734                  case CONF_PDP_DOP :                                                  
// 3735                                   if((buf_rx_ppp[offset+C1_DATA] & 0x80)==0x80)
??proc_config_53:
        MOVW	R31:R30, R5:R4
        LDD	R16, Z+2
        MOVW	R31:R30, R25:R24
        SBRS	R16, 7
        RJMP	??proc_config_54
// 3736                                     {
// 3737                                     temp=*(unsigned int*)&buf_rx_ppp[ind+1];
        LDD	R4, Z+1
        LDD	R5, Z+2
// 3738                                     
// 3739                                     
// 3740                                     
// 3741                                     if((temp==1)||(temp==2))goto bad_com;
        LDI	R16, 1
        CP	R4, R16
        CPC	R5, R15
        BRNE	$+2+2
        RJMP	??proc_config_2
        LDI	R16, 2
        CP	R4, R16
        CPC	R5, R15
        BRNE	$+2+2
        RJMP	??proc_config_2
// 3742                                     if(temp>L_CONF_PDP)goto bad_com;
        LDI	R16, 59
        CP	R4, R16
        CPC	R5, R15
        BRCS	$+2+2
        RJMP	??proc_config_2
// 3743                                    
// 3744                                     if(temp==0)
        MOV	R16, R4
        OR	R16, R5
        BRNE	??proc_config_55
// 3745                                        {
// 3746                                          e_rw_pdp=0xff;
        LDI	R16, 255
        LDI	R18, 1
        LDI	R19, 0
        MOVW	R21:R20, R19:R18
        CALL	__eeput8_16
// 3747                                          temp=L_CONF_PDP;                                
        LDI	R16, 58
        MOV	R4, R16
        CLR	R5
// 3748                                          WrArrayToFlesh(ABUF_C_GPRS,0,temp,0x01,0xff);   
        LDI	R23, 255
        LDI	R22, 1
        LDI	R20, 58
        LDI	R21, 0
        LDI	R18, 0
        LDI	R16, 16
        LDI	R17, 39
        CALL	WrArrayToFlesh
        RJMP	??proc_config_56
// 3749                                         //çŕďčńŕňü âî ôëĺřü ďđčçíŕę ďĺđĺçŕďčńč ęîíňĺęńňŕ
// 3750                                        }
// 3751                                        
// 3752                                        else
// 3753                                          { 
// 3754                                         //çŕďčńü
// 3755                                         WrArrayToFlesh(ABUF_C_GPRS,&buf_rx_ppp[ind+3],temp,0,0);                                  
??proc_config_55:
        LDI	R23, 0
        LDI	R22, 0
        MOVW	R21:R20, R5:R4
        MOVW	R19:R18, R25:R24
        SUBI	R18, 253
        SBCI	R19, 255
        LDI	R16, 16
        LDI	R17, 39
        CALL	WrArrayToFlesh
// 3756                                         //çŕďčńŕňü âî ôëĺřü ďđčçíŕę ďĺđĺçŕďčńč ęîíňĺęńňŕ
// 3757                                          e_rw_pdp=0;
        LDI	R16, 0
        LDI	R20, 1
        LDI	R21, 0
        CALL	__eeput8_16
        RJMP	??proc_config_56
// 3758                                          }
// 3759                                     }
// 3760                                     else {
// 3761                                             if(*(unsigned int*)&buf_rx_ppp[ind+1]!=0)goto bad_com;
??proc_config_54:
        LDD	R16, Z+1
        LDD	R17, Z+2
        OR	R16, R17
        BREQ	$+2+2
        RJMP	??proc_config_2
// 3762                                             temp=L_CONF_PDP;
        LDI	R16, 58
        MOV	R4, R16
        CLR	R5
// 3763                                           }
// 3764                                      
// 3765                                     RdFromFleshToArr(ABUF_C_GPRS,&buf_tx_232[TR_OP_DATA+C1_DATA+4+cnt_bt],temp); 
??proc_config_56:
        MOVW	R21:R20, R5:R4
        MOVW	R19:R18, R27:R26
        SUBI	R18, 208
        SBCI	R19, 255
        LDI	R16, 16
        LDI	R17, 39
??proc_config_57:
        CALL	RdFromFleshToArr
// 3766                                     buf_tx_232[TR_OP_DATA+C1_DATA+cnt_bt]=buf_rx_ppp[ind]; 
        MOVW	R31:R30, R25:R24
        LD	R16, Z
        MOVW	R31:R30, R27:R26
        STD	Z+44, R16
// 3767                                     *(unsigned int*)&buf_tx_232[TR_OP_DATA+C1_DATA+1+cnt_bt]=temp+1;                                  
        MOVW	R17:R16, R5:R4
        SUBI	R16, 255
        SBCI	R17, 255
        STD	Z+45, R16
        STD	Z+46, R17
// 3768                                     buf_tx_232[TR_OP_DATA+C1_DATA+3+cnt_bt]=0x00; //OK 
        STD	Z+47, R15
// 3769                                      
// 3770 
// 3771                                     cnt_bt=cnt_bt+temp+1+3;
        LDI	R16, 4
        ADD	R4, R16
        ADC	R5, R15
        ADD	R10, R4
        ADC	R11, R5
        RJMP	??proc_config_4
// 3772                                      
// 3773                                   break;   
// 3774  
// 3775                                  
// 3776                
// 3777                                     
// 3778 
// 3779                  case CONF_TIME:
// 3780                                  if((buf_rx_ppp[ind] & 0x80)==0x80)
??proc_config_58:
        MOVW	R31:R30, R25:R24
        LD	R16, Z
        SBRS	R16, 7
        RJMP	??proc_config_59
// 3781                                     {
// 3782                                     if(*(unsigned int*)&buf_rx_ppp[ind+1]!=L_WR_CONF_TIME)goto bad_com;
        LDD	R16, Z+1
        LDD	R17, Z+2
        CPI	R16, 6
        CPC	R17, R15
        BREQ	$+2+2
        RJMP	??proc_config_2
// 3783                                     //çŕďčńü âđĺěĺíč           
// 3784                                     set_rlt(2,&buf_rx_ppp[ind+3]);
        MOVW	R19:R18, R25:R24
        SUBI	R18, 253
        SBCI	R19, 255
        LDI	R16, 2
        CALL	set_rlt
        RJMP	??proc_config_60
// 3785                                     }
// 3786                                     else
// 3787                                     {
// 3788                                     if(*(unsigned int*)&buf_rx_ppp[ind+1]!=L_RD_CONF_TIME)goto bad_com;   
??proc_config_59:
        LDD	R16, Z+1
        LDD	R17, Z+2
        OR	R16, R17
        BREQ	$+2+2
        RJMP	??proc_config_2
// 3789                                     }
// 3790                                     
// 3791                                   buf_tx_232[TR_OP_DATA+C1_DATA+cnt_bt]=buf_rx_ppp[ind];
??proc_config_60:
        MOVW	R31:R30, R25:R24
        LD	R16, Z
        MOVW	R31:R30, R27:R26
        STD	Z+44, R16
// 3792                                   *(unsigned int*)&buf_tx_232[TR_OP_DATA+C1_DATA+1+cnt_bt]=L_WR_CONF_TIME+1;
        LDI	R16, 7
        STD	Z+45, R16
        STD	Z+46, R15
// 3793                                   
// 3794                                   buf_tx_232[TR_OP_DATA+C1_DATA+3+cnt_bt]=0x00; //OK                                  
        STD	Z+47, R15
// 3795                                   burst_ds_r();                                
        CALL	burst_ds_r
// 3796                                   buf_tx_232[TR_OP_DATA+C1_DATA+4+cnt_bt]=real_time.r_sec;
        LDI	R16, LOW(real_time)
        LDI	R17, (real_time) >> 8
        MOVW	R31:R30, R17:R16
        LD	R18, Z
        MOVW	R31:R30, R27:R26
        STD	Z+48, R18
// 3797                                   buf_tx_232[TR_OP_DATA+C1_DATA+5+cnt_bt]=real_time.r_min;
        MOVW	R31:R30, R17:R16
        LDD	R18, Z+1
        MOVW	R31:R30, R27:R26
        STD	Z+49, R18
// 3798                                   buf_tx_232[TR_OP_DATA+C1_DATA+6+cnt_bt]=real_time.r_hor;
        MOVW	R31:R30, R17:R16
        LDD	R18, Z+2
        MOVW	R31:R30, R27:R26
        STD	Z+50, R18
// 3799                                   buf_tx_232[TR_OP_DATA+C1_DATA+7+cnt_bt]=real_time.r_date;
        MOVW	R31:R30, R17:R16
        LDD	R18, Z+4
        MOVW	R31:R30, R27:R26
        STD	Z+51, R18
// 3800                                   buf_tx_232[TR_OP_DATA+C1_DATA+8+cnt_bt]=real_time.r_month;
        MOVW	R31:R30, R17:R16
        LDD	R18, Z+5
        MOVW	R31:R30, R27:R26
        STD	Z+52, R18
// 3801                                   buf_tx_232[TR_OP_DATA+C1_DATA+9+cnt_bt]=real_time.r_year;
        MOVW	R31:R30, R17:R16
        LDD	R16, Z+6
        MOVW	R31:R30, R27:R26
        STD	Z+53, R16
// 3802                                   cnt_bt=cnt_bt+L_WR_CONF_TIME+1+3;
        LDI	R16, 10
        RJMP	??proc_config_15
// 3803                  
// 3804                       break;
// 3805  
// 3806                       
// 3807                  case CONF_PDP_R :                                                  
// 3808                                   if((buf_rx_ppp[offset+C1_DATA] & 0x80)==0x80)
??proc_config_61:
        MOVW	R31:R30, R5:R4
        LDD	R16, Z+2
        SBRC	R16, 7
        RJMP	??proc_config_2
// 3809                                     {
// 3810                                     goto bad_com;
// 3811                                     }
// 3812                                     else {if(*(unsigned int*)&buf_rx_ppp[ind+1]!=0)goto bad_com;}
        MOVW	R31:R30, R25:R24
        LDD	R16, Z+1
        LDD	R17, Z+2
        OR	R16, R17
        BREQ	$+2+2
        RJMP	??proc_config_2
// 3813                                      
// 3814 
// 3815                                     buf_tx_232[TR_OP_DATA+C1_DATA+cnt_bt]=buf_rx_ppp[ind];  //÷ňĺíčĺ                                    
        LD	R16, Z
        MOVW	R31:R30, R27:R26
        STD	Z+44, R16
// 3816                                     buf_tx_232[TR_OP_DATA+C1_DATA+3+cnt_bt]=0x00; //OK  
        STD	Z+47, R15
// 3817                                   
// 3818                                     RdFromFleshToArr(A_CR_GPRS,&buf_tx_232[TR_OP_DATA+C1_DATA+4+cnt_bt],L_CR_GPRS_MAX);
        LDI	R20, 60
        LDI	R21, 0
        MOVW	R19:R18, R27:R26
        SUBI	R18, 208
        SBCI	R19, 255
        LDI	R16, 80
        RJMP	??proc_config_45
// 3819                                     
// 3820                                     goto same_1;
// 3821                                     
// 3822                                   
// 3823                                   //  break;                
// 3824                  
// 3825                                     
// 3826                  case CONF_PDP_DOP_R :                                                  
// 3827                                   if((buf_rx_ppp[offset+C1_DATA] & 0x80)==0x80)
??proc_config_62:
        MOVW	R31:R30, R5:R4
        LDD	R16, Z+2
        MOVW	R31:R30, R25:R24
        SBRS	R16, 7
        RJMP	??proc_config_63
// 3828                                     {
// 3829                                     temp=*(unsigned int*)&buf_rx_ppp[ind+1];
        LDD	R4, Z+1
        LDD	R5, Z+2
// 3830                                     
// 3831                                     
// 3832                                     
// 3833                                     if((temp==1)||(temp==2))goto bad_com;
        LDI	R16, 1
        CP	R4, R16
        CPC	R5, R15
        BRNE	$+2+2
        RJMP	??proc_config_2
        LDI	R16, 2
        CP	R4, R16
        CPC	R5, R15
        BRNE	$+2+2
        RJMP	??proc_config_2
// 3834                                     if(temp>L_CONF_PDP_R)goto bad_com;
        LDI	R16, 59
        CP	R4, R16
        CPC	R5, R15
        BRCS	$+2+2
        RJMP	??proc_config_2
// 3835                                    
// 3836                                     if(temp==0)
        MOV	R16, R4
        OR	R16, R5
        BRNE	??proc_config_64
// 3837                                        {
// 3838                                          e_rw_pdp_r=0xff;
        LDI	R16, 255
        LDI	R18, 2
        LDI	R19, 0
        MOVW	R21:R20, R19:R18
        CALL	__eeput8_16
// 3839                                          temp=L_CONF_PDP_R;                                
        LDI	R16, 58
        MOV	R4, R16
        CLR	R5
// 3840                                          WrArrayToFlesh(ABUF_CR_GPRS,0,temp,0x01,0xff);   
        LDI	R23, 255
        LDI	R22, 1
        LDI	R20, 58
        LDI	R21, 0
        LDI	R18, 0
        LDI	R16, 72
        LDI	R17, 38
        CALL	WrArrayToFlesh
        RJMP	??proc_config_65
// 3841                                         //çŕďčńŕňü âî ôëĺřü ďđčçíŕę ďĺđĺçŕďčńč ęîíňĺęńňŕ
// 3842                                        }
// 3843                                        
// 3844                                        else
// 3845                                          { 
// 3846                                         //çŕďčńü
// 3847                                         WrArrayToFlesh(ABUF_CR_GPRS,&buf_rx_ppp[ind+3],temp,0,0);                                  
??proc_config_64:
        LDI	R23, 0
        LDI	R22, 0
        MOVW	R21:R20, R5:R4
        MOVW	R19:R18, R25:R24
        SUBI	R18, 253
        SBCI	R19, 255
        LDI	R16, 72
        LDI	R17, 38
        CALL	WrArrayToFlesh
// 3848                                         //çŕďčńŕňü âî ôëĺřü ďđčçíŕę ďĺđĺçŕďčńč ęîíňĺęńňŕ
// 3849                                          e_rw_pdp_r=0;
        LDI	R16, 0
        LDI	R20, 2
        LDI	R21, 0
        CALL	__eeput8_16
        RJMP	??proc_config_65
// 3850                                          }
// 3851                                     }
// 3852                                     else {
// 3853                                             if(*(unsigned int*)&buf_rx_ppp[ind+1]!=0)goto bad_com;
??proc_config_63:
        LDD	R16, Z+1
        LDD	R17, Z+2
        OR	R16, R17
        BREQ	$+2+2
        RJMP	??proc_config_2
// 3854                                             temp=L_CONF_PDP_R;
        LDI	R16, 58
        MOV	R4, R16
        CLR	R5
// 3855                                           }
// 3856                                      
// 3857                                     RdFromFleshToArr(ABUF_CR_GPRS,&buf_tx_232[TR_OP_DATA+C1_DATA+4+cnt_bt],temp); 
??proc_config_65:
        MOVW	R21:R20, R5:R4
        MOVW	R19:R18, R27:R26
        SUBI	R18, 208
        SBCI	R19, 255
        LDI	R16, 72
        LDI	R17, 38
        RJMP	??proc_config_57
// 3858                                     buf_tx_232[TR_OP_DATA+C1_DATA+cnt_bt]=buf_rx_ppp[ind]; 
// 3859                                     *(unsigned int*)&buf_tx_232[TR_OP_DATA+C1_DATA+1+cnt_bt]=temp+1;                                  
// 3860                                     buf_tx_232[TR_OP_DATA+C1_DATA+3+cnt_bt]=0x00; //OK 
// 3861      
// 3862                                     cnt_bt=cnt_bt+temp+1+3;
// 3863                                      
// 3864                                   break;                       
// 3865                       
// 3866                       
// 3867                  case CONF_KEYS:
// 3868                                
// 3869                                 
// 3870                                 if((buf_rx_ppp[ind] & 0x80)!=0x80)goto bad_com;
??proc_config_66:
        MOVW	R31:R30, R25:R24
        LD	R16, Z
        SBRS	R16, 7
        RJMP	??proc_config_2
// 3871                                 if(*(unsigned int*)&buf_rx_ppp[ind+1]!=L_WR_CONF_KEYS)goto bad_com;   
        LDD	R16, Z+1
        LDD	R17, Z+2
        CPI	R16, 8
        LDI	R18, 0
        CPC	R17, R15
        BREQ	$+2+2
        RJMP	??proc_config_2
// 3872                                 
// 3873                                
// 3874                                 for(i=0;i<L_KEYS-2;i++)buf[i]=buf_rx_ppp[ind+3+i];
        LDI	R19, 0
        RJMP	??proc_config_67
??proc_config_68:
        LDD	R16, Y+20
        LDD	R17, Y+21
        ADD	R16, R18
        ADC	R17, R19
        MOVW	R31:R30, R13:R12
        ADD	R30, R16
        ADC	R31, R17
        LDD	R16, Z+3
        MOVW	R31:R30, R29:R28
        ADD	R30, R18
        ADC	R31, R19
        ST	Z, R16
        SUBI	R18, 255
        SBCI	R19, 255
??proc_config_67:
        CPI	R18, 8
        CPC	R19, R15
        BRCS	??proc_config_68
// 3875                                 *(unsigned int*)&buf[L_KEYS-2]=crc_m1(&buf[0],L_KEYS-2,0xffff);
        LDI	R20, 255
        LDI	R21, 255
        LDI	R18, 8
        LDI	R19, 0
        MOVW	R17:R16, R29:R28
        CALL	crc_m1
        STD	Y+8, R16
        STD	Y+9, R17
// 3876                                 
// 3877                                 WrArrayToFlesh(A_KEYS,&buf[0],L_KEYS,0,0);
        LDI	R23, 0
        LDI	R22, 0
        LDI	R20, 10
        LDI	R21, 0
        MOVW	R19:R18, R29:R28
        LDI	R16, 48
        LDI	R17, 117
        CALL	WrArrayToFlesh
// 3878                                 
// 3879            
// 3880                                 
// 3881                                  buf_tx_232[TR_OP_DATA+C1_DATA+cnt_bt]=buf_rx_ppp[ind]; 
        MOVW	R31:R30, R25:R24
        LD	R16, Z
        MOVW	R31:R30, R27:R26
        STD	Z+44, R16
// 3882                                  *(unsigned int*)&buf_tx_232[TR_OP_DATA+C1_DATA+1+cnt_bt]=1;                                  
        LDI	R16, 1
        STD	Z+45, R16
        STD	Z+46, R15
// 3883                                  buf_tx_232[TR_OP_DATA+C1_DATA+3+cnt_bt]=0x00; //OK 
        STD	Z+47, R15
// 3884                                  cnt_bt=cnt_bt+1+3;
        LDI	R16, 4
        ADD	R10, R16
        ADC	R11, R15
// 3885                                  
// 3886                                  RdFromFleshToArr(A_KEYS,&keys[0],L_KEYS); // íîâűé ęëţ÷
        LDI	R20, 10
        LDI	R21, 0
        LDI	R18, LOW(keys)
        LDI	R19, (keys) >> 8
        LDI	R16, 48
        LDI	R17, 117
        CALL	RdFromFleshToArr
        RJMP	??proc_config_4
// 3887                                  
// 3888 
// 3889                       break;
// 3890  
// 3891                        //!!!!!!!!!!dobavka
// 3892                       case CONF_TM_NO_LINK:
// 3893                             
// 3894                         if((buf_rx_ppp[offset+C1_DATA] & 0x80)==0x80)
??proc_config_69:
        MOVW	R31:R30, R5:R4
        LDD	R16, Z+2
        MOVW	R31:R30, R25:R24
        SBRS	R16, 7
        RJMP	??proc_config_70
// 3895                                     {
// 3896                                     if(*(unsigned int*)&buf_rx_ppp[ind+1]!=L_CONF_TM_NO_LINK)goto bad_com;
        LDD	R18, Z+1
        LDD	R19, Z+2
        CPI	R18, 2
        CPC	R19, R15
        BREQ	$+2+2
        RJMP	??proc_config_2
// 3897                                     //çŕďčńü
// 3898                                     temp=*(unsigned int*)&buf_rx_ppp[ind+3];
        LDD	R4, Z+3
        LDD	R5, Z+4
// 3899                                     
// 3900                                     if(temp!=0)
        MOV	R16, R4
        OR	R16, R5
        BREQ	??proc_config_71
// 3901                                       if(temp <= (Control.vol_link/60)){buf_tx_232[TR_OP_DATA+C1_DATA+3+cnt_bt]=0x01;goto nocorr_com;}
        LDI	R30, LOW(Appl_seq)
        LDI	R31, (Appl_seq) >> 8
        LDD	R16, Z+34
        LDD	R17, Z+35
        LDI	R20, 60
        LDI	R21, 0
        CALL	?US_DIVMOD_L02
        CP	R16, R4
        CPC	R17, R5
        BRCS	$+2+2
        RJMP	??proc_config_10
// 3902                                     
// 3903                                     
// 3904                                     vol_cnt_no_link=temp;
// 3905                                     vol_cnt_no_link=vol_cnt_no_link*60;
??proc_config_71:
        MOVW	R21:R20, R5:R4
        LDI	R22, 0
        LDI	R23, 0
        LDI	R16, 60
        LDI	R17, 0
        LDI	R18, 0
        LDI	R19, 0
        CALL	?L_EC_MUL_L03
        LDI	R30, LOW(Appl_seq)
        LDI	R31, (Appl_seq) >> 8
        STD	Z+48, R16
        STD	Z+49, R17
        STD	Z+50, R18
        STD	Z+51, R19
// 3906                                     
// 3907                                     RdFromFleshToArr(A_C_PAR,&buf[0],L_C_PAR); 
        LDI	R20, 14
        LDI	R21, 0
        MOVW	R19:R18, R29:R28
        LDI	R16, 150
        LDI	R17, 0
        CALL	RdFromFleshToArr
// 3908                                     *(unsigned int*)&buf[OFS_TM_NO_LINK]=temp;
        STD	Y+6, R4
        STD	Y+7, R5
// 3909                                     *(unsigned int*)&buf[OFS_C_PAR_CRC]=crc_m1(&buf[0],L_C_PAR-2,0xffff);
        LDI	R20, 255
        LDI	R21, 255
        LDI	R18, 12
        LDI	R19, 0
        MOVW	R17:R16, R29:R28
        CALL	crc_m1
        STD	Y+12, R16
        STD	Y+13, R17
// 3910                                     WrArrayToFlesh(A_C_PAR, &buf[0],L_C_PAR,0,0);
        LDI	R23, 0
        LDI	R22, 0
        LDI	R20, 14
        LDI	R21, 0
        MOVW	R19:R18, R29:R28
        LDI	R16, 150
        LDI	R17, 0
        CALL	WrArrayToFlesh
// 3911                                     prov_ozu=crc_ozu();
        CALL	crc_ozu
        LDI	R30, LOW(prov_ozu)
        LDI	R31, (prov_ozu) >> 8
        ST	Z, R16
        STD	Z+1, R17
        RJMP	??proc_config_72
// 3912                                     }
// 3913                                     else {if(*(unsigned int*)&buf_rx_ppp[ind+1]!=(L_CONF_TM_NO_LINK-2))goto bad_com;}
??proc_config_70:
        LDD	R16, Z+1
        LDD	R17, Z+2
        OR	R16, R17
        BREQ	$+2+2
        RJMP	??proc_config_2
// 3914                                      
// 3915 
// 3916                                     buf_tx_232[TR_OP_DATA+C1_DATA+cnt_bt]=buf_rx_ppp[ind];  //÷ňĺíčĺ
??proc_config_72:
        MOVW	R31:R30, R25:R24
        LD	R16, Z
        MOVW	R31:R30, R27:R26
        STD	Z+44, R16
// 3917                                     *(unsigned int*)&buf_tx_232[TR_OP_DATA+C1_DATA+1+cnt_bt]=L_CONF_TM_NO_LINK+1;   
        LDI	R16, 3
        LDI	R17, 0
        STD	Z+45, R16
        STD	Z+46, R17
// 3918                                     buf_tx_232[TR_OP_DATA+C1_DATA+3+cnt_bt]=0x00; //OK  
        STD	Z+47, R17
// 3919                                     RdFromFleshToArr(A_C_PAR+OFS_TM_NO_LINK,&buf_tx_232[TR_OP_DATA+C1_DATA+4+cnt_bt],2);
        LDI	R20, 2
        LDI	R21, 0
        ADIW	R27:R26, 48
        MOVW	R19:R18, R27:R26
        LDI	R16, 156
        RJMP	??proc_config_13
// 3920                                     
// 3921                                     cnt_bt=cnt_bt+L_CONF_TM_NO_LINK+1+3;
// 3922                          break;
// 3923                         
// 3924                        case CONF_TM_LINK_RES:
// 3925                             
// 3926                         if((buf_rx_ppp[offset+C1_DATA] & 0x80)==0x80)
??proc_config_73:
        MOVW	R31:R30, R5:R4
        LDD	R16, Z+2
        MOVW	R31:R30, R25:R24
        SBRS	R16, 7
        RJMP	??proc_config_74
// 3927                                     {
// 3928                                     if(*(unsigned int*)&buf_rx_ppp[ind+1]!=L_CONF_TM_LINK_RES)goto bad_com;
        LDD	R18, Z+1
        LDD	R19, Z+2
        CPI	R18, 2
        CPC	R19, R15
        BREQ	$+2+2
        RJMP	??proc_config_2
// 3929                                     //çŕďčńü
// 3930                                     temp=*(unsigned int*)&buf_rx_ppp[ind+3];
        LDD	R4, Z+3
        LDD	R5, Z+4
// 3931                                     
// 3932                                     if(temp < MIN_TM_LINK_RES){buf_tx_232[TR_OP_DATA+C1_DATA+3+cnt_bt]=0x01;goto nocorr_com;}
        LDI	R16, 30
        CP	R4, R16
        CPC	R5, R15
        BRCC	$+2+2
        RJMP	??proc_config_10
// 3933                                     
// 3934                                     
// 3935                                     vol_cnt_link_res=temp;
// 3936                                     vol_cnt_link_res=vol_cnt_link_res*60;
        MOVW	R21:R20, R5:R4
        LDI	R22, 0
        LDI	R23, 0
        LDI	R16, 60
        LDI	R17, 0
        LDI	R18, 0
        LDI	R19, 0
        CALL	?L_EC_MUL_L03
        LDI	R30, LOW(Appl_seq)
        LDI	R31, (Appl_seq) >> 8
        STD	Z+52, R16
        STD	Z+53, R17
        STD	Z+54, R18
        STD	Z+55, R19
// 3937                                     
// 3938                                     RdFromFleshToArr(A_C_PAR,&buf[0],L_C_PAR); 
        LDI	R20, 14
        LDI	R21, 0
        MOVW	R19:R18, R29:R28
        LDI	R16, 150
        LDI	R17, 0
        CALL	RdFromFleshToArr
// 3939                                     *(unsigned int*)&buf[OFS_TM_LINK_RES]=temp;
        STD	Y+8, R4
        STD	Y+9, R5
// 3940                                     *(unsigned int*)&buf[OFS_C_PAR_CRC]=crc_m1(&buf[0],L_C_PAR-2,0xffff);
        LDI	R20, 255
        LDI	R21, 255
        LDI	R18, 12
        LDI	R19, 0
        MOVW	R17:R16, R29:R28
        CALL	crc_m1
        STD	Y+12, R16
        STD	Y+13, R17
// 3941                                     WrArrayToFlesh(A_C_PAR, &buf[0],L_C_PAR,0,0);
        LDI	R23, 0
        LDI	R22, 0
        LDI	R20, 14
        LDI	R21, 0
        MOVW	R19:R18, R29:R28
        LDI	R16, 150
        LDI	R17, 0
        CALL	WrArrayToFlesh
// 3942                                     prov_ozu=crc_ozu();
        CALL	crc_ozu
        LDI	R30, LOW(prov_ozu)
        LDI	R31, (prov_ozu) >> 8
        ST	Z, R16
        STD	Z+1, R17
        RJMP	??proc_config_75
// 3943                                     }
// 3944                                     else {if(*(unsigned int*)&buf_rx_ppp[ind+1]!=(L_CONF_TM_LINK_RES-2))goto bad_com;}
??proc_config_74:
        LDD	R16, Z+1
        LDD	R17, Z+2
        OR	R16, R17
        BREQ	$+2+2
        RJMP	??proc_config_2
// 3945                                      
// 3946 
// 3947                                     buf_tx_232[TR_OP_DATA+C1_DATA+cnt_bt]=buf_rx_ppp[ind];  //÷ňĺíčĺ
??proc_config_75:
        MOVW	R31:R30, R25:R24
        LD	R16, Z
        MOVW	R31:R30, R27:R26
        STD	Z+44, R16
// 3948                                     *(unsigned int*)&buf_tx_232[TR_OP_DATA+C1_DATA+1+cnt_bt]=L_CONF_TM_LINK_RES+1;   
        LDI	R16, 3
        LDI	R17, 0
        STD	Z+45, R16
        STD	Z+46, R17
// 3949                                     buf_tx_232[TR_OP_DATA+C1_DATA+3+cnt_bt]=0x00; //OK  
        STD	Z+47, R17
// 3950                                     RdFromFleshToArr(A_C_PAR+OFS_TM_LINK_RES,&buf_tx_232[TR_OP_DATA+C1_DATA+4+cnt_bt],2);
        LDI	R20, 2
        LDI	R21, 0
        ADIW	R27:R26, 48
        MOVW	R19:R18, R27:R26
        LDI	R16, 158
        RJMP	??proc_config_13
// 3951                                     
// 3952                                     cnt_bt=cnt_bt+L_CONF_TM_LINK_RES+1+3;
// 3953                          break;    
// 3954                  
// 3955                          
// 3956                 case CONF_TP_TS:   
// 3957                             if((buf_rx_ppp[offset+C1_DATA] & 0x80)==0x80)
??proc_config_76:
        MOVW	R31:R30, R5:R4
        LDD	R16, Z+2
        MOVW	R31:R30, R25:R24
        SBRS	R16, 7
        RJMP	??proc_config_77
// 3958                                     {
// 3959                                     if(*(unsigned int*)&buf_rx_ppp[ind+1]!=L_CONF_TP_TS)goto bad_com;
        LDD	R16, Z+1
        LDD	R17, Z+2
        CPI	R16, 2
        CPC	R17, R15
        BREQ	$+2+2
        RJMP	??proc_config_2
// 3960                                     //çŕďčńü
// 3961                                     
// 3962                                     RdFromFleshToArr(A_SEQ_PAR,&buf[0],L_SEQ_PAR);
        LDI	R20, 11
        LDI	R21, 0
        MOVW	R19:R18, R29:R28
        LDI	R16, 164
        LDI	R17, 0
        CALL	RdFromFleshToArr
// 3963                                     
// 3964                                     temp=buf_rx_ppp[ind+3];
        MOVW	R31:R30, R25:R24
        LDD	R4, Z+3
        CLR	R5
// 3965                                     if((temp!=0xff)&&(temp>2)){buf_tx_232[TR_OP_DATA+C1_DATA+3+cnt_bt]=0x01;goto nocorr_com;}
        LDI	R16, 255
        CP	R4, R16
        CPC	R5, R15
        BREQ	??proc_config_78
        LDI	R16, 3
        CP	R4, R16
        CPC	R5, R15
        BRCS	$+2+2
        RJMP	??proc_config_10
// 3966                                     if(temp!=0xff)
??proc_config_78:
        LDI	R16, 255
        CP	R4, R16
        CPC	R5, R15
        BREQ	??proc_config_79
// 3967                                      {
// 3968                                       buf[OFS_TP_TS]=temp; 
        STD	Y+7, R4
// 3969                                       struct_tcc1.type=temp;
        STS	(struct_tcc1 + 4), R4
// 3970                                       }
// 3971                                     
// 3972                                     temp=buf_rx_ppp[ind+4];
??proc_config_79:
        LDD	R4, Z+4
// 3973                                     if ((temp!=0xff)&&(temp>1)){buf_tx_232[TR_OP_DATA+C1_DATA+3+cnt_bt]=0x01;goto nocorr_com;}
        CP	R4, R16
        CPC	R5, R15
        BREQ	??proc_config_80
        LDI	R16, 2
        CP	R4, R16
        CPC	R5, R15
        BRCS	$+2+2
        RJMP	??proc_config_10
// 3974                                     if(temp!=0xff)
??proc_config_80:
        LDI	R16, 255
        CP	R4, R16
        CPC	R5, R15
        BREQ	??proc_config_81
// 3975                                       {
// 3976                                       buf[OFS_TP_TS+1]=temp; 
        STD	Y+8, R4
// 3977                                       struct_tcc2.type=temp;
        STS	(struct_tcc2 + 4), R4
// 3978                                       }
// 3979  
// 3980                                     
// 3981                                     *(unsigned int*)&buf[OFS_SEQ_PAR_CRC]=crc_m1(&buf[0],L_SEQ_PAR-2,0xffff);
??proc_config_81:
        LDI	R20, 255
        LDI	R21, 255
        LDI	R18, 9
        LDI	R19, 0
        MOVW	R17:R16, R29:R28
        CALL	crc_m1
        STD	Y+9, R16
        STD	Y+10, R17
// 3982                                     WrArrayToFlesh(A_SEQ_PAR, &buf[0],L_SEQ_PAR,0,0);
        LDI	R23, 0
        LDI	R22, 0
        LDI	R20, 11
        LDI	R21, 0
        MOVW	R19:R18, R29:R28
        LDI	R16, 164
        LDI	R17, 0
        CALL	WrArrayToFlesh
// 3983                                     prov_ozu=crc_ozu();
        CALL	crc_ozu
        LDI	R30, LOW(prov_ozu)
        LDI	R31, (prov_ozu) >> 8
        ST	Z, R16
        STD	Z+1, R17
// 3984                                     
// 3985                                    
// 3986                                     
// 3987                                     monitor_beg_state_seq(1);
        LDI	R16, 1
        CALL	monitor_beg_state_seq
        RJMP	??proc_config_82
// 3988                                     
// 3989                                     /*
// 3990                                     if(Appl_seq_des!=1)
// 3991                                     { 
// 3992                                       if(flag_monitor_beg==0)
// 3993                                        {
// 3994                                         flag_monitor_beg=1; 
// 3995                                         monitor_beg_state_seq(1);
// 3996                                        }
// 3997                                      }
// 3998                                     */
// 3999                                     
// 4000                                     }
// 4001                             
// 4002                                     else {if(*(unsigned int*)&buf_rx_ppp[ind+1]!=(L_CONF_TP_TS-2))goto bad_com;}
??proc_config_77:
        LDD	R16, Z+1
        LDD	R17, Z+2
        OR	R16, R17
        BREQ	$+2+2
        RJMP	??proc_config_2
// 4003                                      
// 4004 
// 4005                                     buf_tx_232[TR_OP_DATA+C1_DATA+cnt_bt]=buf_rx_ppp[ind];  //÷ňĺíčĺ
??proc_config_82:
        MOVW	R31:R30, R25:R24
        LD	R16, Z
        MOVW	R31:R30, R27:R26
        STD	Z+44, R16
// 4006                                     *(unsigned int*)&buf_tx_232[TR_OP_DATA+C1_DATA+1+cnt_bt]=L_CONF_TP_TS+1;   
        LDI	R16, 3
        LDI	R17, 0
        STD	Z+45, R16
        STD	Z+46, R17
// 4007                                     buf_tx_232[TR_OP_DATA+C1_DATA+3+cnt_bt]=0x00; //OK  
        STD	Z+47, R17
// 4008                                     RdFromFleshToArr(A_SEQ_PAR+OFS_TP_TS,&buf_tx_232[TR_OP_DATA+C1_DATA+4+cnt_bt],2);
        LDI	R20, 2
        LDI	R21, 0
        ADIW	R27:R26, 48
        MOVW	R19:R18, R27:R26
        LDI	R16, 171
        RJMP	??proc_config_13
// 4009                                     
// 4010                                     cnt_bt=cnt_bt+L_CONF_TP_TS+1+3;
// 4011                               
// 4012                            break;
// 4013                          
// 4014                  case CONF_TM_NAT_R:  
// 4015                  
// 4016                                   
// 4017                                   if((buf_rx_ppp[offset+C1_DATA] & 0x80)==0x80)
??proc_config_83:
        MOVW	R31:R30, R5:R4
        LDD	R16, Z+2
        MOVW	R31:R30, R25:R24
        SBRS	R16, 7
        RJMP	??proc_config_84
// 4018                                     {
// 4019                                     if(*(unsigned int*)&buf_rx_ppp[ind+1]!=L_CONF_TM_NAT_R)goto bad_com;
        LDD	R18, Z+1
        LDD	R19, Z+2
        CPI	R18, 2
        CPC	R19, R15
        BREQ	$+2+2
        RJMP	??proc_config_2
// 4020                                     //çŕďčńü
// 4021                                     temp=*(unsigned int*)&buf_rx_ppp[ind+3];
        LDD	R4, Z+3
        LDD	R5, Z+4
// 4022                                     
// 4023                                     if (temp<10){buf_tx_232[TR_OP_DATA+C1_DATA+3+cnt_bt]=0x01;goto nocorr_com;}
        LDI	R16, 10
        CP	R4, R16
        CPC	R5, R15
        BRCC	$+2+2
        RJMP	??proc_config_10
// 4024                                     
// 4025                                     
// 4026                                     Control.vol_nat_r=temp;
        LDI	R30, LOW(Appl_seq)
        LDI	R31, (Appl_seq) >> 8
        STD	Z+42, R4
        STD	Z+43, R5
// 4027                                     RdFromFleshToArr(A_C_PAR,&buf[0],L_C_PAR); 
        LDI	R20, 14
        LDI	R21, 0
        MOVW	R19:R18, R29:R28
        LDI	R16, 150
        LDI	R17, 0
        CALL	RdFromFleshToArr
// 4028                                     *(unsigned int*)&buf[OFS_NAT_R]=temp;
        STD	Y+10, R4
        STD	Y+11, R5
// 4029                                     *(unsigned int*)&buf[OFS_C_PAR_CRC]=crc_m1(&buf[0],L_C_PAR-2,0xffff);
        LDI	R20, 255
        LDI	R21, 255
        LDI	R18, 12
        LDI	R19, 0
        MOVW	R17:R16, R29:R28
        CALL	crc_m1
        STD	Y+12, R16
        STD	Y+13, R17
// 4030                                     WrArrayToFlesh(A_C_PAR, &buf[0],L_C_PAR,0,0);
        LDI	R23, 0
        LDI	R22, 0
        LDI	R20, 14
        LDI	R21, 0
        MOVW	R19:R18, R29:R28
        LDI	R16, 150
        LDI	R17, 0
        CALL	WrArrayToFlesh
// 4031                                     prov_ozu=crc_ozu();
        CALL	crc_ozu
        LDI	R30, LOW(prov_ozu)
        LDI	R31, (prov_ozu) >> 8
        ST	Z, R16
        STD	Z+1, R17
        RJMP	??proc_config_85
// 4032                                     }
// 4033                                     else {if(*(unsigned int*)&buf_rx_ppp[ind+1]!=(L_CONF_TM_NAT_R-2))goto bad_com;}
??proc_config_84:
        LDD	R16, Z+1
        LDD	R17, Z+2
        OR	R16, R17
        BRNE	??proc_config_2
// 4034                                      
// 4035 
// 4036                                     buf_tx_232[TR_OP_DATA+C1_DATA+cnt_bt]=buf_rx_ppp[ind];  //÷ňĺíčĺ
??proc_config_85:
        MOVW	R31:R30, R25:R24
        LD	R16, Z
        MOVW	R31:R30, R27:R26
        STD	Z+44, R16
// 4037                                     *(unsigned int*)&buf_tx_232[TR_OP_DATA+C1_DATA+1+cnt_bt]=L_CONF_TM_NAT_R+1;   
        LDI	R16, 3
        LDI	R17, 0
        STD	Z+45, R16
        STD	Z+46, R17
// 4038                                     buf_tx_232[TR_OP_DATA+C1_DATA+3+cnt_bt]=0x00; //OK  
        STD	Z+47, R17
// 4039                                     RdFromFleshToArr(A_C_PAR+OFS_NAT_R,&buf_tx_232[TR_OP_DATA+C1_DATA+4+cnt_bt],2);
        LDI	R20, 2
        LDI	R21, 0
        ADIW	R27:R26, 48
        MOVW	R19:R18, R27:R26
        LDI	R16, 160
        RJMP	??proc_config_13
// 4040                                     
// 4041                                     cnt_bt=cnt_bt+L_CONF_TM_NAT_R+1+3;
// 4042                                   break;        
// 4043                          
// 4044                  default:     
// 4045                   bad_com:buf_tx_232[TR_OP_DATA+C1_DATA+3+cnt_bt]=0x02; //íĺ ďîääĺđćčâŕĺňń˙   
??proc_config_2:
        LDI	R16, 2
??proc_config_11:
        MOVW	R31:R30, R27:R26
        STD	Z+47, R16
// 4046                   nocorr_com: 
// 4047                          buf_tx_232[TR_OP_DATA+C1_DATA+cnt_bt]=buf_rx_ppp[ind];
        MOVW	R31:R30, R25:R24
        LD	R16, Z
        MOVW	R31:R30, R27:R26
        STD	Z+44, R16
// 4048                          *(unsigned int*)&buf_tx_232[TR_OP_DATA+C1_DATA+1+cnt_bt]=1;                        
        LDI	R16, 1
        STD	Z+45, R16
        STD	Z+46, R15
// 4049                          cnt_bt=cnt_bt+4;  
        LDI	R16, 4
??proc_config_15:
        ADD	R10, R16
        ADC	R11, R15
// 4050                       break;                  
// 4051                  }
// 4052                
// 4053                
// 4054  ind=ind+3+*(unsigned int*)&buf_rx_ppp[ind+1]; 
??proc_config_4:
        MOVW	R31:R30, R25:R24
        LDD	R24, Z+1
        LDD	R25, Z+2
        ADIW	R25:R24, 3
        LDD	R16, Y+20
        LDD	R17, Y+21
        ADD	R16, R24
        ADC	R17, R25
        STD	Y+20, R16
        STD	Y+21, R17
// 4055  if(ind>=count_rx_ppp-3)return(cnt_bt);
        LDD	R16, Y+20
        LDD	R17, Y+21
        LDD	R24, Y+22
        LDD	R25, Y+23
        SBIW	R25:R24, 3
        CP	R16, R24
        CPC	R17, R25
        BRCC	$+2+2
        RJMP	??proc_config_0
        MOVW	R17:R16, R11:R10
        ADIW	R29:R28, 24
        CFI CFA_Y Y+16
        LDI	R30, 16
        JMP	?EPILOGUE_B16_L09
        CFI EndBlock cfiBlock40
// 4056  goto next_parametr;
// 4057  } 
// 4058 
// 4059 
// 4060 
// 4061 ///!!!!!!!!!!!!!!!!!!!!!!!!!!!!!!!!!!!!!!!!!!!!!!!!!!Đŕáîňŕ ń ďîđňîě RS485-1
// 4062 

        RSEG CODE:CODE:NOROOT(1)
// 4063 void monitor1_tx_rs485_1(void)
monitor1_tx_rs485_1:
        CFI Block cfiBlock41 Using cfiCommon0
        CFI Function monitor1_tx_rs485_1
// 4064 {
        FUNCALL monitor1_tx_rs485_1, run_cont_485_1
        LOCFRAME CSTACK, 4, STACK
        LOCFRAME RSTACK, 2, STACK
        CALL	?PROLOGUE4_L09
        CFI R27 Frame(CFA_Y, -1)
        CFI R26 Frame(CFA_Y, -2)
        CFI R25 Frame(CFA_Y, -3)
        CFI R24 Frame(CFA_Y, -4)
        CFI CFA_Y Y+4
// 4065   unsigned int i;
// 4066   if(fl_485_1.busy==1)return;
        LDI	R30, LOW(fl_485_1)
        LDI	R31, (fl_485_1) >> 8
        LD	R16, Z
        SBRC	R16, 0
        RJMP	??monitor1_tx_rs485_1_0
// 4067   if((fl_485_1.tx==1)||(Appl_RS485_1.fl_data_buf==TRUE))
        LDI	R26, LOW(Appl_RS485_1)
        LDI	R27, (Appl_RS485_1) >> 8
        LD	R16, Z
        SBRC	R16, 3
        RJMP	??monitor1_tx_rs485_1_1
        LD	R16, X
        CPI	R16, 1
        BREQ	$+2+2
        RJMP	??monitor1_tx_rs485_1_0
// 4068     {
// 4069     if(fl_485_1.tx==1)fl_485_1.tx=0;
??monitor1_tx_rs485_1_1:
        LD	R16, Z
        SBRS	R16, 3
        RJMP	??monitor1_tx_rs485_1_2
        LD	R16, Z
        ANDI	R16, 0xF7
        ST	Z, R16
// 4070     if(Appl_RS485_1.fl_data_buf==TRUE)Appl_RS485_1.fl_data_buf=FALSE;
??monitor1_tx_rs485_1_2:
        LD	R16, X
        CPI	R16, 1
        BRNE	??monitor1_tx_rs485_1_3
        LDI	R16, 0
        ST	X, R16
// 4071     fl_485_1.busy=1;
??monitor1_tx_rs485_1_3:
        LD	R16, Z
        ORI	R16, 0x01
        ST	Z, R16
// 4072     fl_tx485.mon1=1;
        MOVW	R31:R30, R27:R26
        LDD	R16, Z+58
        ORI	R16, 0x01
        STD	Z+58, R16
// 4073     Appl_RS485_1.dst_tek=Appl_RS485_1.dst_buf;
        LDD	R16, Z+3
        LDD	R17, Z+4
        STD	Z+14, R16
        STD	Z+15, R17
// 4074     Appl_RS485_1.id_tek=Appl_RS485_1.id_buf;
        LDD	R16, Z+13
        STD	Z+16, R16
// 4075     Rs485_1.cnt_bt_rx_tx=Appl_RS485_1.ln_data_buf;
        LDI	R16, LOW(Rs485_1)
        LDI	R17, (Rs485_1) >> 8
        LDD	R18, Z+1
        LDD	R19, Z+2
        MOVW	R31:R30, R17:R16
        ST	Z, R18
        STD	Z+1, R19
// 4076     for(i=0;i<Rs485_1.cnt_bt_rx_tx;i++)Rs485_1_buf_rx_tx[i]=Appl_RS485_1_data_buf[i];
        LDI	R24, 0
        LDI	R25, 0
        RJMP	??monitor1_tx_rs485_1_4
??monitor1_tx_rs485_1_5:
        MOVW	R31:R30, R25:R24
        SUBI	R30, LOW((-(Appl_RS485_1_data_buf) & 0xFFFF))
        SBCI	R31, (-(Appl_RS485_1_data_buf) & 0xFFFF) >> 8
        LD	R18, Z
        MOVW	R31:R30, R25:R24
        SUBI	R30, LOW((-(Rs485_1_buf_rx_tx) & 0xFFFF))
        SBCI	R31, (-(Rs485_1_buf_rx_tx) & 0xFFFF) >> 8
        ST	Z, R18
        ADIW	R25:R24, 1
??monitor1_tx_rs485_1_4:
        MOVW	R31:R30, R17:R16
        LD	R18, Z
        LDD	R19, Z+1
        CP	R24, R18
        CPC	R25, R19
        BRCS	??monitor1_tx_rs485_1_5
// 4077     Rs485_1.p_data485=&Rs485_1_buf_rx_tx[0];
        LDI	R18, LOW(Rs485_1_buf_rx_tx)
        LDI	R19, (Rs485_1_buf_rx_tx) >> 8
        STD	Z+16, R18
        STD	Z+17, R19
// 4078     //çäĺńü äîëćíŕ áűňü ôóíęöč˙ íŕńňđîéęč ďîđňŕ ďî ęîíňĺęńňó.
// 4079     
// 4080     if (run_cont_485_1(&Appl_RS485_1.cont_buf[0])==1)
        MOVW	R17:R16, R27:R26
        SUBI	R16, 251
        SBCI	R17, 255
        CALL	run_cont_485_1
        CPI	R16, 1
        BRNE	??monitor1_tx_rs485_1_6
// 4081        {
// 4082        fl_485_1.busy=0;
        LDI	R30, LOW(fl_485_1)
        LDI	R31, (fl_485_1) >> 8
        LD	R16, Z
        ANDI	R16, 0xFE
        ST	Z, R16
// 4083        fl_tx485.mon1=0;
        MOVW	R31:R30, R27:R26
        LDD	R16, Z+58
        ANDI	R16, 0xFE
        STD	Z+58, R16
// 4084        return;
        RJMP	??monitor1_tx_rs485_1_0
// 4085        }
// 4086     
// 4087     /*
// 4088     //UBRR1H=R9600_H;
// 4089     //UBRR1L=R9600_L;  
// 4090     UBRR1H=R4800_H;
// 4091     UBRR1L=R4800_L;   
// 4092     UCSR1B=UCSR1B & ~(RXCIE | RXEN);      
// 4093     Rs485_1.cnt_tm_tx_out=0;
// 4094     Rs485_1.vol_tm_tx_out=5; // 5 ěčëëčńĺęóíä
// 4095     Rs485_1.cnt_tm_pre_tx=20;// 20 ěčëëčńĺęóíä    
// 4096     Rs485_1.cnt_tm_rx_out=0;
// 4097     Rs485_1.vol_tm_rx_out=5;// 5 ěčëëčńĺęóíä   
// 4098     Rs485_1.cnt_tm_out=0;
// 4099     Rs485_1.vol_tm_out=1000; // 1000 ěčëëčńĺęóíä
// 4100     */
// 4101     S3_RD;   
??monitor1_tx_rs485_1_6:
        SBI	0x08, 0x04
        CBI	0x08, 0x05
// 4102     UCSR3B=UCSR3B & ~(RXCIE | RXEN); 
        LDS	R16, 305
        ANDI	R16, 0x6F
        STS	305, R16
// 4103     SET_RTS1;  //rts íŕ ďĺđĺäŕ÷ó
        LDS	R16, 261
        ORI	R16, 0x04
        STS	261, R16
??monitor1_tx_rs485_1_0:
        LDI	R30, 4
        JMP	?EPILOGUE_B4_L09
        CFI EndBlock cfiBlock41
// 4104      
// 4105     }
// 4106 }
// 4107 
// 4108 

        RSEG CODE:CODE:NOROOT(1)
// 4109 void monitor1_tm_rs485_1(void)
monitor1_tm_rs485_1:
        CFI Block cfiBlock42 Using cfiCommon0
        CFI Function monitor1_tm_rs485_1
// 4110   {
        FUNCALL monitor1_tm_rs485_1, clr_cntr_nat
        LOCFRAME CSTACK, 2, STACK
        LOCFRAME RSTACK, 2, STACK
        FUNCALL monitor1_tm_rs485_1, clr_cntr_link
        LOCFRAME CSTACK, 2, STACK
        LOCFRAME RSTACK, 2, STACK
        FUNCALL monitor1_tm_rs485_1, send_err485
        LOCFRAME CSTACK, 2, STACK
        LOCFRAME RSTACK, 2, STACK
        ST	-Y, R27
        CFI R27 Frame(CFA_Y, -1)
        CFI CFA_Y Y+1
        ST	-Y, R26
        CFI R26 Frame(CFA_Y, -2)
        CFI CFA_Y Y+2
// 4111   if(fl_tx485.mon1==0)return;
// 4112   if(fl_ip.act_ip_end!=1)return; 
// 4113   if(fl_485_1.tm_out==0)return;
        LDI	R26, LOW(Appl_RS485_1)
        LDI	R27, (Appl_RS485_1) >> 8
        MOVW	R31:R30, R27:R26
        LDD	R16, Z+58
        ANDI	R16, 0x01
        LDI	R30, LOW(fl_ip)
        LDI	R31, (fl_ip) >> 8
        LD	R17, Z
        ANDI	R17, 0x01
        AND	R17, R16
        BREQ	??monitor1_tm_rs485_1_0
        LDI	R30, LOW(fl_485_1)
        LDI	R31, (fl_485_1) >> 8
        LD	R16, Z
        SBRS	R16, 2
        RJMP	??monitor1_tm_rs485_1_0
// 4114    
// 4115   // __disable_interrupt();
// 4116   CLR_RTS1;
        LDS	R16, 261
        ANDI	R16, 0xFB
        STS	261, R16
// 4117   //__enable_interrupt();
// 4118   
// 4119   clr_cntr_nat();
        CALL	clr_cntr_nat
// 4120   clr_cntr_link();
        CALL	clr_cntr_link
// 4121   
// 4122   fl_485_1.tm_out=0; 
        LDI	R30, LOW(fl_485_1)
        LDI	R31, (fl_485_1) >> 8
        LD	R16, Z
        ANDI	R16, 0xFB
        ST	Z, R16
// 4123   if(PINE & DCD0) send_err485(NUM_RS485_1,RS_NO_LINK,Appl_RS485_1.id_tek,Appl_RS485_1.dst_tek);// čăíîđčđîâŕňü ďĺđĺäŕ÷ó ĺńëč íĺň GPRS ęŕíŕëŕ
        SBIS	0x0C, 0x06
        RJMP	??monitor1_tm_rs485_1_1
        MOVW	R31:R30, R27:R26
        LDD	R20, Z+14
        LDD	R21, Z+15
        LDD	R18, Z+16
        LDI	R17, 1
        LDI	R16, 1
        CALL	send_err485
// 4124   fl_485_1.busy=0; 
??monitor1_tm_rs485_1_1:
        LDI	R30, LOW(fl_485_1)
        LDI	R31, (fl_485_1) >> 8
        LD	R16, Z
        ANDI	R16, 0xFE
        ST	Z, R16
// 4125   fl_tx485.mon1=0;
        MOVW	R31:R30, R27:R26
        LDD	R16, Z+58
        ANDI	R16, 0xFE
        STD	Z+58, R16
// 4126   }
??monitor1_tm_rs485_1_0:
        LD	R26, Y+
        CFI R26 SameValue
        CFI CFA_Y Y+1
        LD	R27, Y+
        CFI R27 SameValue
        CFI CFA_Y Y+0
        RET
        CFI EndBlock cfiBlock42
// 4127 
// 4128 
// 4129 

        RSEG CODE:CODE:NOROOT(1)
// 4130 void monitor1_rec_rs485_1(void)
monitor1_rec_rs485_1:
        CFI Block cfiBlock43 Using cfiCommon0
        CFI Function monitor1_rec_rs485_1
// 4131   {
        FUNCALL monitor1_rec_rs485_1, clr_cntr_nat
        LOCFRAME CSTACK, 4, STACK
        LOCFRAME RSTACK, 2, STACK
        FUNCALL monitor1_rec_rs485_1, clr_cntr_link
        LOCFRAME CSTACK, 4, STACK
        LOCFRAME RSTACK, 2, STACK
        FUNCALL monitor1_rec_rs485_1, send_err485
        LOCFRAME CSTACK, 4, STACK
        LOCFRAME RSTACK, 2, STACK
        FUNCALL monitor1_rec_rs485_1, send_err485
        LOCFRAME CSTACK, 4, STACK
        LOCFRAME RSTACK, 2, STACK
        FUNCALL monitor1_rec_rs485_1, form_buf_tx_ppp
        LOCFRAME CSTACK, 4, STACK
        LOCFRAME RSTACK, 2, STACK
        FUNCALL monitor1_rec_rs485_1, check_cts
        LOCFRAME CSTACK, 4, STACK
        LOCFRAME RSTACK, 2, STACK
        CALL	?PROLOGUE4_L09
        CFI R27 Frame(CFA_Y, -1)
        CFI R26 Frame(CFA_Y, -2)
        CFI R25 Frame(CFA_Y, -3)
        CFI R24 Frame(CFA_Y, -4)
        CFI CFA_Y Y+4
// 4132   unsigned int i;
// 4133   if(fl_tx485.mon1==0)return;
// 4134   if(fl_ip.act_ip_end!=1)return; 
// 4135   if(fl_485_1.rec==0)return;
        LDI	R26, LOW(Appl_RS485_1)
        LDI	R27, (Appl_RS485_1) >> 8
        MOVW	R31:R30, R27:R26
        LDD	R16, Z+58
        ANDI	R16, 0x01
        LDI	R30, LOW(fl_ip)
        LDI	R31, (fl_ip) >> 8
        LD	R17, Z
        ANDI	R17, 0x01
        AND	R17, R16
        BRNE	$+2+2
        RJMP	??monitor1_rec_rs485_1_0
        LDI	R30, LOW(fl_485_1)
        LDI	R31, (fl_485_1) >> 8
        LD	R16, Z
        SBRS	R16, 1
        RJMP	??monitor1_rec_rs485_1_0
// 4136 
// 4137   fl_485_1.rec=0;
        LD	R16, Z
        ANDI	R16, 0xFD
        ST	Z, R16
// 4138   
// 4139  // __disable_interrupt();
// 4140   CLR_RTS1;
        LDS	R16, 261
        ANDI	R16, 0xFB
        STS	261, R16
// 4141  // __enable_interrupt();
// 4142   
// 4143   clr_cntr_nat();
        CALL	clr_cntr_nat
// 4144   clr_cntr_link();
        CALL	clr_cntr_link
// 4145   
// 4146   
// 4147   if((PINE & DCD0)==0)
        LDI	R30, LOW(fl_485_1)
        LDI	R31, (fl_485_1) >> 8
        LD	R16, Z
        SBIC	0x0C, 0x06
        RJMP	??monitor1_rec_rs485_1_1
// 4148   {
// 4149      fl_485_1.over=0;         // čăíîđčđîâŕňü ďĺđĺäŕ÷ó ĺńëč íĺň GPRS ęŕíŕëŕ
        ANDI	R16, 0xEF
        ST	Z, R16
// 4150      Rs485_1.cnt_bt_rx_tx=0;
??monitor1_rec_rs485_1_2:
        LDI	R16, 0
        LDI	R30, LOW(Rs485_1)
        LDI	R31, (Rs485_1) >> 8
        ST	Z, R16
        STD	Z+1, R16
// 4151      fl_485_1.busy=0;
        LDI	R30, LOW(fl_485_1)
        LDI	R31, (fl_485_1) >> 8
        LD	R16, Z
        ANDI	R16, 0xFE
        ST	Z, R16
// 4152      fl_tx485.mon1=0; 
        MOVW	R31:R30, R27:R26
        LDD	R16, Z+58
        ANDI	R16, 0xFE
        STD	Z+58, R16
// 4153      return; 
        RJMP	??monitor1_rec_rs485_1_0
// 4154   }
// 4155   
// 4156   
// 4157   
// 4158   if(fl_485_1.over==1)
??monitor1_rec_rs485_1_1:
        SBRS	R16, 4
        RJMP	??monitor1_rec_rs485_1_3
// 4159      {
// 4160      fl_485_1.over=0;
        LD	R16, Z
        ANDI	R16, 0xEF
        ST	Z, R16
// 4161      send_err485(NUM_RS485_1,RS_OVER_BUF_RX,Appl_RS485_1.id_tek,Appl_RS485_1.dst_tek);
        MOVW	R31:R30, R27:R26
        LDD	R20, Z+14
        LDD	R21, Z+15
        LDD	R18, Z+16
        LDI	R17, 4
        LDI	R16, 1
        CALL	send_err485
// 4162      Rs485_1.cnt_bt_rx_tx=0;
        RJMP	??monitor1_rec_rs485_1_2
// 4163      fl_485_1.busy=0;
// 4164      fl_tx485.mon1=0; 
// 4165      return; 
// 4166      }
// 4167     
// 4168     //!!!!!!!!!!!!!! çäĺńü áű íŕäî ďđîâĺđę íŕ äëčíó áóôĺđŕ äë˙ PPP
// 4169    if(Rs485_1.cnt_bt_rx_tx+100>VOL_TX_PPP)
??monitor1_rec_rs485_1_3:
        LDI	R30, LOW(Rs485_1)
        LDI	R31, (Rs485_1) >> 8
        LD	R16, Z
        LDD	R17, Z+1
        SUBI	R16, 156
        SBCI	R17, 255
        CPI	R16, 77
        LDI	R18, 4
        CPC	R17, R18
        BRCS	??monitor1_rec_rs485_1_4
// 4170       {
// 4171       send_err485(NUM_RS485_1,RS_OVER_BUF_PPP_TX,Appl_RS485_1.id_tek,Appl_RS485_1.dst_tek);
        MOVW	R31:R30, R27:R26
        LDD	R20, Z+14
        LDD	R21, Z+15
        LDD	R18, Z+16
        LDI	R17, 7
        LDI	R16, 1
        CALL	send_err485
// 4172       Rs485_1.cnt_bt_rx_tx=0;
        LDI	R16, 0
        LDI	R30, LOW(Rs485_1)
        LDI	R31, (Rs485_1) >> 8
        ST	Z, R16
        STD	Z+1, R16
// 4173       fl_485_1.busy=0;
        LDI	R30, LOW(fl_485_1)
        LDI	R31, (fl_485_1) >> 8
        LD	R16, Z
        ANDI	R16, 0xFE
        ST	Z, R16
// 4174       fl_tx485.mon1=0; 
        MOVW	R31:R30, R27:R26
        LDD	R16, Z+58
        ANDI	R16, 0xFE
        STD	Z+58, R16
// 4175       return; 
        RJMP	??monitor1_rec_rs485_1_0
// 4176       }
// 4177     
// 4178   fl_ip.act_ip_end=0;
??monitor1_rec_rs485_1_4:
        LDI	R30, LOW(fl_ip)
        LDI	R31, (fl_ip) >> 8
        LD	R16, Z
        ANDI	R16, 0xFE
        ST	Z, R16
// 4179   
// 4180   Obj_ppp_tx.prozr=FALSE;            
        LDI	R16, LOW(Obj_ppp_tx)
        LDI	R17, (Obj_ppp_tx) >> 8
        LDI	R18, 0
        MOVW	R31:R30, R17:R16
        ST	Z, R18
// 4181   Obj_ppp_tx.version=VER2;      //âĺđńč˙ 
        LDI	R18, 2
        STD	Z+1, R18
// 4182   Obj_ppp_tx.type_pac=OTV;     //ňčď ďŕęĺňŕ
        LDI	R18, 1
        STD	Z+2, R18
// 4183   Obj_ppp_tx.num_src=num_self; // íîěĺđ îňďđŕâčňĺë˙
        LDI	R30, LOW(Appl_seq)
        LDI	R31, (Appl_seq) >> 8
        LDD	R18, Z+56
        LDD	R19, Z+57
        MOVW	R31:R30, R17:R16
        STD	Z+3, R18
        STD	Z+4, R19
// 4184   Obj_ppp_tx.num_dst=Appl_RS485_1.dst_tek; // íîěĺđ ďîëó÷ŕňĺë˙
        MOVW	R31:R30, R27:R26
        LDD	R18, Z+14
        LDD	R19, Z+15
        MOVW	R31:R30, R17:R16
        STD	Z+5, R18
        STD	Z+6, R19
// 4185   Obj_ppp_tx.id_pac=Appl_RS485_1.id_tek; // čäĺíňčôčęŕňîđ ďŕęĺňŕ  
        MOVW	R31:R30, R27:R26
        LDD	R18, Z+16
        MOVW	R31:R30, R17:R16
        STD	Z+7, R18
// 4186   Obj_ppp_tx.p_opt=&buf_opt_tr[0]; // //óęŕçŕňĺëü áóôĺđŕ îďöčé  
        LDI	R18, LOW((Appl_RS232_2 + 19))
        LDI	R19, HIGH((Appl_RS232_2 + 19))
        STD	Z+8, R18
        STD	Z+9, R19
// 4187   Obj_ppp_tx.l_opt=0;// äëčíŕ áóôĺđŕ îďöčé   
        LDI	R18, 0
        STD	Z+10, R18
// 4188   Obj_ppp_tx.kol_opt=0;// ęîëč÷ĺńňâî îďöčé 
        STD	Z+11, R18
// 4189   
// 4190 
// 4191     buf_tx_232[TR_OP_DATA+C1_PROT]=PROT_C1;
        LDI	R24, LOW(buf_tx_232)
        LDI	R25, (buf_tx_232) >> 8
        LDI	R18, 1
        MOVW	R31:R30, R25:R24
        STD	Z+42, R18
// 4192     buf_tx_232[TR_OP_DATA+C1_PORT]=PORT485_1;
        STD	Z+43, R18
// 4193    
// 4194    
// 4195 
// 4196     for(i=0;i<Rs485_1.cnt_bt_rx_tx;i++)buf_tx_232[TR_OP_DATA+C1_DATA+i]=Rs485_1_buf_rx_tx[i];
        LDI	R18, 0
        LDI	R19, 0
        RJMP	??monitor1_rec_rs485_1_5
??monitor1_rec_rs485_1_6:
        MOVW	R31:R30, R19:R18
        SUBI	R30, LOW((-(Rs485_1_buf_rx_tx) & 0xFFFF))
        SBCI	R31, (-(Rs485_1_buf_rx_tx) & 0xFFFF) >> 8
        LD	R20, Z
        MOVW	R31:R30, R25:R24
        ADD	R30, R18
        ADC	R31, R19
        STD	Z+44, R20
        SUBI	R18, 255
        SBCI	R19, 255
??monitor1_rec_rs485_1_5:
        LDI	R30, LOW(Rs485_1)
        LDI	R31, (Rs485_1) >> 8
        LD	R20, Z
        LDD	R21, Z+1
        CP	R18, R20
        CPC	R19, R21
        BRCS	??monitor1_rec_rs485_1_6
// 4197     Obj_ppp_tx.l_data=2+Rs485_1.cnt_bt_rx_tx;   // äëčíŕ äŕííűő
        LD	R18, Z
        LDD	R19, Z+1
        SUBI	R18, 254
        SBCI	R19, 255
        MOVW	R31:R30, R17:R16
        STD	Z+14, R18
        STD	Z+15, R19
// 4198     Obj_ppp_tx.p_data=&buf_tx_232[TR_OP_DATA+C1_PROT];  //óęŕçŕňĺëü áóôĺđŕ äŕííűő 
        MOVW	R19:R18, R25:R24
        SUBI	R18, 214
        SBCI	R19, 255
        STD	Z+12, R18
        STD	Z+13, R19
// 4199     Rs485_1.cnt_bt_rx_tx=0;
        LDI	R16, 0
        LDI	R30, LOW(Rs485_1)
        LDI	R31, (Rs485_1) >> 8
        ST	Z, R16
        STD	Z+1, R16
// 4200     
// 4201   form_buf_tx_ppp();                            
        CALL	form_buf_tx_ppp
// 4202   UCSR0A=UCSR0A | TXC;                            
        LDS	R16, 192
        ORI	R16, 0x40
        STS	192, R16
// 4203   UCSR0B=UCSR0B | TXEN;
        LDS	R16, 193
        ORI	R16, 0x08
        STS	193, R16
// 4204   UCSR0B=UCSR0B | TXCIE; 
        LDS	R16, 193
        ORI	R16, 0x40
        STS	193, R16
// 4205   fl_485_1.busy=0;
        LDI	R30, LOW(fl_485_1)
        LDI	R31, (fl_485_1) >> 8
        LD	R16, Z
        ANDI	R16, 0xFE
        ST	Z, R16
// 4206   fl_tx485.mon1=0;
        MOVW	R31:R30, R27:R26
        LDD	R16, Z+58
        ANDI	R16, 0xFE
        STD	Z+58, R16
// 4207   if(check_cts()==1) return;                
        CALL	check_cts
        CPI	R16, 1
        BREQ	??monitor1_rec_rs485_1_0
// 4208   S2_RD;
        SBI	0x08, 0x00
        CBI	0x08, 0x01
// 4209   UDR0=buf_tx_232[0]; 
        MOVW	R31:R30, R25:R24
        LD	R16, Z
        STS	198, R16
// 4210   if(Regim==RG_DEBAG) UDR3=buf_tx_232[0];
        LDS	R16, Regim
        CPI	R16, 1
        BRNE	??monitor1_rec_rs485_1_0
        LD	R16, Z
        STS	310, R16
??monitor1_rec_rs485_1_0:
        LDI	R30, 4
        JMP	?EPILOGUE_B4_L09
        CFI EndBlock cfiBlock43
// 4211   return;     
// 4212   
// 4213   }
// 4214 
// 4215 
// 4216 ///EEEEEEEEEEEEEEEEEEEEEEEEEEEEEEEEEEEEEEEEEEEEEEEEEEEEEE!Đŕáîňŕ ń ďîđňîě RS485-1
// 4217 
// 4218 
// 4219 
// 4220 
// 4221 ///!!!!!!!!!!!!!!!!!!!!!!!!!!!!!!!!!!!!!!!!!!!!!!!!!!Đŕáîňŕ ń ďîđňîě RS485-2
// 4222 

        RSEG CODE:CODE:NOROOT(1)
// 4223 void monitor1_tx_rs485_2(void)
monitor1_tx_rs485_2:
        CFI Block cfiBlock44 Using cfiCommon0
        CFI Function monitor1_tx_rs485_2
// 4224 {
        FUNCALL monitor1_tx_rs485_2, run_cont_485_2
        LOCFRAME CSTACK, 4, STACK
        LOCFRAME RSTACK, 2, STACK
        CALL	?PROLOGUE4_L09
        CFI R27 Frame(CFA_Y, -1)
        CFI R26 Frame(CFA_Y, -2)
        CFI R25 Frame(CFA_Y, -3)
        CFI R24 Frame(CFA_Y, -4)
        CFI CFA_Y Y+4
// 4225   unsigned int i;
// 4226   if(fl_485_2.busy==1)return;
        LDI	R30, LOW(fl_485_2)
        LDI	R31, (fl_485_2) >> 8
        LD	R16, Z
        SBRC	R16, 0
        RJMP	??monitor1_tx_rs485_2_0
// 4227   if((fl_485_2.tx==1)||(Appl_RS485_2.fl_data_buf==TRUE))
        LDI	R26, LOW(Appl_RS485_1)
        LDI	R27, (Appl_RS485_1) >> 8
        LD	R16, Z
        SBRC	R16, 3
        RJMP	??monitor1_tx_rs485_2_1
        MOVW	R31:R30, R27:R26
        LDD	R16, Z+19
        CPI	R16, 1
        BREQ	$+2+2
        RJMP	??monitor1_tx_rs485_2_0
// 4228     {
// 4229     if(fl_485_2.tx==1)fl_485_2.tx=0;
??monitor1_tx_rs485_2_1:
        LDI	R30, LOW(fl_485_2)
        LDI	R31, (fl_485_2) >> 8
        LD	R16, Z
        SBRS	R16, 3
        RJMP	??monitor1_tx_rs485_2_2
        LD	R16, Z
        ANDI	R16, 0xF7
        ST	Z, R16
// 4230     if(Appl_RS485_2.fl_data_buf==TRUE)Appl_RS485_2.fl_data_buf=FALSE;
??monitor1_tx_rs485_2_2:
        MOVW	R31:R30, R27:R26
        LDD	R16, Z+19
        CPI	R16, 1
        BRNE	??monitor1_tx_rs485_2_3
        LDI	R16, 0
        STD	Z+19, R16
// 4231     fl_485_2.busy=1;
??monitor1_tx_rs485_2_3:
        LDI	R30, LOW(fl_485_2)
        LDI	R31, (fl_485_2) >> 8
        LD	R16, Z
        ORI	R16, 0x01
        ST	Z, R16
// 4232     fl_tx485.mon2=1;
        MOVW	R31:R30, R27:R26
        LDD	R16, Z+58
        ORI	R16, 0x02
        STD	Z+58, R16
// 4233     Appl_RS485_2.dst_tek=Appl_RS485_2.dst_buf;
        LDD	R16, Z+22
        LDD	R17, Z+23
        STD	Z+33, R16
        STD	Z+34, R17
// 4234     Appl_RS485_2.id_tek=Appl_RS485_2.id_buf;
        LDD	R16, Z+32
        STD	Z+35, R16
// 4235     Rs485_2.cnt_bt_rx_tx=Appl_RS485_2.ln_data_buf;
        LDI	R16, LOW(Rs485_2)
        LDI	R17, (Rs485_2) >> 8
        LDD	R18, Z+20
        LDD	R19, Z+21
        MOVW	R31:R30, R17:R16
        ST	Z, R18
        STD	Z+1, R19
// 4236     for(i=0;i<Rs485_2.cnt_bt_rx_tx;i++)Rs485_2_buf_rx_tx[i]=Appl_RS485_2_data_buf[i];
        LDI	R24, 0
        LDI	R25, 0
        RJMP	??monitor1_tx_rs485_2_4
??monitor1_tx_rs485_2_5:
        MOVW	R31:R30, R25:R24
        SUBI	R30, LOW((-(Appl_RS485_2_data_buf) & 0xFFFF))
        SBCI	R31, (-(Appl_RS485_2_data_buf) & 0xFFFF) >> 8
        LD	R18, Z
        MOVW	R31:R30, R25:R24
        SUBI	R30, LOW((-(Rs485_2_buf_rx_tx) & 0xFFFF))
        SBCI	R31, (-(Rs485_2_buf_rx_tx) & 0xFFFF) >> 8
        ST	Z, R18
        ADIW	R25:R24, 1
??monitor1_tx_rs485_2_4:
        MOVW	R31:R30, R17:R16
        LD	R18, Z
        LDD	R19, Z+1
        CP	R24, R18
        CPC	R25, R19
        BRCS	??monitor1_tx_rs485_2_5
// 4237     Rs485_2.p_data485=&Rs485_2_buf_rx_tx[0];
        LDI	R18, LOW(Rs485_2_buf_rx_tx)
        LDI	R19, (Rs485_2_buf_rx_tx) >> 8
        STD	Z+16, R18
        STD	Z+17, R19
// 4238     //çäĺńü äîëćíŕ áűňü ôóíęöč˙ íŕńňđîéęč ďîđňŕ ďî ęîíňĺęńňó.
// 4239     
// 4240     if (run_cont_485_2(&Appl_RS485_2.cont_buf[0])==1)
        MOVW	R17:R16, R27:R26
        SUBI	R16, 232
        SBCI	R17, 255
        CALL	run_cont_485_2
        CPI	R16, 1
        BRNE	??monitor1_tx_rs485_2_6
// 4241        {
// 4242        fl_485_2.busy=0;
        LDI	R30, LOW(fl_485_2)
        LDI	R31, (fl_485_2) >> 8
        LD	R16, Z
        ANDI	R16, 0xFE
        ST	Z, R16
// 4243        fl_tx485.mon2=0;
        MOVW	R31:R30, R27:R26
        LDD	R16, Z+58
        ANDI	R16, 0xFD
        STD	Z+58, R16
// 4244        return;
        RJMP	??monitor1_tx_rs485_2_0
// 4245        }
// 4246     S4_RD;    
??monitor1_tx_rs485_2_6:
        SBI	0x08, 0x02
        CBI	0x08, 0x03
// 4247     UCSR1B=UCSR1B & ~(RXCIE | RXEN); 
        LDS	R16, 201
        ANDI	R16, 0x6F
        STS	201, R16
// 4248     SET_RTS3;  //rts íŕ ďĺđĺäŕ÷ó
        SBI	0x0B, 0x04
??monitor1_tx_rs485_2_0:
        LDI	R30, 4
        JMP	?EPILOGUE_B4_L09
        CFI EndBlock cfiBlock44
// 4249      
// 4250     }
// 4251 }
// 4252 
// 4253 

        RSEG CODE:CODE:NOROOT(1)
// 4254 void monitor1_tm_rs485_2(void)
monitor1_tm_rs485_2:
        CFI Block cfiBlock45 Using cfiCommon0
        CFI Function monitor1_tm_rs485_2
// 4255   {
        FUNCALL monitor1_tm_rs485_2, clr_cntr_nat
        LOCFRAME CSTACK, 2, STACK
        LOCFRAME RSTACK, 2, STACK
        FUNCALL monitor1_tm_rs485_2, clr_cntr_link
        LOCFRAME CSTACK, 2, STACK
        LOCFRAME RSTACK, 2, STACK
        FUNCALL monitor1_tm_rs485_2, send_err485
        LOCFRAME CSTACK, 2, STACK
        LOCFRAME RSTACK, 2, STACK
        ST	-Y, R27
        CFI R27 Frame(CFA_Y, -1)
        CFI CFA_Y Y+1
        ST	-Y, R26
        CFI R26 Frame(CFA_Y, -2)
        CFI CFA_Y Y+2
// 4256   if(fl_tx485.mon2==0)return;
// 4257   if(fl_ip.act_ip_end!=1)return; 
// 4258   if(fl_485_2.tm_out==0)return;
        LDI	R26, LOW(Appl_RS485_1)
        LDI	R27, (Appl_RS485_1) >> 8
        MOVW	R31:R30, R27:R26
        LDD	R16, Z+58
        SBRS	R16, 1
        RJMP	??monitor1_tm_rs485_2_0
        LDI	R30, LOW(fl_ip)
        LDI	R31, (fl_ip) >> 8
        LD	R16, Z
        SBRS	R16, 0
        RJMP	??monitor1_tm_rs485_2_0
        LDI	R30, LOW(fl_485_2)
        LDI	R31, (fl_485_2) >> 8
        LD	R16, Z
        SBRS	R16, 2
        RJMP	??monitor1_tm_rs485_2_0
// 4259    
// 4260   // __disable_interrupt();
// 4261   CLR_RTS3;
        CBI	0x0B, 0x04
// 4262   //__enable_interrupt();
// 4263   
// 4264   clr_cntr_nat();
        CALL	clr_cntr_nat
// 4265   clr_cntr_link();
        CALL	clr_cntr_link
// 4266   
// 4267   fl_485_2.tm_out=0; 
        LDI	R30, LOW(fl_485_2)
        LDI	R31, (fl_485_2) >> 8
        LD	R16, Z
        ANDI	R16, 0xFB
        ST	Z, R16
// 4268   if(PINE & DCD0) send_err485(NUM_RS485_2,RS_NO_LINK,Appl_RS485_2.id_tek,Appl_RS485_2.dst_tek);// čăíîđčđîâŕňü ďĺđĺäŕ÷ó ĺńëč íĺň GPRS ęŕíŕëŕ
        SBIS	0x0C, 0x06
        RJMP	??monitor1_tm_rs485_2_1
        MOVW	R31:R30, R27:R26
        LDD	R20, Z+33
        LDD	R21, Z+34
        LDD	R18, Z+35
        LDI	R17, 1
        LDI	R16, 2
        CALL	send_err485
// 4269   fl_485_2.busy=0; 
??monitor1_tm_rs485_2_1:
        LDI	R30, LOW(fl_485_2)
        LDI	R31, (fl_485_2) >> 8
        LD	R16, Z
        ANDI	R16, 0xFE
        ST	Z, R16
// 4270   fl_tx485.mon2=0;
        MOVW	R31:R30, R27:R26
        LDD	R16, Z+58
        ANDI	R16, 0xFD
        STD	Z+58, R16
// 4271   }
??monitor1_tm_rs485_2_0:
        LD	R26, Y+
        CFI R26 SameValue
        CFI CFA_Y Y+1
        LD	R27, Y+
        CFI R27 SameValue
        CFI CFA_Y Y+0
        RET
        CFI EndBlock cfiBlock45
// 4272 
// 4273 
// 4274 

        RSEG CODE:CODE:NOROOT(1)
// 4275 void monitor1_rec_rs485_2(void)
monitor1_rec_rs485_2:
        CFI Block cfiBlock46 Using cfiCommon0
        CFI Function monitor1_rec_rs485_2
// 4276   {
        FUNCALL monitor1_rec_rs485_2, clr_cntr_nat
        LOCFRAME CSTACK, 4, STACK
        LOCFRAME RSTACK, 2, STACK
        FUNCALL monitor1_rec_rs485_2, clr_cntr_link
        LOCFRAME CSTACK, 4, STACK
        LOCFRAME RSTACK, 2, STACK
        FUNCALL monitor1_rec_rs485_2, send_err485
        LOCFRAME CSTACK, 4, STACK
        LOCFRAME RSTACK, 2, STACK
        FUNCALL monitor1_rec_rs485_2, send_err485
        LOCFRAME CSTACK, 4, STACK
        LOCFRAME RSTACK, 2, STACK
        FUNCALL monitor1_rec_rs485_2, form_buf_tx_ppp
        LOCFRAME CSTACK, 4, STACK
        LOCFRAME RSTACK, 2, STACK
        FUNCALL monitor1_rec_rs485_2, check_cts
        LOCFRAME CSTACK, 4, STACK
        LOCFRAME RSTACK, 2, STACK
        CALL	?PROLOGUE4_L09
        CFI R27 Frame(CFA_Y, -1)
        CFI R26 Frame(CFA_Y, -2)
        CFI R25 Frame(CFA_Y, -3)
        CFI R24 Frame(CFA_Y, -4)
        CFI CFA_Y Y+4
// 4277   unsigned int i;
// 4278   if(fl_tx485.mon2==0)return;
// 4279   if(fl_ip.act_ip_end!=1)return; 
// 4280   if(fl_485_2.rec==0)return;
        LDI	R26, LOW(Appl_RS485_1)
        LDI	R27, (Appl_RS485_1) >> 8
        MOVW	R31:R30, R27:R26
        LDD	R16, Z+58
        SBRS	R16, 1
        RJMP	??monitor1_rec_rs485_2_0
        LDI	R30, LOW(fl_ip)
        LDI	R31, (fl_ip) >> 8
        LD	R16, Z
        SBRS	R16, 0
        RJMP	??monitor1_rec_rs485_2_0
        LDI	R30, LOW(fl_485_2)
        LDI	R31, (fl_485_2) >> 8
        LD	R16, Z
        SBRS	R16, 1
        RJMP	??monitor1_rec_rs485_2_0
// 4281 
// 4282   fl_485_2.rec=0;
        LD	R16, Z
        ANDI	R16, 0xFD
        ST	Z, R16
// 4283   
// 4284  // __disable_interrupt();
// 4285   CLR_RTS3;
        CBI	0x0B, 0x04
// 4286  // __enable_interrupt();
// 4287   
// 4288   clr_cntr_nat();
        CALL	clr_cntr_nat
// 4289   clr_cntr_link();
        CALL	clr_cntr_link
// 4290   
// 4291   
// 4292   if((PINE & DCD0)==0)
        LDI	R30, LOW(fl_485_2)
        LDI	R31, (fl_485_2) >> 8
        LD	R16, Z
        SBIC	0x0C, 0x06
        RJMP	??monitor1_rec_rs485_2_1
// 4293   {
// 4294      fl_485_2.over=0;         // čăíîđčđîâŕňü ďĺđĺäŕ÷ó ĺńëč íĺň GPRS ęŕíŕëŕ
        ANDI	R16, 0xEF
        ST	Z, R16
// 4295      Rs485_2.cnt_bt_rx_tx=0;
??monitor1_rec_rs485_2_2:
        LDI	R16, 0
        LDI	R30, LOW(Rs485_2)
        LDI	R31, (Rs485_2) >> 8
        ST	Z, R16
        STD	Z+1, R16
// 4296      fl_485_2.busy=0;
        LDI	R30, LOW(fl_485_2)
        LDI	R31, (fl_485_2) >> 8
        LD	R16, Z
        ANDI	R16, 0xFE
        ST	Z, R16
// 4297      fl_tx485.mon2=0; 
        MOVW	R31:R30, R27:R26
        LDD	R16, Z+58
        ANDI	R16, 0xFD
        STD	Z+58, R16
// 4298      return; 
        RJMP	??monitor1_rec_rs485_2_0
// 4299   }
// 4300   
// 4301   
// 4302   
// 4303   if(fl_485_2.over==1)
??monitor1_rec_rs485_2_1:
        SBRS	R16, 4
        RJMP	??monitor1_rec_rs485_2_3
// 4304      {
// 4305      fl_485_2.over=0;
        LD	R16, Z
        ANDI	R16, 0xEF
        ST	Z, R16
// 4306      send_err485(NUM_RS485_2,RS_OVER_BUF_RX,Appl_RS485_2.id_tek,Appl_RS485_2.dst_tek);
        MOVW	R31:R30, R27:R26
        LDD	R20, Z+33
        LDD	R21, Z+34
        LDD	R18, Z+35
        LDI	R17, 4
        LDI	R16, 2
        CALL	send_err485
// 4307      Rs485_2.cnt_bt_rx_tx=0;
        RJMP	??monitor1_rec_rs485_2_2
// 4308      fl_485_2.busy=0;
// 4309      fl_tx485.mon2=0; 
// 4310      return; 
// 4311      }
// 4312     
// 4313     //!!!!!!!!!!!!!! çäĺńü áű íŕäî ďđîâĺđę íŕ äëčíó áóôĺđŕ äë˙ PPP
// 4314    if(Rs485_2.cnt_bt_rx_tx+100>VOL_TX_PPP)
??monitor1_rec_rs485_2_3:
        LDI	R30, LOW(Rs485_2)
        LDI	R31, (Rs485_2) >> 8
        LD	R16, Z
        LDD	R17, Z+1
        SUBI	R16, 156
        SBCI	R17, 255
        CPI	R16, 77
        LDI	R18, 4
        CPC	R17, R18
        BRCS	??monitor1_rec_rs485_2_4
// 4315       {
// 4316       send_err485(NUM_RS485_2,RS_OVER_BUF_PPP_TX,Appl_RS485_2.id_tek,Appl_RS485_2.dst_tek);
        MOVW	R31:R30, R27:R26
        LDD	R20, Z+33
        LDD	R21, Z+34
        LDD	R18, Z+35
        LDI	R17, 7
        LDI	R16, 2
        CALL	send_err485
// 4317       Rs485_2.cnt_bt_rx_tx=0;
        LDI	R16, 0
        LDI	R30, LOW(Rs485_2)
        LDI	R31, (Rs485_2) >> 8
        ST	Z, R16
        STD	Z+1, R16
// 4318       fl_485_2.busy=0;
        LDI	R30, LOW(fl_485_2)
        LDI	R31, (fl_485_2) >> 8
        LD	R16, Z
        ANDI	R16, 0xFE
        ST	Z, R16
// 4319       fl_tx485.mon2=0; 
        MOVW	R31:R30, R27:R26
        LDD	R16, Z+58
        ANDI	R16, 0xFD
        STD	Z+58, R16
// 4320       return; 
        RJMP	??monitor1_rec_rs485_2_0
// 4321       }
// 4322     
// 4323   fl_ip.act_ip_end=0;
??monitor1_rec_rs485_2_4:
        LDI	R30, LOW(fl_ip)
        LDI	R31, (fl_ip) >> 8
        LD	R16, Z
        ANDI	R16, 0xFE
        ST	Z, R16
// 4324   
// 4325   Obj_ppp_tx.prozr=FALSE;            
        LDI	R16, LOW(Obj_ppp_tx)
        LDI	R17, (Obj_ppp_tx) >> 8
        LDI	R18, 0
        MOVW	R31:R30, R17:R16
        ST	Z, R18
// 4326   Obj_ppp_tx.version=VER2;      //âĺđńč˙ 
        LDI	R18, 2
        STD	Z+1, R18
// 4327   Obj_ppp_tx.type_pac=OTV;     //ňčď ďŕęĺňŕ
        LDI	R18, 1
        STD	Z+2, R18
// 4328   Obj_ppp_tx.num_src=num_self; // íîěĺđ îňďđŕâčňĺë˙
        LDI	R30, LOW(Appl_seq)
        LDI	R31, (Appl_seq) >> 8
        LDD	R18, Z+56
        LDD	R19, Z+57
        MOVW	R31:R30, R17:R16
        STD	Z+3, R18
        STD	Z+4, R19
// 4329   Obj_ppp_tx.num_dst=Appl_RS485_2.dst_tek; // íîěĺđ ďîëó÷ŕňĺë˙
        MOVW	R31:R30, R27:R26
        LDD	R18, Z+33
        LDD	R19, Z+34
        MOVW	R31:R30, R17:R16
        STD	Z+5, R18
        STD	Z+6, R19
// 4330   Obj_ppp_tx.id_pac=Appl_RS485_2.id_tek; // čäĺíňčôčęŕňîđ ďŕęĺňŕ  
        MOVW	R31:R30, R27:R26
        LDD	R18, Z+35
        MOVW	R31:R30, R17:R16
        STD	Z+7, R18
// 4331   Obj_ppp_tx.p_opt=&buf_opt_tr[0]; // //óęŕçŕňĺëü áóôĺđŕ îďöčé  
        LDI	R18, LOW((Appl_RS232_2 + 19))
        LDI	R19, HIGH((Appl_RS232_2 + 19))
        STD	Z+8, R18
        STD	Z+9, R19
// 4332   Obj_ppp_tx.l_opt=0;// äëčíŕ áóôĺđŕ îďöčé   
        LDI	R18, 0
        STD	Z+10, R18
// 4333   Obj_ppp_tx.kol_opt=0;// ęîëč÷ĺńňâî îďöčé 
        STD	Z+11, R18
// 4334   
// 4335 
// 4336     buf_tx_232[TR_OP_DATA+C1_PROT]=PROT_C1;
        LDI	R24, LOW(buf_tx_232)
        LDI	R25, (buf_tx_232) >> 8
        LDI	R18, 1
        MOVW	R31:R30, R25:R24
        STD	Z+42, R18
// 4337     buf_tx_232[TR_OP_DATA+C1_PORT]=PORT485_2;
        LDI	R18, 2
        STD	Z+43, R18
// 4338    
// 4339    
// 4340 
// 4341     for(i=0;i<Rs485_2.cnt_bt_rx_tx;i++)buf_tx_232[TR_OP_DATA+C1_DATA+i]=Rs485_2_buf_rx_tx[i];
        LDI	R18, 0
        LDI	R19, 0
        RJMP	??monitor1_rec_rs485_2_5
??monitor1_rec_rs485_2_6:
        MOVW	R31:R30, R19:R18
        SUBI	R30, LOW((-(Rs485_2_buf_rx_tx) & 0xFFFF))
        SBCI	R31, (-(Rs485_2_buf_rx_tx) & 0xFFFF) >> 8
        LD	R20, Z
        MOVW	R31:R30, R25:R24
        ADD	R30, R18
        ADC	R31, R19
        STD	Z+44, R20
        SUBI	R18, 255
        SBCI	R19, 255
??monitor1_rec_rs485_2_5:
        LDI	R30, LOW(Rs485_2)
        LDI	R31, (Rs485_2) >> 8
        LD	R20, Z
        LDD	R21, Z+1
        CP	R18, R20
        CPC	R19, R21
        BRCS	??monitor1_rec_rs485_2_6
// 4342     Obj_ppp_tx.l_data=2+Rs485_2.cnt_bt_rx_tx;   // äëčíŕ äŕííűő
        LD	R18, Z
        LDD	R19, Z+1
        SUBI	R18, 254
        SBCI	R19, 255
        MOVW	R31:R30, R17:R16
        STD	Z+14, R18
        STD	Z+15, R19
// 4343     Obj_ppp_tx.p_data=&buf_tx_232[TR_OP_DATA+C1_PROT];  //óęŕçŕňĺëü áóôĺđŕ äŕííűő 
        MOVW	R19:R18, R25:R24
        SUBI	R18, 214
        SBCI	R19, 255
        STD	Z+12, R18
        STD	Z+13, R19
// 4344     Rs485_2.cnt_bt_rx_tx=0;
        LDI	R16, 0
        LDI	R30, LOW(Rs485_2)
        LDI	R31, (Rs485_2) >> 8
        ST	Z, R16
        STD	Z+1, R16
// 4345     
// 4346   form_buf_tx_ppp();                            
        CALL	form_buf_tx_ppp
// 4347   UCSR0A=UCSR0A | TXC;                            
        LDS	R16, 192
        ORI	R16, 0x40
        STS	192, R16
// 4348   UCSR0B=UCSR0B | TXEN;
        LDS	R16, 193
        ORI	R16, 0x08
        STS	193, R16
// 4349   UCSR0B=UCSR0B | TXCIE; 
        LDS	R16, 193
        ORI	R16, 0x40
        STS	193, R16
// 4350   fl_485_2.busy=0;
        LDI	R30, LOW(fl_485_2)
        LDI	R31, (fl_485_2) >> 8
        LD	R16, Z
        ANDI	R16, 0xFE
        ST	Z, R16
// 4351   fl_tx485.mon2=0;
        MOVW	R31:R30, R27:R26
        LDD	R16, Z+58
        ANDI	R16, 0xFD
        STD	Z+58, R16
// 4352   if(check_cts()==1) return;                
        CALL	check_cts
        CPI	R16, 1
        BREQ	??monitor1_rec_rs485_2_0
// 4353   S2_RD;
        SBI	0x08, 0x00
        CBI	0x08, 0x01
// 4354   UDR0=buf_tx_232[0]; 
        MOVW	R31:R30, R25:R24
        LD	R16, Z
        STS	198, R16
// 4355   if(Regim==RG_DEBAG) UDR3=buf_tx_232[0];
        LDS	R16, Regim
        CPI	R16, 1
        BRNE	??monitor1_rec_rs485_2_0
        LD	R16, Z
        STS	310, R16
??monitor1_rec_rs485_2_0:
        LDI	R30, 4
        JMP	?EPILOGUE_B4_L09
        CFI EndBlock cfiBlock46
// 4356   return;     
// 4357   
// 4358   }
// 4359 
// 4360 
// 4361 ///EEEEEEEEEEEEEEEEEEEEEEEEEEEEEEEEEEEEEEEEEEEEEEEEEEEEEE!Đŕáîňŕ ń ďîđňîě RS485-2
// 4362 
// 4363 
// 4364 
// 4365 
// 4366 
// 4367 
// 4368 
// 4369 ///!!!!!!!!!!!!!!!!!!!!!!!!!!!!!!!!!!!!!!!!!!!!!!!!!!Đŕáîňŕ ń ďîđňîě RS232-2
// 4370 

        RSEG CODE:CODE:NOROOT(1)
// 4371 void monitor1_tx_rs232_2(void)
monitor1_tx_rs232_2:
        CFI Block cfiBlock47 Using cfiCommon0
        CFI Function monitor1_tx_rs232_2
// 4372 {
        FUNCALL monitor1_tx_rs232_2, run_cont_232_2
        LOCFRAME CSTACK, 4, STACK
        LOCFRAME RSTACK, 2, STACK
        CALL	?PROLOGUE4_L09
        CFI R27 Frame(CFA_Y, -1)
        CFI R26 Frame(CFA_Y, -2)
        CFI R25 Frame(CFA_Y, -3)
        CFI R24 Frame(CFA_Y, -4)
        CFI CFA_Y Y+4
// 4373   unsigned int i;
// 4374   if(fl_232_2.busy==1)return;
        LDI	R30, LOW(fl_232_2)
        LDI	R31, (fl_232_2) >> 8
        LD	R16, Z
        SBRC	R16, 0
        RJMP	??monitor1_tx_rs232_2_0
// 4375   if((fl_232_2.tx==1)||(Appl_RS232_2.fl_data_buf==TRUE))
        LDI	R16, LOW(Appl_RS232_2)
        LDI	R17, (Appl_RS232_2) >> 8
        LD	R18, Z
        SBRC	R18, 3
        RJMP	??monitor1_tx_rs232_2_1
        MOVW	R31:R30, R17:R16
        LD	R18, Z
        CPI	R18, 1
        BREQ	$+2+2
        RJMP	??monitor1_tx_rs232_2_0
// 4376     {
// 4377     if(fl_232_2.tx==1)fl_232_2.tx=0;
??monitor1_tx_rs232_2_1:
        LDI	R30, LOW(fl_232_2)
        LDI	R31, (fl_232_2) >> 8
        LD	R18, Z
        SBRS	R18, 3
        RJMP	??monitor1_tx_rs232_2_2
        LD	R18, Z
        ANDI	R18, 0xF7
        ST	Z, R18
// 4378     if(Appl_RS232_2.fl_data_buf==TRUE)Appl_RS232_2.fl_data_buf=FALSE;
??monitor1_tx_rs232_2_2:
        MOVW	R31:R30, R17:R16
        LD	R18, Z
        CPI	R18, 1
        BRNE	??monitor1_tx_rs232_2_3
        LDI	R18, 0
        ST	Z, R18
// 4379     fl_232_2.busy=1;
??monitor1_tx_rs232_2_3:
        LDI	R30, LOW(fl_232_2)
        LDI	R31, (fl_232_2) >> 8
        LD	R18, Z
        ORI	R18, 0x01
        ST	Z, R18
// 4380     fl_tx485.mon232_2=1;
        LDI	R30, LOW(Appl_RS485_1)
        LDI	R31, (Appl_RS485_1) >> 8
        LDD	R18, Z+58
        ORI	R18, 0x04
        STD	Z+58, R18
// 4381     Appl_RS232_2.dst_tek=Appl_RS232_2.dst_buf;
        MOVW	R31:R30, R17:R16
        LDD	R18, Z+3
        LDD	R19, Z+4
        STD	Z+14, R18
        STD	Z+15, R19
// 4382     Appl_RS232_2.id_tek=Appl_RS232_2.id_buf;
        LDD	R18, Z+13
        STD	Z+16, R18
// 4383     Rs232_2.cnt_bt_rx_tx=Appl_RS232_2.ln_data_buf;
        LDI	R26, LOW(Rs232_2)
        LDI	R27, (Rs232_2) >> 8
        LDD	R18, Z+1
        LDD	R19, Z+2
        ST	X+, R18
        ST	X, R19
        SBIW	R27:R26, 1
// 4384     for(i=0;i<Rs232_2.cnt_bt_rx_tx;i++)Rs232_2_buf_rx_tx[i]=Appl_RS232_2_data_buf[i];
        LDI	R24, 0
        LDI	R25, 0
        RJMP	??monitor1_tx_rs232_2_4
??monitor1_tx_rs232_2_5:
        MOVW	R31:R30, R25:R24
        SUBI	R30, LOW((-(Appl_RS232_2_data_buf) & 0xFFFF))
        SBCI	R31, (-(Appl_RS232_2_data_buf) & 0xFFFF) >> 8
        LD	R18, Z
        MOVW	R31:R30, R25:R24
        SUBI	R30, LOW((-(Rs232_2_buf_rx_tx) & 0xFFFF))
        SBCI	R31, (-(Rs232_2_buf_rx_tx) & 0xFFFF) >> 8
        ST	Z, R18
        ADIW	R25:R24, 1
??monitor1_tx_rs232_2_4:
        LD	R18, X+
        LD	R19, X
        SBIW	R27:R26, 1
        CP	R24, R18
        CPC	R25, R19
        BRCS	??monitor1_tx_rs232_2_5
// 4385     Rs232_2.p_data485=&Rs232_2_buf_rx_tx[0];
        LDI	R18, LOW(Rs232_2_buf_rx_tx)
        LDI	R19, (Rs232_2_buf_rx_tx) >> 8
        MOVW	R31:R30, R27:R26
        STD	Z+16, R18
        STD	Z+17, R19
// 4386     //çäĺńü äîëćíŕ áűňü ôóíęöč˙ íŕńňđîéęč ďîđňŕ ďî ęîíňĺęńňó.
// 4387     
// 4388     if (run_cont_232_2(&Appl_RS232_2.cont_buf[0])==1)
        SUBI	R16, 251
        SBCI	R17, 255
        CALL	run_cont_232_2
        CPI	R16, 1
        BRNE	??monitor1_tx_rs232_2_6
// 4389        {
// 4390        fl_232_2.busy=0;
        LDI	R30, LOW(fl_232_2)
        LDI	R31, (fl_232_2) >> 8
        LD	R16, Z
        ANDI	R16, 0xFE
        ST	Z, R16
// 4391        fl_tx485.mon232_2=0;
        LDI	R30, LOW(Appl_RS485_1)
        LDI	R31, (Appl_RS485_1) >> 8
        LDD	R16, Z+58
        ANDI	R16, 0xFB
        STD	Z+58, R16
// 4392        return;
        RJMP	??monitor1_tx_rs232_2_0
// 4393        }
// 4394      
// 4395     S5_RD; 
??monitor1_tx_rs232_2_6:
        SBI	0x08, 0x06
        CBI	0x08, 0x07
// 4396     UCSR1B=UCSR1B & ~(RXCIE | RXEN); 
        LDS	R16, 201
        ANDI	R16, 0x6F
        STS	201, R16
// 4397     SET_RTS2;  //rts íŕ ďĺđĺäŕ÷ó
        LDS	R16, 258
        ANDI	R16, 0xFB
        STS	258, R16
??monitor1_tx_rs232_2_0:
        LDI	R30, 4
        JMP	?EPILOGUE_B4_L09
        CFI EndBlock cfiBlock47
// 4398      
// 4399     }
// 4400 }
// 4401 
// 4402 

        RSEG CODE:CODE:NOROOT(1)
// 4403 void monitor1_tm_rs232_2(void)
monitor1_tm_rs232_2:
        CFI Block cfiBlock48 Using cfiCommon0
        CFI Function monitor1_tm_rs232_2
// 4404   {
// 4405   if(fl_tx485.mon232_2==0)return;
// 4406   if(fl_ip.act_ip_end!=1)return; 
// 4407   if(fl_232_2.tm_out==0)return;
        FUNCALL monitor1_tm_rs232_2, clr_cntr_nat
        LOCFRAME RSTACK, 2, STACK
        FUNCALL monitor1_tm_rs232_2, clr_cntr_link
        LOCFRAME RSTACK, 2, STACK
        FUNCALL monitor1_tm_rs232_2, send_err485
        LOCFRAME RSTACK, 2, STACK
        LDI	R30, LOW(Appl_RS485_1)
        LDI	R31, (Appl_RS485_1) >> 8
        LDD	R16, Z+58
        SBRS	R16, 2
        RJMP	??monitor1_tm_rs232_2_0
        LDI	R30, LOW(fl_ip)
        LDI	R31, (fl_ip) >> 8
        LD	R16, Z
        SBRS	R16, 0
        RJMP	??monitor1_tm_rs232_2_0
        LDI	R30, LOW(fl_232_2)
        LDI	R31, (fl_232_2) >> 8
        LD	R16, Z
        SBRS	R16, 2
        RJMP	??monitor1_tm_rs232_2_0
// 4408    
// 4409   // __disable_interrupt();
// 4410   CLR_RTS2;
        LDS	R16, 258
        ORI	R16, 0x04
        STS	258, R16
// 4411   //__enable_interrupt();
// 4412   
// 4413   clr_cntr_nat();
        CALL	clr_cntr_nat
// 4414   clr_cntr_link();
        CALL	clr_cntr_link
// 4415   
// 4416   fl_232_2.tm_out=0; 
        LDI	R30, LOW(fl_232_2)
        LDI	R31, (fl_232_2) >> 8
        LD	R16, Z
        ANDI	R16, 0xFB
        ST	Z, R16
// 4417   if(PINE & DCD0) send_err485(NUM_RS232_2,RS_NO_LINK,Appl_RS232_2.id_tek,Appl_RS232_2.dst_tek);// čăíîđčđîâŕňü ďĺđĺäŕ÷ó ĺńëč íĺň GPRS ęŕíŕëŕ
        SBIS	0x0C, 0x06
        RJMP	??monitor1_tm_rs232_2_1
        LDI	R30, LOW(Appl_RS232_2)
        LDI	R31, (Appl_RS232_2) >> 8
        LDD	R20, Z+14
        LDD	R21, Z+15
        LDD	R18, Z+16
        LDI	R17, 1
        LDI	R16, 3
        CALL	send_err485
// 4418   fl_232_2.busy=0; 
??monitor1_tm_rs232_2_1:
        LDI	R30, LOW(fl_232_2)
        LDI	R31, (fl_232_2) >> 8
        LD	R16, Z
        ANDI	R16, 0xFE
        ST	Z, R16
// 4419   fl_tx485.mon232_2=0;
        LDI	R30, LOW(Appl_RS485_1)
        LDI	R31, (Appl_RS485_1) >> 8
        LDD	R16, Z+58
        ANDI	R16, 0xFB
        STD	Z+58, R16
// 4420   }
??monitor1_tm_rs232_2_0:
        RET
        CFI EndBlock cfiBlock48
// 4421 
// 4422 
// 4423 

        RSEG CODE:CODE:NOROOT(1)
// 4424 void monitor1_rec_rs232_2(void)
monitor1_rec_rs232_2:
        CFI Block cfiBlock49 Using cfiCommon0
        CFI Function monitor1_rec_rs232_2
// 4425   {
        FUNCALL monitor1_rec_rs232_2, clr_cntr_nat
        LOCFRAME CSTACK, 4, STACK
        LOCFRAME RSTACK, 2, STACK
        FUNCALL monitor1_rec_rs232_2, clr_cntr_link
        LOCFRAME CSTACK, 4, STACK
        LOCFRAME RSTACK, 2, STACK
        FUNCALL monitor1_rec_rs232_2, send_err485
        LOCFRAME CSTACK, 4, STACK
        LOCFRAME RSTACK, 2, STACK
        FUNCALL monitor1_rec_rs232_2, send_err485
        LOCFRAME CSTACK, 4, STACK
        LOCFRAME RSTACK, 2, STACK
        FUNCALL monitor1_rec_rs232_2, form_buf_tx_ppp
        LOCFRAME CSTACK, 4, STACK
        LOCFRAME RSTACK, 2, STACK
        FUNCALL monitor1_rec_rs232_2, check_cts
        LOCFRAME CSTACK, 4, STACK
        LOCFRAME RSTACK, 2, STACK
        CALL	?PROLOGUE4_L09
        CFI R27 Frame(CFA_Y, -1)
        CFI R26 Frame(CFA_Y, -2)
        CFI R25 Frame(CFA_Y, -3)
        CFI R24 Frame(CFA_Y, -4)
        CFI CFA_Y Y+4
// 4426   unsigned int i;
// 4427   if(fl_tx485.mon232_2==0)return;
// 4428   if(fl_ip.act_ip_end!=1)return; 
// 4429   if(fl_232_2.rec==0)return;
        LDI	R30, LOW(Appl_RS485_1)
        LDI	R31, (Appl_RS485_1) >> 8
        LDD	R16, Z+58
        SBRS	R16, 2
        RJMP	??monitor1_rec_rs232_2_0
        LDI	R30, LOW(fl_ip)
        LDI	R31, (fl_ip) >> 8
        LD	R16, Z
        SBRS	R16, 0
        RJMP	??monitor1_rec_rs232_2_0
        LDI	R30, LOW(fl_232_2)
        LDI	R31, (fl_232_2) >> 8
        LD	R16, Z
        SBRS	R16, 1
        RJMP	??monitor1_rec_rs232_2_0
// 4430 
// 4431   fl_232_2.rec=0;
        LD	R16, Z
        ANDI	R16, 0xFD
        ST	Z, R16
// 4432   
// 4433  // __disable_interrupt();
// 4434   CLR_RTS2;
        LDS	R16, 258
        ORI	R16, 0x04
        STS	258, R16
// 4435  // __enable_interrupt();
// 4436   
// 4437   clr_cntr_nat();
        CALL	clr_cntr_nat
// 4438   clr_cntr_link();
        CALL	clr_cntr_link
// 4439   
// 4440   
// 4441   if((PINE & DCD0)==0)
        SBIC	0x0C, 0x06
        RJMP	??monitor1_rec_rs232_2_1
// 4442   {
// 4443      fl_232_2.over=0;         // čăíîđčđîâŕňü ďĺđĺäŕ÷ó ĺńëč íĺň GPRS ęŕíŕëŕ
        LDI	R30, LOW(fl_232_2)
        LDI	R31, (fl_232_2) >> 8
        LD	R16, Z
        ANDI	R16, 0xEF
        ST	Z, R16
// 4444      Rs232_2.cnt_bt_rx_tx=0;
??monitor1_rec_rs232_2_2:
        LDI	R16, 0
        LDI	R30, LOW(Rs232_2)
        LDI	R31, (Rs232_2) >> 8
        ST	Z, R16
        STD	Z+1, R16
// 4445      fl_232_2.busy=0;
        LDI	R30, LOW(fl_232_2)
        LDI	R31, (fl_232_2) >> 8
        LD	R16, Z
        ANDI	R16, 0xFE
        ST	Z, R16
// 4446      fl_tx485.mon232_2=0; 
        LDI	R30, LOW(Appl_RS485_1)
        LDI	R31, (Appl_RS485_1) >> 8
        LDD	R16, Z+58
        ANDI	R16, 0xFB
        STD	Z+58, R16
// 4447      return; 
        RJMP	??monitor1_rec_rs232_2_0
// 4448   }
// 4449   
// 4450   
// 4451   
// 4452   if(fl_232_2.over==1)
??monitor1_rec_rs232_2_1:
        LDI	R16, LOW(Appl_RS232_2)
        LDI	R17, (Appl_RS232_2) >> 8
        LDI	R30, LOW(fl_232_2)
        LDI	R31, (fl_232_2) >> 8
        LD	R18, Z
        SBRS	R18, 4
        RJMP	??monitor1_rec_rs232_2_3
// 4453      {
// 4454      fl_232_2.over=0;
        LD	R18, Z
        ANDI	R18, 0xEF
        ST	Z, R18
// 4455      send_err485(NUM_RS232_2,RS_OVER_BUF_RX,Appl_RS232_2.id_tek,Appl_RS232_2.dst_tek);
        MOVW	R31:R30, R17:R16
        LDD	R20, Z+14
        LDD	R21, Z+15
        LDD	R18, Z+16
        LDI	R17, 4
        LDI	R16, 3
        CALL	send_err485
// 4456      Rs232_2.cnt_bt_rx_tx=0;
        RJMP	??monitor1_rec_rs232_2_2
// 4457      fl_232_2.busy=0;
// 4458      fl_tx485.mon232_2=0; 
// 4459      return; 
// 4460      }
// 4461     
// 4462     //!!!!!!!!!!!!!! çäĺńü áű íŕäî ďđîâĺđę íŕ äëčíó áóôĺđŕ äë˙ PPP
// 4463    if(Rs232_2.cnt_bt_rx_tx+100>VOL_TX_PPP)
??monitor1_rec_rs232_2_3:
        LDI	R30, LOW(Rs232_2)
        LDI	R31, (Rs232_2) >> 8
        LD	R18, Z
        LDD	R19, Z+1
        SUBI	R18, 156
        SBCI	R19, 255
        CPI	R18, 77
        LDI	R20, 4
        CPC	R19, R20
        BRCS	??monitor1_rec_rs232_2_4
// 4464       {
// 4465       send_err485(NUM_RS232_2,RS_OVER_BUF_PPP_TX,Appl_RS232_2.id_tek,Appl_RS232_2.dst_tek);
        MOVW	R31:R30, R17:R16
        LDD	R20, Z+14
        LDD	R21, Z+15
        LDD	R18, Z+16
        LDI	R17, 7
        LDI	R16, 3
        CALL	send_err485
// 4466       Rs232_2.cnt_bt_rx_tx=0;
        LDI	R16, 0
        LDI	R30, LOW(Rs232_2)
        LDI	R31, (Rs232_2) >> 8
        ST	Z, R16
        STD	Z+1, R16
// 4467       fl_232_2.busy=0;
        LDI	R30, LOW(fl_232_2)
        LDI	R31, (fl_232_2) >> 8
        LD	R16, Z
        ANDI	R16, 0xFE
        ST	Z, R16
// 4468       fl_tx485.mon232_2=0; 
        LDI	R30, LOW(Appl_RS485_1)
        LDI	R31, (Appl_RS485_1) >> 8
        LDD	R16, Z+58
        ANDI	R16, 0xFB
        STD	Z+58, R16
// 4469       return; 
        RJMP	??monitor1_rec_rs232_2_0
// 4470       }
// 4471     
// 4472   fl_ip.act_ip_end=0;
??monitor1_rec_rs232_2_4:
        LDI	R30, LOW(fl_ip)
        LDI	R31, (fl_ip) >> 8
        LD	R18, Z
        ANDI	R18, 0xFE
        ST	Z, R18
// 4473   
// 4474   Obj_ppp_tx.prozr=FALSE;            
        LDI	R30, LOW(Obj_ppp_tx)
        LDI	R31, (Obj_ppp_tx) >> 8
        LDI	R18, 0
        ST	Z, R18
// 4475   Obj_ppp_tx.version=VER2;      //âĺđńč˙ 
        LDI	R18, 2
        STD	Z+1, R18
// 4476   Obj_ppp_tx.type_pac=OTV;     //ňčď ďŕęĺňŕ
        LDI	R18, 1
        STD	Z+2, R18
// 4477   Obj_ppp_tx.num_src=num_self; // íîěĺđ îňďđŕâčňĺë˙
        LDI	R26, LOW((Appl_seq + 56))
        LDI	R27, HIGH((Appl_seq + 56))
        LD	R18, X+
        LD	R19, X
        STD	Z+3, R18
        STD	Z+4, R19
// 4478   Obj_ppp_tx.num_dst=Appl_RS232_2.dst_tek; // íîěĺđ ďîëó÷ŕňĺë˙
        MOVW	R27:R26, R17:R16
        ADIW	R27:R26, 14
        LD	R18, X+
        LD	R19, X
        STD	Z+5, R18
        STD	Z+6, R19
// 4479   Obj_ppp_tx.id_pac=Appl_RS232_2.id_tek; // čäĺíňčôčęŕňîđ ďŕęĺňŕ  
        MOVW	R27:R26, R17:R16
        ADIW	R27:R26, 16
        LD	R18, X
        STD	Z+7, R18
// 4480   Obj_ppp_tx.p_opt=&buf_opt_tr[0]; // //óęŕçŕňĺëü áóôĺđŕ îďöčé  
        SUBI	R16, 237
        SBCI	R17, 255
        STD	Z+8, R16
        STD	Z+9, R17
// 4481   Obj_ppp_tx.l_opt=0;// äëčíŕ áóôĺđŕ îďöčé   
        LDI	R16, 0
        STD	Z+10, R16
// 4482   Obj_ppp_tx.kol_opt=0;// ęîëč÷ĺńňâî îďöčé 
        STD	Z+11, R16
// 4483   
// 4484 
// 4485     buf_tx_232[TR_OP_DATA+C1_PROT]=PROT_C1;
        LDI	R24, LOW(buf_tx_232)
        LDI	R25, (buf_tx_232) >> 8
        LDI	R16, 1
        MOVW	R27:R26, R25:R24
        ADIW	R27:R26, 42
        ST	X, R16
// 4486     buf_tx_232[TR_OP_DATA+C1_PORT]=PORT232_2;
        LDI	R16, 3
        MOVW	R27:R26, R25:R24
        ADIW	R27:R26, 43
        ST	X, R16
// 4487    
// 4488    
// 4489 
// 4490     for(i=0;i<Rs232_2.cnt_bt_rx_tx;i++)buf_tx_232[TR_OP_DATA+C1_DATA+i]=Rs232_2_buf_rx_tx[i];
        LDI	R16, 0
        LDI	R17, 0
        RJMP	??monitor1_rec_rs232_2_5
??monitor1_rec_rs232_2_6:
        MOVW	R27:R26, R17:R16
        SUBI	R26, LOW((-(Rs232_2_buf_rx_tx) & 0xFFFF))
        SBCI	R27, (-(Rs232_2_buf_rx_tx) & 0xFFFF) >> 8
        LD	R18, X
        MOVW	R27:R26, R25:R24
        ADD	R26, R16
        ADC	R27, R17
        ADIW	R27:R26, 44
        ST	X, R18
        SUBI	R16, 255
        SBCI	R17, 255
??monitor1_rec_rs232_2_5:
        LDI	R26, LOW(Rs232_2)
        LDI	R27, (Rs232_2) >> 8
        LD	R18, X+
        LD	R19, X
        CP	R16, R18
        CPC	R17, R19
        BRCS	??monitor1_rec_rs232_2_6
// 4491     Obj_ppp_tx.l_data=2+Rs232_2.cnt_bt_rx_tx;   // äëčíŕ äŕííűő
        LDI	R26, LOW(Rs232_2)
        LDI	R27, (Rs232_2) >> 8
        LD	R16, X+
        LD	R17, X
        SUBI	R16, 254
        SBCI	R17, 255
        STD	Z+14, R16
        STD	Z+15, R17
// 4492     Obj_ppp_tx.p_data=&buf_tx_232[TR_OP_DATA+C1_PROT];  //óęŕçŕňĺëü áóôĺđŕ äŕííűő 
        MOVW	R17:R16, R25:R24
        SUBI	R16, 214
        SBCI	R17, 255
        STD	Z+12, R16
        STD	Z+13, R17
// 4493     Rs232_2.cnt_bt_rx_tx=0;
        LDI	R16, 0
        LDI	R30, LOW(Rs232_2)
        LDI	R31, (Rs232_2) >> 8
        ST	Z, R16
        STD	Z+1, R16
// 4494     
// 4495   form_buf_tx_ppp();                            
        CALL	form_buf_tx_ppp
// 4496   UCSR0A=UCSR0A | TXC;                            
        LDS	R16, 192
        ORI	R16, 0x40
        STS	192, R16
// 4497   UCSR0B=UCSR0B | TXEN;
        LDS	R16, 193
        ORI	R16, 0x08
        STS	193, R16
// 4498   UCSR0B=UCSR0B | TXCIE; 
        LDS	R16, 193
        ORI	R16, 0x40
        STS	193, R16
// 4499   fl_232_2.busy=0;
        LDI	R30, LOW(fl_232_2)
        LDI	R31, (fl_232_2) >> 8
        LD	R16, Z
        ANDI	R16, 0xFE
        ST	Z, R16
// 4500   fl_tx485.mon232_2=0;
        LDI	R30, LOW(Appl_RS485_1)
        LDI	R31, (Appl_RS485_1) >> 8
        LDD	R16, Z+58
        ANDI	R16, 0xFB
        STD	Z+58, R16
// 4501   if(check_cts()==1) return;                
        CALL	check_cts
        CPI	R16, 1
        BREQ	??monitor1_rec_rs232_2_0
// 4502   S2_RD;
        SBI	0x08, 0x00
        CBI	0x08, 0x01
// 4503   UDR0=buf_tx_232[0]; 
        MOVW	R31:R30, R25:R24
        LD	R16, Z
        STS	198, R16
// 4504   if(Regim==RG_DEBAG) UDR3=buf_tx_232[0];
        LDS	R16, Regim
        CPI	R16, 1
        BRNE	??monitor1_rec_rs232_2_0
        LD	R16, Z
        STS	310, R16
??monitor1_rec_rs232_2_0:
        LDI	R30, 4
        JMP	?EPILOGUE_B4_L09
        CFI EndBlock cfiBlock49
// 4505   return;     
// 4506   
// 4507   }
// 4508 
// 4509 
// 4510 ///EEEEEEEEEEEEEEEEEEEEEEEEEEEEEEEEEEEEEEEEEEEEEEEEEEEEEE!Đŕáîňŕ ń ďîđňîě RS232-2

        RSEG CODE:CODE:NOROOT(1)
// 4511 void control_temperatura(void)
control_temperatura:
        CFI Block cfiBlock50 Using cfiCommon0
        CFI Function control_temperatura
// 4512 {
// 4513 
// 4514   if(temperatura>T_MINUS10)SET_TEN;
        LDI	R30, LOW(temperatura)
        LDI	R31, (temperatura) >> 8
        LD	R16, Z
        LDD	R17, Z+1
        CPI	R16, 237
        LDI	R18, 2
        CPC	R17, R18
        BRCS	??control_temperatura_0
        LDS	R16, 261
        ORI	R16, 0x08
        STS	261, R16
// 4515   if(temperatura<T_MINUS5)CLR_TEN;
??control_temperatura_0:
        LD	R16, Z
        LDD	R17, Z+1
        CPI	R16, 193
        CPC	R17, R18
        BRCC	??control_temperatura_1
        LDS	R16, 261
        ANDI	R16, 0xF7
        STS	261, R16
// 4516 
// 4517 }
??control_temperatura_1:
        RET
        CFI EndBlock cfiBlock50
// 4518 

        RSEG CODE:CODE:NOROOT(1)
// 4519 void send_info(char size,char __flash *p,unsigned char fl_id,unsigned char id)
send_info:
        CFI Block cfiBlock51 Using cfiCommon0
        CFI Function send_info
// 4520 {
        FUNCALL send_info, burst_ds_r
        LOCFRAME CSTACK, 14, STACK
        LOCFRAME RSTACK, 2, STACK
        FUNCALL send_info, sprintf
        LOCFRAME CSTACK, 16, STACK
        LOCFRAME RSTACK, 2, STACK
        FUNCALL send_info, strlen
        LOCFRAME CSTACK, 14, STACK
        LOCFRAME RSTACK, 2, STACK
        FUNCALL send_info, mov_massiv
        LOCFRAME CSTACK, 14, STACK
        LOCFRAME RSTACK, 2, STACK
        FUNCALL send_info, s_port
        LOCFRAME CSTACK, 14, STACK
        LOCFRAME RSTACK, 2, STACK
        FUNCALL send_info, sprintf
        LOCFRAME CSTACK, 16, STACK
        LOCFRAME RSTACK, 2, STACK
        FUNCALL send_info, strlen
        LOCFRAME CSTACK, 14, STACK
        LOCFRAME RSTACK, 2, STACK
        FUNCALL send_info, mov_massiv
        LOCFRAME CSTACK, 14, STACK
        LOCFRAME RSTACK, 2, STACK
        FUNCALL send_info, s_port
        LOCFRAME CSTACK, 14, STACK
        LOCFRAME RSTACK, 2, STACK
        FUNCALL send_info, sprintf
        LOCFRAME CSTACK, 16, STACK
        LOCFRAME RSTACK, 2, STACK
        FUNCALL send_info, strlen
        LOCFRAME CSTACK, 14, STACK
        LOCFRAME RSTACK, 2, STACK
        FUNCALL send_info, mov_massiv
        LOCFRAME CSTACK, 14, STACK
        LOCFRAME RSTACK, 2, STACK
        FUNCALL send_info, s_port
        LOCFRAME CSTACK, 14, STACK
        LOCFRAME RSTACK, 2, STACK
        FUNCALL send_info, sprintf
        LOCFRAME CSTACK, 16, STACK
        LOCFRAME RSTACK, 2, STACK
        FUNCALL send_info, strlen
        LOCFRAME CSTACK, 14, STACK
        LOCFRAME RSTACK, 2, STACK
        FUNCALL send_info, mov_massiv
        LOCFRAME CSTACK, 14, STACK
        LOCFRAME RSTACK, 2, STACK
        FUNCALL send_info, s_port
        LOCFRAME CSTACK, 14, STACK
        LOCFRAME RSTACK, 2, STACK
        FUNCALL send_info, sprintf
        LOCFRAME CSTACK, 16, STACK
        LOCFRAME RSTACK, 2, STACK
        FUNCALL send_info, strlen
        LOCFRAME CSTACK, 14, STACK
        LOCFRAME RSTACK, 2, STACK
        FUNCALL send_info, mov_massiv
        LOCFRAME CSTACK, 14, STACK
        LOCFRAME RSTACK, 2, STACK
        FUNCALL send_info, s_port
        LOCFRAME CSTACK, 14, STACK
        LOCFRAME RSTACK, 2, STACK
        FUNCALL send_info, sprintf
        LOCFRAME CSTACK, 16, STACK
        LOCFRAME RSTACK, 2, STACK
        FUNCALL send_info, strlen
        LOCFRAME CSTACK, 14, STACK
        LOCFRAME RSTACK, 2, STACK
        FUNCALL send_info, mov_massiv
        LOCFRAME CSTACK, 14, STACK
        LOCFRAME RSTACK, 2, STACK
        FUNCALL send_info, s_port
        LOCFRAME CSTACK, 14, STACK
        LOCFRAME RSTACK, 2, STACK
        FUNCALL send_info, s_port
        LOCFRAME CSTACK, 14, STACK
        LOCFRAME RSTACK, 2, STACK
        FUNCALL send_info, s_port
        LOCFRAME CSTACK, 14, STACK
        LOCFRAME RSTACK, 2, STACK
        FUNCALL send_info, s_port
        LOCFRAME CSTACK, 14, STACK
        LOCFRAME RSTACK, 2, STACK
        FUNCALL send_info, s_port
        LOCFRAME CSTACK, 14, STACK
        LOCFRAME RSTACK, 2, STACK
        FUNCALL send_info, s_port
        LOCFRAME CSTACK, 14, STACK
        LOCFRAME RSTACK, 2, STACK
        FUNCALL send_info, sprintf
        LOCFRAME CSTACK, 16, STACK
        LOCFRAME RSTACK, 2, STACK
        FUNCALL send_info, strlen
        LOCFRAME CSTACK, 14, STACK
        LOCFRAME RSTACK, 2, STACK
        FUNCALL send_info, mov_massiv
        LOCFRAME CSTACK, 14, STACK
        LOCFRAME RSTACK, 2, STACK
        FUNCALL send_info, s_port
        LOCFRAME CSTACK, 14, STACK
        LOCFRAME RSTACK, 2, STACK
        FUNCALL send_info, s_port
        LOCFRAME CSTACK, 14, STACK
        LOCFRAME RSTACK, 2, STACK
        CALL	?PROLOGUE6_L09
        CFI R5 Frame(CFA_Y, -1)
        CFI R4 Frame(CFA_Y, -2)
        CFI R27 Frame(CFA_Y, -3)
        CFI R26 Frame(CFA_Y, -4)
        CFI R25 Frame(CFA_Y, -5)
        CFI R24 Frame(CFA_Y, -6)
        CFI CFA_Y Y+6
        REQUIRE	?Register_R4_is_cg_reg
        REQUIRE	?Register_R5_is_cg_reg
        SBIW	R29:R28, 6
        CFI CFA_Y Y+12
        MOV	R24, R16
        MOVW	R27:R26, R19:R18
        MOV	R25, R17
        MOV	R4, R20
// 4521 
// 4522   char massiv[6];
// 4523   
// 4524   if(Regim!=RG_DEBAG)return;
        LDS	R16, Regim
        CPI	R16, 1
        BREQ	$+2+2
        RJMP	??send_info_0
// 4525            burst_ds_r();
        CALL	burst_ds_r
// 4526            sprintf(massiv,"%d\0",real_time.r_date);
        LDI	R30, LOW(real_time)
        LDI	R31, (real_time) >> 8
        LDD	R16, Z+4
        LDI	R17, 0
        ST	-Y, R17
        CFI CFA_Y Y+13
        ST	-Y, R16
        CFI CFA_Y Y+14
        LDI	R18, LOW(`?<Constant "%d\\000">`)
        LDI	R19, (`?<Constant "%d\\000">`) >> 8
        MOVW	R17:R16, R29:R28
        SUBI	R16, 254
        SBCI	R17, 255
        CALL	sprintf
        ADIW	R29:R28, 2
        CFI CFA_Y Y+12
// 4527            mov_massiv(strlen(massiv),massiv);
        MOVW	R17:R16, R29:R28
        CALL	strlen
        MOVW	R19:R18, R29:R28
        CALL	mov_massiv
// 4528            s_port('.');
        LDI	R16, 46
        CALL	s_port
// 4529            sprintf(massiv,"%d\0",real_time.r_month);
        LDI	R30, LOW(real_time)
        LDI	R31, (real_time) >> 8
        LDD	R16, Z+5
        LDI	R17, 0
        ST	-Y, R17
        CFI CFA_Y Y+13
        ST	-Y, R16
        CFI CFA_Y Y+14
        LDI	R18, LOW(`?<Constant "%d\\000">`)
        LDI	R19, (`?<Constant "%d\\000">`) >> 8
        MOVW	R17:R16, R29:R28
        SUBI	R16, 254
        SBCI	R17, 255
        CALL	sprintf
        ADIW	R29:R28, 2
        CFI CFA_Y Y+12
// 4530            mov_massiv(strlen(massiv),massiv);
        MOVW	R17:R16, R29:R28
        CALL	strlen
        MOVW	R19:R18, R29:R28
        CALL	mov_massiv
// 4531            s_port('.');
        LDI	R16, 46
        CALL	s_port
// 4532            sprintf(massiv,"%d\0",real_time.r_year);
        LDI	R30, LOW(real_time)
        LDI	R31, (real_time) >> 8
        LDD	R16, Z+6
        LDI	R17, 0
        ST	-Y, R17
        CFI CFA_Y Y+13
        ST	-Y, R16
        CFI CFA_Y Y+14
        LDI	R18, LOW(`?<Constant "%d\\000">`)
        LDI	R19, (`?<Constant "%d\\000">`) >> 8
        MOVW	R17:R16, R29:R28
        SUBI	R16, 254
        SBCI	R17, 255
        CALL	sprintf
        ADIW	R29:R28, 2
        CFI CFA_Y Y+12
// 4533            mov_massiv(strlen(massiv),massiv);
        MOVW	R17:R16, R29:R28
        CALL	strlen
        MOVW	R19:R18, R29:R28
        CALL	mov_massiv
// 4534            s_port(' ');
        LDI	R16, 32
        CALL	s_port
// 4535            sprintf(massiv,"%d\0",real_time.r_hor);
        LDI	R30, LOW(real_time)
        LDI	R31, (real_time) >> 8
        LDD	R16, Z+2
        LDI	R17, 0
        ST	-Y, R17
        CFI CFA_Y Y+13
        ST	-Y, R16
        CFI CFA_Y Y+14
        LDI	R18, LOW(`?<Constant "%d\\000">`)
        LDI	R19, (`?<Constant "%d\\000">`) >> 8
        MOVW	R17:R16, R29:R28
        SUBI	R16, 254
        SBCI	R17, 255
        CALL	sprintf
        ADIW	R29:R28, 2
        CFI CFA_Y Y+12
// 4536            mov_massiv(strlen(massiv),massiv);
        MOVW	R17:R16, R29:R28
        CALL	strlen
        MOVW	R19:R18, R29:R28
        CALL	mov_massiv
// 4537            s_port(':');
        LDI	R16, 58
        CALL	s_port
// 4538            sprintf(massiv,"%d\0",real_time.r_min);
        LDI	R30, LOW(real_time)
        LDI	R31, (real_time) >> 8
        LDD	R16, Z+1
        LDI	R17, 0
        ST	-Y, R17
        CFI CFA_Y Y+13
        ST	-Y, R16
        CFI CFA_Y Y+14
        LDI	R18, LOW(`?<Constant "%d\\000">`)
        LDI	R19, (`?<Constant "%d\\000">`) >> 8
        MOVW	R17:R16, R29:R28
        SUBI	R16, 254
        SBCI	R17, 255
        CALL	sprintf
        ADIW	R29:R28, 2
        CFI CFA_Y Y+12
// 4539            mov_massiv(strlen(massiv),massiv);
        MOVW	R17:R16, R29:R28
        CALL	strlen
        MOVW	R19:R18, R29:R28
        CALL	mov_massiv
// 4540            s_port(':');
        LDI	R16, 58
        CALL	s_port
// 4541            sprintf(massiv,"%d\0",real_time.r_sec);
        LDI	R30, LOW(real_time)
        LDI	R31, (real_time) >> 8
        LD	R16, Z
        LDI	R17, 0
        ST	-Y, R17
        CFI CFA_Y Y+13
        ST	-Y, R16
        CFI CFA_Y Y+14
        LDI	R18, LOW(`?<Constant "%d\\000">`)
        LDI	R19, (`?<Constant "%d\\000">`) >> 8
        MOVW	R17:R16, R29:R28
        SUBI	R16, 254
        SBCI	R17, 255
        CALL	sprintf
        ADIW	R29:R28, 2
        CFI CFA_Y Y+12
// 4542            mov_massiv(strlen(massiv),massiv);
        MOVW	R17:R16, R29:R28
        CALL	strlen
        MOVW	R19:R18, R29:R28
        CALL	mov_massiv
// 4543            s_port(' ');
        LDI	R16, 32
        RJMP	??send_info_1
// 4544            
// 4545            while(size--) s_port(*p++);
??send_info_2:
        MOVW	R31:R30, R27:R26
        LPM	R16, Z+
        MOVW	R27:R26, R31:R30
??send_info_1:
        CALL	s_port
        MOV	R16, R24
        DEC	R24
        TST	R16
        BRNE	??send_info_2
// 4546            
// 4547            if(fl_id!=0)
        TST	R25
        BREQ	??send_info_3
// 4548            { 
// 4549              s_port(' ');
        LDI	R16, 32
        CALL	s_port
// 4550              s_port('I');
        LDI	R16, 73
        CALL	s_port
// 4551              s_port('D');
        LDI	R16, 68
        CALL	s_port
// 4552              s_port(':');
        LDI	R16, 58
        CALL	s_port
// 4553             
// 4554              sprintf(massiv,"%d\0",id);
        CLR	R5
        ST	-Y, R5
        CFI CFA_Y Y+13
        ST	-Y, R4
        CFI CFA_Y Y+14
        LDI	R18, LOW(`?<Constant "%d\\000">`)
        LDI	R19, (`?<Constant "%d\\000">`) >> 8
        MOVW	R17:R16, R29:R28
        SUBI	R16, 254
        SBCI	R17, 255
        CALL	sprintf
        ADIW	R29:R28, 2
        CFI CFA_Y Y+12
// 4555              mov_massiv(strlen(massiv),massiv);
        MOVW	R17:R16, R29:R28
        CALL	strlen
        MOVW	R19:R18, R29:R28
        CALL	mov_massiv
// 4556            }
// 4557            
// 4558            s_port(0x0d);
??send_info_3:
        LDI	R16, 13
        CALL	s_port
// 4559            s_port(0x0a);
        LDI	R16, 10
        CALL	s_port
// 4560 }
??send_info_0:
        ADIW	R29:R28, 6
        CFI CFA_Y Y+6
        LDI	R30, 6
        JMP	?EPILOGUE_B6_L09
        CFI EndBlock cfiBlock51

        ASEGN ABSOLUTE:DATA:NOROOT,01fH
__?EECR:

        ASEGN ABSOLUTE:DATA:NOROOT,020H
__?EEDR:

        ASEGN ABSOLUTE:DATA:NOROOT,021H
__?EEARL:

        ASEGN ABSOLUTE:DATA:NOROOT,022H
__?EEARH:

        RSEG NEAR_ID:CODE:NOROOT(0)
`?<Initializer for <Constant "%d\\000">>`:
        DB 25H, 64H, 0, 0

        RSEG INITTAB:CODE:NOROOT(0)
`?<Segment init: NEAR_I>`:
        DW	SFE(NEAR_I) - SFB(NEAR_I)
        DW	SFB(NEAR_I)
        DP	SFB(NEAR_ID)
        REQUIRE ?need_segment_init

        RSEG INITTAB:CODE:NOROOT(0)
`?<Segment init: NEAR_Z>`:
        DW	SFE(NEAR_Z) - SFB(NEAR_Z)
        DW	SFB(NEAR_Z)
        DP	0
        REQUIRE ?need_segment_init

        RSEG SWITCH:CODE:NOROOT(1)
`?<Jumptable for modem_engine>_0`:
        DB	1
        DB	0
        DW	(??modem_engine_1) /2
        DW	10
        DW	(??modem_engine_4) /2
        DW	(??modem_engine_6) /2
        DW	(??modem_engine_7) /2
        DW	(??modem_engine_10) /2
        DW	(??modem_engine_17) /2
        DW	(??modem_engine_19) /2
        DW	(??modem_engine_30) /2
        DW	(??modem_engine_39) /2
        DW	(??modem_engine_42) /2
        DW	(??modem_engine_45) /2

        RSEG SWITCH:CODE:NOROOT(1)
`?<Jumptable for proc_config>_0`:
        DB	1
        DB	1
        DW	(??proc_config_2) /2
        DW	(??proc_config_1) /2
        DB	0x1
        DW	(??proc_config_5) /2
        DB	0x1
        DW	(??proc_config_44) /2
        DB	0x1
        DW	(??proc_config_41) /2
        DB	0x1
        DW	(??proc_config_38) /2
        DB	0x1
        DW	(??proc_config_34) /2
        DB	0x1
        DW	(??proc_config_7) /2
        DB	0x1
        DW	(??proc_config_16) /2
        DB	0x1
        DW	(??proc_config_19) /2
        DB	0x1
        DW	(??proc_config_31) /2
        DB	0x1
        DW	(??proc_config_22) /2
        DB	0x1
        DW	(??proc_config_25) /2
        DB	0x1
        DW	(??proc_config_28) /2
        DB	0x1
        DW	(??proc_config_52) /2
        DB	0x1
        DW	(??proc_config_58) /2
        DB	0x2
        DW	(??proc_config_53) /2
        DB	0x1
        DW	(??proc_config_6) /2
        DB	0x1
        DW	(??proc_config_61) /2
        DB	0x1
        DW	(??proc_config_62) /2
        DB	0x1
        DW	(??proc_config_69) /2
        DB	0x1
        DW	(??proc_config_73) /2
        DB	0x1
        DW	(??proc_config_76) /2
        DB	0x1
        DW	(??proc_config_83) /2
        DB	0x67
        DW	(??proc_config_66) /2
        DB	251

        RSEG NEAR_I:DATA:NOROOT(0)
        REQUIRE `?<Segment init: NEAR_I>`
`?<Constant "%d\\000">`:
        DS 4
        REQUIRE `?<Initializer for <Constant "%d\\000">>`

        END
// 4561 
// 4562 
// 
//     28 bytes in segment ABSOLUTE
// 16 228 bytes in segment CODE
//      2 bytes in segment EEPROM_AN
//     14 bytes in segment INITTAB
//    799 bytes in segment NEAR_F
//      4 bytes in segment NEAR_I
//      4 bytes in segment NEAR_ID
//      1 byte  in segment NEAR_N
//  2 754 bytes in segment NEAR_Z
//    102 bytes in segment SWITCH
// 
// 17 133 bytes of CODE  memory (+ 14 bytes shared)
//  2 759 bytes of DATA  memory (+ 28 bytes shared)
//      0 bytes of XDATA memory (+  2 bytes shared)
//
//Errors: none
//Warnings: 3
