//////////////////////////////////////////////////////////////////////////////
//                                                                           /
//                                                     24/Oct/2025  13:27:51 /
// IAR Atmel AVR C/C++ Compiler V4.12A/W32, Evaluation Version               /
// Copyright 1996-2005 IAR Systems. All rights reserved.                     /
//                                                                           /
//    Source file  =  E:\sim800Elam2560_bootnew_i2cerr_a7682e\base1.c        /
//    Command line =  E:\sim800Elam2560_bootnew_i2cerr_a7682e\base1.c        /
//                    --cpu=m2560 -ms -o E:\sim800Elam2560_bootnew_i2cerr_a7 /
//                    682e\Debug\Obj\ -lCN E:\sim800Elam2560_bootnew_i2cerr_ /
//                    a7682e\Debug\List\ -lA E:\sim800Elam2560_bootnew_i2cer /
//                    r_a7682e\Debug\List\ -y --initializers_in_flash -z9    /
//                    --no_inline --no_tbaa --cross_call_passes=1 --debug    /
//                    -e -I "E:\box\IAR Systems\Embedded Workbench 4.0       /
//                    Evaluation\avr\INC\" -I "E:\box\IAR Systems\Embedded   /
//                    Workbench 4.0 Evaluation\avr\INC\DLIB\" --eeprom_size  /
//                    4096 --dlib_config "E:\box\IAR Systems\Embedded        /
//                    Workbench 4.0 Evaluation\avr\LIB\DLIB\dlAVR-5s-ec-n.h" /
//    List file    =  E:\sim800Elam2560_bootnew_i2cerr_a7682e\Debug\List\bas /
//                    e1.s90                                                 /
//                                                                           /
//                                                                           /
//////////////////////////////////////////////////////////////////////////////

        NAME base1

        RTMODEL "__64bit_doubles", "disabled"
        RTMODEL "__cpu", "5"
        RTMODEL "__cpu_name", "ATmega2560"
        RTMODEL "__dlib_file_descriptor", "0"
        RTMODEL "__enhanced_core", "enabled"
        RTMODEL "__has_elpm", "true"
        RTMODEL "__memory_model", "2"
        RTMODEL "__no_rampd", "enabled"
        RTMODEL "__rt_version", "3"

        RSEG CSTACK:DATA:NOROOT(0)
        RSEG RSTACK:DATA:NOROOT(0)

        EXTERN ?CV_SWITCH_L06
        EXTERN ?EPILOGUE_B16_L09
        EXTERN ?EPILOGUE_B3_L09
        EXTERN ?EPILOGUE_B4_L09
        EXTERN ?EPILOGUE_B5_L09
        EXTERN ?EPILOGUE_B6_L09
        EXTERN ?EPILOGUE_B8_L09
        EXTERN ?L_EC_MUL_L03
        EXTERN ?PROLOGUE16_L09
        EXTERN ?PROLOGUE3_L09
        EXTERN ?PROLOGUE4_L09
        EXTERN ?PROLOGUE5_L09
        EXTERN ?PROLOGUE6_L09
        EXTERN ?PROLOGUE8_L09
        EXTERN ?Register_R10_is_cg_reg
        EXTERN ?Register_R11_is_cg_reg
        EXTERN ?Register_R14_is_cg_reg
        EXTERN ?Register_R15_is_cg_reg
        EXTERN ?Register_R4_is_cg_reg
        EXTERN ?Register_R5_is_cg_reg
        EXTERN ?Register_R6_is_cg_reg
        EXTERN ?Register_R7_is_cg_reg
        EXTERN ?Register_R8_is_cg_reg
        EXTERN ?Register_R9_is_cg_reg
        EXTERN ?SS_DIVMOD_L02
        EXTERN ?S_EC_MUL_L02
        EXTERN ?S_SHL_L02
        EXTERN ?US_DIVMOD_L02
        EXTERN ?need_segment_init
        EXTERN __eeget8_16
        EXTERN __eeput8_16

        PUBWEAK `?<Segment init: NEAR_I>`
        PUBWEAK `?<Segment init: NEAR_Z>`
?Subroutine104 EQU 0
?Subroutine107 EQU 0
?Subroutine111 EQU 0
?Subroutine112 EQU 0
?Subroutine121 EQU 0
?Subroutine141 EQU 0
?Subroutine147 EQU 0
?Subroutine166 EQU 0
?Subroutine175 EQU 0
?Subroutine178 EQU 0
?Subroutine183 EQU 0
?Subroutine186 EQU 0
?Subroutine222 EQU 0
?Subroutine227 EQU 0
?Subroutine48 EQU 0
?Subroutine58 EQU 0
        PUBLIC Appl_RS232_2
        PUBLIC Appl_RS232_2_data_buf
        PUBLIC Appl_RS485_1
        PUBLIC Appl_RS485_1_data_buf
        PUBLIC Appl_RS485_2
        PUBLIC Appl_RS485_2_data_buf
        PUBLIC Appl_seq
        PUBLIC Appl_seq_buf
        PUBLIC Appl_seq_des
        PUBLIC Application_SEQ_tx
        FUNCTION Application_SEQ_tx,021203H
        LOCFRAME CSTACK, 14, STACK
        LOCFRAME RSTACK, 3, STACK
        PUBLIC Buf1_rx_ppp
        PUBLIC Buf2_rx_ppp
        PUBLIC Control
        PUBLIC Fl_ch_sim
        PUBWEAK _A_MCUSR
        PUBWEAK _A_PINE
        PUBWEAK _A_PINK
        PUBWEAK _A_PORTB
        PUBWEAK _A_PORTC
        PUBWEAK _A_PORTD
        PUBWEAK _A_PORTE
        PUBWEAK _A_PORTG
        PUBWEAK _A_PORTH
        PUBWEAK _A_PORTJ
        PUBWEAK _A_SREG
        PUBWEAK _A_UBRR0
        PUBWEAK _A_UBRR1
        PUBWEAK _A_UBRR2
        PUBWEAK _A_UBRR3
        PUBWEAK _A_UCSR0A
        PUBWEAK _A_UCSR0B
        PUBWEAK _A_UCSR1B
        PUBWEAK _A_UCSR1C
        PUBWEAK _A_UCSR2A
        PUBWEAK _A_UCSR2B
        PUBWEAK _A_UCSR2C
        PUBWEAK _A_UCSR3B
        PUBWEAK _A_UCSR3C
        PUBWEAK _A_UDR0
        PUBWEAK _A_UDR2
        PUBWEAK _A_UDR3
        PUBWEAK _A_WDTCSR
        PUBWEAK __?EEARH
        PUBWEAK __?EEARL
        PUBWEAK __?EECR
        PUBWEAK __?EEDR
        PUBLIC auchCRCHi
        PUBLIC auchCRCLo
        PUBLIC buf_opt_tr
        PUBLIC buf_tx_232
        PUBLIC check_cont_485_1
        FUNCTION check_cont_485_1,0203H
        LOCFRAME RSTACK, 3, STACK
        PUBLIC check_cts
        FUNCTION check_cts,0203H
        LOCFRAME RSTACK, 3, STACK
        PUBLIC check_ln_conf
        FUNCTION check_ln_conf,0203H
        LOCFRAME CSTACK, 4, STACK
        LOCFRAME RSTACK, 3, STACK
        PUBLIC check_wdt
        FUNCTION check_wdt,021203H
        LOCFRAME CSTACK, 4, STACK
        LOCFRAME RSTACK, 3, STACK
        PUBLIC clr_cntr_link
        FUNCTION clr_cntr_link,0203H
        LOCFRAME RSTACK, 3, STACK
        PUBLIC clr_cntr_link_2
        FUNCTION clr_cntr_link_2,0203H
        LOCFRAME RSTACK, 3, STACK
        PUBLIC clr_cntr_nat
        FUNCTION clr_cntr_nat,0203H
        LOCFRAME RSTACK, 3, STACK
        PUBLIC clr_var_ppp
        FUNCTION clr_var_ppp,0203H
        LOCFRAME RSTACK, 3, STACK
        PUBLIC clr_var_ppp_rx
        FUNCTION clr_var_ppp_rx,0203H
        LOCFRAME RSTACK, 3, STACK
        PUBLIC cnt_cts_off
        PUBLIC cnt_incom
        PUBLIC cnt_key_off
        PUBLIC cnt_link_res
        PUBLIC cnt_no_link
        PUBLIC cnt_outcom
        PUBLIC cnt_stm_tm1
        PUBLIC cnt_stm_tm2
        PUBLIC cnt_tii
        PUBLIC command_AT
        PUBLIC control_temperatura
        FUNCTION control_temperatura,0203H
        LOCFRAME RSTACK, 3, STACK
        PUBLIC count_ppp_down
        PUBLIC count_summa_temperatura
        PUBLIC count_tx_ppp
        PUBLIC crc_485
        FUNCTION crc_485,0203H
        LOCFRAME RSTACK, 3, STACK
        PUBLIC crc_m1
        FUNCTION crc_m1,0203H
        LOCFRAME RSTACK, 3, STACK
        PUBLIC crc_ozu
        FUNCTION crc_ozu,0203H
        LOCFRAME CSTACK, 2, STACK
        LOCFRAME RSTACK, 3, STACK
        PUBLIC crc_tii
        PUBLIC delay
        FUNCTION delay,0203H
        LOCFRAME RSTACK, 3, STACK
        PUBLIC delay_on_contr
        FUNCTION delay_on_contr,021203H
        LOCFRAME CSTACK, 1, STACK
        LOCFRAME RSTACK, 3, STACK
        PUBWEAK e_rw_pdp
        PUBWEAK e_rw_pdp_r
        PUBLIC evc_alarm
        PUBLIC evc_bod
        PUBLIC evc_pwr
        PUBLIC evc_rst
        PUBLIC evc_state
        PUBLIC evc_taken
        PUBLIC evc_ts1
        PUBLIC evc_ts2
        PUBLIC evc_wdr
        PUBLIC event_modem
        PUBLIC evm_at_err
        PUBLIC evm_at_ok
        PUBLIC evm_ch_sim
        PUBLIC evm_cts_err
        PUBLIC evm_dcd_err
        PUBLIC evm_no_rec
        PUBLIC evm_ppp_err
        PUBLIC evm_ppp_ok
        PUBLIC evm_tm
        PUBLIC fl_appl_seq
        PUBLIC fl_appl_seq1
        PUBLIC fl_cts_232
        PUBLIC fl_cts_232_ignor
        PUBLIC fl_reg3
        PUBLIC fl_truffic
        PUBLIC fl_tx485
        PUBLIC fl_wdt
        PUBLIC form_buf_tx_ppp
        FUNCTION form_buf_tx_ppp,021203H
        LOCFRAME CSTACK, 10, STACK
        LOCFRAME RSTACK, 6, STACK
        PUBLIC func_crc_tii
        FUNCTION func_crc_tii,0203H
        LOCFRAME RSTACK, 3, STACK
        PUBLIC ip_ls
        PUBLIC ip_self
        PUBLIC layer_PPP
        PUBLIC load_par_first_flash
        FUNCTION load_par_first_flash,021203H
        LOCFRAME CSTACK, 8, STACK
        LOCFRAME RSTACK, 3, STACK
        PUBLIC load_par_from_memory
        FUNCTION load_par_from_memory,021203H
        LOCFRAME CSTACK, 28, STACK
        LOCFRAME RSTACK, 6, STACK
        PUBLIC load_rw_pdp
        FUNCTION load_rw_pdp,021203H
        LOCFRAME CSTACK, 78, STACK
        LOCFRAME RSTACK, 6, STACK
        PUBLIC load_rw_pdp_r
        FUNCTION load_rw_pdp_r,021203H
        LOCFRAME CSTACK, 78, STACK
        LOCFRAME RSTACK, 6, STACK
        PUBLIC load_sel_modul
        FUNCTION load_sel_modul,021203H
        LOCFRAME RSTACK, 3, STACK
        PUBLIC lock_it
        FUNCTION lock_it,0203H
        LOCFRAME RSTACK, 3, STACK
        PUBLIC long_delay
        FUNCTION long_delay,0203H
        LOCFRAME RSTACK, 3, STACK
        PUBLIC modem_engine
        FUNCTION modem_engine,021203H
        LOCFRAME CSTACK, 2, STACK
        LOCFRAME RSTACK, 3, STACK
        PUBLIC monitor1_rec_rs232_2
        FUNCTION monitor1_rec_rs232_2,021203H
        LOCFRAME CSTACK, 4, STACK
        LOCFRAME RSTACK, 3, STACK
        PUBLIC monitor1_rec_rs485_1
        FUNCTION monitor1_rec_rs485_1,021203H
        LOCFRAME CSTACK, 4, STACK
        LOCFRAME RSTACK, 3, STACK
        PUBLIC monitor1_rec_rs485_2
        FUNCTION monitor1_rec_rs485_2,021203H
        LOCFRAME CSTACK, 4, STACK
        LOCFRAME RSTACK, 3, STACK
        PUBLIC monitor1_tm_rs232_2
        FUNCTION monitor1_tm_rs232_2,021203H
        LOCFRAME RSTACK, 3, STACK
        PUBLIC monitor1_tm_rs485_1
        FUNCTION monitor1_tm_rs485_1,021203H
        LOCFRAME CSTACK, 2, STACK
        LOCFRAME RSTACK, 3, STACK
        PUBLIC monitor1_tm_rs485_2
        FUNCTION monitor1_tm_rs485_2,021203H
        LOCFRAME CSTACK, 2, STACK
        LOCFRAME RSTACK, 3, STACK
        PUBLIC monitor1_tx_rs232_2
        FUNCTION monitor1_tx_rs232_2,021203H
        LOCFRAME CSTACK, 4, STACK
        LOCFRAME RSTACK, 3, STACK
        PUBLIC monitor1_tx_rs485_1
        FUNCTION monitor1_tx_rs485_1,021203H
        LOCFRAME CSTACK, 4, STACK
        LOCFRAME RSTACK, 3, STACK
        PUBLIC monitor1_tx_rs485_2
        FUNCTION monitor1_tx_rs485_2,021203H
        LOCFRAME CSTACK, 4, STACK
        LOCFRAME RSTACK, 3, STACK
        PUBLIC monitor_beg_state_seq
        FUNCTION monitor_beg_state_seq,021203H
        LOCFRAME CSTACK, 26, STACK
        LOCFRAME RSTACK, 6, STACK
        PUBLIC monitor_change_state
        FUNCTION monitor_change_state,021203H
        LOCFRAME CSTACK, 23, STACK
        LOCFRAME RSTACK, 3, STACK
        PUBLIC monitor_cntr_ch
        FUNCTION monitor_cntr_ch,021203H
        LOCFRAME CSTACK, 2, STACK
        LOCFRAME RSTACK, 3, STACK
        PUBLIC monitor_cntr_cl_seq
        FUNCTION monitor_cntr_cl_seq,021203H
        LOCFRAME CSTACK, 4, STACK
        LOCFRAME RSTACK, 3, STACK
        PUBLIC monitor_cntr_nat
        FUNCTION monitor_cntr_nat,021203H
        LOCFRAME CSTACK, 1, STACK
        LOCFRAME RSTACK, 3, STACK
        PUBLIC monitor_rst
        FUNCTION monitor_rst,021203H
        LOCFRAME CSTACK, 25, STACK
        LOCFRAME RSTACK, 3, STACK
        PUBLIC monitor_wr_truffic
        FUNCTION monitor_wr_truffic,021203H
        LOCFRAME CSTACK, 16, STACK
        LOCFRAME RSTACK, 3, STACK
        PUBLIC mov_buf
        FUNCTION mov_buf,021203H
        LOCFRAME CSTACK, 4, STACK
        LOCFRAME RSTACK, 3, STACK
        PUBLIC mov_lf
        FUNCTION mov_lf,021203H
        LOCFRAME RSTACK, 3, STACK
        PUBLIC mov_s
        FUNCTION mov_s,021203H
        LOCFRAME CSTACK, 3, STACK
        LOCFRAME RSTACK, 3, STACK
        PUBLIC msg_ctrl_ch
        PUBLIC msg_ctrl_nat
        PUBLIC msg_evc
        PUBLIC num_self
        PUBLIC num_seq_cl
        PUBLIC port_udp
        PUBLIC proc_config
        FUNCTION proc_config,021203H
        LOCFRAME CSTACK, 43, STACK
        LOCFRAME RSTACK, 6, STACK
        PUBLIC proc_temp_to_grad
        FUNCTION proc_temp_to_grad,0203H
        LOCFRAME CSTACK, 4, STACK
        LOCFRAME RSTACK, 6, STACK
        PUBLIC prov_ozu
        PUBLIC req_out_ctrl_cl
        PUBLIC run_cont_232_2
        FUNCTION run_cont_232_2,0203H
        LOCFRAME CSTACK, 4, STACK
        LOCFRAME RSTACK, 3, STACK
        PUBLIC run_cont_485_1
        FUNCTION run_cont_485_1,0203H
        LOCFRAME CSTACK, 4, STACK
        LOCFRAME RSTACK, 3, STACK
        PUBLIC run_cont_485_2
        FUNCTION run_cont_485_2,0203H
        LOCFRAME CSTACK, 4, STACK
        LOCFRAME RSTACK, 3, STACK
        PUBLIC s_port
        FUNCTION s_port,0203H
        LOCFRAME RSTACK, 3, STACK
        PUBLIC sel_modul
        PUBLIC send_err485
        FUNCTION send_err485,021203H
        LOCFRAME CSTACK, 5, STACK
        LOCFRAME RSTACK, 3, STACK
        PUBLIC send_info
        FUNCTION send_info,021203H
        LOCFRAME CSTACK, 16, STACK
        LOCFRAME RSTACK, 3, STACK
        PUBLIC simka
        PUBLIC start_func_stm_koff
        FUNCTION start_func_stm_koff,021203H
        LOCFRAME RSTACK, 3, STACK
        PUBLIC start_func_stm_kon
        FUNCTION start_func_stm_kon,0203H
        LOCFRAME RSTACK, 3, STACK
        PUBLIC start_func_stm_off
        FUNCTION start_func_stm_off,021203H
        LOCFRAME RSTACK, 3, STACK
        PUBLIC start_func_stm_on
        FUNCTION start_func_stm_on,021203H
        LOCFRAME CSTACK, 2, STACK
        LOCFRAME RSTACK, 3, STACK
        PUBLIC start_func_stm_pwk
        FUNCTION start_func_stm_pwk,021203H
        LOCFRAME RSTACK, 3, STACK
        PUBLIC start_func_stm_scp
        FUNCTION start_func_stm_scp,021203H
        LOCFRAME CSTACK, 2, STACK
        LOCFRAME RSTACK, 3, STACK
        PUBLIC state_modem
        PUBLIC state_seq
        PUBLIC stm_base_sim
        PUBLIC stm_ppp
        PUBLIC stm_pwr_koff
        PUBLIC stm_pwr_kon
        PUBLIC stm_pwr_off
        PUBLIC stm_pwr_on
        PUBLIC stm_rdc
        PUBLIC stm_res_sim
        PUBLIC stm_sc
        PUBLIC stm_scp
        PUBLIC stm_si
        PUBLIC summa_temperatura
        PUBLIC sv1
        PUBLIC sv2
        PUBLIC tab_crc
        PUBLIC temp_to_grad
        FUNCTION temp_to_grad,021203H
        LOCFRAME RSTACK, 3, STACK
        PUBLIC temperatura
        PUBLIC time_cnt_ch_time
        PUBLIC unix
        PUBLIC vol_cnt_link_res
        PUBLIC vol_cnt_no_link
        PUBLIC vol_tx_ppp
        
        CFI Names cfiNames0
        CFI StackFrame CFA_Y Y DATA
        CFI StackFrame CFA_SP SP DATA
        CFI VirtualResource ?RetPad:1, ?RetByte3:8, ?RetHigh:8, ?RetLow:8
        CFI VirtualResource ?Ret:25
        CFI Resource R0:8, R1:8, R2:8, R3:8, R4:8, R5:8, R6:8, R7:8, R8:8, R9:8
        CFI Resource R10:8, R11:8, R12:8, R13:8, R14:8, R15:8, R16:8, R17:8
        CFI Resource R18:8, R19:8, R20:8, R21:8, R22:8, R23:8, R24:8, R25:8
        CFI Resource R26:8, R27:8, R28:8, R29:8, R30:8, R31:8
        CFI Resource ?RetHighByteMask:8, SP:16, SPH:8, SPL:8, Y:16
        CFI ResourceParts ?Ret ?RetByte3, ?RetHigh, ?RetLow, ?RetPad
        CFI ResourceParts SP SPH, SPL
        CFI ResourceParts Y R29, R28
        CFI EndNames cfiNames0
        
        CFI Common cfiCommon0 Using cfiNames0
        CFI CodeAlign 1
        CFI DataAlign 1
        CFI ReturnAddress ?Ret CODE
        CFI CFA_Y Y+0
        CFI CFA_SP SP+3
        CFI ?RetPad 0
        CFI ?RetByte3 and(load(1, DATA, sub(CFA_SP, 2)), ?RetHighByteMask)
        CFI ?RetHigh Frame(CFA_SP, -1)
        CFI ?RetLow Frame(CFA_SP, 0)
        CFI ?Ret Concat
        CFI R0 Undefined
        CFI R1 Undefined
        CFI R2 Undefined
        CFI R3 Undefined
        CFI R4 SameValue
        CFI R5 SameValue
        CFI R6 SameValue
        CFI R7 SameValue
        CFI R8 SameValue
        CFI R9 SameValue
        CFI R10 SameValue
        CFI R11 SameValue
        CFI R12 SameValue
        CFI R13 SameValue
        CFI R14 SameValue
        CFI R15 SameValue
        CFI R16 Undefined
        CFI R17 Undefined
        CFI R18 Undefined
        CFI R19 Undefined
        CFI R20 Undefined
        CFI R21 Undefined
        CFI R22 Undefined
        CFI R23 Undefined
        CFI R24 SameValue
        CFI R25 SameValue
        CFI R26 SameValue
        CFI R27 SameValue
        CFI R28 Undefined
        CFI R29 Undefined
        CFI R30 Undefined
        CFI R31 Undefined
        CFI ?RetHighByteMask SameValue
        CFI SPH Undefined
        CFI SPL Undefined
        CFI EndCommon cfiCommon0
        
        
        CFI Common cfiCommon1 Using cfiNames0
        CFI CodeAlign 1
        CFI DataAlign 1
        CFI ReturnAddress ?Ret CODE
        CFI CFA_Y Notused
        CFI CFA_SP SP+3
        CFI ?RetPad 0
        CFI ?RetByte3 and(load(1, DATA, sub(CFA_SP, 2)), ?RetHighByteMask)
        CFI ?RetHigh Frame(CFA_SP, -1)
        CFI ?RetLow Frame(CFA_SP, 0)
        CFI ?Ret Concat
        CFI R0 SameValue
        CFI R1 SameValue
        CFI R2 SameValue
        CFI R3 SameValue
        CFI R4 SameValue
        CFI R5 SameValue
        CFI R6 SameValue
        CFI R7 SameValue
        CFI R8 SameValue
        CFI R9 SameValue
        CFI R10 SameValue
        CFI R11 SameValue
        CFI R12 SameValue
        CFI R13 SameValue
        CFI R14 SameValue
        CFI R15 SameValue
        CFI R16 SameValue
        CFI R17 SameValue
        CFI R18 SameValue
        CFI R19 SameValue
        CFI R20 SameValue
        CFI R21 SameValue
        CFI R22 SameValue
        CFI R23 SameValue
        CFI R24 SameValue
        CFI R25 SameValue
        CFI R26 SameValue
        CFI R27 SameValue
        CFI R28 Undefined
        CFI R29 Undefined
        CFI R30 SameValue
        CFI R31 SameValue
        CFI ?RetHighByteMask SameValue
        CFI SPH Undefined
        CFI SPL Undefined
        CFI Y SameValue
        CFI EndCommon cfiCommon1
        
        EXTERN RdFromFleshToArr
        FUNCTION RdFromFleshToArr,0202H
        EXTERN strlen
        FUNCTION strlen,010202H
        EXTERN WrArrayToFlesh
        FUNCTION WrArrayToFlesh,0202H
        EXTERN RdFromFleshToArrInt
        FUNCTION RdFromFleshToArrInt,0202H
        EXTERN WrArrayToFleshInt
        FUNCTION WrArrayToFleshInt,0202H
        EXTERN burst_ds_r
        FUNCTION burst_ds_r,0202H
        EXTERN crc_sum
        FUNCTION crc_sum,0202H
        EXTERN write_log_info
        FUNCTION write_log_info,0202H
        EXTERN init_pins_out_to_hiz
        FUNCTION init_pins_out_to_hiz,0202H
        EXTERN kodirovka
        FUNCTION kodirovka,0202H
        EXTERN calc_crc_ip
        FUNCTION calc_crc_ip,0202H
        EXTERN calc_crc_udp_2
        FUNCTION calc_crc_udp_2,0202H
        EXTERN pppfcs16
        FUNCTION pppfcs16,0202H
        EXTERN write_to_buf
        FUNCTION write_to_buf,0202H
        EXTERN read_from_buf
        FUNCTION read_from_buf,0202H
        EXTERN supervisorwdt
        FUNCTION supervisorwdt,0202H
        EXTERN energy_plus
        FUNCTION energy_plus,0202H
        EXTERN control_ts
        FUNCTION control_ts,0202H
        EXTERN ds_handler
        FUNCTION ds_handler,0202H
        EXTERN monitori
        FUNCTION monitori,0202H
        EXTERN init_pins_hiz_to_out
        FUNCTION init_pins_hiz_to_out,0202H
        EXTERN init_scen_stm_si
        FUNCTION init_scen_stm_si,0202H
        EXTERN at_com_tx
        FUNCTION at_com_tx,0202H
        EXTERN at_com_rx
        FUNCTION at_com_rx,0202H
        EXTERN at_com_scen_init
        FUNCTION at_com_scen_init,0202H
        EXTERN init_scen_stm_sc
        FUNCTION init_scen_stm_sc,0202H
        EXTERN at_com_scen_stm_sc
        FUNCTION at_com_scen_stm_sc,0202H
        EXTERN analiz_ppp_rx
        FUNCTION analiz_ppp_rx,0202H
        EXTERN monitor_event_LCP
        FUNCTION monitor_event_LCP,0202H
        EXTERN monitor_act_LCP
        FUNCTION monitor_act_LCP,0202H
        EXTERN monitor_event_PAP
        FUNCTION monitor_event_PAP,0202H
        EXTERN monitor_act_PAP
        FUNCTION monitor_act_PAP,0202H
        EXTERN monitor_event_IPCP
        FUNCTION monitor_event_IPCP,0202H
        EXTERN monitor_act_IPCP
        FUNCTION monitor_act_IPCP,0202H
        EXTERN send_terminate_lcp
        FUNCTION send_terminate_lcp,0202H
        EXTERN init_scen_stm_dc_1
        FUNCTION init_scen_stm_dc_1,0202H
        EXTERN at_com_scen_stm_dc_1
        FUNCTION at_com_scen_stm_dc_1,0202H
        EXTERN ret_version
        FUNCTION ret_version,0202H
        EXTERN set_rlt
        FUNCTION set_rlt,0202H
        EXTERN sprintf
        FUNCTION sprintf,010202H
        EXTERN mov_massiv
        FUNCTION mov_massiv,0202H
        EXTERN IPCP_event
        EXTERN LCP_event
        EXTERN LCP_state
        EXTERN Obj_ppp_tx
        EXTERN PAP_event
        EXTERN Regim
        EXTERN Rs232_2
        EXTERN Rs232_2_buf_rx_tx
        EXTERN Rs485_1
        EXTERN Rs485_1_buf_rx_tx
        EXTERN Rs485_2
        EXTERN Rs485_2_buf_rx_tx
        EXTERN bit_level
        EXTERN c1_byte
        EXTERN c2_byte
        EXTERN c_config_tc
        EXTERN cnt_com
        EXTERN cnt_ip_tm_cntr
        EXTERN cnt_ipcp_tm_out
        EXTERN cnt_lcp_tm_out
        EXTERN cnt_pap_tm_out
        EXTERN cnt_rst_ipcp
        EXTERN cnt_rst_lcp
        EXTERN cnt_rst_pap
        EXTERN compress_off
        EXTERN fl_232_2
        EXTERN fl_485_1
        EXTERN fl_485_2
        EXTERN fl_ip
        EXTERN fl_ipcp
        EXTERN fl_ipcp1
        EXTERN fl_ipcp2
        EXTERN fl_lcp
        EXTERN fl_lcp1
        EXTERN fl_lcp2
        EXTERN fl_pap
        EXTERN fl_rewrite
        EXTERN fl_rx_ppp
        EXTERN i_scan_ipcp
        EXTERN i_scan_lcp
        EXTERN i_scj_ipcp
        EXTERN i_scj_lcp
        EXTERN i_scr_ipcp
        EXTERN i_scr_lcp
        EXTERN i_scr_pap
        EXTERN i_sta_ipcp
        EXTERN i_sta_lcp
        EXTERN i_str_ipcp
        EXTERN i_str_lcp
        EXTERN ip_change
        EXTERN keys
        EXTERN modbus_mem1
        EXTERN rcvd_protokol
        EXTERN real_time
        EXTERN rep
        EXTERN state_led_md
        EXTERN str_tc2
        EXTERN str_tc3
        EXTERN str_tc4
        EXTERN str_tc5
        EXTERN str_tc6
        EXTERN str_tc7
        EXTERN str_tc8
        EXTERN struct_tcc1
        EXTERN struct_tcc2
        EXTERN uk_in_act_IPCP
        EXTERN uk_in_act_LCP
        EXTERN uk_out_act_IPCP
        EXTERN uk_out_act_LCP
        EXTERN ust_vhod

// E:\sim800Elam2560_bootnew_i2cerr_a7682e\base1.c
//    1 #include <iom2560.h> 

        ASEGN ABSOLUTE:DATA:NOROOT,0136H
// union <unnamed> volatile __ext_io _A_UDR3
_A_UDR3:
        DS 1

        ASEGN ABSOLUTE:DATA:NOROOT,0134H
// union <unnamed> volatile __ext_io _A_UBRR3
_A_UBRR3:
        DS 2

        ASEGN ABSOLUTE:DATA:NOROOT,0132H
// union <unnamed> volatile __ext_io _A_UCSR3C
_A_UCSR3C:
        DS 1

        ASEGN ABSOLUTE:DATA:NOROOT,0131H
// union <unnamed> volatile __ext_io _A_UCSR3B
_A_UCSR3B:
        DS 1

        ASEGN ABSOLUTE:DATA:NOROOT,0106H
// union <unnamed> volatile __ext_io _A_PINK
_A_PINK:
        DS 1

        ASEGN ABSOLUTE:DATA:NOROOT,0105H
// union <unnamed> volatile __ext_io _A_PORTJ
_A_PORTJ:
        DS 1

        ASEGN ABSOLUTE:DATA:NOROOT,0102H
// union <unnamed> volatile __ext_io _A_PORTH
_A_PORTH:
        DS 1

        ASEGN ABSOLUTE:DATA:NOROOT,0d6H
// union <unnamed> volatile __io _A_UDR2
_A_UDR2:
        DS 1

        ASEGN ABSOLUTE:DATA:NOROOT,0d4H
// union <unnamed> volatile __io _A_UBRR2
_A_UBRR2:
        DS 2

        ASEGN ABSOLUTE:DATA:NOROOT,0d2H
// union <unnamed> volatile __io _A_UCSR2C
_A_UCSR2C:
        DS 1

        ASEGN ABSOLUTE:DATA:NOROOT,0d1H
// union <unnamed> volatile __io _A_UCSR2B
_A_UCSR2B:
        DS 1

        ASEGN ABSOLUTE:DATA:NOROOT,0d0H
// union <unnamed> volatile __io _A_UCSR2A
_A_UCSR2A:
        DS 1

        ASEGN ABSOLUTE:DATA:NOROOT,0ccH
// union <unnamed> volatile __io _A_UBRR1
_A_UBRR1:
        DS 2

        ASEGN ABSOLUTE:DATA:NOROOT,0caH
// union <unnamed> volatile __io _A_UCSR1C
_A_UCSR1C:
        DS 1

        ASEGN ABSOLUTE:DATA:NOROOT,0c9H
// union <unnamed> volatile __io _A_UCSR1B
_A_UCSR1B:
        DS 1

        ASEGN ABSOLUTE:DATA:NOROOT,0c6H
// union <unnamed> volatile __io _A_UDR0
_A_UDR0:
        DS 1

        ASEGN ABSOLUTE:DATA:NOROOT,0c4H
// union <unnamed> volatile __io _A_UBRR0
_A_UBRR0:
        DS 2

        ASEGN ABSOLUTE:DATA:NOROOT,0c1H
// union <unnamed> volatile __io _A_UCSR0B
_A_UCSR0B:
        DS 1

        ASEGN ABSOLUTE:DATA:NOROOT,0c0H
// union <unnamed> volatile __io _A_UCSR0A
_A_UCSR0A:
        DS 1

        ASEGN ABSOLUTE:DATA:NOROOT,060H
// union <unnamed> volatile __io _A_WDTCSR
_A_WDTCSR:
        DS 1

        ASEGN ABSOLUTE:DATA:NOROOT,05fH
// union <unnamed> volatile __io _A_SREG
_A_SREG:
        DS 1

        ASEGN ABSOLUTE:DATA:NOROOT,054H
// union <unnamed> volatile __io _A_MCUSR
_A_MCUSR:
        DS 1

        ASEGN ABSOLUTE:DATA:NOROOT,034H
// union <unnamed> volatile __io _A_PORTG
_A_PORTG:
        DS 1

        ASEGN ABSOLUTE:DATA:NOROOT,02eH
// union <unnamed> volatile __io _A_PORTE
_A_PORTE:
        DS 1

        ASEGN ABSOLUTE:DATA:NOROOT,02cH
// union <unnamed> volatile __io _A_PINE
_A_PINE:
        DS 1

        ASEGN ABSOLUTE:DATA:NOROOT,02bH
// union <unnamed> volatile __io _A_PORTD
_A_PORTD:
        DS 1

        ASEGN ABSOLUTE:DATA:NOROOT,028H
// union <unnamed> volatile __io _A_PORTC
_A_PORTC:
        DS 1

        ASEGN ABSOLUTE:DATA:NOROOT,025H
// union <unnamed> volatile __io _A_PORTB
_A_PORTB:
        DS 1
//    2 #include <inavr.h> 
//    3 #include "dfpin.h"
//    4 #include "dfproc.h"
//    5 #include "def_prot.h"
//    6 #include "def_conf.h"
//    7 #include "map_ef.h"
//    8 #include "map_ad.h"
//    9 #include "ozu_map.h"
//   10 #include "def_at.h"
//   11 #include "def_log.h"
//   12 #include "def_link.h"
//   13 #include "dfcnst.h"
//   14 #include <string.h>
//   15 #include "sec.h"
//   16 #include <stdio.h>
//   17 #include "map_mbus.h"
//   18 
//   19 #define CHECK_TIME 15
//   20 

        RSEG NEAR_F:CODE:NOROOT(0)
//   21 __flash unsigned char tab_crc[] = { 0,94,188,226,97,63,221,131,194,156,126,32,163,253,31,65,
tab_crc:
        DB 0, 94, 188, 226, 97, 63, 221, 131, 194, 156, 126, 32, 163, 253, 31
        DB 65, 157, 195, 33, 127, 252, 162, 64, 30, 95, 1, 227, 189, 62, 96
        DB 130, 220, 35, 125, 159, 193, 66, 28, 254, 160, 225, 191, 93, 3, 128
        DB 222, 60, 98, 190, 224, 2, 92, 223, 129, 99, 61, 124, 34, 192, 158
        DB 29, 67, 161, 255, 70, 24, 250, 164, 39, 121, 155, 197, 132, 218, 56
        DB 102, 229, 187, 89, 7, 219, 133, 103, 57, 186, 228, 6, 88, 25, 71
        DB 165, 251, 120, 38, 196, 154, 101, 59, 217, 135, 4, 90, 184, 230, 167
        DB 249, 27, 69, 198, 152, 122, 36, 248, 166, 68, 26, 153, 199, 37, 123
        DB 58, 100, 134, 216, 91, 5, 231, 185, 140, 210, 48, 110, 237, 179, 81
        DB 15, 78, 16, 242, 172, 47, 113, 147, 205, 17, 79, 173, 243, 112, 46
        DB 204, 146, 211, 141, 111, 49, 178, 236, 14, 80, 175, 241, 19, 77, 206
        DB 144, 114, 44, 109, 51, 209, 143, 12, 82, 176, 238, 50, 108, 142, 208
        DB 83, 13, 239, 177, 240, 174, 76, 18, 145, 207, 45, 115, 202, 148, 118
        DB 40, 171, 245, 23, 73, 8, 86, 180, 234, 105, 55, 213, 139, 87, 9, 235
        DB 181, 54, 104, 138, 212, 149, 203, 41, 119, 244, 170, 72, 22, 233
        DB 183, 85, 11, 136, 214, 52, 106, 43, 117, 151, 201, 74, 20, 246, 168
        DB 116, 42, 200, 150, 21, 75, 169, 247, 182, 232, 10, 84, 215, 137, 107
        DB 53
//   22                  157,195,33,127,252,162,64,30,95,1,227,189,62,96,130,220,
//   23                  35,125,159,193,66,28,254,160,225,191,93,3,128,222,60,98,
//   24                  190,224,2,92,223,129,99,61,124,34,192,158,29,67,161,255,
//   25                  70,24,250,164,39,121,155,197,132,218,56,102,229,187,89,7,
//   26                  219,133,103,57,186,228,6,88,25,71,165,251,120,38,196,154,
//   27                  101,59,217,135,4,90,184,230,167,249,27,69,198,152,122,36,
//   28                  248,166,68,26,153,199,37,123,58,100,134,216,91,5,231,185,
//   29                  140,210,48,110,237,179,81,15,78,16,242,172,47,113,147,205,
//   30                  17,79,173,243,112,46,204,146,211,141,111,49,178,236,14,80,
//   31                  175,241,19,77,206,144,114,44,109,51,209,143,12,82,176,238,
//   32                  50,108,142,208,83,13,239,177,240,174,76,18,145,207,45,115,
//   33                  202,148,118,40,171,245,23,73,8,86,180,234,105,55,213,139,
//   34                  87,9,235,181,54,104,138,212,149,203,41,119,244,170,72,22,
//   35                  233,183,85,11,136,214,52,106,43,117,151,201,74,20,246,168,
//   36                  116,42,200,150,21,75,169,247,182,232,10,84,215,137,107,53 };     
//   37 
//   38 
//   39 
//   40 

        RSEG NEAR_F:CODE:NOROOT(0)
//   41 __flash char stm_pwr_on[]=        {'S','T','M',':','p','w','r',' ','o','n'};
stm_pwr_on:
        DB 83, 84, 77, 58, 112, 119, 114, 32, 111, 110
//   42 __flash char stm_pwr_kon[]=       {'S','T','M',':','p','w','r',' ','k','o','n'};
//   43 __flash char stm_pwr_off[]=       {'S','T','M',':','p','w','r',' ','o','f','f',};
//   44 __flash char stm_pwr_koff[]=      {'S','T','M',':','p','w','r',' ','k','o','f','f',};
//   45 __flash char stm_si[]=            {'S','T','M',':','s','i'};
//   46 __flash char stm_sc[]=            {'S','T','M',':','s','c'};
//   47 __flash char stm_scp[]=           {'S','T','M',':','s','c','p'};
//   48 __flash char stm_ppp[]=           {'S','T','M',':','p','p','p'};
//   49 __flash char stm_rdc[]=           {'S','T','M',':','r','d','c'};
//   50 
//   51 __flash char stm_base_sim[]=      {'S','T','M',':','b','a','s','e',' ','s','i','m'}; //dobavka
stm_base_sim:
        DB 83, 84, 77, 58, 98, 97, 115, 101, 32, 115, 105, 109
//   52 __flash char stm_res_sim[]=       {'S','T','M',':','r','e','s',' ','s','i','m'}; //dobavka
stm_res_sim:
        DB 83, 84, 77, 58, 114, 101, 115, 32, 115, 105, 109

        RSEG NEAR_F:CODE:NOROOT(0)
stm_pwr_kon:
        DB 83, 84, 77, 58, 112, 119, 114, 32, 107, 111, 110

        RSEG NEAR_F:CODE:NOROOT(0)
stm_pwr_off:
        DB 83, 84, 77, 58, 112, 119, 114, 32, 111, 102, 102

        RSEG NEAR_F:CODE:NOROOT(0)
stm_pwr_koff:
        DB 83, 84, 77, 58, 112, 119, 114, 32, 107, 111, 102, 102

        RSEG NEAR_F:CODE:NOROOT(0)
stm_si:
        DB 83, 84, 77, 58, 115, 105
stm_sc:
        DB 83, 84, 77, 58, 115, 99
stm_scp:
        DB 83, 84, 77, 58, 115, 99, 112
stm_ppp:
        DB 83, 84, 77, 58, 112, 112, 112
//   53 
//   54 __flash char evm_tm[]=        {'E','V','M',':','t','m'};
evm_tm:
        DB 69, 86, 77, 58, 116, 109
//   55 __flash char evm_at_ok[]=     {'E','V','M',':','a','t',' ','o','k'};
//   56 __flash char evm_at_err[]=    {'E','V','M',':','a','t',' ','e','r','r'};
evm_at_err:
        DB 69, 86, 77, 58, 97, 116, 32, 101, 114, 114
//   57 __flash char evm_ppp_ok[]=    {'E','V','M',':','p','p','p',' ','o','k'};
//   58 __flash char evm_ppp_err[]=   {'E','V','M',':','p','p','p',' ','e','r','r'};
evm_ppp_err:
        DB 69, 86, 77, 58, 112, 112, 112, 32, 101, 114, 114
//   59 __flash char evm_dcd_err[]=   {'E','V','M',':','d','c','d',' ','e','r','r'};
evm_dcd_err:
        DB 69, 86, 77, 58, 100, 99, 100, 32, 101, 114, 114
//   60 __flash char evm_no_rec[]=     {'E','V','M',':','n','o',' ','r','e','c'};
evm_no_rec:
        DB 69, 86, 77, 58, 110, 111, 32, 114, 101, 99
//   61 __flash char evm_cts_err[]=   {'E','V','M',':','c','t','s',' ','e','r','r'}; //dobavka
evm_cts_err:
        DB 69, 86, 77, 58, 99, 116, 115, 32, 101, 114, 114
//   62 __flash char evm_ch_sim[]=    {'E','V','M',':','c','h',' ','s','i','m'};     //dobavka
evm_ch_sim:
        DB 69, 86, 77, 58, 99, 104, 32, 115, 105, 109

        RSEG NEAR_F:CODE:NOROOT(0)
stm_rdc:
        DB 83, 84, 77, 58, 114, 100, 99

        RSEG NEAR_F:CODE:NOROOT(0)
evm_at_ok:
        DB 69, 86, 77, 58, 97, 116, 32, 111, 107

        RSEG NEAR_F:CODE:NOROOT(0)
evm_ppp_ok:
        DB 69, 86, 77, 58, 112, 112, 112, 32, 111, 107
//   63 
//   64 //__flash char evc_heat_on[]=        {'E','V','C',':','h','e','a','t',' ','o','n'};
//   65 //__flash char evc_heat_off[]=       {'E','V','C',':','h','e','a','t',' ','o','f','f'};

        RSEG NEAR_F:CODE:NOROOT(0)
//   66 __flash char evc_taken[]=          {'E','V','C',':','t','a','k','e','n'};
evc_taken:
        DB 69, 86, 67, 58, 116, 97, 107, 101, 110
//   67 __flash char evc_alarm[]=          {'E','V','C',':','a','l','a','r','m'};
evc_alarm:
        DB 69, 86, 67, 58, 97, 108, 97, 114, 109
//   68 //__flash char evc_feed_akb[]=       {'E','V','C',':','f','e','e','d',' ','a','k','b'};
//   69 //__flash char evc_feed_220[]=       {'E','V','C',':','f','e','e','d',' ','2','2','0'};
//   70 __flash char evc_ts1[]=       {'E','V','C',':','t','s','1'};
evc_ts1:
        DB 69, 86, 67, 58, 116, 115, 49
//   71 __flash char evc_ts2[]=       {'E','V','C',':','t','s','2'};
evc_ts2:
        DB 69, 86, 67, 58, 116, 115, 50
//   72 

        RSEG NEAR_F:CODE:NOROOT(0)
//   73 __flash char evc_state[]=       {'E','V','C',':','s','t','a','t','e'};
evc_state:
        DB 69, 86, 67, 58, 115, 116, 97, 116, 101
//   74 

        RSEG NEAR_F:CODE:NOROOT(0)
//   75 __flash char evc_wdr[]=            {'E','V','C',':','w','d','r'};
evc_wdr:
        DB 69, 86, 67, 58, 119, 100, 114
//   76 __flash char evc_bod[]=            {'E','V','C',':','b','o','d'};
evc_bod:
        DB 69, 86, 67, 58, 98, 111, 100
//   77 __flash char evc_rst[]=            {'E','V','C',':','r','s','t'};
evc_rst:
        DB 69, 86, 67, 58, 114, 115, 116
//   78 __flash char evc_pwr[]=            {'E','V','C',':','p','w','r'};
evc_pwr:
        DB 69, 86, 67, 58, 112, 119, 114
//   79 

        RSEG NEAR_F:CODE:NOROOT(0)
//   80 __flash char msg_evc[]=          {'M','S','G',':','e','v','c',};
msg_evc:
        DB 77, 83, 71, 58, 101, 118, 99

        RSEG NEAR_F:CODE:NOROOT(0)
//   81 __flash char msg_ctrl_ch[]=      {'M','S','G',':','c','t','r','l',' ','c','h'};
msg_ctrl_ch:
        DB 77, 83, 71, 58, 99, 116, 114, 108, 32, 99, 104

        RSEG NEAR_F:CODE:NOROOT(0)
//   82 __flash char msg_ctrl_nat[]=     {'M','S','G',':','c','t','r','l',' ','n','a','t'};
msg_ctrl_nat:
        DB 77, 83, 71, 58, 99, 116, 114, 108, 32, 110, 97, 116
//   83 
//   84 

        RSEG NEAR_F:CODE:NOROOT(0)
//   85 __flash char req_out_ctrl_cl[]={'R','E','Q','-','>','c','t','r','l',' ','c','l'};
req_out_ctrl_cl:
        DB 82, 69, 81, 45, 62, 99, 116, 114, 108, 32, 99, 108
//   86 
//   87 
//   88 /*
//   89 __flash char rec []=             {'R','E','C'};
//   90 
//   91 __flash char req_out_ctrl_cl[]={'R','E','Q','-','>','c','t','r','l',' ','c','l'};
//   92 __flash char ans_in_ctrl_cl[]={'A','N','S','-','<','c','t','r','l',' ','c','l'};
//   93 
//   94 __flash char req_in_485_1[]={'R','E','Q','-','<','4','8','5','_','1'};
//   95 __flash char req_in_485_2[]={'R','E','Q','-','<','4','8','5','_','2'};
//   96 __flash char req_in_232[]={'R','E','Q','-','<','2','3','2'};
//   97 __flash char req_in_st_contr[]={'R','E','Q','-','<','s','t',' ','c','o','n','t','r'};
//   98 __flash char req_in_config[]={'R','E','Q','-','<','c','o','n','f','i','g'};
//   99 __flash char req_in_prog[]={'R','E','Q','-','<','p','r','o','g'};
//  100 
//  101 
//  102 __flash char ans_out_485_1[]={'A','N','S','-','>','4','8','5','_','1'};
//  103 __flash char ans_out_485_2[]={'A','N','S','-','>','4','8','5','_','2'};
//  104 __flash char ans_out_232[]={'A','N','S','-','>','2','3','2'};
//  105 __flash char ans_out_st_contr[]={'A','N','S','-','>','s','t',' ','c','o','n','t','r'};
//  106 __flash char ans_out_config[]={'A','N','S','-','>','c','o','n','f','i','g'};
//  107 __flash char ans_out_prog[]={'A','N','S','-','>','p','r','o','g'};
//  108 */
//  109 void RdFromFleshToArrInt(unsigned int adres_flesh, unsigned int *adres_ozu,unsigned int num);
//  110 void WrArrayToFleshInt(unsigned int adres_flesh,  unsigned int *adres_ozu, unsigned int num,unsigned char flag,unsigned int znach); //çŕďčńü ęîíôčăóđŕöčč ęď âî ôëĺř
//  111 
//  112 int crc_sum(unsigned char *ff,unsigned char kol);
//  113 
//  114 void ds_handler(void);
//  115 void monitori(void);
//  116 void init_modem_call_inside(void);
//  117 void control_ts(void);
//  118 
//  119 void energy_plus(void);
//  120 
//  121 void init_pins_out_to_hiz(void);
//  122 
//  123 void init_pins_hiz_to_out(void);
//  124 
//  125 void monitor_wr_truffic(void);
//  126 
//  127 void send_terminate_lcp(void);
//  128 char temp_to_grad(unsigned int t);
//  129 
//  130 void supervisorwdt(void);
//  131 
//  132 void kodirovka(unsigned int kol_send_byte);
//  133 
//  134 void send_info(char size,char __flash *p,unsigned char fl_id,unsigned char id);
//  135 
//  136 void    mov_massiv (char size, char *p);
//  137 
//  138 void control_temperatura(void);
//  139 
//  140 void init_modem_only(void);
//  141 extern unsigned char Regim;
//  142 
//  143 extern unsigned int c_config_tc[SEG8];
//  144 extern unsigned char sel_modul;
//  145 extern unsigned int ust_vhod;
//  146 
//  147 void send_err485(unsigned char port,unsigned char err,unsigned char id,unsigned int dst);
//  148 unsigned int proc_config(unsigned char *buf_rx_ppp,unsigned char offset,unsigned int count_rx_ppp);
//  149 unsigned char check_ln_conf(unsigned char *buf_rx_ppp,unsigned char offset,unsigned int count_rx_ppp);
//  150 unsigned char check_cont_485_1 (unsigned char *pointer);
//  151 unsigned char check_cont_485_2 (unsigned char *pointer);
//  152 
//  153 unsigned char ret_version(unsigned char unit,unsigned char *ptr);
//  154 
//  155 unsigned int calc_crc_ip(unsigned char *p,unsigned int count);
//  156 unsigned int calc_crc_udp_2(unsigned char *buf_rx_ppp,unsigned int count);
//  157 unsigned int pppfcs16(unsigned int fcs,unsigned char *cp,unsigned int len);
//  158 
//  159 void monitor_event_PAP(void);
//  160 void monitor_act_LCP(void);
//  161 void monitor_event_LCP(void);
//  162 void monitor_act_IPCP(void);
//  163 void monitor_event_IPCP(void);
//  164 void monitor_act_PAP(void);
//  165 void clr_var_ppp_rx(void);
//  166 void clr_var_ppp(void);
//  167 
//  168 void analiz_ppp_rx(void);
//  169 
//  170 void monitor1_tx_rs485_1(void);   //GPRS-řňŕňíűé RS485_1
//  171 void monitor1_rec_rs485_1(void);
//  172 void monitor1_tm_rs485_1(void);
//  173 
//  174 void monitor1_tx_rs485_2(void);   //GPRS-řňŕňíűé RS485_2
//  175 void monitor1_rec_rs485_2(void);
//  176 void monitor1_tm_rs485_2(void);
//  177 
//  178 void monitor1_tx_rs232_2(void);   //GPRS-řňŕňíűé RS232_2
//  179 void monitor1_rec_rs232_2(void);
//  180 void monitor1_tm_rs232_2(void);
//  181 
//  182 
//  183 
//  184   extern void init_scen_stm_si(void);
//  185   extern void init_scen_stm_sc(void);
//  186   extern void init_scen_stm_dc(void);
//  187   extern void at_com_rx(unsigned char cnt);
//  188   extern void at_com_tx(unsigned char cnt);
//  189   extern unsigned char at_com_scen_init(unsigned char *cnt,unsigned char *rp);
//  190   extern unsigned char at_com_scen_stm_sc(unsigned char *cnt,unsigned char *rp);
//  191   //extern unsigned char at_com_scen_stm_dc(unsigned char *cnt,unsigned char *rp);
//  192   extern void init_scen_stm_dc_1(void);
//  193   extern unsigned char at_com_scen_stm_dc_1(unsigned char *cnt,unsigned char *rp);
//  194 
//  195   
//  196 extern unsigned char compress_off;
//  197   
//  198    extern unsigned char cnt_com;
//  199    extern unsigned char rep;
//  200   
//  201 extern char bit_level;
//  202 unsigned long int unix; 
//  203 
//  204  
//  205 extern union {
//  206        unsigned char mb[SEG3*2];//áŕéňîâűé ěŕńńčâ 
//  207        } c2_byte; //1˙ ńňđŕíčöŕ ęîíôčăóđŕöčč 
//  208 
//  209 extern union {
//  210        unsigned char mb[SEG99*2];//áŕéňîâűé ěŕńńčâ 
//  211        } c1_byte; //ńňđŕíčöŕ ęîíôčăóđŕöčč ĂÇÓ
//  212    
//  213 extern unsigned int modbus_mem1[SEG1];
//  214 
//  215 extern struct struct_ts str_tc1,str_tc2,str_tc3,str_tc4,str_tc5,str_tc6,str_tc7,str_tc8;   
//  216    
//  217    
//  218 
//  219 extern void WrArrayToFlesh(unsigned int adres_flesh,  unsigned char *adres_ozu, unsigned int num,unsigned char flag,unsigned char znach);
//  220 extern void RdFromFleshToArr(unsigned int adres_flesh, unsigned char *adres_ozu,unsigned int num);
//  221 extern void write_log_info(unsigned char sost,unsigned char mesto);
//  222 extern unsigned long int burst_ds_r(void);
//  223 void set_rlt(unsigned char address, unsigned char * data);
//  224 unsigned char write_to_buf(unsigned char *p_buf,unsigned int *ptr_in,unsigned int *ptr_out,unsigned int *ptr_out_kv,unsigned int *crc,unsigned char *p_data,unsigned int l_data, unsigned int max_buf);
//  225 unsigned int read_from_buf(unsigned char *p_buf,unsigned int *ptr_in,unsigned int *ptr_out,unsigned int *ptr_out_kv,unsigned int *crc,unsigned char *p_data, unsigned int max_buf);
//  226 
//  227 //enum t_version {VER1 = 1 ,VER2,VER3,VER4};
//  228 //enum t_type {ZAPR,OTV,SOOB,KVIT};                
//  229 enum t_state_modem {STM_NONE=0,STM_ON,STM_KON,STM_PWK,STM_SI,STM_SC,STM_SCP,STM_PPP,STM_DCP,STM_DC,STM_KOFF,STM_OFF};
//  230 enum t_state_modem state_modem;
//  231 enum t_event_modem event_modem;
//  232 enum bool command_AT;
//  233 
//  234 unsigned char cnt_stm_tm1,cnt_stm_tm2;
//  235 unsigned int cnt_key_off;
//  236 
//  237 
//  238 extern unsigned char keys[10];
//  239 
//  240 extern struct
//  241         { // â äâîč÷íîě ęîäĺ
//  242           char r_sec;
//  243           char r_min;
//  244           char r_hor;
//  245           char r_day;
//  246           char r_date;
//  247           char r_month;
//  248           char r_year;
//  249           char r_control;
//  250         }  real_time; 
//  251 
//  252 
//  253 extern struct
//  254   {
//  255   unsigned char  ip         :1;
//  256   unsigned char  udp        :1;
//  257   unsigned char  num_self   :1;
//  258   unsigned char cnt_reset;
//  259   }fl_rewrite;
//  260 
//  261  #pragma location=A_RW_PDP 

        ASEGN EEPROM_AN:XDATA:NOROOT,01H
//  262 __eeprom __no_init unsigned char e_rw_pdp;
e_rw_pdp:
        DS 1
//  263 
//  264  #pragma location=A_RW_PDP_R 

        ASEGN EEPROM_AN:XDATA:NOROOT,02H
//  265 __eeprom __no_init unsigned char e_rw_pdp_r;
e_rw_pdp_r:
        DS 1
//  266 
//  267 

        RSEG NEAR_F:CODE:NOROOT(0)
//  268 __flash  unsigned char auchCRCHi[] ={
auchCRCHi:
        DB 0, 193, 129, 64, 1, 192, 128, 65, 1, 192, 128, 65, 0, 193, 129, 64
        DB 1, 192, 128, 65, 0, 193, 129, 64, 0, 193, 129, 64, 1, 192, 128, 65
        DB 1, 192, 128, 65, 0, 193, 129, 64, 0, 193, 129, 64, 1, 192, 128, 65
        DB 0, 193, 129, 64, 1, 192, 128, 65, 1, 192, 128, 65, 0, 193, 129, 64
        DB 1, 192, 128, 65, 0, 193, 129, 64, 0, 193, 129, 64, 1, 192, 128, 65
        DB 0, 193, 129, 64, 1, 192, 128, 65, 1, 192, 128, 65, 0, 193, 129, 64
        DB 0, 193, 129, 64, 1, 192, 128, 65, 1, 192, 128, 65, 0, 193, 129, 64
        DB 1, 192, 128, 65, 0, 193, 129, 64, 0, 193, 129, 64, 1, 192, 128, 65
        DB 1, 192, 128, 65, 0, 193, 129, 64, 0, 193, 129, 64, 1, 192, 128, 65
        DB 0, 193, 129, 64, 1, 192, 128, 65, 1, 192, 128, 65, 0, 193, 129, 64
        DB 0, 193, 129, 64, 1, 192, 128, 65, 1, 192, 128, 65, 0, 193, 129, 64
        DB 1, 192, 128, 65, 0, 193, 129, 64, 0, 193, 129, 64, 1, 192, 128, 65
        DB 0, 193, 129, 64, 1, 192, 128, 65, 1, 192, 128, 65, 0, 193, 129, 64
        DB 1, 192, 128, 65, 0, 193, 129, 64, 0, 193, 129, 64, 1, 192, 128, 65
        DB 1, 192, 128, 65, 0, 193, 129, 64, 0, 193, 129, 64, 1, 192, 128, 65
        DB 0, 193, 129, 64, 1, 192, 128, 65, 1, 192, 128, 65, 0, 193, 129, 64
//  269   0x00,0xC1,0x81,0x40,0x01,0xC0,0x80,0x41,0x01,0xC0,0x80,0x41,0x00,
//  270   0xC1,0x81,0x40,0x01,0xC0,0x80,0x41,0x00,0xC1,0x81,0x40,0x00,0xC1,
//  271   0x81,0x40,0x01,0xC0,0x80,0x41,0x01,0xC0,0x80,0x41,0x00,0xC1,0x81,
//  272   0x40,0x00,0xC1,0x81,0x40,0x01,0xC0,0x80,0x41,0x00,0xC1,0x81,0x40,
//  273   0x01,0xC0,0x80,0x41,0x01,0xC0,0x80,0x41,0x00,0xC1,0x81,0x40,0x01,
//  274   0xC0,0x80,0x41,0x00,0xC1,0x81,0x40,0x00,0xC1,0x81,0x40,0x01,0xC0,
//  275   0x80,0x41,0x00,0xC1,0x81,0x40,0x01,0xC0,0x80,0x41,0x01,0xC0,0x80,
//  276   0x41,0x00,0xC1,0x81,0x40,0x00,0xC1,0x81,0x40,0x01,0xC0,0x80,0x41,
//  277   0x01,0xC0,0x80,0x41,0x00,0xC1,0x81,0x40,0x01,0xC0,0x80,0x41,0x00,
//  278   0xC1,0x81,0x40,0x00,0xC1,0x81,0x40,0x01,0xC0,0x80,0x41,0x01,0xC0,
//  279   0x80,0x41,0x00,0xC1,0x81,0x40,0x00,0xC1,0x81,0x40,0x01,0xC0,0x80,
//  280   0x41,0x00,0xC1,0x81,0x40,0x01,0xC0,0x80,0x41,0x01,0xC0,0x80,0x41,
//  281   0x00,0xC1,0x81,0x40,0x00,0xC1,0x81,0x40,0x01,0xC0,0x80,0x41,0x01,
//  282   0xC0,0x80,0x41,0x00,0xC1,0x81,0x40,0x01,0xC0,0x80,0x41,0x00,0xC1,
//  283   0x81,0x40,0x00,0xC1,0x81,0x40,0x01,0xC0,0x80,0x41,0x00,0xC1,0x81,
//  284   0x40,0x01,0xC0,0x80,0x41,0x01,0xC0,0x80,0x41,0x00,0xC1,0x81,0x40,
//  285   0x01,0xC0,0x80,0x41,0x00,0xC1,0x81,0x40,0x00,0xC1,0x81,0x40,0x01,
//  286   0xC0,0x80,0x41,0x01,0xC0,0x80,0x41,0x00,0xC1,0x81,0x40,0x00,0xC1,
//  287   0x81,0x40,0x01,0xC0,0x80,0x41,0x00,0xC1,0x81,0x40,0x01,0xC0,0x80,
//  288   0x41,0x01,0xC0,0x80,0x41,0x00,0xC1,0x81,0x40};
//  289   
//  290     

        RSEG NEAR_F:CODE:NOROOT(0)
//  291 __flash   unsigned  char auchCRCLo[] = {
auchCRCLo:
        DB 0, 192, 193, 1, 195, 3, 2, 194, 198, 6, 7, 199, 5, 197, 196, 4, 204
        DB 12, 13, 205, 15, 207, 206, 14, 10, 202, 203, 11, 201, 9, 8, 200, 216
        DB 24, 25, 217, 27, 219, 218, 26, 30, 222, 223, 31, 221, 29, 28, 220
        DB 20, 212, 213, 21, 215, 23, 22, 214, 210, 18, 19, 211, 17, 209, 208
        DB 16, 240, 48, 49, 241, 51, 243, 242, 50, 54, 246, 247, 55, 245, 53
        DB 52, 244, 60, 252, 253, 61, 255, 63, 62, 254, 250, 58, 59, 251, 57
        DB 249, 248, 56, 40, 232, 233, 41, 235, 43, 42, 234, 238, 46, 47, 239
        DB 45, 237, 236, 44, 228, 36, 37, 229, 39, 231, 230, 38, 34, 226, 227
        DB 35, 225, 33, 32, 224, 160, 96, 97, 161, 99, 163, 162, 98, 102, 166
        DB 167, 103, 165, 101, 100, 164, 108, 172, 173, 109, 175, 111, 110, 174
        DB 170, 106, 107, 171, 105, 169, 168, 104, 120, 184, 185, 121, 187, 123
        DB 122, 186, 190, 126, 127, 191, 125, 189, 188, 124, 180, 116, 117, 181
        DB 119, 183, 182, 118, 114, 178, 179, 115, 177, 113, 112, 176, 80, 144
        DB 145, 81, 147, 83, 82, 146, 150, 86, 87, 151, 85, 149, 148, 84, 156
        DB 92, 93, 157, 95, 159, 158, 94, 90, 154, 155, 91, 153, 89, 88, 152
        DB 136, 72, 73, 137, 75, 139, 138, 74, 78, 142, 143, 79, 141, 77, 76
        DB 140, 68, 132, 133, 69, 135, 71, 70, 134, 130, 66, 67, 131, 65, 129
        DB 128, 64

        RSEG NEAR_Z:DATA:NOROOT(0)
        REQUIRE `?<Segment init: NEAR_Z>`
unix:
        DS 4
//  292 0x00,0xC0,0xC1,0x01,0xC3,0x03,0x02,0xC2,0xC6,0x06,0x07,0xC7,0x05,
//  293 0xC5,0xC4,0x04,0xCC,0x0C,0x0D,0xCD,0x0F,0xCF,0xCE,0x0E,0x0A,0xCA,
//  294 0xCB,0x0B,0xC9,0x09,0x08,0xC8,0xD8,0x18,0x19,0xD9,0x1B,0xDB,0xDA,
//  295 0x1A,0x1E,0xDE,0xDF,0x1F,0xDD,0x1D,0x1C,0xDC,0x14,0xD4,0xD5,0x15,
//  296 0xD7,0x17,0x16,0xD6,0xD2,0x12,0x13,0xD3,0x11,0xD1,0xD0,0x10,0xF0,
//  297 0x30,0x31,0xF1,0x33,0xF3,0xF2,0x32,0x36,0xF6,0xF7,0x37,0xF5,0x35,
//  298 0x34,0xF4,0x3C,0xFC,0xFD,0x3D,0xFF,0x3F,0x3E,0xFE,0xFA,0x3A,0x3B,
//  299 0xFB,0x39,0xF9,0xF8,0x38,0x28,0xE8,0xE9,0x29,0xEB,0x2B,0x2A,0xEA,
//  300 0xEE,0x2E,0x2F,0xEF,0x2D,0xED,0xEC,0x2C,0xE4,0x24,0x25,0xE5,0x27,
//  301 0xE7,0xE6,0x26,0x22,0xE2,0xE3,0x23,0xE1,0x21,0x20,0xE0,0xA0,0x60,
//  302 0x61,0xA1,0x63,0xA3,0xA2,0x62,0x66,0xA6,0xA7,0x67,0xA5,0x65,0x64,
//  303 0xA4,0x6C,0xAC,0xAD,0x6D,0xAF,0x6F,0x6E,0xAE,0xAA,0x6A,0x6B,0xAB,
//  304 0x69,0xA9,0xA8,0x68,0x78,0xB8,0xB9,0x79,0xBB,0x7B,0x7A,0xBA,0xBE,
//  305 0x7E,0x7F,0xBF,0x7D,0xBD,0xBC,0x7C,0xB4,0x74,0x75,0xB5,0x77,0xB7,
//  306 0xB6,0x76,0x72,0xB2,0xB3,0x73,0xB1,0x71,0x70,0xB0,0x50,0x90,0x91,
//  307 0x51,0x93,0x53,0x52,0x92,0x96,0x56,0x57,0x97,0x55,0x95,0x94,0x54,
//  308 0x9C,0x5C,0x5D,0x9D,0x5F,0x9F,0x9E,0x5E,0x5A,0x9A,0x9B,0x5B,0x99,
//  309 0x59,0x58,0x98,0x88,0x48,0x49,0x89,0x4B,0x8B,0x8A,0x4A,0x4E,0x8E,
//  310 0x8F,0x4F,0x8D,0x4D,0x4C,0x8C,0x44,0x84,0x85,0x45,0x87,0x47,0x46,
//  311 0x86,0x82,0x42,0x43,0x83,0x41,0x81,0x80,0x40
//  312      };
//  313 
//  314 
//  315 
//  316 __no_init unsigned char simka; //dobavka
//  317 unsigned char Fl_ch_sim;       //dobavka
//  318 
//  319 
//  320  struct
//  321  {
//  322  unsigned char  clr_wdt     :1;
//  323  unsigned char  fl_out      :1;
//  324  unsigned char  from_timer0 :1;
//  325  unsigned char  fl_main     :1;
//  326  unsigned char  from_timer3 :1;
//  327  unsigned char  from_timer2 :1; 
//  328  unsigned char  from_adc :1;
//  329  }fl_wdt;
//  330 
//  331 
//  332 
//  333 extern struct                   //ńňđóęňóđŕ, îďčńűâŕţůŕ˙ îáúĺęň ďĺđĺäŕ÷č ďî PPP 
//  334   {  
//  335   enum bool prozr;      //âĺđńč˙       
//  336   enum t_version version;      //âĺđńč˙ 
//  337   enum t_type   type_pac;     //ňčď ďŕęĺňŕ
//  338   unsigned int num_src; // íîěĺđ îňďđŕâčňĺë˙
//  339   unsigned int num_dst; // íîěĺđ ďîëó÷ŕňĺë˙
//  340   unsigned char id_pac; // čäĺíňčôčęŕňîđ ďŕęĺňŕ  
//  341   unsigned char * p_opt; // //óęŕçŕňĺëü áóôĺđŕ îďöčé  
//  342   unsigned char l_opt;// äëčíŕ áóôĺđŕ îďöčé   
//  343   unsigned char kol_opt;// ęîëč÷ĺńňâî îďöčé   
//  344   unsigned char * p_data;  //óęŕçŕňĺëü áóôĺđŕ äŕííűő
//  345   unsigned int l_data;   // äëčíŕ äŕííűő
//  346   }Obj_ppp_tx;
//  347 
//  348 unsigned char buf_opt_tr[20]; 
//  349 unsigned int prov_ozu;
//  350 
//  351 
//  352 unsigned char buf_tx_232[VOL_TX_PPP];
//  353 unsigned int count_tx_ppp,vol_tx_ppp;
//  354 
//  355  //ńňđóęňóđű áóôĺđîâ íŕ ďđčĺě
//  356   struct
//  357  {
//  358   unsigned char data[VOL_RX_PPP];//ńŕě áóôĺđ
//  359   unsigned int ln_data;  // äëčíŕ äŕííűő
//  360   enum bool rec; // ďŕęĺň ďđčí˙ň
//  361   enum bool busy;// áóôĺđ çŕí˙ň
//  362   enum bool check_busy;// ďđîâĺđęŕ çŕí˙ň ëč áóôĺđ
//  363  }Buf1_rx_ppp,Buf2_rx_ppp; // 
//  364  
//  365 enum bool fl_cts_232_ignor;
//  366 unsigned int cnt_cts_off;
//  367 struct
//  368  {
//  369  unsigned char on: 1;
//  370  } fl_cts_232;
//  371 
//  372 
//  373 extern char ip_change;
//  374 
//  375 //unsigned char count_block_net,byte_state_net;
//  376 
//  377 //!!!!!!!!!!!!!!!!1ďŕđŕěĺňđű ęîíňđîëëĺđŕ
//  378 unsigned char ip_ls[4]; 
//  379 unsigned int num_self,num_seq_cl,port_udp;
//  380 
//  381 
//  382 
//  383 struct                   //ńňđóęňóđŕ, îďčńűâŕţůŕ˙ îáúĺęň ďĺđĺäŕ÷č ďî PPP 
//  384   {  
//  385   enum bool link_no ; //ńâ˙çč íĺň
//  386   enum bool link_waits; //îćčäŕíčĺ ęâčňęŕ íŕ ęîíňđîëü ńâ˙çč
//  387   enum bool link;      //ęîíňđîëü ńâ˙çč    
//  388   enum bool nat;      //ęîíňđîëü nat 
//  389   unsigned int cnt_link; // ń÷ĺň÷čę
//  390   unsigned int cnt_nat; // ń÷ĺň÷čę
//  391   unsigned int vol_link; // çíŕ÷ĺíčĺ  
//  392   unsigned int vol_nat; // //çíŕ÷ĺíčĺ 
//  393   unsigned int vol_waits; // çíŕ÷ĺíčĺ âđĺěĺíč ęâčňęŕ îćčäŕíč˙ ęîíňđîë˙ ńâ˙çč
//  394   unsigned char cnt_try; // ń÷ĺň÷čę ďîďűňîę ďîëó÷čňü ęâčňîę
//  395   unsigned char vol_try; // rjkbxtcndj ďîďűňîę ďîëó÷čňü ęâčňîę
//  396   unsigned int vol_nat_r; // ń÷ĺň÷čę
//  397   }Control;
//  398 
//  399 
//  400  unsigned long int vol_cnt_no_link, vol_cnt_link_res, cnt_no_link, cnt_link_res;; //dobavka
//  401 
//  402 
//  403   unsigned char Appl_RS485_1_data_buf[LN_BUF_485_1];// ńŕě áóôĺđ
//  404   unsigned char Appl_RS485_2_data_buf[LN_BUF_485_2];// ńŕě áóôĺđ
//  405   unsigned char Appl_RS232_2_data_buf[LN_BUF_232_2];// ńŕě áóôĺđ
//  406  
//  407     struct                   //ńňđóęňóđŕ îďčńűâŕţůŕ˙ đŕáîňó ďđčëîćĺíč˙ "RS485_1" 
//  408   {  
//  409   enum bool fl_data_buf; //čěĺĺňń˙ ëč çŕáóôĺđčçčđîâŕííűé ďŕęĺň äë˙ ďĺđĺäŕ÷č â ďîđň RS485_1
//  410   unsigned int ln_data_buf; // çŕáóôĺđčçčđîâŕííŕ˙ äëčíŕ áóôĺđŕ
//  411   unsigned int dst_buf; // çŕáóôĺđčçčđîâŕííűé ďîëó÷ŕňĺëü
//  412   unsigned char cont_buf[8];// çŕáóôĺđčçčđîâŕííűé ęîíňĺęńň
//  413   unsigned char id_buf; // çŕáóôĺđčçčđîâŕííűé id
//  414   unsigned int dst_tek;// ňĺęóůčé ďîëó÷ŕňĺëü
//  415   unsigned char id_tek; // ňĺęóůčé id
//  416   unsigned int pre_tx;//çŕäĺđćęŕ ďĺđĺä ďĺđĺäŕ÷ĺé
//  417   }Appl_RS485_1,Appl_RS485_2,Appl_RS232_2;
//  418 
//  419   
//  420      struct
//  421  {
//  422  unsigned char mon1 : 1;
//  423  unsigned char mon2 : 1;
//  424  unsigned char mon232_2 : 1;
//  425  } fl_tx485;
//  426  
//  427 extern struct
//  428  {
//  429  unsigned char busy : 1;
//  430  unsigned char rec : 1;
//  431  unsigned char tm_out : 1;
//  432  unsigned char tx : 1;
//  433  unsigned char over : 1;
//  434  unsigned char buffed : 1;
//  435  }fl_485_1,fl_485_2,fl_232_2;
//  436 
//  437  
//  438 ///////////////////EEEEEEEEEEEEEEEEEEEEEEEEEEEEEEEEEEEEEEEE
//  439 
//  440   //!!!!!!!!!!!!!!!!!!!!!!!!!!!!!ńňđóęňóđű ďđčëîćĺíč˙
//  441  struct
//  442 {
//  443 unsigned char id;
//  444 unsigned int p_in;// óęŕçŕňĺëü ńâîáîäíîé ˙÷ĺéęč
//  445 unsigned int p_out;
//  446 unsigned int p_out_kv;
//  447 unsigned int crc;
//  448 unsigned int cnt_waits; // ń÷ĺň÷čę îćčäŕíč˙ ęâčňęŕ
//  449 unsigned char cnt_try; // ń÷ĺň÷čę ďîďűňîę ďîëó÷čňü ęâčňîę 
//  450 unsigned int l_data; // äëčíŕ ďîńűëŕĺěűő äŕííűő
//  451 unsigned char state;
//  452 unsigned char event;
//  453 unsigned int tm_vzat;
//  454 unsigned int vol_tm_vzat;
//  455 enum bool cntr_cl;
//  456 enum bool en_cntr_cl;
//  457 unsigned int cnt_cntr_cl;
//  458 unsigned int vol_cntr_cl;
//  459 }Appl_seq;
//  460 
//  461 unsigned char Appl_seq_des;
//  462 
//  463 unsigned char state_seq;
//  464 
//  465 unsigned char Appl_seq_buf[MAX_BUF_SEQ]; 
//  466 
//  467 
//  468 struct
//  469 {
//  470 unsigned char en_tx :1;
//  471 unsigned char kv_waits :1;
//  472 unsigned char en_povtor:1;
//  473 }fl_appl_seq;
//  474 
//  475 struct
//  476 {
//  477 unsigned char over_buf :1;
//  478 unsigned char send_state :1;
//  479 unsigned char enable:1; 
//  480 }fl_appl_seq1; 
//  481 
//  482 extern struct
//  483 {
//  484  
//  485   unsigned char tek_pin :1;
//  486   unsigned char old_pin :1;
//  487   unsigned char fl_ch_tc :1;
//  488   unsigned char real_tc;
//  489   unsigned int count_tc; 
//  490   unsigned char type;
//  491   unsigned char cnt_block_tc;
//  492 }struct_tcc1,struct_tcc2;
//  493 
//  494 struct
//  495 {
//  496   unsigned char tc:1;
//  497   unsigned char tc_old :1;
//  498 }sv1,sv2;
//  499   //EEEEEEEEEEEEEEEEEEEEEEEEEEEEEEEEEEEEEEEEE
//  500 
//  501 ///!!!!!!!!!!!!!!!!!!!!!!!!!!!!!!!!!!!äë˙ ĐĐĐ
//  502 extern  struct
//  503  {
//  504  unsigned char fl_7e : 1;//
//  505  unsigned char fl_7d : 1;//
//  506  unsigned char switcher : 1;//ďĺđĺęëţ÷ŕňĺëü áóôĺđîâ
//  507  } fl_rx_ppp;
//  508 
//  509 
//  510 unsigned char layer_PPP;
//  511 
//  512 extern struct
//  513  {
//  514   unsigned char act_lcp_end :1;  
//  515   unsigned char lcp_tm_out_en :1;
//  516   unsigned char t0_pl:1;
//  517   unsigned char t0_mi:1;
//  518  }fl_lcp; 
//  519  
//  520 
//  521 
//  522 extern struct
//  523  {
//  524   unsigned char act_ipcp_end :1;  
//  525   unsigned char ipcp_tm_out_en :1;
//  526   unsigned char t0_pl:1;
//  527   unsigned char t0_mi:1;
//  528  }fl_ipcp; 
//  529 
//  530 
//  531 extern struct
//  532  {
//  533   unsigned char act_ip_end :1; 
//  534   unsigned char ip_tm_cntr_en :1; 
//  535   unsigned char ip_tm_nat_en :1;
//  536  }fl_ip;
//  537 
//  538 
//  539 
//  540   
//  541 extern struct
//  542  {
//  543   unsigned char act_pap_end :1;  
//  544   unsigned char pap_tm_out_en:1;
//  545   unsigned char t0_pl:1;
//  546   unsigned char t0_mi:1;  
//  547   unsigned char up: 1; 
//  548  }fl_pap; 
//  549 
//  550 
//  551 struct
//  552  {
//  553   unsigned char add_byte :1; 
//  554  }fl_reg3;
//  555 
//  556 
//  557  extern struct
//  558  {
//  559   unsigned char up :1;  
//  560   unsigned char down :1;
//  561  }fl_lcp1; 
//  562 
//  563 
//  564 extern struct
//  565  {
//  566   unsigned char up :1;  
//  567   unsigned char down :1;
//  568  }fl_ipcp1;
//  569  
//  570  extern struct
//  571  {
//  572   unsigned char nac_rej :1; // reject - 1 
//  573  }fl_lcp2;
//  574    
//  575  extern struct
//  576  {
//  577   unsigned char nac_rej :1; // reject - 1 
//  578  }fl_ipcp2;
//  579  
//  580 
//  581 extern unsigned char pap_act_buf,PAP_state,PAP_event;
//  582 extern unsigned char LCP_state, LCP_event,LCP_act_buf[LCP_ACT_VOL];
//  583 extern unsigned char IPCP_state, IPCP_event,IPCP_act_buf[IPCP_ACT_VOL];
//  584 extern unsigned char uk_in_act_LCP,uk_out_act_LCP,uk_in_act_IPCP,uk_out_act_IPCP;
//  585 
//  586 extern unsigned char cnt_rst_lcp,vol_cnt_rst_lcp;
//  587 extern unsigned char cnt_rst_ipcp,vol_cnt_rst_ipcp;                       
//  588 extern unsigned char cnt_rst_pap,vol_cnt_rst_pap;       
//  589                       
//  590                         
//  591 extern unsigned int cnt_lcp_tm_out,cnt_ipcp_tm_out;
//  592 extern unsigned int cnt_pap_tm_out;
//  593 extern unsigned long int cnt_ip_tm_cntr;
//  594 extern unsigned char rcvd_protokol;
//  595 
//  596 extern unsigned char  i_scr_lcp,i_scan_lcp;
//  597 extern unsigned char  i_scj_lcp;//čäĺíňčôčęŕňîđű lcp
//  598 extern unsigned char  i_str_lcp,i_sta_lcp;
//  599  
//  600 extern unsigned char  i_scr_ipcp,i_scan_ipcp;
//  601 extern unsigned char  i_scj_ipcp;//čäĺíňčôčęŕňîđű ipcp
//  602 extern unsigned char  i_str_ipcp,i_sta_ipcp; 
//  603  
//  604   
//  605 extern unsigned char  i_scr_pap;
//  606  
//  607  
//  608  unsigned char ip_self[4];
//  609   //EEEEEEEEEEEEEEEEEEEEEEEEEEEEEEEEEEEEEEEEE
//  610 
//  611  
//  612  
//  613  extern unsigned char Rs485_1_buf_rx_tx[MAX_BUF_RS485_1];
//  614  extern unsigned char Rs485_2_buf_rx_tx[MAX_BUF_RS485_2];
//  615  extern unsigned char Rs232_2_buf_rx_tx[MAX_BUF_RS232_2];
//  616  
//  617  
//  618   extern struct                   //ńňđóęňóđŕ îďčńűâŕţůŕ˙ đŕáîňó ďîđňŕ "RS485_1" 
//  619   {
//  620   unsigned int  cnt_bt_rx_tx;       // ń÷ĺň÷čę áŕéňîâ íŕ ďđčĺě-ďĺđĺäŕ÷ó
//  621   unsigned int  cnt_tm_tx_out;    // ń÷ĺň÷čę âđĺěĺíč íŕ óäĺđćŕíčĺ rts ďîńëĺ ďĺđĺäŕ÷č
//  622   unsigned int  cnt_tm_pre_tx;    // ń÷ĺň÷čę âđĺěĺíč íŕ óäĺđćŕíčĺ rts ďĺđĺä ďĺđĺäŕ÷č
//  623   unsigned int  vol_tm_tx_out;    // ďđĺäĺë ń÷ĺň÷čę âđĺěĺíč íŕ óäĺđćŕíčĺ rts ďîńëĺ ďĺđĺäŕ÷č
//  624   unsigned int  cnt_tm_rx_out;   //  ń÷ĺň÷čę âđĺěĺíč íŕ îďđĺäĺëĺíčĺ ęîíöŕ ďđčĺěŕ
//  625   unsigned int  vol_tm_rx_out;   //  ďđĺäĺë âđĺěĺíč íŕ îďđĺäĺëĺíčĺ ęîíöŕ ďđčĺěŕ
//  626   unsigned int  cnt_tm_out;     // ń÷ĺň÷čę âđĺěĺíč íŕ ďđčĺě 
//  627   unsigned int  vol_tm_out;     // ďđĺäĺë ń÷ĺň÷čęŕ âđĺěĺíč íŕ ďđčĺě 
//  628   unsigned char *p_data485;   // óęŕçŕňĺëü íŕ áóôĺđ ďĺđĺäŕ÷č
//  629   }Rs485_1,Rs485_2,Rs232_2;
//  630  
//  631  
//  632 
//  633  
//  634  extern unsigned char state_led_md;
//  635  
//  636 
//  637 unsigned long int summa_temperatura;         
//  638 unsigned int temperatura;
//  639 unsigned int count_summa_temperatura; 
//  640  
//  641  
//  642 unsigned long int cnt_outcom,cnt_incom;
cnt_outcom:
        DS 4
cnt_incom:
        DS 4
prov_ozu:
        DS 2
temperatura:
        DS 2
//  643 unsigned char time_cnt_ch_time;
time_cnt_ch_time:
        DS 1
//  644 struct
//  645  {  
//  646   unsigned char wr :1;
//  647  }fl_truffic;
fl_truffic:
        DS 1

        RSEG NEAR_N:DATA:NOROOT(0)
//  648 
//  649 
//  650 
//  651  __no_init unsigned int crc_tii;
crc_tii:
        DS 2
//  652  __no_init unsigned int cnt_tii[8];
cnt_tii:
        DS 16
simka:
        DS 1

        RSEG NEAR_Z:DATA:NOROOT(0)
        REQUIRE `?<Segment init: NEAR_Z>`
Appl_RS485_1:
        DS 19
Appl_RS485_2:
        DS 19
cnt_no_link:
        DS 4
cnt_link_res:
        DS 4
count_tx_ppp:
        DS 2
cnt_cts_off:
        DS 2
state_modem:
        DS 1
event_modem:
        DS 1
command_AT:
        DS 1
cnt_stm_tm1:
        DS 1
cnt_stm_tm2:
        DS 1
Fl_ch_sim:
        DS 1
fl_wdt:
        DS 1
fl_cts_232_ignor:
        DS 1
fl_tx485:
        DS 1
fl_appl_seq:
        DS 1
fl_appl_seq1:
        DS 1
layer_PPP:
        DS 1
//  653 
//  654  
//  655 unsigned char sel_modul,count_ppp_down;
count_ppp_down:
        DS 1

        RSEG NEAR_Z:DATA:NOROOT(0)
        REQUIRE `?<Segment init: NEAR_Z>`
cnt_key_off:
        DS 2

        RSEG NEAR_Z:DATA:NOROOT(0)
        REQUIRE `?<Segment init: NEAR_Z>`
Appl_RS232_2:
        DS 19
buf_opt_tr:
        DS 20

        RSEG NEAR_Z:DATA:NOROOT(0)
        REQUIRE `?<Segment init: NEAR_Z>`
buf_tx_232:
        DS 1100

        RSEG NEAR_Z:DATA:NOROOT(0)
        REQUIRE `?<Segment init: NEAR_Z>`
ip_self:
        DS 4
vol_tx_ppp:
        DS 2
fl_cts_232:
        DS 1
fl_reg3:
        DS 1

        RSEG NEAR_Z:DATA:NOROOT(0)
        REQUIRE `?<Segment init: NEAR_Z>`
Buf1_rx_ppp:
        DS 335

        RSEG NEAR_Z:DATA:NOROOT(0)
        REQUIRE `?<Segment init: NEAR_Z>`
Buf2_rx_ppp:
        DS 335

        RSEG NEAR_Z:DATA:NOROOT(0)
        REQUIRE `?<Segment init: NEAR_Z>`
Appl_seq:
        DS 26
Control:
        DS 18
ip_ls:
        DS 4
vol_cnt_no_link:
        DS 4
vol_cnt_link_res:
        DS 4
num_self:
        DS 2
num_seq_cl:
        DS 2
port_udp:
        DS 2
Appl_seq_des:
        DS 1

        RSEG NEAR_Z:DATA:NOROOT(0)
        REQUIRE `?<Segment init: NEAR_Z>`
Appl_RS485_1_data_buf:
        DS 204

        RSEG NEAR_Z:DATA:NOROOT(0)
        REQUIRE `?<Segment init: NEAR_Z>`
Appl_RS485_2_data_buf:
        DS 204

        RSEG NEAR_Z:DATA:NOROOT(0)
        REQUIRE `?<Segment init: NEAR_Z>`
Appl_RS232_2_data_buf:
        DS 200

        RSEG NEAR_Z:DATA:NOROOT(0)
        REQUIRE `?<Segment init: NEAR_Z>`
state_seq:
        DS 1
sv1:
        DS 1
sv2:
        DS 1
sel_modul:
        DS 1

        RSEG NEAR_Z:DATA:NOROOT(0)
        REQUIRE `?<Segment init: NEAR_Z>`
Appl_seq_buf:
        DS 200

        RSEG NEAR_Z:DATA:NOROOT(0)
        REQUIRE `?<Segment init: NEAR_Z>`
summa_temperatura:
        DS 4

        RSEG NEAR_Z:DATA:NOROOT(0)
        REQUIRE `?<Segment init: NEAR_Z>`
count_summa_temperatura:
        DS 2
//  656  
//  657 

        RSEG FARCODE:CODE:NOROOT(1)
//  658 void lock_it(void)
lock_it:
??lock_it_0:
        CFI Block cfiBlock0 Using cfiCommon0
        CFI Function lock_it
//  659                 {
//  660                 do
//  661                     {   
//  662                
//  663                       SREG=0;        
        LDI	R16, 0
        OUT	0x3F, R16
//  664                       WDTCSR=0x18;     
        LDI	R16, 24
        STS	96, R16
//  665                       WDTCSR=0x0f;     
        LDI	R16, 15
        STS	96, R16
//  666                      } while(1);
        RJMP	??lock_it_0
        CFI EndBlock cfiBlock0
//  667                     }      
//  668 
//  669 void delay(unsigned int period)
//  670   {
//  671   bad:
//  672   period--;
//  673   if(period !=0) goto bad;
//  674   }
//  675 
//  676 
//  677 void long_delay(unsigned long int period)
//  678 {
//  679   bad1:
//  680   period--;
//  681   __watchdog_reset();
//  682   if(period !=0) goto bad1;
//  683 }
//  684 
//  685 
//  686 void delay_on_contr(void)
//  687 {
//  688 unsigned char delay_count;
//  689 
//  690 delay_count=18;
//  691 
//  692 S1_RD;
//  693 S2_RD;
//  694 S3_RD;
//  695 S4_RD;
//  696 S5_RD;
//  697 
//  698                     
//  699                       do
//  700                           {   
//  701                               __watchdog_reset();
//  702                               delay(60000);
//  703                               delay(60000);
//  704                               delay(60000);
//  705                               delay(60000);
//  706                               delay(60000);
//  707                               __watchdog_reset();
//  708                               S1_CH;
//  709                               S2_CH;
//  710                               S3_CH;
//  711                               S4_CH;
//  712                               S5_CH;
//  713                               delay_count--;
//  714                            } while(delay_count!=0);
//  715 
//  716 S1_OFF;
//  717 S2_OFF;
//  718 S3_OFF;
//  719 S4_OFF;
//  720 S5_OFF;
//  721 }
//  722 
//  723 unsigned char crc_485(unsigned char num, unsigned char *p)
//  724   {
//  725   char i,ds_crc1;
//  726     ds_crc1=0;
//  727                for (i=0;i<num;i++)
//  728                                 {
//  729                                 ds_crc1=tab_crc[ds_crc1 ^ *p];
//  730                                 p++;
//  731                                 //ds_crc=tuta();
//  732                                  }
//  733   return(ds_crc1);
//  734          }
//  735 
//  736 
//  737  unsigned int crc_m1(unsigned char *ka,unsigned int num,unsigned int crc)   
//  738 
//  739      {
//  740       unsigned char uchCRCHi,uIndex;
//  741       unsigned char uchCRCLo;
//  742       unsigned int ii;      
//  743       uchCRCLo=crc;  
//  744       uchCRCHi=crc>>8;
//  745    
//  746       
//  747                    for (ii=0;ii<num;ii++)
//  748                   {
//  749     
//  750        uIndex = uchCRCHi ^ *ka++;
//  751 
//  752        uchCRCHi = uchCRCLo ^ auchCRCHi[uIndex];
//  753 
//  754        uchCRCLo = auchCRCLo[uIndex];
//  755        
//  756       }
//  757 
//  758      return (uchCRCHi << 8  | uchCRCLo);
//  759 
//  760      }
//  761 
//  762 
//  763 
//  764 unsigned char check_cts(void)
//  765 { 
//  766  // if (PINE & CTS0)
//  767   if ((PINE & CTS0)==0)     
//  768   {
//  769   fl_cts_232.on=1;
//  770   return(1);
//  771   } //proverka CTS
//  772   return(0);  
//  773 }  
//  774 
//  775 
//  776 
//  777 void s_port(unsigned char ch)
//  778       {                             
//  779       wawa: 
//  780       if((UCSR2A & 0x20) ==0) goto wawa;
//  781       UDR2=ch;
//  782       }
//  783 
//  784 
//  785  void    mov_s (char size, char __flash *p)
//  786       {     
//  787        while(size--) s_port(*p++);
//  788       } 
//  789  
//  790 
//  791  void    mov_buf (char size,unsigned char * p)
//  792       {     
//  793        while(size--) s_port(*p++);
//  794       }
//  795 
//  796 
//  797 void    mov_lf (void)
//  798      {     
//  799      s_port(0xd);
//  800      s_port(0xa);
//  801      }      
//  802 
//  803 
//  804 unsigned int func_crc_tii(void)
//  805 {
//  806   unsigned char uchCRCHi;
//  807   unsigned char uchCRCLo;
//  808   unsigned char temp,i;
//  809   
//  810   
//  811   
//  812   uchCRCLo=0xff;  
//  813   uchCRCHi=0xff;
//  814   
//  815   for(i=0;i<8;i++)
//  816   {  
//  817   temp=cnt_tii[i];
//  818   uchCRCHi = uchCRCLo ^ auchCRCHi[uchCRCHi ^ temp];
//  819   uchCRCLo = auchCRCLo[uchCRCHi ^ temp];
//  820   temp=cnt_tii[i]>>8;
//  821   uchCRCHi = uchCRCLo ^ auchCRCHi[uchCRCHi ^ temp];
//  822   uchCRCLo = auchCRCLo[uchCRCHi ^ temp];
//  823   }
//  824 return (uchCRCHi << 8  | uchCRCLo);  
//  825   
//  826 }
//  827 
//  828 
//  829 
//  830 unsigned int crc_ozu(void)
//  831    
//  832 
//  833      {
//  834       unsigned char uchCRCHi;
//  835       unsigned char uchCRCLo;
//  836       unsigned char temp;
//  837       
//  838       uchCRCLo=0xff;  
//  839       uchCRCHi=0xff;
//  840          
//  841       uchCRCHi = uchCRCLo ^ auchCRCHi[uchCRCHi ^ ip_ls[0]];
//  842       uchCRCLo = auchCRCLo[uchCRCHi ^ ip_ls[0]];
//  843       uchCRCHi = uchCRCLo ^ auchCRCHi[uchCRCHi ^ ip_ls[1]];
//  844       uchCRCLo = auchCRCLo[uchCRCHi ^ ip_ls[1]];
//  845       uchCRCHi = uchCRCLo ^ auchCRCHi[uchCRCHi ^ ip_ls[2]];
//  846       uchCRCLo = auchCRCLo[uchCRCHi ^ ip_ls[2]];
//  847       uchCRCHi = uchCRCLo ^ auchCRCHi[uchCRCHi ^ ip_ls[3]];
//  848       uchCRCLo = auchCRCLo[uchCRCHi ^ ip_ls[3]];
//  849       
//  850       temp=port_udp;
//  851       uchCRCHi = uchCRCLo ^ auchCRCHi[uchCRCHi ^ temp];
//  852       uchCRCLo = auchCRCLo[uchCRCHi ^ temp];
//  853       temp=port_udp>>8;
//  854       uchCRCHi = uchCRCLo ^ auchCRCHi[uchCRCHi ^ temp];
//  855       uchCRCLo = auchCRCLo[uchCRCHi ^ temp];
//  856       
//  857       temp=num_self;
//  858       uchCRCHi = uchCRCLo ^ auchCRCHi[uchCRCHi ^ temp];
//  859       uchCRCLo = auchCRCLo[uchCRCHi ^ temp];
//  860       temp=num_self>>8;
//  861       uchCRCHi = uchCRCLo ^ auchCRCHi[uchCRCHi ^ temp];
//  862       uchCRCLo = auchCRCLo[uchCRCHi ^ temp];
//  863       
//  864       temp=Control.vol_nat;
//  865       uchCRCHi = uchCRCLo ^ auchCRCHi[uchCRCHi ^ temp];
//  866       uchCRCLo = auchCRCLo[uchCRCHi ^ temp];
//  867       temp=Control.vol_nat>>8;
//  868       uchCRCHi = uchCRCLo ^ auchCRCHi[uchCRCHi ^ temp];
//  869       uchCRCLo = auchCRCLo[uchCRCHi ^ temp];
//  870       
//  871       temp=Control.vol_nat_r;
//  872       uchCRCHi = uchCRCLo ^ auchCRCHi[uchCRCHi ^ temp];
//  873       uchCRCLo = auchCRCLo[uchCRCHi ^ temp];
//  874       temp=Control.vol_nat_r>>8;
//  875       uchCRCHi = uchCRCLo ^ auchCRCHi[uchCRCHi ^ temp];
//  876       uchCRCLo = auchCRCLo[uchCRCHi ^ temp];
//  877       
//  878       temp=Control.vol_link;
//  879       uchCRCHi = uchCRCLo ^ auchCRCHi[uchCRCHi ^ temp];
//  880       uchCRCLo = auchCRCLo[uchCRCHi ^ temp];
//  881       temp=Control.vol_link>>8;
//  882       uchCRCHi = uchCRCLo ^ auchCRCHi[uchCRCHi ^ temp];
//  883       uchCRCLo = auchCRCLo[uchCRCHi ^ temp];
//  884       
//  885       temp=Control.vol_waits;
//  886       uchCRCHi = uchCRCLo ^ auchCRCHi[uchCRCHi ^ temp];
//  887       uchCRCLo = auchCRCLo[uchCRCHi ^ temp];
//  888       temp=Control.vol_waits>>8;
//  889       uchCRCHi = uchCRCLo ^ auchCRCHi[uchCRCHi ^ temp];
//  890       uchCRCLo = auchCRCLo[uchCRCHi ^ temp];
//  891       
//  892       temp=Control.vol_try;
//  893       uchCRCHi = uchCRCLo ^ auchCRCHi[uchCRCHi ^ temp];
//  894       uchCRCLo = auchCRCLo[uchCRCHi ^ temp];
//  895       temp=Control.vol_try>>8;
//  896       uchCRCHi = uchCRCLo ^ auchCRCHi[uchCRCHi ^ temp];
//  897       uchCRCLo = auchCRCLo[uchCRCHi ^ temp];
//  898       
//  899       
//  900       //!!!!!!!!!!!!!!!!!! dobavka
//  901       temp=vol_cnt_no_link;
//  902       uchCRCHi = uchCRCLo ^ auchCRCHi[uchCRCHi ^ temp];
//  903       uchCRCLo = auchCRCLo[uchCRCHi ^ temp];
//  904       temp=vol_cnt_no_link>>8;
//  905       uchCRCHi = uchCRCLo ^ auchCRCHi[uchCRCHi ^ temp];
//  906       uchCRCLo = auchCRCLo[uchCRCHi ^ temp];
//  907       temp=vol_cnt_no_link>>16;
//  908       uchCRCHi = uchCRCLo ^ auchCRCHi[uchCRCHi ^ temp];
//  909       uchCRCLo = auchCRCLo[uchCRCHi ^ temp];
//  910       temp=vol_cnt_no_link>>24;
//  911       uchCRCHi = uchCRCLo ^ auchCRCHi[uchCRCHi ^ temp];
//  912       uchCRCLo = auchCRCLo[uchCRCHi ^ temp];
//  913       
//  914       temp=vol_cnt_link_res;
//  915       uchCRCHi = uchCRCLo ^ auchCRCHi[uchCRCHi ^ temp];
//  916       uchCRCLo = auchCRCLo[uchCRCHi ^ temp];
//  917       temp=vol_cnt_link_res>>8;
//  918       uchCRCHi = uchCRCLo ^ auchCRCHi[uchCRCHi ^ temp];
//  919       uchCRCLo = auchCRCLo[uchCRCHi ^ temp];
//  920       temp=vol_cnt_link_res>>16;
//  921       uchCRCHi = uchCRCLo ^ auchCRCHi[uchCRCHi ^ temp];
//  922       uchCRCLo = auchCRCLo[uchCRCHi ^ temp];
//  923       temp=vol_cnt_link_res>>24;
//  924       uchCRCHi = uchCRCLo ^ auchCRCHi[uchCRCHi ^ temp];
//  925       uchCRCLo = auchCRCLo[uchCRCHi ^ temp];
//  926       //EEEEEEEEEEEEEEEEEEEEEEEEE dobavka
//  927       
//  928       uchCRCHi = uchCRCLo ^ auchCRCHi[uchCRCHi ^ Appl_seq_des];
//  929       uchCRCLo = auchCRCLo[uchCRCHi ^ Appl_seq_des];
//  930       
//  931       uchCRCHi = uchCRCLo ^ auchCRCHi[uchCRCHi ^ struct_tcc1.type];
//  932       uchCRCLo = auchCRCLo[uchCRCHi ^ struct_tcc1.type];
//  933       
//  934       uchCRCHi = uchCRCLo ^ auchCRCHi[uchCRCHi ^ struct_tcc2.type];
//  935       uchCRCLo = auchCRCLo[uchCRCHi ^ struct_tcc2.type];
//  936       
//  937       
//  938       temp=num_seq_cl;
//  939       uchCRCHi = uchCRCLo ^ auchCRCHi[uchCRCHi ^ temp];
//  940       uchCRCLo = auchCRCLo[uchCRCHi ^ temp];
//  941       temp=num_seq_cl>>8;
//  942       uchCRCHi = uchCRCLo ^ auchCRCHi[uchCRCHi ^ temp];
//  943       uchCRCLo = auchCRCLo[uchCRCHi ^ temp];
//  944       
//  945       temp=Appl_seq.vol_tm_vzat;
//  946       uchCRCHi = uchCRCLo ^ auchCRCHi[uchCRCHi ^ temp];
//  947       uchCRCLo = auchCRCLo[uchCRCHi ^ temp];
//  948       temp=Appl_seq.vol_tm_vzat>>8;
//  949       uchCRCHi = uchCRCLo ^ auchCRCHi[uchCRCHi ^ temp];
//  950       uchCRCLo = auchCRCLo[uchCRCHi ^ temp];
//  951      
//  952       temp=Appl_seq.vol_cntr_cl;
//  953       uchCRCHi = uchCRCLo ^ auchCRCHi[uchCRCHi ^ temp];
//  954       uchCRCLo = auchCRCLo[uchCRCHi ^ temp];
//  955       temp=Appl_seq.vol_cntr_cl>>8;
//  956       uchCRCHi = uchCRCLo ^ auchCRCHi[uchCRCHi ^ temp];
//  957       uchCRCLo = auchCRCLo[uchCRCHi ^ temp];
//  958       
//  959       return (uchCRCHi << 8  | uchCRCLo);
//  960 
//  961      } 
//  962 
//  963 
//  964 void load_rw_pdp(void)
//  965 {
//  966  char buf[70];
//  967  unsigned char i,j,temp;
//  968  unsigned int kol;
//  969  
//  970  buf[69]=0;
//  971  
//  972  if((MCUSR & 0x01)!=0x01)return;
//  973 
//  974  if (e_rw_pdp!=0)return;
//  975  RdFromFleshToArr(ABUF_C_GPRS,&buf[0],L_C_GPRS_MAX-2);                                                                     
//  976  if(buf[0]!=0)
//  977    {
//  978     j=0;
//  979     kol=0;
//  980     
//  981        temp=strlen(&buf[j]);
//  982        if(temp>35){e_rw_pdp=0xff;return;}
//  983        buf_tx_232[j]=temp;
//  984        for(i=0;i<temp;i++) {buf_tx_232[j+1]=buf[j];j++;}
//  985        kol=kol+temp;
//  986        
//  987        j++;
//  988        temp=strlen(&buf[j]);
//  989        if(temp>15){e_rw_pdp=0xff;return;}
//  990        buf_tx_232[j]=temp;
//  991        for(i=0;i<temp;i++) {buf_tx_232[j+1]=buf[j];j++;}
//  992        kol=kol+temp;
//  993     
//  994        j++;
//  995        temp=strlen(&buf[j]);
//  996        if(temp>15){e_rw_pdp=0xff;return;}
//  997        buf_tx_232[j]=temp;
//  998        for(i=0;i<temp;i++) {buf_tx_232[j+1]=buf[j];j++;}
//  999        kol=kol+temp;
// 1000        
// 1001        kol=kol+3;      
// 1002        if(kol>(L_C_GPRS_MAX-2)){e_rw_pdp=0xff;return;}
// 1003        
// 1004        *(unsigned int*)&buf_tx_232[L_C_GPRS_MAX-2]=crc_m1(&buf_tx_232[0],L_C_GPRS_MAX-2,0xffff);
// 1005        WrArrayToFlesh(A_C_GPRS, &buf_tx_232[0],L_C_GPRS_MAX,0,0);
// 1006        
// 1007    }
// 1008  e_rw_pdp=0xff;  
// 1009 } 
// 1010 
// 1011 
// 1012 
// 1013 void load_rw_pdp_r(void)
// 1014 {
// 1015  char buf[70];
// 1016  unsigned char i,j,temp;
// 1017  unsigned int kol;
// 1018  
// 1019  buf[69]=0;
// 1020  
// 1021  if((MCUSR & 0x01)!=0x01)return;
// 1022 
// 1023  if (e_rw_pdp_r!=0)return;
// 1024  RdFromFleshToArr(ABUF_CR_GPRS,&buf[0],L_CR_GPRS_MAX-2);                                                                     
// 1025  if(buf[0]!=0)
// 1026    {
// 1027     j=0;
// 1028     kol=0;
// 1029     
// 1030        temp=strlen(&buf[j]);
// 1031        if(temp>35){e_rw_pdp_r=0xff;return;}
// 1032        buf_tx_232[j]=temp;
// 1033        for(i=0;i<temp;i++) {buf_tx_232[j+1]=buf[j];j++;}
// 1034        kol=kol+temp;
// 1035        
// 1036        j++;
// 1037        temp=strlen(&buf[j]);
// 1038        if(temp>15){e_rw_pdp_r=0xff;return;}
// 1039        buf_tx_232[j]=temp;
// 1040        for(i=0;i<temp;i++) {buf_tx_232[j+1]=buf[j];j++;}
// 1041        kol=kol+temp;
// 1042     
// 1043        j++;
// 1044        temp=strlen(&buf[j]);
// 1045        if(temp>15){e_rw_pdp_r=0xff;return;}
// 1046        buf_tx_232[j]=temp;
// 1047        for(i=0;i<temp;i++) {buf_tx_232[j+1]=buf[j];j++;}
// 1048        kol=kol+temp;
// 1049        
// 1050        kol=kol+3;      
// 1051        if(kol>(L_CR_GPRS_MAX-2)){e_rw_pdp_r=0xff;return;}
// 1052        
// 1053        *(unsigned int*)&buf_tx_232[L_C_GPRS_MAX-2]=crc_m1(&buf_tx_232[0],L_CR_GPRS_MAX-2,0xffff);
// 1054        WrArrayToFlesh(A_CR_GPRS, &buf_tx_232[0],L_CR_GPRS_MAX,0,0);
// 1055        
// 1056    }
// 1057  e_rw_pdp_r=0xff;  
// 1058 } 
// 1059 
// 1060 
// 1061 void load_par_first_flash(void)
// 1062 {
// 1063   unsigned int buf;
// 1064   unsigned char buf1[4];
// 1065   
// 1066   RdFromFleshToArrInt(A_FIRST_ON, &buf,1);
// 1067   if(buf!=FLAG_FIRS_ON)
// 1068       {
// 1069         WrArrayToFleshInt(A_FIRST_ON,&buf,1,1,FLAG_FIRS_ON);
// 1070 
// 1071        
// 1072         ust_vhod=DEF_TM_VHOD;
// 1073         WrArrayToFleshInt(A_SEG9,&ust_vhod,1,0,0);  //çŕďčńü ęîí
// 1074         
// 1075        
// 1076        buf1[0]=TCH18_B1;
// 1077        buf1[1]=TCH18_B2;
// 1078        buf1[2]=TCH18_B3;
// 1079        buf1[3]=TCH18_B4;
// 1080        WrArrayToFlesh(A_SEG6+68,&buf1[0],4,0,0);
// 1081        
// 1082        buf1[0]=TCH19_B1;
// 1083        buf1[1]=TCH19_B2;
// 1084        buf1[2]=TCH19_B3;
// 1085        buf1[3]=TCH19_B4;
// 1086        WrArrayToFlesh(A_SEG6+72,&buf1[0],4,0,0);
// 1087        
// 1088        buf1[0]=TCH_B1;
// 1089        buf1[1]=TCH_B2;
// 1090        buf1[2]=TCH_B3;
// 1091        buf1[3]=TCH_B4;
// 1092        WrArrayToFlesh(A_SEG6+76,&buf1[0],4,0,0);
// 1093        
// 1094       }
// 1095 
// 1096 
// 1097 
// 1098 
// 1099 }
// 1100 
// 1101 void load_par_from_memory(void)
// 1102 {
// 1103 unsigned char buf[20],m;
// 1104   
// 1105 
// 1106 RdFromFleshToArr(A_IP_PAR,&buf[0],L_IP_PAR);
// 1107 if(*(unsigned int*)&buf[OFS_IP_PAR_CRC]!=crc_m1(&buf[0],L_IP_PAR-2,0xffff))
// 1108   {
// 1109    
// 1110    ip_ls[0]=DEF_IP_SRV_0;
// 1111    ip_ls[1]=DEF_IP_SRV_1;
// 1112    ip_ls[2]=DEF_IP_SRV_2;
// 1113    ip_ls[3]=DEF_IP_SRV_3;
// 1114    num_self=DEF_NUM_SELF;
// 1115    port_udp=DEF_UDP_PORT;
// 1116   }
// 1117   else
// 1118   {  
// 1119   
// 1120    ip_ls[0]=buf[OFS_IP];
// 1121    ip_ls[1]=buf[OFS_IP+1];
// 1122    ip_ls[2]=buf[OFS_IP+2];
// 1123    ip_ls[3]=buf[OFS_IP+3];
// 1124    port_udp=*(unsigned int*)&buf[OFS_PORT];
// 1125    num_self=*(unsigned int*)&buf[OFS_NUM];
// 1126   }
// 1127 
// 1128 
// 1129   
// 1130 RdFromFleshToArr(A_C_PAR,&buf[0],L_C_PAR);
// 1131 if(*(unsigned int*)&buf[OFS_C_PAR_CRC]!=crc_m1(&buf[0],L_C_PAR-2,0xffff))
// 1132   {
// 1133   
// 1134    Control.vol_nat=DEF_CNTR_NAT;
// 1135    Control.vol_nat_r=DEF_CNTR_NAT_R;
// 1136    Control.vol_link=DEF_CNTR_LINK;
// 1137    Control.vol_waits=DEF_CNTR_LINK_WAITS;
// 1138    Control.vol_try=DEF_TM_CNTR_LINK/Control.vol_waits;  
// 1139    
// 1140    vol_cnt_no_link=DEF_TM_NO_LINK * 60;  //dobavka
// 1141    vol_cnt_link_res=DEF_TM_LINK_RES * 60;  //dobavka
// 1142    
// 1143   }
// 1144   else
// 1145   {
// 1146    
// 1147    Control.vol_nat=*(unsigned int*)&buf[OFS_NAT];
// 1148    Control.vol_link=*(unsigned int*)&buf[OFS_CCH];
// 1149    Control.vol_waits=DEF_CNTR_LINK_WAITS;
// 1150    Control.vol_try=*(unsigned int*)&buf[OFS_TM_CH]/Control.vol_waits;
// 1151    
// 1152    vol_cnt_no_link=*(unsigned int*)&buf[OFS_TM_NO_LINK]*60;   //dobavka
// 1153    vol_cnt_link_res=*(unsigned int*)&buf[OFS_TM_LINK_RES]*60; //dobavka
// 1154    
// 1155    Control.vol_nat_r=*(unsigned int*)&buf[OFS_NAT_R];
// 1156   }
// 1157 
// 1158 
// 1159 
// 1160 RdFromFleshToArr(A_SEQ_PAR,&buf[0],L_SEQ_PAR);
// 1161 if(*(unsigned int*)&buf[OFS_SEQ_PAR_CRC]!=crc_m1(&buf[0],L_SEQ_PAR-2,0xffff))
// 1162   {
// 1163    
// 1164    Appl_seq_des=~DEF_DES_SEQ;
// 1165    num_seq_cl=DEF_NUM_DST_SEQ;
// 1166    Appl_seq.vol_tm_vzat=DEF_VOL_TM_VZAT;
// 1167    Appl_seq.vol_cntr_cl=DEF_TM_CNTR_CL;
// 1168    struct_tcc1.type=DEF_TP_TS1;
// 1169    struct_tcc2.type=DEF_TP_TS1;
// 1170   }
// 1171   else
// 1172   {
// 1173  
// 1174   Appl_seq_des=buf[OFS_DES_SEQ];
// 1175   num_seq_cl=*(unsigned int*)&buf[OFS_NUM_CL];
// 1176   Appl_seq.vol_tm_vzat=*(unsigned int*)&buf[OFS_TM_VZ];
// 1177   Appl_seq.vol_cntr_cl=*(unsigned int*)&buf[OFS_TM_CL];
// 1178   struct_tcc1.type=buf[OFS_TP_TS];
// 1179   struct_tcc2.type=buf[OFS_TP_TS+1];
// 1180   }
// 1181  
// 1182 
// 1183 RdFromFleshToArr(A_TRAF,&buf[0],L_TRAF);
// 1184 if(*(unsigned int*)&buf[L_TRAF-2]!=crc_m1(&buf[0],L_TRAF-2,0xffff))
// 1185   {      
// 1186    *(unsigned long int*)&buf[0]=burst_ds_r();
// 1187    *(unsigned long int*)&buf[4]=0;
// 1188    *(unsigned long int*)&buf[8]=0;
// 1189    *(unsigned int*)&buf[L_TRAF-2]=crc_m1(&buf[0],L_TRAF-2,0xffff);
// 1190    WrArrayToFlesh(A_TRAF, &buf[0],L_TRAF,0,0);
// 1191    cnt_outcom=0;
// 1192    cnt_incom=0;
// 1193   }
// 1194   else
// 1195   {  
// 1196   
// 1197    cnt_outcom=*(unsigned long int*)&buf[4];
// 1198    cnt_incom=*(unsigned long int*)&buf[8];
// 1199   }
// 1200 
// 1201 
// 1202 for(m=0;m<8;m++)
// 1203  {
// 1204  RdFromFleshToArr(STRUCT_TII+m*14,&buf[0],14); 
// 1205  if(*(int*)&buf[12]!=crc_sum(&buf[0],12))WrArrayToFlesh(STRUCT_TII+m*14,0,14,1,0); 
// 1206  }
// 1207 
// 1208 
// 1209  
// 1210 RdFromFleshToArr(A_IND_DNS,&buf[0],2);
// 1211 /*
// 1212 arr_cnt_tii_heap=buf[0];
// 1213 if ( arr_cnt_tii_heap >99  | arr_cnt_tii_heap ==0 ) {WrArrayToFlesh(A_IND_DNS,0,2,1,0);arr_cnt_tii_heap=0;}
// 1214 */                                      
// 1215 modbus_mem1[AD_IND_DNS]=*(unsigned long int*)&buf[0];
// 1216 if ( modbus_mem1[AD_IND_DNS] >99  | modbus_mem1[AD_IND_DNS] ==0 ) {WrArrayToFlesh(A_IND_DNS,0,2,1,0);modbus_mem1[AD_IND_DNS]=0;}
// 1217 
// 1218 RdFromFleshToArr(A_IND_GZU,&buf[0],2);
// 1219 modbus_mem1[AD_IND_GZU]=*(unsigned long int*)&buf[0];
// 1220 if ( modbus_mem1[AD_IND_GZU] >54  | modbus_mem1[AD_IND_GZU] ==0 ) {WrArrayToFlesh(A_IND_GZU,0,2,1,0);modbus_mem1[AD_IND_GZU]=0;}
// 1221 
// 1222 RdFromFleshToArr(A_SEG3,(unsigned char *)&c2_byte.mb[0],SEG3*2);
// 1223 
// 1224 RdFromFleshToArrInt(A_SEG9,&ust_vhod,1);
// 1225 RdFromFleshToArrInt(A_SEG8, &c_config_tc[0],SEG8);
// 1226 c_config_tc[0x17]=0;  // ýňî ňđčăĺđű ŕâŕđčé ŇČŇ
// 1227 RdFromFleshToArr(A_SEG99,(unsigned char *)&c1_byte.mb[0],SEG99*2);  // ďŕđŕěĺňđű ĂÇÓ
// 1228 
// 1229 //RdFromFleshToArr(A_SEG8,(unsigned char *)&c_config_tc[0],SEG8*2);
// 1230 //RdFromFleshToArr(A_SEG9,(unsigned char *)&ust_vhod,SEG9*2);
// 1231 //RdFromFleshToArrInt(A_KD, &c_config_kd[0],2);
// 1232 //ust_vhod=c_config_kd[AD_TM_VHOD] & 0x1f;
// 1233 //ust_vhod=ust_vhod*1000;
// 1234 
// 1235 }
// 1236 
// 1237 void load_sel_modul(void)
// 1238 {
// 1239 RdFromFleshToArr(A_SEL_MODUL,&sel_modul,1);
// 1240 }
// 1241 
// 1242 void start_func_stm_off(void)
// 1243 {
// 1244   S2_OFF;
// 1245   
// 1246   if(Regim!=RG_DEBAG){S3_OFF;S4_OFF;S5_OFF;}
// 1247   
// 1248   state_led_md=LED_MD_OFF;
// 1249   command_AT=TRUE;// âęëţ÷ĺí ęîěěŕíäíűé đĺćčě
// 1250   CLR_PWR;   // čńőîäíîĺ ńîńňî˙íčĺ
// 1251   SET_PWRK;
// 1252   state_modem=STM_OFF;
// 1253   cnt_stm_tm1=DEF_TM_STM_OFF;
// 1254   event_modem=EVM_NONE;
// 1255   write_log_info(ST_MODEM,MDM_OFF);
// 1256   send_info(sizeof(stm_pwr_off),stm_pwr_off,0,0);
// 1257 }   
// 1258 
// 1259 
// 1260 
// 1261 void start_func_stm_koff(void)
// 1262 {
// 1263   S2_OFF;
// 1264   
// 1265   init_pins_out_to_hiz();
// 1266   
// 1267   if(Regim!=RG_DEBAG){S3_OFF;S4_OFF;S5_OFF;}
// 1268   
// 1269   state_led_md=LED_MD_OFF;
// 1270   command_AT=TRUE;// âęëţ÷ĺí ęîěěŕíäíűé đĺćčě
// 1271   CLR_PWR;  // ňîëüęî ÷ĺđĺç ńáđîń ďčňŕíč˙
// 1272   SET_PWRK;
// 1273   state_modem=STM_KOFF;
// 1274 ////  cnt_stm_tm1=DEF_TM_STM_KOFF;
// 1275   cnt_stm_tm1=DEF_TM_STM_OFF;
// 1276   
// 1277   cnt_stm_tm2=DEF_TM2_STM_OFF;
// 1278   
// 1279  // cnt_key_off=DEF_TM_KEY_OFF;  2016  !!!??
// 1280   
// 1281   event_modem=EVM_NONE;
// 1282   write_log_info(ST_MODEM,MDM_KOFF);
// 1283   send_info(sizeof(stm_pwr_koff),stm_pwr_koff,0,0);
// 1284 }   
// 1285 
// 1286 
// 1287 
// 1288 

        RSEG FARCODE:CODE:NOROOT(1)
?Subroutine319:
        CFI Block cfiCond1 Using cfiCommon0
        CFI NoFunction
        CFI Conditional ??CrossCallReturnLabel_925
        CFI R26 Frame(CFA_Y, -2)
        CFI R27 Frame(CFA_Y, -1)
        CFI CFA_SP SP+6
        CFI CFA_Y Y+2
        CFI Block cfiCond2 Using cfiCommon0
        CFI (cfiCond2) NoFunction
        CFI (cfiCond2) Conditional ??CrossCallReturnLabel_926
        CFI (cfiCond2) R26 Frame(CFA_Y, -2)
        CFI (cfiCond2) R27 Frame(CFA_Y, -1)
        CFI (cfiCond2) CFA_SP SP+6
        CFI (cfiCond2) CFA_Y Y+2
        CFI Block cfiCond3 Using cfiCommon0
        CFI (cfiCond3) NoFunction
        CFI (cfiCond3) Conditional ??CrossCallReturnLabel_927
        CFI (cfiCond3) R26 Frame(CFA_Y, -2)
        CFI (cfiCond3) R27 Frame(CFA_Y, -1)
        CFI (cfiCond3) CFA_SP SP+6
        CFI (cfiCond3) CFA_Y Y+2
        CFI Block cfiPicker4 Using cfiCommon1
        CFI (cfiPicker4) NoFunction
        CFI (cfiPicker4) Picker
        JMP	?Subroutine170
        CFI EndBlock cfiCond1
        CFI EndBlock cfiCond2
        CFI EndBlock cfiCond3
        CFI EndBlock cfiPicker4

        RSEG FARCODE:CODE:NOROOT(1)
?Subroutine318:
        CFI Block cfiCond5 Using cfiCommon0
        CFI NoFunction
        CFI Conditional ??CrossCallReturnLabel_919
        CFI R24 Frame(CFA_Y, -8)
        CFI R25 Frame(CFA_Y, -7)
        CFI R26 Frame(CFA_Y, -6)
        CFI R27 Frame(CFA_Y, -5)
        CFI R4 Frame(CFA_Y, -4)
        CFI R5 Frame(CFA_Y, -3)
        CFI R6 Frame(CFA_Y, -2)
        CFI R7 Frame(CFA_Y, -1)
        CFI CFA_SP SP+6
        CFI CFA_Y Y+28
        CFI Block cfiCond6 Using cfiCommon0
        CFI (cfiCond6) NoFunction
        CFI (cfiCond6) Conditional ??CrossCallReturnLabel_918
        CFI (cfiCond6) R24 Frame(CFA_Y, -8)
        CFI (cfiCond6) R25 Frame(CFA_Y, -7)
        CFI (cfiCond6) R26 Frame(CFA_Y, -6)
        CFI (cfiCond6) R27 Frame(CFA_Y, -5)
        CFI (cfiCond6) R4 Frame(CFA_Y, -4)
        CFI (cfiCond6) R5 Frame(CFA_Y, -3)
        CFI (cfiCond6) R6 Frame(CFA_Y, -2)
        CFI (cfiCond6) R7 Frame(CFA_Y, -1)
        CFI (cfiCond6) CFA_SP SP+6
        CFI (cfiCond6) CFA_Y Y+28
        CFI Block cfiBlock7 Using cfiCommon0
        CFI (cfiBlock7) NoFunction
        CFI Block cfiPicker8 Using cfiCommon1
        CFI (cfiPicker8) NoFunction
        CFI (cfiPicker8) Picker
        JMP	?Subroutine290
        CFI EndBlock cfiCond5
        CFI EndBlock cfiCond6
        CFI EndBlock cfiBlock7
        CFI EndBlock cfiPicker8

        RSEG FARCODE:CODE:NOROOT(1)
?Subroutine317:
        CFI Block cfiCond9 Using cfiCommon0
        CFI NoFunction
        CFI Conditional ??CrossCallReturnLabel_897
        CFI CFA_SP SP+6
        CFI CFA_Y Y+6
        CFI Block cfiCond10 Using cfiCommon0
        CFI (cfiCond10) NoFunction
        CFI (cfiCond10) Conditional ??CrossCallReturnLabel_896
        CFI (cfiCond10) CFA_SP SP+6
        CFI (cfiCond10) CFA_Y Y+6
        CFI Block cfiCond11 Using cfiCommon0
        CFI (cfiCond11) NoFunction
        CFI (cfiCond11) Conditional ??CrossCallReturnLabel_895
        CFI (cfiCond11) CFA_SP SP+6
        CFI (cfiCond11) CFA_Y Y+6
        CFI Block cfiPicker12 Using cfiCommon1
        CFI (cfiPicker12) NoFunction
        CFI (cfiPicker12) Picker
        JMP	?Subroutine149
        CFI EndBlock cfiCond9
        CFI EndBlock cfiCond10
        CFI EndBlock cfiCond11
        CFI EndBlock cfiPicker12

        RSEG FARCODE:CODE:NOROOT(1)
?Subroutine316:
        CFI Block cfiCond13 Using cfiCommon0
        CFI NoFunction
        CFI Conditional ??CrossCallReturnLabel_902
        CFI R24 Frame(CFA_Y, -8)
        CFI R25 Frame(CFA_Y, -7)
        CFI R26 Frame(CFA_Y, -6)
        CFI R27 Frame(CFA_Y, -5)
        CFI R4 Frame(CFA_Y, -4)
        CFI R5 Frame(CFA_Y, -3)
        CFI R6 Frame(CFA_Y, -2)
        CFI R7 Frame(CFA_Y, -1)
        CFI CFA_SP SP+6
        CFI CFA_Y Y+78
        CFI Block cfiCond14 Using cfiCommon0
        CFI (cfiCond14) NoFunction
        CFI (cfiCond14) Conditional ??CrossCallReturnLabel_901
        CFI (cfiCond14) R24 Frame(CFA_Y, -8)
        CFI (cfiCond14) R25 Frame(CFA_Y, -7)
        CFI (cfiCond14) R26 Frame(CFA_Y, -6)
        CFI (cfiCond14) R27 Frame(CFA_Y, -5)
        CFI (cfiCond14) R4 Frame(CFA_Y, -4)
        CFI (cfiCond14) R5 Frame(CFA_Y, -3)
        CFI (cfiCond14) R6 Frame(CFA_Y, -2)
        CFI (cfiCond14) R7 Frame(CFA_Y, -1)
        CFI (cfiCond14) CFA_SP SP+6
        CFI (cfiCond14) CFA_Y Y+78
        CFI Block cfiPicker15 Using cfiCommon1
        CFI (cfiPicker15) NoFunction
        CFI (cfiPicker15) Picker
        JMP	?Subroutine289
        CFI EndBlock cfiCond13
        CFI EndBlock cfiCond14
        CFI EndBlock cfiPicker15

        RSEG FARCODE:CODE:NOROOT(1)
?Subroutine315:
        CFI Block cfiCond16 Using cfiCommon0
        CFI NoFunction
        CFI Conditional ??CrossCallReturnLabel_878
        CFI R24 Frame(CFA_Y, -8)
        CFI R25 Frame(CFA_Y, -7)
        CFI R26 Frame(CFA_Y, -6)
        CFI R27 Frame(CFA_Y, -5)
        CFI R4 Frame(CFA_Y, -4)
        CFI R5 Frame(CFA_Y, -3)
        CFI R6 Frame(CFA_Y, -2)
        CFI R7 Frame(CFA_Y, -1)
        CFI CFA_SP SP+6
        CFI CFA_Y Y+28
        CFI Block cfiCond17 Using cfiCommon0
        CFI (cfiCond17) NoFunction
        CFI (cfiCond17) Conditional ??CrossCallReturnLabel_879
        CFI (cfiCond17) R24 Frame(CFA_Y, -8)
        CFI (cfiCond17) R25 Frame(CFA_Y, -7)
        CFI (cfiCond17) R26 Frame(CFA_Y, -6)
        CFI (cfiCond17) R27 Frame(CFA_Y, -5)
        CFI (cfiCond17) R4 Frame(CFA_Y, -4)
        CFI (cfiCond17) R5 Frame(CFA_Y, -3)
        CFI (cfiCond17) R6 Frame(CFA_Y, -2)
        CFI (cfiCond17) R7 Frame(CFA_Y, -1)
        CFI (cfiCond17) CFA_SP SP+6
        CFI (cfiCond17) CFA_Y Y+10
        CFI Block cfiCond18 Using cfiCommon0
        CFI (cfiCond18) NoFunction
        CFI (cfiCond18) Conditional ??CrossCallReturnLabel_880
        CFI (cfiCond18) R24 Frame(CFA_Y, -8)
        CFI (cfiCond18) R25 Frame(CFA_Y, -7)
        CFI (cfiCond18) R26 Frame(CFA_Y, -6)
        CFI (cfiCond18) R27 Frame(CFA_Y, -5)
        CFI (cfiCond18) R4 Frame(CFA_Y, -4)
        CFI (cfiCond18) R5 Frame(CFA_Y, -3)
        CFI (cfiCond18) R6 Frame(CFA_Y, -2)
        CFI (cfiCond18) R7 Frame(CFA_Y, -1)
        CFI (cfiCond18) CFA_SP SP+6
        CFI (cfiCond18) CFA_Y Y+10
        CFI Block cfiCond19 Using cfiCommon0
        CFI (cfiCond19) NoFunction
        CFI (cfiCond19) Conditional ??CrossCallReturnLabel_881
        CFI (cfiCond19) R24 Frame(CFA_Y, -8)
        CFI (cfiCond19) R25 Frame(CFA_Y, -7)
        CFI (cfiCond19) R26 Frame(CFA_Y, -6)
        CFI (cfiCond19) R27 Frame(CFA_Y, -5)
        CFI (cfiCond19) R4 Frame(CFA_Y, -4)
        CFI (cfiCond19) R5 Frame(CFA_Y, -3)
        CFI (cfiCond19) R6 Frame(CFA_Y, -2)
        CFI (cfiCond19) R7 Frame(CFA_Y, -1)
        CFI (cfiCond19) CFA_SP SP+6
        CFI (cfiCond19) CFA_Y Y+10
        CFI Block cfiPicker20 Using cfiCommon1
        CFI (cfiPicker20) NoFunction
        CFI (cfiPicker20) Picker
        JMP	??Subroutine158_0
        CFI EndBlock cfiCond16
        CFI EndBlock cfiCond17
        CFI EndBlock cfiCond18
        CFI EndBlock cfiCond19
        CFI EndBlock cfiPicker20
// 1289 void start_func_stm_on(void)
// 1290 {
// 1291   S2_OFF;
// 1292   
// 1293   if(Regim!=RG_DEBAG){S3_OFF;S4_OFF;S5_OFF;}
// 1294  
// 1295     //!!!! dobavka
// 1296   if(Fl_ch_sim==1)
// 1297   {
// 1298     Fl_ch_sim=0;
// 1299     simka=simka^SIM_TRIG;
// 1300     cnt_no_link=vol_cnt_no_link;
// 1301     cnt_link_res=0;    
// 1302   }
// 1303   simka=simka & 0x01; 
// 1304   if(simka==SIM_BASE)
// 1305     {
// 1306        
// 1307        SET_SIM1;
// 1308        write_log_info(ST_MODEM,BASE_SIM);
// 1309        send_info(sizeof(stm_base_sim),stm_base_sim,0,0);   
// 1310     }else
// 1311     {
// 1312       SET_SIM2;
// 1313       write_log_info(ST_MODEM,RES_SIM);
// 1314       send_info(sizeof(stm_res_sim),stm_res_sim,0,0);  
// 1315     }
// 1316   ///EEEEEEEEEEEE dobavka
// 1317   
// 1318 // A7682 ďî óěîë÷ŕíčţ 115200
// 1319  UBRR0H=R115200_H;
// 1320  UBRR0L=R115200_L;
// 1321  
// 1322   state_led_md=LED_MD_NO_CREG;
// 1323   command_AT=TRUE;// âęëţ÷ĺí ęîěěŕíäíűé đĺćčě
// 1324   SET_RTS0;
// 1325   SET_PWR;
// 1326   CLR_PWRK;
// 1327   state_modem=STM_ON;
// 1328   cnt_stm_tm1=DEF_TM_STM_ON;
// 1329   cnt_stm_tm2=DEF_TM2_STM_ON;
// 1330   event_modem=EVM_NONE; 
// 1331   // write_log_info(ST_MODEM,MDM_ON);
// 1332   send_info(sizeof(stm_pwr_on),stm_pwr_on,0,0);    //ot dobavka   
// 1333 }  
// 1334 
// 1335 void start_func_stm_kon(void)
// 1336 { 
// 1337   SET_PWRK;
// 1338   state_modem=STM_KON;
// 1339   cnt_stm_tm1=DEF_TM_STM_KON;
// 1340   event_modem=EVM_NONE; 
// 1341 
// 1342 }  
// 1343 
// 1344 void start_func_stm_pwk(void)
// 1345 { 
// 1346   CLR_PWRK
// 1347   state_modem=STM_PWK;
// 1348   cnt_stm_tm1=DEF_TM_STM_PWK;
// 1349   event_modem=EVM_NONE;
// 1350   send_info(sizeof(stm_pwr_kon),stm_pwr_kon,0,0);
// 1351 }  
// 1352 
// 1353 
// 1354 

        RSEG FARCODE:CODE:NOROOT(1)
?Subroutine314:
        CFI Block cfiCond21 Using cfiCommon0
        CFI NoFunction
        CFI Conditional ??CrossCallReturnLabel_854
        CFI R26 Frame(CFA_Y, -2)
        CFI R27 Frame(CFA_Y, -1)
        CFI CFA_SP SP+6
        CFI CFA_Y Y+2
        CFI Block cfiCond22 Using cfiCommon0
        CFI (cfiCond22) NoFunction
        CFI (cfiCond22) Conditional ??CrossCallReturnLabel_855
        CFI (cfiCond22) R26 Frame(CFA_Y, -2)
        CFI (cfiCond22) R27 Frame(CFA_Y, -1)
        CFI (cfiCond22) CFA_SP SP+6
        CFI (cfiCond22) CFA_Y Y+2
        CFI Block cfiCond23 Using cfiCommon0
        CFI (cfiCond23) NoFunction
        CFI (cfiCond23) Conditional ??CrossCallReturnLabel_856
        CFI (cfiCond23) R26 Frame(CFA_Y, -2)
        CFI (cfiCond23) R27 Frame(CFA_Y, -1)
        CFI (cfiCond23) CFA_SP SP+6
        CFI (cfiCond23) CFA_Y Y+2
        CFI Block cfiCond24 Using cfiCommon0
        CFI (cfiCond24) NoFunction
        CFI (cfiCond24) Conditional ??CrossCallReturnLabel_857
        CFI (cfiCond24) R26 Frame(CFA_Y, -2)
        CFI (cfiCond24) R27 Frame(CFA_Y, -1)
        CFI (cfiCond24) CFA_SP SP+6
        CFI (cfiCond24) CFA_Y Y+2
        CFI Block cfiCond25 Using cfiCommon0
        CFI (cfiCond25) NoFunction
        CFI (cfiCond25) Conditional ??CrossCallReturnLabel_858
        CFI (cfiCond25) R24 Frame(CFA_Y, -8)
        CFI (cfiCond25) R25 Frame(CFA_Y, -7)
        CFI (cfiCond25) R26 Frame(CFA_Y, -6)
        CFI (cfiCond25) R27 Frame(CFA_Y, -5)
        CFI (cfiCond25) R4 Frame(CFA_Y, -4)
        CFI (cfiCond25) R5 Frame(CFA_Y, -3)
        CFI (cfiCond25) R6 Frame(CFA_Y, -2)
        CFI (cfiCond25) R7 Frame(CFA_Y, -1)
        CFI (cfiCond25) CFA_SP SP+6
        CFI (cfiCond25) CFA_Y Y+17
        CFI Block cfiPicker26 Using cfiCommon1
        CFI (cfiPicker26) NoFunction
        CFI (cfiPicker26) Picker
        JMP	??Subroutine91_0
        CFI EndBlock cfiCond21
        CFI EndBlock cfiCond22
        CFI EndBlock cfiCond23
        CFI EndBlock cfiCond24
        CFI EndBlock cfiCond25
        CFI EndBlock cfiPicker26

        RSEG FARCODE:CODE:NOROOT(1)
delay:
??delay_0:
        CFI Block cfiBlock27 Using cfiCommon0
        CFI Function delay
        SUBI	R16, 1
        SBCI	R17, 0
        MOV	R18, R16
        OR	R18, R17
        BRNE	??delay_0
        RET
        CFI EndBlock cfiBlock27

        RSEG FARCODE:CODE:NOROOT(1)
long_delay:
??long_delay_0:
        CFI Block cfiBlock28 Using cfiCommon0
        CFI Function long_delay
        SUBI	R16, 1
        SBCI	R17, 0
        SBCI	R18, 0
        SBCI	R19, 0
        WDR
        MOV	R20, R16
        OR	R20, R17
        OR	R20, R18
        OR	R20, R19
        BRNE	??long_delay_0
        RET
        CFI EndBlock cfiBlock28

        RSEG FARCODE:CODE:NOROOT(1)
delay_on_contr:
        CFI Block cfiBlock29 Using cfiCommon0
        CFI Function delay_on_contr
        FUNCALL delay_on_contr, delay
        LOCFRAME CSTACK, 1, STACK
        LOCFRAME RSTACK, 3, STACK
        FUNCALL delay_on_contr, delay
        LOCFRAME CSTACK, 1, STACK
        LOCFRAME RSTACK, 3, STACK
        FUNCALL delay_on_contr, delay
        LOCFRAME CSTACK, 1, STACK
        LOCFRAME RSTACK, 3, STACK
        FUNCALL delay_on_contr, delay
        LOCFRAME CSTACK, 1, STACK
        LOCFRAME RSTACK, 3, STACK
        FUNCALL delay_on_contr, delay
        LOCFRAME CSTACK, 1, STACK
        LOCFRAME RSTACK, 3, STACK
        ST	-Y, R24
        CFI R24 Frame(CFA_Y, -1)
        CFI CFA_Y Y+1
        SBI	0x14, 0x00
        CBI	0x14, 0x01
        SBI	0x08, 0x00
        CBI	0x08, 0x01
        SBI	0x08, 0x04
        CBI	0x08, 0x05
        SBI	0x08, 0x02
        CBI	0x08, 0x03
        SBI	0x08, 0x06
        CBI	0x08, 0x07
        LDI	R24, 18
??delay_on_contr_0:
        WDR
        RCALL	?Subroutine19
??CrossCallReturnLabel_702:
        RCALL	?Subroutine19
??CrossCallReturnLabel_701:
        LDI	R16, 96
        LDI	R17, 234
        RCALL	?Subroutine285
??CrossCallReturnLabel_698:
        WDR
        LDI	R16, 1
        IN	R17, 0x14
        EOR	R17, R16
        OUT	0x14, R17
        LDI	R16, 2
        IN	R17, 0x14
        EOR	R17, R16
        OUT	0x14, R17
        LDI	R16, 1
        RCALL	?Subroutine22
??CrossCallReturnLabel_28:
        LDI	R16, 2
        RCALL	?Subroutine22
??CrossCallReturnLabel_29:
        LDI	R16, 16
        RCALL	?Subroutine22
??CrossCallReturnLabel_30:
        LDI	R16, 32
        RCALL	?Subroutine22
??CrossCallReturnLabel_31:
        LDI	R16, 4
        RCALL	?Subroutine22
??CrossCallReturnLabel_32:
        LDI	R16, 8
        RCALL	?Subroutine22
??CrossCallReturnLabel_33:
        LDI	R16, 64
        RCALL	?Subroutine22
??CrossCallReturnLabel_34:
        LDI	R16, 128
        RCALL	?Subroutine22
??CrossCallReturnLabel_35:
        DEC	R24
        BRNE	??delay_on_contr_0
        CBI	0x14, 0x00
        CBI	0x14, 0x01
        CBI	0x08, 0x00
        CBI	0x08, 0x01
        RCALL	?Subroutine16
??CrossCallReturnLabel_20:
        LD	R24, Y+
        CFI R24 SameValue
        CFI CFA_Y Y+0
        RET
        CFI EndBlock cfiBlock29

        RSEG FARCODE:CODE:NOROOT(1)
?Subroutine22:
        CFI Block cfiCond30 Using cfiCommon0
        CFI NoFunction
        CFI Conditional ??CrossCallReturnLabel_28
        CFI R24 Frame(CFA_Y, -1)
        CFI CFA_SP SP+6
        CFI CFA_Y Y+1
        CFI Block cfiCond31 Using cfiCommon0
        CFI (cfiCond31) NoFunction
        CFI (cfiCond31) Conditional ??CrossCallReturnLabel_29
        CFI (cfiCond31) R24 Frame(CFA_Y, -1)
        CFI (cfiCond31) CFA_SP SP+6
        CFI (cfiCond31) CFA_Y Y+1
        CFI Block cfiCond32 Using cfiCommon0
        CFI (cfiCond32) NoFunction
        CFI (cfiCond32) Conditional ??CrossCallReturnLabel_30
        CFI (cfiCond32) R24 Frame(CFA_Y, -1)
        CFI (cfiCond32) CFA_SP SP+6
        CFI (cfiCond32) CFA_Y Y+1
        CFI Block cfiCond33 Using cfiCommon0
        CFI (cfiCond33) NoFunction
        CFI (cfiCond33) Conditional ??CrossCallReturnLabel_31
        CFI (cfiCond33) R24 Frame(CFA_Y, -1)
        CFI (cfiCond33) CFA_SP SP+6
        CFI (cfiCond33) CFA_Y Y+1
        CFI Block cfiCond34 Using cfiCommon0
        CFI (cfiCond34) NoFunction
        CFI (cfiCond34) Conditional ??CrossCallReturnLabel_32
        CFI (cfiCond34) R24 Frame(CFA_Y, -1)
        CFI (cfiCond34) CFA_SP SP+6
        CFI (cfiCond34) CFA_Y Y+1
        CFI Block cfiCond35 Using cfiCommon0
        CFI (cfiCond35) NoFunction
        CFI (cfiCond35) Conditional ??CrossCallReturnLabel_33
        CFI (cfiCond35) R24 Frame(CFA_Y, -1)
        CFI (cfiCond35) CFA_SP SP+6
        CFI (cfiCond35) CFA_Y Y+1
        CFI Block cfiCond36 Using cfiCommon0
        CFI (cfiCond36) NoFunction
        CFI (cfiCond36) Conditional ??CrossCallReturnLabel_34
        CFI (cfiCond36) R24 Frame(CFA_Y, -1)
        CFI (cfiCond36) CFA_SP SP+6
        CFI (cfiCond36) CFA_Y Y+1
        CFI Block cfiCond37 Using cfiCommon0
        CFI (cfiCond37) NoFunction
        CFI (cfiCond37) Conditional ??CrossCallReturnLabel_35
        CFI (cfiCond37) R24 Frame(CFA_Y, -1)
        CFI (cfiCond37) CFA_SP SP+6
        CFI (cfiCond37) CFA_Y Y+1
        CFI Block cfiPicker38 Using cfiCommon1
        CFI (cfiPicker38) NoFunction
        CFI (cfiPicker38) Picker
        IN	R17, 0x08
        EOR	R17, R16
        OUT	0x08, R17
        RET
        CFI EndBlock cfiCond30
        CFI EndBlock cfiCond31
        CFI EndBlock cfiCond32
        CFI EndBlock cfiCond33
        CFI EndBlock cfiCond34
        CFI EndBlock cfiCond35
        CFI EndBlock cfiCond36
        CFI EndBlock cfiCond37
        CFI EndBlock cfiPicker38

        RSEG FARCODE:CODE:NOROOT(1)
?Subroutine19:
        CFI Block cfiCond39 Using cfiCommon0
        CFI NoFunction
        CFI Conditional ??CrossCallReturnLabel_702
        CFI R24 Frame(CFA_Y, -1)
        CFI CFA_SP SP+6
        CFI CFA_Y Y+1
        CFI Block cfiCond40 Using cfiCommon0
        CFI (cfiCond40) NoFunction
        CFI (cfiCond40) Conditional ??CrossCallReturnLabel_701
        CFI (cfiCond40) R24 Frame(CFA_Y, -1)
        CFI (cfiCond40) CFA_SP SP+6
        CFI (cfiCond40) CFA_Y Y+1
        CFI Block cfiPicker41 Using cfiCommon1
        CFI (cfiPicker41) NoFunction
        CFI (cfiPicker41) Picker
        LDI	R16, 96
        LDI	R17, 234
        RCALL	delay
        LDI	R16, 96
        LDI	R17, 234
        CFI EndBlock cfiCond39
        CFI EndBlock cfiCond40
        CFI EndBlock cfiPicker41
        REQUIRE ?Subroutine285
        ;		// Fall through to label ?Subroutine285

        RSEG FARCODE:CODE:NOROOT(1)
?Subroutine285:
        CFI Block cfiCond42 Using cfiCommon0
        CFI NoFunction
        CFI Conditional ??CrossCallReturnLabel_702
        CFI R24 Frame(CFA_Y, -1)
        CFI CFA_SP SP+6
        CFI CFA_Y Y+1
        CFI Block cfiCond43 Using cfiCommon0
        CFI (cfiCond43) NoFunction
        CFI (cfiCond43) Conditional ??CrossCallReturnLabel_701
        CFI (cfiCond43) R24 Frame(CFA_Y, -1)
        CFI (cfiCond43) CFA_SP SP+6
        CFI (cfiCond43) CFA_Y Y+1
        CFI Block cfiCond44 Using cfiCommon0
        CFI (cfiCond44) NoFunction
        CFI (cfiCond44) Conditional ??CrossCallReturnLabel_700
        CFI (cfiCond44) R24 Frame(CFA_Y, -4)
        CFI (cfiCond44) R25 Frame(CFA_Y, -3)
        CFI (cfiCond44) R26 Frame(CFA_Y, -2)
        CFI (cfiCond44) R27 Frame(CFA_Y, -1)
        CFI (cfiCond44) CFA_SP SP+6
        CFI (cfiCond44) CFA_Y Y+14
        CFI Block cfiCond45 Using cfiCommon0
        CFI (cfiCond45) NoFunction
        CFI (cfiCond45) Conditional ??CrossCallReturnLabel_699
        CFI (cfiCond45) R24 Frame(CFA_Y, -4)
        CFI (cfiCond45) R25 Frame(CFA_Y, -3)
        CFI (cfiCond45) R26 Frame(CFA_Y, -2)
        CFI (cfiCond45) R27 Frame(CFA_Y, -1)
        CFI (cfiCond45) CFA_SP SP+6
        CFI (cfiCond45) CFA_Y Y+14
        CFI Block cfiCond46 Using cfiCommon0
        CFI (cfiCond46) NoFunction
        CFI (cfiCond46) Conditional ??CrossCallReturnLabel_698
        CFI (cfiCond46) R24 Frame(CFA_Y, -1)
        CFI (cfiCond46) CFA_SP SP+6
        CFI (cfiCond46) CFA_Y Y+1
        CFI Block cfiPicker47 Using cfiCommon1
        CFI (cfiPicker47) NoFunction
        CFI (cfiPicker47) Picker
        RJMP	delay
        CFI EndBlock cfiCond42
        CFI EndBlock cfiCond43
        CFI EndBlock cfiCond44
        CFI EndBlock cfiCond45
        CFI EndBlock cfiCond46
        CFI EndBlock cfiPicker47

        RSEG FARCODE:CODE:NOROOT(1)
crc_485:
        CFI Block cfiBlock48 Using cfiCommon0
        CFI Function crc_485
        LDI	R22, 0
        LDI	R17, 0
        RJMP	??crc_485_0
??crc_485_1:
        LDI	R20, LOW(tab_crc)
        LDI	R21, (tab_crc) >> 8
        MOVW	R31:R30, R19:R18
        LD	R0, Z+
        MOVW	R19:R18, R31:R30
        CLR	R1
        EOR	R0, R22
        ADD	R20, R0
        ADC	R21, R1
        MOVW	R31:R30, R21:R20
        LPM	R22, Z
        INC	R17
??crc_485_0:
        CP	R17, R16
        BRCS	??crc_485_1
        MOV	R16, R22
        RET
        CFI EndBlock cfiBlock48

        RSEG FARCODE:CODE:NOROOT(1)
crc_m1:
        CFI Block cfiBlock49 Using cfiCommon0
        CFI Function crc_m1
        MOV	R23, R25
        MOV	R2, R24
        MOV	R22, R20
        MOV	R20, R21
        CALL	??Subroutine67_0
??CrossCallReturnLabel_66:
        RJMP	??crc_m1_0
??crc_m1_1:
        MOVW	R31:R30, R17:R16
        LD	R0, Z+
        MOVW	R17:R16, R31:R30
        EOR	R0, R20
        CLR	R1
        RCALL	??Subroutine81_0
??CrossCallReturnLabel_82:
        RCALL	?Subroutine83
??CrossCallReturnLabel_95:
        LPM	R20, Z
        EOR	R20, R22
        RCALL	?Subroutine88
??CrossCallReturnLabel_105:
        RCALL	?Subroutine83
??CrossCallReturnLabel_96:
        LPM	R22, Z
        ADIW	R25:R24, 1
??crc_m1_0:
        CP	R24, R18
        CPC	R25, R19
        BRCS	??crc_m1_1
        MOV	R16, R22
        MOV	R17, R20
        MOV	R24, R2
        MOV	R25, R23
        RET
        CFI EndBlock cfiBlock49

        RSEG FARCODE:CODE:NOROOT(1)
check_cts:
        CFI Block cfiBlock50 Using cfiCommon0
        CFI Function check_cts
        SBIC	0x0C, 0x04
        RJMP	??check_cts_0
        LDI	R30, LOW(ip_self)
        LDI	R31, (ip_self) >> 8
        LDD	R16, Z+6
        ORI	R16, 0x01
        STD	Z+6, R16
        LDI	R16, 1
        RET
??check_cts_0:
        JMP	?Subroutine271
        CFI EndBlock cfiBlock50

        RSEG FARCODE:CODE:NOROOT(1)
s_port:
??s_port_0:
        CFI Block cfiBlock51 Using cfiCommon0
        CFI Function s_port
        LDS	R17, 208
        SBRS	R17, 5
        RJMP	??s_port_0
        STS	214, R16
        RET
        CFI EndBlock cfiBlock51

        RSEG FARCODE:CODE:NOROOT(1)
mov_s:
        CFI Block cfiBlock52 Using cfiCommon0
        CFI Function mov_s
        FUNCALL mov_s, s_port
        LOCFRAME CSTACK, 3, STACK
        LOCFRAME RSTACK, 3, STACK
        CALL	?PROLOGUE3_L09
        CFI R26 Frame(CFA_Y, -1)
        CFI R25 Frame(CFA_Y, -2)
        CFI R24 Frame(CFA_Y, -3)
        CFI CFA_Y Y+3
        MOV	R26, R16
        MOVW	R25:R24, R19:R18
        RJMP	??CrossCallReturnLabel_744
??mov_s_0:
        MOVW	R31:R30, R25:R24
        LPM	R16, Z+
        MOVW	R25:R24, R31:R30
        RCALL	?Subroutine287
??CrossCallReturnLabel_744:
        MOV	R16, R26
        DEC	R26
        TST	R16
        BRNE	??mov_s_0
        LDI	R30, 3
        JMP	?EPILOGUE_B3_L09
        CFI EndBlock cfiBlock52

        RSEG FARCODE:CODE:NOROOT(1)
mov_buf:
        CFI Block cfiBlock53 Using cfiCommon0
        CFI Function mov_buf
        FUNCALL mov_buf, s_port
        LOCFRAME CSTACK, 4, STACK
        LOCFRAME RSTACK, 3, STACK
        CALL	?Subroutine101
        CFI R24 Frame(CFA_Y, -4)
        CFI R25 Frame(CFA_Y, -3)
        CFI R26 Frame(CFA_Y, -2)
        CFI R27 Frame(CFA_Y, -1)
        CFI CFA_Y Y+4
??CrossCallReturnLabel_116:
        MOV	R24, R16
        MOVW	R27:R26, R19:R18
        RJMP	??CrossCallReturnLabel_743
??mov_buf_0:
        LD	R16, X+
        RCALL	?Subroutine287
??CrossCallReturnLabel_743:
        MOV	R16, R24
        DEC	R24
        TST	R16
        BRNE	??mov_buf_0
        JMP	?Subroutine286
        CFI EndBlock cfiBlock53

        RSEG FARCODE:CODE:NOROOT(1)
mov_lf:
        CFI Block cfiBlock54 Using cfiCommon0
        CFI Function mov_lf
        FUNCALL mov_lf, s_port
        LOCFRAME RSTACK, 3, STACK
        FUNCALL mov_lf, s_port
        LOCFRAME RSTACK, 3, STACK
        CALL	?Subroutine94
??CrossCallReturnLabel_746:
        LDI	R16, 10
        CFI EndBlock cfiBlock54
        REQUIRE ?Subroutine287
        ;		// Fall through to label ?Subroutine287

        RSEG FARCODE:CODE:NOROOT(1)
?Subroutine287:
        CFI Block cfiCond55 Using cfiCommon0
        CFI NoFunction
        CFI Conditional ??CrossCallReturnLabel_746
        CFI CFA_SP SP+6
        CFI Block cfiCond56 Using cfiCommon0
        CFI (cfiCond56) NoFunction
        CFI (cfiCond56) Conditional ??CrossCallReturnLabel_745
        CFI (cfiCond56) R24 Frame(CFA_Y, -6)
        CFI (cfiCond56) R25 Frame(CFA_Y, -5)
        CFI (cfiCond56) R26 Frame(CFA_Y, -4)
        CFI (cfiCond56) R27 Frame(CFA_Y, -3)
        CFI (cfiCond56) R4 Frame(CFA_Y, -2)
        CFI (cfiCond56) R5 Frame(CFA_Y, -1)
        CFI (cfiCond56) CFA_SP SP+6
        CFI (cfiCond56) CFA_Y Y+12
        CFI Block cfiCond57 Using cfiCommon0
        CFI (cfiCond57) NoFunction
        CFI (cfiCond57) Conditional ??CrossCallReturnLabel_744
        CFI (cfiCond57) R24 Frame(CFA_Y, -3)
        CFI (cfiCond57) R25 Frame(CFA_Y, -2)
        CFI (cfiCond57) R26 Frame(CFA_Y, -1)
        CFI (cfiCond57) CFA_SP SP+6
        CFI (cfiCond57) CFA_Y Y+3
        CFI Block cfiCond58 Using cfiCommon0
        CFI (cfiCond58) NoFunction
        CFI (cfiCond58) Conditional ??CrossCallReturnLabel_743
        CFI (cfiCond58) R24 Frame(CFA_Y, -4)
        CFI (cfiCond58) R25 Frame(CFA_Y, -3)
        CFI (cfiCond58) R26 Frame(CFA_Y, -2)
        CFI (cfiCond58) R27 Frame(CFA_Y, -1)
        CFI (cfiCond58) CFA_SP SP+6
        CFI (cfiCond58) CFA_Y Y+4
        CFI Block cfiCond59 Using cfiCommon0
        CFI (cfiCond59) NoFunction
        CFI (cfiCond59) Conditional ??CrossCallReturnLabel_742
        CFI (cfiCond59) R24 Frame(CFA_Y, -6)
        CFI (cfiCond59) R25 Frame(CFA_Y, -5)
        CFI (cfiCond59) R26 Frame(CFA_Y, -4)
        CFI (cfiCond59) R27 Frame(CFA_Y, -3)
        CFI (cfiCond59) R4 Frame(CFA_Y, -2)
        CFI (cfiCond59) R5 Frame(CFA_Y, -1)
        CFI (cfiCond59) CFA_SP SP+6
        CFI (cfiCond59) CFA_Y Y+12
        CFI Block cfiCond60 Using cfiCommon0
        CFI (cfiCond60) NoFunction
        CFI (cfiCond60) Conditional ??CrossCallReturnLabel_741
        CFI (cfiCond60) R24 Frame(CFA_Y, -6)
        CFI (cfiCond60) R25 Frame(CFA_Y, -5)
        CFI (cfiCond60) R26 Frame(CFA_Y, -4)
        CFI (cfiCond60) R27 Frame(CFA_Y, -3)
        CFI (cfiCond60) R4 Frame(CFA_Y, -2)
        CFI (cfiCond60) R5 Frame(CFA_Y, -1)
        CFI (cfiCond60) CFA_SP SP+6
        CFI (cfiCond60) CFA_Y Y+12
        CFI Block cfiCond61 Using cfiCommon0
        CFI (cfiCond61) NoFunction
        CFI (cfiCond61) Conditional ??CrossCallReturnLabel_740
        CFI (cfiCond61) R24 Frame(CFA_Y, -6)
        CFI (cfiCond61) R25 Frame(CFA_Y, -5)
        CFI (cfiCond61) R26 Frame(CFA_Y, -4)
        CFI (cfiCond61) R27 Frame(CFA_Y, -3)
        CFI (cfiCond61) R4 Frame(CFA_Y, -2)
        CFI (cfiCond61) R5 Frame(CFA_Y, -1)
        CFI (cfiCond61) CFA_SP SP+6
        CFI (cfiCond61) CFA_Y Y+12
        CFI Block cfiCond62 Using cfiCommon0
        CFI (cfiCond62) NoFunction
        CFI (cfiCond62) Conditional ??CrossCallReturnLabel_739
        CFI (cfiCond62) R24 Frame(CFA_Y, -6)
        CFI (cfiCond62) R25 Frame(CFA_Y, -5)
        CFI (cfiCond62) R26 Frame(CFA_Y, -4)
        CFI (cfiCond62) R27 Frame(CFA_Y, -3)
        CFI (cfiCond62) R4 Frame(CFA_Y, -2)
        CFI (cfiCond62) R5 Frame(CFA_Y, -1)
        CFI (cfiCond62) CFA_SP SP+6
        CFI (cfiCond62) CFA_Y Y+12
        CFI Block cfiCond63 Using cfiCommon0
        CFI (cfiCond63) NoFunction
        CFI (cfiCond63) Conditional ??CrossCallReturnLabel_738
        CFI (cfiCond63) R24 Frame(CFA_Y, -6)
        CFI (cfiCond63) R25 Frame(CFA_Y, -5)
        CFI (cfiCond63) R26 Frame(CFA_Y, -4)
        CFI (cfiCond63) R27 Frame(CFA_Y, -3)
        CFI (cfiCond63) R4 Frame(CFA_Y, -2)
        CFI (cfiCond63) R5 Frame(CFA_Y, -1)
        CFI (cfiCond63) CFA_SP SP+6
        CFI (cfiCond63) CFA_Y Y+12
        CFI Block cfiCond64 Using cfiCommon0
        CFI (cfiCond64) NoFunction
        CFI (cfiCond64) Conditional ??CrossCallReturnLabel_737
        CFI (cfiCond64) R24 Frame(CFA_Y, -6)
        CFI (cfiCond64) R25 Frame(CFA_Y, -5)
        CFI (cfiCond64) R26 Frame(CFA_Y, -4)
        CFI (cfiCond64) R27 Frame(CFA_Y, -3)
        CFI (cfiCond64) R4 Frame(CFA_Y, -2)
        CFI (cfiCond64) R5 Frame(CFA_Y, -1)
        CFI (cfiCond64) CFA_SP SP+6
        CFI (cfiCond64) CFA_Y Y+12
        CFI Block cfiCond65 Using cfiCommon0
        CFI (cfiCond65) NoFunction
        CFI (cfiCond65) Conditional ??CrossCallReturnLabel_736
        CFI (cfiCond65) R24 Frame(CFA_Y, -6)
        CFI (cfiCond65) R25 Frame(CFA_Y, -5)
        CFI (cfiCond65) R26 Frame(CFA_Y, -4)
        CFI (cfiCond65) R27 Frame(CFA_Y, -3)
        CFI (cfiCond65) R4 Frame(CFA_Y, -2)
        CFI (cfiCond65) R5 Frame(CFA_Y, -1)
        CFI (cfiCond65) CFA_SP SP+6
        CFI (cfiCond65) CFA_Y Y+12
        CFI Block cfiBlock66 Using cfiCommon0
        CFI (cfiBlock66) NoFunction
        CFI Block cfiPicker67 Using cfiCommon1
        CFI (cfiPicker67) NoFunction
        CFI (cfiPicker67) Picker
        RJMP	s_port
        CFI EndBlock cfiCond55
        CFI EndBlock cfiCond56
        CFI EndBlock cfiCond57
        CFI EndBlock cfiCond58
        CFI EndBlock cfiCond59
        CFI EndBlock cfiCond60
        CFI EndBlock cfiCond61
        CFI EndBlock cfiCond62
        CFI EndBlock cfiCond63
        CFI EndBlock cfiCond64
        CFI EndBlock cfiCond65
        CFI EndBlock cfiBlock66
        CFI EndBlock cfiPicker67

        RSEG FARCODE:CODE:NOROOT(1)
func_crc_tii:
        CFI Block cfiBlock68 Using cfiCommon0
        CFI Function func_crc_tii
        LDI	R16, 255
        LDI	R18, 255
        LDI	R17, 0
??func_crc_tii_0:
        LDI	R30, LOW(crc_tii)
        LDI	R31, (crc_tii) >> 8
        LDI	R19, 2
        MUL	R17, R19
        RCALL	?Subroutine83
??CrossCallReturnLabel_97:
        LDD	R22, Z+2
        LDD	R20, Z+3
        LDI	R23, 0
        RCALL	?Subroutine80
??CrossCallReturnLabel_497:
        RCALL	?Subroutine84
??CrossCallReturnLabel_99:
        MOV	R22, R20
        RCALL	??Subroutine81_0
??CrossCallReturnLabel_83:
        EOR	R20, R18
        ADD	R30, R20
        RCALL	?Subroutine260
??CrossCallReturnLabel_492:
        RCALL	?Subroutine84
??CrossCallReturnLabel_100:
        INC	R17
        CPI	R17, 8
        BRCS	??func_crc_tii_0
        MOV	R17, R18
        RET
        CFI EndBlock cfiBlock68

        RSEG FARCODE:CODE:NOROOT(1)
?Subroutine84:
        CFI Block cfiCond69 Using cfiCommon0
        CFI NoFunction
        CFI Conditional ??CrossCallReturnLabel_99
        CFI CFA_SP SP+6
        CFI Block cfiCond70 Using cfiCommon0
        CFI (cfiCond70) NoFunction
        CFI (cfiCond70) Conditional ??CrossCallReturnLabel_100
        CFI (cfiCond70) CFA_SP SP+6
        CFI Block cfiPicker71 Using cfiCommon1
        CFI (cfiPicker71) NoFunction
        CFI (cfiPicker71) Picker
        EOR	R18, R16
        LDI	R30, LOW(auchCRCLo)
        LDI	R31, (auchCRCLo) >> 8
        EOR	R22, R18
        ADD	R30, R22
        ADC	R31, R23
        LPM	R16, Z
        RET
        CFI EndBlock cfiCond69
        CFI EndBlock cfiCond70
        CFI EndBlock cfiPicker71

        RSEG FARCODE:CODE:NOROOT(1)
?Subroutine83:
        CFI Block cfiCond72 Using cfiCommon0
        CFI NoFunction
        CFI Conditional ??CrossCallReturnLabel_95
        CFI CFA_SP SP+6
        CFI Block cfiCond73 Using cfiCommon0
        CFI (cfiCond73) NoFunction
        CFI (cfiCond73) Conditional ??CrossCallReturnLabel_96
        CFI (cfiCond73) CFA_SP SP+6
        CFI Block cfiCond74 Using cfiCommon0
        CFI (cfiCond74) NoFunction
        CFI (cfiCond74) Conditional ??CrossCallReturnLabel_97
        CFI (cfiCond74) CFA_SP SP+6
        CFI Block cfiCond75 Using cfiCommon0
        CFI (cfiCond75) NoFunction
        CFI (cfiCond75) Conditional ??CrossCallReturnLabel_98
        CFI (cfiCond75) R24 Frame(CFA_Y, -8)
        CFI (cfiCond75) R25 Frame(CFA_Y, -7)
        CFI (cfiCond75) R26 Frame(CFA_Y, -6)
        CFI (cfiCond75) R27 Frame(CFA_Y, -5)
        CFI (cfiCond75) R4 Frame(CFA_Y, -4)
        CFI (cfiCond75) R5 Frame(CFA_Y, -3)
        CFI (cfiCond75) R6 Frame(CFA_Y, -2)
        CFI (cfiCond75) R7 Frame(CFA_Y, -1)
        CFI (cfiCond75) CFA_SP SP+6
        CFI (cfiCond75) CFA_Y Y+17
        CFI Block cfiPicker76 Using cfiCommon1
        CFI (cfiPicker76) NoFunction
        CFI (cfiPicker76) Picker
        ADD	R30, R0
        ADC	R31, R1
        RET
        CFI EndBlock cfiCond72
        CFI EndBlock cfiCond73
        CFI EndBlock cfiCond74
        CFI EndBlock cfiCond75
        CFI EndBlock cfiPicker76

        RSEG FARCODE:CODE:NOROOT(1)
?Subroutine81:
        CFI Block cfiCond77 Using cfiCommon0
        CFI NoFunction
        CFI Conditional ??CrossCallReturnLabel_85
        CFI CFA_SP SP+6
        CFI Block cfiCond78 Using cfiCommon0
        CFI (cfiCond78) NoFunction
        CFI (cfiCond78) Conditional ??CrossCallReturnLabel_87
        CFI (cfiCond78) CFA_SP SP+6
        CFI Block cfiCond79 Using cfiCommon0
        CFI (cfiCond79) NoFunction
        CFI (cfiCond79) Conditional ??CrossCallReturnLabel_90
        CFI (cfiCond79) CFA_SP SP+6
        CFI Block cfiPicker80 Using cfiCommon1
        CFI (cfiPicker80) NoFunction
        CFI (cfiPicker80) Picker
        LDI	R30, LOW(auchCRCLo)
        LDI	R31, (auchCRCLo) >> 8
        EOR	R16, R20
        ADD	R30, R16
        ADC	R31, R23
        LPM	R16, Z
        CFI Block cfiCond81 Using cfiCommon0
        CFI (cfiCond81) NoFunction
        CFI (cfiCond81) Conditional ??CrossCallReturnLabel_82
        CFI (cfiCond81) CFA_SP SP+6
        CFI Block cfiCond82 Using cfiCommon0
        CFI (cfiCond82) NoFunction
        CFI (cfiCond82) Conditional ??CrossCallReturnLabel_83
        CFI (cfiCond82) CFA_SP SP+6
        CFI Block cfiCond83 Using cfiCommon0
        CFI (cfiCond83) NoFunction
        CFI (cfiCond83) Conditional ??CrossCallReturnLabel_84
        CFI (cfiCond83) CFA_SP SP+6
        CFI Block cfiCond84 Using cfiCommon0
        CFI (cfiCond84) NoFunction
        CFI (cfiCond84) Conditional ??CrossCallReturnLabel_86
        CFI (cfiCond84) CFA_SP SP+6
        CFI Block cfiCond85 Using cfiCommon0
        CFI (cfiCond85) NoFunction
        CFI (cfiCond85) Conditional ??CrossCallReturnLabel_88
        CFI (cfiCond85) CFA_SP SP+6
        CFI Block cfiCond86 Using cfiCommon0
        CFI (cfiCond86) NoFunction
        CFI (cfiCond86) Conditional ??CrossCallReturnLabel_89
        CFI (cfiCond86) CFA_SP SP+6
        CFI Block cfiCond87 Using cfiCommon0
        CFI (cfiCond87) NoFunction
        CFI (cfiCond87) Conditional ??CrossCallReturnLabel_91
        CFI (cfiCond87) CFA_SP SP+6
        CFI Block cfiCond88 Using cfiCommon0
        CFI (cfiCond88) NoFunction
        CFI (cfiCond88) Conditional ??CrossCallReturnLabel_92
        CFI (cfiCond88) CFA_SP SP+6
??Subroutine81_0:
        LDI	R30, LOW(auchCRCHi)
        LDI	R31, (auchCRCHi) >> 8
        RET
        CFI EndBlock cfiCond77
        CFI EndBlock cfiCond78
        CFI EndBlock cfiCond79
        CFI EndBlock cfiPicker80
        CFI EndBlock cfiCond81
        CFI EndBlock cfiCond82
        CFI EndBlock cfiCond83
        CFI EndBlock cfiCond84
        CFI EndBlock cfiCond85
        CFI EndBlock cfiCond86
        CFI EndBlock cfiCond87
        CFI EndBlock cfiCond88

        RSEG FARCODE:CODE:NOROOT(1)
crc_ozu:
        CFI Block cfiBlock89 Using cfiCommon0
        CFI Function crc_ozu
        MOV	R3, R27
        MOV	R21, R26
        LDI	R26, LOW(Appl_seq)
        LDI	R27, (Appl_seq) >> 8
        MOVW	R31:R30, R27:R26
        LDD	R22, Z+44
        LDI	R23, 0
        RCALL	??Subroutine81_0
??CrossCallReturnLabel_84:
        LDI	R16, 255
        EOR	R16, R22
        ADD	R30, R16
        ADC	R31, R23
        LPM	R16, Z
        LDI	R20, 255
        EOR	R20, R16
        MOVW	R31:R30, R27:R26
        LDD	R18, Z+45
        RCALL	?Subroutine86
??CrossCallReturnLabel_101:
        RCALL	?Subroutine78
??CrossCallReturnLabel_441:
        LDD	R16, Z+46
        RCALL	?Subroutine79
??CrossCallReturnLabel_577:
        MOVW	R31:R30, R27:R26
        LDD	R22, Z+47
        RCALL	?Subroutine81
??CrossCallReturnLabel_85:
        MOV	R18, R22
        EOR	R18, R20
        ADD	R30, R18
        RCALL	?Subroutine250
??CrossCallReturnLabel_430:
        ADIW	R31:R30, 60
        LD	R16, Z
        LDD	R18, Z+1
        RCALL	?Subroutine86
??CrossCallReturnLabel_102:
        ADC	R31, R23
        LPM	R22, Z
        RCALL	?Subroutine77
??CrossCallReturnLabel_488:
        EOR	R22, R20
        RCALL	?Subroutine88
??CrossCallReturnLabel_106:
        EOR	R16, R22
        ADD	R30, R16
        RCALL	?Subroutine259
??CrossCallReturnLabel_486:
        MOV	R16, R18
        RCALL	?Subroutine80
??CrossCallReturnLabel_498:
        RCALL	?Subroutine85
??CrossCallReturnLabel_484:
        CALL	??Subroutine109_0
??CrossCallReturnLabel_134:
        LDD	R22, Z+57
        RCALL	?Subroutine61
??CrossCallReturnLabel_422:
        LDD	R16, Z+36
        LDD	R22, Z+37
        RCALL	?Subroutine61
??CrossCallReturnLabel_423:
        LDD	R16, Z+42
        LDD	R22, Z+43
        RCALL	?Subroutine61
??CrossCallReturnLabel_424:
        LDD	R16, Z+34
        LDD	R22, Z+35
        RCALL	?Subroutine61
??CrossCallReturnLabel_425:
        LDD	R16, Z+38
        LDD	R22, Z+39
        RCALL	?Subroutine61
??CrossCallReturnLabel_426:
        LDD	R16, Z+41
        RCALL	??Subroutine81_0
??CrossCallReturnLabel_86:
        MOV	R22, R16
        RCALL	?Subroutine106
??CrossCallReturnLabel_499:
        EOR	R20, R18
        RCALL	?Subroutine81
??CrossCallReturnLabel_87:
        ADD	R30, R20
        RCALL	?Subroutine250
??CrossCallReturnLabel_431:
        LDD	R16, Z+48
        LDD	R1, Z+49
        LDD	R2, Z+50
        LDD	R19, Z+51
        RCALL	?Subroutine88
??CrossCallReturnLabel_107:
        ADD	R30, R20
        RCALL	?Subroutine260
??CrossCallReturnLabel_493:
        RCALL	??Subroutine81_0
??CrossCallReturnLabel_88:
        MOV	R22, R16
        RCALL	?Subroutine108
??CrossCallReturnLabel_490:
        RCALL	?Subroutine62
??CrossCallReturnLabel_575:
        MOV	R22, R20
        RCALL	?Subroutine87
??CrossCallReturnLabel_103:
        RCALL	?Subroutine259
??CrossCallReturnLabel_487:
        MOVW	R31:R30, R27:R26
        LDD	R16, Z+52
        LDD	R1, Z+53
        LDD	R2, Z+54
        LDD	R19, Z+55
        RCALL	??Subroutine81_0
??CrossCallReturnLabel_89:
        MOV	R18, R16
        EOR	R18, R22
        ADD	R30, R18
        RCALL	?Subroutine260
??CrossCallReturnLabel_494:
        RCALL	?Subroutine62
??CrossCallReturnLabel_576:
        MOVW	R31:R30, R27:R26
        LDD	R18, Z+62
        RCALL	?Subroutine81
??CrossCallReturnLabel_90:
        MOV	R22, R18
        RCALL	?Subroutine108
??CrossCallReturnLabel_491:
        EOR	R20, R16
        LDS	R16, (struct_tcc1 + 4)
        RCALL	?Subroutine79
??CrossCallReturnLabel_578:
        LDS	R18, (struct_tcc2 + 4)
        RCALL	?Subroutine87
??CrossCallReturnLabel_104:
        RCALL	?Subroutine78
??CrossCallReturnLabel_429:
        LDD	R16, Z+58
        LDD	R22, Z+59
        RCALL	?Subroutine88
??CrossCallReturnLabel_108:
        EOR	R18, R20
        ADD	R30, R18
        RCALL	?Subroutine260
??CrossCallReturnLabel_495:
        RCALL	?Subroutine77
??CrossCallReturnLabel_489:
        RCALL	??Subroutine61_0
??CrossCallReturnLabel_428:
        LDD	R16, Z+18
        LDD	R22, Z+19
        RCALL	?Subroutine61
??CrossCallReturnLabel_427:
        LDD	R16, Z+24
        LDD	R22, Z+25
        RCALL	??Subroutine81_0
??CrossCallReturnLabel_91:
        MOV	R0, R16
        EOR	R0, R18
        ADD	R30, R0
        RCALL	?Subroutine260
??CrossCallReturnLabel_496:
        RCALL	?Subroutine85
??CrossCallReturnLabel_485:
        MOV	R16, R22
        RCALL	??Subroutine81_0
??CrossCallReturnLabel_92:
        RCALL	?Subroutine106
??CrossCallReturnLabel_500:
        EOR	R18, R20
        RCALL	?Subroutine88
??CrossCallReturnLabel_109:
        EOR	R16, R18
        ADD	R30, R16
        ADC	R31, R23
        LPM	R16, Z
        MOV	R17, R18
        MOV	R26, R21
        MOV	R27, R3
        RET
        CFI EndBlock cfiBlock89

        RSEG FARCODE:CODE:NOROOT(1)
?Subroutine108:
        CFI Block cfiCond90 Using cfiCommon0
        CFI NoFunction
        CFI Conditional ??CrossCallReturnLabel_490
        CFI CFA_SP SP+6
        CFI Block cfiCond91 Using cfiCommon0
        CFI (cfiCond91) NoFunction
        CFI (cfiCond91) Conditional ??CrossCallReturnLabel_491
        CFI (cfiCond91) CFA_SP SP+6
        CFI Block cfiPicker92 Using cfiCommon1
        CFI (cfiPicker92) NoFunction
        CFI (cfiPicker92) Picker
        EOR	R22, R20
        ADD	R30, R22
        CFI EndBlock cfiCond90
        CFI EndBlock cfiCond91
        CFI EndBlock cfiPicker92
        REQUIRE ?Subroutine259
        ;		// Fall through to label ?Subroutine259

        RSEG FARCODE:CODE:NOROOT(1)
?Subroutine259:
        CFI Block cfiCond93 Using cfiCommon0
        CFI NoFunction
        CFI Conditional ??CrossCallReturnLabel_490
        CFI CFA_SP SP+6
        CFI Block cfiCond94 Using cfiCommon0
        CFI (cfiCond94) NoFunction
        CFI (cfiCond94) Conditional ??CrossCallReturnLabel_491
        CFI (cfiCond94) CFA_SP SP+6
        CFI Block cfiCond95 Using cfiCommon0
        CFI (cfiCond95) NoFunction
        CFI (cfiCond95) Conditional ??CrossCallReturnLabel_486
        CFI (cfiCond95) CFA_SP SP+6
        CFI Block cfiCond96 Using cfiCommon0
        CFI (cfiCond96) NoFunction
        CFI (cfiCond96) Conditional ??CrossCallReturnLabel_487
        CFI (cfiCond96) CFA_SP SP+6
        CFI Block cfiCond97 Using cfiCommon0
        CFI (cfiCond97) NoFunction
        CFI (cfiCond97) Conditional ??CrossCallReturnLabel_484
        CFI (cfiCond97) CFA_SP SP+6
        CFI Block cfiCond98 Using cfiCommon0
        CFI (cfiCond98) NoFunction
        CFI (cfiCond98) Conditional ??CrossCallReturnLabel_485
        CFI (cfiCond98) CFA_SP SP+6
        CFI Block cfiCond99 Using cfiCommon0
        CFI (cfiCond99) NoFunction
        CFI (cfiCond99) Conditional ??CrossCallReturnLabel_488
        CFI (cfiCond99) CFA_SP SP+6
        CFI Block cfiCond100 Using cfiCommon0
        CFI (cfiCond100) NoFunction
        CFI (cfiCond100) Conditional ??CrossCallReturnLabel_489
        CFI (cfiCond100) CFA_SP SP+6
        CFI Block cfiPicker101 Using cfiCommon1
        CFI (cfiPicker101) NoFunction
        CFI (cfiPicker101) Picker
        ADC	R31, R23
        LPM	R20, Z
        RET
        CFI EndBlock cfiCond93
        CFI EndBlock cfiCond94
        CFI EndBlock cfiCond95
        CFI EndBlock cfiCond96
        CFI EndBlock cfiCond97
        CFI EndBlock cfiCond98
        CFI EndBlock cfiCond99
        CFI EndBlock cfiCond100
        CFI EndBlock cfiPicker101

        RSEG FARCODE:CODE:NOROOT(1)
?Subroutine106:
        CFI Block cfiCond102 Using cfiCommon0
        CFI NoFunction
        CFI Conditional ??CrossCallReturnLabel_499
        CFI CFA_SP SP+6
        CFI Block cfiCond103 Using cfiCommon0
        CFI (cfiCond103) NoFunction
        CFI (cfiCond103) Conditional ??CrossCallReturnLabel_500
        CFI (cfiCond103) CFA_SP SP+6
        CFI Block cfiPicker104 Using cfiCommon1
        CFI (cfiPicker104) NoFunction
        CFI (cfiPicker104) Picker
        EOR	R22, R18
        ADD	R30, R22
        CFI EndBlock cfiCond102
        CFI EndBlock cfiCond103
        CFI EndBlock cfiPicker104
        REQUIRE ?Subroutine260
        ;		// Fall through to label ?Subroutine260

        RSEG FARCODE:CODE:NOROOT(1)
?Subroutine260:
        CFI Block cfiCond105 Using cfiCommon0
        CFI NoFunction
        CFI Conditional ??CrossCallReturnLabel_499
        CFI CFA_SP SP+6
        CFI Block cfiCond106 Using cfiCommon0
        CFI (cfiCond106) NoFunction
        CFI (cfiCond106) Conditional ??CrossCallReturnLabel_500
        CFI (cfiCond106) CFA_SP SP+6
        CFI Block cfiCond107 Using cfiCommon0
        CFI (cfiCond107) NoFunction
        CFI (cfiCond107) Conditional ??CrossCallReturnLabel_492
        CFI (cfiCond107) CFA_SP SP+6
        CFI Block cfiCond108 Using cfiCommon0
        CFI (cfiCond108) NoFunction
        CFI (cfiCond108) Conditional ??CrossCallReturnLabel_493
        CFI (cfiCond108) CFA_SP SP+6
        CFI Block cfiCond109 Using cfiCommon0
        CFI (cfiCond109) NoFunction
        CFI (cfiCond109) Conditional ??CrossCallReturnLabel_494
        CFI (cfiCond109) CFA_SP SP+6
        CFI Block cfiCond110 Using cfiCommon0
        CFI (cfiCond110) NoFunction
        CFI (cfiCond110) Conditional ??CrossCallReturnLabel_495
        CFI (cfiCond110) CFA_SP SP+6
        CFI Block cfiCond111 Using cfiCommon0
        CFI (cfiCond111) NoFunction
        CFI (cfiCond111) Conditional ??CrossCallReturnLabel_496
        CFI (cfiCond111) CFA_SP SP+6
        CFI Block cfiCond112 Using cfiCommon0
        CFI (cfiCond112) NoFunction
        CFI (cfiCond112) Conditional ??CrossCallReturnLabel_497
        CFI (cfiCond112) CFA_SP SP+6
        CFI Block cfiCond113 Using cfiCommon0
        CFI (cfiCond113) NoFunction
        CFI (cfiCond113) Conditional ??CrossCallReturnLabel_498
        CFI (cfiCond113) CFA_SP SP+6
        CFI Block cfiPicker114 Using cfiCommon1
        CFI (cfiPicker114) NoFunction
        CFI (cfiPicker114) Picker
        ADC	R31, R23
        LPM	R18, Z
        RET
        CFI EndBlock cfiCond105
        CFI EndBlock cfiCond106
        CFI EndBlock cfiCond107
        CFI EndBlock cfiCond108
        CFI EndBlock cfiCond109
        CFI EndBlock cfiCond110
        CFI EndBlock cfiCond111
        CFI EndBlock cfiCond112
        CFI EndBlock cfiCond113
        CFI EndBlock cfiPicker114

        RSEG FARCODE:CODE:NOROOT(1)
?Subroutine88:
        CFI Block cfiCond115 Using cfiCommon0
        CFI NoFunction
        CFI Conditional ??CrossCallReturnLabel_105
        CFI CFA_SP SP+6
        CFI Block cfiCond116 Using cfiCommon0
        CFI (cfiCond116) NoFunction
        CFI (cfiCond116) Conditional ??CrossCallReturnLabel_106
        CFI (cfiCond116) CFA_SP SP+6
        CFI Block cfiCond117 Using cfiCommon0
        CFI (cfiCond117) NoFunction
        CFI (cfiCond117) Conditional ??CrossCallReturnLabel_107
        CFI (cfiCond117) CFA_SP SP+6
        CFI Block cfiCond118 Using cfiCommon0
        CFI (cfiCond118) NoFunction
        CFI (cfiCond118) Conditional ??CrossCallReturnLabel_108
        CFI (cfiCond118) CFA_SP SP+6
        CFI Block cfiCond119 Using cfiCommon0
        CFI (cfiCond119) NoFunction
        CFI (cfiCond119) Conditional ??CrossCallReturnLabel_109
        CFI (cfiCond119) CFA_SP SP+6
        CFI Block cfiPicker120 Using cfiCommon1
        CFI (cfiPicker120) NoFunction
        CFI (cfiPicker120) Picker
        LDI	R30, LOW(auchCRCLo)
        LDI	R31, (auchCRCLo) >> 8
        RET
        CFI EndBlock cfiCond115
        CFI EndBlock cfiCond116
        CFI EndBlock cfiCond117
        CFI EndBlock cfiCond118
        CFI EndBlock cfiCond119
        CFI EndBlock cfiPicker120

        RSEG FARCODE:CODE:NOROOT(1)
?Subroutine87:
        CFI Block cfiCond121 Using cfiCommon0
        CFI NoFunction
        CFI Conditional ??CrossCallReturnLabel_103
        CFI CFA_SP SP+6
        CFI Block cfiCond122 Using cfiCommon0
        CFI (cfiCond122) NoFunction
        CFI (cfiCond122) Conditional ??CrossCallReturnLabel_104
        CFI (cfiCond122) CFA_SP SP+6
        CFI Block cfiPicker123 Using cfiCommon1
        CFI (cfiPicker123) NoFunction
        CFI (cfiPicker123) Picker
        LDI	R30, LOW(auchCRCLo)
        LDI	R31, (auchCRCLo) >> 8
        EOR	R16, R20
        ADD	R30, R16
        RET
        CFI EndBlock cfiCond121
        CFI EndBlock cfiCond122
        CFI EndBlock cfiPicker123

        RSEG FARCODE:CODE:NOROOT(1)
?Subroutine86:
        CFI Block cfiCond124 Using cfiCommon0
        CFI NoFunction
        CFI Conditional ??CrossCallReturnLabel_101
        CFI CFA_SP SP+6
        CFI Block cfiCond125 Using cfiCommon0
        CFI (cfiCond125) NoFunction
        CFI (cfiCond125) Conditional ??CrossCallReturnLabel_102
        CFI (cfiCond125) CFA_SP SP+6
        CFI Block cfiPicker126 Using cfiCommon1
        CFI (cfiPicker126) NoFunction
        CFI (cfiPicker126) Picker
        LDI	R30, LOW(auchCRCLo)
        LDI	R31, (auchCRCLo) >> 8
        EOR	R22, R20
        ADD	R30, R22
        RET
        CFI EndBlock cfiCond124
        CFI EndBlock cfiCond125
        CFI EndBlock cfiPicker126

        RSEG FARCODE:CODE:NOROOT(1)
?Subroutine85:
        CFI Block cfiCond127 Using cfiCommon0
        CFI NoFunction
        CFI Conditional ??CrossCallReturnLabel_484
        CFI CFA_SP SP+6
        CFI Block cfiCond128 Using cfiCommon0
        CFI (cfiCond128) NoFunction
        CFI (cfiCond128) Conditional ??CrossCallReturnLabel_485
        CFI (cfiCond128) CFA_SP SP+6
        CFI Block cfiPicker129 Using cfiCommon1
        CFI (cfiPicker129) NoFunction
        CFI (cfiPicker129) Picker
        EOR	R18, R20
        LDI	R30, LOW(auchCRCLo)
        LDI	R31, (auchCRCLo) >> 8
        EOR	R16, R18
        ADD	R30, R16
        RJMP	?Subroutine259
        CFI EndBlock cfiCond127
        CFI EndBlock cfiCond128
        CFI EndBlock cfiPicker129

        RSEG FARCODE:CODE:NOROOT(1)
?Subroutine80:
        CFI Block cfiCond130 Using cfiCommon0
        CFI NoFunction
        CFI Conditional ??CrossCallReturnLabel_497
        CFI CFA_SP SP+6
        CFI Block cfiCond131 Using cfiCommon0
        CFI (cfiCond131) NoFunction
        CFI (cfiCond131) Conditional ??CrossCallReturnLabel_498
        CFI (cfiCond131) CFA_SP SP+6
        CFI Block cfiPicker132 Using cfiCommon1
        CFI (cfiPicker132) NoFunction
        CFI (cfiPicker132) Picker
        LDI	R30, LOW(auchCRCHi)
        LDI	R31, (auchCRCHi) >> 8
        EOR	R18, R22
        ADD	R30, R18
        RJMP	?Subroutine260
        CFI EndBlock cfiCond130
        CFI EndBlock cfiCond131
        CFI EndBlock cfiPicker132

        RSEG FARCODE:CODE:NOROOT(1)
?Subroutine79:
        CFI Block cfiCond133 Using cfiCommon0
        CFI NoFunction
        CFI Conditional ??CrossCallReturnLabel_577
        CFI CFA_SP SP+6
        CFI Block cfiCond134 Using cfiCommon0
        CFI (cfiCond134) NoFunction
        CFI (cfiCond134) Conditional ??CrossCallReturnLabel_578
        CFI (cfiCond134) CFA_SP SP+6
        CFI Block cfiPicker135 Using cfiCommon1
        CFI (cfiPicker135) NoFunction
        CFI (cfiPicker135) Picker
        LDI	R30, LOW(auchCRCLo)
        LDI	R31, (auchCRCLo) >> 8
        EOR	R18, R20
        ADD	R30, R18
        ADC	R31, R23
        LPM	R18, Z
        LDI	R30, LOW(auchCRCHi)
        LDI	R31, (auchCRCHi) >> 8
        MOV	R22, R16
        EOR	R22, R20
        ADD	R30, R22
        ADC	R31, R23
        LPM	R20, Z
        CFI EndBlock cfiCond133
        CFI EndBlock cfiCond134
        CFI EndBlock cfiPicker135
        REQUIRE ?Subroutine272
        ;		// Fall through to label ?Subroutine272

        RSEG FARCODE:CODE:NOROOT(1)
?Subroutine272:
        CFI Block cfiCond136 Using cfiCommon0
        CFI NoFunction
        CFI Conditional ??CrossCallReturnLabel_577
        CFI CFA_SP SP+6
        CFI Block cfiCond137 Using cfiCommon0
        CFI (cfiCond137) NoFunction
        CFI (cfiCond137) Conditional ??CrossCallReturnLabel_578
        CFI (cfiCond137) CFA_SP SP+6
        CFI Block cfiCond138 Using cfiCommon0
        CFI (cfiCond138) NoFunction
        CFI (cfiCond138) Conditional ??CrossCallReturnLabel_575
        CFI (cfiCond138) CFA_SP SP+6
        CFI Block cfiCond139 Using cfiCommon0
        CFI (cfiCond139) NoFunction
        CFI (cfiCond139) Conditional ??CrossCallReturnLabel_576
        CFI (cfiCond139) CFA_SP SP+6
        CFI Block cfiPicker140 Using cfiCommon1
        CFI (cfiPicker140) NoFunction
        CFI (cfiPicker140) Picker
        EOR	R20, R18
        RET
        CFI EndBlock cfiCond136
        CFI EndBlock cfiCond137
        CFI EndBlock cfiCond138
        CFI EndBlock cfiCond139
        CFI EndBlock cfiPicker140

        RSEG FARCODE:CODE:NOROOT(1)
?Subroutine78:
        CFI Block cfiCond141 Using cfiCommon0
        CFI NoFunction
        CFI Conditional ??CrossCallReturnLabel_441
        CFI CFA_SP SP+6
        CFI Block cfiCond142 Using cfiCommon0
        CFI (cfiCond142) NoFunction
        CFI (cfiCond142) Conditional ??CrossCallReturnLabel_429
        CFI (cfiCond142) CFA_SP SP+6
        CFI Block cfiPicker143 Using cfiCommon1
        CFI (cfiPicker143) NoFunction
        CFI (cfiPicker143) Picker
        ADC	R31, R23
        LPM	R16, Z
        LDI	R30, LOW(auchCRCHi)
        LDI	R31, (auchCRCHi) >> 8
        MOV	R22, R18
        EOR	R22, R20
        ADD	R30, R22
        RJMP	?Subroutine250
        CFI EndBlock cfiCond141
        CFI EndBlock cfiCond142
        CFI EndBlock cfiPicker143

        RSEG FARCODE:CODE:NOROOT(1)
?Subroutine77:
        CFI Block cfiCond144 Using cfiCommon0
        CFI NoFunction
        CFI Conditional ??CrossCallReturnLabel_488
        CFI CFA_SP SP+6
        CFI Block cfiCond145 Using cfiCommon0
        CFI (cfiCond145) NoFunction
        CFI (cfiCond145) Conditional ??CrossCallReturnLabel_489
        CFI (cfiCond145) CFA_SP SP+6
        CFI Block cfiPicker146 Using cfiCommon1
        CFI (cfiPicker146) NoFunction
        CFI (cfiPicker146) Picker
        LDI	R30, LOW(auchCRCHi)
        LDI	R31, (auchCRCHi) >> 8
        MOV	R0, R16
        EOR	R0, R20
        ADD	R30, R0
        RJMP	?Subroutine259
        CFI EndBlock cfiCond144
        CFI EndBlock cfiCond145
        CFI EndBlock cfiPicker146

        RSEG FARCODE:CODE:NOROOT(1)
?Subroutine62:
        CFI Block cfiCond147 Using cfiCommon0
        CFI NoFunction
        CFI Conditional ??CrossCallReturnLabel_575
        CFI CFA_SP SP+6
        CFI Block cfiCond148 Using cfiCommon0
        CFI (cfiCond148) NoFunction
        CFI (cfiCond148) Conditional ??CrossCallReturnLabel_576
        CFI (cfiCond148) CFA_SP SP+6
        CFI Block cfiPicker149 Using cfiCommon1
        CFI (cfiPicker149) NoFunction
        CFI (cfiPicker149) Picker
        EOR	R18, R20
        LDI	R30, LOW(auchCRCLo)
        LDI	R31, (auchCRCLo) >> 8
        EOR	R16, R18
        ADD	R30, R16
        ADC	R31, R23
        LPM	R20, Z
        MOV	R16, R1
        LDI	R30, LOW(auchCRCHi)
        LDI	R31, (auchCRCHi) >> 8
        MOV	R22, R1
        EOR	R22, R18
        ADD	R30, R22
        ADC	R31, R23
        LPM	R18, Z
        EOR	R20, R18
        MOV	R22, R20
        LDI	R30, LOW(auchCRCLo)
        LDI	R31, (auchCRCLo) >> 8
        EOR	R16, R20
        ADD	R30, R16
        ADC	R31, R23
        LPM	R20, Z
        MOV	R16, R2
        LDI	R30, LOW(auchCRCHi)
        LDI	R31, (auchCRCHi) >> 8
        MOV	R18, R2
        EOR	R18, R22
        ADD	R30, R18
        ADC	R31, R23
        LPM	R18, Z
        EOR	R18, R20
        LDI	R30, LOW(auchCRCLo)
        LDI	R31, (auchCRCLo) >> 8
        EOR	R16, R18
        ADD	R30, R16
        ADC	R31, R23
        LPM	R20, Z
        MOV	R16, R19
        LDI	R30, LOW(auchCRCHi)
        LDI	R31, (auchCRCHi) >> 8
        MOV	R22, R19
        EOR	R22, R18
        ADD	R30, R22
        ADC	R31, R23
        LPM	R18, Z
        RJMP	?Subroutine272
        CFI EndBlock cfiCond147
        CFI EndBlock cfiCond148
        CFI EndBlock cfiPicker149

        RSEG FARCODE:CODE:NOROOT(1)
?Subroutine61:
        CFI Block cfiCond150 Using cfiCommon0
        CFI NoFunction
        CFI Conditional ??CrossCallReturnLabel_422
        CFI CFA_SP SP+6
        CFI Block cfiCond151 Using cfiCommon0
        CFI (cfiCond151) NoFunction
        CFI (cfiCond151) Conditional ??CrossCallReturnLabel_423
        CFI (cfiCond151) CFA_SP SP+6
        CFI Block cfiCond152 Using cfiCommon0
        CFI (cfiCond152) NoFunction
        CFI (cfiCond152) Conditional ??CrossCallReturnLabel_424
        CFI (cfiCond152) CFA_SP SP+6
        CFI Block cfiCond153 Using cfiCommon0
        CFI (cfiCond153) NoFunction
        CFI (cfiCond153) Conditional ??CrossCallReturnLabel_425
        CFI (cfiCond153) CFA_SP SP+6
        CFI Block cfiCond154 Using cfiCommon0
        CFI (cfiCond154) NoFunction
        CFI (cfiCond154) Conditional ??CrossCallReturnLabel_426
        CFI (cfiCond154) CFA_SP SP+6
        CFI Block cfiCond155 Using cfiCommon0
        CFI (cfiCond155) NoFunction
        CFI (cfiCond155) Conditional ??CrossCallReturnLabel_427
        CFI (cfiCond155) CFA_SP SP+6
        CFI Block cfiPicker156 Using cfiCommon1
        CFI (cfiPicker156) NoFunction
        CFI (cfiPicker156) Picker
        LDI	R30, LOW(auchCRCHi)
        LDI	R31, (auchCRCHi) >> 8
        MOV	R0, R16
        EOR	R0, R18
        ADD	R30, R0
        ADC	R31, R23
        LPM	R18, Z
        CFI Block cfiCond157 Using cfiCommon0
        CFI (cfiCond157) NoFunction
        CFI (cfiCond157) Conditional ??CrossCallReturnLabel_428
        CFI (cfiCond157) CFA_SP SP+6
??Subroutine61_0:
        EOR	R18, R20
        LDI	R30, LOW(auchCRCLo)
        LDI	R31, (auchCRCLo) >> 8
        EOR	R16, R18
        ADD	R30, R16
        ADC	R31, R23
        LPM	R20, Z
        MOV	R16, R22
        LDI	R30, LOW(auchCRCHi)
        LDI	R31, (auchCRCHi) >> 8
        EOR	R22, R18
        ADD	R30, R22
        ADC	R31, R23
        LPM	R18, Z
        EOR	R18, R20
        LDI	R30, LOW(auchCRCLo)
        LDI	R31, (auchCRCLo) >> 8
        EOR	R16, R18
        ADD	R30, R16
        ADC	R31, R23
        LPM	R20, Z
        RJMP	??Subroutine250_0
        CFI EndBlock cfiCond150
        CFI EndBlock cfiCond151
        CFI EndBlock cfiCond152
        CFI EndBlock cfiCond153
        CFI EndBlock cfiCond154
        CFI EndBlock cfiCond155
        CFI EndBlock cfiPicker156
        CFI EndBlock cfiCond157

        RSEG FARCODE:CODE:NOROOT(1)
load_rw_pdp:
        CFI Block cfiBlock158 Using cfiCommon0
        CFI Function load_rw_pdp
        FUNCALL load_rw_pdp, RdFromFleshToArr
        LOCFRAME CSTACK, 78, STACK
        LOCFRAME RSTACK, 3, STACK
        FUNCALL load_rw_pdp, strlen
        LOCFRAME CSTACK, 78, STACK
        LOCFRAME RSTACK, 3, STACK
        FUNCALL load_rw_pdp, strlen
        LOCFRAME CSTACK, 78, STACK
        LOCFRAME RSTACK, 3, STACK
        FUNCALL load_rw_pdp, strlen
        LOCFRAME CSTACK, 78, STACK
        LOCFRAME RSTACK, 3, STACK
        FUNCALL load_rw_pdp, crc_m1
        LOCFRAME CSTACK, 78, STACK
        LOCFRAME RSTACK, 3, STACK
        FUNCALL load_rw_pdp, WrArrayToFlesh
        LOCFRAME CSTACK, 78, STACK
        LOCFRAME RSTACK, 3, STACK
        RCALL	?Subroutine128
        CFI R24 Frame(CFA_Y, -8)
        CFI R25 Frame(CFA_Y, -7)
        CFI R26 Frame(CFA_Y, -6)
        CFI R27 Frame(CFA_Y, -5)
        CFI R4 Frame(CFA_Y, -4)
        CFI R5 Frame(CFA_Y, -3)
        CFI R6 Frame(CFA_Y, -2)
        CFI R7 Frame(CFA_Y, -1)
        CFI CFA_Y Y+8
??CrossCallReturnLabel_163:
        REQUIRE	?Register_R4_is_cg_reg
        REQUIRE	?Register_R5_is_cg_reg
        REQUIRE	?Register_R7_is_cg_reg
        RCALL	?Subroutine10
        CFI CFA_Y Y+78
??CrossCallReturnLabel_7:
        SBRS	R16, 0
        RJMP	??CrossCallReturnLabel_708
        RCALL	?Subroutine130
??CrossCallReturnLabel_168:
        CALL	__eeget8_16
        TST	R16
        BRNE	??CrossCallReturnLabel_708
        LDI	R20, 58
        RCALL	?Subroutine261
??CrossCallReturnLabel_504:
        LDI	R16, 16
        LDI	R17, 39
        RCALL	?Subroutine138
??CrossCallReturnLabel_530:
        BREQ	??load_rw_pdp_0
        RCALL	?Subroutine66
??CrossCallReturnLabel_62:
        BRCS	??load_rw_pdp_1
??load_rw_pdp_0:
        LDI	R16, 255
        CALL	?Subroutine129
??CrossCallReturnLabel_708:
        RJMP	?Subroutine288
??load_rw_pdp_1:
        RCALL	?Subroutine40
??CrossCallReturnLabel_480:
        BRCC	??load_rw_pdp_0
        RCALL	?Subroutine42
??CrossCallReturnLabel_482:
        BRCC	??load_rw_pdp_0
        RCALL	?Subroutine45
??CrossCallReturnLabel_46:
        BRCC	??load_rw_pdp_0
        RCALL	?Subroutine38
??CrossCallReturnLabel_589:
        LDI	R16, 20
        RCALL	?Subroutine316
??CrossCallReturnLabel_902:
        RJMP	??load_rw_pdp_0
        CFI EndBlock cfiBlock158

        RSEG FARCODE:CODE:NOROOT(1)
?Subroutine313:
        CFI Block cfiBlock159 Using cfiCommon0
        CFI NoFunction
        CFI CFA_Y Y+2
        CFI R26 Frame(CFA_Y, -2)
        CFI R27 Frame(CFA_Y, -1)
        JMP	?Subroutine184
        CFI EndBlock cfiBlock159

        RSEG FARCODE:CODE:NOROOT(1)
load_rw_pdp_r:
        CFI Block cfiBlock160 Using cfiCommon0
        CFI Function load_rw_pdp_r
        FUNCALL load_rw_pdp_r, RdFromFleshToArr
        LOCFRAME CSTACK, 78, STACK
        LOCFRAME RSTACK, 3, STACK
        FUNCALL load_rw_pdp_r, strlen
        LOCFRAME CSTACK, 78, STACK
        LOCFRAME RSTACK, 3, STACK
        FUNCALL load_rw_pdp_r, strlen
        LOCFRAME CSTACK, 78, STACK
        LOCFRAME RSTACK, 3, STACK
        FUNCALL load_rw_pdp_r, strlen
        LOCFRAME CSTACK, 78, STACK
        LOCFRAME RSTACK, 3, STACK
        FUNCALL load_rw_pdp_r, crc_m1
        LOCFRAME CSTACK, 78, STACK
        LOCFRAME RSTACK, 3, STACK
        FUNCALL load_rw_pdp_r, WrArrayToFlesh
        LOCFRAME CSTACK, 78, STACK
        LOCFRAME RSTACK, 3, STACK
        RCALL	?Subroutine128
        CFI R24 Frame(CFA_Y, -8)
        CFI R25 Frame(CFA_Y, -7)
        CFI R26 Frame(CFA_Y, -6)
        CFI R27 Frame(CFA_Y, -5)
        CFI R4 Frame(CFA_Y, -4)
        CFI R5 Frame(CFA_Y, -3)
        CFI R6 Frame(CFA_Y, -2)
        CFI R7 Frame(CFA_Y, -1)
        CFI CFA_Y Y+8
??CrossCallReturnLabel_164:
        REQUIRE	?Register_R4_is_cg_reg
        REQUIRE	?Register_R5_is_cg_reg
        REQUIRE	?Register_R7_is_cg_reg
        RCALL	?Subroutine10
        CFI CFA_Y Y+78
??CrossCallReturnLabel_8:
        SBRS	R16, 0
        RJMP	??CrossCallReturnLabel_710
        LDI	R20, 2
        LDI	R21, 0
        CALL	__eeget8_16
        TST	R16
        BRNE	??CrossCallReturnLabel_710
        LDI	R20, 58
        RCALL	?Subroutine261
??CrossCallReturnLabel_505:
        CALL	?Subroutine150
??CrossCallReturnLabel_191:
        RCALL	?Subroutine138
??CrossCallReturnLabel_531:
        BREQ	??load_rw_pdp_r_0
        RCALL	?Subroutine66
??CrossCallReturnLabel_63:
        BRCS	??load_rw_pdp_r_1
??load_rw_pdp_r_0:
        LDI	R16, 255
        CALL	?Subroutine136
??CrossCallReturnLabel_710:
        RJMP	?Subroutine288
??load_rw_pdp_r_1:
        RCALL	?Subroutine40
??CrossCallReturnLabel_481:
        BRCC	??load_rw_pdp_r_0
        RCALL	?Subroutine42
??CrossCallReturnLabel_483:
        BRCC	??load_rw_pdp_r_0
        RCALL	?Subroutine45
??CrossCallReturnLabel_47:
        BRCC	??load_rw_pdp_r_0
        RCALL	?Subroutine38
??CrossCallReturnLabel_590:
        LDI	R16, 80
        RCALL	?Subroutine316
??CrossCallReturnLabel_901:
        RJMP	??load_rw_pdp_r_0
        CFI EndBlock cfiBlock160

        RSEG FARCODE:CODE:NOROOT(1)
?Subroutine138:
        CFI Block cfiCond161 Using cfiCommon0
        CFI NoFunction
        CFI Conditional ??CrossCallReturnLabel_530
        CFI R24 Frame(CFA_Y, -8)
        CFI R25 Frame(CFA_Y, -7)
        CFI R26 Frame(CFA_Y, -6)
        CFI R27 Frame(CFA_Y, -5)
        CFI R4 Frame(CFA_Y, -4)
        CFI R5 Frame(CFA_Y, -3)
        CFI R6 Frame(CFA_Y, -2)
        CFI R7 Frame(CFA_Y, -1)
        CFI CFA_SP SP+6
        CFI CFA_Y Y+78
        CFI Block cfiCond162 Using cfiCommon0
        CFI (cfiCond162) NoFunction
        CFI (cfiCond162) Conditional ??CrossCallReturnLabel_531
        CFI (cfiCond162) R24 Frame(CFA_Y, -8)
        CFI (cfiCond162) R25 Frame(CFA_Y, -7)
        CFI (cfiCond162) R26 Frame(CFA_Y, -6)
        CFI (cfiCond162) R27 Frame(CFA_Y, -5)
        CFI (cfiCond162) R4 Frame(CFA_Y, -4)
        CFI (cfiCond162) R5 Frame(CFA_Y, -3)
        CFI (cfiCond162) R6 Frame(CFA_Y, -2)
        CFI (cfiCond162) R7 Frame(CFA_Y, -1)
        CFI (cfiCond162) CFA_SP SP+6
        CFI (cfiCond162) CFA_Y Y+78
        CFI Block cfiPicker163 Using cfiCommon1
        CFI (cfiPicker163) NoFunction
        CFI (cfiPicker163) Picker
        CALL	RdFromFleshToArr
        LD	R16, Y
        JMP	??Subroutine266_0
        CFI EndBlock cfiCond161
        CFI EndBlock cfiCond162
        CFI EndBlock cfiPicker163

        RSEG FARCODE:CODE:NOROOT(1)
?Subroutine66:
        CFI Block cfiCond164 Using cfiCommon0
        CFI NoFunction
        CFI Conditional ??CrossCallReturnLabel_62
        CFI R24 Frame(CFA_Y, -8)
        CFI R25 Frame(CFA_Y, -7)
        CFI R26 Frame(CFA_Y, -6)
        CFI R27 Frame(CFA_Y, -5)
        CFI R4 Frame(CFA_Y, -4)
        CFI R5 Frame(CFA_Y, -3)
        CFI R6 Frame(CFA_Y, -2)
        CFI R7 Frame(CFA_Y, -1)
        CFI CFA_SP SP+6
        CFI CFA_Y Y+78
        CFI Block cfiCond165 Using cfiCommon0
        CFI (cfiCond165) NoFunction
        CFI (cfiCond165) Conditional ??CrossCallReturnLabel_63
        CFI (cfiCond165) R24 Frame(CFA_Y, -8)
        CFI (cfiCond165) R25 Frame(CFA_Y, -7)
        CFI (cfiCond165) R26 Frame(CFA_Y, -6)
        CFI (cfiCond165) R27 Frame(CFA_Y, -5)
        CFI (cfiCond165) R4 Frame(CFA_Y, -4)
        CFI (cfiCond165) R5 Frame(CFA_Y, -3)
        CFI (cfiCond165) R6 Frame(CFA_Y, -2)
        CFI (cfiCond165) R7 Frame(CFA_Y, -1)
        CFI (cfiCond165) CFA_SP SP+6
        CFI (cfiCond165) CFA_Y Y+78
        CFI Block cfiPicker166 Using cfiCommon1
        CFI (cfiPicker166) NoFunction
        CFI (cfiPicker166) Picker
        LDI	R24, 0
        MOVW	R17:R16, R29:R28
        CALL	strlen
        CPI	R16, 36
        RET
        CFI EndBlock cfiCond164
        CFI EndBlock cfiCond165
        CFI EndBlock cfiPicker166

        RSEG FARCODE:CODE:NOROOT(1)
?Subroutine45:
        CFI Block cfiCond167 Using cfiCommon0
        CFI NoFunction
        CFI Conditional ??CrossCallReturnLabel_46
        CFI R24 Frame(CFA_Y, -8)
        CFI R25 Frame(CFA_Y, -7)
        CFI R26 Frame(CFA_Y, -6)
        CFI R27 Frame(CFA_Y, -5)
        CFI R4 Frame(CFA_Y, -4)
        CFI R5 Frame(CFA_Y, -3)
        CFI R6 Frame(CFA_Y, -2)
        CFI R7 Frame(CFA_Y, -1)
        CFI CFA_SP SP+6
        CFI CFA_Y Y+78
        CFI Block cfiCond168 Using cfiCommon0
        CFI (cfiCond168) NoFunction
        CFI (cfiCond168) Conditional ??CrossCallReturnLabel_47
        CFI (cfiCond168) R24 Frame(CFA_Y, -8)
        CFI (cfiCond168) R25 Frame(CFA_Y, -7)
        CFI (cfiCond168) R26 Frame(CFA_Y, -6)
        CFI (cfiCond168) R27 Frame(CFA_Y, -5)
        CFI (cfiCond168) R4 Frame(CFA_Y, -4)
        CFI (cfiCond168) R5 Frame(CFA_Y, -3)
        CFI (cfiCond168) R6 Frame(CFA_Y, -2)
        CFI (cfiCond168) R7 Frame(CFA_Y, -1)
        CFI (cfiCond168) CFA_SP SP+6
        CFI (cfiCond168) CFA_Y Y+78
        CFI Block cfiPicker169 Using cfiCommon1
        CFI (cfiPicker169) NoFunction
        CFI (cfiPicker169) Picker
        MOVW	R31:R30, R27:R26
        ADD	R30, R24
        ADC	R31, R7
        ST	Z, R16
        LDI	R17, 0
        RJMP	??Subroutine45_0
??Subroutine45_1:
        MOVW	R31:R30, R29:R28
        ADD	R30, R24
        ADC	R31, R7
        LD	R20, Z
        MOVW	R31:R30, R27:R26
        ADD	R30, R24
        ADC	R31, R7
        STD	Z+1, R20
        INC	R24
        INC	R17
??Subroutine45_0:
        CP	R17, R16
        BRCS	??Subroutine45_1
        MOV	R30, R16
        LDI	R31, 0
        ADD	R30, R4
        ADC	R31, R5
        ADIW	R31:R30, 3
        SBIW	R31:R30, 59
        RET
        CFI EndBlock cfiCond167
        CFI EndBlock cfiCond168
        CFI EndBlock cfiPicker169

        RSEG FARCODE:CODE:NOROOT(1)
?Subroutine42:
        CFI Block cfiCond170 Using cfiCommon0
        CFI NoFunction
        CFI Conditional ??CrossCallReturnLabel_482
        CFI R24 Frame(CFA_Y, -8)
        CFI R25 Frame(CFA_Y, -7)
        CFI R26 Frame(CFA_Y, -6)
        CFI R27 Frame(CFA_Y, -5)
        CFI R4 Frame(CFA_Y, -4)
        CFI R5 Frame(CFA_Y, -3)
        CFI R6 Frame(CFA_Y, -2)
        CFI R7 Frame(CFA_Y, -1)
        CFI CFA_SP SP+6
        CFI CFA_Y Y+78
        CFI Block cfiCond171 Using cfiCommon0
        CFI (cfiCond171) NoFunction
        CFI (cfiCond171) Conditional ??CrossCallReturnLabel_483
        CFI (cfiCond171) R24 Frame(CFA_Y, -8)
        CFI (cfiCond171) R25 Frame(CFA_Y, -7)
        CFI (cfiCond171) R26 Frame(CFA_Y, -6)
        CFI (cfiCond171) R27 Frame(CFA_Y, -5)
        CFI (cfiCond171) R4 Frame(CFA_Y, -4)
        CFI (cfiCond171) R5 Frame(CFA_Y, -3)
        CFI (cfiCond171) R6 Frame(CFA_Y, -2)
        CFI (cfiCond171) R7 Frame(CFA_Y, -1)
        CFI (cfiCond171) CFA_SP SP+6
        CFI (cfiCond171) CFA_Y Y+78
        CFI Block cfiPicker172 Using cfiCommon1
        CFI (cfiPicker172) NoFunction
        CFI (cfiPicker172) Picker
        MOVW	R31:R30, R27:R26
        ADD	R30, R24
        ADC	R31, R5
        ST	Z, R16
        LDI	R17, 0
        RJMP	??Subroutine42_0
??Subroutine42_1:
        MOVW	R31:R30, R29:R28
        ADD	R30, R24
        ADC	R31, R5
        LD	R20, Z
        MOVW	R31:R30, R27:R26
        ADD	R30, R24
        ADC	R31, R5
        STD	Z+1, R20
        INC	R24
        INC	R17
??Subroutine42_0:
        CP	R17, R16
        BRCS	??Subroutine42_1
        ADD	R4, R16
        ADC	R5, R5
        INC	R24
        MOVW	R17:R16, R29:R28
        ADD	R16, R24
        ADC	R17, R7
        CFI EndBlock cfiCond170
        CFI EndBlock cfiCond171
        CFI EndBlock cfiPicker172
        REQUIRE ?Subroutine258
        ;		// Fall through to label ?Subroutine258

        RSEG FARCODE:CODE:NOROOT(1)
?Subroutine258:
        CFI Block cfiCond173 Using cfiCommon0
        CFI NoFunction
        CFI Conditional ??CrossCallReturnLabel_482
        CFI R24 Frame(CFA_Y, -8)
        CFI R25 Frame(CFA_Y, -7)
        CFI R26 Frame(CFA_Y, -6)
        CFI R27 Frame(CFA_Y, -5)
        CFI R4 Frame(CFA_Y, -4)
        CFI R5 Frame(CFA_Y, -3)
        CFI R6 Frame(CFA_Y, -2)
        CFI R7 Frame(CFA_Y, -1)
        CFI CFA_SP SP+6
        CFI CFA_Y Y+78
        CFI Block cfiCond174 Using cfiCommon0
        CFI (cfiCond174) NoFunction
        CFI (cfiCond174) Conditional ??CrossCallReturnLabel_483
        CFI (cfiCond174) R24 Frame(CFA_Y, -8)
        CFI (cfiCond174) R25 Frame(CFA_Y, -7)
        CFI (cfiCond174) R26 Frame(CFA_Y, -6)
        CFI (cfiCond174) R27 Frame(CFA_Y, -5)
        CFI (cfiCond174) R4 Frame(CFA_Y, -4)
        CFI (cfiCond174) R5 Frame(CFA_Y, -3)
        CFI (cfiCond174) R6 Frame(CFA_Y, -2)
        CFI (cfiCond174) R7 Frame(CFA_Y, -1)
        CFI (cfiCond174) CFA_SP SP+6
        CFI (cfiCond174) CFA_Y Y+78
        CFI Block cfiCond175 Using cfiCommon0
        CFI (cfiCond175) NoFunction
        CFI (cfiCond175) Conditional ??CrossCallReturnLabel_480
        CFI (cfiCond175) R24 Frame(CFA_Y, -8)
        CFI (cfiCond175) R25 Frame(CFA_Y, -7)
        CFI (cfiCond175) R26 Frame(CFA_Y, -6)
        CFI (cfiCond175) R27 Frame(CFA_Y, -5)
        CFI (cfiCond175) R4 Frame(CFA_Y, -4)
        CFI (cfiCond175) R5 Frame(CFA_Y, -3)
        CFI (cfiCond175) R6 Frame(CFA_Y, -2)
        CFI (cfiCond175) R7 Frame(CFA_Y, -1)
        CFI (cfiCond175) CFA_SP SP+6
        CFI (cfiCond175) CFA_Y Y+78
        CFI Block cfiCond176 Using cfiCommon0
        CFI (cfiCond176) NoFunction
        CFI (cfiCond176) Conditional ??CrossCallReturnLabel_481
        CFI (cfiCond176) R24 Frame(CFA_Y, -8)
        CFI (cfiCond176) R25 Frame(CFA_Y, -7)
        CFI (cfiCond176) R26 Frame(CFA_Y, -6)
        CFI (cfiCond176) R27 Frame(CFA_Y, -5)
        CFI (cfiCond176) R4 Frame(CFA_Y, -4)
        CFI (cfiCond176) R5 Frame(CFA_Y, -3)
        CFI (cfiCond176) R6 Frame(CFA_Y, -2)
        CFI (cfiCond176) R7 Frame(CFA_Y, -1)
        CFI (cfiCond176) CFA_SP SP+6
        CFI (cfiCond176) CFA_Y Y+78
        CFI Block cfiPicker177 Using cfiCommon1
        CFI (cfiPicker177) NoFunction
        CFI (cfiPicker177) Picker
        CALL	strlen
        CPI	R16, 16
        RET
        CFI EndBlock cfiCond173
        CFI EndBlock cfiCond174
        CFI EndBlock cfiCond175
        CFI EndBlock cfiCond176
        CFI EndBlock cfiPicker177

        RSEG FARCODE:CODE:NOROOT(1)
?Subroutine40:
        CFI Block cfiCond178 Using cfiCommon0
        CFI NoFunction
        CFI Conditional ??CrossCallReturnLabel_480
        CFI R24 Frame(CFA_Y, -8)
        CFI R25 Frame(CFA_Y, -7)
        CFI R26 Frame(CFA_Y, -6)
        CFI R27 Frame(CFA_Y, -5)
        CFI R4 Frame(CFA_Y, -4)
        CFI R5 Frame(CFA_Y, -3)
        CFI R6 Frame(CFA_Y, -2)
        CFI R7 Frame(CFA_Y, -1)
        CFI CFA_SP SP+6
        CFI CFA_Y Y+78
        CFI Block cfiCond179 Using cfiCommon0
        CFI (cfiCond179) NoFunction
        CFI (cfiCond179) Conditional ??CrossCallReturnLabel_481
        CFI (cfiCond179) R24 Frame(CFA_Y, -8)
        CFI (cfiCond179) R25 Frame(CFA_Y, -7)
        CFI (cfiCond179) R26 Frame(CFA_Y, -6)
        CFI (cfiCond179) R27 Frame(CFA_Y, -5)
        CFI (cfiCond179) R4 Frame(CFA_Y, -4)
        CFI (cfiCond179) R5 Frame(CFA_Y, -3)
        CFI (cfiCond179) R6 Frame(CFA_Y, -2)
        CFI (cfiCond179) R7 Frame(CFA_Y, -1)
        CFI (cfiCond179) CFA_SP SP+6
        CFI (cfiCond179) CFA_Y Y+78
        CFI Block cfiPicker180 Using cfiCommon1
        CFI (cfiPicker180) NoFunction
        CFI (cfiPicker180) Picker
        LDI	R26, LOW(buf_tx_232)
        LDI	R27, (buf_tx_232) >> 8
        ST	X, R16
        LDI	R17, 0
        RJMP	??Subroutine40_0
??Subroutine40_1:
        LDI	R19, 0
        MOVW	R31:R30, R29:R28
        ADD	R30, R24
        ADC	R31, R19
        LD	R20, Z
        MOVW	R31:R30, R27:R26
        ADD	R30, R24
        ADC	R31, R19
        STD	Z+1, R20
        INC	R24
        INC	R17
??Subroutine40_0:
        CP	R17, R16
        BRCS	??Subroutine40_1
        MOV	R4, R16
        CLR	R5
        INC	R24
        CLR	R7
        MOVW	R17:R16, R29:R28
        ADD	R16, R24
        ADC	R17, R5
        RJMP	?Subroutine258
        CFI EndBlock cfiCond178
        CFI EndBlock cfiCond179
        CFI EndBlock cfiPicker180

        RSEG FARCODE:CODE:NOROOT(1)
?Subroutine38:
        CFI Block cfiCond181 Using cfiCommon0
        CFI NoFunction
        CFI Conditional ??CrossCallReturnLabel_589
        CFI R24 Frame(CFA_Y, -8)
        CFI R25 Frame(CFA_Y, -7)
        CFI R26 Frame(CFA_Y, -6)
        CFI R27 Frame(CFA_Y, -5)
        CFI R4 Frame(CFA_Y, -4)
        CFI R5 Frame(CFA_Y, -3)
        CFI R6 Frame(CFA_Y, -2)
        CFI R7 Frame(CFA_Y, -1)
        CFI CFA_SP SP+6
        CFI CFA_Y Y+78
        CFI Block cfiCond182 Using cfiCommon0
        CFI (cfiCond182) NoFunction
        CFI (cfiCond182) Conditional ??CrossCallReturnLabel_590
        CFI (cfiCond182) R24 Frame(CFA_Y, -8)
        CFI (cfiCond182) R25 Frame(CFA_Y, -7)
        CFI (cfiCond182) R26 Frame(CFA_Y, -6)
        CFI (cfiCond182) R27 Frame(CFA_Y, -5)
        CFI (cfiCond182) R4 Frame(CFA_Y, -4)
        CFI (cfiCond182) R5 Frame(CFA_Y, -3)
        CFI (cfiCond182) R6 Frame(CFA_Y, -2)
        CFI (cfiCond182) R7 Frame(CFA_Y, -1)
        CFI (cfiCond182) CFA_SP SP+6
        CFI (cfiCond182) CFA_Y Y+78
        CFI Block cfiPicker183 Using cfiCommon1
        CFI (cfiPicker183) NoFunction
        CFI (cfiPicker183) Picker
        LDI	R20, 255
        LDI	R21, 255
        LDI	R18, 58
        LDI	R19, 0
        MOVW	R17:R16, R27:R26
        RCALL	crc_m1
        MOVW	R31:R30, R27:R26
        STD	Z+58, R16
        STD	Z+59, R17
        LDI	R23, 0
        LDI	R22, 0
        LDI	R20, 60
        LDI	R21, 0
        CFI EndBlock cfiCond181
        CFI EndBlock cfiCond182
        CFI EndBlock cfiPicker183
        REQUIRE ?Subroutine273
        ;		// Fall through to label ?Subroutine273

        RSEG FARCODE:CODE:NOROOT(1)
?Subroutine273:
        CFI Block cfiCond184 Using cfiCommon0
        CFI NoFunction
        CFI Conditional ??CrossCallReturnLabel_589
        CFI R24 Frame(CFA_Y, -8)
        CFI R25 Frame(CFA_Y, -7)
        CFI R26 Frame(CFA_Y, -6)
        CFI R27 Frame(CFA_Y, -5)
        CFI R4 Frame(CFA_Y, -4)
        CFI R5 Frame(CFA_Y, -3)
        CFI R6 Frame(CFA_Y, -2)
        CFI R7 Frame(CFA_Y, -1)
        CFI CFA_SP SP+6
        CFI CFA_Y Y+78
        CFI Block cfiCond185 Using cfiCommon0
        CFI (cfiCond185) NoFunction
        CFI (cfiCond185) Conditional ??CrossCallReturnLabel_590
        CFI (cfiCond185) R24 Frame(CFA_Y, -8)
        CFI (cfiCond185) R25 Frame(CFA_Y, -7)
        CFI (cfiCond185) R26 Frame(CFA_Y, -6)
        CFI (cfiCond185) R27 Frame(CFA_Y, -5)
        CFI (cfiCond185) R4 Frame(CFA_Y, -4)
        CFI (cfiCond185) R5 Frame(CFA_Y, -3)
        CFI (cfiCond185) R6 Frame(CFA_Y, -2)
        CFI (cfiCond185) R7 Frame(CFA_Y, -1)
        CFI (cfiCond185) CFA_SP SP+6
        CFI (cfiCond185) CFA_Y Y+78
        CFI Block cfiCond186 Using cfiCommon0
        CFI (cfiCond186) NoFunction
        CFI (cfiCond186) Conditional ??CrossCallReturnLabel_579
        CFI (cfiCond186) R24 Frame(CFA_Y, -16)
        CFI (cfiCond186) R25 Frame(CFA_Y, -15)
        CFI (cfiCond186) R26 Frame(CFA_Y, -14)
        CFI (cfiCond186) R27 Frame(CFA_Y, -13)
        CFI (cfiCond186) R4 Frame(CFA_Y, -12)
        CFI (cfiCond186) R5 Frame(CFA_Y, -11)
        CFI (cfiCond186) R6 Frame(CFA_Y, -10)
        CFI (cfiCond186) R7 Frame(CFA_Y, -9)
        CFI (cfiCond186) R8 Frame(CFA_Y, -8)
        CFI (cfiCond186) R9 Frame(CFA_Y, -7)
        CFI (cfiCond186) R10 Frame(CFA_Y, -6)
        CFI (cfiCond186) R11 Frame(CFA_Y, -5)
        CFI (cfiCond186) R12 Frame(CFA_Y, -4)
        CFI (cfiCond186) R13 Frame(CFA_Y, -3)
        CFI (cfiCond186) R14 Frame(CFA_Y, -2)
        CFI (cfiCond186) R15 Frame(CFA_Y, -1)
        CFI (cfiCond186) CFA_SP SP+6
        CFI (cfiCond186) CFA_Y Y+43
        CFI Block cfiCond187 Using cfiCommon0
        CFI (cfiCond187) NoFunction
        CFI (cfiCond187) Conditional ??CrossCallReturnLabel_580
        CFI (cfiCond187) R24 Frame(CFA_Y, -16)
        CFI (cfiCond187) R25 Frame(CFA_Y, -15)
        CFI (cfiCond187) R26 Frame(CFA_Y, -14)
        CFI (cfiCond187) R27 Frame(CFA_Y, -13)
        CFI (cfiCond187) R4 Frame(CFA_Y, -12)
        CFI (cfiCond187) R5 Frame(CFA_Y, -11)
        CFI (cfiCond187) R6 Frame(CFA_Y, -10)
        CFI (cfiCond187) R7 Frame(CFA_Y, -9)
        CFI (cfiCond187) R8 Frame(CFA_Y, -8)
        CFI (cfiCond187) R9 Frame(CFA_Y, -7)
        CFI (cfiCond187) R10 Frame(CFA_Y, -6)
        CFI (cfiCond187) R11 Frame(CFA_Y, -5)
        CFI (cfiCond187) R12 Frame(CFA_Y, -4)
        CFI (cfiCond187) R13 Frame(CFA_Y, -3)
        CFI (cfiCond187) R14 Frame(CFA_Y, -2)
        CFI (cfiCond187) R15 Frame(CFA_Y, -1)
        CFI (cfiCond187) CFA_SP SP+6
        CFI (cfiCond187) CFA_Y Y+43
        CFI Block cfiCond188 Using cfiCommon0
        CFI (cfiCond188) NoFunction
        CFI (cfiCond188) Conditional ??CrossCallReturnLabel_581
        CFI (cfiCond188) R24 Frame(CFA_Y, -16)
        CFI (cfiCond188) R25 Frame(CFA_Y, -15)
        CFI (cfiCond188) R26 Frame(CFA_Y, -14)
        CFI (cfiCond188) R27 Frame(CFA_Y, -13)
        CFI (cfiCond188) R4 Frame(CFA_Y, -12)
        CFI (cfiCond188) R5 Frame(CFA_Y, -11)
        CFI (cfiCond188) R6 Frame(CFA_Y, -10)
        CFI (cfiCond188) R7 Frame(CFA_Y, -9)
        CFI (cfiCond188) R8 Frame(CFA_Y, -8)
        CFI (cfiCond188) R9 Frame(CFA_Y, -7)
        CFI (cfiCond188) R10 Frame(CFA_Y, -6)
        CFI (cfiCond188) R11 Frame(CFA_Y, -5)
        CFI (cfiCond188) R12 Frame(CFA_Y, -4)
        CFI (cfiCond188) R13 Frame(CFA_Y, -3)
        CFI (cfiCond188) R14 Frame(CFA_Y, -2)
        CFI (cfiCond188) R15 Frame(CFA_Y, -1)
        CFI (cfiCond188) CFA_SP SP+6
        CFI (cfiCond188) CFA_Y Y+43
        CFI Block cfiCond189 Using cfiCommon0
        CFI (cfiCond189) NoFunction
        CFI (cfiCond189) Conditional ??CrossCallReturnLabel_582
        CFI (cfiCond189) R24 Frame(CFA_Y, -16)
        CFI (cfiCond189) R25 Frame(CFA_Y, -15)
        CFI (cfiCond189) R26 Frame(CFA_Y, -14)
        CFI (cfiCond189) R27 Frame(CFA_Y, -13)
        CFI (cfiCond189) R4 Frame(CFA_Y, -12)
        CFI (cfiCond189) R5 Frame(CFA_Y, -11)
        CFI (cfiCond189) R6 Frame(CFA_Y, -10)
        CFI (cfiCond189) R7 Frame(CFA_Y, -9)
        CFI (cfiCond189) R8 Frame(CFA_Y, -8)
        CFI (cfiCond189) R9 Frame(CFA_Y, -7)
        CFI (cfiCond189) R10 Frame(CFA_Y, -6)
        CFI (cfiCond189) R11 Frame(CFA_Y, -5)
        CFI (cfiCond189) R12 Frame(CFA_Y, -4)
        CFI (cfiCond189) R13 Frame(CFA_Y, -3)
        CFI (cfiCond189) R14 Frame(CFA_Y, -2)
        CFI (cfiCond189) R15 Frame(CFA_Y, -1)
        CFI (cfiCond189) CFA_SP SP+6
        CFI (cfiCond189) CFA_Y Y+43
        CFI Block cfiCond190 Using cfiCommon0
        CFI (cfiCond190) NoFunction
        CFI (cfiCond190) Conditional ??CrossCallReturnLabel_583
        CFI (cfiCond190) R24 Frame(CFA_Y, -16)
        CFI (cfiCond190) R25 Frame(CFA_Y, -15)
        CFI (cfiCond190) R26 Frame(CFA_Y, -14)
        CFI (cfiCond190) R27 Frame(CFA_Y, -13)
        CFI (cfiCond190) R4 Frame(CFA_Y, -12)
        CFI (cfiCond190) R5 Frame(CFA_Y, -11)
        CFI (cfiCond190) R6 Frame(CFA_Y, -10)
        CFI (cfiCond190) R7 Frame(CFA_Y, -9)
        CFI (cfiCond190) R8 Frame(CFA_Y, -8)
        CFI (cfiCond190) R9 Frame(CFA_Y, -7)
        CFI (cfiCond190) R10 Frame(CFA_Y, -6)
        CFI (cfiCond190) R11 Frame(CFA_Y, -5)
        CFI (cfiCond190) R12 Frame(CFA_Y, -4)
        CFI (cfiCond190) R13 Frame(CFA_Y, -3)
        CFI (cfiCond190) R14 Frame(CFA_Y, -2)
        CFI (cfiCond190) R15 Frame(CFA_Y, -1)
        CFI (cfiCond190) CFA_SP SP+6
        CFI (cfiCond190) CFA_Y Y+43
        CFI Block cfiCond191 Using cfiCommon0
        CFI (cfiCond191) NoFunction
        CFI (cfiCond191) Conditional ??CrossCallReturnLabel_584
        CFI (cfiCond191) R24 Frame(CFA_Y, -16)
        CFI (cfiCond191) R25 Frame(CFA_Y, -15)
        CFI (cfiCond191) R26 Frame(CFA_Y, -14)
        CFI (cfiCond191) R27 Frame(CFA_Y, -13)
        CFI (cfiCond191) R4 Frame(CFA_Y, -12)
        CFI (cfiCond191) R5 Frame(CFA_Y, -11)
        CFI (cfiCond191) R6 Frame(CFA_Y, -10)
        CFI (cfiCond191) R7 Frame(CFA_Y, -9)
        CFI (cfiCond191) R8 Frame(CFA_Y, -8)
        CFI (cfiCond191) R9 Frame(CFA_Y, -7)
        CFI (cfiCond191) R10 Frame(CFA_Y, -6)
        CFI (cfiCond191) R11 Frame(CFA_Y, -5)
        CFI (cfiCond191) R12 Frame(CFA_Y, -4)
        CFI (cfiCond191) R13 Frame(CFA_Y, -3)
        CFI (cfiCond191) R14 Frame(CFA_Y, -2)
        CFI (cfiCond191) R15 Frame(CFA_Y, -1)
        CFI (cfiCond191) CFA_SP SP+6
        CFI (cfiCond191) CFA_Y Y+43
        CFI Block cfiCond192 Using cfiCommon0
        CFI (cfiCond192) NoFunction
        CFI (cfiCond192) Conditional ??CrossCallReturnLabel_585
        CFI (cfiCond192) R24 Frame(CFA_Y, -16)
        CFI (cfiCond192) R25 Frame(CFA_Y, -15)
        CFI (cfiCond192) R26 Frame(CFA_Y, -14)
        CFI (cfiCond192) R27 Frame(CFA_Y, -13)
        CFI (cfiCond192) R4 Frame(CFA_Y, -12)
        CFI (cfiCond192) R5 Frame(CFA_Y, -11)
        CFI (cfiCond192) R6 Frame(CFA_Y, -10)
        CFI (cfiCond192) R7 Frame(CFA_Y, -9)
        CFI (cfiCond192) R8 Frame(CFA_Y, -8)
        CFI (cfiCond192) R9 Frame(CFA_Y, -7)
        CFI (cfiCond192) R10 Frame(CFA_Y, -6)
        CFI (cfiCond192) R11 Frame(CFA_Y, -5)
        CFI (cfiCond192) R12 Frame(CFA_Y, -4)
        CFI (cfiCond192) R13 Frame(CFA_Y, -3)
        CFI (cfiCond192) R14 Frame(CFA_Y, -2)
        CFI (cfiCond192) R15 Frame(CFA_Y, -1)
        CFI (cfiCond192) CFA_SP SP+6
        CFI (cfiCond192) CFA_Y Y+43
        CFI Block cfiCond193 Using cfiCommon0
        CFI (cfiCond193) NoFunction
        CFI (cfiCond193) Conditional ??CrossCallReturnLabel_586
        CFI (cfiCond193) R24 Frame(CFA_Y, -16)
        CFI (cfiCond193) R25 Frame(CFA_Y, -15)
        CFI (cfiCond193) R26 Frame(CFA_Y, -14)
        CFI (cfiCond193) R27 Frame(CFA_Y, -13)
        CFI (cfiCond193) R4 Frame(CFA_Y, -12)
        CFI (cfiCond193) R5 Frame(CFA_Y, -11)
        CFI (cfiCond193) R6 Frame(CFA_Y, -10)
        CFI (cfiCond193) R7 Frame(CFA_Y, -9)
        CFI (cfiCond193) R8 Frame(CFA_Y, -8)
        CFI (cfiCond193) R9 Frame(CFA_Y, -7)
        CFI (cfiCond193) R10 Frame(CFA_Y, -6)
        CFI (cfiCond193) R11 Frame(CFA_Y, -5)
        CFI (cfiCond193) R12 Frame(CFA_Y, -4)
        CFI (cfiCond193) R13 Frame(CFA_Y, -3)
        CFI (cfiCond193) R14 Frame(CFA_Y, -2)
        CFI (cfiCond193) R15 Frame(CFA_Y, -1)
        CFI (cfiCond193) CFA_SP SP+6
        CFI (cfiCond193) CFA_Y Y+43
        CFI Block cfiCond194 Using cfiCommon0
        CFI (cfiCond194) NoFunction
        CFI (cfiCond194) Conditional ??CrossCallReturnLabel_587
        CFI (cfiCond194) R24 Frame(CFA_Y, -16)
        CFI (cfiCond194) R25 Frame(CFA_Y, -15)
        CFI (cfiCond194) R26 Frame(CFA_Y, -14)
        CFI (cfiCond194) R27 Frame(CFA_Y, -13)
        CFI (cfiCond194) R4 Frame(CFA_Y, -12)
        CFI (cfiCond194) R5 Frame(CFA_Y, -11)
        CFI (cfiCond194) R6 Frame(CFA_Y, -10)
        CFI (cfiCond194) R7 Frame(CFA_Y, -9)
        CFI (cfiCond194) R8 Frame(CFA_Y, -8)
        CFI (cfiCond194) R9 Frame(CFA_Y, -7)
        CFI (cfiCond194) R10 Frame(CFA_Y, -6)
        CFI (cfiCond194) R11 Frame(CFA_Y, -5)
        CFI (cfiCond194) R12 Frame(CFA_Y, -4)
        CFI (cfiCond194) R13 Frame(CFA_Y, -3)
        CFI (cfiCond194) R14 Frame(CFA_Y, -2)
        CFI (cfiCond194) R15 Frame(CFA_Y, -1)
        CFI (cfiCond194) CFA_SP SP+6
        CFI (cfiCond194) CFA_Y Y+43
        CFI Block cfiCond195 Using cfiCommon0
        CFI (cfiCond195) NoFunction
        CFI (cfiCond195) Conditional ??CrossCallReturnLabel_588
        CFI (cfiCond195) R24 Frame(CFA_Y, -16)
        CFI (cfiCond195) R25 Frame(CFA_Y, -15)
        CFI (cfiCond195) R26 Frame(CFA_Y, -14)
        CFI (cfiCond195) R27 Frame(CFA_Y, -13)
        CFI (cfiCond195) R4 Frame(CFA_Y, -12)
        CFI (cfiCond195) R5 Frame(CFA_Y, -11)
        CFI (cfiCond195) R6 Frame(CFA_Y, -10)
        CFI (cfiCond195) R7 Frame(CFA_Y, -9)
        CFI (cfiCond195) R8 Frame(CFA_Y, -8)
        CFI (cfiCond195) R9 Frame(CFA_Y, -7)
        CFI (cfiCond195) R10 Frame(CFA_Y, -6)
        CFI (cfiCond195) R11 Frame(CFA_Y, -5)
        CFI (cfiCond195) R12 Frame(CFA_Y, -4)
        CFI (cfiCond195) R13 Frame(CFA_Y, -3)
        CFI (cfiCond195) R14 Frame(CFA_Y, -2)
        CFI (cfiCond195) R15 Frame(CFA_Y, -1)
        CFI (cfiCond195) CFA_SP SP+6
        CFI (cfiCond195) CFA_Y Y+43
        CFI Block cfiPicker196 Using cfiCommon1
        CFI (cfiPicker196) NoFunction
        CFI (cfiPicker196) Picker
        MOVW	R19:R18, R27:R26
        RET
        CFI EndBlock cfiCond184
        CFI EndBlock cfiCond185
        CFI EndBlock cfiCond186
        CFI EndBlock cfiCond187
        CFI EndBlock cfiCond188
        CFI EndBlock cfiCond189
        CFI EndBlock cfiCond190
        CFI EndBlock cfiCond191
        CFI EndBlock cfiCond192
        CFI EndBlock cfiCond193
        CFI EndBlock cfiCond194
        CFI EndBlock cfiCond195
        CFI EndBlock cfiPicker196

        RSEG FARCODE:CODE:NOROOT(1)
?Subroutine10:
        CFI Block cfiCond197 Using cfiCommon0
        CFI NoFunction
        CFI Conditional ??CrossCallReturnLabel_7
        CFI R24 Frame(CFA_Y, -8)
        CFI R25 Frame(CFA_Y, -7)
        CFI R26 Frame(CFA_Y, -6)
        CFI R27 Frame(CFA_Y, -5)
        CFI R4 Frame(CFA_Y, -4)
        CFI R5 Frame(CFA_Y, -3)
        CFI R6 Frame(CFA_Y, -2)
        CFI R7 Frame(CFA_Y, -1)
        CFI CFA_SP SP+6
        CFI CFA_Y Y+8
        CFI Block cfiCond198 Using cfiCommon0
        CFI (cfiCond198) NoFunction
        CFI (cfiCond198) Conditional ??CrossCallReturnLabel_8
        CFI (cfiCond198) R24 Frame(CFA_Y, -8)
        CFI (cfiCond198) R25 Frame(CFA_Y, -7)
        CFI (cfiCond198) R26 Frame(CFA_Y, -6)
        CFI (cfiCond198) R27 Frame(CFA_Y, -5)
        CFI (cfiCond198) R4 Frame(CFA_Y, -4)
        CFI (cfiCond198) R5 Frame(CFA_Y, -3)
        CFI (cfiCond198) R6 Frame(CFA_Y, -2)
        CFI (cfiCond198) R7 Frame(CFA_Y, -1)
        CFI (cfiCond198) CFA_SP SP+6
        CFI (cfiCond198) CFA_Y Y+8
        CFI Block cfiPicker199 Using cfiCommon1
        CFI (cfiPicker199) NoFunction
        CFI (cfiPicker199) Picker
        SBIW	R29:R28, 63
        CFI (cfiCond197) CFA_Y Y+71
        CFI (cfiCond198) CFA_Y Y+71
        SBIW	R29:R28, 7
        CFI (cfiCond197) CFA_Y Y+78
        CFI (cfiCond198) CFA_Y Y+78
        LDI	R16, 0
        MOVW	R31:R30, R29:R28
        ADIW	R31:R30, 63
        STD	Z+6, R16
        IN	R16, 0x34
        RET
        CFI EndBlock cfiCond197
        CFI EndBlock cfiCond198
        CFI EndBlock cfiPicker199

        RSEG FARCODE:CODE:NOROOT(1)
load_par_first_flash:
        CFI Block cfiBlock200 Using cfiCommon0
        CFI Function load_par_first_flash
        FUNCALL load_par_first_flash, RdFromFleshToArrInt
        LOCFRAME CSTACK, 6, STACK
        LOCFRAME RSTACK, 3, STACK
        FUNCALL load_par_first_flash, WrArrayToFleshInt
        LOCFRAME CSTACK, 8, STACK
        LOCFRAME RSTACK, 3, STACK
        FUNCALL load_par_first_flash, WrArrayToFleshInt
        LOCFRAME CSTACK, 8, STACK
        LOCFRAME RSTACK, 3, STACK
        FUNCALL load_par_first_flash, WrArrayToFlesh
        LOCFRAME CSTACK, 6, STACK
        LOCFRAME RSTACK, 3, STACK
        FUNCALL load_par_first_flash, WrArrayToFlesh
        LOCFRAME CSTACK, 6, STACK
        LOCFRAME RSTACK, 3, STACK
        FUNCALL load_par_first_flash, WrArrayToFlesh
        LOCFRAME CSTACK, 6, STACK
        LOCFRAME RSTACK, 3, STACK
        SBIW	R29:R28, 6
        CFI CFA_Y Y+6
        RCALL	?Subroutine130
??CrossCallReturnLabel_169:
        MOVW	R19:R18, R29:R28
        SUBI	R18, 252
        SBCI	R19, 255
        LDI	R16, 248
        LDI	R17, 127
        RCALL	??Subroutine151_0
??CrossCallReturnLabel_195:
        RCALL	?Subroutine152
??CrossCallReturnLabel_198:
        CPI	R16, 170
        LDI	R18, 85
        SBCI	R17, 85
        BREQ	??CrossCallReturnLabel_895
        LDI	R16, 170
        ST	-Y, R18
        CFI CFA_Y Y+7
        ST	-Y, R16
        CFI CFA_Y Y+8
        LDI	R22, 1
        RCALL	?Subroutine130
??CrossCallReturnLabel_170:
        MOVW	R19:R18, R29:R28
        SUBI	R18, 250
        SBCI	R19, 255
        LDI	R16, 248
        LDI	R17, 127
        CALL	WrArrayToFleshInt
        CFI CFA_Y Y+6
        LDI	R16, 30
        LDI	R17, 0
        LDI	R30, LOW(ust_vhod)
        LDI	R31, (ust_vhod) >> 8
        RCALL	?Subroutine145
??CrossCallReturnLabel_184:
        ST	-Y, R17
        CFI CFA_Y Y+7
        ST	-Y, R17
        CFI CFA_Y Y+8
        LDI	R22, 0
        RCALL	?Subroutine130
??CrossCallReturnLabel_171:
        MOVW	R19:R18, R31:R30
        LDI	R16, 112
        LDI	R17, 4
        CALL	WrArrayToFleshInt
        CFI CFA_Y Y+6
        LDI	R16, 14
        ST	Y, R16
        LDI	R16, 153
        STD	Y+1, R16
        LDI	R16, 214
        RCALL	?Subroutine5
??CrossCallReturnLabel_501:
        LDI	R16, 68
        RCALL	?Subroutine317
??CrossCallReturnLabel_897:
        LDI	R16, 212
        ST	Y, R16
        LDI	R16, 185
        STD	Y+1, R16
        LDI	R16, 210
        RCALL	?Subroutine5
??CrossCallReturnLabel_502:
        LDI	R16, 72
        RCALL	?Subroutine317
??CrossCallReturnLabel_896:
        LDI	R16, 48
        ST	Y, R16
        LDI	R16, 175
        STD	Y+1, R16
        LDI	R16, 76
        RCALL	?Subroutine5
??CrossCallReturnLabel_503:
        LDI	R16, 76
        RCALL	?Subroutine317
??CrossCallReturnLabel_895:
        ADIW	R29:R28, 6
        CFI CFA_Y Y+0
        RET
        CFI EndBlock cfiBlock200

        RSEG FARCODE:CODE:NOROOT(1)
?Subroutine5:
        CFI Block cfiCond201 Using cfiCommon0
        CFI NoFunction
        CFI Conditional ??CrossCallReturnLabel_501
        CFI CFA_SP SP+6
        CFI CFA_Y Y+6
        CFI Block cfiCond202 Using cfiCommon0
        CFI (cfiCond202) NoFunction
        CFI (cfiCond202) Conditional ??CrossCallReturnLabel_502
        CFI (cfiCond202) CFA_SP SP+6
        CFI (cfiCond202) CFA_Y Y+6
        CFI Block cfiCond203 Using cfiCommon0
        CFI (cfiCond203) NoFunction
        CFI (cfiCond203) Conditional ??CrossCallReturnLabel_503
        CFI (cfiCond203) CFA_SP SP+6
        CFI (cfiCond203) CFA_Y Y+6
        CFI Block cfiPicker204 Using cfiCommon1
        CFI (cfiPicker204) NoFunction
        CFI (cfiPicker204) Picker
        STD	Y+2, R16
        LDI	R16, 0
        STD	Y+3, R16
        LDI	R23, 0
        LDI	R22, 0
        LDI	R20, 4
        CFI EndBlock cfiCond201
        CFI EndBlock cfiCond202
        CFI EndBlock cfiCond203
        CFI EndBlock cfiPicker204
        REQUIRE ?Subroutine261
        ;		// Fall through to label ?Subroutine261

        RSEG FARCODE:CODE:NOROOT(1)
?Subroutine261:
        CFI Block cfiCond205 Using cfiCommon0
        CFI NoFunction
        CFI Conditional ??CrossCallReturnLabel_501
        CFI CFA_SP SP+6
        CFI CFA_Y Y+6
        CFI Block cfiCond206 Using cfiCommon0
        CFI (cfiCond206) NoFunction
        CFI (cfiCond206) Conditional ??CrossCallReturnLabel_502
        CFI (cfiCond206) CFA_SP SP+6
        CFI (cfiCond206) CFA_Y Y+6
        CFI Block cfiCond207 Using cfiCommon0
        CFI (cfiCond207) NoFunction
        CFI (cfiCond207) Conditional ??CrossCallReturnLabel_503
        CFI (cfiCond207) CFA_SP SP+6
        CFI (cfiCond207) CFA_Y Y+6
        CFI Block cfiCond208 Using cfiCommon0
        CFI (cfiCond208) NoFunction
        CFI (cfiCond208) Conditional ??CrossCallReturnLabel_510
        CFI (cfiCond208) R24 Frame(CFA_Y, -8)
        CFI (cfiCond208) R25 Frame(CFA_Y, -7)
        CFI (cfiCond208) R26 Frame(CFA_Y, -6)
        CFI (cfiCond208) R27 Frame(CFA_Y, -5)
        CFI (cfiCond208) R4 Frame(CFA_Y, -4)
        CFI (cfiCond208) R5 Frame(CFA_Y, -3)
        CFI (cfiCond208) R6 Frame(CFA_Y, -2)
        CFI (cfiCond208) R7 Frame(CFA_Y, -1)
        CFI (cfiCond208) CFA_SP SP+6
        CFI (cfiCond208) CFA_Y Y+28
        CFI Block cfiCond209 Using cfiCommon0
        CFI (cfiCond209) NoFunction
        CFI (cfiCond209) Conditional ??CrossCallReturnLabel_511
        CFI (cfiCond209) R24 Frame(CFA_Y, -16)
        CFI (cfiCond209) R25 Frame(CFA_Y, -15)
        CFI (cfiCond209) R26 Frame(CFA_Y, -14)
        CFI (cfiCond209) R27 Frame(CFA_Y, -13)
        CFI (cfiCond209) R4 Frame(CFA_Y, -12)
        CFI (cfiCond209) R5 Frame(CFA_Y, -11)
        CFI (cfiCond209) R6 Frame(CFA_Y, -10)
        CFI (cfiCond209) R7 Frame(CFA_Y, -9)
        CFI (cfiCond209) R8 Frame(CFA_Y, -8)
        CFI (cfiCond209) R9 Frame(CFA_Y, -7)
        CFI (cfiCond209) R10 Frame(CFA_Y, -6)
        CFI (cfiCond209) R11 Frame(CFA_Y, -5)
        CFI (cfiCond209) R12 Frame(CFA_Y, -4)
        CFI (cfiCond209) R13 Frame(CFA_Y, -3)
        CFI (cfiCond209) R14 Frame(CFA_Y, -2)
        CFI (cfiCond209) R15 Frame(CFA_Y, -1)
        CFI (cfiCond209) CFA_SP SP+6
        CFI (cfiCond209) CFA_Y Y+43
        CFI Block cfiCond210 Using cfiCommon0
        CFI (cfiCond210) NoFunction
        CFI (cfiCond210) Conditional ??CrossCallReturnLabel_512
        CFI (cfiCond210) R24 Frame(CFA_Y, -16)
        CFI (cfiCond210) R25 Frame(CFA_Y, -15)
        CFI (cfiCond210) R26 Frame(CFA_Y, -14)
        CFI (cfiCond210) R27 Frame(CFA_Y, -13)
        CFI (cfiCond210) R4 Frame(CFA_Y, -12)
        CFI (cfiCond210) R5 Frame(CFA_Y, -11)
        CFI (cfiCond210) R6 Frame(CFA_Y, -10)
        CFI (cfiCond210) R7 Frame(CFA_Y, -9)
        CFI (cfiCond210) R8 Frame(CFA_Y, -8)
        CFI (cfiCond210) R9 Frame(CFA_Y, -7)
        CFI (cfiCond210) R10 Frame(CFA_Y, -6)
        CFI (cfiCond210) R11 Frame(CFA_Y, -5)
        CFI (cfiCond210) R12 Frame(CFA_Y, -4)
        CFI (cfiCond210) R13 Frame(CFA_Y, -3)
        CFI (cfiCond210) R14 Frame(CFA_Y, -2)
        CFI (cfiCond210) R15 Frame(CFA_Y, -1)
        CFI (cfiCond210) CFA_SP SP+6
        CFI (cfiCond210) CFA_Y Y+43
        CFI Block cfiCond211 Using cfiCommon0
        CFI (cfiCond211) NoFunction
        CFI (cfiCond211) Conditional ??CrossCallReturnLabel_504
        CFI (cfiCond211) R24 Frame(CFA_Y, -8)
        CFI (cfiCond211) R25 Frame(CFA_Y, -7)
        CFI (cfiCond211) R26 Frame(CFA_Y, -6)
        CFI (cfiCond211) R27 Frame(CFA_Y, -5)
        CFI (cfiCond211) R4 Frame(CFA_Y, -4)
        CFI (cfiCond211) R5 Frame(CFA_Y, -3)
        CFI (cfiCond211) R6 Frame(CFA_Y, -2)
        CFI (cfiCond211) R7 Frame(CFA_Y, -1)
        CFI (cfiCond211) CFA_SP SP+6
        CFI (cfiCond211) CFA_Y Y+78
        CFI Block cfiCond212 Using cfiCommon0
        CFI (cfiCond212) NoFunction
        CFI (cfiCond212) Conditional ??CrossCallReturnLabel_505
        CFI (cfiCond212) R24 Frame(CFA_Y, -8)
        CFI (cfiCond212) R25 Frame(CFA_Y, -7)
        CFI (cfiCond212) R26 Frame(CFA_Y, -6)
        CFI (cfiCond212) R27 Frame(CFA_Y, -5)
        CFI (cfiCond212) R4 Frame(CFA_Y, -4)
        CFI (cfiCond212) R5 Frame(CFA_Y, -3)
        CFI (cfiCond212) R6 Frame(CFA_Y, -2)
        CFI (cfiCond212) R7 Frame(CFA_Y, -1)
        CFI (cfiCond212) CFA_SP SP+6
        CFI (cfiCond212) CFA_Y Y+78
        CFI Block cfiCond213 Using cfiCommon0
        CFI (cfiCond213) NoFunction
        CFI (cfiCond213) Conditional ??CrossCallReturnLabel_506
        CFI (cfiCond213) R24 Frame(CFA_Y, -8)
        CFI (cfiCond213) R25 Frame(CFA_Y, -7)
        CFI (cfiCond213) R26 Frame(CFA_Y, -6)
        CFI (cfiCond213) R27 Frame(CFA_Y, -5)
        CFI (cfiCond213) R4 Frame(CFA_Y, -4)
        CFI (cfiCond213) R5 Frame(CFA_Y, -3)
        CFI (cfiCond213) R6 Frame(CFA_Y, -2)
        CFI (cfiCond213) R7 Frame(CFA_Y, -1)
        CFI (cfiCond213) CFA_SP SP+6
        CFI (cfiCond213) CFA_Y Y+28
        CFI Block cfiCond214 Using cfiCommon0
        CFI (cfiCond214) NoFunction
        CFI (cfiCond214) Conditional ??CrossCallReturnLabel_507
        CFI (cfiCond214) R24 Frame(CFA_Y, -8)
        CFI (cfiCond214) R25 Frame(CFA_Y, -7)
        CFI (cfiCond214) R26 Frame(CFA_Y, -6)
        CFI (cfiCond214) R27 Frame(CFA_Y, -5)
        CFI (cfiCond214) R4 Frame(CFA_Y, -4)
        CFI (cfiCond214) R5 Frame(CFA_Y, -3)
        CFI (cfiCond214) R6 Frame(CFA_Y, -2)
        CFI (cfiCond214) R7 Frame(CFA_Y, -1)
        CFI (cfiCond214) CFA_SP SP+6
        CFI (cfiCond214) CFA_Y Y+28
        CFI Block cfiCond215 Using cfiCommon0
        CFI (cfiCond215) NoFunction
        CFI (cfiCond215) Conditional ??CrossCallReturnLabel_508
        CFI (cfiCond215) R24 Frame(CFA_Y, -16)
        CFI (cfiCond215) R25 Frame(CFA_Y, -15)
        CFI (cfiCond215) R26 Frame(CFA_Y, -14)
        CFI (cfiCond215) R27 Frame(CFA_Y, -13)
        CFI (cfiCond215) R4 Frame(CFA_Y, -12)
        CFI (cfiCond215) R5 Frame(CFA_Y, -11)
        CFI (cfiCond215) R6 Frame(CFA_Y, -10)
        CFI (cfiCond215) R7 Frame(CFA_Y, -9)
        CFI (cfiCond215) R8 Frame(CFA_Y, -8)
        CFI (cfiCond215) R9 Frame(CFA_Y, -7)
        CFI (cfiCond215) R10 Frame(CFA_Y, -6)
        CFI (cfiCond215) R11 Frame(CFA_Y, -5)
        CFI (cfiCond215) R12 Frame(CFA_Y, -4)
        CFI (cfiCond215) R13 Frame(CFA_Y, -3)
        CFI (cfiCond215) R14 Frame(CFA_Y, -2)
        CFI (cfiCond215) R15 Frame(CFA_Y, -1)
        CFI (cfiCond215) CFA_SP SP+6
        CFI (cfiCond215) CFA_Y Y+43
        CFI Block cfiCond216 Using cfiCommon0
        CFI (cfiCond216) NoFunction
        CFI (cfiCond216) Conditional ??CrossCallReturnLabel_509
        CFI (cfiCond216) R24 Frame(CFA_Y, -16)
        CFI (cfiCond216) R25 Frame(CFA_Y, -15)
        CFI (cfiCond216) R26 Frame(CFA_Y, -14)
        CFI (cfiCond216) R27 Frame(CFA_Y, -13)
        CFI (cfiCond216) R4 Frame(CFA_Y, -12)
        CFI (cfiCond216) R5 Frame(CFA_Y, -11)
        CFI (cfiCond216) R6 Frame(CFA_Y, -10)
        CFI (cfiCond216) R7 Frame(CFA_Y, -9)
        CFI (cfiCond216) R8 Frame(CFA_Y, -8)
        CFI (cfiCond216) R9 Frame(CFA_Y, -7)
        CFI (cfiCond216) R10 Frame(CFA_Y, -6)
        CFI (cfiCond216) R11 Frame(CFA_Y, -5)
        CFI (cfiCond216) R12 Frame(CFA_Y, -4)
        CFI (cfiCond216) R13 Frame(CFA_Y, -3)
        CFI (cfiCond216) R14 Frame(CFA_Y, -2)
        CFI (cfiCond216) R15 Frame(CFA_Y, -1)
        CFI (cfiCond216) CFA_SP SP+6
        CFI (cfiCond216) CFA_Y Y+43
        CFI Block cfiPicker217 Using cfiCommon1
        CFI (cfiPicker217) NoFunction
        CFI (cfiPicker217) Picker
        LDI	R21, 0
        MOVW	R19:R18, R29:R28
        RET
        CFI EndBlock cfiCond205
        CFI EndBlock cfiCond206
        CFI EndBlock cfiCond207
        CFI EndBlock cfiCond208
        CFI EndBlock cfiCond209
        CFI EndBlock cfiCond210
        CFI EndBlock cfiCond211
        CFI EndBlock cfiCond212
        CFI EndBlock cfiCond213
        CFI EndBlock cfiCond214
        CFI EndBlock cfiCond215
        CFI EndBlock cfiCond216
        CFI EndBlock cfiPicker217

        RSEG FARCODE:CODE:NOROOT(1)
load_par_from_memory:
        CFI Block cfiBlock218 Using cfiCommon0
        CFI Function load_par_from_memory
        FUNCALL load_par_from_memory, RdFromFleshToArr
        LOCFRAME CSTACK, 28, STACK
        LOCFRAME RSTACK, 3, STACK
        FUNCALL load_par_from_memory, crc_m1
        LOCFRAME CSTACK, 28, STACK
        LOCFRAME RSTACK, 3, STACK
        FUNCALL load_par_from_memory, RdFromFleshToArr
        LOCFRAME CSTACK, 28, STACK
        LOCFRAME RSTACK, 3, STACK
        FUNCALL load_par_from_memory, crc_m1
        LOCFRAME CSTACK, 28, STACK
        LOCFRAME RSTACK, 3, STACK
        FUNCALL load_par_from_memory, RdFromFleshToArr
        LOCFRAME CSTACK, 28, STACK
        LOCFRAME RSTACK, 3, STACK
        FUNCALL load_par_from_memory, crc_m1
        LOCFRAME CSTACK, 28, STACK
        LOCFRAME RSTACK, 3, STACK
        FUNCALL load_par_from_memory, RdFromFleshToArr
        LOCFRAME CSTACK, 28, STACK
        LOCFRAME RSTACK, 3, STACK
        FUNCALL load_par_from_memory, crc_m1
        LOCFRAME CSTACK, 28, STACK
        LOCFRAME RSTACK, 3, STACK
        FUNCALL load_par_from_memory, burst_ds_r
        LOCFRAME CSTACK, 28, STACK
        LOCFRAME RSTACK, 3, STACK
        FUNCALL load_par_from_memory, crc_m1
        LOCFRAME CSTACK, 28, STACK
        LOCFRAME RSTACK, 3, STACK
        FUNCALL load_par_from_memory, WrArrayToFlesh
        LOCFRAME CSTACK, 28, STACK
        LOCFRAME RSTACK, 3, STACK
        FUNCALL load_par_from_memory, RdFromFleshToArr
        LOCFRAME CSTACK, 28, STACK
        LOCFRAME RSTACK, 3, STACK
        FUNCALL load_par_from_memory, crc_sum
        LOCFRAME CSTACK, 28, STACK
        LOCFRAME RSTACK, 3, STACK
        FUNCALL load_par_from_memory, WrArrayToFlesh
        LOCFRAME CSTACK, 28, STACK
        LOCFRAME RSTACK, 3, STACK
        FUNCALL load_par_from_memory, RdFromFleshToArr
        LOCFRAME CSTACK, 28, STACK
        LOCFRAME RSTACK, 3, STACK
        FUNCALL load_par_from_memory, WrArrayToFlesh
        LOCFRAME CSTACK, 28, STACK
        LOCFRAME RSTACK, 3, STACK
        FUNCALL load_par_from_memory, RdFromFleshToArr
        LOCFRAME CSTACK, 28, STACK
        LOCFRAME RSTACK, 3, STACK
        FUNCALL load_par_from_memory, WrArrayToFlesh
        LOCFRAME CSTACK, 28, STACK
        LOCFRAME RSTACK, 3, STACK
        FUNCALL load_par_from_memory, RdFromFleshToArr
        LOCFRAME CSTACK, 28, STACK
        LOCFRAME RSTACK, 3, STACK
        FUNCALL load_par_from_memory, RdFromFleshToArrInt
        LOCFRAME CSTACK, 28, STACK
        LOCFRAME RSTACK, 3, STACK
        FUNCALL load_par_from_memory, RdFromFleshToArrInt
        LOCFRAME CSTACK, 28, STACK
        LOCFRAME RSTACK, 3, STACK
        FUNCALL load_par_from_memory, RdFromFleshToArr
        LOCFRAME CSTACK, 28, STACK
        LOCFRAME RSTACK, 3, STACK
        RCALL	?Subroutine128
        CFI R24 Frame(CFA_Y, -8)
        CFI R25 Frame(CFA_Y, -7)
        CFI R26 Frame(CFA_Y, -6)
        CFI R27 Frame(CFA_Y, -5)
        CFI R4 Frame(CFA_Y, -4)
        CFI R5 Frame(CFA_Y, -3)
        CFI R6 Frame(CFA_Y, -2)
        CFI R7 Frame(CFA_Y, -1)
        CFI CFA_Y Y+8
??CrossCallReturnLabel_165:
        REQUIRE	?Register_R4_is_cg_reg
        REQUIRE	?Register_R5_is_cg_reg
        REQUIRE	?Register_R6_is_cg_reg
        REQUIRE	?Register_R7_is_cg_reg
        SBIW	R29:R28, 20
        CFI CFA_Y Y+28
        RCALL	?Subroutine133
??CrossCallReturnLabel_510:
        LDI	R16, 140
        RCALL	?Subroutine318
??CrossCallReturnLabel_919:
        LDI	R26, LOW(Appl_seq)
        LDI	R27, (Appl_seq) >> 8
        LDD	R24, Y+8
        LDD	R25, Y+9
        CALL	?Subroutine119
??CrossCallReturnLabel_704:
        CP	R24, R16
        CPC	R25, R17
        BREQ	??load_par_from_memory_0
        LDI	R16, 91
        CALL	?Subroutine268
??CrossCallReturnLabel_548:
        LDI	R16, 245
        STD	Z+45, R16
        LDI	R16, 41
        STD	Z+46, R16
        LDI	R16, 91
        STD	Z+47, R16
        LDI	R16, 2
        LDI	R17, 0
        STD	Z+56, R16
        STD	Z+57, R17
        LDI	R16, 186
        LDI	R17, 19
        STD	Z+60, R16
        STD	Z+61, R17
        RJMP	??load_par_from_memory_1
??load_par_from_memory_0:
        LD	R16, Y
        CALL	?Subroutine268
??CrossCallReturnLabel_549:
        LDD	R16, Y+1
        STD	Z+45, R16
        LDD	R16, Y+2
        STD	Z+46, R16
        LDD	R16, Y+3
        STD	Z+47, R16
        RCALL	?Subroutine152
??CrossCallReturnLabel_199:
        STD	Z+60, R16
        STD	Z+61, R17
        LDD	R16, Y+6
        LDD	R17, Y+7
        STD	Z+56, R16
        STD	Z+57, R17
??load_par_from_memory_1:
        CALL	?Subroutine60
??CrossCallReturnLabel_924:
        RCALL	?Subroutine118
??CrossCallReturnLabel_151:
        BREQ	??load_par_from_memory_2
        LDI	R16, 50
        LDI	R17, 0
        MOVW	R31:R30, R27:R26
        STD	Z+36, R16
        STD	Z+37, R17
        LDI	R16, 45
        STD	Z+42, R16
        STD	Z+43, R17
        STD	Z+34, R16
        STD	Z+35, R17
        LDI	R16, 12
        STD	Z+38, R16
        STD	Z+39, R17
        LDI	R16, 5
        STD	Z+41, R16
        LDI	R18, 0
        STD	Z+48, R17
        STD	Z+49, R17
        STD	Z+50, R17
        STD	Z+51, R17
        LDI	R16, 16
        LDI	R17, 14
        RCALL	?Subroutine162
??CrossCallReturnLabel_220:
        RJMP	??load_par_from_memory_3
??load_par_from_memory_2:
        RCALL	?Subroutine262
??CrossCallReturnLabel_515:
        MOVW	R31:R30, R27:R26
        STD	Z+36, R16
        STD	Z+37, R17
        LDD	R16, Y+2
        LDD	R17, Y+3
        STD	Z+34, R16
        STD	Z+35, R17
        LDI	R16, 12
        LDI	R17, 0
        STD	Z+38, R16
        STD	Z+39, R17
        RCALL	?Subroutine152
??CrossCallReturnLabel_200:
        LDI	R20, 12
        CALL	?Subroutine135
??CrossCallReturnLabel_179:
        MOVW	R31:R30, R27:R26
        STD	Z+41, R16
        LDD	R20, Y+6
        LDD	R21, Y+7
        CALL	?Subroutine49
??CrossCallReturnLabel_50:
        LDI	R18, 0
        STD	Z+48, R16
        STD	Z+49, R17
        STD	Z+50, R18
        STD	Z+51, R18
        LDD	R20, Y+8
        LDD	R21, Y+9
        CALL	?Subroutine49
??CrossCallReturnLabel_51:
        RCALL	?Subroutine162
??CrossCallReturnLabel_221:
        LDD	R16, Y+10
        LDD	R17, Y+11
        STD	Z+42, R16
        STD	Z+43, R17
??load_par_from_memory_3:
        CALL	?Subroutine131
??CrossCallReturnLabel_175:
        RCALL	?Subroutine318
??CrossCallReturnLabel_918:
        LDI	R24, LOW(struct_tcc1)
        LDI	R25, (struct_tcc1) >> 8
        LDD	R6, Y+9
        LDD	R7, Y+10
        RCALL	?Subroutine120
??CrossCallReturnLabel_153:
        LDI	R18, 9
        LDI	R19, 0
        MOVW	R17:R16, R29:R28
        RCALL	?Subroutine292
??CrossCallReturnLabel_707:
        CP	R6, R16
        CPC	R7, R17
        BREQ	??load_par_from_memory_4
        LDI	R16, 255
        MOVW	R31:R30, R27:R26
        STD	Z+62, R16
        STD	Z+58, R16
        STD	Z+59, R16
        LDI	R16, 30
        LDI	R17, 0
        STD	Z+18, R16
        STD	Z+19, R17
        LDI	R16, 10
        STD	Z+24, R16
        STD	Z+25, R17
        LDI	R16, 1
        MOVW	R31:R30, R25:R24
        STD	Z+4, R16
        RJMP	??load_par_from_memory_5
??load_par_from_memory_4:
        LD	R16, Y
        MOVW	R31:R30, R27:R26
        STD	Z+62, R16
        LDD	R16, Y+1
        LDD	R17, Y+2
        STD	Z+58, R16
        STD	Z+59, R17
        LDD	R16, Y+3
        LDD	R17, Y+4
        STD	Z+18, R16
        STD	Z+19, R17
        LDD	R16, Y+5
        LDD	R17, Y+6
        STD	Z+24, R16
        STD	Z+25, R17
        LDD	R16, Y+7
        MOVW	R31:R30, R25:R24
        STD	Z+4, R16
        LDD	R16, Y+8
??load_par_from_memory_5:
        LDI	R30, LOW(struct_tcc2)
        LDI	R31, (struct_tcc2) >> 8
        STD	Z+4, R16
        LDI	R20, 14
        CALL	?Subroutine132
??CrossCallReturnLabel_904:
        LDI	R26, LOW(unix)
        LDI	R27, (unix) >> 8
        RCALL	?Subroutine118
??CrossCallReturnLabel_152:
        BREQ	??load_par_from_memory_6
        CALL	?Subroutine154
??CrossCallReturnLabel_202:
        LDI	R19, 0
        STD	Y+4, R19
        STD	Y+5, R19
        STD	Y+6, R19
        STD	Y+7, R19
        STD	Y+8, R19
        STD	Y+9, R19
        STD	Y+10, R19
        STD	Y+11, R19
        RCALL	?Subroutine120
??CrossCallReturnLabel_154:
        LDI	R18, 12
        CALL	??Subroutine34_0
??CrossCallReturnLabel_889:
        RCALL	?Subroutine11
??CrossCallReturnLabel_432:
        STD	Z+4, R16
        STD	Z+5, R16
        RCALL	?Subroutine92
??CrossCallReturnLabel_110:
        STD	Z+10, R16
        STD	Z+11, R16
        RJMP	??load_par_from_memory_7
??load_par_from_memory_6:
        RCALL	?Subroutine152
??CrossCallReturnLabel_201:
        LDD	R18, Y+6
        LDD	R19, Y+7
        MOVW	R31:R30, R27:R26
        STD	Z+4, R16
        STD	Z+5, R17
        STD	Z+6, R18
        STD	Z+7, R19
        LDD	R16, Y+8
        LDD	R17, Y+9
        LDD	R18, Y+10
        LDD	R19, Y+11
        STD	Z+8, R16
        STD	Z+9, R17
        STD	Z+10, R18
        STD	Z+11, R19
??load_par_from_memory_7:
        LDI	R26, 0
??load_par_from_memory_8:
        MOV	R20, R26
        LDI	R21, 0
        LDI	R16, 14
        CALL	??Subroutine49_0
??CrossCallReturnLabel_52:
        MOVW	R25:R24, R17:R16
        SUBI	R25, 144
        LDI	R20, 14
        MOVW	R19:R18, R29:R28
        MOVW	R17:R16, R25:R24
        CALL	??Subroutine290_0
??CrossCallReturnLabel_911:
        LDD	R4, Y+12
        LDD	R5, Y+13
        LDI	R18, 12
        MOVW	R17:R16, R29:R28
        CALL	crc_sum
        CP	R4, R16
        CPC	R5, R17
        BREQ	??CrossCallReturnLabel_894
        LDI	R23, 0
        LDI	R22, 1
        LDI	R20, 14
        LDI	R21, 0
        RCALL	?Subroutine315
??CrossCallReturnLabel_878:
        MOVW	R17:R16, R25:R24
        CALL	??Subroutine289_0
??CrossCallReturnLabel_894:
        INC	R26
        CPI	R26, 8
        BRCS	??load_par_from_memory_8
        LDI	R20, 2
        RCALL	?Subroutine261
??CrossCallReturnLabel_506:
        LDI	R16, 240
        RCALL	?Subroutine139
??CrossCallReturnLabel_513:
        LDI	R30, LOW((modbus_mem1 + 64))
        LDI	R31, HIGH((modbus_mem1 + 64))
        RCALL	?Subroutine145
??CrossCallReturnLabel_185:
        CPI	R16, 100
        LDI	R18, 0
        CPC	R17, R18
        BRCC	??load_par_from_memory_9
        OR	R16, R17
        BRNE	??load_par_from_memory_10
??load_par_from_memory_9:
        RCALL	?Subroutine105
??CrossCallReturnLabel_884:
        LDI	R16, 240
        RCALL	?Subroutine148
??CrossCallReturnLabel_572:
        LDI	R30, LOW((modbus_mem1 + 64))
        LDI	R31, HIGH((modbus_mem1 + 64))
        ST	Z, R16
        STD	Z+1, R16
??load_par_from_memory_10:
        LDI	R20, 2
        RCALL	?Subroutine261
??CrossCallReturnLabel_507:
        LDI	R16, 242
        RCALL	?Subroutine139
??CrossCallReturnLabel_514:
        LDI	R30, LOW((modbus_mem1 + 62))
        LDI	R31, HIGH((modbus_mem1 + 62))
        RCALL	?Subroutine145
??CrossCallReturnLabel_186:
        CPI	R16, 55
        LDI	R18, 0
        CPC	R17, R18
        BRCC	??load_par_from_memory_11
        OR	R16, R17
        BRNE	??load_par_from_memory_12
??load_par_from_memory_11:
        RCALL	?Subroutine105
??CrossCallReturnLabel_885:
        LDI	R16, 242
        RCALL	?Subroutine148
??CrossCallReturnLabel_573:
        LDI	R30, LOW((modbus_mem1 + 62))
        LDI	R31, HIGH((modbus_mem1 + 62))
        ST	Z, R16
        STD	Z+1, R16
??load_par_from_memory_12:
        LDI	R20, 68
        LDI	R21, 0
        LDI	R18, LOW(c2_byte)
        LDI	R19, (c2_byte) >> 8
        LDI	R16, 0
        CALL	?Subroutine140
??CrossCallReturnLabel_913:
        RCALL	?Subroutine130
??CrossCallReturnLabel_172:
        LDI	R18, LOW(ust_vhod)
        LDI	R19, (ust_vhod) >> 8
        LDI	R16, 112
        RCALL	?Subroutine151
??CrossCallReturnLabel_197:
        LDI	R26, LOW(c_config_tc)
        LDI	R27, (c_config_tc) >> 8
        LDI	R20, 24
        LDI	R21, 0
        MOVW	R19:R18, R27:R26
        LDI	R16, 64
        RCALL	?Subroutine151
??CrossCallReturnLabel_196:
        LDI	R16, 0
        ADIW	R27:R26, 46
        ST	X+, R16
        ST	X, R16
        LDI	R20, 40
        LDI	R21, 0
        LDI	R18, LOW(c1_byte)
        LDI	R19, (c1_byte) >> 8
        LDI	R16, 128
        CALL	?Subroutine140
??CrossCallReturnLabel_912:
        ADIW	R29:R28, 20
        CFI CFA_Y Y+8
        RJMP	??Subroutine288_0
        CFI EndBlock cfiBlock218

        RSEG FARCODE:CODE:NOROOT(1)
?Subroutine162:
        CFI Block cfiCond219 Using cfiCommon0
        CFI NoFunction
        CFI Conditional ??CrossCallReturnLabel_220
        CFI R24 Frame(CFA_Y, -8)
        CFI R25 Frame(CFA_Y, -7)
        CFI R26 Frame(CFA_Y, -6)
        CFI R27 Frame(CFA_Y, -5)
        CFI R4 Frame(CFA_Y, -4)
        CFI R5 Frame(CFA_Y, -3)
        CFI R6 Frame(CFA_Y, -2)
        CFI R7 Frame(CFA_Y, -1)
        CFI CFA_SP SP+6
        CFI CFA_Y Y+28
        CFI Block cfiCond220 Using cfiCommon0
        CFI (cfiCond220) NoFunction
        CFI (cfiCond220) Conditional ??CrossCallReturnLabel_221
        CFI (cfiCond220) R24 Frame(CFA_Y, -8)
        CFI (cfiCond220) R25 Frame(CFA_Y, -7)
        CFI (cfiCond220) R26 Frame(CFA_Y, -6)
        CFI (cfiCond220) R27 Frame(CFA_Y, -5)
        CFI (cfiCond220) R4 Frame(CFA_Y, -4)
        CFI (cfiCond220) R5 Frame(CFA_Y, -3)
        CFI (cfiCond220) R6 Frame(CFA_Y, -2)
        CFI (cfiCond220) R7 Frame(CFA_Y, -1)
        CFI (cfiCond220) CFA_SP SP+6
        CFI (cfiCond220) CFA_Y Y+28
        CFI Block cfiPicker221 Using cfiCommon1
        CFI (cfiPicker221) NoFunction
        CFI (cfiPicker221) Picker
        STD	Z+52, R16
        STD	Z+53, R17
        STD	Z+54, R18
        STD	Z+55, R18
        RET
        CFI EndBlock cfiCond219
        CFI EndBlock cfiCond220
        CFI EndBlock cfiPicker221

        RSEG FARCODE:CODE:NOROOT(1)
?Subroutine152:
        CFI Block cfiCond222 Using cfiCommon0
        CFI NoFunction
        CFI Conditional ??CrossCallReturnLabel_198
        CFI CFA_SP SP+6
        CFI CFA_Y Y+6
        CFI Block cfiCond223 Using cfiCommon0
        CFI (cfiCond223) NoFunction
        CFI (cfiCond223) Conditional ??CrossCallReturnLabel_199
        CFI (cfiCond223) R24 Frame(CFA_Y, -8)
        CFI (cfiCond223) R25 Frame(CFA_Y, -7)
        CFI (cfiCond223) R26 Frame(CFA_Y, -6)
        CFI (cfiCond223) R27 Frame(CFA_Y, -5)
        CFI (cfiCond223) R4 Frame(CFA_Y, -4)
        CFI (cfiCond223) R5 Frame(CFA_Y, -3)
        CFI (cfiCond223) R6 Frame(CFA_Y, -2)
        CFI (cfiCond223) R7 Frame(CFA_Y, -1)
        CFI (cfiCond223) CFA_SP SP+6
        CFI (cfiCond223) CFA_Y Y+28
        CFI Block cfiCond224 Using cfiCommon0
        CFI (cfiCond224) NoFunction
        CFI (cfiCond224) Conditional ??CrossCallReturnLabel_200
        CFI (cfiCond224) R24 Frame(CFA_Y, -8)
        CFI (cfiCond224) R25 Frame(CFA_Y, -7)
        CFI (cfiCond224) R26 Frame(CFA_Y, -6)
        CFI (cfiCond224) R27 Frame(CFA_Y, -5)
        CFI (cfiCond224) R4 Frame(CFA_Y, -4)
        CFI (cfiCond224) R5 Frame(CFA_Y, -3)
        CFI (cfiCond224) R6 Frame(CFA_Y, -2)
        CFI (cfiCond224) R7 Frame(CFA_Y, -1)
        CFI (cfiCond224) CFA_SP SP+6
        CFI (cfiCond224) CFA_Y Y+28
        CFI Block cfiCond225 Using cfiCommon0
        CFI (cfiCond225) NoFunction
        CFI (cfiCond225) Conditional ??CrossCallReturnLabel_201
        CFI (cfiCond225) R24 Frame(CFA_Y, -8)
        CFI (cfiCond225) R25 Frame(CFA_Y, -7)
        CFI (cfiCond225) R26 Frame(CFA_Y, -6)
        CFI (cfiCond225) R27 Frame(CFA_Y, -5)
        CFI (cfiCond225) R4 Frame(CFA_Y, -4)
        CFI (cfiCond225) R5 Frame(CFA_Y, -3)
        CFI (cfiCond225) R6 Frame(CFA_Y, -2)
        CFI (cfiCond225) R7 Frame(CFA_Y, -1)
        CFI (cfiCond225) CFA_SP SP+6
        CFI (cfiCond225) CFA_Y Y+28
        CFI Block cfiPicker226 Using cfiCommon1
        CFI (cfiPicker226) NoFunction
        CFI (cfiPicker226) Picker
        LDD	R16, Y+4
        LDD	R17, Y+5
        RET
        CFI EndBlock cfiCond222
        CFI EndBlock cfiCond223
        CFI EndBlock cfiCond224
        CFI EndBlock cfiCond225
        CFI EndBlock cfiPicker226

        RSEG FARCODE:CODE:NOROOT(1)
?Subroutine151:
        CFI Block cfiCond227 Using cfiCommon0
        CFI NoFunction
        CFI Conditional ??CrossCallReturnLabel_197
        CFI R24 Frame(CFA_Y, -8)
        CFI R25 Frame(CFA_Y, -7)
        CFI R26 Frame(CFA_Y, -6)
        CFI R27 Frame(CFA_Y, -5)
        CFI R4 Frame(CFA_Y, -4)
        CFI R5 Frame(CFA_Y, -3)
        CFI R6 Frame(CFA_Y, -2)
        CFI R7 Frame(CFA_Y, -1)
        CFI CFA_SP SP+6
        CFI CFA_Y Y+28
        CFI Block cfiCond228 Using cfiCommon0
        CFI (cfiCond228) NoFunction
        CFI (cfiCond228) Conditional ??CrossCallReturnLabel_196
        CFI (cfiCond228) R24 Frame(CFA_Y, -8)
        CFI (cfiCond228) R25 Frame(CFA_Y, -7)
        CFI (cfiCond228) R26 Frame(CFA_Y, -6)
        CFI (cfiCond228) R27 Frame(CFA_Y, -5)
        CFI (cfiCond228) R4 Frame(CFA_Y, -4)
        CFI (cfiCond228) R5 Frame(CFA_Y, -3)
        CFI (cfiCond228) R6 Frame(CFA_Y, -2)
        CFI (cfiCond228) R7 Frame(CFA_Y, -1)
        CFI (cfiCond228) CFA_SP SP+6
        CFI (cfiCond228) CFA_Y Y+28
        CFI Block cfiPicker229 Using cfiCommon1
        CFI (cfiPicker229) NoFunction
        CFI (cfiPicker229) Picker
        LDI	R17, 4
        CFI Block cfiCond230 Using cfiCommon0
        CFI (cfiCond230) NoFunction
        CFI (cfiCond230) Conditional ??CrossCallReturnLabel_195
        CFI (cfiCond230) CFA_SP SP+6
        CFI (cfiCond230) CFA_Y Y+6
??Subroutine151_0:
        JMP	RdFromFleshToArrInt
        CFI EndBlock cfiCond227
        CFI EndBlock cfiCond228
        CFI EndBlock cfiPicker229
        CFI EndBlock cfiCond230

        RSEG FARCODE:CODE:NOROOT(1)
?Subroutine312:
        CFI Block cfiCond231 Using cfiCommon0
        CFI NoFunction
        CFI Conditional ??CrossCallReturnLabel_853
        CFI R26 Frame(CFA_Y, -2)
        CFI R27 Frame(CFA_Y, -1)
        CFI CFA_SP SP+6
        CFI CFA_Y Y+2
        CFI Block cfiCond232 Using cfiCommon0
        CFI (cfiCond232) NoFunction
        CFI (cfiCond232) Conditional ??CrossCallReturnLabel_852
        CFI (cfiCond232) R26 Frame(CFA_Y, -2)
        CFI (cfiCond232) R27 Frame(CFA_Y, -1)
        CFI (cfiCond232) CFA_SP SP+6
        CFI (cfiCond232) CFA_Y Y+2
        CFI Block cfiCond233 Using cfiCommon0
        CFI (cfiCond233) NoFunction
        CFI (cfiCond233) Conditional ??CrossCallReturnLabel_851
        CFI (cfiCond233) R26 Frame(CFA_Y, -2)
        CFI (cfiCond233) R27 Frame(CFA_Y, -1)
        CFI (cfiCond233) CFA_SP SP+6
        CFI (cfiCond233) CFA_Y Y+2
        CFI Block cfiCond234 Using cfiCommon0
        CFI (cfiCond234) NoFunction
        CFI (cfiCond234) Conditional ??CrossCallReturnLabel_850
        CFI (cfiCond234) R26 Frame(CFA_Y, -2)
        CFI (cfiCond234) R27 Frame(CFA_Y, -1)
        CFI (cfiCond234) CFA_SP SP+6
        CFI (cfiCond234) CFA_Y Y+2
        CFI Block cfiCond235 Using cfiCommon0
        CFI (cfiCond235) NoFunction
        CFI (cfiCond235) Conditional ??CrossCallReturnLabel_849
        CFI (cfiCond235) R26 Frame(CFA_Y, -2)
        CFI (cfiCond235) R27 Frame(CFA_Y, -1)
        CFI (cfiCond235) CFA_SP SP+6
        CFI (cfiCond235) CFA_Y Y+2
        CFI Block cfiCond236 Using cfiCommon0
        CFI (cfiCond236) NoFunction
        CFI (cfiCond236) Conditional ??CrossCallReturnLabel_848
        CFI (cfiCond236) R26 Frame(CFA_Y, -2)
        CFI (cfiCond236) R27 Frame(CFA_Y, -1)
        CFI (cfiCond236) CFA_SP SP+6
        CFI (cfiCond236) CFA_Y Y+2
        CFI Block cfiCond237 Using cfiCommon0
        CFI (cfiCond237) NoFunction
        CFI (cfiCond237) Conditional ??CrossCallReturnLabel_847
        CFI (cfiCond237) R24 Frame(CFA_Y, -8)
        CFI (cfiCond237) R25 Frame(CFA_Y, -7)
        CFI (cfiCond237) R26 Frame(CFA_Y, -6)
        CFI (cfiCond237) R27 Frame(CFA_Y, -5)
        CFI (cfiCond237) R4 Frame(CFA_Y, -4)
        CFI (cfiCond237) R5 Frame(CFA_Y, -3)
        CFI (cfiCond237) R6 Frame(CFA_Y, -2)
        CFI (cfiCond237) R7 Frame(CFA_Y, -1)
        CFI (cfiCond237) CFA_SP SP+6
        CFI (cfiCond237) CFA_Y Y+17
        CFI Block cfiCond238 Using cfiCommon0
        CFI (cfiCond238) NoFunction
        CFI (cfiCond238) Conditional ??CrossCallReturnLabel_846
        CFI (cfiCond238) R24 Frame(CFA_Y, -8)
        CFI (cfiCond238) R25 Frame(CFA_Y, -7)
        CFI (cfiCond238) R26 Frame(CFA_Y, -6)
        CFI (cfiCond238) R27 Frame(CFA_Y, -5)
        CFI (cfiCond238) R4 Frame(CFA_Y, -4)
        CFI (cfiCond238) R5 Frame(CFA_Y, -3)
        CFI (cfiCond238) R6 Frame(CFA_Y, -2)
        CFI (cfiCond238) R7 Frame(CFA_Y, -1)
        CFI (cfiCond238) CFA_SP SP+6
        CFI (cfiCond238) CFA_Y Y+17
        CFI Block cfiCond239 Using cfiCommon0
        CFI (cfiCond239) NoFunction
        CFI (cfiCond239) Conditional ??CrossCallReturnLabel_845
        CFI (cfiCond239) R24 Frame(CFA_Y, -8)
        CFI (cfiCond239) R25 Frame(CFA_Y, -7)
        CFI (cfiCond239) R26 Frame(CFA_Y, -6)
        CFI (cfiCond239) R27 Frame(CFA_Y, -5)
        CFI (cfiCond239) R4 Frame(CFA_Y, -4)
        CFI (cfiCond239) R5 Frame(CFA_Y, -3)
        CFI (cfiCond239) R6 Frame(CFA_Y, -2)
        CFI (cfiCond239) R7 Frame(CFA_Y, -1)
        CFI (cfiCond239) CFA_SP SP+6
        CFI (cfiCond239) CFA_Y Y+17
        CFI Block cfiCond240 Using cfiCommon0
        CFI (cfiCond240) NoFunction
        CFI (cfiCond240) Conditional ??CrossCallReturnLabel_844
        CFI (cfiCond240) R24 Frame(CFA_Y, -8)
        CFI (cfiCond240) R25 Frame(CFA_Y, -7)
        CFI (cfiCond240) R26 Frame(CFA_Y, -6)
        CFI (cfiCond240) R27 Frame(CFA_Y, -5)
        CFI (cfiCond240) R4 Frame(CFA_Y, -4)
        CFI (cfiCond240) R5 Frame(CFA_Y, -3)
        CFI (cfiCond240) R6 Frame(CFA_Y, -2)
        CFI (cfiCond240) R7 Frame(CFA_Y, -1)
        CFI (cfiCond240) CFA_SP SP+6
        CFI (cfiCond240) CFA_Y Y+17
        CFI Block cfiCond241 Using cfiCommon0
        CFI (cfiCond241) NoFunction
        CFI (cfiCond241) Conditional ??CrossCallReturnLabel_843
        CFI (cfiCond241) R24 Frame(CFA_Y, -5)
        CFI (cfiCond241) R25 Frame(CFA_Y, -4)
        CFI (cfiCond241) R26 Frame(CFA_Y, -3)
        CFI (cfiCond241) R27 Frame(CFA_Y, -2)
        CFI (cfiCond241) R4 Frame(CFA_Y, -1)
        CFI (cfiCond241) CFA_SP SP+6
        CFI (cfiCond241) CFA_Y Y+15
        CFI Block cfiCond242 Using cfiCommon0
        CFI (cfiCond242) NoFunction
        CFI (cfiCond242) Conditional ??CrossCallReturnLabel_842
        CFI (cfiCond242) R24 Frame(CFA_Y, -5)
        CFI (cfiCond242) R25 Frame(CFA_Y, -4)
        CFI (cfiCond242) R26 Frame(CFA_Y, -3)
        CFI (cfiCond242) R27 Frame(CFA_Y, -2)
        CFI (cfiCond242) R4 Frame(CFA_Y, -1)
        CFI (cfiCond242) CFA_SP SP+6
        CFI (cfiCond242) CFA_Y Y+15
        CFI Block cfiCond243 Using cfiCommon0
        CFI (cfiCond243) NoFunction
        CFI (cfiCond243) Conditional ??CrossCallReturnLabel_841
        CFI (cfiCond243) R26 Frame(CFA_Y, -2)
        CFI (cfiCond243) R27 Frame(CFA_Y, -1)
        CFI (cfiCond243) CFA_SP SP+6
        CFI (cfiCond243) CFA_Y Y+2
        CFI Block cfiCond244 Using cfiCommon0
        CFI (cfiCond244) NoFunction
        CFI (cfiCond244) Conditional ??CrossCallReturnLabel_840
        CFI (cfiCond244) R26 Frame(CFA_Y, -2)
        CFI (cfiCond244) R27 Frame(CFA_Y, -1)
        CFI (cfiCond244) CFA_SP SP+6
        CFI (cfiCond244) CFA_Y Y+2
        CFI Block cfiCond245 Using cfiCommon0
        CFI (cfiCond245) NoFunction
        CFI (cfiCond245) Conditional ??CrossCallReturnLabel_839
        CFI (cfiCond245) R26 Frame(CFA_Y, -2)
        CFI (cfiCond245) R27 Frame(CFA_Y, -1)
        CFI (cfiCond245) CFA_SP SP+6
        CFI (cfiCond245) CFA_Y Y+2
        CFI Block cfiCond246 Using cfiCommon0
        CFI (cfiCond246) NoFunction
        CFI (cfiCond246) Conditional ??CrossCallReturnLabel_838
        CFI (cfiCond246) R24 Frame(CFA_Y, -4)
        CFI (cfiCond246) R25 Frame(CFA_Y, -3)
        CFI (cfiCond246) R26 Frame(CFA_Y, -2)
        CFI (cfiCond246) R27 Frame(CFA_Y, -1)
        CFI (cfiCond246) CFA_SP SP+6
        CFI (cfiCond246) CFA_Y Y+14
        CFI Block cfiCond247 Using cfiCommon0
        CFI (cfiCond247) NoFunction
        CFI (cfiCond247) Conditional ??CrossCallReturnLabel_837
        CFI (cfiCond247) R24 Frame(CFA_Y, -5)
        CFI (cfiCond247) R25 Frame(CFA_Y, -4)
        CFI (cfiCond247) R26 Frame(CFA_Y, -3)
        CFI (cfiCond247) R27 Frame(CFA_Y, -2)
        CFI (cfiCond247) R4 Frame(CFA_Y, -1)
        CFI (cfiCond247) CFA_SP SP+6
        CFI (cfiCond247) CFA_Y Y+15
        CFI Block cfiCond248 Using cfiCommon0
        CFI (cfiCond248) NoFunction
        CFI (cfiCond248) Conditional ??CrossCallReturnLabel_836
        CFI (cfiCond248) R24 Frame(CFA_Y, -5)
        CFI (cfiCond248) R25 Frame(CFA_Y, -4)
        CFI (cfiCond248) R26 Frame(CFA_Y, -3)
        CFI (cfiCond248) R27 Frame(CFA_Y, -2)
        CFI (cfiCond248) R4 Frame(CFA_Y, -1)
        CFI (cfiCond248) CFA_SP SP+6
        CFI (cfiCond248) CFA_Y Y+15
        CFI Block cfiCond249 Using cfiCommon0
        CFI (cfiCond249) NoFunction
        CFI (cfiCond249) Conditional ??CrossCallReturnLabel_835
        CFI (cfiCond249) R26 Frame(CFA_Y, -2)
        CFI (cfiCond249) R27 Frame(CFA_Y, -1)
        CFI (cfiCond249) CFA_SP SP+6
        CFI (cfiCond249) CFA_Y Y+2
        CFI Block cfiCond250 Using cfiCommon0
        CFI (cfiCond250) NoFunction
        CFI (cfiCond250) Conditional ??CrossCallReturnLabel_834
        CFI (cfiCond250) R26 Frame(CFA_Y, -2)
        CFI (cfiCond250) R27 Frame(CFA_Y, -1)
        CFI (cfiCond250) CFA_SP SP+6
        CFI (cfiCond250) CFA_Y Y+2
        CFI Block cfiCond251 Using cfiCommon0
        CFI (cfiCond251) NoFunction
        CFI (cfiCond251) Conditional ??CrossCallReturnLabel_833
        CFI (cfiCond251) R26 Frame(CFA_Y, -2)
        CFI (cfiCond251) R27 Frame(CFA_Y, -1)
        CFI (cfiCond251) CFA_SP SP+6
        CFI (cfiCond251) CFA_Y Y+2
        CFI Block cfiCond252 Using cfiCommon0
        CFI (cfiCond252) NoFunction
        CFI (cfiCond252) Conditional ??CrossCallReturnLabel_832
        CFI (cfiCond252) R26 Frame(CFA_Y, -2)
        CFI (cfiCond252) R27 Frame(CFA_Y, -1)
        CFI (cfiCond252) CFA_SP SP+6
        CFI (cfiCond252) CFA_Y Y+2
        CFI Block cfiCond253 Using cfiCommon0
        CFI (cfiCond253) NoFunction
        CFI (cfiCond253) Conditional ??CrossCallReturnLabel_831
        CFI (cfiCond253) R26 Frame(CFA_Y, -2)
        CFI (cfiCond253) R27 Frame(CFA_Y, -1)
        CFI (cfiCond253) CFA_SP SP+6
        CFI (cfiCond253) CFA_Y Y+2
        CFI Block cfiCond254 Using cfiCommon0
        CFI (cfiCond254) NoFunction
        CFI (cfiCond254) Conditional ??CrossCallReturnLabel_830
        CFI (cfiCond254) R26 Frame(CFA_Y, -2)
        CFI (cfiCond254) R27 Frame(CFA_Y, -1)
        CFI (cfiCond254) CFA_SP SP+6
        CFI (cfiCond254) CFA_Y Y+2
        CFI Block cfiCond255 Using cfiCommon0
        CFI (cfiCond255) NoFunction
        CFI (cfiCond255) Conditional ??CrossCallReturnLabel_829
        CFI (cfiCond255) R26 Frame(CFA_Y, -2)
        CFI (cfiCond255) R27 Frame(CFA_Y, -1)
        CFI (cfiCond255) CFA_SP SP+6
        CFI (cfiCond255) CFA_Y Y+2
        CFI Block cfiCond256 Using cfiCommon0
        CFI (cfiCond256) NoFunction
        CFI (cfiCond256) Conditional ??CrossCallReturnLabel_828
        CFI (cfiCond256) R26 Frame(CFA_Y, -2)
        CFI (cfiCond256) R27 Frame(CFA_Y, -1)
        CFI (cfiCond256) CFA_SP SP+6
        CFI (cfiCond256) CFA_Y Y+2
        CFI Block cfiCond257 Using cfiCommon0
        CFI (cfiCond257) NoFunction
        CFI (cfiCond257) Conditional ??CrossCallReturnLabel_827
        CFI (cfiCond257) R26 Frame(CFA_Y, -2)
        CFI (cfiCond257) R27 Frame(CFA_Y, -1)
        CFI (cfiCond257) CFA_SP SP+6
        CFI (cfiCond257) CFA_Y Y+2
        CFI Block cfiCond258 Using cfiCommon0
        CFI (cfiCond258) NoFunction
        CFI (cfiCond258) Conditional ??__CCRETURN_0, ??CrossCallReturnLabel_758
        CFI (cfiCond258) CFA_SP SP+9
        CFI (cfiCond258) CFA_Y Y+1
        CFI Block cfiCond259 Using cfiCommon0
        CFI (cfiCond259) NoFunction
        CFI (cfiCond259) Conditional ??__CCRETURN_0, ??CrossCallReturnLabel_759
        CFI (cfiCond259) R24 Frame(CFA_Y, -4)
        CFI (cfiCond259) R25 Frame(CFA_Y, -3)
        CFI (cfiCond259) R26 Frame(CFA_Y, -2)
        CFI (cfiCond259) R27 Frame(CFA_Y, -1)
        CFI (cfiCond259) CFA_SP SP+9
        CFI (cfiCond259) CFA_Y Y+4
        CFI Block cfiCond260 Using cfiCommon0
        CFI (cfiCond260) NoFunction
        CFI (cfiCond260) Conditional ??__CCRETURN_1, ??CrossCallReturnLabel_264
        CFI (cfiCond260) R26 Frame(CFA_Y, -2)
        CFI (cfiCond260) R27 Frame(CFA_Y, -1)
        CFI (cfiCond260) CFA_SP SP+9
        CFI (cfiCond260) CFA_Y Y+2
        CFI Block cfiCond261 Using cfiCommon0
        CFI (cfiCond261) NoFunction
        CFI (cfiCond261) Conditional ??__CCRETURN_1, ??CrossCallReturnLabel_263
        CFI (cfiCond261) R24 Frame(CFA_Y, -4)
        CFI (cfiCond261) R25 Frame(CFA_Y, -3)
        CFI (cfiCond261) R26 Frame(CFA_Y, -2)
        CFI (cfiCond261) R27 Frame(CFA_Y, -1)
        CFI (cfiCond261) CFA_SP SP+9
        CFI (cfiCond261) CFA_Y Y+4
        CFI Block cfiBlock262 Using cfiCommon0
        CFI (cfiBlock262) NoFunction
        CFI Block cfiPicker263 Using cfiCommon1
        CFI (cfiPicker263) NoFunction
        CFI (cfiPicker263) Picker
        JMP	send_info
        CFI EndBlock cfiCond231
        CFI EndBlock cfiCond232
        CFI EndBlock cfiCond233
        CFI EndBlock cfiCond234
        CFI EndBlock cfiCond235
        CFI EndBlock cfiCond236
        CFI EndBlock cfiCond237
        CFI EndBlock cfiCond238
        CFI EndBlock cfiCond239
        CFI EndBlock cfiCond240
        CFI EndBlock cfiCond241
        CFI EndBlock cfiCond242
        CFI EndBlock cfiCond243
        CFI EndBlock cfiCond244
        CFI EndBlock cfiCond245
        CFI EndBlock cfiCond246
        CFI EndBlock cfiCond247
        CFI EndBlock cfiCond248
        CFI EndBlock cfiCond249
        CFI EndBlock cfiCond250
        CFI EndBlock cfiCond251
        CFI EndBlock cfiCond252
        CFI EndBlock cfiCond253
        CFI EndBlock cfiCond254
        CFI EndBlock cfiCond255
        CFI EndBlock cfiCond256
        CFI EndBlock cfiCond257
        CFI EndBlock cfiCond258
        CFI EndBlock cfiCond259
        CFI EndBlock cfiCond260
        CFI EndBlock cfiCond261
        CFI EndBlock cfiBlock262
        CFI EndBlock cfiPicker263

        RSEG FARCODE:CODE:NOROOT(1)
?Subroutine148:
        CFI Block cfiCond264 Using cfiCommon0
        CFI NoFunction
        CFI Conditional ??CrossCallReturnLabel_572
        CFI R24 Frame(CFA_Y, -8)
        CFI R25 Frame(CFA_Y, -7)
        CFI R26 Frame(CFA_Y, -6)
        CFI R27 Frame(CFA_Y, -5)
        CFI R4 Frame(CFA_Y, -4)
        CFI R5 Frame(CFA_Y, -3)
        CFI R6 Frame(CFA_Y, -2)
        CFI R7 Frame(CFA_Y, -1)
        CFI CFA_SP SP+6
        CFI CFA_Y Y+28
        CFI Block cfiCond265 Using cfiCommon0
        CFI (cfiCond265) NoFunction
        CFI (cfiCond265) Conditional ??CrossCallReturnLabel_573
        CFI (cfiCond265) R24 Frame(CFA_Y, -8)
        CFI (cfiCond265) R25 Frame(CFA_Y, -7)
        CFI (cfiCond265) R26 Frame(CFA_Y, -6)
        CFI (cfiCond265) R27 Frame(CFA_Y, -5)
        CFI (cfiCond265) R4 Frame(CFA_Y, -4)
        CFI (cfiCond265) R5 Frame(CFA_Y, -3)
        CFI (cfiCond265) R6 Frame(CFA_Y, -2)
        CFI (cfiCond265) R7 Frame(CFA_Y, -1)
        CFI (cfiCond265) CFA_SP SP+6
        CFI (cfiCond265) CFA_Y Y+28
        CFI Block cfiPicker266 Using cfiCommon1
        CFI (cfiPicker266) NoFunction
        CFI (cfiPicker266) Picker
        LDI	R17, 3
        CFI Block cfiCond267 Using cfiCommon0
        CFI (cfiCond267) NoFunction
        CFI (cfiCond267) Conditional ??CrossCallReturnLabel_574
        CFI (cfiCond267) R24 Frame(CFA_Y, -16)
        CFI (cfiCond267) R25 Frame(CFA_Y, -15)
        CFI (cfiCond267) R26 Frame(CFA_Y, -14)
        CFI (cfiCond267) R27 Frame(CFA_Y, -13)
        CFI (cfiCond267) R4 Frame(CFA_Y, -12)
        CFI (cfiCond267) R5 Frame(CFA_Y, -11)
        CFI (cfiCond267) R6 Frame(CFA_Y, -10)
        CFI (cfiCond267) R7 Frame(CFA_Y, -9)
        CFI (cfiCond267) R8 Frame(CFA_Y, -8)
        CFI (cfiCond267) R9 Frame(CFA_Y, -7)
        CFI (cfiCond267) R10 Frame(CFA_Y, -6)
        CFI (cfiCond267) R11 Frame(CFA_Y, -5)
        CFI (cfiCond267) R12 Frame(CFA_Y, -4)
        CFI (cfiCond267) R13 Frame(CFA_Y, -3)
        CFI (cfiCond267) R14 Frame(CFA_Y, -2)
        CFI (cfiCond267) R15 Frame(CFA_Y, -1)
        CFI (cfiCond267) CFA_SP SP+6
        CFI (cfiCond267) CFA_Y Y+43
??Subroutine148_0:
        CALL	WrArrayToFlesh
        JMP	?Subroutine271
        CFI EndBlock cfiCond264
        CFI EndBlock cfiCond265
        CFI EndBlock cfiPicker266
        CFI EndBlock cfiCond267

        RSEG FARCODE:CODE:NOROOT(1)
?Subroutine139:
        CFI Block cfiCond268 Using cfiCommon0
        CFI NoFunction
        CFI Conditional ??CrossCallReturnLabel_513
        CFI R24 Frame(CFA_Y, -8)
        CFI R25 Frame(CFA_Y, -7)
        CFI R26 Frame(CFA_Y, -6)
        CFI R27 Frame(CFA_Y, -5)
        CFI R4 Frame(CFA_Y, -4)
        CFI R5 Frame(CFA_Y, -3)
        CFI R6 Frame(CFA_Y, -2)
        CFI R7 Frame(CFA_Y, -1)
        CFI CFA_SP SP+6
        CFI CFA_Y Y+28
        CFI Block cfiCond269 Using cfiCommon0
        CFI (cfiCond269) NoFunction
        CFI (cfiCond269) Conditional ??CrossCallReturnLabel_514
        CFI (cfiCond269) R24 Frame(CFA_Y, -8)
        CFI (cfiCond269) R25 Frame(CFA_Y, -7)
        CFI (cfiCond269) R26 Frame(CFA_Y, -6)
        CFI (cfiCond269) R27 Frame(CFA_Y, -5)
        CFI (cfiCond269) R4 Frame(CFA_Y, -4)
        CFI (cfiCond269) R5 Frame(CFA_Y, -3)
        CFI (cfiCond269) R6 Frame(CFA_Y, -2)
        CFI (cfiCond269) R7 Frame(CFA_Y, -1)
        CFI (cfiCond269) CFA_SP SP+6
        CFI (cfiCond269) CFA_Y Y+28
        CFI Block cfiPicker270 Using cfiCommon1
        CFI (cfiPicker270) NoFunction
        CFI (cfiPicker270) Picker
        LDI	R17, 3
        CALL	RdFromFleshToArr
        CFI EndBlock cfiCond268
        CFI EndBlock cfiCond269
        CFI EndBlock cfiPicker270
        REQUIRE ?Subroutine262
        ;		// Fall through to label ?Subroutine262

        RSEG FARCODE:CODE:NOROOT(1)
?Subroutine262:
        CFI Block cfiCond271 Using cfiCommon0
        CFI NoFunction
        CFI Conditional ??CrossCallReturnLabel_513
        CFI R24 Frame(CFA_Y, -8)
        CFI R25 Frame(CFA_Y, -7)
        CFI R26 Frame(CFA_Y, -6)
        CFI R27 Frame(CFA_Y, -5)
        CFI R4 Frame(CFA_Y, -4)
        CFI R5 Frame(CFA_Y, -3)
        CFI R6 Frame(CFA_Y, -2)
        CFI R7 Frame(CFA_Y, -1)
        CFI CFA_SP SP+6
        CFI CFA_Y Y+28
        CFI Block cfiCond272 Using cfiCommon0
        CFI (cfiCond272) NoFunction
        CFI (cfiCond272) Conditional ??CrossCallReturnLabel_514
        CFI (cfiCond272) R24 Frame(CFA_Y, -8)
        CFI (cfiCond272) R25 Frame(CFA_Y, -7)
        CFI (cfiCond272) R26 Frame(CFA_Y, -6)
        CFI (cfiCond272) R27 Frame(CFA_Y, -5)
        CFI (cfiCond272) R4 Frame(CFA_Y, -4)
        CFI (cfiCond272) R5 Frame(CFA_Y, -3)
        CFI (cfiCond272) R6 Frame(CFA_Y, -2)
        CFI (cfiCond272) R7 Frame(CFA_Y, -1)
        CFI (cfiCond272) CFA_SP SP+6
        CFI (cfiCond272) CFA_Y Y+28
        CFI Block cfiCond273 Using cfiCommon0
        CFI (cfiCond273) NoFunction
        CFI (cfiCond273) Conditional ??CrossCallReturnLabel_515
        CFI (cfiCond273) R24 Frame(CFA_Y, -8)
        CFI (cfiCond273) R25 Frame(CFA_Y, -7)
        CFI (cfiCond273) R26 Frame(CFA_Y, -6)
        CFI (cfiCond273) R27 Frame(CFA_Y, -5)
        CFI (cfiCond273) R4 Frame(CFA_Y, -4)
        CFI (cfiCond273) R5 Frame(CFA_Y, -3)
        CFI (cfiCond273) R6 Frame(CFA_Y, -2)
        CFI (cfiCond273) R7 Frame(CFA_Y, -1)
        CFI (cfiCond273) CFA_SP SP+6
        CFI (cfiCond273) CFA_Y Y+28
        CFI Block cfiCond274 Using cfiCommon0
        CFI (cfiCond274) NoFunction
        CFI (cfiCond274) Conditional ??CrossCallReturnLabel_516
        CFI (cfiCond274) R24 Frame(CFA_Y, -8)
        CFI (cfiCond274) R25 Frame(CFA_Y, -7)
        CFI (cfiCond274) R26 Frame(CFA_Y, -6)
        CFI (cfiCond274) R27 Frame(CFA_Y, -5)
        CFI (cfiCond274) R4 Frame(CFA_Y, -4)
        CFI (cfiCond274) R5 Frame(CFA_Y, -3)
        CFI (cfiCond274) R6 Frame(CFA_Y, -2)
        CFI (cfiCond274) R7 Frame(CFA_Y, -1)
        CFI (cfiCond274) CFA_SP SP+6
        CFI (cfiCond274) CFA_Y Y+10
        CFI Block cfiCond275 Using cfiCommon0
        CFI (cfiCond275) NoFunction
        CFI (cfiCond275) Conditional ??CrossCallReturnLabel_517
        CFI (cfiCond275) R24 Frame(CFA_Y, -8)
        CFI (cfiCond275) R25 Frame(CFA_Y, -7)
        CFI (cfiCond275) R26 Frame(CFA_Y, -6)
        CFI (cfiCond275) R27 Frame(CFA_Y, -5)
        CFI (cfiCond275) R4 Frame(CFA_Y, -4)
        CFI (cfiCond275) R5 Frame(CFA_Y, -3)
        CFI (cfiCond275) R6 Frame(CFA_Y, -2)
        CFI (cfiCond275) R7 Frame(CFA_Y, -1)
        CFI (cfiCond275) CFA_SP SP+6
        CFI (cfiCond275) CFA_Y Y+10
        CFI Block cfiCond276 Using cfiCommon0
        CFI (cfiCond276) NoFunction
        CFI (cfiCond276) Conditional ??CrossCallReturnLabel_518
        CFI (cfiCond276) R24 Frame(CFA_Y, -8)
        CFI (cfiCond276) R25 Frame(CFA_Y, -7)
        CFI (cfiCond276) R26 Frame(CFA_Y, -6)
        CFI (cfiCond276) R27 Frame(CFA_Y, -5)
        CFI (cfiCond276) R4 Frame(CFA_Y, -4)
        CFI (cfiCond276) R5 Frame(CFA_Y, -3)
        CFI (cfiCond276) R6 Frame(CFA_Y, -2)
        CFI (cfiCond276) R7 Frame(CFA_Y, -1)
        CFI (cfiCond276) CFA_SP SP+6
        CFI (cfiCond276) CFA_Y Y+10
        CFI Block cfiPicker277 Using cfiCommon1
        CFI (cfiPicker277) NoFunction
        CFI (cfiPicker277) Picker
        LD	R16, Y
        LDD	R17, Y+1
        RET
        CFI EndBlock cfiCond271
        CFI EndBlock cfiCond272
        CFI EndBlock cfiCond273
        CFI EndBlock cfiCond274
        CFI EndBlock cfiCond275
        CFI EndBlock cfiCond276
        CFI EndBlock cfiPicker277

        RSEG FARCODE:CODE:NOROOT(1)
?Subroutine133:
        CFI Block cfiCond278 Using cfiCommon0
        CFI NoFunction
        CFI Conditional ??CrossCallReturnLabel_510
        CFI R24 Frame(CFA_Y, -8)
        CFI R25 Frame(CFA_Y, -7)
        CFI R26 Frame(CFA_Y, -6)
        CFI R27 Frame(CFA_Y, -5)
        CFI R4 Frame(CFA_Y, -4)
        CFI R5 Frame(CFA_Y, -3)
        CFI R6 Frame(CFA_Y, -2)
        CFI R7 Frame(CFA_Y, -1)
        CFI CFA_SP SP+6
        CFI CFA_Y Y+28
        CFI Block cfiCond279 Using cfiCommon0
        CFI (cfiCond279) NoFunction
        CFI (cfiCond279) Conditional ??CrossCallReturnLabel_511
        CFI (cfiCond279) R24 Frame(CFA_Y, -16)
        CFI (cfiCond279) R25 Frame(CFA_Y, -15)
        CFI (cfiCond279) R26 Frame(CFA_Y, -14)
        CFI (cfiCond279) R27 Frame(CFA_Y, -13)
        CFI (cfiCond279) R4 Frame(CFA_Y, -12)
        CFI (cfiCond279) R5 Frame(CFA_Y, -11)
        CFI (cfiCond279) R6 Frame(CFA_Y, -10)
        CFI (cfiCond279) R7 Frame(CFA_Y, -9)
        CFI (cfiCond279) R8 Frame(CFA_Y, -8)
        CFI (cfiCond279) R9 Frame(CFA_Y, -7)
        CFI (cfiCond279) R10 Frame(CFA_Y, -6)
        CFI (cfiCond279) R11 Frame(CFA_Y, -5)
        CFI (cfiCond279) R12 Frame(CFA_Y, -4)
        CFI (cfiCond279) R13 Frame(CFA_Y, -3)
        CFI (cfiCond279) R14 Frame(CFA_Y, -2)
        CFI (cfiCond279) R15 Frame(CFA_Y, -1)
        CFI (cfiCond279) CFA_SP SP+6
        CFI (cfiCond279) CFA_Y Y+43
        CFI Block cfiCond280 Using cfiCommon0
        CFI (cfiCond280) NoFunction
        CFI (cfiCond280) Conditional ??CrossCallReturnLabel_512
        CFI (cfiCond280) R24 Frame(CFA_Y, -16)
        CFI (cfiCond280) R25 Frame(CFA_Y, -15)
        CFI (cfiCond280) R26 Frame(CFA_Y, -14)
        CFI (cfiCond280) R27 Frame(CFA_Y, -13)
        CFI (cfiCond280) R4 Frame(CFA_Y, -12)
        CFI (cfiCond280) R5 Frame(CFA_Y, -11)
        CFI (cfiCond280) R6 Frame(CFA_Y, -10)
        CFI (cfiCond280) R7 Frame(CFA_Y, -9)
        CFI (cfiCond280) R8 Frame(CFA_Y, -8)
        CFI (cfiCond280) R9 Frame(CFA_Y, -7)
        CFI (cfiCond280) R10 Frame(CFA_Y, -6)
        CFI (cfiCond280) R11 Frame(CFA_Y, -5)
        CFI (cfiCond280) R12 Frame(CFA_Y, -4)
        CFI (cfiCond280) R13 Frame(CFA_Y, -3)
        CFI (cfiCond280) R14 Frame(CFA_Y, -2)
        CFI (cfiCond280) R15 Frame(CFA_Y, -1)
        CFI (cfiCond280) CFA_SP SP+6
        CFI (cfiCond280) CFA_Y Y+43
        CFI Block cfiPicker281 Using cfiCommon1
        CFI (cfiPicker281) NoFunction
        CFI (cfiPicker281) Picker
        LDI	R20, 10
        RJMP	?Subroutine261
        CFI EndBlock cfiCond278
        CFI EndBlock cfiCond279
        CFI EndBlock cfiCond280
        CFI EndBlock cfiPicker281

        RSEG FARCODE:CODE:NOROOT(1)
?Subroutine130:
        CFI Block cfiCond282 Using cfiCommon0
        CFI NoFunction
        CFI Conditional ??CrossCallReturnLabel_168
        CFI R24 Frame(CFA_Y, -8)
        CFI R25 Frame(CFA_Y, -7)
        CFI R26 Frame(CFA_Y, -6)
        CFI R27 Frame(CFA_Y, -5)
        CFI R4 Frame(CFA_Y, -4)
        CFI R5 Frame(CFA_Y, -3)
        CFI R6 Frame(CFA_Y, -2)
        CFI R7 Frame(CFA_Y, -1)
        CFI CFA_SP SP+6
        CFI CFA_Y Y+78
        CFI Block cfiCond283 Using cfiCommon0
        CFI (cfiCond283) NoFunction
        CFI (cfiCond283) Conditional ??CrossCallReturnLabel_169
        CFI (cfiCond283) CFA_SP SP+6
        CFI (cfiCond283) CFA_Y Y+6
        CFI Block cfiCond284 Using cfiCommon0
        CFI (cfiCond284) NoFunction
        CFI (cfiCond284) Conditional ??CrossCallReturnLabel_170
        CFI (cfiCond284) CFA_SP SP+6
        CFI (cfiCond284) CFA_Y Y+8
        CFI Block cfiCond285 Using cfiCommon0
        CFI (cfiCond285) NoFunction
        CFI (cfiCond285) Conditional ??CrossCallReturnLabel_171
        CFI (cfiCond285) CFA_SP SP+6
        CFI (cfiCond285) CFA_Y Y+8
        CFI Block cfiCond286 Using cfiCommon0
        CFI (cfiCond286) NoFunction
        CFI (cfiCond286) Conditional ??CrossCallReturnLabel_172
        CFI (cfiCond286) R24 Frame(CFA_Y, -8)
        CFI (cfiCond286) R25 Frame(CFA_Y, -7)
        CFI (cfiCond286) R26 Frame(CFA_Y, -6)
        CFI (cfiCond286) R27 Frame(CFA_Y, -5)
        CFI (cfiCond286) R4 Frame(CFA_Y, -4)
        CFI (cfiCond286) R5 Frame(CFA_Y, -3)
        CFI (cfiCond286) R6 Frame(CFA_Y, -2)
        CFI (cfiCond286) R7 Frame(CFA_Y, -1)
        CFI (cfiCond286) CFA_SP SP+6
        CFI (cfiCond286) CFA_Y Y+28
        CFI Block cfiCond287 Using cfiCommon0
        CFI (cfiCond287) NoFunction
        CFI (cfiCond287) Conditional ??CrossCallReturnLabel_173
        CFI (cfiCond287) CFA_SP SP+6
        CFI Block cfiCond288 Using cfiCommon0
        CFI (cfiCond288) NoFunction
        CFI (cfiCond288) Conditional ??CrossCallReturnLabel_174
        CFI (cfiCond288) R24 Frame(CFA_Y, -16)
        CFI (cfiCond288) R25 Frame(CFA_Y, -15)
        CFI (cfiCond288) R26 Frame(CFA_Y, -14)
        CFI (cfiCond288) R27 Frame(CFA_Y, -13)
        CFI (cfiCond288) R4 Frame(CFA_Y, -12)
        CFI (cfiCond288) R5 Frame(CFA_Y, -11)
        CFI (cfiCond288) R6 Frame(CFA_Y, -10)
        CFI (cfiCond288) R7 Frame(CFA_Y, -9)
        CFI (cfiCond288) R8 Frame(CFA_Y, -8)
        CFI (cfiCond288) R9 Frame(CFA_Y, -7)
        CFI (cfiCond288) R10 Frame(CFA_Y, -6)
        CFI (cfiCond288) R11 Frame(CFA_Y, -5)
        CFI (cfiCond288) R12 Frame(CFA_Y, -4)
        CFI (cfiCond288) R13 Frame(CFA_Y, -3)
        CFI (cfiCond288) R14 Frame(CFA_Y, -2)
        CFI (cfiCond288) R15 Frame(CFA_Y, -1)
        CFI (cfiCond288) CFA_SP SP+6
        CFI (cfiCond288) CFA_Y Y+43
        CFI Block cfiPicker289 Using cfiCommon1
        CFI (cfiPicker289) NoFunction
        CFI (cfiPicker289) Picker
        LDI	R20, 1
        LDI	R21, 0
        RET
        CFI EndBlock cfiCond282
        CFI EndBlock cfiCond283
        CFI EndBlock cfiCond284
        CFI EndBlock cfiCond285
        CFI EndBlock cfiCond286
        CFI EndBlock cfiCond287
        CFI EndBlock cfiCond288
        CFI EndBlock cfiPicker289

        RSEG FARCODE:CODE:NOROOT(1)
?Subroutine128:
        CFI Block cfiCond290 Using cfiCommon0
        CFI NoFunction
        CFI Conditional ??CrossCallReturnLabel_163
        CFI CFA_SP SP+6
        CFI Block cfiCond291 Using cfiCommon0
        CFI (cfiCond291) NoFunction
        CFI (cfiCond291) Conditional ??CrossCallReturnLabel_164
        CFI (cfiCond291) CFA_SP SP+6
        CFI Block cfiCond292 Using cfiCommon0
        CFI (cfiCond292) NoFunction
        CFI (cfiCond292) Conditional ??CrossCallReturnLabel_165
        CFI (cfiCond292) CFA_SP SP+6
        CFI Block cfiCond293 Using cfiCommon0
        CFI (cfiCond293) NoFunction
        CFI (cfiCond293) Conditional ??CrossCallReturnLabel_166
        CFI (cfiCond293) CFA_SP SP+6
        CFI Block cfiCond294 Using cfiCommon0
        CFI (cfiCond294) NoFunction
        CFI (cfiCond294) Conditional ??CrossCallReturnLabel_167
        CFI (cfiCond294) CFA_SP SP+6
        CFI Block cfiPicker295 Using cfiCommon1
        CFI (cfiPicker295) NoFunction
        CFI (cfiPicker295) Picker
        JMP	?PROLOGUE8_L09
        CFI EndBlock cfiCond290
        CFI EndBlock cfiCond291
        CFI EndBlock cfiCond292
        CFI EndBlock cfiCond293
        CFI EndBlock cfiCond294
        CFI EndBlock cfiPicker295

        RSEG FARCODE:CODE:NOROOT(1)
?Subroutine118:
        CFI Block cfiCond296 Using cfiCommon0
        CFI NoFunction
        CFI Conditional ??CrossCallReturnLabel_151
        CFI R24 Frame(CFA_Y, -8)
        CFI R25 Frame(CFA_Y, -7)
        CFI R26 Frame(CFA_Y, -6)
        CFI R27 Frame(CFA_Y, -5)
        CFI R4 Frame(CFA_Y, -4)
        CFI R5 Frame(CFA_Y, -3)
        CFI R6 Frame(CFA_Y, -2)
        CFI R7 Frame(CFA_Y, -1)
        CFI CFA_SP SP+6
        CFI CFA_Y Y+28
        CFI Block cfiCond297 Using cfiCommon0
        CFI (cfiCond297) NoFunction
        CFI (cfiCond297) Conditional ??CrossCallReturnLabel_152
        CFI (cfiCond297) R24 Frame(CFA_Y, -8)
        CFI (cfiCond297) R25 Frame(CFA_Y, -7)
        CFI (cfiCond297) R26 Frame(CFA_Y, -6)
        CFI (cfiCond297) R27 Frame(CFA_Y, -5)
        CFI (cfiCond297) R4 Frame(CFA_Y, -4)
        CFI (cfiCond297) R5 Frame(CFA_Y, -3)
        CFI (cfiCond297) R6 Frame(CFA_Y, -2)
        CFI (cfiCond297) R7 Frame(CFA_Y, -1)
        CFI (cfiCond297) CFA_SP SP+6
        CFI (cfiCond297) CFA_Y Y+28
        CFI Block cfiPicker298 Using cfiCommon1
        CFI (cfiPicker298) NoFunction
        CFI (cfiPicker298) Picker
        LDD	R24, Y+12
        LDD	R25, Y+13
        LDI	R20, 255
        LDI	R21, 255
        LDI	R18, 12
        LDI	R19, 0
        MOVW	R17:R16, R29:R28
        RCALL	crc_m1
        CP	R24, R16
        CPC	R25, R17
        RET
        CFI EndBlock cfiCond296
        CFI EndBlock cfiCond297
        CFI EndBlock cfiPicker298

        RSEG FARCODE:CODE:NOROOT(1)
?Subroutine105:
        CFI Block cfiCond299 Using cfiCommon0
        CFI NoFunction
        CFI Conditional ??CrossCallReturnLabel_884
        CFI R24 Frame(CFA_Y, -8)
        CFI R25 Frame(CFA_Y, -7)
        CFI R26 Frame(CFA_Y, -6)
        CFI R27 Frame(CFA_Y, -5)
        CFI R4 Frame(CFA_Y, -4)
        CFI R5 Frame(CFA_Y, -3)
        CFI R6 Frame(CFA_Y, -2)
        CFI R7 Frame(CFA_Y, -1)
        CFI CFA_SP SP+6
        CFI CFA_Y Y+28
        CFI Block cfiCond300 Using cfiCommon0
        CFI (cfiCond300) NoFunction
        CFI (cfiCond300) Conditional ??CrossCallReturnLabel_885
        CFI (cfiCond300) R24 Frame(CFA_Y, -8)
        CFI (cfiCond300) R25 Frame(CFA_Y, -7)
        CFI (cfiCond300) R26 Frame(CFA_Y, -6)
        CFI (cfiCond300) R27 Frame(CFA_Y, -5)
        CFI (cfiCond300) R4 Frame(CFA_Y, -4)
        CFI (cfiCond300) R5 Frame(CFA_Y, -3)
        CFI (cfiCond300) R6 Frame(CFA_Y, -2)
        CFI (cfiCond300) R7 Frame(CFA_Y, -1)
        CFI (cfiCond300) CFA_SP SP+6
        CFI (cfiCond300) CFA_Y Y+28
        CFI Block cfiPicker301 Using cfiCommon1
        CFI (cfiPicker301) NoFunction
        CFI (cfiPicker301) Picker
        LDI	R23, 0
        LDI	R22, 1
        LDI	R20, 2
        LDI	R21, 0
        CFI EndBlock cfiCond299
        CFI EndBlock cfiCond300
        CFI EndBlock cfiPicker301
        REQUIRE ?Subroutine274
        ;		// Fall through to label ?Subroutine274

        RSEG FARCODE:CODE:NOROOT(1)
?Subroutine274:
        CFI Block cfiCond302 Using cfiCommon0
        CFI NoFunction
        CFI Conditional ??CrossCallReturnLabel_884
        CFI R24 Frame(CFA_Y, -8)
        CFI R25 Frame(CFA_Y, -7)
        CFI R26 Frame(CFA_Y, -6)
        CFI R27 Frame(CFA_Y, -5)
        CFI R4 Frame(CFA_Y, -4)
        CFI R5 Frame(CFA_Y, -3)
        CFI R6 Frame(CFA_Y, -2)
        CFI R7 Frame(CFA_Y, -1)
        CFI CFA_SP SP+6
        CFI CFA_Y Y+28
        CFI Block cfiCond303 Using cfiCommon0
        CFI (cfiCond303) NoFunction
        CFI (cfiCond303) Conditional ??CrossCallReturnLabel_885
        CFI (cfiCond303) R24 Frame(CFA_Y, -8)
        CFI (cfiCond303) R25 Frame(CFA_Y, -7)
        CFI (cfiCond303) R26 Frame(CFA_Y, -6)
        CFI (cfiCond303) R27 Frame(CFA_Y, -5)
        CFI (cfiCond303) R4 Frame(CFA_Y, -4)
        CFI (cfiCond303) R5 Frame(CFA_Y, -3)
        CFI (cfiCond303) R6 Frame(CFA_Y, -2)
        CFI (cfiCond303) R7 Frame(CFA_Y, -1)
        CFI (cfiCond303) CFA_SP SP+6
        CFI (cfiCond303) CFA_Y Y+28
        CFI Block cfiCond304 Using cfiCommon0
        CFI (cfiCond304) NoFunction
        CFI (cfiCond304) Conditional ??CrossCallReturnLabel_882
        CFI (cfiCond304) R24 Frame(CFA_Y, -4)
        CFI (cfiCond304) R25 Frame(CFA_Y, -3)
        CFI (cfiCond304) R26 Frame(CFA_Y, -2)
        CFI (cfiCond304) R27 Frame(CFA_Y, -1)
        CFI (cfiCond304) CFA_SP SP+6
        CFI (cfiCond304) CFA_Y Y+4
        CFI Block cfiCond305 Using cfiCommon0
        CFI (cfiCond305) NoFunction
        CFI (cfiCond305) Conditional ??CrossCallReturnLabel_883
        CFI (cfiCond305) R24 Frame(CFA_Y, -4)
        CFI (cfiCond305) R25 Frame(CFA_Y, -3)
        CFI (cfiCond305) R26 Frame(CFA_Y, -2)
        CFI (cfiCond305) R27 Frame(CFA_Y, -1)
        CFI (cfiCond305) CFA_SP SP+6
        CFI (cfiCond305) CFA_Y Y+4
        CFI Block cfiCond306 Using cfiCommon0
        CFI (cfiCond306) NoFunction
        CFI (cfiCond306) Conditional ??CrossCallReturnLabel_878
        CFI (cfiCond306) R24 Frame(CFA_Y, -8)
        CFI (cfiCond306) R25 Frame(CFA_Y, -7)
        CFI (cfiCond306) R26 Frame(CFA_Y, -6)
        CFI (cfiCond306) R27 Frame(CFA_Y, -5)
        CFI (cfiCond306) R4 Frame(CFA_Y, -4)
        CFI (cfiCond306) R5 Frame(CFA_Y, -3)
        CFI (cfiCond306) R6 Frame(CFA_Y, -2)
        CFI (cfiCond306) R7 Frame(CFA_Y, -1)
        CFI (cfiCond306) CFA_SP SP+6
        CFI (cfiCond306) CFA_Y Y+28
        CFI Block cfiCond307 Using cfiCommon0
        CFI (cfiCond307) NoFunction
        CFI (cfiCond307) Conditional ??CrossCallReturnLabel_879
        CFI (cfiCond307) R24 Frame(CFA_Y, -8)
        CFI (cfiCond307) R25 Frame(CFA_Y, -7)
        CFI (cfiCond307) R26 Frame(CFA_Y, -6)
        CFI (cfiCond307) R27 Frame(CFA_Y, -5)
        CFI (cfiCond307) R4 Frame(CFA_Y, -4)
        CFI (cfiCond307) R5 Frame(CFA_Y, -3)
        CFI (cfiCond307) R6 Frame(CFA_Y, -2)
        CFI (cfiCond307) R7 Frame(CFA_Y, -1)
        CFI (cfiCond307) CFA_SP SP+6
        CFI (cfiCond307) CFA_Y Y+10
        CFI Block cfiCond308 Using cfiCommon0
        CFI (cfiCond308) NoFunction
        CFI (cfiCond308) Conditional ??CrossCallReturnLabel_880
        CFI (cfiCond308) R24 Frame(CFA_Y, -8)
        CFI (cfiCond308) R25 Frame(CFA_Y, -7)
        CFI (cfiCond308) R26 Frame(CFA_Y, -6)
        CFI (cfiCond308) R27 Frame(CFA_Y, -5)
        CFI (cfiCond308) R4 Frame(CFA_Y, -4)
        CFI (cfiCond308) R5 Frame(CFA_Y, -3)
        CFI (cfiCond308) R6 Frame(CFA_Y, -2)
        CFI (cfiCond308) R7 Frame(CFA_Y, -1)
        CFI (cfiCond308) CFA_SP SP+6
        CFI (cfiCond308) CFA_Y Y+10
        CFI Block cfiCond309 Using cfiCommon0
        CFI (cfiCond309) NoFunction
        CFI (cfiCond309) Conditional ??CrossCallReturnLabel_881
        CFI (cfiCond309) R24 Frame(CFA_Y, -8)
        CFI (cfiCond309) R25 Frame(CFA_Y, -7)
        CFI (cfiCond309) R26 Frame(CFA_Y, -6)
        CFI (cfiCond309) R27 Frame(CFA_Y, -5)
        CFI (cfiCond309) R4 Frame(CFA_Y, -4)
        CFI (cfiCond309) R5 Frame(CFA_Y, -3)
        CFI (cfiCond309) R6 Frame(CFA_Y, -2)
        CFI (cfiCond309) R7 Frame(CFA_Y, -1)
        CFI (cfiCond309) CFA_SP SP+6
        CFI (cfiCond309) CFA_Y Y+10
        CFI Block cfiCond310 Using cfiCommon0
        CFI (cfiCond310) NoFunction
        CFI (cfiCond310) Conditional ??CrossCallReturnLabel_886
        CFI (cfiCond310) R24 Frame(CFA_Y, -16)
        CFI (cfiCond310) R25 Frame(CFA_Y, -15)
        CFI (cfiCond310) R26 Frame(CFA_Y, -14)
        CFI (cfiCond310) R27 Frame(CFA_Y, -13)
        CFI (cfiCond310) R4 Frame(CFA_Y, -12)
        CFI (cfiCond310) R5 Frame(CFA_Y, -11)
        CFI (cfiCond310) R6 Frame(CFA_Y, -10)
        CFI (cfiCond310) R7 Frame(CFA_Y, -9)
        CFI (cfiCond310) R8 Frame(CFA_Y, -8)
        CFI (cfiCond310) R9 Frame(CFA_Y, -7)
        CFI (cfiCond310) R10 Frame(CFA_Y, -6)
        CFI (cfiCond310) R11 Frame(CFA_Y, -5)
        CFI (cfiCond310) R12 Frame(CFA_Y, -4)
        CFI (cfiCond310) R13 Frame(CFA_Y, -3)
        CFI (cfiCond310) R14 Frame(CFA_Y, -2)
        CFI (cfiCond310) R15 Frame(CFA_Y, -1)
        CFI (cfiCond310) CFA_SP SP+6
        CFI (cfiCond310) CFA_Y Y+43
        CFI Block cfiPicker311 Using cfiCommon1
        CFI (cfiPicker311) NoFunction
        CFI (cfiPicker311) Picker
        LDI	R19, 0
        RET
        CFI EndBlock cfiCond302
        CFI EndBlock cfiCond303
        CFI EndBlock cfiCond304
        CFI EndBlock cfiCond305
        CFI EndBlock cfiCond306
        CFI EndBlock cfiCond307
        CFI EndBlock cfiCond308
        CFI EndBlock cfiCond309
        CFI EndBlock cfiCond310
        CFI EndBlock cfiPicker311

        RSEG FARCODE:CODE:NOROOT(1)
load_sel_modul:
        CFI Block cfiBlock312 Using cfiCommon0
        CFI Function load_sel_modul
        FUNCALL load_sel_modul, RdFromFleshToArr
        LOCFRAME RSTACK, 3, STACK
        RCALL	?Subroutine130
??CrossCallReturnLabel_173:
        LDI	R18, LOW((state_seq + 3))
        LDI	R19, HIGH((state_seq + 3))
        LDI	R16, 246
        RJMP	?Subroutine318
        CFI EndBlock cfiBlock312

        RSEG FARCODE:CODE:NOROOT(1)
start_func_stm_off:
        CFI Block cfiBlock313 Using cfiCommon0
        CFI Function start_func_stm_off
        FUNCALL start_func_stm_off, write_log_info
        LOCFRAME RSTACK, 3, STACK
        FUNCALL start_func_stm_off, send_info
        LOCFRAME RSTACK, 3, STACK
        RCALL	?Subroutine17
??CrossCallReturnLabel_750:
        BREQ	??CrossCallReturnLabel_21
        RCALL	?Subroutine16
??CrossCallReturnLabel_21:
        RCALL	?Subroutine18
??CrossCallReturnLabel_24:
        LDI	R16, 11
        RCALL	?Subroutine13
??CrossCallReturnLabel_9:
        LDI	R17, 5
        RCALL	?Subroutine172
??CrossCallReturnLabel_814:
        LDI	R18, LOW(stm_pwr_off)
        LDI	R19, (stm_pwr_off) >> 8
        RJMP	?Subroutine291
        CFI EndBlock cfiBlock313

        RSEG FARCODE:CODE:NOROOT(1)
start_func_stm_koff:
        CFI Block cfiBlock314 Using cfiCommon0
        CFI Function start_func_stm_koff
        FUNCALL start_func_stm_koff, init_pins_out_to_hiz
        LOCFRAME RSTACK, 3, STACK
        FUNCALL start_func_stm_koff, write_log_info
        LOCFRAME RSTACK, 3, STACK
        FUNCALL start_func_stm_koff, send_info
        LOCFRAME RSTACK, 3, STACK
        CBI	0x08, 0x00
        CBI	0x08, 0x01
        CALL	init_pins_out_to_hiz
        RCALL	?Subroutine297
??CrossCallReturnLabel_764:
        BREQ	??CrossCallReturnLabel_22
        RCALL	?Subroutine16
??CrossCallReturnLabel_22:
        RCALL	?Subroutine18
??CrossCallReturnLabel_25:
        LDI	R16, 10
        STD	Z+50, R16
        LDI	R16, 3
        STD	Z+53, R16
        LDI	R16, 16
        STD	Z+54, R16
        RCALL	??Subroutine13_0
??CrossCallReturnLabel_10:
        LDI	R17, 8
        RCALL	?Subroutine172
??CrossCallReturnLabel_815:
        LDI	R18, LOW(stm_pwr_koff)
        LDI	R19, (stm_pwr_koff) >> 8
        LDI	R16, 12
        RJMP	??Subroutine291_0
        CFI EndBlock cfiBlock314

        RSEG FARCODE:CODE:NOROOT(1)
?Subroutine291:
        CFI Block cfiCond315 Using cfiCommon0
        CFI NoFunction
        CFI Conditional ??CrossCallReturnLabel_853
        CFI R26 Frame(CFA_Y, -2)
        CFI R27 Frame(CFA_Y, -1)
        CFI CFA_SP SP+6
        CFI CFA_Y Y+2
        CFI Block cfiCond316 Using cfiCommon0
        CFI (cfiCond316) NoFunction
        CFI (cfiCond316) Conditional ??CrossCallReturnLabel_852
        CFI (cfiCond316) R26 Frame(CFA_Y, -2)
        CFI (cfiCond316) R27 Frame(CFA_Y, -1)
        CFI (cfiCond316) CFA_SP SP+6
        CFI (cfiCond316) CFA_Y Y+2
        CFI Block cfiCond317 Using cfiCommon0
        CFI (cfiCond317) NoFunction
        CFI (cfiCond317) Conditional ??CrossCallReturnLabel_851
        CFI (cfiCond317) R26 Frame(CFA_Y, -2)
        CFI (cfiCond317) R27 Frame(CFA_Y, -1)
        CFI (cfiCond317) CFA_SP SP+6
        CFI (cfiCond317) CFA_Y Y+2
        CFI Block cfiCond318 Using cfiCommon0
        CFI (cfiCond318) NoFunction
        CFI (cfiCond318) Conditional ??CrossCallReturnLabel_850
        CFI (cfiCond318) R26 Frame(CFA_Y, -2)
        CFI (cfiCond318) R27 Frame(CFA_Y, -1)
        CFI (cfiCond318) CFA_SP SP+6
        CFI (cfiCond318) CFA_Y Y+2
        CFI Block cfiCond319 Using cfiCommon0
        CFI (cfiCond319) NoFunction
        CFI (cfiCond319) Conditional ??CrossCallReturnLabel_849
        CFI (cfiCond319) R26 Frame(CFA_Y, -2)
        CFI (cfiCond319) R27 Frame(CFA_Y, -1)
        CFI (cfiCond319) CFA_SP SP+6
        CFI (cfiCond319) CFA_Y Y+2
        CFI Block cfiCond320 Using cfiCommon0
        CFI (cfiCond320) NoFunction
        CFI (cfiCond320) Conditional ??CrossCallReturnLabel_848
        CFI (cfiCond320) R26 Frame(CFA_Y, -2)
        CFI (cfiCond320) R27 Frame(CFA_Y, -1)
        CFI (cfiCond320) CFA_SP SP+6
        CFI (cfiCond320) CFA_Y Y+2
        CFI Block cfiBlock321 Using cfiCommon0
        CFI (cfiBlock321) NoFunction
        CFI Block cfiPicker322 Using cfiCommon1
        CFI (cfiPicker322) NoFunction
        CFI (cfiPicker322) Picker
        LDI	R16, 11
        CFI Block cfiCond323 Using cfiCommon0
        CFI (cfiCond323) NoFunction
        CFI (cfiCond323) Conditional ??CrossCallReturnLabel_847
        CFI (cfiCond323) R24 Frame(CFA_Y, -8)
        CFI (cfiCond323) R25 Frame(CFA_Y, -7)
        CFI (cfiCond323) R26 Frame(CFA_Y, -6)
        CFI (cfiCond323) R27 Frame(CFA_Y, -5)
        CFI (cfiCond323) R4 Frame(CFA_Y, -4)
        CFI (cfiCond323) R5 Frame(CFA_Y, -3)
        CFI (cfiCond323) R6 Frame(CFA_Y, -2)
        CFI (cfiCond323) R7 Frame(CFA_Y, -1)
        CFI (cfiCond323) CFA_SP SP+6
        CFI (cfiCond323) CFA_Y Y+17
        CFI Block cfiCond324 Using cfiCommon0
        CFI (cfiCond324) NoFunction
        CFI (cfiCond324) Conditional ??CrossCallReturnLabel_846
        CFI (cfiCond324) R24 Frame(CFA_Y, -8)
        CFI (cfiCond324) R25 Frame(CFA_Y, -7)
        CFI (cfiCond324) R26 Frame(CFA_Y, -6)
        CFI (cfiCond324) R27 Frame(CFA_Y, -5)
        CFI (cfiCond324) R4 Frame(CFA_Y, -4)
        CFI (cfiCond324) R5 Frame(CFA_Y, -3)
        CFI (cfiCond324) R6 Frame(CFA_Y, -2)
        CFI (cfiCond324) R7 Frame(CFA_Y, -1)
        CFI (cfiCond324) CFA_SP SP+6
        CFI (cfiCond324) CFA_Y Y+17
        CFI Block cfiCond325 Using cfiCommon0
        CFI (cfiCond325) NoFunction
        CFI (cfiCond325) Conditional ??CrossCallReturnLabel_845
        CFI (cfiCond325) R24 Frame(CFA_Y, -8)
        CFI (cfiCond325) R25 Frame(CFA_Y, -7)
        CFI (cfiCond325) R26 Frame(CFA_Y, -6)
        CFI (cfiCond325) R27 Frame(CFA_Y, -5)
        CFI (cfiCond325) R4 Frame(CFA_Y, -4)
        CFI (cfiCond325) R5 Frame(CFA_Y, -3)
        CFI (cfiCond325) R6 Frame(CFA_Y, -2)
        CFI (cfiCond325) R7 Frame(CFA_Y, -1)
        CFI (cfiCond325) CFA_SP SP+6
        CFI (cfiCond325) CFA_Y Y+17
        CFI Block cfiCond326 Using cfiCommon0
        CFI (cfiCond326) NoFunction
        CFI (cfiCond326) Conditional ??CrossCallReturnLabel_844
        CFI (cfiCond326) R24 Frame(CFA_Y, -8)
        CFI (cfiCond326) R25 Frame(CFA_Y, -7)
        CFI (cfiCond326) R26 Frame(CFA_Y, -6)
        CFI (cfiCond326) R27 Frame(CFA_Y, -5)
        CFI (cfiCond326) R4 Frame(CFA_Y, -4)
        CFI (cfiCond326) R5 Frame(CFA_Y, -3)
        CFI (cfiCond326) R6 Frame(CFA_Y, -2)
        CFI (cfiCond326) R7 Frame(CFA_Y, -1)
        CFI (cfiCond326) CFA_SP SP+6
        CFI (cfiCond326) CFA_Y Y+17
        CFI Block cfiCond327 Using cfiCommon0
        CFI (cfiCond327) NoFunction
        CFI (cfiCond327) Conditional ??CrossCallReturnLabel_843
        CFI (cfiCond327) R24 Frame(CFA_Y, -5)
        CFI (cfiCond327) R25 Frame(CFA_Y, -4)
        CFI (cfiCond327) R26 Frame(CFA_Y, -3)
        CFI (cfiCond327) R27 Frame(CFA_Y, -2)
        CFI (cfiCond327) R4 Frame(CFA_Y, -1)
        CFI (cfiCond327) CFA_SP SP+6
        CFI (cfiCond327) CFA_Y Y+15
        CFI Block cfiCond328 Using cfiCommon0
        CFI (cfiCond328) NoFunction
        CFI (cfiCond328) Conditional ??CrossCallReturnLabel_842
        CFI (cfiCond328) R24 Frame(CFA_Y, -5)
        CFI (cfiCond328) R25 Frame(CFA_Y, -4)
        CFI (cfiCond328) R26 Frame(CFA_Y, -3)
        CFI (cfiCond328) R27 Frame(CFA_Y, -2)
        CFI (cfiCond328) R4 Frame(CFA_Y, -1)
        CFI (cfiCond328) CFA_SP SP+6
        CFI (cfiCond328) CFA_Y Y+15
        CFI Block cfiCond329 Using cfiCommon0
        CFI (cfiCond329) NoFunction
        CFI (cfiCond329) Conditional ??CrossCallReturnLabel_841
        CFI (cfiCond329) R26 Frame(CFA_Y, -2)
        CFI (cfiCond329) R27 Frame(CFA_Y, -1)
        CFI (cfiCond329) CFA_SP SP+6
        CFI (cfiCond329) CFA_Y Y+2
        CFI Block cfiCond330 Using cfiCommon0
        CFI (cfiCond330) NoFunction
        CFI (cfiCond330) Conditional ??CrossCallReturnLabel_840
        CFI (cfiCond330) R26 Frame(CFA_Y, -2)
        CFI (cfiCond330) R27 Frame(CFA_Y, -1)
        CFI (cfiCond330) CFA_SP SP+6
        CFI (cfiCond330) CFA_Y Y+2
        CFI Block cfiCond331 Using cfiCommon0
        CFI (cfiCond331) NoFunction
        CFI (cfiCond331) Conditional ??CrossCallReturnLabel_839
        CFI (cfiCond331) R26 Frame(CFA_Y, -2)
        CFI (cfiCond331) R27 Frame(CFA_Y, -1)
        CFI (cfiCond331) CFA_SP SP+6
        CFI (cfiCond331) CFA_Y Y+2
        CFI Block cfiCond332 Using cfiCommon0
        CFI (cfiCond332) NoFunction
        CFI (cfiCond332) Conditional ??CrossCallReturnLabel_838
        CFI (cfiCond332) R24 Frame(CFA_Y, -4)
        CFI (cfiCond332) R25 Frame(CFA_Y, -3)
        CFI (cfiCond332) R26 Frame(CFA_Y, -2)
        CFI (cfiCond332) R27 Frame(CFA_Y, -1)
        CFI (cfiCond332) CFA_SP SP+6
        CFI (cfiCond332) CFA_Y Y+14
        CFI Block cfiCond333 Using cfiCommon0
        CFI (cfiCond333) NoFunction
        CFI (cfiCond333) Conditional ??CrossCallReturnLabel_837
        CFI (cfiCond333) R24 Frame(CFA_Y, -5)
        CFI (cfiCond333) R25 Frame(CFA_Y, -4)
        CFI (cfiCond333) R26 Frame(CFA_Y, -3)
        CFI (cfiCond333) R27 Frame(CFA_Y, -2)
        CFI (cfiCond333) R4 Frame(CFA_Y, -1)
        CFI (cfiCond333) CFA_SP SP+6
        CFI (cfiCond333) CFA_Y Y+15
        CFI Block cfiCond334 Using cfiCommon0
        CFI (cfiCond334) NoFunction
        CFI (cfiCond334) Conditional ??CrossCallReturnLabel_836
        CFI (cfiCond334) R24 Frame(CFA_Y, -5)
        CFI (cfiCond334) R25 Frame(CFA_Y, -4)
        CFI (cfiCond334) R26 Frame(CFA_Y, -3)
        CFI (cfiCond334) R27 Frame(CFA_Y, -2)
        CFI (cfiCond334) R4 Frame(CFA_Y, -1)
        CFI (cfiCond334) CFA_SP SP+6
        CFI (cfiCond334) CFA_Y Y+15
        CFI Block cfiCond335 Using cfiCommon0
        CFI (cfiCond335) NoFunction
        CFI (cfiCond335) Conditional ??CrossCallReturnLabel_835
        CFI (cfiCond335) R26 Frame(CFA_Y, -2)
        CFI (cfiCond335) R27 Frame(CFA_Y, -1)
        CFI (cfiCond335) CFA_SP SP+6
        CFI (cfiCond335) CFA_Y Y+2
        CFI Block cfiCond336 Using cfiCommon0
        CFI (cfiCond336) NoFunction
        CFI (cfiCond336) Conditional ??CrossCallReturnLabel_834
        CFI (cfiCond336) R26 Frame(CFA_Y, -2)
        CFI (cfiCond336) R27 Frame(CFA_Y, -1)
        CFI (cfiCond336) CFA_SP SP+6
        CFI (cfiCond336) CFA_Y Y+2
        CFI Block cfiCond337 Using cfiCommon0
        CFI (cfiCond337) NoFunction
        CFI (cfiCond337) Conditional ??CrossCallReturnLabel_833
        CFI (cfiCond337) R26 Frame(CFA_Y, -2)
        CFI (cfiCond337) R27 Frame(CFA_Y, -1)
        CFI (cfiCond337) CFA_SP SP+6
        CFI (cfiCond337) CFA_Y Y+2
        CFI Block cfiCond338 Using cfiCommon0
        CFI (cfiCond338) NoFunction
        CFI (cfiCond338) Conditional ??CrossCallReturnLabel_832
        CFI (cfiCond338) R26 Frame(CFA_Y, -2)
        CFI (cfiCond338) R27 Frame(CFA_Y, -1)
        CFI (cfiCond338) CFA_SP SP+6
        CFI (cfiCond338) CFA_Y Y+2
        CFI Block cfiCond339 Using cfiCommon0
        CFI (cfiCond339) NoFunction
        CFI (cfiCond339) Conditional ??CrossCallReturnLabel_831
        CFI (cfiCond339) R26 Frame(CFA_Y, -2)
        CFI (cfiCond339) R27 Frame(CFA_Y, -1)
        CFI (cfiCond339) CFA_SP SP+6
        CFI (cfiCond339) CFA_Y Y+2
        CFI Block cfiCond340 Using cfiCommon0
        CFI (cfiCond340) NoFunction
        CFI (cfiCond340) Conditional ??CrossCallReturnLabel_830
        CFI (cfiCond340) R26 Frame(CFA_Y, -2)
        CFI (cfiCond340) R27 Frame(CFA_Y, -1)
        CFI (cfiCond340) CFA_SP SP+6
        CFI (cfiCond340) CFA_Y Y+2
        CFI Block cfiCond341 Using cfiCommon0
        CFI (cfiCond341) NoFunction
        CFI (cfiCond341) Conditional ??CrossCallReturnLabel_829
        CFI (cfiCond341) R26 Frame(CFA_Y, -2)
        CFI (cfiCond341) R27 Frame(CFA_Y, -1)
        CFI (cfiCond341) CFA_SP SP+6
        CFI (cfiCond341) CFA_Y Y+2
        CFI Block cfiCond342 Using cfiCommon0
        CFI (cfiCond342) NoFunction
        CFI (cfiCond342) Conditional ??CrossCallReturnLabel_828
        CFI (cfiCond342) R26 Frame(CFA_Y, -2)
        CFI (cfiCond342) R27 Frame(CFA_Y, -1)
        CFI (cfiCond342) CFA_SP SP+6
        CFI (cfiCond342) CFA_Y Y+2
        CFI Block cfiCond343 Using cfiCommon0
        CFI (cfiCond343) NoFunction
        CFI (cfiCond343) Conditional ??CrossCallReturnLabel_827
        CFI (cfiCond343) R26 Frame(CFA_Y, -2)
        CFI (cfiCond343) R27 Frame(CFA_Y, -1)
        CFI (cfiCond343) CFA_SP SP+6
        CFI (cfiCond343) CFA_Y Y+2
??Subroutine291_0:
        RJMP	?Subroutine312
        CFI EndBlock cfiCond315
        CFI EndBlock cfiCond316
        CFI EndBlock cfiCond317
        CFI EndBlock cfiCond318
        CFI EndBlock cfiCond319
        CFI EndBlock cfiCond320
        CFI EndBlock cfiBlock321
        CFI EndBlock cfiPicker322
        CFI EndBlock cfiCond323
        CFI EndBlock cfiCond324
