##############################################################################
#                                                                            #
#                                                      24/Oct/2025  13:27:52 #
# IAR Atmel AVR C/C++ Compiler V4.12A/W32, Evaluation Version                #
# Copyright 1996-2005 IAR Systems. All rights reserved.                      #
#                                                                            #
#    Source file  =  E:\sim800Elam2560_bootnew_i2cerr_a7682e\base1.c         #
#    Command line =  E:\sim800Elam2560_bootnew_i2cerr_a7682e\base1.c         #
#                    --cpu=m2560 -ms -o E:\sim800Elam2560_bootnew_i2cerr_a76 #
#                    82e\Debug\Obj\ -lCN E:\sim800Elam2560_bootnew_i2cerr_a7 #
#                    682e\Debug\List\ -lA E:\sim800Elam2560_bootnew_i2cerr_a #
#                    7682e\Debug\List\ -y --initializers_in_flash -z9        #
#                    --no_inline --no_tbaa --cross_call_passes=1 --debug -e  #
#                    -I "E:\box\IAR Systems\Embedded Workbench 4.0           #
#                    Evaluation\avr\INC\" -I "E:\box\IAR Systems\Embedded    #
#                    Workbench 4.0 Evaluation\avr\INC\DLIB\" --eeprom_size   #
#                    4096 --dlib_config "E:\box\IAR Systems\Embedded         #
#                    Workbench 4.0 Evaluation\avr\LIB\DLIB\dlAVR-5s-ec-n.h"  #
#    List file    =  E:\sim800Elam2560_bootnew_i2cerr_a7682e\Debug\List\base #
#                    1.lst                                                   #
#    Object file  =  E:\sim800Elam2560_bootnew_i2cerr_a7682e\Debug\Obj\base1 #
#                    .r90                                                    #
#                                                                            #
#                                                                            #
##############################################################################

E:\sim800Elam2560_bootnew_i2cerr_a7682e\base1.c
      1          #include <iom2560.h> 

   \                                 In segment ABSOLUTE, at 0x136
   \   union <unnamed> volatile __ext_io _A_UDR3
   \                     _A_UDR3:
   \   00000000                      DS 1

   \                                 In segment ABSOLUTE, at 0x134
   \   union <unnamed> volatile __ext_io _A_UBRR3
   \                     _A_UBRR3:
   \   00000000                      DS 2

   \                                 In segment ABSOLUTE, at 0x132
   \   union <unnamed> volatile __ext_io _A_UCSR3C
   \                     _A_UCSR3C:
   \   00000000                      DS 1

   \                                 In segment ABSOLUTE, at 0x131
   \   union <unnamed> volatile __ext_io _A_UCSR3B
   \                     _A_UCSR3B:
   \   00000000                      DS 1

   \                                 In segment ABSOLUTE, at 0x106
   \   union <unnamed> volatile __ext_io _A_PINK
   \                     _A_PINK:
   \   00000000                      DS 1

   \                                 In segment ABSOLUTE, at 0x105
   \   union <unnamed> volatile __ext_io _A_PORTJ
   \                     _A_PORTJ:
   \   00000000                      DS 1

   \                                 In segment ABSOLUTE, at 0x102
   \   union <unnamed> volatile __ext_io _A_PORTH
   \                     _A_PORTH:
   \   00000000                      DS 1

   \                                 In segment ABSOLUTE, at 0xd6
   \   union <unnamed> volatile __io _A_UDR2
   \                     _A_UDR2:
   \   00000000                      DS 1

   \                                 In segment ABSOLUTE, at 0xd4
   \   union <unnamed> volatile __io _A_UBRR2
   \                     _A_UBRR2:
   \   00000000                      DS 2

   \                                 In segment ABSOLUTE, at 0xd2
   \   union <unnamed> volatile __io _A_UCSR2C
   \                     _A_UCSR2C:
   \   00000000                      DS 1

   \                                 In segment ABSOLUTE, at 0xd1
   \   union <unnamed> volatile __io _A_UCSR2B
   \                     _A_UCSR2B:
   \   00000000                      DS 1

   \                                 In segment ABSOLUTE, at 0xd0
   \   union <unnamed> volatile __io _A_UCSR2A
   \                     _A_UCSR2A:
   \   00000000                      DS 1

   \                                 In segment ABSOLUTE, at 0xcc
   \   union <unnamed> volatile __io _A_UBRR1
   \                     _A_UBRR1:
   \   00000000                      DS 2

   \                                 In segment ABSOLUTE, at 0xca
   \   union <unnamed> volatile __io _A_UCSR1C
   \                     _A_UCSR1C:
   \   00000000                      DS 1

   \                                 In segment ABSOLUTE, at 0xc9
   \   union <unnamed> volatile __io _A_UCSR1B
   \                     _A_UCSR1B:
   \   00000000                      DS 1

   \                                 In segment ABSOLUTE, at 0xc6
   \   union <unnamed> volatile __io _A_UDR0
   \                     _A_UDR0:
   \   00000000                      DS 1

   \                                 In segment ABSOLUTE, at 0xc4
   \   union <unnamed> volatile __io _A_UBRR0
   \                     _A_UBRR0:
   \   00000000                      DS 2

   \                                 In segment ABSOLUTE, at 0xc1
   \   union <unnamed> volatile __io _A_UCSR0B
   \                     _A_UCSR0B:
   \   00000000                      DS 1

   \                                 In segment ABSOLUTE, at 0xc0
   \   union <unnamed> volatile __io _A_UCSR0A
   \                     _A_UCSR0A:
   \   00000000                      DS 1

   \                                 In segment ABSOLUTE, at 0x60
   \   union <unnamed> volatile __io _A_WDTCSR
   \                     _A_WDTCSR:
   \   00000000                      DS 1

   \                                 In segment ABSOLUTE, at 0x5f
   \   union <unnamed> volatile __io _A_SREG
   \                     _A_SREG:
   \   00000000                      DS 1

   \                                 In segment ABSOLUTE, at 0x54
   \   union <unnamed> volatile __io _A_MCUSR
   \                     _A_MCUSR:
   \   00000000                      DS 1

   \                                 In segment ABSOLUTE, at 0x34
   \   union <unnamed> volatile __io _A_PORTG
   \                     _A_PORTG:
   \   00000000                      DS 1

   \                                 In segment ABSOLUTE, at 0x2e
   \   union <unnamed> volatile __io _A_PORTE
   \                     _A_PORTE:
   \   00000000                      DS 1

   \                                 In segment ABSOLUTE, at 0x2c
   \   union <unnamed> volatile __io _A_PINE
   \                     _A_PINE:
   \   00000000                      DS 1

   \                                 In segment ABSOLUTE, at 0x2b
   \   union <unnamed> volatile __io _A_PORTD
   \                     _A_PORTD:
   \   00000000                      DS 1

   \                                 In segment ABSOLUTE, at 0x28
   \   union <unnamed> volatile __io _A_PORTC
   \                     _A_PORTC:
   \   00000000                      DS 1

   \                                 In segment ABSOLUTE, at 0x25
   \   union <unnamed> volatile __io _A_PORTB
   \                     _A_PORTB:
   \   00000000                      DS 1
      2          #include <inavr.h> 
      3          #include "dfpin.h"
      4          #include "dfproc.h"
      5          #include "def_prot.h"
      6          #include "def_conf.h"
      7          #include "map_ef.h"
      8          #include "map_ad.h"
      9          #include "ozu_map.h"
     10          #include "def_at.h"
     11          #include "def_log.h"
     12          #include "def_link.h"
     13          #include "dfcnst.h"
     14          #include <string.h>
     15          #include "sec.h"
     16          #include <stdio.h>
     17          #include "map_mbus.h"
     18          
     19          #define CHECK_TIME 15
     20          

   \                                 In segment NEAR_F, align 1, keep-with-next
     21          __flash unsigned char tab_crc[] = { 0,94,188,226,97,63,221,131,194,156,126,32,163,253,31,65,
   \                     tab_crc:
   \   00000000   5E00E2BC3F61       DB 0, 94, 188, 226, 97, 63, 221, 131, 194, 156, 126, 32, 163, 253, 31
   \              83DD9CC2207E
   \              FDA31F      
   \   0000000F   9D4121C3FC7F       DB 65, 157, 195, 33, 127, 252, 162, 64, 30, 95, 1, 227, 189, 62, 96
   \              40A25F1EE301
   \              3EBD60      
   \   0000001E   DC827D23C19F       DB 130, 220, 35, 125, 159, 193, 66, 28, 254, 160, 225, 191, 93, 3, 128
   \              1C42A0FEBFE1
   \              035D80      
   \   0000002D   3CDEBE6202E0       DB 222, 60, 98, 190, 224, 2, 92, 223, 129, 99, 61, 124, 34, 192, 158
   \              DF5C63817C3D
   \              C0229E      
   \   0000003C   431DFFA11846       DB 29, 67, 161, 255, 70, 24, 250, 164, 39, 121, 155, 197, 132, 218, 56
   \              A4FA7927C59B
   \              DA8438      
   \   0000004B   E56659BBDB07       DB 102, 229, 187, 89, 7, 219, 133, 103, 57, 186, 228, 6, 88, 25, 71
   \              6785BA3906E4
   \              195847      
   \   0000005A   FBA526789AC4       DB 165, 251, 120, 38, 196, 154, 101, 59, 217, 135, 4, 90, 184, 230, 167
   \              3B6587D95A04
   \              E6B8A7      
   \   00000069   1BF9C6457A98       DB 249, 27, 69, 198, 152, 122, 36, 248, 166, 68, 26, 153, 199, 37, 123
   \              F82444A6991A
   \              25C77B      
   \   00000078   643AD886055B       DB 58, 100, 134, 216, 91, 5, 231, 185, 140, 210, 48, 110, 237, 179, 81
   \              B9E7D28C6E30
   \              B3ED51      
   \   00000087   4E0FF2102FAC       DB 15, 78, 16, 242, 172, 47, 113, 147, 205, 17, 79, 173, 243, 112, 46
   \              937111CDAD4F
   \              70F32E      
   \   00000096   92CC8DD3316F       DB 204, 146, 211, 141, 111, 49, 178, 236, 14, 80, 175, 241, 19, 77, 206
   \              ECB2500EF1AF
   \              4D13CE      
   \   000000A5   72906D2CD133       DB 144, 114, 44, 109, 51, 209, 143, 12, 82, 176, 238, 50, 108, 142, 208
   \              0C8FB05232EE
   \              8E6CD0      
   \   000000B4   0D53B1EFAEF0       DB 83, 13, 239, 177, 240, 174, 76, 18, 145, 207, 45, 115, 202, 148, 118
   \              124CCF91732D
   \              94CA76      
   \   000000C3   AB2817F50849       DB 40, 171, 245, 23, 73, 8, 86, 180, 234, 105, 55, 213, 139, 87, 9, 235
   \              B45669EAD537
   \              578BEB09    
   \   000000D3   36B58A6895D4       DB 181, 54, 104, 138, 212, 149, 203, 41, 119, 244, 170, 72, 22, 233
   \              29CBF47748AA
   \              E916        
   \   000000E1   55B7880B34D6       DB 183, 85, 11, 136, 214, 52, 106, 43, 117, 151, 201, 74, 20, 246, 168
   \              2B6A97754AC9
   \              F614A8      
   \   000000F0   2A7496C84B15       DB 116, 42, 200, 150, 21, 75, 169, 247, 182, 232, 10, 84, 215, 137, 107
   \              F7A9E8B6540A
   \              89D76B      
   \   000000FF   35                 DB 53
     22                           157,195,33,127,252,162,64,30,95,1,227,189,62,96,130,220,
     23                           35,125,159,193,66,28,254,160,225,191,93,3,128,222,60,98,
     24                           190,224,2,92,223,129,99,61,124,34,192,158,29,67,161,255,
     25                           70,24,250,164,39,121,155,197,132,218,56,102,229,187,89,7,
     26                           219,133,103,57,186,228,6,88,25,71,165,251,120,38,196,154,
     27                           101,59,217,135,4,90,184,230,167,249,27,69,198,152,122,36,
     28                           248,166,68,26,153,199,37,123,58,100,134,216,91,5,231,185,
     29                           140,210,48,110,237,179,81,15,78,16,242,172,47,113,147,205,
     30                           17,79,173,243,112,46,204,146,211,141,111,49,178,236,14,80,
     31                           175,241,19,77,206,144,114,44,109,51,209,143,12,82,176,238,
     32                           50,108,142,208,83,13,239,177,240,174,76,18,145,207,45,115,
     33                           202,148,118,40,171,245,23,73,8,86,180,234,105,55,213,139,
     34                           87,9,235,181,54,104,138,212,149,203,41,119,244,170,72,22,
     35                           233,183,85,11,136,214,52,106,43,117,151,201,74,20,246,168,
     36                           116,42,200,150,21,75,169,247,182,232,10,84,215,137,107,53 };     
     37          
     38          
     39          
     40          

   \                                 In segment NEAR_F, align 1, keep-with-next
     41          __flash char stm_pwr_on[]=        {'S','T','M',':','p','w','r',' ','o','n'};
   \                     stm_pwr_on:
   \   00000000   54533A4D7770       DB 83, 84, 77, 58, 112, 119, 114, 32, 111, 110
   \              20726E6F    
     42          __flash char stm_pwr_kon[]=       {'S','T','M',':','p','w','r',' ','k','o','n'};
     43          __flash char stm_pwr_off[]=       {'S','T','M',':','p','w','r',' ','o','f','f',};
     44          __flash char stm_pwr_koff[]=      {'S','T','M',':','p','w','r',' ','k','o','f','f',};
     45          __flash char stm_si[]=            {'S','T','M',':','s','i'};
     46          __flash char stm_sc[]=            {'S','T','M',':','s','c'};
     47          __flash char stm_scp[]=           {'S','T','M',':','s','c','p'};
     48          __flash char stm_ppp[]=           {'S','T','M',':','p','p','p'};
     49          __flash char stm_rdc[]=           {'S','T','M',':','r','d','c'};
     50          
     51          __flash char stm_base_sim[]=      {'S','T','M',':','b','a','s','e',' ','s','i','m'}; //dobavka
   \                     stm_base_sim:
   \   0000000A   54533A4D6162       DB 83, 84, 77, 58, 98, 97, 115, 101, 32, 115, 105, 109
   \              657373206D69
     52          __flash char stm_res_sim[]=       {'S','T','M',':','r','e','s',' ','s','i','m'}; //dobavka
   \                     stm_res_sim:
   \   00000016   54533A4D6572       DB 83, 84, 77, 58, 114, 101, 115, 32, 115, 105, 109
   \              207369736D  

   \                                 In segment NEAR_F, align 1, keep-with-next
   \                     stm_pwr_kon:
   \   00000000   54533A4D7770       DB 83, 84, 77, 58, 112, 119, 114, 32, 107, 111, 110
   \              20726F6B6E  

   \                                 In segment NEAR_F, align 1, keep-with-next
   \                     stm_pwr_off:
   \   00000000   54533A4D7770       DB 83, 84, 77, 58, 112, 119, 114, 32, 111, 102, 102
   \              2072666F66  

   \                                 In segment NEAR_F, align 1, keep-with-next
   \                     stm_pwr_koff:
   \   00000000   54533A4D7770       DB 83, 84, 77, 58, 112, 119, 114, 32, 107, 111, 102, 102
   \              20726F6B6666

   \                                 In segment NEAR_F, align 1, keep-with-next
   \                     stm_si:
   \   00000000   54533A4D6973       DB 83, 84, 77, 58, 115, 105
   \                     stm_sc:
   \   00000006   54533A4D6373       DB 83, 84, 77, 58, 115, 99
   \                     stm_scp:
   \   0000000C   54533A4D6373       DB 83, 84, 77, 58, 115, 99, 112
   \              70          
   \                     stm_ppp:
   \   00000013   54533A4D7070       DB 83, 84, 77, 58, 112, 112, 112
   \              70          
     53          
     54          __flash char evm_tm[]=        {'E','V','M',':','t','m'};
   \                     evm_tm:
   \   0000001A   56453A4D6D74       DB 69, 86, 77, 58, 116, 109
     55          __flash char evm_at_ok[]=     {'E','V','M',':','a','t',' ','o','k'};
     56          __flash char evm_at_err[]=    {'E','V','M',':','a','t',' ','e','r','r'};
   \                     evm_at_err:
   \   00000020   56453A4D7461       DB 69, 86, 77, 58, 97, 116, 32, 101, 114, 114
   \              65207272    
     57          __flash char evm_ppp_ok[]=    {'E','V','M',':','p','p','p',' ','o','k'};
     58          __flash char evm_ppp_err[]=   {'E','V','M',':','p','p','p',' ','e','r','r'};
   \                     evm_ppp_err:
   \   0000002A   56453A4D7070       DB 69, 86, 77, 58, 112, 112, 112, 32, 101, 114, 114
   \              2070726572  
     59          __flash char evm_dcd_err[]=   {'E','V','M',':','d','c','d',' ','e','r','r'};
   \                     evm_dcd_err:
   \   00000035   56453A4D6364       DB 69, 86, 77, 58, 100, 99, 100, 32, 101, 114, 114
   \              2064726572  
     60          __flash char evm_no_rec[]=     {'E','V','M',':','n','o',' ','r','e','c'};
   \                     evm_no_rec:
   \   00000040   56453A4D6F6E       DB 69, 86, 77, 58, 110, 111, 32, 114, 101, 99
   \              72206365    
     61          __flash char evm_cts_err[]=   {'E','V','M',':','c','t','s',' ','e','r','r'}; //dobavka
   \                     evm_cts_err:
   \   0000004A   56453A4D7463       DB 69, 86, 77, 58, 99, 116, 115, 32, 101, 114, 114
   \              2073726572  
     62          __flash char evm_ch_sim[]=    {'E','V','M',':','c','h',' ','s','i','m'};     //dobavka
   \                     evm_ch_sim:
   \   00000055   56453A4D6863       DB 69, 86, 77, 58, 99, 104, 32, 115, 105, 109
   \              73206D69    

   \                                 In segment NEAR_F, align 1, keep-with-next
   \                     stm_rdc:
   \   00000000   54533A4D6472       DB 83, 84, 77, 58, 114, 100, 99
   \              63          

   \                                 In segment NEAR_F, align 1, keep-with-next
   \                     evm_at_ok:
   \   00000000   56453A4D7461       DB 69, 86, 77, 58, 97, 116, 32, 111, 107
   \              6F206B      

   \                                 In segment NEAR_F, align 1, keep-with-next
   \                     evm_ppp_ok:
   \   00000000   56453A4D7070       DB 69, 86, 77, 58, 112, 112, 112, 32, 111, 107
   \              20706B6F    
     63          
     64          //__flash char evc_heat_on[]=        {'E','V','C',':','h','e','a','t',' ','o','n'};
     65          //__flash char evc_heat_off[]=       {'E','V','C',':','h','e','a','t',' ','o','f','f'};

   \                                 In segment NEAR_F, align 1, keep-with-next
     66          __flash char evc_taken[]=          {'E','V','C',':','t','a','k','e','n'};
   \                     evc_taken:
   \   00000000   56453A436174       DB 69, 86, 67, 58, 116, 97, 107, 101, 110
   \              656B6E      
     67          __flash char evc_alarm[]=          {'E','V','C',':','a','l','a','r','m'};
   \                     evc_alarm:
   \   00000009   56453A436C61       DB 69, 86, 67, 58, 97, 108, 97, 114, 109
   \              72616D      
     68          //__flash char evc_feed_akb[]=       {'E','V','C',':','f','e','e','d',' ','a','k','b'};
     69          //__flash char evc_feed_220[]=       {'E','V','C',':','f','e','e','d',' ','2','2','0'};
     70          __flash char evc_ts1[]=       {'E','V','C',':','t','s','1'};
   \                     evc_ts1:
   \   00000012   56453A437374       DB 69, 86, 67, 58, 116, 115, 49
   \              31          
     71          __flash char evc_ts2[]=       {'E','V','C',':','t','s','2'};
   \                     evc_ts2:
   \   00000019   56453A437374       DB 69, 86, 67, 58, 116, 115, 50
   \              32          
     72          

   \                                 In segment NEAR_F, align 1, keep-with-next
     73          __flash char evc_state[]=       {'E','V','C',':','s','t','a','t','e'};
   \                     evc_state:
   \   00000000   56453A437473       DB 69, 86, 67, 58, 115, 116, 97, 116, 101
   \              746165      
     74          

   \                                 In segment NEAR_F, align 1, keep-with-next
     75          __flash char evc_wdr[]=            {'E','V','C',':','w','d','r'};
   \                     evc_wdr:
   \   00000000   56453A436477       DB 69, 86, 67, 58, 119, 100, 114
   \              72          
     76          __flash char evc_bod[]=            {'E','V','C',':','b','o','d'};
   \                     evc_bod:
   \   00000007   56453A436F62       DB 69, 86, 67, 58, 98, 111, 100
   \              64          
     77          __flash char evc_rst[]=            {'E','V','C',':','r','s','t'};
   \                     evc_rst:
   \   0000000E   56453A437372       DB 69, 86, 67, 58, 114, 115, 116
   \              74          
     78          __flash char evc_pwr[]=            {'E','V','C',':','p','w','r'};
   \                     evc_pwr:
   \   00000015   56453A437770       DB 69, 86, 67, 58, 112, 119, 114
   \              72          
     79          

   \                                 In segment NEAR_F, align 1, keep-with-next
     80          __flash char msg_evc[]=          {'M','S','G',':','e','v','c',};
   \                     msg_evc:
   \   00000000   534D3A477665       DB 77, 83, 71, 58, 101, 118, 99
   \              63          

   \                                 In segment NEAR_F, align 1, keep-with-next
     81          __flash char msg_ctrl_ch[]=      {'M','S','G',':','c','t','r','l',' ','c','h'};
   \                     msg_ctrl_ch:
   \   00000000   534D3A477463       DB 77, 83, 71, 58, 99, 116, 114, 108, 32, 99, 104
   \              6C72632068  

   \                                 In segment NEAR_F, align 1, keep-with-next
     82          __flash char msg_ctrl_nat[]=     {'M','S','G',':','c','t','r','l',' ','n','a','t'};
   \                     msg_ctrl_nat:
   \   00000000   534D3A477463       DB 77, 83, 71, 58, 99, 116, 114, 108, 32, 110, 97, 116
   \              6C726E207461
     83          
     84          

   \                                 In segment NEAR_F, align 1, keep-with-next
     85          __flash char req_out_ctrl_cl[]={'R','E','Q','-','>','c','t','r','l',' ','c','l'};
   \                     req_out_ctrl_cl:
   \   00000000   45522D51633E       DB 82, 69, 81, 45, 62, 99, 116, 114, 108, 32, 99, 108
   \              7274206C6C63
     86          
     87          
     88          /*
     89          __flash char rec []=             {'R','E','C'};
     90          
     91          __flash char req_out_ctrl_cl[]={'R','E','Q','-','>','c','t','r','l',' ','c','l'};
     92          __flash char ans_in_ctrl_cl[]={'A','N','S','-','<','c','t','r','l',' ','c','l'};
     93          
     94          __flash char req_in_485_1[]={'R','E','Q','-','<','4','8','5','_','1'};
     95          __flash char req_in_485_2[]={'R','E','Q','-','<','4','8','5','_','2'};
     96          __flash char req_in_232[]={'R','E','Q','-','<','2','3','2'};
     97          __flash char req_in_st_contr[]={'R','E','Q','-','<','s','t',' ','c','o','n','t','r'};
     98          __flash char req_in_config[]={'R','E','Q','-','<','c','o','n','f','i','g'};
     99          __flash char req_in_prog[]={'R','E','Q','-','<','p','r','o','g'};
    100          
    101          
    102          __flash char ans_out_485_1[]={'A','N','S','-','>','4','8','5','_','1'};
    103          __flash char ans_out_485_2[]={'A','N','S','-','>','4','8','5','_','2'};
    104          __flash char ans_out_232[]={'A','N','S','-','>','2','3','2'};
    105          __flash char ans_out_st_contr[]={'A','N','S','-','>','s','t',' ','c','o','n','t','r'};
    106          __flash char ans_out_config[]={'A','N','S','-','>','c','o','n','f','i','g'};
    107          __flash char ans_out_prog[]={'A','N','S','-','>','p','r','o','g'};
    108          */
    109          void RdFromFleshToArrInt(unsigned int adres_flesh, unsigned int *adres_ozu,unsigned int num);
    110          void WrArrayToFleshInt(unsigned int adres_flesh,  unsigned int *adres_ozu, unsigned int num,unsigned char flag,unsigned int znach); //запись конфигурации кп во флеш
    111          
    112          int crc_sum(unsigned char *ff,unsigned char kol);
    113          
    114          void ds_handler(void);
    115          void monitori(void);
    116          void init_modem_call_inside(void);
    117          void control_ts(void);
    118          
    119          void energy_plus(void);
    120          
    121          void init_pins_out_to_hiz(void);
    122          
    123          void init_pins_hiz_to_out(void);
    124          
    125          void monitor_wr_truffic(void);
    126          
    127          void send_terminate_lcp(void);
    128          char temp_to_grad(unsigned int t);
    129          
    130          void supervisorwdt(void);
    131          
    132          void kodirovka(unsigned int kol_send_byte);
    133          
    134          void send_info(char size,char __flash *p,unsigned char fl_id,unsigned char id);
    135          
    136          void    mov_massiv (char size, char *p);
    137          
    138          void control_temperatura(void);
    139          
    140          void init_modem_only(void);
    141          extern unsigned char Regim;
    142          
    143          extern unsigned int c_config_tc[SEG8];
    144          extern unsigned char sel_modul;
    145          extern unsigned int ust_vhod;
    146          
    147          void send_err485(unsigned char port,unsigned char err,unsigned char id,unsigned int dst);
    148          unsigned int proc_config(unsigned char *buf_rx_ppp,unsigned char offset,unsigned int count_rx_ppp);
    149          unsigned char check_ln_conf(unsigned char *buf_rx_ppp,unsigned char offset,unsigned int count_rx_ppp);
    150          unsigned char check_cont_485_1 (unsigned char *pointer);
    151          unsigned char check_cont_485_2 (unsigned char *pointer);
    152          
    153          unsigned char ret_version(unsigned char unit,unsigned char *ptr);
    154          
    155          unsigned int calc_crc_ip(unsigned char *p,unsigned int count);
    156          unsigned int calc_crc_udp_2(unsigned char *buf_rx_ppp,unsigned int count);
    157          unsigned int pppfcs16(unsigned int fcs,unsigned char *cp,unsigned int len);
    158          
    159          void monitor_event_PAP(void);
    160          void monitor_act_LCP(void);
    161          void monitor_event_LCP(void);
    162          void monitor_act_IPCP(void);
    163          void monitor_event_IPCP(void);
    164          void monitor_act_PAP(void);
    165          void clr_var_ppp_rx(void);
    166          void clr_var_ppp(void);
    167          
    168          void analiz_ppp_rx(void);
    169          
    170          void monitor1_tx_rs485_1(void);   //GPRS-штатный RS485_1
    171          void monitor1_rec_rs485_1(void);
    172          void monitor1_tm_rs485_1(void);
    173          
    174          void monitor1_tx_rs485_2(void);   //GPRS-штатный RS485_2
    175          void monitor1_rec_rs485_2(void);
    176          void monitor1_tm_rs485_2(void);
    177          
    178          void monitor1_tx_rs232_2(void);   //GPRS-штатный RS232_2
    179          void monitor1_rec_rs232_2(void);
    180          void monitor1_tm_rs232_2(void);
    181          
    182          
    183          
    184            extern void init_scen_stm_si(void);
    185            extern void init_scen_stm_sc(void);
    186            extern void init_scen_stm_dc(void);
    187            extern void at_com_rx(unsigned char cnt);
    188            extern void at_com_tx(unsigned char cnt);
    189            extern unsigned char at_com_scen_init(unsigned char *cnt,unsigned char *rp);
    190            extern unsigned char at_com_scen_stm_sc(unsigned char *cnt,unsigned char *rp);
    191            //extern unsigned char at_com_scen_stm_dc(unsigned char *cnt,unsigned char *rp);
    192            extern void init_scen_stm_dc_1(void);
    193            extern unsigned char at_com_scen_stm_dc_1(unsigned char *cnt,unsigned char *rp);
    194          
    195            
    196          extern unsigned char compress_off;
    197            
    198             extern unsigned char cnt_com;
    199             extern unsigned char rep;
    200            
    201          extern char bit_level;
    202          unsigned long int unix; 
    203          
    204           
    205          extern union {
    206                 unsigned char mb[SEG3*2];//байтовый массив 
    207                 } c2_byte; //1я страница конфигурации 
    208          
    209          extern union {
    210                 unsigned char mb[SEG99*2];//байтовый массив 
    211                 } c1_byte; //страница конфигурации ГЗУ
    212             
    213          extern unsigned int modbus_mem1[SEG1];
    214          
    215          extern struct struct_ts str_tc1,str_tc2,str_tc3,str_tc4,str_tc5,str_tc6,str_tc7,str_tc8;   
    216             
    217             
    218          
    219          extern void WrArrayToFlesh(unsigned int adres_flesh,  unsigned char *adres_ozu, unsigned int num,unsigned char flag,unsigned char znach);
    220          extern void RdFromFleshToArr(unsigned int adres_flesh, unsigned char *adres_ozu,unsigned int num);
    221          extern void write_log_info(unsigned char sost,unsigned char mesto);
    222          extern unsigned long int burst_ds_r(void);
    223          void set_rlt(unsigned char address, unsigned char * data);
    224          unsigned char write_to_buf(unsigned char *p_buf,unsigned int *ptr_in,unsigned int *ptr_out,unsigned int *ptr_out_kv,unsigned int *crc,unsigned char *p_data,unsigned int l_data, unsigned int max_buf);
    225          unsigned int read_from_buf(unsigned char *p_buf,unsigned int *ptr_in,unsigned int *ptr_out,unsigned int *ptr_out_kv,unsigned int *crc,unsigned char *p_data, unsigned int max_buf);
    226          
    227          //enum t_version {VER1 = 1 ,VER2,VER3,VER4};
    228          //enum t_type {ZAPR,OTV,SOOB,KVIT};                
    229          enum t_state_modem {STM_NONE=0,STM_ON,STM_KON,STM_PWK,STM_SI,STM_SC,STM_SCP,STM_PPP,STM_DCP,STM_DC,STM_KOFF,STM_OFF};
    230          enum t_state_modem state_modem;
    231          enum t_event_modem event_modem;
    232          enum bool command_AT;
    233          
    234          unsigned char cnt_stm_tm1,cnt_stm_tm2;
    235          unsigned int cnt_key_off;
    236          
    237          
    238          extern unsigned char keys[10];
    239          
    240          extern struct
    241                  { // в двоичном коде
    242                    char r_sec;
    243                    char r_min;
    244                    char r_hor;
    245                    char r_day;
    246                    char r_date;
    247                    char r_month;
    248                    char r_year;
    249                    char r_control;
    250                  }  real_time; 
    251          
    252          
    253          extern struct
    254            {
    255            unsigned char  ip         :1;
    256            unsigned char  udp        :1;
    257            unsigned char  num_self   :1;
    258            unsigned char cnt_reset;
    259            }fl_rewrite;
    260          
    261           #pragma location=A_RW_PDP 

   \                                 In segment EEPROM_AN, at 0x1
    262          __eeprom __no_init unsigned char e_rw_pdp;
   \                     e_rw_pdp:
   \   00000000                      DS 1
    263          
    264           #pragma location=A_RW_PDP_R 

   \                                 In segment EEPROM_AN, at 0x2
    265          __eeprom __no_init unsigned char e_rw_pdp_r;
   \                     e_rw_pdp_r:
   \   00000000                      DS 1
    266          
    267          

   \                                 In segment NEAR_F, align 1, keep-with-next
    268          __flash  unsigned char auchCRCHi[] ={
   \                     auchCRCHi:
   \   00000000   C1004081C001       DB 0, 193, 129, 64, 1, 192, 128, 65, 1, 192, 128, 65, 0, 193, 129, 64
   \              4180C0014180
   \              C1004081    
   \   00000010   C0014180C100       DB 1, 192, 128, 65, 0, 193, 129, 64, 0, 193, 129, 64, 1, 192, 128, 65
   \              4081C1004081
   \              C0014180    
   \   00000020   C0014180C100       DB 1, 192, 128, 65, 0, 193, 129, 64, 0, 193, 129, 64, 1, 192, 128, 65
   \              4081C1004081
   \              C0014180    
   \   00000030   C1004081C001       DB 0, 193, 129, 64, 1, 192, 128, 65, 1, 192, 128, 65, 0, 193, 129, 64
   \              4180C0014180
   \              C1004081    
   \   00000040   C0014180C100       DB 1, 192, 128, 65, 0, 193, 129, 64, 0, 193, 129, 64, 1, 192, 128, 65
   \              4081C1004081
   \              C0014180    
   \   00000050   C1004081C001       DB 0, 193, 129, 64, 1, 192, 128, 65, 1, 192, 128, 65, 0, 193, 129, 64
   \              4180C0014180
   \              C1004081    
   \   00000060   C1004081C001       DB 0, 193, 129, 64, 1, 192, 128, 65, 1, 192, 128, 65, 0, 193, 129, 64
   \              4180C0014180
   \              C1004081    
   \   00000070   C0014180C100       DB 1, 192, 128, 65, 0, 193, 129, 64, 0, 193, 129, 64, 1, 192, 128, 65
   \              4081C1004081
   \              C0014180    
   \   00000080   C0014180C100       DB 1, 192, 128, 65, 0, 193, 129, 64, 0, 193, 129, 64, 1, 192, 128, 65
   \              4081C1004081
   \              C0014180    
   \   00000090   C1004081C001       DB 0, 193, 129, 64, 1, 192, 128, 65, 1, 192, 128, 65, 0, 193, 129, 64
   \              4180C0014180
   \              C1004081    
   \   000000A0   C1004081C001       DB 0, 193, 129, 64, 1, 192, 128, 65, 1, 192, 128, 65, 0, 193, 129, 64
   \              4180C0014180
   \              C1004081    
   \   000000B0   C0014180C100       DB 1, 192, 128, 65, 0, 193, 129, 64, 0, 193, 129, 64, 1, 192, 128, 65
   \              4081C1004081
   \              C0014180    
   \   000000C0   C1004081C001       DB 0, 193, 129, 64, 1, 192, 128, 65, 1, 192, 128, 65, 0, 193, 129, 64
   \              4180C0014180
   \              C1004081    
   \   000000D0   C0014180C100       DB 1, 192, 128, 65, 0, 193, 129, 64, 0, 193, 129, 64, 1, 192, 128, 65
   \              4081C1004081
   \              C0014180    
   \   000000E0   C0014180C100       DB 1, 192, 128, 65, 0, 193, 129, 64, 0, 193, 129, 64, 1, 192, 128, 65
   \              4081C1004081
   \              C0014180    
   \   000000F0   C1004081C001       DB 0, 193, 129, 64, 1, 192, 128, 65, 1, 192, 128, 65, 0, 193, 129, 64
   \              4180C0014180
   \              C1004081    
    269            0x00,0xC1,0x81,0x40,0x01,0xC0,0x80,0x41,0x01,0xC0,0x80,0x41,0x00,
    270            0xC1,0x81,0x40,0x01,0xC0,0x80,0x41,0x00,0xC1,0x81,0x40,0x00,0xC1,
    271            0x81,0x40,0x01,0xC0,0x80,0x41,0x01,0xC0,0x80,0x41,0x00,0xC1,0x81,
    272            0x40,0x00,0xC1,0x81,0x40,0x01,0xC0,0x80,0x41,0x00,0xC1,0x81,0x40,
    273            0x01,0xC0,0x80,0x41,0x01,0xC0,0x80,0x41,0x00,0xC1,0x81,0x40,0x01,
    274            0xC0,0x80,0x41,0x00,0xC1,0x81,0x40,0x00,0xC1,0x81,0x40,0x01,0xC0,
    275            0x80,0x41,0x00,0xC1,0x81,0x40,0x01,0xC0,0x80,0x41,0x01,0xC0,0x80,
    276            0x41,0x00,0xC1,0x81,0x40,0x00,0xC1,0x81,0x40,0x01,0xC0,0x80,0x41,
    277            0x01,0xC0,0x80,0x41,0x00,0xC1,0x81,0x40,0x01,0xC0,0x80,0x41,0x00,
    278            0xC1,0x81,0x40,0x00,0xC1,0x81,0x40,0x01,0xC0,0x80,0x41,0x01,0xC0,
    279            0x80,0x41,0x00,0xC1,0x81,0x40,0x00,0xC1,0x81,0x40,0x01,0xC0,0x80,
    280            0x41,0x00,0xC1,0x81,0x40,0x01,0xC0,0x80,0x41,0x01,0xC0,0x80,0x41,
    281            0x00,0xC1,0x81,0x40,0x00,0xC1,0x81,0x40,0x01,0xC0,0x80,0x41,0x01,
    282            0xC0,0x80,0x41,0x00,0xC1,0x81,0x40,0x01,0xC0,0x80,0x41,0x00,0xC1,
    283            0x81,0x40,0x00,0xC1,0x81,0x40,0x01,0xC0,0x80,0x41,0x00,0xC1,0x81,
    284            0x40,0x01,0xC0,0x80,0x41,0x01,0xC0,0x80,0x41,0x00,0xC1,0x81,0x40,
    285            0x01,0xC0,0x80,0x41,0x00,0xC1,0x81,0x40,0x00,0xC1,0x81,0x40,0x01,
    286            0xC0,0x80,0x41,0x01,0xC0,0x80,0x41,0x00,0xC1,0x81,0x40,0x00,0xC1,
    287            0x81,0x40,0x01,0xC0,0x80,0x41,0x00,0xC1,0x81,0x40,0x01,0xC0,0x80,
    288            0x41,0x01,0xC0,0x80,0x41,0x00,0xC1,0x81,0x40};
    289            
    290              

   \                                 In segment NEAR_F, align 1, keep-with-next
    291          __flash   unsigned  char auchCRCLo[] = {
   \                     auchCRCLo:
   \   00000000   C00001C103C3       DB 0, 192, 193, 1, 195, 3, 2, 194, 198, 6, 7, 199, 5, 197, 196, 4, 204
   \              C20206C6C707
   \              C50504C4CC  
   \   00000011   0D0C0FCDCECF       DB 12, 13, 205, 15, 207, 206, 14, 10, 202, 203, 11, 201, 9, 8, 200, 216
   \              0A0ECBCAC90B
   \              0809D8C8    
   \   00000021   19181BD9DADB       DB 24, 25, 217, 27, 219, 218, 26, 30, 222, 223, 31, 221, 29, 28, 220
   \              1E1ADFDEDD1F
   \              1C1DDC      
   \   00000030   D41415D517D7       DB 20, 212, 213, 21, 215, 23, 22, 214, 210, 18, 19, 211, 17, 209, 208
   \              D61612D2D313
   \              D111D0      
   \   0000003F   F010313033F1       DB 16, 240, 48, 49, 241, 51, 243, 242, 50, 54, 246, 247, 55, 245, 53
   \              F2F33632F7F6
   \              F53735      
   \   0000004E   F434FC3C3DFD       DB 52, 244, 60, 252, 253, 61, 255, 63, 62, 254, 250, 58, 59, 251, 57
   \              3FFFFE3E3AFA
   \              FB3B39      
   \   0000005D   F8F92838E9E8       DB 249, 248, 56, 40, 232, 233, 41, 235, 43, 42, 234, 238, 46, 47, 239
   \              EB292A2BEEEA
   \              2F2EEF      
   \   0000006C   ED2D2CEC24E4       DB 45, 237, 236, 44, 228, 36, 37, 229, 39, 231, 230, 38, 34, 226, 227
   \              E525E72726E6
   \              E222E3      
   \   0000007B   E1232021A0E0       DB 35, 225, 33, 32, 224, 160, 96, 97, 161, 99, 163, 162, 98, 102, 166
   \              616063A1A2A3
   \              6662A6      
   \   0000008A   67A765A5A464       DB 167, 103, 165, 101, 100, 164, 108, 172, 173, 109, 175, 111, 110, 174
   \              AC6C6DAD6FAF
   \              AE6E        
   \   00000098   6AAAAB6BA969       DB 170, 106, 107, 171, 105, 169, 168, 104, 120, 184, 185, 121, 187, 123
   \              68A8B87879B9
   \              7BBB        
   \   000000A6   BA7A7EBEBF7F       DB 122, 186, 190, 126, 127, 191, 125, 189, 188, 124, 180, 116, 117, 181
   \              BD7D7CBC74B4
   \              B575        
   \   000000B4   B77776B6B272       DB 119, 183, 182, 118, 114, 178, 179, 115, 177, 113, 112, 176, 80, 144
   \              73B371B1B070
   \              9050        
   \   000000C2   519153939252       DB 145, 81, 147, 83, 82, 146, 150, 86, 87, 151, 85, 149, 148, 84, 156
   \              569697579555
   \              54949C      
   \   000000D1   5D5C5F9D9E9F       DB 92, 93, 157, 95, 159, 158, 94, 90, 154, 155, 91, 153, 89, 88, 152
   \              5A5E9B9A995B
   \              585998      
   \   000000E0   488889498B4B       DB 136, 72, 73, 137, 75, 139, 138, 74, 78, 142, 143, 79, 141, 77, 76
   \              4A8A8E4E4F8F
   \              4D8D4C      
   \   000000EF   448C85848745       DB 140, 68, 132, 133, 69, 135, 71, 70, 134, 130, 66, 67, 131, 65, 129
   \              464782864342
   \              418381      
   \   000000FE   4080               DB 128, 64

   \                                 In segment NEAR_Z, align 1, keep-with-next
   \   00000000                      REQUIRE `?<Segment init: NEAR_Z>`
   \                     unix:
   \   00000000                      DS 4
    292          0x00,0xC0,0xC1,0x01,0xC3,0x03,0x02,0xC2,0xC6,0x06,0x07,0xC7,0x05,
    293          0xC5,0xC4,0x04,0xCC,0x0C,0x0D,0xCD,0x0F,0xCF,0xCE,0x0E,0x0A,0xCA,
    294          0xCB,0x0B,0xC9,0x09,0x08,0xC8,0xD8,0x18,0x19,0xD9,0x1B,0xDB,0xDA,
    295          0x1A,0x1E,0xDE,0xDF,0x1F,0xDD,0x1D,0x1C,0xDC,0x14,0xD4,0xD5,0x15,
    296          0xD7,0x17,0x16,0xD6,0xD2,0x12,0x13,0xD3,0x11,0xD1,0xD0,0x10,0xF0,
    297          0x30,0x31,0xF1,0x33,0xF3,0xF2,0x32,0x36,0xF6,0xF7,0x37,0xF5,0x35,
    298          0x34,0xF4,0x3C,0xFC,0xFD,0x3D,0xFF,0x3F,0x3E,0xFE,0xFA,0x3A,0x3B,
    299          0xFB,0x39,0xF9,0xF8,0x38,0x28,0xE8,0xE9,0x29,0xEB,0x2B,0x2A,0xEA,
    300          0xEE,0x2E,0x2F,0xEF,0x2D,0xED,0xEC,0x2C,0xE4,0x24,0x25,0xE5,0x27,
    301          0xE7,0xE6,0x26,0x22,0xE2,0xE3,0x23,0xE1,0x21,0x20,0xE0,0xA0,0x60,
    302          0x61,0xA1,0x63,0xA3,0xA2,0x62,0x66,0xA6,0xA7,0x67,0xA5,0x65,0x64,
    303          0xA4,0x6C,0xAC,0xAD,0x6D,0xAF,0x6F,0x6E,0xAE,0xAA,0x6A,0x6B,0xAB,
    304          0x69,0xA9,0xA8,0x68,0x78,0xB8,0xB9,0x79,0xBB,0x7B,0x7A,0xBA,0xBE,
    305          0x7E,0x7F,0xBF,0x7D,0xBD,0xBC,0x7C,0xB4,0x74,0x75,0xB5,0x77,0xB7,
    306          0xB6,0x76,0x72,0xB2,0xB3,0x73,0xB1,0x71,0x70,0xB0,0x50,0x90,0x91,
    307          0x51,0x93,0x53,0x52,0x92,0x96,0x56,0x57,0x97,0x55,0x95,0x94,0x54,
    308          0x9C,0x5C,0x5D,0x9D,0x5F,0x9F,0x9E,0x5E,0x5A,0x9A,0x9B,0x5B,0x99,
    309          0x59,0x58,0x98,0x88,0x48,0x49,0x89,0x4B,0x8B,0x8A,0x4A,0x4E,0x8E,
    310          0x8F,0x4F,0x8D,0x4D,0x4C,0x8C,0x44,0x84,0x85,0x45,0x87,0x47,0x46,
    311          0x86,0x82,0x42,0x43,0x83,0x41,0x81,0x80,0x40
    312               };
    313          
    314          
    315          
    316          __no_init unsigned char simka; //dobavka
    317          unsigned char Fl_ch_sim;       //dobavka
    318          
    319          
    320           struct
    321           {
    322           unsigned char  clr_wdt     :1;
    323           unsigned char  fl_out      :1;
    324           unsigned char  from_timer0 :1;
    325           unsigned char  fl_main     :1;
    326           unsigned char  from_timer3 :1;
    327           unsigned char  from_timer2 :1; 
    328           unsigned char  from_adc :1;
    329           }fl_wdt;
    330          
    331          
    332          
    333          extern struct                   //структура, описывающая объект передачи по PPP 
    334            {  
    335            enum bool prozr;      //версия       
    336            enum t_version version;      //версия 
    337            enum t_type   type_pac;     //тип пакета
    338            unsigned int num_src; // номер отправителя
    339            unsigned int num_dst; // номер получателя
    340            unsigned char id_pac; // идентификатор пакета  
    341            unsigned char * p_opt; // //указатель буфера опций  
    342            unsigned char l_opt;// длина буфера опций   
    343            unsigned char kol_opt;// количество опций   
    344            unsigned char * p_data;  //указатель буфера данных
    345            unsigned int l_data;   // длина данных
    346            }Obj_ppp_tx;
    347          
    348          unsigned char buf_opt_tr[20]; 
    349          unsigned int prov_ozu;
    350          
    351          
    352          unsigned char buf_tx_232[VOL_TX_PPP];
    353          unsigned int count_tx_ppp,vol_tx_ppp;
    354          
    355           //структуры буферов на прием
    356            struct
    357           {
    358            unsigned char data[VOL_RX_PPP];//сам буфер
    359            unsigned int ln_data;  // длина данных
    360            enum bool rec; // пакет принят
    361            enum bool busy;// буфер занят
    362            enum bool check_busy;// проверка занят ли буфер
    363           }Buf1_rx_ppp,Buf2_rx_ppp; // 
    364           
    365          enum bool fl_cts_232_ignor;
    366          unsigned int cnt_cts_off;
    367          struct
    368           {
    369           unsigned char on: 1;
    370           } fl_cts_232;
    371          
    372          
    373          extern char ip_change;
    374          
    375          //unsigned char count_block_net,byte_state_net;
    376          
    377          //!!!!!!!!!!!!!!!!1параметры контроллера
    378          unsigned char ip_ls[4]; 
    379          unsigned int num_self,num_seq_cl,port_udp;
    380          
    381          
    382          
    383          struct                   //структура, описывающая объект передачи по PPP 
    384            {  
    385            enum bool link_no ; //связи нет
    386            enum bool link_waits; //ожидание квитка на контроль связи
    387            enum bool link;      //контроль связи    
    388            enum bool nat;      //контроль nat 
    389            unsigned int cnt_link; // счетчик
    390            unsigned int cnt_nat; // счетчик
    391            unsigned int vol_link; // значение  
    392            unsigned int vol_nat; // //значение 
    393            unsigned int vol_waits; // значение времени квитка ожидания контроля связи
    394            unsigned char cnt_try; // счетчик попыток получить квиток
    395            unsigned char vol_try; // rjkbxtcndj попыток получить квиток
    396            unsigned int vol_nat_r; // счетчик
    397            }Control;
    398          
    399          
    400           unsigned long int vol_cnt_no_link, vol_cnt_link_res, cnt_no_link, cnt_link_res;; //dobavka
    401          
    402          
    403            unsigned char Appl_RS485_1_data_buf[LN_BUF_485_1];// сам буфер
    404            unsigned char Appl_RS485_2_data_buf[LN_BUF_485_2];// сам буфер
    405            unsigned char Appl_RS232_2_data_buf[LN_BUF_232_2];// сам буфер
    406           
    407              struct                   //структура описывающая работу приложения "RS485_1" 
    408            {  
    409            enum bool fl_data_buf; //имеется ли забуферизированный пакет для передачи в порт RS485_1
    410            unsigned int ln_data_buf; // забуферизированная длина буфера
    411            unsigned int dst_buf; // забуферизированный получатель
    412            unsigned char cont_buf[8];// забуферизированный контекст
    413            unsigned char id_buf; // забуферизированный id
    414            unsigned int dst_tek;// текущий получатель
    415            unsigned char id_tek; // текущий id
    416            unsigned int pre_tx;//задержка перед передачей
    417            }Appl_RS485_1,Appl_RS485_2,Appl_RS232_2;
    418          
    419            
    420               struct
    421           {
    422           unsigned char mon1 : 1;
    423           unsigned char mon2 : 1;
    424           unsigned char mon232_2 : 1;
    425           } fl_tx485;
    426           
    427          extern struct
    428           {
    429           unsigned char busy : 1;
    430           unsigned char rec : 1;
    431           unsigned char tm_out : 1;
    432           unsigned char tx : 1;
    433           unsigned char over : 1;
    434           unsigned char buffed : 1;
    435           }fl_485_1,fl_485_2,fl_232_2;
    436          
    437           
    438          ///////////////////EEEEEEEEEEEEEEEEEEEEEEEEEEEEEEEEEEEEEEEE
    439          
    440            //!!!!!!!!!!!!!!!!!!!!!!!!!!!!!структуры приложения
    441           struct
    442          {
    443          unsigned char id;
    444          unsigned int p_in;// указатель свободной ячейки
    445          unsigned int p_out;
    446          unsigned int p_out_kv;
    447          unsigned int crc;
    448          unsigned int cnt_waits; // счетчик ожидания квитка
    449          unsigned char cnt_try; // счетчик попыток получить квиток 
    450          unsigned int l_data; // длина посылаемых данных
    451          unsigned char state;
    452          unsigned char event;
    453          unsigned int tm_vzat;
    454          unsigned int vol_tm_vzat;
    455          enum bool cntr_cl;
    456          enum bool en_cntr_cl;
    457          unsigned int cnt_cntr_cl;
    458          unsigned int vol_cntr_cl;
    459          }Appl_seq;
    460          
    461          unsigned char Appl_seq_des;
    462          
    463          unsigned char state_seq;
    464          
    465          unsigned char Appl_seq_buf[MAX_BUF_SEQ]; 
    466          
    467          
    468          struct
    469          {
    470          unsigned char en_tx :1;
    471          unsigned char kv_waits :1;
    472          unsigned char en_povtor:1;
    473          }fl_appl_seq;
    474          
    475          struct
    476          {
    477          unsigned char over_buf :1;
    478          unsigned char send_state :1;
    479          unsigned char enable:1; 
    480          }fl_appl_seq1; 
    481          
    482          extern struct
    483          {
    484           
    485            unsigned char tek_pin :1;
    486            unsigned char old_pin :1;
    487            unsigned char fl_ch_tc :1;
    488            unsigned char real_tc;
    489            unsigned int count_tc; 
    490            unsigned char type;
    491            unsigned char cnt_block_tc;
    492          }struct_tcc1,struct_tcc2;
    493          
    494          struct
    495          {
    496            unsigned char tc:1;
    497            unsigned char tc_old :1;
    498          }sv1,sv2;
    499            //EEEEEEEEEEEEEEEEEEEEEEEEEEEEEEEEEEEEEEEEE
    500          
    501          ///!!!!!!!!!!!!!!!!!!!!!!!!!!!!!!!!!!!для РРР
    502          extern  struct
    503           {
    504           unsigned char fl_7e : 1;//
    505           unsigned char fl_7d : 1;//
    506           unsigned char switcher : 1;//переключатель буферов
    507           } fl_rx_ppp;
    508          
    509          
    510          unsigned char layer_PPP;
    511          
    512          extern struct
    513           {
    514            unsigned char act_lcp_end :1;  
    515            unsigned char lcp_tm_out_en :1;
    516            unsigned char t0_pl:1;
    517            unsigned char t0_mi:1;
    518           }fl_lcp; 
    519           
    520          
    521          
    522          extern struct
    523           {
    524            unsigned char act_ipcp_end :1;  
    525            unsigned char ipcp_tm_out_en :1;
    526            unsigned char t0_pl:1;
    527            unsigned char t0_mi:1;
    528           }fl_ipcp; 
    529          
    530          
    531          extern struct
    532           {
    533            unsigned char act_ip_end :1; 
    534            unsigned char ip_tm_cntr_en :1; 
    535            unsigned char ip_tm_nat_en :1;
    536           }fl_ip;
    537          
    538          
    539          
    540            
    541          extern struct
    542           {
    543            unsigned char act_pap_end :1;  
    544            unsigned char pap_tm_out_en:1;
    545            unsigned char t0_pl:1;
    546            unsigned char t0_mi:1;  
    547            unsigned char up: 1; 
    548           }fl_pap; 
    549          
    550          
    551          struct
    552           {
    553            unsigned char add_byte :1; 
    554           }fl_reg3;
    555          
    556          
    557           extern struct
    558           {
    559            unsigned char up :1;  
    560            unsigned char down :1;
    561           }fl_lcp1; 
    562          
    563          
    564          extern struct
    565           {
    566            unsigned char up :1;  
    567            unsigned char down :1;
    568           }fl_ipcp1;
    569           
    570           extern struct
    571           {
    572            unsigned char nac_rej :1; // reject - 1 
    573           }fl_lcp2;
    574             
    575           extern struct
    576           {
    577            unsigned char nac_rej :1; // reject - 1 
    578           }fl_ipcp2;
    579           
    580          
    581          extern unsigned char pap_act_buf,PAP_state,PAP_event;
    582          extern unsigned char LCP_state, LCP_event,LCP_act_buf[LCP_ACT_VOL];
    583          extern unsigned char IPCP_state, IPCP_event,IPCP_act_buf[IPCP_ACT_VOL];
    584          extern unsigned char uk_in_act_LCP,uk_out_act_LCP,uk_in_act_IPCP,uk_out_act_IPCP;
    585          
    586          extern unsigned char cnt_rst_lcp,vol_cnt_rst_lcp;
    587          extern unsigned char cnt_rst_ipcp,vol_cnt_rst_ipcp;                       
    588          extern unsigned char cnt_rst_pap,vol_cnt_rst_pap;       
    589                                
    590                                  
    591          extern unsigned int cnt_lcp_tm_out,cnt_ipcp_tm_out;
    592          extern unsigned int cnt_pap_tm_out;
    593          extern unsigned long int cnt_ip_tm_cntr;
    594          extern unsigned char rcvd_protokol;
    595          
    596          extern unsigned char  i_scr_lcp,i_scan_lcp;
    597          extern unsigned char  i_scj_lcp;//идентификаторы lcp
    598          extern unsigned char  i_str_lcp,i_sta_lcp;
    599           
    600          extern unsigned char  i_scr_ipcp,i_scan_ipcp;
    601          extern unsigned char  i_scj_ipcp;//идентификаторы ipcp
    602          extern unsigned char  i_str_ipcp,i_sta_ipcp; 
    603           
    604            
    605          extern unsigned char  i_scr_pap;
    606           
    607           
    608           unsigned char ip_self[4];
    609            //EEEEEEEEEEEEEEEEEEEEEEEEEEEEEEEEEEEEEEEEE
    610          
    611           
    612           
    613           extern unsigned char Rs485_1_buf_rx_tx[MAX_BUF_RS485_1];
    614           extern unsigned char Rs485_2_buf_rx_tx[MAX_BUF_RS485_2];
    615           extern unsigned char Rs232_2_buf_rx_tx[MAX_BUF_RS232_2];
    616           
    617           
    618            extern struct                   //структура описывающая работу порта "RS485_1" 
    619            {
    620            unsigned int  cnt_bt_rx_tx;       // счетчик байтов на прием-передачу
    621            unsigned int  cnt_tm_tx_out;    // счетчик времени на удержание rts после передачи
    622            unsigned int  cnt_tm_pre_tx;    // счетчик времени на удержание rts перед передачи
    623            unsigned int  vol_tm_tx_out;    // предел счетчик времени на удержание rts после передачи
    624            unsigned int  cnt_tm_rx_out;   //  счетчик времени на определение конца приема
    625            unsigned int  vol_tm_rx_out;   //  предел времени на определение конца приема
    626            unsigned int  cnt_tm_out;     // счетчик времени на прием 
    627            unsigned int  vol_tm_out;     // предел счетчика времени на прием 
    628            unsigned char *p_data485;   // указатель на буфер передачи
    629            }Rs485_1,Rs485_2,Rs232_2;
    630           
    631           
    632          
    633           
    634           extern unsigned char state_led_md;
    635           
    636          
    637          unsigned long int summa_temperatura;         
    638          unsigned int temperatura;
    639          unsigned int count_summa_temperatura; 
    640           
    641           
    642          unsigned long int cnt_outcom,cnt_incom;
   \                     cnt_outcom:
   \   00000004                      DS 4
   \                     cnt_incom:
   \   00000008                      DS 4
   \                     prov_ozu:
   \   0000000C                      DS 2
   \                     temperatura:
   \   0000000E                      DS 2
    643          unsigned char time_cnt_ch_time;
   \                     time_cnt_ch_time:
   \   00000010                      DS 1
    644          struct
    645           {  
    646            unsigned char wr :1;
    647           }fl_truffic;
   \                     fl_truffic:
   \   00000011                      DS 1

   \                                 In segment NEAR_N, align 1, keep-with-next
    648          
    649          
    650          
    651           __no_init unsigned int crc_tii;
   \                     crc_tii:
   \   00000000                      DS 2
    652           __no_init unsigned int cnt_tii[8];
   \                     cnt_tii:
   \   00000002                      DS 16
   \                     simka:
   \   00000012                      DS 1

   \                                 In segment NEAR_Z, align 1, keep-with-next
   \   00000000                      REQUIRE `?<Segment init: NEAR_Z>`
   \                     Appl_RS485_1:
   \   00000000                      DS 19
   \                     Appl_RS485_2:
   \   00000013                      DS 19
   \                     cnt_no_link:
   \   00000026                      DS 4
   \                     cnt_link_res:
   \   0000002A                      DS 4
   \                     count_tx_ppp:
   \   0000002E                      DS 2
   \                     cnt_cts_off:
   \   00000030                      DS 2
   \                     state_modem:
   \   00000032                      DS 1
   \                     event_modem:
   \   00000033                      DS 1
   \                     command_AT:
   \   00000034                      DS 1
   \                     cnt_stm_tm1:
   \   00000035                      DS 1
   \                     cnt_stm_tm2:
   \   00000036                      DS 1
   \                     Fl_ch_sim:
   \   00000037                      DS 1
   \                     fl_wdt:
   \   00000038                      DS 1
   \                     fl_cts_232_ignor:
   \   00000039                      DS 1
   \                     fl_tx485:
   \   0000003A                      DS 1
   \                     fl_appl_seq:
   \   0000003B                      DS 1
   \                     fl_appl_seq1:
   \   0000003C                      DS 1
   \                     layer_PPP:
   \   0000003D                      DS 1
    653          
    654           
    655          unsigned char sel_modul,count_ppp_down;
   \                     count_ppp_down:
   \   0000003E                      DS 1

   \                                 In segment NEAR_Z, align 1, keep-with-next
   \   00000000                      REQUIRE `?<Segment init: NEAR_Z>`
   \                     cnt_key_off:
   \   00000000                      DS 2

   \                                 In segment NEAR_Z, align 1, keep-with-next
   \   00000000                      REQUIRE `?<Segment init: NEAR_Z>`
   \                     Appl_RS232_2:
   \   00000000                      DS 19
   \                     buf_opt_tr:
   \   00000013                      DS 20

   \                                 In segment NEAR_Z, align 1, keep-with-next
   \   00000000                      REQUIRE `?<Segment init: NEAR_Z>`
   \                     buf_tx_232:
   \   00000000                      DS 1100

   \                                 In segment NEAR_Z, align 1, keep-with-next
   \   00000000                      REQUIRE `?<Segment init: NEAR_Z>`
   \                     ip_self:
   \   00000000                      DS 4
   \                     vol_tx_ppp:
   \   00000004                      DS 2
   \                     fl_cts_232:
   \   00000006                      DS 1
   \                     fl_reg3:
   \   00000007                      DS 1

   \                                 In segment NEAR_Z, align 1, keep-with-next
   \   00000000                      REQUIRE `?<Segment init: NEAR_Z>`
   \                     Buf1_rx_ppp:
   \   00000000                      DS 335

   \                                 In segment NEAR_Z, align 1, keep-with-next
   \   00000000                      REQUIRE `?<Segment init: NEAR_Z>`
   \                     Buf2_rx_ppp:
   \   00000000                      DS 335

   \                                 In segment NEAR_Z, align 1, keep-with-next
   \   00000000                      REQUIRE `?<Segment init: NEAR_Z>`
   \                     Appl_seq:
   \   00000000                      DS 26
   \                     Control:
   \   0000001A                      DS 18
   \                     ip_ls:
   \   0000002C                      DS 4
   \                     vol_cnt_no_link:
   \   00000030                      DS 4
   \                     vol_cnt_link_res:
   \   00000034                      DS 4
   \                     num_self:
   \   00000038                      DS 2
   \                     num_seq_cl:
   \   0000003A                      DS 2
   \                     port_udp:
   \   0000003C                      DS 2
   \                     Appl_seq_des:
   \   0000003E                      DS 1

   \                                 In segment NEAR_Z, align 1, keep-with-next
   \   00000000                      REQUIRE `?<Segment init: NEAR_Z>`
   \                     Appl_RS485_1_data_buf:
   \   00000000                      DS 204

   \                                 In segment NEAR_Z, align 1, keep-with-next
   \   00000000                      REQUIRE `?<Segment init: NEAR_Z>`
   \                     Appl_RS485_2_data_buf:
   \   00000000                      DS 204

   \                                 In segment NEAR_Z, align 1, keep-with-next
   \   00000000                      REQUIRE `?<Segment init: NEAR_Z>`
   \                     Appl_RS232_2_data_buf:
   \   00000000                      DS 200

   \                                 In segment NEAR_Z, align 1, keep-with-next
   \   00000000                      REQUIRE `?<Segment init: NEAR_Z>`
   \                     state_seq:
   \   00000000                      DS 1
   \                     sv1:
   \   00000001                      DS 1
   \                     sv2:
   \   00000002                      DS 1
   \                     sel_modul:
   \   00000003                      DS 1

   \                                 In segment NEAR_Z, align 1, keep-with-next
   \   00000000                      REQUIRE `?<Segment init: NEAR_Z>`
   \                     Appl_seq_buf:
   \   00000000                      DS 200

   \                                 In segment NEAR_Z, align 1, keep-with-next
   \   00000000                      REQUIRE `?<Segment init: NEAR_Z>`
   \                     summa_temperatura:
   \   00000000                      DS 4

   \                                 In segment NEAR_Z, align 1, keep-with-next
   \   00000000                      REQUIRE `?<Segment init: NEAR_Z>`
   \                     count_summa_temperatura:
   \   00000000                      DS 2
    656           
    657          

   \                                 In segment FARCODE, align 2, keep-with-next
    658          void lock_it(void)
   \                     lock_it:
   \                     ??lock_it_0:
    659                          {
    660                          do
    661                              {   
    662                         
    663                                SREG=0;        
   \   00000000   E000               LDI     R16, 0
   \   00000002   BF0F               OUT     0x3F, R16
    664                                WDTCSR=0x18;     
   \   00000004   E108               LDI     R16, 24
   \   00000006   93000060           STS     96, R16
    665                                WDTCSR=0x0f;     
   \   0000000A   E00F               LDI     R16, 15
   \   0000000C   93000060           STS     96, R16
    666                               } while(1);
   \   00000010   CFF7               RJMP    ??lock_it_0
    667                              }      
    668          

   \                                 In segment FARCODE, align 2, keep-with-next
    669          void delay(unsigned int period)
   \                     delay:
   \                     ??delay_0:
    670            {
    671            bad:
    672            period--;
   \   00000000   5001               SUBI    R16, 1
   \   00000002   4010               SBCI    R17, 0
    673            if(period !=0) goto bad;
   \   00000004   2F20               MOV     R18, R16
   \   00000006   2B21               OR      R18, R17
   \   00000008   F7D9               BRNE    ??delay_0
    674            }
   \   0000000A   9508               RET
    675          
    676          

   \                                 In segment FARCODE, align 2, keep-with-next
    677          void long_delay(unsigned long int period)
   \                     long_delay:
   \                     ??long_delay_0:
    678          {
    679            bad1:
    680            period--;
   \   00000000   5001               SUBI    R16, 1
   \   00000002   4010               SBCI    R17, 0
   \   00000004   4020               SBCI    R18, 0
   \   00000006   4030               SBCI    R19, 0
    681            __watchdog_reset();
   \   00000008   95A8               WDR
    682            if(period !=0) goto bad1;
   \   0000000A   2F40               MOV     R20, R16
   \   0000000C   2B41               OR      R20, R17
   \   0000000E   2B42               OR      R20, R18
   \   00000010   2B43               OR      R20, R19
   \   00000012   F7B1               BRNE    ??long_delay_0
    683          }
   \   00000014   9508               RET
    684          
    685          

   \                                 In segment FARCODE, align 2, keep-with-next
    686          void delay_on_contr(void)
   \                     delay_on_contr:
    687          {
   \   00000000   938A               ST      -Y, R24
    688          unsigned char delay_count;
    689          
    690          delay_count=18;
    691          
    692          S1_RD;
   \   00000002   9AA0               SBI     0x14, 0x00
   \   00000004   98A1               CBI     0x14, 0x01
    693          S2_RD;
   \   00000006   9A40               SBI     0x08, 0x00
   \   00000008   9841               CBI     0x08, 0x01
    694          S3_RD;
   \   0000000A   9A44               SBI     0x08, 0x04
   \   0000000C   9845               CBI     0x08, 0x05
    695          S4_RD;
   \   0000000E   9A42               SBI     0x08, 0x02
   \   00000010   9843               CBI     0x08, 0x03
    696          S5_RD;
   \   00000012   9A46               SBI     0x08, 0x06
   \   00000014   9847               CBI     0x08, 0x07
   \   00000016   E182               LDI     R24, 18
    697          
    698                              
    699                                do
    700                                    {   
    701                                        __watchdog_reset();
   \                     ??delay_on_contr_0:
   \   00000018   95A8               WDR
    702                                        delay(60000);
   \   0000001A   ....               RCALL   ?Subroutine19
    703                                        delay(60000);
    704                                        delay(60000);
   \                     ??CrossCallReturnLabel_702:
   \   0000001C   ....               RCALL   ?Subroutine19
    705                                        delay(60000);
    706                                        delay(60000);
   \                     ??CrossCallReturnLabel_701:
   \   0000001E   E600               LDI     R16, 96
   \   00000020   EE1A               LDI     R17, 234
   \   00000022   ....               RCALL   ?Subroutine285
    707                                        __watchdog_reset();
   \                     ??CrossCallReturnLabel_698:
   \   00000024   95A8               WDR
    708                                        S1_CH;
   \   00000026   E001               LDI     R16, 1
   \   00000028   B314               IN      R17, 0x14
   \   0000002A   2710               EOR     R17, R16
   \   0000002C   BB14               OUT     0x14, R17
   \   0000002E   E002               LDI     R16, 2
   \   00000030   B314               IN      R17, 0x14
   \   00000032   2710               EOR     R17, R16
   \   00000034   BB14               OUT     0x14, R17
    709                                        S2_CH;
   \   00000036   E001               LDI     R16, 1
   \   00000038   ....               RCALL   ?Subroutine22
   \                     ??CrossCallReturnLabel_28:
   \   0000003A   E002               LDI     R16, 2
   \   0000003C   ....               RCALL   ?Subroutine22
    710                                        S3_CH;
   \                     ??CrossCallReturnLabel_29:
   \   0000003E   E100               LDI     R16, 16
   \   00000040   ....               RCALL   ?Subroutine22
   \                     ??CrossCallReturnLabel_30:
   \   00000042   E200               LDI     R16, 32
   \   00000044   ....               RCALL   ?Subroutine22
    711                                        S4_CH;
   \                     ??CrossCallReturnLabel_31:
   \   00000046   E004               LDI     R16, 4
   \   00000048   ....               RCALL   ?Subroutine22
   \                     ??CrossCallReturnLabel_32:
   \   0000004A   E008               LDI     R16, 8
   \   0000004C   ....               RCALL   ?Subroutine22
    712                                        S5_CH;
   \                     ??CrossCallReturnLabel_33:
   \   0000004E   E400               LDI     R16, 64
   \   00000050   ....               RCALL   ?Subroutine22
   \                     ??CrossCallReturnLabel_34:
   \   00000052   E800               LDI     R16, 128
   \   00000054   ....               RCALL   ?Subroutine22
    713                                        delay_count--;
    714                                     } while(delay_count!=0);
   \                     ??CrossCallReturnLabel_35:
   \   00000056   958A               DEC     R24
   \   00000058   F6F9               BRNE    ??delay_on_contr_0
    715          
    716          S1_OFF;
   \   0000005A   98A0               CBI     0x14, 0x00
   \   0000005C   98A1               CBI     0x14, 0x01
    717          S2_OFF;
   \   0000005E   9840               CBI     0x08, 0x00
   \   00000060   9841               CBI     0x08, 0x01
    718          S3_OFF;
   \   00000062   ....               RCALL   ?Subroutine16
    719          S4_OFF;
    720          S5_OFF;
    721          }
   \                     ??CrossCallReturnLabel_20:
   \   00000064   9189               LD      R24, Y+
   \   00000066   9508               RET

   \                                 In segment FARCODE, align 2, keep-with-next
   \                     ?Subroutine22:
   \   00000000   B118               IN      R17, 0x08
   \   00000002   2710               EOR     R17, R16
   \   00000004   B918               OUT     0x08, R17
   \   00000006   9508               RET

   \                                 In segment FARCODE, align 2, keep-with-next
   \                     ?Subroutine19:
   \   00000000   E600               LDI     R16, 96
   \   00000002   EE1A               LDI     R17, 234
   \   00000004   ....               RCALL   delay
   \   00000006   E600               LDI     R16, 96
   \   00000008   EE1A               LDI     R17, 234
   \   0000000A                      REQUIRE ?Subroutine285
   \   0000000A                      ;               // Fall through to label ?Subroutine285

   \                                 In segment FARCODE, align 2, keep-with-next
   \                     ?Subroutine285:
   \   00000000   ....               RJMP    delay

   \                                 In segment FARCODE, align 2, keep-with-next
   \                     ?Subroutine16:
   \   00000000   9844               CBI     0x08, 0x04
   \   00000002   9845               CBI     0x08, 0x05
   \   00000004   9842               CBI     0x08, 0x02
   \   00000006   9843               CBI     0x08, 0x03
   \   00000008   9846               CBI     0x08, 0x06
   \   0000000A   9847               CBI     0x08, 0x07
   \   0000000C   9508               RET
    722          

   \                                 In segment FARCODE, align 2, keep-with-next
    723          unsigned char crc_485(unsigned char num, unsigned char *p)
   \                     crc_485:
    724            {
    725            char i,ds_crc1;
    726              ds_crc1=0;
   \   00000000   E060               LDI     R22, 0
    727                         for (i=0;i<num;i++)
   \   00000002   E010               LDI     R17, 0
   \   00000004   C00C               RJMP    ??crc_485_0
    728                                          {
    729                                          ds_crc1=tab_crc[ds_crc1 ^ *p];
   \                     ??crc_485_1:
   \   00000006   ....               LDI     R20, LOW(tab_crc)
   \   00000008   ....               LDI     R21, (tab_crc) >> 8
   \   0000000A   01F9               MOVW    R31:R30, R19:R18
   \   0000000C   9001               LD      R0, Z+
   \   0000000E   019F               MOVW    R19:R18, R31:R30
   \   00000010   2411               CLR     R1
   \   00000012   2606               EOR     R0, R22
   \   00000014   0D40               ADD     R20, R0
   \   00000016   1D51               ADC     R21, R1
   \   00000018   01FA               MOVW    R31:R30, R21:R20
   \   0000001A   9164               LPM     R22, Z
    730                                          p++;
    731                                          //ds_crc=tuta();
    732                                           }
   \   0000001C   9513               INC     R17
   \                     ??crc_485_0:
   \   0000001E   1710               CP      R17, R16
   \   00000020   F390               BRCS    ??crc_485_1
    733            return(ds_crc1);
   \   00000022   2F06               MOV     R16, R22
   \   00000024   9508               RET
    734                   }
    735          
    736          

   \                                 In segment FARCODE, align 2, keep-with-next
    737           unsigned int crc_m1(unsigned char *ka,unsigned int num,unsigned int crc)   
   \                     crc_m1:
    738          
    739               {
   \   00000000   2F79               MOV     R23, R25
   \   00000002   2E28               MOV     R2, R24
    740                unsigned char uchCRCHi,uIndex;
    741                unsigned char uchCRCLo;
    742                unsigned int ii;      
    743                uchCRCLo=crc;  
   \   00000004   2F64               MOV     R22, R20
    744                uchCRCHi=crc>>8;
   \   00000006   2F45               MOV     R20, R21
    745             
    746                
    747                             for (ii=0;ii<num;ii++)
   \   00000008   ........           CALL    ??Subroutine67_0
   \                     ??CrossCallReturnLabel_66:
   \   0000000C   C00D               RJMP    ??crc_m1_0
    748                            {
    749              
    750                 uIndex = uchCRCHi ^ *ka++;
   \                     ??crc_m1_1:
   \   0000000E   01F8               MOVW    R31:R30, R17:R16
   \   00000010   9001               LD      R0, Z+
   \   00000012   018F               MOVW    R17:R16, R31:R30
   \   00000014   2604               EOR     R0, R20
    751          
    752                 uchCRCHi = uchCRCLo ^ auchCRCHi[uIndex];
   \   00000016   2411               CLR     R1
   \   00000018   ....               RCALL   ??Subroutine81_0
   \                     ??CrossCallReturnLabel_82:
   \   0000001A   ....               RCALL   ?Subroutine83
   \                     ??CrossCallReturnLabel_95:
   \   0000001C   9144               LPM     R20, Z
   \   0000001E   2746               EOR     R20, R22
    753          
    754                 uchCRCLo = auchCRCLo[uIndex];
   \   00000020   ....               RCALL   ?Subroutine88
   \                     ??CrossCallReturnLabel_105:
   \   00000022   ....               RCALL   ?Subroutine83
   \                     ??CrossCallReturnLabel_96:
   \   00000024   9164               LPM     R22, Z
    755                 
    756                }
   \   00000026   9601               ADIW    R25:R24, 1
   \                     ??crc_m1_0:
   \   00000028   1782               CP      R24, R18
   \   0000002A   0793               CPC     R25, R19
   \   0000002C   F380               BRCS    ??crc_m1_1
    757          
    758               return (uchCRCHi << 8  | uchCRCLo);
   \   0000002E   2F06               MOV     R16, R22
   \   00000030   2F14               MOV     R17, R20
   \   00000032   2D82               MOV     R24, R2
   \   00000034   2F97               MOV     R25, R23
   \   00000036   9508               RET
    759          
    760               }

   \                                 In segment FARCODE, align 2, keep-with-next
   \                     ?Subroutine83:
   \   00000000   0DE0               ADD     R30, R0
   \   00000002   1DF1               ADC     R31, R1
   \   00000004   9508               RET

   \                                 In segment FARCODE, align 2, keep-with-next
   \                     ?Subroutine81:
   \   00000000   ....               LDI     R30, LOW(auchCRCLo)
   \   00000002   ....               LDI     R31, (auchCRCLo) >> 8
   \   00000004   2704               EOR     R16, R20
   \   00000006   0FE0               ADD     R30, R16
   \   00000008   1FF7               ADC     R31, R23
   \   0000000A   9104               LPM     R16, Z
   \                     ??Subroutine81_0:
   \   0000000C   ....               LDI     R30, LOW(auchCRCHi)
   \   0000000E   ....               LDI     R31, (auchCRCHi) >> 8
   \   00000010   9508               RET

   \                                 In segment FARCODE, align 2, keep-with-next
   \                     ?Subroutine88:
   \   00000000   ....               LDI     R30, LOW(auchCRCLo)
   \   00000002   ....               LDI     R31, (auchCRCLo) >> 8
   \   00000004   9508               RET

   \                                 In segment FARCODE, align 2, keep-with-next
   \                     ?Subroutine67:
   \   00000000   01F8               MOVW    R31:R30, R17:R16
   \   00000002   8320               ST      Z, R18
   \   00000004   8331               STD     Z+1, R19
   \                     ??Subroutine67_0:
   \   00000006   E080               LDI     R24, 0
   \   00000008   E090               LDI     R25, 0
   \   0000000A   9508               RET
    761          
    762          
    763          

   \                                 In segment FARCODE, align 2, keep-with-next
    764          unsigned char check_cts(void)
   \                     check_cts:
    765          { 
    766           // if (PINE & CTS0)
    767            if ((PINE & CTS0)==0)     
   \   00000000   9964               SBIC    0x0C, 0x04
   \   00000002   C007               RJMP    ??check_cts_0
    768            {
    769            fl_cts_232.on=1;
   \   00000004   ....               LDI     R30, LOW(ip_self)
   \   00000006   ....               LDI     R31, (ip_self) >> 8
   \   00000008   8106               LDD     R16, Z+6
   \   0000000A   6001               ORI     R16, 0x01
   \   0000000C   8306               STD     Z+6, R16
    770            return(1);
   \   0000000E   E001               LDI     R16, 1
   \   00000010   9508               RET
    771            } //proverka CTS
    772            return(0);  
   \                     ??check_cts_0:
   \   00000012   ........           JMP     ?Subroutine271
    773          }  

   \                                 In segment FARCODE, align 2, keep-with-next
   \                     ?Subroutine271:
   \   00000000   E000               LDI     R16, 0
   \   00000002   9508               RET
    774          
    775          
    776          

   \                                 In segment FARCODE, align 2, keep-with-next
    777          void s_port(unsigned char ch)
   \                     s_port:
   \                     ??s_port_0:
    778                {                             
    779                wawa: 
    780                if((UCSR2A & 0x20) ==0) goto wawa;
   \   00000000   911000D0           LDS     R17, 208
   \   00000004   FF15               SBRS    R17, 5
   \   00000006   CFFC               RJMP    ??s_port_0
    781                UDR2=ch;
   \   00000008   930000D6           STS     214, R16
    782                }
   \   0000000C   9508               RET
    783          
    784          

   \                                 In segment FARCODE, align 2, keep-with-next
    785           void    mov_s (char size, char __flash *p)
   \                     mov_s:
    786                {     
   \   00000000   ........           CALL    ?PROLOGUE3_L09
   \   00000004   2FA0               MOV     R26, R16
   \   00000006   01C9               MOVW    R25:R24, R19:R18
   \   00000008   C004               RJMP    ??CrossCallReturnLabel_744
    787                 while(size--) s_port(*p++);
   \                     ??mov_s_0:
   \   0000000A   01FC               MOVW    R31:R30, R25:R24
   \   0000000C   9105               LPM     R16, Z+
   \   0000000E   01CF               MOVW    R25:R24, R31:R30
   \   00000010   ....               RCALL   ?Subroutine287
   \                     ??CrossCallReturnLabel_744:
   \   00000012   2F0A               MOV     R16, R26
   \   00000014   95AA               DEC     R26
   \   00000016   2300               TST     R16
   \   00000018   F7C1               BRNE    ??mov_s_0
    788                } 
   \   0000001A   E0E3               LDI     R30, 3
   \   0000001C   ........           JMP     ?EPILOGUE_B3_L09

   \                                 In segment FARCODE, align 2, keep-with-next
   \                     ?Subroutine287:
   \   00000000   ....               RJMP    s_port
    789           
    790          

   \                                 In segment FARCODE, align 2, keep-with-next
    791           void    mov_buf (char size,unsigned char * p)
   \                     mov_buf:
    792                {     
   \   00000000   ........           CALL    ?Subroutine101
   \                     ??CrossCallReturnLabel_116:
   \   00000004   2F80               MOV     R24, R16
   \   00000006   01D9               MOVW    R27:R26, R19:R18
   \   00000008   C002               RJMP    ??CrossCallReturnLabel_743
    793                 while(size--) s_port(*p++);
   \                     ??mov_buf_0:
   \   0000000A   910D               LD      R16, X+
   \   0000000C   ....               RCALL   ?Subroutine287
   \                     ??CrossCallReturnLabel_743:
   \   0000000E   2F08               MOV     R16, R24
   \   00000010   958A               DEC     R24
   \   00000012   2300               TST     R16
   \   00000014   F7D1               BRNE    ??mov_buf_0
    794                }
   \   00000016   ........           JMP     ?Subroutine286

   \                                 In segment FARCODE, align 2, keep-with-next
   \                     ?Subroutine286:
   \   00000000   E0E4               LDI     R30, 4
   \   00000002   ........           JMP     ?EPILOGUE_B4_L09

   \                                 In segment FARCODE, align 2, keep-with-next
   \                     ?Subroutine101:
   \   00000000   ........           JMP     ?PROLOGUE4_L09
    795          
    796          

   \                                 In segment FARCODE, align 2, keep-with-next
    797          void    mov_lf (void)
   \                     mov_lf:
    798               {     
    799               s_port(0xd);
   \   00000000   ........           CALL    ?Subroutine94
    800               s_port(0xa);
   \                     ??CrossCallReturnLabel_746:
   \   00000004   E00A               LDI     R16, 10
   \   00000006                      REQUIRE ?Subroutine287
   \   00000006                      ;               // Fall through to label ?Subroutine287
    801               }      

   \                                 In segment FARCODE, align 2, keep-with-next
   \                     ?Subroutine301:
   \   00000000   ........           JMP     ?Subroutine287

   \                                 In segment FARCODE, align 2, keep-with-next
   \                     ?Subroutine94:
   \   00000000   E00D               LDI     R16, 13
   \   00000002   ....               RJMP    ?Subroutine301
    802          
    803          

   \                                 In segment FARCODE, align 2, keep-with-next
    804          unsigned int func_crc_tii(void)
   \                     func_crc_tii:
    805          {
    806            unsigned char uchCRCHi;
    807            unsigned char uchCRCLo;
    808            unsigned char temp,i;
    809            
    810            
    811            
    812            uchCRCLo=0xff;  
   \   00000000   EF0F               LDI     R16, 255
    813            uchCRCHi=0xff;
   \   00000002   EF2F               LDI     R18, 255
    814            
    815            for(i=0;i<8;i++)
   \   00000004   E010               LDI     R17, 0
   \                     ??func_crc_tii_0:
   \   00000006   ....               LDI     R30, LOW(crc_tii)
   \   00000008   ....               LDI     R31, (crc_tii) >> 8
   \   0000000A   E032               LDI     R19, 2
   \   0000000C   9F13               MUL     R17, R19
   \   0000000E   ....               RCALL   ?Subroutine83
   \                     ??CrossCallReturnLabel_97:
   \   00000010   8162               LDD     R22, Z+2
   \   00000012   8143               LDD     R20, Z+3
    816            {  
    817            temp=cnt_tii[i];
    818            uchCRCHi = uchCRCLo ^ auchCRCHi[uchCRCHi ^ temp];
   \   00000014   E070               LDI     R23, 0
   \   00000016   ....               RCALL   ?Subroutine80
   \                     ??CrossCallReturnLabel_497:
   \   00000018   ....               RCALL   ?Subroutine84
    819            uchCRCLo = auchCRCLo[uchCRCHi ^ temp];
    820            temp=cnt_tii[i]>>8;
   \                     ??CrossCallReturnLabel_99:
   \   0000001A   2F64               MOV     R22, R20
    821            uchCRCHi = uchCRCLo ^ auchCRCHi[uchCRCHi ^ temp];
   \   0000001C   ....               RCALL   ??Subroutine81_0
   \                     ??CrossCallReturnLabel_83:
   \   0000001E   2742               EOR     R20, R18
   \   00000020   0FE4               ADD     R30, R20
   \   00000022   ....               RCALL   ?Subroutine260
   \                     ??CrossCallReturnLabel_492:
   \   00000024   ....               RCALL   ?Subroutine84
    822            uchCRCLo = auchCRCLo[uchCRCHi ^ temp];
    823            }
   \                     ??CrossCallReturnLabel_100:
   \   00000026   9513               INC     R17
   \   00000028   3018               CPI     R17, 8
   \   0000002A   F368               BRCS    ??func_crc_tii_0
    824          return (uchCRCHi << 8  | uchCRCLo);  
   \   0000002C   2F12               MOV     R17, R18
   \   0000002E   9508               RET
    825            
    826          }

   \                                 In segment FARCODE, align 2, keep-with-next
   \                     ?Subroutine84:
   \   00000000   2720               EOR     R18, R16
   \   00000002   ....               LDI     R30, LOW(auchCRCLo)
   \   00000004   ....               LDI     R31, (auchCRCLo) >> 8
   \   00000006   2762               EOR     R22, R18
   \   00000008   0FE6               ADD     R30, R22
   \   0000000A   1FF7               ADC     R31, R23
   \   0000000C   9104               LPM     R16, Z
   \   0000000E   9508               RET

   \                                 In segment FARCODE, align 2, keep-with-next
   \                     ?Subroutine260:
   \   00000000   1FF7               ADC     R31, R23
   \   00000002   9124               LPM     R18, Z
   \   00000004   9508               RET

   \                                 In segment FARCODE, align 2, keep-with-next
   \                     ?Subroutine80:
   \   00000000   ....               LDI     R30, LOW(auchCRCHi)
   \   00000002   ....               LDI     R31, (auchCRCHi) >> 8
   \   00000004   2726               EOR     R18, R22
   \   00000006   0FE2               ADD     R30, R18
   \   00000008   ....               RJMP    ?Subroutine260
    827          
    828          
    829          

   \                                 In segment FARCODE, align 2, keep-with-next
    830          unsigned int crc_ozu(void)
   \                     crc_ozu:
    831             
    832          
    833               {
   \   00000000   2E3B               MOV     R3, R27
   \   00000002   2F5A               MOV     R21, R26
    834                unsigned char uchCRCHi;
    835                unsigned char uchCRCLo;
    836                unsigned char temp;
    837                
    838                uchCRCLo=0xff;  
    839                uchCRCHi=0xff;
    840                   
    841                uchCRCHi = uchCRCLo ^ auchCRCHi[uchCRCHi ^ ip_ls[0]];
   \   00000004   ....               LDI     R26, LOW(Appl_seq)
   \   00000006   ....               LDI     R27, (Appl_seq) >> 8
   \   00000008   01FD               MOVW    R31:R30, R27:R26
   \   0000000A   A564               LDD     R22, Z+44
   \   0000000C   E070               LDI     R23, 0
   \   0000000E   ....               RCALL   ??Subroutine81_0
   \                     ??CrossCallReturnLabel_84:
   \   00000010   EF0F               LDI     R16, 255
   \   00000012   2706               EOR     R16, R22
   \   00000014   0FE0               ADD     R30, R16
   \   00000016   1FF7               ADC     R31, R23
   \   00000018   9104               LPM     R16, Z
   \   0000001A   EF4F               LDI     R20, 255
   \   0000001C   2740               EOR     R20, R16
   \   0000001E   01FD               MOVW    R31:R30, R27:R26
   \   00000020   A525               LDD     R18, Z+45
   \   00000022   ....               RCALL   ?Subroutine86
   \                     ??CrossCallReturnLabel_101:
   \   00000024   ....               RCALL   ?Subroutine78
   \                     ??CrossCallReturnLabel_441:
   \   00000026   A506               LDD     R16, Z+46
   \   00000028   ....               RCALL   ?Subroutine79
   \                     ??CrossCallReturnLabel_577:
   \   0000002A   01FD               MOVW    R31:R30, R27:R26
   \   0000002C   A567               LDD     R22, Z+47
   \   0000002E   ....               RCALL   ?Subroutine81
   \                     ??CrossCallReturnLabel_85:
   \   00000030   2F26               MOV     R18, R22
   \   00000032   2724               EOR     R18, R20
   \   00000034   0FE2               ADD     R30, R18
   \   00000036   ....               RCALL   ?Subroutine250
    842                uchCRCLo = auchCRCLo[uchCRCHi ^ ip_ls[0]];
    843                uchCRCHi = uchCRCLo ^ auchCRCHi[uchCRCHi ^ ip_ls[1]];
    844                uchCRCLo = auchCRCLo[uchCRCHi ^ ip_ls[1]];
    845                uchCRCHi = uchCRCLo ^ auchCRCHi[uchCRCHi ^ ip_ls[2]];
    846                uchCRCLo = auchCRCLo[uchCRCHi ^ ip_ls[2]];
    847                uchCRCHi = uchCRCLo ^ auchCRCHi[uchCRCHi ^ ip_ls[3]];
    848                uchCRCLo = auchCRCLo[uchCRCHi ^ ip_ls[3]];
    849                
    850                temp=port_udp;
   \                     ??CrossCallReturnLabel_430:
   \   00000038   96FC               ADIW    R31:R30, 60
   \   0000003A   8100               LD      R16, Z
   \   0000003C   8121               LDD     R18, Z+1
    851                uchCRCHi = uchCRCLo ^ auchCRCHi[uchCRCHi ^ temp];
   \   0000003E   ....               RCALL   ?Subroutine86
   \                     ??CrossCallReturnLabel_102:
   \   00000040   1FF7               ADC     R31, R23
   \   00000042   9164               LPM     R22, Z
   \   00000044   ....               RCALL   ?Subroutine77
   \                     ??CrossCallReturnLabel_488:
   \   00000046   2764               EOR     R22, R20
    852                uchCRCLo = auchCRCLo[uchCRCHi ^ temp];
   \   00000048   ....               RCALL   ?Subroutine88
   \                     ??CrossCallReturnLabel_106:
   \   0000004A   2706               EOR     R16, R22
   \   0000004C   0FE0               ADD     R30, R16
   \   0000004E   ....               RCALL   ?Subroutine259
    853                temp=port_udp>>8;
   \                     ??CrossCallReturnLabel_486:
   \   00000050   2F02               MOV     R16, R18
    854                uchCRCHi = uchCRCLo ^ auchCRCHi[uchCRCHi ^ temp];
   \   00000052   ....               RCALL   ?Subroutine80
   \                     ??CrossCallReturnLabel_498:
   \   00000054   ....               RCALL   ?Subroutine85
    855                uchCRCLo = auchCRCLo[uchCRCHi ^ temp];
    856                
    857                temp=num_self;
   \                     ??CrossCallReturnLabel_484:
   \   00000056   ........           CALL    ??Subroutine109_0
   \                     ??CrossCallReturnLabel_134:
   \   0000005A   AD61               LDD     R22, Z+57
    858                uchCRCHi = uchCRCLo ^ auchCRCHi[uchCRCHi ^ temp];
   \   0000005C   ....               RCALL   ?Subroutine61
    859                uchCRCLo = auchCRCLo[uchCRCHi ^ temp];
    860                temp=num_self>>8;
    861                uchCRCHi = uchCRCLo ^ auchCRCHi[uchCRCHi ^ temp];
    862                uchCRCLo = auchCRCLo[uchCRCHi ^ temp];
    863                
    864                temp=Control.vol_nat;
   \                     ??CrossCallReturnLabel_422:
   \   0000005E   A104               LDD     R16, Z+36
   \   00000060   A165               LDD     R22, Z+37
    865                uchCRCHi = uchCRCLo ^ auchCRCHi[uchCRCHi ^ temp];
   \   00000062   ....               RCALL   ?Subroutine61
    866                uchCRCLo = auchCRCLo[uchCRCHi ^ temp];
    867                temp=Control.vol_nat>>8;
    868                uchCRCHi = uchCRCLo ^ auchCRCHi[uchCRCHi ^ temp];
    869                uchCRCLo = auchCRCLo[uchCRCHi ^ temp];
    870                
    871                temp=Control.vol_nat_r;
   \                     ??CrossCallReturnLabel_423:
   \   00000064   A502               LDD     R16, Z+42
   \   00000066   A563               LDD     R22, Z+43
    872                uchCRCHi = uchCRCLo ^ auchCRCHi[uchCRCHi ^ temp];
   \   00000068   ....               RCALL   ?Subroutine61
    873                uchCRCLo = auchCRCLo[uchCRCHi ^ temp];
    874                temp=Control.vol_nat_r>>8;
    875                uchCRCHi = uchCRCLo ^ auchCRCHi[uchCRCHi ^ temp];
    876                uchCRCLo = auchCRCLo[uchCRCHi ^ temp];
    877                
    878                temp=Control.vol_link;
   \                     ??CrossCallReturnLabel_424:
   \   0000006A   A102               LDD     R16, Z+34
   \   0000006C   A163               LDD     R22, Z+35
    879                uchCRCHi = uchCRCLo ^ auchCRCHi[uchCRCHi ^ temp];
   \   0000006E   ....               RCALL   ?Subroutine61
    880                uchCRCLo = auchCRCLo[uchCRCHi ^ temp];
    881                temp=Control.vol_link>>8;
    882                uchCRCHi = uchCRCLo ^ auchCRCHi[uchCRCHi ^ temp];
    883                uchCRCLo = auchCRCLo[uchCRCHi ^ temp];
    884                
    885                temp=Control.vol_waits;
   \                     ??CrossCallReturnLabel_425:
   \   00000070   A106               LDD     R16, Z+38
   \   00000072   A167               LDD     R22, Z+39
    886                uchCRCHi = uchCRCLo ^ auchCRCHi[uchCRCHi ^ temp];
   \   00000074   ....               RCALL   ?Subroutine61
    887                uchCRCLo = auchCRCLo[uchCRCHi ^ temp];
    888                temp=Control.vol_waits>>8;
    889                uchCRCHi = uchCRCLo ^ auchCRCHi[uchCRCHi ^ temp];
    890                uchCRCLo = auchCRCLo[uchCRCHi ^ temp];
    891                
    892                temp=Control.vol_try;
   \                     ??CrossCallReturnLabel_426:
   \   00000076   A501               LDD     R16, Z+41
    893                uchCRCHi = uchCRCLo ^ auchCRCHi[uchCRCHi ^ temp];
   \   00000078   ....               RCALL   ??Subroutine81_0
   \                     ??CrossCallReturnLabel_86:
   \   0000007A   2F60               MOV     R22, R16
   \   0000007C   ....               RCALL   ?Subroutine106
   \                     ??CrossCallReturnLabel_499:
   \   0000007E   2742               EOR     R20, R18
    894                uchCRCLo = auchCRCLo[uchCRCHi ^ temp];
    895                temp=Control.vol_try>>8;
    896                uchCRCHi = uchCRCLo ^ auchCRCHi[uchCRCHi ^ temp];
   \   00000080   ....               RCALL   ?Subroutine81
   \                     ??CrossCallReturnLabel_87:
   \   00000082   0FE4               ADD     R30, R20
   \   00000084   ....               RCALL   ?Subroutine250
    897                uchCRCLo = auchCRCLo[uchCRCHi ^ temp];
    898                
    899                
    900                //!!!!!!!!!!!!!!!!!! dobavka
    901                temp=vol_cnt_no_link;
   \                     ??CrossCallReturnLabel_431:
   \   00000086   A900               LDD     R16, Z+48
   \   00000088   A811               LDD     R1, Z+49
   \   0000008A   A822               LDD     R2, Z+50
   \   0000008C   A933               LDD     R19, Z+51
    902                uchCRCHi = uchCRCLo ^ auchCRCHi[uchCRCHi ^ temp];
   \   0000008E   ....               RCALL   ?Subroutine88
   \                     ??CrossCallReturnLabel_107:
   \   00000090   0FE4               ADD     R30, R20
   \   00000092   ....               RCALL   ?Subroutine260
   \                     ??CrossCallReturnLabel_493:
   \   00000094   ....               RCALL   ??Subroutine81_0
   \                     ??CrossCallReturnLabel_88:
   \   00000096   2F60               MOV     R22, R16
   \   00000098   ....               RCALL   ?Subroutine108
   \                     ??CrossCallReturnLabel_490:
   \   0000009A   ....               RCALL   ?Subroutine62
    903                uchCRCLo = auchCRCLo[uchCRCHi ^ temp];
    904                temp=vol_cnt_no_link>>8;
    905                uchCRCHi = uchCRCLo ^ auchCRCHi[uchCRCHi ^ temp];
    906                uchCRCLo = auchCRCLo[uchCRCHi ^ temp];
    907                temp=vol_cnt_no_link>>16;
    908                uchCRCHi = uchCRCLo ^ auchCRCHi[uchCRCHi ^ temp];
    909                uchCRCLo = auchCRCLo[uchCRCHi ^ temp];
    910                temp=vol_cnt_no_link>>24;
    911                uchCRCHi = uchCRCLo ^ auchCRCHi[uchCRCHi ^ temp];
    912                uchCRCLo = auchCRCLo[uchCRCHi ^ temp];
   \                     ??CrossCallReturnLabel_575:
   \   0000009C   2F64               MOV     R22, R20
   \   0000009E   ....               RCALL   ?Subroutine87
   \                     ??CrossCallReturnLabel_103:
   \   000000A0   ....               RCALL   ?Subroutine259
    913                
    914                temp=vol_cnt_link_res;
   \                     ??CrossCallReturnLabel_487:
   \   000000A2   01FD               MOVW    R31:R30, R27:R26
   \   000000A4   A904               LDD     R16, Z+52
   \   000000A6   A815               LDD     R1, Z+53
   \   000000A8   A826               LDD     R2, Z+54
   \   000000AA   A937               LDD     R19, Z+55
    915                uchCRCHi = uchCRCLo ^ auchCRCHi[uchCRCHi ^ temp];
   \   000000AC   ....               RCALL   ??Subroutine81_0
   \                     ??CrossCallReturnLabel_89:
   \   000000AE   2F20               MOV     R18, R16
   \   000000B0   2726               EOR     R18, R22
   \   000000B2   0FE2               ADD     R30, R18
   \   000000B4   ....               RCALL   ?Subroutine260
   \                     ??CrossCallReturnLabel_494:
   \   000000B6   ....               RCALL   ?Subroutine62
    916                uchCRCLo = auchCRCLo[uchCRCHi ^ temp];
    917                temp=vol_cnt_link_res>>8;
    918                uchCRCHi = uchCRCLo ^ auchCRCHi[uchCRCHi ^ temp];
    919                uchCRCLo = auchCRCLo[uchCRCHi ^ temp];
    920                temp=vol_cnt_link_res>>16;
    921                uchCRCHi = uchCRCLo ^ auchCRCHi[uchCRCHi ^ temp];
    922                uchCRCLo = auchCRCLo[uchCRCHi ^ temp];
    923                temp=vol_cnt_link_res>>24;
    924                uchCRCHi = uchCRCLo ^ auchCRCHi[uchCRCHi ^ temp];
   \                     ??CrossCallReturnLabel_576:
   \   000000B8   01FD               MOVW    R31:R30, R27:R26
   \   000000BA   AD26               LDD     R18, Z+62
   \   000000BC   ....               RCALL   ?Subroutine81
   \                     ??CrossCallReturnLabel_90:
   \   000000BE   2F62               MOV     R22, R18
   \   000000C0   ....               RCALL   ?Subroutine108
   \                     ??CrossCallReturnLabel_491:
   \   000000C2   2740               EOR     R20, R16
   \   000000C4   9100....           LDS     R16, (struct_tcc1 + 4)
   \   000000C8   ....               RCALL   ?Subroutine79
   \                     ??CrossCallReturnLabel_578:
   \   000000CA   9120....           LDS     R18, (struct_tcc2 + 4)
   \   000000CE   ....               RCALL   ?Subroutine87
   \                     ??CrossCallReturnLabel_104:
   \   000000D0   ....               RCALL   ?Subroutine78
    925                uchCRCLo = auchCRCLo[uchCRCHi ^ temp];
    926                //EEEEEEEEEEEEEEEEEEEEEEEEE dobavka
    927                
    928                uchCRCHi = uchCRCLo ^ auchCRCHi[uchCRCHi ^ Appl_seq_des];
    929                uchCRCLo = auchCRCLo[uchCRCHi ^ Appl_seq_des];
    930                
    931                uchCRCHi = uchCRCLo ^ auchCRCHi[uchCRCHi ^ struct_tcc1.type];
    932                uchCRCLo = auchCRCLo[uchCRCHi ^ struct_tcc1.type];
    933                
    934                uchCRCHi = uchCRCLo ^ auchCRCHi[uchCRCHi ^ struct_tcc2.type];
    935                uchCRCLo = auchCRCLo[uchCRCHi ^ struct_tcc2.type];
    936                
    937                
    938                temp=num_seq_cl;
   \                     ??CrossCallReturnLabel_429:
   \   000000D2   AD02               LDD     R16, Z+58
   \   000000D4   AD63               LDD     R22, Z+59
    939                uchCRCHi = uchCRCLo ^ auchCRCHi[uchCRCHi ^ temp];
   \   000000D6   ....               RCALL   ?Subroutine88
   \                     ??CrossCallReturnLabel_108:
   \   000000D8   2724               EOR     R18, R20
   \   000000DA   0FE2               ADD     R30, R18
   \   000000DC   ....               RCALL   ?Subroutine260
   \                     ??CrossCallReturnLabel_495:
   \   000000DE   ....               RCALL   ?Subroutine77
   \                     ??CrossCallReturnLabel_489:
   \   000000E0   ....               RCALL   ??Subroutine61_0
    940                uchCRCLo = auchCRCLo[uchCRCHi ^ temp];
    941                temp=num_seq_cl>>8;
    942                uchCRCHi = uchCRCLo ^ auchCRCHi[uchCRCHi ^ temp];
    943                uchCRCLo = auchCRCLo[uchCRCHi ^ temp];
    944                
    945                temp=Appl_seq.vol_tm_vzat;
   \                     ??CrossCallReturnLabel_428:
   \   000000E2   8902               LDD     R16, Z+18
   \   000000E4   8963               LDD     R22, Z+19
    946                uchCRCHi = uchCRCLo ^ auchCRCHi[uchCRCHi ^ temp];
   \   000000E6   ....               RCALL   ?Subroutine61
    947                uchCRCLo = auchCRCLo[uchCRCHi ^ temp];
    948                temp=Appl_seq.vol_tm_vzat>>8;
    949                uchCRCHi = uchCRCLo ^ auchCRCHi[uchCRCHi ^ temp];
    950                uchCRCLo = auchCRCLo[uchCRCHi ^ temp];
    951               
    952                temp=Appl_seq.vol_cntr_cl;
   \                     ??CrossCallReturnLabel_427:
   \   000000E8   8D00               LDD     R16, Z+24
   \   000000EA   8D61               LDD     R22, Z+25
    953                uchCRCHi = uchCRCLo ^ auchCRCHi[uchCRCHi ^ temp];
   \   000000EC   ....               RCALL   ??Subroutine81_0
   \                     ??CrossCallReturnLabel_91:
   \   000000EE   2E00               MOV     R0, R16
   \   000000F0   2602               EOR     R0, R18
   \   000000F2   0DE0               ADD     R30, R0
   \   000000F4   ....               RCALL   ?Subroutine260
   \                     ??CrossCallReturnLabel_496:
   \   000000F6   ....               RCALL   ?Subroutine85
    954                uchCRCLo = auchCRCLo[uchCRCHi ^ temp];
    955                temp=Appl_seq.vol_cntr_cl>>8;
   \                     ??CrossCallReturnLabel_485:
   \   000000F8   2F06               MOV     R16, R22
    956                uchCRCHi = uchCRCLo ^ auchCRCHi[uchCRCHi ^ temp];
   \   000000FA   ....               RCALL   ??Subroutine81_0
   \                     ??CrossCallReturnLabel_92:
   \   000000FC   ....               RCALL   ?Subroutine106
   \                     ??CrossCallReturnLabel_500:
   \   000000FE   2724               EOR     R18, R20
    957                uchCRCLo = auchCRCLo[uchCRCHi ^ temp];
    958                
    959                return (uchCRCHi << 8  | uchCRCLo);
   \   00000100   ....               RCALL   ?Subroutine88
   \                     ??CrossCallReturnLabel_109:
   \   00000102   2702               EOR     R16, R18
   \   00000104   0FE0               ADD     R30, R16
   \   00000106   1FF7               ADC     R31, R23
   \   00000108   9104               LPM     R16, Z
   \   0000010A   2F12               MOV     R17, R18
   \   0000010C   2FA5               MOV     R26, R21
   \   0000010E   2DB3               MOV     R27, R3
   \   00000110   9508               RET
    960          
    961               } 

   \                                 In segment FARCODE, align 2, keep-with-next
   \                     ?Subroutine108:
   \   00000000   2764               EOR     R22, R20
   \   00000002   0FE6               ADD     R30, R22
   \   00000004                      REQUIRE ?Subroutine259
   \   00000004                      ;               // Fall through to label ?Subroutine259

   \                                 In segment FARCODE, align 2, keep-with-next
   \                     ?Subroutine259:
   \   00000000   1FF7               ADC     R31, R23
   \   00000002   9144               LPM     R20, Z
   \   00000004   9508               RET

   \                                 In segment FARCODE, align 2, keep-with-next
   \                     ?Subroutine106:
   \   00000000   2762               EOR     R22, R18
   \   00000002   0FE6               ADD     R30, R22
   \   00000004                      REQUIRE ?Subroutine260
   \   00000004                      ;               // Fall through to label ?Subroutine260

   \                                 In segment FARCODE, align 2, keep-with-next
   \                     ?Subroutine87:
   \   00000000   ....               LDI     R30, LOW(auchCRCLo)
   \   00000002   ....               LDI     R31, (auchCRCLo) >> 8
   \   00000004   2704               EOR     R16, R20
   \   00000006   0FE0               ADD     R30, R16
   \   00000008   9508               RET

   \                                 In segment FARCODE, align 2, keep-with-next
   \                     ?Subroutine86:
   \   00000000   ....               LDI     R30, LOW(auchCRCLo)
   \   00000002   ....               LDI     R31, (auchCRCLo) >> 8
   \   00000004   2764               EOR     R22, R20
   \   00000006   0FE6               ADD     R30, R22
   \   00000008   9508               RET

   \                                 In segment FARCODE, align 2, keep-with-next
   \                     ?Subroutine85:
   \   00000000   2724               EOR     R18, R20
   \   00000002   ....               LDI     R30, LOW(auchCRCLo)
   \   00000004   ....               LDI     R31, (auchCRCLo) >> 8
   \   00000006   2702               EOR     R16, R18
   \   00000008   0FE0               ADD     R30, R16
   \   0000000A   ....               RJMP    ?Subroutine259

   \                                 In segment FARCODE, align 2, keep-with-next
   \                     ?Subroutine79:
   \   00000000   ....               LDI     R30, LOW(auchCRCLo)
   \   00000002   ....               LDI     R31, (auchCRCLo) >> 8
   \   00000004   2724               EOR     R18, R20
   \   00000006   0FE2               ADD     R30, R18
   \   00000008   1FF7               ADC     R31, R23
   \   0000000A   9124               LPM     R18, Z
   \   0000000C   ....               LDI     R30, LOW(auchCRCHi)
   \   0000000E   ....               LDI     R31, (auchCRCHi) >> 8
   \   00000010   2F60               MOV     R22, R16
   \   00000012   2764               EOR     R22, R20
   \   00000014   0FE6               ADD     R30, R22
   \   00000016   1FF7               ADC     R31, R23
   \   00000018   9144               LPM     R20, Z
   \   0000001A                      REQUIRE ?Subroutine272
   \   0000001A                      ;               // Fall through to label ?Subroutine272

   \                                 In segment FARCODE, align 2, keep-with-next
   \                     ?Subroutine272:
   \   00000000   2742               EOR     R20, R18
   \   00000002   9508               RET

   \                                 In segment FARCODE, align 2, keep-with-next
   \                     ?Subroutine78:
   \   00000000   1FF7               ADC     R31, R23
   \   00000002   9104               LPM     R16, Z
   \   00000004   ....               LDI     R30, LOW(auchCRCHi)
   \   00000006   ....               LDI     R31, (auchCRCHi) >> 8
   \   00000008   2F62               MOV     R22, R18
   \   0000000A   2764               EOR     R22, R20
   \   0000000C   0FE6               ADD     R30, R22
   \   0000000E   ....               RJMP    ?Subroutine250

   \                                 In segment FARCODE, align 2, keep-with-next
   \                     ?Subroutine77:
   \   00000000   ....               LDI     R30, LOW(auchCRCHi)
   \   00000002   ....               LDI     R31, (auchCRCHi) >> 8
   \   00000004   2E00               MOV     R0, R16
   \   00000006   2604               EOR     R0, R20
   \   00000008   0DE0               ADD     R30, R0
   \   0000000A   ....               RJMP    ?Subroutine259

   \                                 In segment FARCODE, align 2, keep-with-next
   \                     ?Subroutine62:
   \   00000000   2724               EOR     R18, R20
   \   00000002   ....               LDI     R30, LOW(auchCRCLo)
   \   00000004   ....               LDI     R31, (auchCRCLo) >> 8
   \   00000006   2702               EOR     R16, R18
   \   00000008   0FE0               ADD     R30, R16
   \   0000000A   1FF7               ADC     R31, R23
   \   0000000C   9144               LPM     R20, Z
   \   0000000E   2D01               MOV     R16, R1
   \   00000010   ....               LDI     R30, LOW(auchCRCHi)
   \   00000012   ....               LDI     R31, (auchCRCHi) >> 8
   \   00000014   2D61               MOV     R22, R1
   \   00000016   2762               EOR     R22, R18
   \   00000018   0FE6               ADD     R30, R22
   \   0000001A   1FF7               ADC     R31, R23
   \   0000001C   9124               LPM     R18, Z
   \   0000001E   2742               EOR     R20, R18
   \   00000020   2F64               MOV     R22, R20
   \   00000022   ....               LDI     R30, LOW(auchCRCLo)
   \   00000024   ....               LDI     R31, (auchCRCLo) >> 8
   \   00000026   2704               EOR     R16, R20
   \   00000028   0FE0               ADD     R30, R16
   \   0000002A   1FF7               ADC     R31, R23
   \   0000002C   9144               LPM     R20, Z
   \   0000002E   2D02               MOV     R16, R2
   \   00000030   ....               LDI     R30, LOW(auchCRCHi)
   \   00000032   ....               LDI     R31, (auchCRCHi) >> 8
   \   00000034   2D22               MOV     R18, R2
   \   00000036   2726               EOR     R18, R22
   \   00000038   0FE2               ADD     R30, R18
   \   0000003A   1FF7               ADC     R31, R23
   \   0000003C   9124               LPM     R18, Z
   \   0000003E   2724               EOR     R18, R20
   \   00000040   ....               LDI     R30, LOW(auchCRCLo)
   \   00000042   ....               LDI     R31, (auchCRCLo) >> 8
   \   00000044   2702               EOR     R16, R18
   \   00000046   0FE0               ADD     R30, R16
   \   00000048   1FF7               ADC     R31, R23
   \   0000004A   9144               LPM     R20, Z
   \   0000004C   2F03               MOV     R16, R19
   \   0000004E   ....               LDI     R30, LOW(auchCRCHi)
   \   00000050   ....               LDI     R31, (auchCRCHi) >> 8
   \   00000052   2F63               MOV     R22, R19
   \   00000054   2762               EOR     R22, R18
   \   00000056   0FE6               ADD     R30, R22
   \   00000058   1FF7               ADC     R31, R23
   \   0000005A   9124               LPM     R18, Z
   \   0000005C   ....               RJMP    ?Subroutine272

   \                                 In segment FARCODE, align 2, keep-with-next
   \                     ?Subroutine61:
   \   00000000   ....               LDI     R30, LOW(auchCRCHi)
   \   00000002   ....               LDI     R31, (auchCRCHi) >> 8
   \   00000004   2E00               MOV     R0, R16
   \   00000006   2602               EOR     R0, R18
   \   00000008   0DE0               ADD     R30, R0
   \   0000000A   1FF7               ADC     R31, R23
   \   0000000C   9124               LPM     R18, Z
   \                     ??Subroutine61_0:
   \   0000000E   2724               EOR     R18, R20
   \   00000010   ....               LDI     R30, LOW(auchCRCLo)
   \   00000012   ....               LDI     R31, (auchCRCLo) >> 8
   \   00000014   2702               EOR     R16, R18
   \   00000016   0FE0               ADD     R30, R16
   \   00000018   1FF7               ADC     R31, R23
   \   0000001A   9144               LPM     R20, Z
   \   0000001C   2F06               MOV     R16, R22
   \   0000001E   ....               LDI     R30, LOW(auchCRCHi)
   \   00000020   ....               LDI     R31, (auchCRCHi) >> 8
   \   00000022   2762               EOR     R22, R18
   \   00000024   0FE6               ADD     R30, R22
   \   00000026   1FF7               ADC     R31, R23
   \   00000028   9124               LPM     R18, Z
   \   0000002A   2724               EOR     R18, R20
   \   0000002C   ....               LDI     R30, LOW(auchCRCLo)
   \   0000002E   ....               LDI     R31, (auchCRCLo) >> 8
   \   00000030   2702               EOR     R16, R18
   \   00000032   0FE0               ADD     R30, R16
   \   00000034   1FF7               ADC     R31, R23
   \   00000036   9144               LPM     R20, Z
   \   00000038   ....               RJMP    ??Subroutine250_0

   \                                 In segment FARCODE, align 2, keep-with-next
   \                     ?Subroutine250:
   \   00000000   1FF7               ADC     R31, R23
   \   00000002   9144               LPM     R20, Z
   \   00000004   2740               EOR     R20, R16
   \                     ??Subroutine250_0:
   \   00000006   01FD               MOVW    R31:R30, R27:R26
   \   00000008   9508               RET

   \                                 In segment FARCODE, align 2, keep-with-next
   \                     ?Subroutine109:
   \   00000000   ....               LDI     R26, LOW(Appl_RS485_1)
   \   00000002   ....               LDI     R27, (Appl_RS485_1) >> 8
   \                     ??Subroutine109_0:
   \   00000004   01FD               MOVW    R31:R30, R27:R26
   \   00000006   AD00               LDD     R16, Z+56
   \   00000008   9508               RET
    962          
    963          

   \                                 In segment FARCODE, align 2, keep-with-next
   \                     ?Subroutine316:
   \   00000000   ........           JMP     ?Subroutine289

   \                                 In segment FARCODE, align 2, keep-with-next
    964          void load_rw_pdp(void)
   \                     load_rw_pdp:
    965          {
   \   00000000   ....               RCALL   ?Subroutine128
   \                     ??CrossCallReturnLabel_163:
   \   00000002                      REQUIRE ?Register_R4_is_cg_reg
   \   00000002                      REQUIRE ?Register_R5_is_cg_reg
   \   00000002                      REQUIRE ?Register_R7_is_cg_reg
   \   00000002   ....               RCALL   ?Subroutine10
    966           char buf[70];
    967           unsigned char i,j,temp;
    968           unsigned int kol;
    969           
    970           buf[69]=0;
    971           
    972           if((MCUSR & 0x01)!=0x01)return;
   \                     ??CrossCallReturnLabel_7:
   \   00000004   FF00               SBRS    R16, 0
   \   00000006   C010               RJMP    ??CrossCallReturnLabel_708
    973          
    974           if (e_rw_pdp!=0)return;
   \   00000008   ....               RCALL   ?Subroutine130
   \                     ??CrossCallReturnLabel_168:
   \   0000000A   ........           CALL    __eeget8_16
   \   0000000E   2300               TST     R16
   \   00000010   F459               BRNE    ??CrossCallReturnLabel_708
    975           RdFromFleshToArr(ABUF_C_GPRS,&buf[0],L_C_GPRS_MAX-2);                                                                     
   \   00000012   E34A               LDI     R20, 58
   \   00000014   ....               RCALL   ?Subroutine261
   \                     ??CrossCallReturnLabel_504:
   \   00000016   E100               LDI     R16, 16
   \   00000018   E217               LDI     R17, 39
   \   0000001A   ....               RCALL   ?Subroutine138
    976           if(buf[0]!=0)
   \                     ??CrossCallReturnLabel_530:
   \   0000001C   F011               BREQ    ??load_rw_pdp_0
    977             {
    978              j=0;
   \   0000001E   ....               RCALL   ?Subroutine66
    979              kol=0;
    980              
    981                 temp=strlen(&buf[j]);
    982                 if(temp>35){e_rw_pdp=0xff;return;}
   \                     ??CrossCallReturnLabel_62:
   \   00000020   F020               BRCS    ??load_rw_pdp_1
   \                     ??load_rw_pdp_0:
   \   00000022   EF0F               LDI     R16, 255
   \   00000024   ........           CALL    ?Subroutine129
   \                     ??CrossCallReturnLabel_708:
   \   00000028   ....               RJMP    ?Subroutine288
    983                 buf_tx_232[j]=temp;
   \                     ??load_rw_pdp_1:
   \   0000002A   ....               RCALL   ?Subroutine40
    984                 for(i=0;i<temp;i++) {buf_tx_232[j+1]=buf[j];j++;}
    985                 kol=kol+temp;
    986                 
    987                 j++;
    988                 temp=strlen(&buf[j]);
    989                 if(temp>15){e_rw_pdp=0xff;return;}
   \                     ??CrossCallReturnLabel_480:
   \   0000002C   F7D0               BRCC    ??load_rw_pdp_0
    990                 buf_tx_232[j]=temp;
   \   0000002E   ....               RCALL   ?Subroutine42
    991                 for(i=0;i<temp;i++) {buf_tx_232[j+1]=buf[j];j++;}
    992                 kol=kol+temp;
    993              
    994                 j++;
    995                 temp=strlen(&buf[j]);
    996                 if(temp>15){e_rw_pdp=0xff;return;}
   \                     ??CrossCallReturnLabel_482:
   \   00000030   F7C0               BRCC    ??load_rw_pdp_0
    997                 buf_tx_232[j]=temp;
   \   00000032   ....               RCALL   ?Subroutine45
    998                 for(i=0;i<temp;i++) {buf_tx_232[j+1]=buf[j];j++;}
    999                 kol=kol+temp;
   1000                 
   1001                 kol=kol+3;      
   1002                 if(kol>(L_C_GPRS_MAX-2)){e_rw_pdp=0xff;return;}
   \                     ??CrossCallReturnLabel_46:
   \   00000034   F7B0               BRCC    ??load_rw_pdp_0
   1003                 
   1004                 *(unsigned int*)&buf_tx_232[L_C_GPRS_MAX-2]=crc_m1(&buf_tx_232[0],L_C_GPRS_MAX-2,0xffff);
   \   00000036   ....               RCALL   ?Subroutine38
   1005                 WrArrayToFlesh(A_C_GPRS, &buf_tx_232[0],L_C_GPRS_MAX,0,0);
   \                     ??CrossCallReturnLabel_589:
   \   00000038   E104               LDI     R16, 20
   \   0000003A   ....               RCALL   ?Subroutine316
   \                     ??CrossCallReturnLabel_902:
   \   0000003C   CFF2               RJMP    ??load_rw_pdp_0
   1006                 
   1007             }
   1008           e_rw_pdp=0xff;  
   1009          } 

   \                                 In segment FARCODE, align 2, keep-with-next
   \                     ?Subroutine138:
   \   00000000   ........           CALL    RdFromFleshToArr
   \   00000004   8108               LD      R16, Y
   \   00000006   ........           JMP     ??Subroutine266_0

   \                                 In segment FARCODE, align 2, keep-with-next
   \                     ?Subroutine66:
   \   00000000   E080               LDI     R24, 0
   \   00000002   018E               MOVW    R17:R16, R29:R28
   \   00000004   ........           CALL    strlen
   \   00000008   3204               CPI     R16, 36
   \   0000000A   9508               RET

   \                                 In segment FARCODE, align 2, keep-with-next
   \                     ?Subroutine45:
   \   00000000   01FD               MOVW    R31:R30, R27:R26
   \   00000002   0FE8               ADD     R30, R24
   \   00000004   1DF7               ADC     R31, R7
   \   00000006   8300               ST      Z, R16
   \   00000008   E010               LDI     R17, 0
   \   0000000A   C00A               RJMP    ??Subroutine45_0
   \                     ??Subroutine45_1:
   \   0000000C   01FE               MOVW    R31:R30, R29:R28
   \   0000000E   0FE8               ADD     R30, R24
   \   00000010   1DF7               ADC     R31, R7
   \   00000012   8140               LD      R20, Z
   \   00000014   01FD               MOVW    R31:R30, R27:R26
   \   00000016   0FE8               ADD     R30, R24
   \   00000018   1DF7               ADC     R31, R7
   \   0000001A   8341               STD     Z+1, R20
   \   0000001C   9583               INC     R24
   \   0000001E   9513               INC     R17
   \                     ??Subroutine45_0:
   \   00000020   1710               CP      R17, R16
   \   00000022   F3A0               BRCS    ??Subroutine45_1
   \   00000024   2FE0               MOV     R30, R16
   \   00000026   E0F0               LDI     R31, 0
   \   00000028   0DE4               ADD     R30, R4
   \   0000002A   1DF5               ADC     R31, R5
   \   0000002C   9633               ADIW    R31:R30, 3
   \   0000002E   97FB               SBIW    R31:R30, 59
   \   00000030   9508               RET

   \                                 In segment FARCODE, align 2, keep-with-next
   \                     ?Subroutine42:
   \   00000000   01FD               MOVW    R31:R30, R27:R26
   \   00000002   0FE8               ADD     R30, R24
   \   00000004   1DF5               ADC     R31, R5
   \   00000006   8300               ST      Z, R16
   \   00000008   E010               LDI     R17, 0
   \   0000000A   C00A               RJMP    ??Subroutine42_0
   \                     ??Subroutine42_1:
   \   0000000C   01FE               MOVW    R31:R30, R29:R28
   \   0000000E   0FE8               ADD     R30, R24
   \   00000010   1DF5               ADC     R31, R5
   \   00000012   8140               LD      R20, Z
   \   00000014   01FD               MOVW    R31:R30, R27:R26
   \   00000016   0FE8               ADD     R30, R24
   \   00000018   1DF5               ADC     R31, R5
   \   0000001A   8341               STD     Z+1, R20
   \   0000001C   9583               INC     R24
   \   0000001E   9513               INC     R17
   \                     ??Subroutine42_0:
   \   00000020   1710               CP      R17, R16
   \   00000022   F3A0               BRCS    ??Subroutine42_1
   \   00000024   0E40               ADD     R4, R16
   \   00000026   1C55               ADC     R5, R5
   \   00000028   9583               INC     R24
   \   0000002A   018E               MOVW    R17:R16, R29:R28
   \   0000002C   0F08               ADD     R16, R24
   \   0000002E   1D17               ADC     R17, R7
   \   00000030                      REQUIRE ?Subroutine258
   \   00000030                      ;               // Fall through to label ?Subroutine258

   \                                 In segment FARCODE, align 2, keep-with-next
   \                     ?Subroutine258:
   \   00000000   ........           CALL    strlen
   \   00000004   3100               CPI     R16, 16
   \   00000006   9508               RET

   \                                 In segment FARCODE, align 2, keep-with-next
   \                     ?Subroutine40:
   \   00000000   ....               LDI     R26, LOW(buf_tx_232)
   \   00000002   ....               LDI     R27, (buf_tx_232) >> 8
   \   00000004   930C               ST      X, R16
   \   00000006   E010               LDI     R17, 0
   \   00000008   C00B               RJMP    ??Subroutine40_0
   \                     ??Subroutine40_1:
   \   0000000A   E030               LDI     R19, 0
   \   0000000C   01FE               MOVW    R31:R30, R29:R28
   \   0000000E   0FE8               ADD     R30, R24
   \   00000010   1FF3               ADC     R31, R19
   \   00000012   8140               LD      R20, Z
   \   00000014   01FD               MOVW    R31:R30, R27:R26
   \   00000016   0FE8               ADD     R30, R24
   \   00000018   1FF3               ADC     R31, R19
   \   0000001A   8341               STD     Z+1, R20
   \   0000001C   9583               INC     R24
   \   0000001E   9513               INC     R17
   \                     ??Subroutine40_0:
   \   00000020   1710               CP      R17, R16
   \   00000022   F398               BRCS    ??Subroutine40_1
   \   00000024   2E40               MOV     R4, R16
   \   00000026   2455               CLR     R5
   \   00000028   9583               INC     R24
   \   0000002A   2477               CLR     R7
   \   0000002C   018E               MOVW    R17:R16, R29:R28
   \   0000002E   0F08               ADD     R16, R24
   \   00000030   1D15               ADC     R17, R5
   \   00000032   ....               RJMP    ?Subroutine258

   \                                 In segment FARCODE, align 2, keep-with-next
   \                     ?Subroutine38:
   \   00000000   EF4F               LDI     R20, 255
   \   00000002   EF5F               LDI     R21, 255
   \   00000004   E32A               LDI     R18, 58
   \   00000006   E030               LDI     R19, 0
   \   00000008   018D               MOVW    R17:R16, R27:R26
   \   0000000A   ....               RCALL   crc_m1
   \   0000000C   01FD               MOVW    R31:R30, R27:R26
   \   0000000E   AF02               STD     Z+58, R16
   \   00000010   AF13               STD     Z+59, R17
   \   00000012   E070               LDI     R23, 0
   \   00000014   E060               LDI     R22, 0
   \   00000016   E34C               LDI     R20, 60
   \   00000018   E050               LDI     R21, 0
   \   0000001A                      REQUIRE ?Subroutine273
   \   0000001A                      ;               // Fall through to label ?Subroutine273

   \                                 In segment FARCODE, align 2, keep-with-next
   \                     ?Subroutine273:
   \   00000000   019D               MOVW    R19:R18, R27:R26
   \   00000002   9508               RET

   \                                 In segment FARCODE, align 2, keep-with-next
   \                     ?Subroutine10:
   \   00000000   97EF               SBIW    R29:R28, 63
   \   00000002   9727               SBIW    R29:R28, 7
   \   00000004   E000               LDI     R16, 0
   \   00000006   01FE               MOVW    R31:R30, R29:R28
   \   00000008   96FF               ADIW    R31:R30, 63
   \   0000000A   8306               STD     Z+6, R16
   \   0000000C   B704               IN      R16, 0x34
   \   0000000E   9508               RET

   \                                 In segment FARCODE, align 2, keep-with-next
   \                     ?Subroutine261:
   \   00000000   E050               LDI     R21, 0
   \   00000002   019E               MOVW    R19:R18, R29:R28
   \   00000004   9508               RET

   \                                 In segment FARCODE, align 2, keep-with-next
   \                     ?Subroutine130:
   \   00000000   E041               LDI     R20, 1
   \   00000002   E050               LDI     R21, 0
   \   00000004   9508               RET

   \                                 In segment FARCODE, align 2, keep-with-next
   \                     ?Subroutine128:
   \   00000000   ........           JMP     ?PROLOGUE8_L09

   \                                 In segment FARCODE, align 2, keep-with-next
   \                     ?Subroutine288:
   \   00000000   96EF               ADIW    R29:R28, 63
   \   00000002   9627               ADIW    R29:R28, 7
   \                     ??Subroutine288_0:
   \   00000004   E0E8               LDI     R30, 8
   \   00000006   ........           JMP     ?EPILOGUE_B8_L09

   \                                 In segment FARCODE, align 2, keep-with-next
   \                     ?Subroutine266:
   \   00000000   A903               LDD     R16, Z+51
   \                     ??Subroutine266_0:
   \   00000002   2300               TST     R16
   \   00000004   9508               RET

   \                                 In segment FARCODE, align 2, keep-with-next
   \                     ?Subroutine289:
   \   00000000   E010               LDI     R17, 0
   \                     ??Subroutine289_0:
   \   00000002   ........           JMP     WrArrayToFlesh

   \                                 In segment FARCODE, align 2, keep-with-next
   \                     ?Subroutine294:
   \   00000000   E050               LDI     R21, 0
   \   00000002   ........           JMP     __eeput8_16

   \                                 In segment FARCODE, align 2, keep-with-next
   \                     ?Subroutine129:
   \   00000000   E041               LDI     R20, 1
   \   00000002   ....               RJMP    ?Subroutine294
   1010          
   1011          
   1012          

   \                                 In segment FARCODE, align 2, keep-with-next
   1013          void load_rw_pdp_r(void)
   \                     load_rw_pdp_r:
   1014          {
   \   00000000   ....               RCALL   ?Subroutine128
   \                     ??CrossCallReturnLabel_164:
   \   00000002                      REQUIRE ?Register_R4_is_cg_reg
   \   00000002                      REQUIRE ?Register_R5_is_cg_reg
   \   00000002                      REQUIRE ?Register_R7_is_cg_reg
   \   00000002   ....               RCALL   ?Subroutine10
   1015           char buf[70];
   1016           unsigned char i,j,temp;
   1017           unsigned int kol;
   1018           
   1019           buf[69]=0;
   1020           
   1021           if((MCUSR & 0x01)!=0x01)return;
   \                     ??CrossCallReturnLabel_8:
   \   00000004   FF00               SBRS    R16, 0
   \   00000006   C011               RJMP    ??CrossCallReturnLabel_710
   1022          
   1023           if (e_rw_pdp_r!=0)return;
   \   00000008   E042               LDI     R20, 2
   \   0000000A   E050               LDI     R21, 0
   \   0000000C   ........           CALL    __eeget8_16
   \   00000010   2300               TST     R16
   \   00000012   F459               BRNE    ??CrossCallReturnLabel_710
   1024           RdFromFleshToArr(ABUF_CR_GPRS,&buf[0],L_CR_GPRS_MAX-2);                                                                     
   \   00000014   E34A               LDI     R20, 58
   \   00000016   ....               RCALL   ?Subroutine261
   \                     ??CrossCallReturnLabel_505:
   \   00000018   ........           CALL    ?Subroutine150
   \                     ??CrossCallReturnLabel_191:
   \   0000001C   ....               RCALL   ?Subroutine138
   1025           if(buf[0]!=0)
   \                     ??CrossCallReturnLabel_531:
   \   0000001E   F011               BREQ    ??load_rw_pdp_r_0
   1026             {
   1027              j=0;
   \   00000020   ....               RCALL   ?Subroutine66
   1028              kol=0;
   1029              
   1030                 temp=strlen(&buf[j]);
   1031                 if(temp>35){e_rw_pdp_r=0xff;return;}
   \                     ??CrossCallReturnLabel_63:
   \   00000022   F020               BRCS    ??load_rw_pdp_r_1
   \                     ??load_rw_pdp_r_0:
   \   00000024   EF0F               LDI     R16, 255
   \   00000026   ........           CALL    ?Subroutine136
   \                     ??CrossCallReturnLabel_710:
   \   0000002A   ....               RJMP    ?Subroutine288
   1032                 buf_tx_232[j]=temp;
   \                     ??load_rw_pdp_r_1:
   \   0000002C   ....               RCALL   ?Subroutine40
   1033                 for(i=0;i<temp;i++) {buf_tx_232[j+1]=buf[j];j++;}
   1034                 kol=kol+temp;
   1035                 
   1036                 j++;
   1037                 temp=strlen(&buf[j]);
   1038                 if(temp>15){e_rw_pdp_r=0xff;return;}
   \                     ??CrossCallReturnLabel_481:
   \   0000002E   F7D0               BRCC    ??load_rw_pdp_r_0
   1039                 buf_tx_232[j]=temp;
   \   00000030   ....               RCALL   ?Subroutine42
   1040                 for(i=0;i<temp;i++) {buf_tx_232[j+1]=buf[j];j++;}
   1041                 kol=kol+temp;
   1042              
   1043                 j++;
   1044                 temp=strlen(&buf[j]);
   1045                 if(temp>15){e_rw_pdp_r=0xff;return;}
   \                     ??CrossCallReturnLabel_483:
   \   00000032   F7C0               BRCC    ??load_rw_pdp_r_0
   1046                 buf_tx_232[j]=temp;
   \   00000034   ....               RCALL   ?Subroutine45
   1047                 for(i=0;i<temp;i++) {buf_tx_232[j+1]=buf[j];j++;}
   1048                 kol=kol+temp;
   1049                 
   1050                 kol=kol+3;      
   1051                 if(kol>(L_CR_GPRS_MAX-2)){e_rw_pdp_r=0xff;return;}
   \                     ??CrossCallReturnLabel_47:
   \   00000036   F7B0               BRCC    ??load_rw_pdp_r_0
   1052                 
   1053                 *(unsigned int*)&buf_tx_232[L_C_GPRS_MAX-2]=crc_m1(&buf_tx_232[0],L_CR_GPRS_MAX-2,0xffff);
   \   00000038   ....               RCALL   ?Subroutine38
   1054                 WrArrayToFlesh(A_CR_GPRS, &buf_tx_232[0],L_CR_GPRS_MAX,0,0);
   \                     ??CrossCallReturnLabel_590:
   \   0000003A   E500               LDI     R16, 80
   \   0000003C   ....               RCALL   ?Subroutine316
   \                     ??CrossCallReturnLabel_901:
   \   0000003E   CFF2               RJMP    ??load_rw_pdp_r_0
   1055                 
   1056             }
   1057           e_rw_pdp_r=0xff;  
   1058          } 

   \                                 In segment FARCODE, align 2, keep-with-next
   \                     ?Subroutine150:
   \   00000000   E408               LDI     R16, 72
   \   00000002   E216               LDI     R17, 38
   \   00000004   9508               RET

   \                                 In segment FARCODE, align 2, keep-with-next
   \                     ?Subroutine136:
   \   00000000   E042               LDI     R20, 2
   \   00000002                      REQUIRE ?Subroutine294
   \   00000002                      ;               // Fall through to label ?Subroutine294
   1059          
   1060          

   \                                 In segment FARCODE, align 2, keep-with-next
   \                     ?Subroutine317:
   \   00000000   ........           JMP     ?Subroutine149

   \                                 In segment FARCODE, align 2, keep-with-next
   1061          void load_par_first_flash(void)
   \                     load_par_first_flash:
   1062          {
   \   00000000   9726               SBIW    R29:R28, 6
   1063            unsigned int buf;
   1064            unsigned char buf1[4];
   1065            
   1066            RdFromFleshToArrInt(A_FIRST_ON, &buf,1);
   \   00000002   ....               RCALL   ?Subroutine130
   \                     ??CrossCallReturnLabel_169:
   \   00000004   019E               MOVW    R19:R18, R29:R28
   \   00000006   5F2C               SUBI    R18, 252
   \   00000008   4F3F               SBCI    R19, 255
   \   0000000A   EF08               LDI     R16, 248
   \   0000000C   E71F               LDI     R17, 127
   \   0000000E   ....               RCALL   ??Subroutine151_0
   1067            if(buf!=FLAG_FIRS_ON)
   \                     ??CrossCallReturnLabel_195:
   \   00000010   ....               RCALL   ?Subroutine152
   \                     ??CrossCallReturnLabel_198:
   \   00000012   3A0A               CPI     R16, 170
   \   00000014   E525               LDI     R18, 85
   \   00000016   4515               SBCI    R17, 85
   \   00000018   F191               BREQ    ??CrossCallReturnLabel_895
   1068                {
   1069                  WrArrayToFleshInt(A_FIRST_ON,&buf,1,1,FLAG_FIRS_ON);
   \   0000001A   EA0A               LDI     R16, 170
   \   0000001C   932A               ST      -Y, R18
   \   0000001E   930A               ST      -Y, R16
   \   00000020   E061               LDI     R22, 1
   \   00000022   ....               RCALL   ?Subroutine130
   \                     ??CrossCallReturnLabel_170:
   \   00000024   019E               MOVW    R19:R18, R29:R28
   \   00000026   5F2A               SUBI    R18, 250
   \   00000028   4F3F               SBCI    R19, 255
   \   0000002A   EF08               LDI     R16, 248
   \   0000002C   E71F               LDI     R17, 127
   \   0000002E   ........           CALL    WrArrayToFleshInt
   1070          
   1071                 
   1072                  ust_vhod=DEF_TM_VHOD;
   \   00000032   E10E               LDI     R16, 30
   \   00000034   E010               LDI     R17, 0
   \   00000036   ....               LDI     R30, LOW(ust_vhod)
   \   00000038   ....               LDI     R31, (ust_vhod) >> 8
   \   0000003A   ....               RCALL   ?Subroutine145
   1073                  WrArrayToFleshInt(A_SEG9,&ust_vhod,1,0,0);  //запись кон
   \                     ??CrossCallReturnLabel_184:
   \   0000003C   931A               ST      -Y, R17
   \   0000003E   931A               ST      -Y, R17
   \   00000040   E060               LDI     R22, 0
   \   00000042   ....               RCALL   ?Subroutine130
   \                     ??CrossCallReturnLabel_171:
   \   00000044   019F               MOVW    R19:R18, R31:R30
   \   00000046   E700               LDI     R16, 112
   \   00000048   E014               LDI     R17, 4
   \   0000004A   ........           CALL    WrArrayToFleshInt
   1074                  
   1075                 
   1076                 buf1[0]=TCH18_B1;
   \   0000004E   E00E               LDI     R16, 14
   \   00000050   8308               ST      Y, R16
   1077                 buf1[1]=TCH18_B2;
   \   00000052   E909               LDI     R16, 153
   \   00000054   8309               STD     Y+1, R16
   1078                 buf1[2]=TCH18_B3;
   \   00000056   ED06               LDI     R16, 214
   \   00000058   ....               RCALL   ?Subroutine5
   1079                 buf1[3]=TCH18_B4;
   1080                 WrArrayToFlesh(A_SEG6+68,&buf1[0],4,0,0);
   \                     ??CrossCallReturnLabel_501:
   \   0000005A   E404               LDI     R16, 68
   \   0000005C   ....               RCALL   ?Subroutine317
   1081                 
   1082                 buf1[0]=TCH19_B1;
   \                     ??CrossCallReturnLabel_897:
   \   0000005E   ED04               LDI     R16, 212
   \   00000060   8308               ST      Y, R16
   1083                 buf1[1]=TCH19_B2;
   \   00000062   EB09               LDI     R16, 185
   \   00000064   8309               STD     Y+1, R16
   1084                 buf1[2]=TCH19_B3;
   \   00000066   ED02               LDI     R16, 210
   \   00000068   ....               RCALL   ?Subroutine5
   1085                 buf1[3]=TCH19_B4;
   1086                 WrArrayToFlesh(A_SEG6+72,&buf1[0],4,0,0);
   \                     ??CrossCallReturnLabel_502:
   \   0000006A   E408               LDI     R16, 72
   \   0000006C   ....               RCALL   ?Subroutine317
   1087                 
   1088                 buf1[0]=TCH_B1;
   \                     ??CrossCallReturnLabel_896:
   \   0000006E   E300               LDI     R16, 48
   \   00000070   8308               ST      Y, R16
   1089                 buf1[1]=TCH_B2;
   \   00000072   EA0F               LDI     R16, 175
   \   00000074   8309               STD     Y+1, R16
   1090                 buf1[2]=TCH_B3;
   \   00000076   E40C               LDI     R16, 76
   \   00000078   ....               RCALL   ?Subroutine5
   1091                 buf1[3]=TCH_B4;
   1092                 WrArrayToFlesh(A_SEG6+76,&buf1[0],4,0,0);
   \                     ??CrossCallReturnLabel_503:
   \   0000007A   E40C               LDI     R16, 76
   \   0000007C   ....               RCALL   ?Subroutine317
   1093                 
   1094                }
   1095          
   1096          
   1097          
   1098          
   1099          }
   \                     ??CrossCallReturnLabel_895:
   \   0000007E   9626               ADIW    R29:R28, 6
   \   00000080   9508               RET

   \                                 In segment FARCODE, align 2, keep-with-next
   \                     ?Subroutine5:
   \   00000000   830A               STD     Y+2, R16
   \   00000002   E000               LDI     R16, 0
   \   00000004   830B               STD     Y+3, R16
   \   00000006   E070               LDI     R23, 0
   \   00000008   E060               LDI     R22, 0
   \   0000000A   E044               LDI     R20, 4
   \   0000000C                      REQUIRE ?Subroutine261
   \   0000000C                      ;               // Fall through to label ?Subroutine261

   \                                 In segment FARCODE, align 2, keep-with-next
   \                     ?Subroutine152:
   \   00000000   810C               LDD     R16, Y+4
   \   00000002   811D               LDD     R17, Y+5
   \   00000004   9508               RET

   \                                 In segment FARCODE, align 2, keep-with-next
   \                     ?Subroutine151:
   \   00000000   E014               LDI     R17, 4
   \                     ??Subroutine151_0:
   \   00000002   ........           JMP     RdFromFleshToArrInt

   \                                 In segment FARCODE, align 2, keep-with-next
   \                     ?Subroutine145:
   \   00000000   8300               ST      Z, R16
   \   00000002   8311               STD     Z+1, R17
   \   00000004   9508               RET

   \                                 In segment FARCODE, align 2, keep-with-next
   \                     ?Subroutine149:
   \   00000000   E310               LDI     R17, 48
   \   00000002   ....               RJMP    ??Subroutine289_0
   1100          

   \                                 In segment FARCODE, align 2, keep-with-next
   \                     ?Subroutine318:
   \   00000000   ........           JMP     ?Subroutine290

   \                                 In segment FARCODE, align 2, keep-with-next
   \                     ?Subroutine315:
   \   00000000   ........           JMP     ??Subroutine158_0

   \                                 In segment FARCODE, align 2, keep-with-next
   1101          void load_par_from_memory(void)
   \                     load_par_from_memory:
   1102          {
   \   00000000   ....               RCALL   ?Subroutine128
   \                     ??CrossCallReturnLabel_165:
   \   00000002                      REQUIRE ?Register_R4_is_cg_reg
   \   00000002                      REQUIRE ?Register_R5_is_cg_reg
   \   00000002                      REQUIRE ?Register_R6_is_cg_reg
   \   00000002                      REQUIRE ?Register_R7_is_cg_reg
   \   00000002   9764               SBIW    R29:R28, 20
   1103          unsigned char buf[20],m;
   1104            
   1105          
   1106          RdFromFleshToArr(A_IP_PAR,&buf[0],L_IP_PAR);
   \   00000004   ....               RCALL   ?Subroutine133
   \                     ??CrossCallReturnLabel_510:
   \   00000006   E80C               LDI     R16, 140
   \   00000008   ....               RCALL   ?Subroutine318
   1107          if(*(unsigned int*)&buf[OFS_IP_PAR_CRC]!=crc_m1(&buf[0],L_IP_PAR-2,0xffff))
   \                     ??CrossCallReturnLabel_919:
   \   0000000A   ....               LDI     R26, LOW(Appl_seq)
   \   0000000C   ....               LDI     R27, (Appl_seq) >> 8
   \   0000000E   8588               LDD     R24, Y+8
   \   00000010   8599               LDD     R25, Y+9
   \   00000012   ........           CALL    ?Subroutine119
   \                     ??CrossCallReturnLabel_704:
   \   00000016   1780               CP      R24, R16
   \   00000018   0791               CPC     R25, R17
   \   0000001A   F091               BREQ    ??load_par_from_memory_0
   1108            {
   1109             
   1110             ip_ls[0]=DEF_IP_SRV_0;
   \   0000001C   E50B               LDI     R16, 91
   \   0000001E   ........           CALL    ?Subroutine268
   1111             ip_ls[1]=DEF_IP_SRV_1;
   \                     ??CrossCallReturnLabel_548:
   \   00000022   EF05               LDI     R16, 245
   \   00000024   A705               STD     Z+45, R16
   1112             ip_ls[2]=DEF_IP_SRV_2;
   \   00000026   E209               LDI     R16, 41
   \   00000028   A706               STD     Z+46, R16
   1113             ip_ls[3]=DEF_IP_SRV_3;
   \   0000002A   E50B               LDI     R16, 91
   \   0000002C   A707               STD     Z+47, R16
   1114             num_self=DEF_NUM_SELF;
   \   0000002E   E002               LDI     R16, 2
   \   00000030   E010               LDI     R17, 0
   \   00000032   AF00               STD     Z+56, R16
   \   00000034   AF11               STD     Z+57, R17
   1115             port_udp=DEF_UDP_PORT;
   \   00000036   EB0A               LDI     R16, 186
   \   00000038   E113               LDI     R17, 19
   \   0000003A   AF04               STD     Z+60, R16
   \   0000003C   AF15               STD     Z+61, R17
   \   0000003E   C010               RJMP    ??load_par_from_memory_1
   1116            }
   1117            else
   1118            {  
   1119            
   1120             ip_ls[0]=buf[OFS_IP];
   \                     ??load_par_from_memory_0:
   \   00000040   8108               LD      R16, Y
   \   00000042   ........           CALL    ?Subroutine268
   1121             ip_ls[1]=buf[OFS_IP+1];
   \                     ??CrossCallReturnLabel_549:
   \   00000046   8109               LDD     R16, Y+1
   \   00000048   A705               STD     Z+45, R16
   1122             ip_ls[2]=buf[OFS_IP+2];
   \   0000004A   810A               LDD     R16, Y+2
   \   0000004C   A706               STD     Z+46, R16
   1123             ip_ls[3]=buf[OFS_IP+3];
   \   0000004E   810B               LDD     R16, Y+3
   \   00000050   A707               STD     Z+47, R16
   1124             port_udp=*(unsigned int*)&buf[OFS_PORT];
   \   00000052   ....               RCALL   ?Subroutine152
   \                     ??CrossCallReturnLabel_199:
   \   00000054   AF04               STD     Z+60, R16
   \   00000056   AF15               STD     Z+61, R17
   1125             num_self=*(unsigned int*)&buf[OFS_NUM];
   \   00000058   810E               LDD     R16, Y+6
   \   0000005A   811F               LDD     R17, Y+7
   \   0000005C   AF00               STD     Z+56, R16
   \   0000005E   AF11               STD     Z+57, R17
   1126            }
   1127          
   1128          
   1129            
   1130          RdFromFleshToArr(A_C_PAR,&buf[0],L_C_PAR);
   \                     ??load_par_from_memory_1:
   \   00000060   ........           CALL    ?Subroutine60
   1131          if(*(unsigned int*)&buf[OFS_C_PAR_CRC]!=crc_m1(&buf[0],L_C_PAR-2,0xffff))
   \                     ??CrossCallReturnLabel_924:
   \   00000064   ....               RCALL   ?Subroutine118
   \                     ??CrossCallReturnLabel_151:
   \   00000066   F0C1               BREQ    ??load_par_from_memory_2
   1132            {
   1133            
   1134             Control.vol_nat=DEF_CNTR_NAT;
   \   00000068   E302               LDI     R16, 50
   \   0000006A   E010               LDI     R17, 0
   \   0000006C   01FD               MOVW    R31:R30, R27:R26
   \   0000006E   A304               STD     Z+36, R16
   \   00000070   A315               STD     Z+37, R17
   1135             Control.vol_nat_r=DEF_CNTR_NAT_R;
   \   00000072   E20D               LDI     R16, 45
   \   00000074   A702               STD     Z+42, R16
   \   00000076   A713               STD     Z+43, R17
   1136             Control.vol_link=DEF_CNTR_LINK;
   \   00000078   A302               STD     Z+34, R16
   \   0000007A   A313               STD     Z+35, R17
   1137             Control.vol_waits=DEF_CNTR_LINK_WAITS;
   \   0000007C   E00C               LDI     R16, 12
   \   0000007E   A306               STD     Z+38, R16
   \   00000080   A317               STD     Z+39, R17
   1138             Control.vol_try=DEF_TM_CNTR_LINK/Control.vol_waits;  
   \   00000082   E005               LDI     R16, 5
   \   00000084   A701               STD     Z+41, R16
   1139             
   1140             vol_cnt_no_link=DEF_TM_NO_LINK * 60;  //dobavka
   \   00000086   E020               LDI     R18, 0
   \   00000088   AB10               STD     Z+48, R17
   \   0000008A   AB11               STD     Z+49, R17
   \   0000008C   AB12               STD     Z+50, R17
   \   0000008E   AB13               STD     Z+51, R17
   1141             vol_cnt_link_res=DEF_TM_LINK_RES * 60;  //dobavka
   \   00000090   E100               LDI     R16, 16
   \   00000092   E01E               LDI     R17, 14
   \   00000094   ....               RCALL   ?Subroutine162
   \                     ??CrossCallReturnLabel_220:
   \   00000096   C024               RJMP    ??load_par_from_memory_3
   1142             
   1143            }
   1144            else
   1145            {
   1146             
   1147             Control.vol_nat=*(unsigned int*)&buf[OFS_NAT];
   \                     ??load_par_from_memory_2:
   \   00000098   ....               RCALL   ?Subroutine262
   \                     ??CrossCallReturnLabel_515:
   \   0000009A   01FD               MOVW    R31:R30, R27:R26
   \   0000009C   A304               STD     Z+36, R16
   \   0000009E   A315               STD     Z+37, R17
   1148             Control.vol_link=*(unsigned int*)&buf[OFS_CCH];
   \   000000A0   810A               LDD     R16, Y+2
   \   000000A2   811B               LDD     R17, Y+3
   \   000000A4   A302               STD     Z+34, R16
   \   000000A6   A313               STD     Z+35, R17
   1149             Control.vol_waits=DEF_CNTR_LINK_WAITS;
   \   000000A8   E00C               LDI     R16, 12
   \   000000AA   E010               LDI     R17, 0
   \   000000AC   A306               STD     Z+38, R16
   \   000000AE   A317               STD     Z+39, R17
   1150             Control.vol_try=*(unsigned int*)&buf[OFS_TM_CH]/Control.vol_waits;
   \   000000B0   ....               RCALL   ?Subroutine152
   \                     ??CrossCallReturnLabel_200:
   \   000000B2   E04C               LDI     R20, 12
   \   000000B4   ........           CALL    ?Subroutine135
   \                     ??CrossCallReturnLabel_179:
   \   000000B8   01FD               MOVW    R31:R30, R27:R26
   \   000000BA   A701               STD     Z+41, R16
   1151             
   1152             vol_cnt_no_link=*(unsigned int*)&buf[OFS_TM_NO_LINK]*60;   //dobavka
   \   000000BC   814E               LDD     R20, Y+6
   \   000000BE   815F               LDD     R21, Y+7
   \   000000C0   ........           CALL    ?Subroutine49
   \                     ??CrossCallReturnLabel_50:
   \   000000C4   E020               LDI     R18, 0
   \   000000C6   AB00               STD     Z+48, R16
   \   000000C8   AB11               STD     Z+49, R17
   \   000000CA   AB22               STD     Z+50, R18
   \   000000CC   AB23               STD     Z+51, R18
   1153             vol_cnt_link_res=*(unsigned int*)&buf[OFS_TM_LINK_RES]*60; //dobavka
   \   000000CE   8548               LDD     R20, Y+8
   \   000000D0   8559               LDD     R21, Y+9
   \   000000D2   ........           CALL    ?Subroutine49
   \                     ??CrossCallReturnLabel_51:
   \   000000D6   ....               RCALL   ?Subroutine162
   1154             
   1155             Control.vol_nat_r=*(unsigned int*)&buf[OFS_NAT_R];
   \                     ??CrossCallReturnLabel_221:
   \   000000D8   850A               LDD     R16, Y+10
   \   000000DA   851B               LDD     R17, Y+11
   \   000000DC   A702               STD     Z+42, R16
   \   000000DE   A713               STD     Z+43, R17
   1156            }
   1157          
   1158          
   1159          
   1160          RdFromFleshToArr(A_SEQ_PAR,&buf[0],L_SEQ_PAR);
   \                     ??load_par_from_memory_3:
   \   000000E0   ........           CALL    ?Subroutine131
   \                     ??CrossCallReturnLabel_175:
   \   000000E4   ....               RCALL   ?Subroutine318
   1161          if(*(unsigned int*)&buf[OFS_SEQ_PAR_CRC]!=crc_m1(&buf[0],L_SEQ_PAR-2,0xffff))
   \                     ??CrossCallReturnLabel_918:
   \   000000E6   ....               LDI     R24, LOW(struct_tcc1)
   \   000000E8   ....               LDI     R25, (struct_tcc1) >> 8
   \   000000EA   8469               LDD     R6, Y+9
   \   000000EC   847A               LDD     R7, Y+10
   \   000000EE   ....               RCALL   ?Subroutine120
   \                     ??CrossCallReturnLabel_153:
   \   000000F0   E029               LDI     R18, 9
   \   000000F2   E030               LDI     R19, 0
   \   000000F4   018E               MOVW    R17:R16, R29:R28
   \   000000F6   ....               RCALL   ?Subroutine292
   \                     ??CrossCallReturnLabel_707:
   \   000000F8   1660               CP      R6, R16
   \   000000FA   0671               CPC     R7, R17
   \   000000FC   F081               BREQ    ??load_par_from_memory_4
   1162            {
   1163             
   1164             Appl_seq_des=~DEF_DES_SEQ;
   \   000000FE   EF0F               LDI     R16, 255
   \   00000100   01FD               MOVW    R31:R30, R27:R26
   \   00000102   AF06               STD     Z+62, R16
   1165             num_seq_cl=DEF_NUM_DST_SEQ;
   \   00000104   AF02               STD     Z+58, R16
   \   00000106   AF03               STD     Z+59, R16
   1166             Appl_seq.vol_tm_vzat=DEF_VOL_TM_VZAT;
   \   00000108   E10E               LDI     R16, 30
   \   0000010A   E010               LDI     R17, 0
   \   0000010C   8B02               STD     Z+18, R16
   \   0000010E   8B13               STD     Z+19, R17
   1167             Appl_seq.vol_cntr_cl=DEF_TM_CNTR_CL;
   \   00000110   E00A               LDI     R16, 10
   \   00000112   8F00               STD     Z+24, R16
   \   00000114   8F11               STD     Z+25, R17
   1168             struct_tcc1.type=DEF_TP_TS1;
   \   00000116   E001               LDI     R16, 1
   \   00000118   01FC               MOVW    R31:R30, R25:R24
   \   0000011A   8304               STD     Z+4, R16
   1169             struct_tcc2.type=DEF_TP_TS1;
   \   0000011C   C013               RJMP    ??load_par_from_memory_5
   1170            }
   1171            else
   1172            {
   1173           
   1174            Appl_seq_des=buf[OFS_DES_SEQ];
   \                     ??load_par_from_memory_4:
   \   0000011E   8108               LD      R16, Y
   \   00000120   01FD               MOVW    R31:R30, R27:R26
   \   00000122   AF06               STD     Z+62, R16
   1175            num_seq_cl=*(unsigned int*)&buf[OFS_NUM_CL];
   \   00000124   8109               LDD     R16, Y+1
   \   00000126   811A               LDD     R17, Y+2
   \   00000128   AF02               STD     Z+58, R16
   \   0000012A   AF13               STD     Z+59, R17
   1176            Appl_seq.vol_tm_vzat=*(unsigned int*)&buf[OFS_TM_VZ];
   \   0000012C   810B               LDD     R16, Y+3
   \   0000012E   811C               LDD     R17, Y+4
   \   00000130   8B02               STD     Z+18, R16
   \   00000132   8B13               STD     Z+19, R17
   1177            Appl_seq.vol_cntr_cl=*(unsigned int*)&buf[OFS_TM_CL];
   \   00000134   810D               LDD     R16, Y+5
   \   00000136   811E               LDD     R17, Y+6
   \   00000138   8F00               STD     Z+24, R16
   \   0000013A   8F11               STD     Z+25, R17
   1178            struct_tcc1.type=buf[OFS_TP_TS];
   \   0000013C   810F               LDD     R16, Y+7
   \   0000013E   01FC               MOVW    R31:R30, R25:R24
   \   00000140   8304               STD     Z+4, R16
   1179            struct_tcc2.type=buf[OFS_TP_TS+1];
   \   00000142   8508               LDD     R16, Y+8
   \                     ??load_par_from_memory_5:
   \   00000144   ....               LDI     R30, LOW(struct_tcc2)
   \   00000146   ....               LDI     R31, (struct_tcc2) >> 8
   \   00000148   8304               STD     Z+4, R16
   1180            }
   1181           
   1182          
   1183          RdFromFleshToArr(A_TRAF,&buf[0],L_TRAF);
   \   0000014A   E04E               LDI     R20, 14
   \   0000014C   ........           CALL    ?Subroutine132
   1184          if(*(unsigned int*)&buf[L_TRAF-2]!=crc_m1(&buf[0],L_TRAF-2,0xffff))
   \                     ??CrossCallReturnLabel_904:
   \   00000150   ....               LDI     R26, LOW(unix)
   \   00000152   ....               LDI     R27, (unix) >> 8
   \   00000154   ....               RCALL   ?Subroutine118
   \                     ??CrossCallReturnLabel_152:
   \   00000156   F0B1               BREQ    ??load_par_from_memory_6
   1185            {      
   1186             *(unsigned long int*)&buf[0]=burst_ds_r();
   \   00000158   ........           CALL    ?Subroutine154
   1187             *(unsigned long int*)&buf[4]=0;
   \                     ??CrossCallReturnLabel_202:
   \   0000015C   E030               LDI     R19, 0
   \   0000015E   833C               STD     Y+4, R19
   \   00000160   833D               STD     Y+5, R19
   \   00000162   833E               STD     Y+6, R19
   \   00000164   833F               STD     Y+7, R19
   1188             *(unsigned long int*)&buf[8]=0;
   \   00000166   8738               STD     Y+8, R19
   \   00000168   8739               STD     Y+9, R19
   \   0000016A   873A               STD     Y+10, R19
   \   0000016C   873B               STD     Y+11, R19
   1189             *(unsigned int*)&buf[L_TRAF-2]=crc_m1(&buf[0],L_TRAF-2,0xffff);
   \   0000016E   ....               RCALL   ?Subroutine120
   \                     ??CrossCallReturnLabel_154:
   \   00000170   E02C               LDI     R18, 12
   \   00000172   ........           CALL    ??Subroutine34_0
   1190             WrArrayToFlesh(A_TRAF, &buf[0],L_TRAF,0,0);
   1191             cnt_outcom=0;
   \                     ??CrossCallReturnLabel_889:
   \   00000176   ....               RCALL   ?Subroutine11
   \                     ??CrossCallReturnLabel_432:
   \   00000178   8304               STD     Z+4, R16
   \   0000017A   8305               STD     Z+5, R16
   \   0000017C   ....               RCALL   ?Subroutine92
   1192             cnt_incom=0;
   \                     ??CrossCallReturnLabel_110:
   \   0000017E   8702               STD     Z+10, R16
   \   00000180   8703               STD     Z+11, R16
   \   00000182   C010               RJMP    ??load_par_from_memory_7
   1193            }
   1194            else
   1195            {  
   1196            
   1197             cnt_outcom=*(unsigned long int*)&buf[4];
   \                     ??load_par_from_memory_6:
   \   00000184   ....               RCALL   ?Subroutine152
   \                     ??CrossCallReturnLabel_201:
   \   00000186   812E               LDD     R18, Y+6
   \   00000188   813F               LDD     R19, Y+7
   \   0000018A   01FD               MOVW    R31:R30, R27:R26
   \   0000018C   8304               STD     Z+4, R16
   \   0000018E   8315               STD     Z+5, R17
   \   00000190   8326               STD     Z+6, R18
   \   00000192   8337               STD     Z+7, R19
   1198             cnt_incom=*(unsigned long int*)&buf[8];
   \   00000194   8508               LDD     R16, Y+8
   \   00000196   8519               LDD     R17, Y+9
   \   00000198   852A               LDD     R18, Y+10
   \   0000019A   853B               LDD     R19, Y+11
   \   0000019C   8700               STD     Z+8, R16
   \   0000019E   8711               STD     Z+9, R17
   \   000001A0   8722               STD     Z+10, R18
   \   000001A2   8733               STD     Z+11, R19
   1199            }
   1200          
   1201          
   1202          for(m=0;m<8;m++)
   \                     ??load_par_from_memory_7:
   \   000001A4   E0A0               LDI     R26, 0
   1203           {
   1204           RdFromFleshToArr(STRUCT_TII+m*14,&buf[0],14); 
   \                     ??load_par_from_memory_8:
   \   000001A6   2F4A               MOV     R20, R26
   \   000001A8   E050               LDI     R21, 0
   \   000001AA   E00E               LDI     R16, 14
   \   000001AC   ........           CALL    ??Subroutine49_0
   \                     ??CrossCallReturnLabel_52:
   \   000001B0   01C8               MOVW    R25:R24, R17:R16
   \   000001B2   5990               SUBI    R25, 144
   \   000001B4   E04E               LDI     R20, 14
   \   000001B6   019E               MOVW    R19:R18, R29:R28
   \   000001B8   018C               MOVW    R17:R16, R25:R24
   \   000001BA   ........           CALL    ??Subroutine290_0
   1205           if(*(int*)&buf[12]!=crc_sum(&buf[0],12))WrArrayToFlesh(STRUCT_TII+m*14,0,14,1,0); 
   \                     ??CrossCallReturnLabel_911:
   \   000001BE   844C               LDD     R4, Y+12
   \   000001C0   845D               LDD     R5, Y+13
   \   000001C2   E02C               LDI     R18, 12
   \   000001C4   018E               MOVW    R17:R16, R29:R28
   \   000001C6   ........           CALL    crc_sum
   \   000001CA   1640               CP      R4, R16
   \   000001CC   0651               CPC     R5, R17
   \   000001CE   F041               BREQ    ??CrossCallReturnLabel_894
   \   000001D0   E070               LDI     R23, 0
   \   000001D2   E061               LDI     R22, 1
   \   000001D4   E04E               LDI     R20, 14
   \   000001D6   E050               LDI     R21, 0
   \   000001D8   ....               RCALL   ?Subroutine315
   \                     ??CrossCallReturnLabel_878:
   \   000001DA   018C               MOVW    R17:R16, R25:R24
   \   000001DC   ........           CALL    ??Subroutine289_0
   1206           }
   \                     ??CrossCallReturnLabel_894:
   \   000001E0   95A3               INC     R26
   \   000001E2   30A8               CPI     R26, 8
   \   000001E4   F300               BRCS    ??load_par_from_memory_8
   1207          
   1208          
   1209           
   1210          RdFromFleshToArr(A_IND_DNS,&buf[0],2);
   \   000001E6   E042               LDI     R20, 2
   \   000001E8   ....               RCALL   ?Subroutine261
   \                     ??CrossCallReturnLabel_506:
   \   000001EA   EF00               LDI     R16, 240
   \   000001EC   ....               RCALL   ?Subroutine139
   1211          /*
   1212          arr_cnt_tii_heap=buf[0];
   1213          if ( arr_cnt_tii_heap >99  | arr_cnt_tii_heap ==0 ) {WrArrayToFlesh(A_IND_DNS,0,2,1,0);arr_cnt_tii_heap=0;}
   1214          */                                      
   1215          modbus_mem1[AD_IND_DNS]=*(unsigned long int*)&buf[0];
   \                     ??CrossCallReturnLabel_513:
   \   000001EE   ....               LDI     R30, LOW((modbus_mem1 + 64))
   \   000001F0   ....               LDI     R31, HIGH((modbus_mem1 + 64))
   \   000001F2   ....               RCALL   ?Subroutine145
   1216          if ( modbus_mem1[AD_IND_DNS] >99  | modbus_mem1[AD_IND_DNS] ==0 ) {WrArrayToFlesh(A_IND_DNS,0,2,1,0);modbus_mem1[AD_IND_DNS]=0;}
   \                     ??CrossCallReturnLabel_185:
   \   000001F4   3604               CPI     R16, 100
   \   000001F6   E020               LDI     R18, 0
   \   000001F8   0712               CPC     R17, R18
   \   000001FA   F410               BRCC    ??load_par_from_memory_9
   \   000001FC   2B01               OR      R16, R17
   \   000001FE   F439               BRNE    ??load_par_from_memory_10
   \                     ??load_par_from_memory_9:
   \   00000200   ....               RCALL   ?Subroutine105
   \                     ??CrossCallReturnLabel_884:
   \   00000202   EF00               LDI     R16, 240
   \   00000204   ....               RCALL   ?Subroutine148
   \                     ??CrossCallReturnLabel_572:
   \   00000206   ....               LDI     R30, LOW((modbus_mem1 + 64))
   \   00000208   ....               LDI     R31, HIGH((modbus_mem1 + 64))
   \   0000020A   8300               ST      Z, R16
   \   0000020C   8301               STD     Z+1, R16
   1217          
   1218          RdFromFleshToArr(A_IND_GZU,&buf[0],2);
   \                     ??load_par_from_memory_10:
   \   0000020E   E042               LDI     R20, 2
   \   00000210   ....               RCALL   ?Subroutine261
   \                     ??CrossCallReturnLabel_507:
   \   00000212   EF02               LDI     R16, 242
   \   00000214   ....               RCALL   ?Subroutine139
   1219          modbus_mem1[AD_IND_GZU]=*(unsigned long int*)&buf[0];
   \                     ??CrossCallReturnLabel_514:
   \   00000216   ....               LDI     R30, LOW((modbus_mem1 + 62))
   \   00000218   ....               LDI     R31, HIGH((modbus_mem1 + 62))
   \   0000021A   ....               RCALL   ?Subroutine145
   1220          if ( modbus_mem1[AD_IND_GZU] >54  | modbus_mem1[AD_IND_GZU] ==0 ) {WrArrayToFlesh(A_IND_GZU,0,2,1,0);modbus_mem1[AD_IND_GZU]=0;}
   \                     ??CrossCallReturnLabel_186:
   \   0000021C   3307               CPI     R16, 55
   \   0000021E   E020               LDI     R18, 0
   \   00000220   0712               CPC     R17, R18
   \   00000222   F410               BRCC    ??load_par_from_memory_11
   \   00000224   2B01               OR      R16, R17
   \   00000226   F439               BRNE    ??load_par_from_memory_12
   \                     ??load_par_from_memory_11:
   \   00000228   ....               RCALL   ?Subroutine105
   \                     ??CrossCallReturnLabel_885:
   \   0000022A   EF02               LDI     R16, 242
   \   0000022C   ....               RCALL   ?Subroutine148
   \                     ??CrossCallReturnLabel_573:
   \   0000022E   ....               LDI     R30, LOW((modbus_mem1 + 62))
   \   00000230   ....               LDI     R31, HIGH((modbus_mem1 + 62))
   \   00000232   8300               ST      Z, R16
   \   00000234   8301               STD     Z+1, R16
   1221          
   1222          RdFromFleshToArr(A_SEG3,(unsigned char *)&c2_byte.mb[0],SEG3*2);
   \                     ??load_par_from_memory_12:
   \   00000236   E444               LDI     R20, 68
   \   00000238   E050               LDI     R21, 0
   \   0000023A   ....               LDI     R18, LOW(c2_byte)
   \   0000023C   ....               LDI     R19, (c2_byte) >> 8
   \   0000023E   E000               LDI     R16, 0
   \   00000240   ........           CALL    ?Subroutine140
   1223          
   1224          RdFromFleshToArrInt(A_SEG9,&ust_vhod,1);
   \                     ??CrossCallReturnLabel_913:
   \   00000244   ....               RCALL   ?Subroutine130
   \                     ??CrossCallReturnLabel_172:
   \   00000246   ....               LDI     R18, LOW(ust_vhod)
   \   00000248   ....               LDI     R19, (ust_vhod) >> 8
   \   0000024A   E700               LDI     R16, 112
   \   0000024C   ....               RCALL   ?Subroutine151
   1225          RdFromFleshToArrInt(A_SEG8, &c_config_tc[0],SEG8);
   \                     ??CrossCallReturnLabel_197:
   \   0000024E   ....               LDI     R26, LOW(c_config_tc)
   \   00000250   ....               LDI     R27, (c_config_tc) >> 8
   \   00000252   E148               LDI     R20, 24
   \   00000254   E050               LDI     R21, 0
   \   00000256   019D               MOVW    R19:R18, R27:R26
   \   00000258   E400               LDI     R16, 64
   \   0000025A   ....               RCALL   ?Subroutine151
   1226          c_config_tc[0x17]=0;  // это тригеры аварий ТИТ
   \                     ??CrossCallReturnLabel_196:
   \   0000025C   E000               LDI     R16, 0
   \   0000025E   969E               ADIW    R27:R26, 46
   \   00000260   930D               ST      X+, R16
   \   00000262   930C               ST      X, R16
   1227          RdFromFleshToArr(A_SEG99,(unsigned char *)&c1_byte.mb[0],SEG99*2);  // параметры ГЗУ
   \   00000264   E248               LDI     R20, 40
   \   00000266   E050               LDI     R21, 0
   \   00000268   ....               LDI     R18, LOW(c1_byte)
   \   0000026A   ....               LDI     R19, (c1_byte) >> 8
   \   0000026C   E800               LDI     R16, 128
   \   0000026E   ........           CALL    ?Subroutine140
   1228          
   1229          //RdFromFleshToArr(A_SEG8,(unsigned char *)&c_config_tc[0],SEG8*2);
   1230          //RdFromFleshToArr(A_SEG9,(unsigned char *)&ust_vhod,SEG9*2);
   1231          //RdFromFleshToArrInt(A_KD, &c_config_kd[0],2);
   1232          //ust_vhod=c_config_kd[AD_TM_VHOD] & 0x1f;
   1233          //ust_vhod=ust_vhod*1000;
   1234          
   1235          }
   \                     ??CrossCallReturnLabel_912:
   \   00000272   9664               ADIW    R29:R28, 20
   \   00000274   ....               RJMP    ??Subroutine288_0

   \                                 In segment FARCODE, align 2, keep-with-next
   \                     ?Subroutine162:
   \   00000000   AB04               STD     Z+52, R16
   \   00000002   AB15               STD     Z+53, R17
   \   00000004   AB26               STD     Z+54, R18
   \   00000006   AB27               STD     Z+55, R18
   \   00000008   9508               RET

   \                                 In segment FARCODE, align 2, keep-with-next
   \                     ?Subroutine148:
   \   00000000   E013               LDI     R17, 3
   \                     ??Subroutine148_0:
   \   00000002   ........           CALL    WrArrayToFlesh
   \   00000006   ........           JMP     ?Subroutine271

   \                                 In segment FARCODE, align 2, keep-with-next
   \                     ?Subroutine139:
   \   00000000   E013               LDI     R17, 3
   \   00000002   ........           CALL    RdFromFleshToArr
   \   00000006                      REQUIRE ?Subroutine262
   \   00000006                      ;               // Fall through to label ?Subroutine262

   \                                 In segment FARCODE, align 2, keep-with-next
   \                     ?Subroutine262:
   \   00000000   8108               LD      R16, Y
   \   00000002   8119               LDD     R17, Y+1
   \   00000004   9508               RET

   \                                 In segment FARCODE, align 2, keep-with-next
   \                     ?Subroutine133:
   \   00000000   E04A               LDI     R20, 10
   \   00000002   ....               RJMP    ?Subroutine261

   \                                 In segment FARCODE, align 2, keep-with-next
   \                     ?Subroutine118:
   \   00000000   858C               LDD     R24, Y+12
   \   00000002   859D               LDD     R25, Y+13
   \   00000004   EF4F               LDI     R20, 255
   \   00000006   EF5F               LDI     R21, 255
   \   00000008   E02C               LDI     R18, 12
   \   0000000A   E030               LDI     R19, 0
   \   0000000C   018E               MOVW    R17:R16, R29:R28
   \   0000000E   ....               RCALL   crc_m1
   \   00000010   1780               CP      R24, R16
   \   00000012   0791               CPC     R25, R17
   \   00000014   9508               RET

   \                                 In segment FARCODE, align 2, keep-with-next
   \                     ?Subroutine105:
   \   00000000   E070               LDI     R23, 0
   \   00000002   E061               LDI     R22, 1
   \   00000004   E042               LDI     R20, 2
   \   00000006   E050               LDI     R21, 0
   \   00000008                      REQUIRE ?Subroutine274
   \   00000008                      ;               // Fall through to label ?Subroutine274

   \                                 In segment FARCODE, align 2, keep-with-next
   \                     ?Subroutine274:
   \   00000000   E030               LDI     R19, 0
   \   00000002   9508               RET

   \                                 In segment FARCODE, align 2, keep-with-next
   \                     ?Subroutine292:
   \   00000000   ....               RJMP    crc_m1

   \                                 In segment FARCODE, align 2, keep-with-next
   \                     ?Subroutine120:
   \   00000000   EF4F               LDI     R20, 255
   \   00000002   EF5F               LDI     R21, 255
   \   00000004   9508               RET

   \                                 In segment FARCODE, align 2, keep-with-next
   \                     ?Subroutine92:
   \   00000000   8306               STD     Z+6, R16
   \   00000002   8307               STD     Z+7, R16
   \   00000004   8700               STD     Z+8, R16
   \   00000006   8701               STD     Z+9, R16
   \   00000008   9508               RET

   \                                 In segment FARCODE, align 2, keep-with-next
   \                     ?Subroutine11:
   \   00000000   E000               LDI     R16, 0
   \   00000002   ....               RJMP    ??Subroutine250_0

   \                                 In segment FARCODE, align 2, keep-with-next
   \                     ?Subroutine306:
   \   00000000   ........           JMP     crc_m1

   \                                 In segment FARCODE, align 2, keep-with-next
   \                     ?Subroutine158:
   \   00000000   A723               STD     Z+43, R18
   \                     ??Subroutine158_0:
   \   00000002   E020               LDI     R18, 0
   \   00000004   ........           JMP     ?Subroutine274

   \                                 In segment FARCODE, align 2, keep-with-next
   \                     ?Subroutine154:
   \   00000000   ........           CALL    burst_ds_r
   \   00000004   8308               ST      Y, R16
   \   00000006   8319               STD     Y+1, R17
   \   00000008   832A               STD     Y+2, R18
   \   0000000A   833B               STD     Y+3, R19
   \   0000000C   9508               RET

   \                                 In segment FARCODE, align 2, keep-with-next
   \                     ?Subroutine140:
   \   00000000   E014               LDI     R17, 4
   \   00000002   ....               RJMP    ??Subroutine290_0

   \                                 In segment FARCODE, align 2, keep-with-next
   \                     ?Subroutine290:
   \   00000000   E010               LDI     R17, 0
   \                     ??Subroutine290_0:
   \   00000002   ........           JMP     RdFromFleshToArr

   \                                 In segment FARCODE, align 2, keep-with-next
   \                     ?Subroutine135:
   \   00000000   E050               LDI     R21, 0
   \   00000002   ........           JMP     ?US_DIVMOD_L02

   \                                 In segment FARCODE, align 2, keep-with-next
   \                     ?Subroutine131:
   \   00000000   E04B               LDI     R20, 11
   \   00000002   E050               LDI     R21, 0
   \   00000004   019E               MOVW    R19:R18, R29:R28
   \   00000006   EA04               LDI     R16, 164
   \   00000008   9508               RET

   \                                 In segment FARCODE, align 2, keep-with-next
   \                     ?Subroutine119:
   \   00000000   EF4F               LDI     R20, 255
   \   00000002   EF5F               LDI     R21, 255
   \   00000004   E028               LDI     R18, 8
   \   00000006   E030               LDI     R19, 0
   \   00000008   018E               MOVW    R17:R16, R29:R28
   \   0000000A   ........           JMP     ?Subroutine292

   \                                 In segment FARCODE, align 2, keep-with-next
   \                     ?Subroutine268:
   \   00000000   01FD               MOVW    R31:R30, R27:R26
   \   00000002   A704               STD     Z+44, R16
   \   00000004   9508               RET

   \                                 In segment FARCODE, align 2, keep-with-next
   \                     ?Subroutine60:
   \   00000000   E04E               LDI     R20, 14
   \   00000002   E050               LDI     R21, 0
   \   00000004   019E               MOVW    R19:R18, R29:R28
   \   00000006   E906               LDI     R16, 150
   \   00000008   ....               RJMP    ?Subroutine290

   \                                 In segment FARCODE, align 2, keep-with-next
   \                     ?Subroutine34:
   \   00000000   8708               STD     Y+8, R16
   \   00000002   8719               STD     Y+9, R17
   \   00000004   872A               STD     Y+10, R18
   \   00000006   873B               STD     Y+11, R19
   \   00000008   EF4F               LDI     R20, 255
   \   0000000A   EF5F               LDI     R21, 255
   \   0000000C   E02C               LDI     R18, 12
   \   0000000E   E030               LDI     R19, 0
   \                     ??Subroutine34_0:
   \   00000010   018E               MOVW    R17:R16, R29:R28
   \   00000012   ....               RCALL   ?Subroutine306
   \                     ??__CCRETURN_4:
   \                     ??Subroutine34_1:
   \   00000014   870C               STD     Y+12, R16
   \   00000016   871D               STD     Y+13, R17
   \   00000018   E070               LDI     R23, 0
   \   0000001A   E060               LDI     R22, 0
   \   0000001C   E04E               LDI     R20, 14
   \   0000001E   E050               LDI     R21, 0
   \   00000020   019E               MOVW    R19:R18, R29:R28
   \   00000022   EF0E               LDI     R16, 254
   \   00000024   E714               LDI     R17, 116
   \   00000026   ....               RJMP    ??Subroutine289_0

   \                                 In segment FARCODE, align 2, keep-with-next
   \                     ?Subroutine132:
   \   00000000   E050               LDI     R21, 0
   \   00000002   019E               MOVW    R19:R18, R29:R28
   \   00000004   EF0E               LDI     R16, 254
   \   00000006   E714               LDI     R17, 116
   \   00000008   ....               RJMP    ??Subroutine290_0

   \                                 In segment FARCODE, align 2, keep-with-next
   \                     ?Subroutine49:
   \   00000000   E30C               LDI     R16, 60
   \                     ??Subroutine49_0:
   \   00000002   E010               LDI     R17, 0
   \   00000004   ........           JMP     ?S_EC_MUL_L02
   1236          

   \                                 In segment FARCODE, align 2, keep-with-next
   1237          void load_sel_modul(void)
   \                     load_sel_modul:
   1238          {
   1239          RdFromFleshToArr(A_SEL_MODUL,&sel_modul,1);
   \   00000000   ....               RCALL   ?Subroutine130
   \                     ??CrossCallReturnLabel_173:
   \   00000002   ....               LDI     R18, LOW((state_seq + 3))
   \   00000004   ....               LDI     R19, HIGH((state_seq + 3))
   \   00000006   EF06               LDI     R16, 246
   \   00000008   ....               RJMP    ?Subroutine318
   1240          }
   1241          

   \                                 In segment FARCODE, align 2, keep-with-next
   \                     ?Subroutine312:
   \   00000000   ........           JMP     send_info

   \                                 In segment FARCODE, align 2, keep-with-next
   1242          void start_func_stm_off(void)
   \                     start_func_stm_off:
   1243          {
   1244            S2_OFF;
   \   00000000   ....               RCALL   ?Subroutine17
   1245            
   1246            if(Regim!=RG_DEBAG){S3_OFF;S4_OFF;S5_OFF;}
   \                     ??CrossCallReturnLabel_750:
   \   00000002   F009               BREQ    ??CrossCallReturnLabel_21
   \   00000004   ....               RCALL   ?Subroutine16
   1247            
   1248            state_led_md=LED_MD_OFF;
   \                     ??CrossCallReturnLabel_21:
   \   00000006   ....               RCALL   ?Subroutine18
   1249            command_AT=TRUE;// включен коммандный режим
   1250            CLR_PWR;   // исходное состояние
   1251            SET_PWRK;
   1252            state_modem=STM_OFF;
   \                     ??CrossCallReturnLabel_24:
   \   00000008   E00B               LDI     R16, 11
   \   0000000A   ....               RCALL   ?Subroutine13
   1253            cnt_stm_tm1=DEF_TM_STM_OFF;
   1254            event_modem=EVM_NONE;
   1255            write_log_info(ST_MODEM,MDM_OFF);
   \                     ??CrossCallReturnLabel_9:
   \   0000000C   E015               LDI     R17, 5
   \   0000000E   ....               RCALL   ?Subroutine172
   1256            send_info(sizeof(stm_pwr_off),stm_pwr_off,0,0);
   \                     ??CrossCallReturnLabel_814:
   \   00000010   ....               LDI     R18, LOW(stm_pwr_off)
   \   00000012   ....               LDI     R19, (stm_pwr_off) >> 8
   \   00000014   ....               RJMP    ?Subroutine291
   1257          }   

   \                                 In segment FARCODE, align 2, keep-with-next
   \                     ?Subroutine291:
   \   00000000   E00B               LDI     R16, 11
   \                     ??Subroutine291_0:
   \   00000002   ....               RJMP    ?Subroutine312

   \                                 In segment FARCODE, align 2, keep-with-next
   \                     ?Subroutine172:
   \   00000000   E003               LDI     R16, 3
   \   00000002   ....               RJMP    ?Subroutine253

   \                                 In segment FARCODE, align 2, keep-with-next
   \                     ?Subroutine18:
   \   00000000   E001               LDI     R16, 1
   \   00000002   9300....           STS     state_led_md, R16
   \   00000006   ....               LDI     R30, LOW(Appl_RS485_1)
   \   00000008   ....               LDI     R31, (Appl_RS485_1) >> 8
   \   0000000A   AB04               STD     Z+52, R16
   \   0000000C   91000105           LDS     R16, 261
   \   00000010   7B0F               ANDI    R16, 0xBF
   \   00000012   93000105           STS     261, R16
   \   00000016   9A2C               SBI     0x05, 0x04
   \   00000018   9508               RET

   \                                 In segment FARCODE, align 2, keep-with-next
   \                     ?Subroutine17:
   \   00000000   9840               CBI     0x08, 0x00
   \   00000002   9841               CBI     0x08, 0x01
   \   00000004                      REQUIRE ?Subroutine297
   \   00000004                      ;               // Fall through to label ?Subroutine297

   \                                 In segment FARCODE, align 2, keep-with-next
   \                     ?Subroutine297:
   \   00000000   9100....           LDS     R16, Regim
   \   00000004   ....               RJMP    ??Subroutine247_1

   \                                 In segment FARCODE, align 2, keep-with-next
   \                     ?Subroutine247:
   \   00000000   910000C0           LDS     R16, 192
   \   00000004   6400               ORI     R16, 0x40
   \   00000006   930000C0           STS     192, R16
   \   0000000A   910000C1           LDS     R16, 193
   \   0000000E   6008               ORI     R16, 0x08
   \   00000010   930000C1           STS     193, R16
   \   00000014   910000C1           LDS     R16, 193
   \   00000018   6400               ORI     R16, 0x40
   \   0000001A   930000C1           STS     193, R16
   \                     ??Subroutine247_0:
   \   0000001E   ....               RCALL   check_cts
   \                     ??Subroutine247_1:
   \   00000020   3001               CPI     R16, 1
   \   00000022   9508               RET

   \                                 In segment FARCODE, align 2, keep-with-next
   \                     ?Subroutine13:
   \   00000000   AB02               STD     Z+50, R16
   \   00000002   E003               LDI     R16, 3
   \   00000004   AB05               STD     Z+53, R16
   \                     ??Subroutine13_0:
   \   00000006   E000               LDI     R16, 0
   \   00000008   AB03               STD     Z+51, R16
   \   0000000A   9508               RET

   \                                 In segment FARCODE, align 2, keep-with-next
   \                     ?Subroutine253:
   \   00000000   ........           CALL    write_log_info
   \                     ??Subroutine253_0:
   \   00000004   E040               LDI     R20, 0
   \   00000006   E010               LDI     R17, 0
   \   00000008   9508               RET
   1258          
   1259          
   1260          

   \                                 In segment FARCODE, align 2, keep-with-next
   1261          void start_func_stm_koff(void)
   \                     start_func_stm_koff:
   1262          {
   1263            S2_OFF;
   \   00000000   9840               CBI     0x08, 0x00
   \   00000002   9841               CBI     0x08, 0x01
   1264            
   1265            init_pins_out_to_hiz();
   \   00000004   ........           CALL    init_pins_out_to_hiz
   1266            
   1267            if(Regim!=RG_DEBAG){S3_OFF;S4_OFF;S5_OFF;}
   \   00000008   ....               RCALL   ?Subroutine297
   \                     ??CrossCallReturnLabel_764:
   \   0000000A   F009               BREQ    ??CrossCallReturnLabel_22
   \   0000000C   ....               RCALL   ?Subroutine16
   1268            
   1269            state_led_md=LED_MD_OFF;
   \                     ??CrossCallReturnLabel_22:
   \   0000000E   ....               RCALL   ?Subroutine18
   1270            command_AT=TRUE;// включен коммандный режим
   1271            CLR_PWR;  // только через сброс питания
   1272            SET_PWRK;
   1273            state_modem=STM_KOFF;
   \                     ??CrossCallReturnLabel_25:
   \   00000010   E00A               LDI     R16, 10
   \   00000012   AB02               STD     Z+50, R16
   1274          ////  cnt_stm_tm1=DEF_TM_STM_KOFF;
   1275            cnt_stm_tm1=DEF_TM_STM_OFF;
   \   00000014   E003               LDI     R16, 3
   \   00000016   AB05               STD     Z+53, R16
   1276            
   1277            cnt_stm_tm2=DEF_TM2_STM_OFF;
   \   00000018   E100               LDI     R16, 16
   \   0000001A   AB06               STD     Z+54, R16
   1278            
   1279           // cnt_key_off=DEF_TM_KEY_OFF;  2016  !!!??
   1280            
   1281            event_modem=EVM_NONE;
   \   0000001C   ....               RCALL   ??Subroutine13_0
   1282            write_log_info(ST_MODEM,MDM_KOFF);
   \                     ??CrossCallReturnLabel_10:
   \   0000001E   E018               LDI     R17, 8
   \   00000020   ....               RCALL   ?Subroutine172
   1283            send_info(sizeof(stm_pwr_koff),stm_pwr_koff,0,0);
   \                     ??CrossCallReturnLabel_815:
   \   00000022   ....               LDI     R18, LOW(stm_pwr_koff)
   \   00000024   ....               LDI     R19, (stm_pwr_koff) >> 8
   \   00000026   E00C               LDI     R16, 12
   \   00000028   ....               RJMP    ??Subroutine291_0
   1284          }   
   1285          
   1286          
   1287          
   1288          

   \                                 In segment FARCODE, align 2, keep-with-next
   \                     ?Subroutine319:
   \   00000000   ........           JMP     ?Subroutine170

   \                                 In segment FARCODE, align 2, keep-with-next
   \                     ?Subroutine313:
   \   00000000   ........           JMP     ?Subroutine184

   \                                 In segment FARCODE, align 2, keep-with-next
   1289          void start_func_stm_on(void)
   \                     start_func_stm_on:
   1290          {
   \   00000000   ........           CALL    ?Subroutine176
   1291            S2_OFF;
   \                     ??CrossCallReturnLabel_252:
   \   00000004   ....               RCALL   ?Subroutine17
   1292            
   1293            if(Regim!=RG_DEBAG){S3_OFF;S4_OFF;S5_OFF;}
   \                     ??CrossCallReturnLabel_751:
   \   00000006   F009               BREQ    ??CrossCallReturnLabel_23
   \   00000008   ....               RCALL   ?Subroutine16
   1294           
   1295              //!!!! dobavka
   1296            if(Fl_ch_sim==1)
   \                     ??CrossCallReturnLabel_23:
   \   0000000A   ....               LDI     R16, LOW(crc_tii)
   \   0000000C   ....               LDI     R17, (crc_tii) >> 8
   \   0000000E   ........           CALL    ?Subroutine177
   \                     ??CrossCallReturnLabel_259:
   \   00000012   01FD               MOVW    R31:R30, R27:R26
   \   00000014   A927               LDD     R18, Z+55
   \   00000016   3021               CPI     R18, 1
   \   00000018   F4B1               BRNE    ??start_func_stm_on_0
   1297            {
   1298              Fl_ch_sim=0;
   \   0000001A   E020               LDI     R18, 0
   \   0000001C   AB27               STD     Z+55, R18
   1299              simka=simka^SIM_TRIG;
   \   0000001E   E021               LDI     R18, 1
   \   00000020   01F8               MOVW    R31:R30, R17:R16
   \   00000022   8932               LDD     R19, Z+18
   \   00000024   2732               EOR     R19, R18
   \   00000026   8B32               STD     Z+18, R19
   1300              cnt_no_link=vol_cnt_no_link;
   \   00000028   ....               RCALL   ?Subroutine264
   \                     ??CrossCallReturnLabel_777:
   \   0000002A   A940               LDD     R20, Z+48
   \   0000002C   A951               LDD     R21, Z+49
   \   0000002E   A962               LDD     R22, Z+50
   \   00000030   A973               LDD     R23, Z+51
   \   00000032   01FD               MOVW    R31:R30, R27:R26
   \   00000034   A346               STD     Z+38, R20
   \   00000036   A357               STD     Z+39, R21
   \   00000038   A760               STD     Z+40, R22
   \   0000003A   A771               STD     Z+41, R23
   1301              cnt_link_res=0;    
   \   0000003C   E040               LDI     R20, 0
   \   0000003E   A742               STD     Z+42, R20
   \   00000040   A743               STD     Z+43, R20
   \   00000042   A744               STD     Z+44, R20
   \   00000044   A745               STD     Z+45, R20
   1302            }
   1303            simka=simka & 0x01; 
   \                     ??start_func_stm_on_0:
   \   00000046   01F8               MOVW    R31:R30, R17:R16
   \   00000048   8922               LDD     R18, Z+18
   \   0000004A   7021               ANDI    R18, 0x01
   \   0000004C   8B22               STD     Z+18, R18
   1304            if(simka==SIM_BASE)
   \   0000004E   ........           CALL    ??Subroutine168_0
   \                     ??CrossCallReturnLabel_232:
   \   00000052   F459               BRNE    ??start_func_stm_on_1
   1305              {
   1306                 
   1307                 SET_SIM1;
   \   00000054   7E0F               ANDI    R16, 0xEF
   \   00000056   ........           CALL    ?Subroutine168
   \                     ??CrossCallReturnLabel_230:
   \   0000005A   6200               ORI     R16, 0x20
   \   0000005C   ....               RCALL   ?Subroutine319
   1308                 write_log_info(ST_MODEM,BASE_SIM);
   \                     ??CrossCallReturnLabel_925:
   \   0000005E   E016               LDI     R17, 6
   \   00000060   ....               RCALL   ?Subroutine172
   1309                 send_info(sizeof(stm_base_sim),stm_base_sim,0,0);   
   \                     ??CrossCallReturnLabel_816:
   \   00000062   ....               LDI     R18, LOW((stm_pwr_on + 10))
   \   00000064   ....               LDI     R19, HIGH((stm_pwr_on + 10))
   \   00000066   E00C               LDI     R16, 12
   \   00000068   C00A               RJMP    ??start_func_stm_on_2
   1310              }else
   1311              {
   1312                SET_SIM2;
   \                     ??start_func_stm_on_1:
   \   0000006A   7D0F               ANDI    R16, 0xDF
   \   0000006C   ........           CALL    ?Subroutine168
   \                     ??CrossCallReturnLabel_231:
   \   00000070   6100               ORI     R16, 0x10
   \   00000072   ....               RCALL   ?Subroutine319
   1313                write_log_info(ST_MODEM,RES_SIM);
   \                     ??CrossCallReturnLabel_926:
   \   00000074   E017               LDI     R17, 7
   \   00000076   ....               RCALL   ?Subroutine172
   1314                send_info(sizeof(stm_res_sim),stm_res_sim,0,0);  
   \                     ??CrossCallReturnLabel_817:
   \   00000078   ....               LDI     R18, LOW((stm_pwr_on + 22))
   \   0000007A   ....               LDI     R19, HIGH((stm_pwr_on + 22))
   \   0000007C   E00B               LDI     R16, 11
   \                     ??start_func_stm_on_2:
   \   0000007E   ....               RCALL   ??Subroutine291_0
   1315              }
   1316            ///EEEEEEEEEEEE dobavka
   1317            
   1318          // A7682 по умолчанию 115200
   1319           UBRR0H=R115200_H;
   \                     ??CrossCallReturnLabel_839:
   \   00000080   E000               LDI     R16, 0
   \   00000082   930000C5           STS     197, R16
   1320           UBRR0L=R115200_L;
   \   00000086   E008               LDI     R16, 8
   \   00000088   930000C4           STS     196, R16
   1321           
   1322            state_led_md=LED_MD_NO_CREG;
   \   0000008C   E002               LDI     R16, 2
   \   0000008E   9300....           STS     state_led_md, R16
   1323            command_AT=TRUE;// включен коммандный режим
   \   00000092   ....               RCALL   ?Subroutine25
   \                     ??CrossCallReturnLabel_437:
   \   00000094   AB04               STD     Z+52, R16
   1324            SET_RTS0;
   \   00000096   9872               CBI     0x0E, 0x02
   1325            SET_PWR;
   \   00000098   ........           CALL    ??Subroutine168_0
   \                     ??CrossCallReturnLabel_233:
   \   0000009C   6400               ORI     R16, 0x40
   \   0000009E   ....               RCALL   ?Subroutine319
   1326            CLR_PWRK;
   \                     ??CrossCallReturnLabel_927:
   \   000000A0   982C               CBI     0x05, 0x04
   1327            state_modem=STM_ON;
   \   000000A2   E001               LDI     R16, 1
   \   000000A4   AB02               STD     Z+50, R16
   1328            cnt_stm_tm1=DEF_TM_STM_ON;
   \   000000A6   E004               LDI     R16, 4
   \   000000A8   AB05               STD     Z+53, R16
   1329            cnt_stm_tm2=DEF_TM2_STM_ON;
   \   000000AA   E100               LDI     R16, 16
   \   000000AC   AB06               STD     Z+54, R16
   1330            event_modem=EVM_NONE; 
   \   000000AE   ....               RCALL   ?Subroutine12
   1331            // write_log_info(ST_MODEM,MDM_ON);
   1332            send_info(sizeof(stm_pwr_on),stm_pwr_on,0,0);    //ot dobavka   
   \                     ??CrossCallReturnLabel_809:
   \   000000B0   ....               LDI     R18, LOW(stm_pwr_on)
   \   000000B2   ....               LDI     R19, (stm_pwr_on) >> 8
   \   000000B4   ........           CALL    ?Subroutine296
   1333          }  
   \                     ??CrossCallReturnLabel_833:
   \   000000B8   ....               RJMP    ?Subroutine313

   \                                 In segment FARCODE, align 2, keep-with-next
   \                     ?Subroutine12:
   \   00000000   E000               LDI     R16, 0
   \   00000002   AB03               STD     Z+51, R16
   \   00000004   ....               RJMP    ??Subroutine253_0

   \                                 In segment FARCODE, align 2, keep-with-next
   \                     ?Subroutine309:
   \   00000000   ....               RJMP    ??Subroutine291_0

   \                                 In segment FARCODE, align 2, keep-with-next
   \                     ?Subroutine25:
   \   00000000   E001               LDI     R16, 1
   \   00000002   ....               RJMP    ??Subroutine250_0

   \                                 In segment FARCODE, align 2, keep-with-next
   \                     ?Subroutine264:
   \   00000000   ....               LDI     R30, LOW(Appl_seq)
   \   00000002   ....               LDI     R31, (Appl_seq) >> 8
   \   00000004   9508               RET

   \                                 In segment FARCODE, align 2, keep-with-next
   \                     ?Subroutine176:
   \   00000000   93BA               ST      -Y, R27
   \   00000002   93AA               ST      -Y, R26
   \   00000004   9508               RET

   \                                 In segment FARCODE, align 2, keep-with-next
   \                     ?Subroutine296:
   \   00000000   E00A               LDI     R16, 10
   \   00000002   ....               RJMP    ?Subroutine309

   \                                 In segment FARCODE, align 2, keep-with-next
   \                     ?Subroutine170:
   \   00000000   93000105           STS     261, R16
   \   00000004   9508               RET

   \                                 In segment FARCODE, align 2, keep-with-next
   \                     ?Subroutine168:
   \   00000000   93000105           STS     261, R16
   \                     ??Subroutine168_0:
   \   00000004   91000105           LDS     R16, 261
   \   00000008   9508               RET

   \                                 In segment FARCODE, align 2, keep-with-next
   \                     ?Subroutine184:
   \   00000000   91A9               LD      R26, Y+
   \   00000002   91B9               LD      R27, Y+
   \   00000004   9508               RET

   \                                 In segment FARCODE, align 2, keep-with-next
   \                     ?Subroutine177:
   \   00000000   ....               LDI     R26, LOW(Appl_RS485_1)
   \   00000002   ....               LDI     R27, (Appl_RS485_1) >> 8
   \   00000004   9508               RET
   1334          

   \                                 In segment FARCODE, align 2, keep-with-next
   1335          void start_func_stm_kon(void)
   \                     start_func_stm_kon:
   1336          { 
   1337            SET_PWRK;
   \   00000000   9A2C               SBI     0x05, 0x04
   1338            state_modem=STM_KON;
   \   00000002   ....               RCALL   ?Subroutine169
   \                     ??CrossCallReturnLabel_237:
   \   00000004   E002               LDI     R16, 2
   \   00000006                      REQUIRE ?Subroutine13
   \   00000006                      ;               // Fall through to label ?Subroutine13
   1339            cnt_stm_tm1=DEF_TM_STM_KON;
   1340            event_modem=EVM_NONE; 
   1341          
   1342          }  

   \                                 In segment FARCODE, align 2, keep-with-next
   \                     ?Subroutine169:
   \   00000000   ....               LDI     R30, LOW(Appl_RS485_1)
   \   00000002   ....               LDI     R31, (Appl_RS485_1) >> 8
   \   00000004   9508               RET
   1343          

   \                                 In segment FARCODE, align 2, keep-with-next
   1344          void start_func_stm_pwk(void)
   \                     start_func_stm_pwk:
   1345          { 
   1346            CLR_PWRK
   \   00000000   982C               CBI     0x05, 0x04
   1347            state_modem=STM_PWK;
   \   00000002   ....               RCALL   ?Subroutine169
   \                     ??CrossCallReturnLabel_238:
   \   00000004   E003               LDI     R16, 3
   \   00000006   AB02               STD     Z+50, R16
   1348            cnt_stm_tm1=DEF_TM_STM_PWK;
   \   00000008   E004               LDI     R16, 4
   \   0000000A   AB05               STD     Z+53, R16
   1349            event_modem=EVM_NONE;
   \   0000000C   ....               RCALL   ?Subroutine12
   1350            send_info(sizeof(stm_pwr_kon),stm_pwr_kon,0,0);
   \                     ??CrossCallReturnLabel_810:
   \   0000000E   ....               LDI     R18, LOW(stm_pwr_kon)
   \   00000010   ....               LDI     R19, (stm_pwr_kon) >> 8
   \   00000012   ....               RJMP    ?Subroutine291
   1351          }  
   1352          
   1353          
   1354          

   \                                 In segment FARCODE, align 2, keep-with-next
   \                     ?Subroutine314:
   \   00000000   ........           JMP     ??Subroutine91_0

   \                                 In segment FARCODE, align 2, keep-with-next
   1355          void start_func_stm_scp(void)
   \                     start_func_stm_scp:
   1356          {
   \   00000000   ........           CALL    ?Subroutine176
   1357             unsigned char temp;
   1358             clr_var_ppp_rx();
   \                     ??CrossCallReturnLabel_253:
   \   00000004   ....               RCALL   clr_var_ppp_rx
   1359          
   1360             UCSR0B=UCSR0B & ~RXEN;
   \   00000006   ....               RCALL   ?Subroutine179
   1361             UCSR0B=UCSR0B & ~RXCIE;
   1362           
   1363           //******************************************************************
   1364             //UCSR0B=UCSR0B & ~TXEN;  !!!!!!
   1365             
   1366             UCSR0A=UCSR0A | TXC;
   \                     ??CrossCallReturnLabel_561:
   \   00000008   910000C0           LDS     R16, 192
   \   0000000C   6400               ORI     R16, 0x40
   \   0000000E   930000C0           STS     192, R16
   1367           
   1368             command_AT=FALSE;// выключен коммандный режим
   \   00000012   ........           CALL    ?Subroutine177
   \                     ??CrossCallReturnLabel_260:
   \   00000016   ....               RCALL   ?Subroutine11
   \                     ??CrossCallReturnLabel_433:
   \   00000018   AB04               STD     Z+52, R16
   1369           
   1370             clr_var_ppp();
   \   0000001A   ....               RCALL   clr_var_ppp
   1371            
   1372             count_tx_ppp=0; 
   \   0000001C   E000               LDI     R16, 0
   \   0000001E   E010               LDI     R17, 0
   \   00000020   01FD               MOVW    R31:R30, R27:R26
   \   00000022   A706               STD     Z+46, R16
   \   00000024   A707               STD     Z+47, R16
   1373           // для активации установки соединения PPP 
   1374            //!!!!!!!!!!!!!!!!!!!!!!!!!!!!!!!!!!!!!!!!!!!!!!!
   1375            
   1376            fl_lcp1.up=1;
   1377            fl_lcp1.down=0;
   \   00000026   9100....           LDS     R16, fl_lcp1
   \   0000002A   7F0D               ANDI    R16, 0xFD
   \   0000002C   6001               ORI     R16, 0x01
   \   0000002E   9300....           STS     fl_lcp1, R16
   1378           //конфигурация соединения  
   1379           
   1380            //конфигурация канала
   1381            
   1382            layer_PPP=LAYER_LCP;
   \   00000032   E001               LDI     R16, 1
   \   00000034   AF05               STD     Z+61, R16
   1383            LCP_state=START_ST; 
   \   00000036   9300....           STS     LCP_state, R16
   1384            
   1385            IPCP_event=NO_EVENT;
   \   0000003A   EF0F               LDI     R16, 255
   \   0000003C   9300....           STS     IPCP_event, R16
   1386            LCP_event=NO_EVENT;
   \   00000040   9300....           STS     LCP_event, R16
   1387            PAP_event=NO_EVENT;
   \   00000044   9300....           STS     PAP_event, R16
   1388           
   1389            uk_in_act_IPCP=0;
   \   00000048   9310....           STS     uk_in_act_IPCP, R17
   1390            uk_out_act_IPCP=0;
   \   0000004C   9310....           STS     uk_out_act_IPCP, R17
   1391            
   1392            uk_in_act_LCP=0;
   \   00000050   9310....           STS     uk_in_act_LCP, R17
   1393            uk_out_act_LCP=0;
   \   00000054   9310....           STS     uk_out_act_LCP, R17
   1394            
   1395            cnt_lcp_tm_out=VOL_LCP_TM_OUT;
   \   00000058   EB08               LDI     R16, 184
   \   0000005A   E01B               LDI     R17, 11
   \   0000005C   ....               LDI     R30, LOW(cnt_lcp_tm_out)
   \   0000005E   ....               LDI     R31, (cnt_lcp_tm_out) >> 8
   \   00000060   ....               RCALL   ?Subroutine145
   1396            fl_lcp.act_lcp_end=1;           //действия все закончены
   \                     ??CrossCallReturnLabel_187:
   \   00000062   ....               LDI     R30, LOW(fl_lcp)
   \   00000064   ....               LDI     R31, (fl_lcp) >> 8
   \   00000066   ....               RCALL   ?Subroutine314
   1397            fl_pap.act_pap_end=1;     
   \                     ??CrossCallReturnLabel_854:
   \   00000068   ....               LDI     R30, LOW(fl_pap)
   \   0000006A   ....               LDI     R31, (fl_pap) >> 8
   \   0000006C   ....               RCALL   ?Subroutine314
   1398            fl_ipcp.act_ipcp_end=1;
   \                     ??CrossCallReturnLabel_855:
   \   0000006E   ....               LDI     R30, LOW(fl_ipcp)
   \   00000070   ....               LDI     R31, (fl_ipcp) >> 8
   \   00000072   ....               RCALL   ?Subroutine314
   1399            fl_ip.act_ip_end=1;
   \                     ??CrossCallReturnLabel_856:
   \   00000074   ........           CALL    ?Subroutine188
   \                     ??CrossCallReturnLabel_269:
   \   00000078   ....               RCALL   ?Subroutine314
   1400            //!!!!!!!!!!!!!!!!!!!!!!!!!!!!!!!!!!!!!!!!!!!!!!!  
   1401            
   1402            UCSR0B=UCSR0B | RXEN; 
   \                     ??CrossCallReturnLabel_857:
   \   0000007A   ........           CALL    ?Subroutine185
   \                     ??CrossCallReturnLabel_265:
   \   0000007E   6100               ORI     R16, 0x10
   \   00000080   ....               RCALL   ?Subroutine270
   1403            temp=UDR0;
   \                     ??CrossCallReturnLabel_563:
   \   00000082   910000C6           LDS     R16, 198
   1404            UCSR0B=UCSR0B | RXCIE;  
   \   00000086   ........           CALL    ?Subroutine185
   \                     ??CrossCallReturnLabel_266:
   \   0000008A   6800               ORI     R16, 0x80
   \   0000008C   ....               RCALL   ?Subroutine270
   1405            
   1406            cnt_stm_tm1=DEF_TM_STM_SCP; 
   \                     ??CrossCallReturnLabel_564:
   \   0000008E   E10E               LDI     R16, 30
   \   00000090   01FD               MOVW    R31:R30, R27:R26
   \   00000092   AB05               STD     Z+53, R16
   1407            cnt_stm_tm2=DEF_TM2_STM_SCP; 
   \   00000094   E208               LDI     R16, 40
   \   00000096   AB06               STD     Z+54, R16
   1408          }     
   \   00000098   ....               RJMP    ?Subroutine313

   \                                 In segment FARCODE, align 2, keep-with-next
   \                     ?Subroutine179:
   \   00000000   910000C1           LDS     R16, 193
   \   00000004   7E0F               ANDI    R16, 0xEF
   \   00000006   930000C1           STS     193, R16
   \   0000000A   910000C1           LDS     R16, 193
   \   0000000E   770F               ANDI    R16, 0x7F
   \   00000010                      REQUIRE ?Subroutine270
   \   00000010                      ;               // Fall through to label ?Subroutine270

   \                                 In segment FARCODE, align 2, keep-with-next
   \                     ?Subroutine270:
   \   00000000   930000C1           STS     193, R16
   \   00000004   9508               RET

   \                                 In segment FARCODE, align 2, keep-with-next
   \                     ?Subroutine185:
   \   00000000   910000C1           LDS     R16, 193
   \   00000004   9508               RET

   \                                 In segment FARCODE, align 2, keep-with-next
   \                     ?Subroutine188:
   \   00000000   ....               LDI     R30, LOW(fl_ip)
   \   00000002   ....               LDI     R31, (fl_ip) >> 8
   \   00000004   9508               RET

   \                                 In segment FARCODE, align 2, keep-with-next
   \                     ?Subroutine91:
   \   00000000   ....               LDI     R30, LOW((Appl_RS485_1 + 60))
   \   00000002   ....               LDI     R31, HIGH((Appl_RS485_1 + 60))
   \                     ??Subroutine91_0:
   \   00000004   8100               LD      R16, Z
   \   00000006   6001               ORI     R16, 0x01
   \   00000008   ....               RJMP    ?Subroutine279

   \                                 In segment FARCODE, align 2, keep-with-next
   \                     ?Subroutine279:
   \   00000000   8300               ST      Z, R16
   \   00000002   9508               RET
   1409          
   1410          
   1411          
   1412          
   1413          
   1414          
   1415          
   1416          
   1417          
   1418           //подготовка буфера к отправке по PPP 
   1419           

   \                                 In segment FARCODE, align 2, keep-with-next
   1420          void form_buf_tx_ppp(void) 
   \                     form_buf_tx_ppp:
   1421          {   
   \   00000000   ....               RCALL   ?Subroutine128
   \                     ??CrossCallReturnLabel_166:
   \   00000002                      REQUIRE ?Register_R6_is_cg_reg
   \   00000002                      REQUIRE ?Register_R7_is_cg_reg
   \   00000002   9722               SBIW    R29:R28, 2
   1422          unsigned int i;
   1423          unsigned char nopp,j;     
   1424          unsigned char *pointer; 
   1425          union
   1426           {
   1427           unsigned char bytes[2]; 
   1428           unsigned int word;
   1429           } temp;
   1430          
   1431           
   1432           buf_tx_232[PPP_BEG]=0x7e;               
   \   00000004   ....               LDI     R26, LOW(buf_tx_232)
   \   00000006   ....               LDI     R27, (buf_tx_232) >> 8
   \   00000008   E70E               LDI     R16, 126
   \   0000000A   930C               ST      X, R16
   1433           buf_tx_232[PPP_PROT]=0x21;
   \   0000000C   E201               LDI     R16, 33
   \   0000000E   ....               RCALL   ?Subroutine117
   1434                            
   1435                     //заголовок IP
   1436            buf_tx_232[IP_VLEN]=0x45;               
   \                     ??CrossCallReturnLabel_591:
   \   00000010   E405               LDI     R16, 69
   \   00000012   8302               STD     Z+2, R16
   1437            buf_tx_232[IP_TYPE]=0;               
   \   00000014   E000               LDI     R16, 0
   \   00000016   8303               STD     Z+3, R16
   1438            
   1439             
   1440            
   1441            //общая длина IP 
   1442            //20 -IP
   1443            //8 -UDP
   1444            //12 - Заголовок Данных
   1445            //+ Длина буфера опций
   1446            //+ Заполнитель
   1447            //+ Длина данных
   1448            nopp=0;
   \   00000018   2466               CLR     R6
   1449            
   1450            // Расчет заполнителя
   1451            if(Obj_ppp_tx.prozr==FALSE)
   \   0000001A   ....               LDI     R24, LOW(Obj_ppp_tx)
   \   0000001C   ....               LDI     R25, (Obj_ppp_tx) >> 8
   \   0000001E   ....               RCALL   ?Subroutine97
   \                     ??CrossCallReturnLabel_616:
   \   00000020   2300               TST     R16
   \   00000022   F4C9               BRNE    ??form_buf_tx_ppp_0
   1452            {
   1453             if((Obj_ppp_tx.l_opt<=4)&&(Obj_ppp_tx.l_opt>0))nopp=4-Obj_ppp_tx.l_opt;   
   \   00000024   8502               LDD     R16, Z+10
   \   00000026   3005               CPI     R16, 5
   \   00000028   F428               BRCC    ??form_buf_tx_ppp_1
   \   0000002A   2300               TST     R16
   \   0000002C   F019               BREQ    ??form_buf_tx_ppp_1
   \   0000002E   E014               LDI     R17, 4
   \   00000030   2E61               MOV     R6, R17
   \   00000032   1A60               SUB     R6, R16
   1454             if(Obj_ppp_tx.l_opt%4!=0) nopp=4-Obj_ppp_tx.l_opt%4;
   \                     ??form_buf_tx_ppp_1:
   \   00000034   2F10               MOV     R17, R16
   \   00000036   7013               ANDI    R17, 0x03
   \   00000038   F019               BREQ    ??form_buf_tx_ppp_2
   \   0000003A   E024               LDI     R18, 4
   \   0000003C   2E62               MOV     R6, R18
   \   0000003E   1A61               SUB     R6, R17
   1455             temp.word=20+8+12+Obj_ppp_tx.l_opt+nopp+Obj_ppp_tx.l_data;
   \                     ??form_buf_tx_ppp_2:
   \   00000040   2F20               MOV     R18, R16
   \   00000042   ....               RCALL   ?Subroutine142
   \                     ??CrossCallReturnLabel_182:
   \   00000044   5D08               SUBI    R16, 216
   \   00000046   4F1F               SBCI    R17, 255
   \   00000048   8526               LDD     R18, Z+14
   \   0000004A   8537               LDD     R19, Z+15
   \   0000004C   0F20               ADD     R18, R16
   \   0000004E   1F31               ADC     R19, R17
   \   00000050   8328               ST      Y, R18
   \   00000052   8339               STD     Y+1, R19
   \   00000054   C004               RJMP    ??CrossCallReturnLabel_204
   1456            }else temp.word=20+8+Obj_ppp_tx.l_data;
   \                     ??form_buf_tx_ppp_0:
   \   00000056   ........           CALL    ??Subroutine190_0
   \                     ??CrossCallReturnLabel_275:
   \   0000005A   5E04               SUBI    R16, 228
   \   0000005C   ....               RCALL   ?Subroutine155
   1457             
   1458            buf_tx_232[IP_LN]=temp.bytes[1]; //длина IP пакета         ///////////////!!!!!!!!!!!!!!!!!      
   \                     ??CrossCallReturnLabel_204:
   \   0000005E   8109               LDD     R16, Y+1
   \   00000060   01FD               MOVW    R31:R30, R27:R26
   \   00000062   8304               STD     Z+4, R16
   1459            buf_tx_232[IP_LN+1]=temp.bytes[0];                         ///////////////!!!!!!!!!!!!!!!!!
   \   00000064   8108               LD      R16, Y
   \   00000066   8305               STD     Z+5, R16
   1460                
   1461            buf_tx_232[IP_ID]=0;               
   \   00000068   E000               LDI     R16, 0
   \   0000006A   ....               RCALL   ?Subroutine92
   1462            buf_tx_232[IP_ID+1]=0;
   1463            
   1464            buf_tx_232[IP_FUK]=0;               
   1465            buf_tx_232[IP_FUK+1]=0; 
   1466            buf_tx_232[IP_TIME]=0x80;    
   \                     ??CrossCallReturnLabel_111:
   \   0000006C   E800               LDI     R16, 128
   \   0000006E   8702               STD     Z+10, R16
   1467            buf_tx_232[IP_PROT]=0x11;     //UDP
   \   00000070   E101               LDI     R16, 17
   \   00000072   8703               STD     Z+11, R16
   1468            
   1469           // buf_tx_232[IP_CRC]=0;     
   1470           // buf_tx_232[IP_CRC+1]=0; //IP - CRC
   1471            *(unsigned int*)&buf_tx_232[IP_CRC]=0;
   \   00000074   E000               LDI     R16, 0
   \   00000076   8704               STD     Z+12, R16
   \   00000078   8705               STD     Z+13, R16
   1472               
   1473            buf_tx_232[IP_SRC]=ip_self[0];
   \   0000007A   ....               RCALL   ?Subroutine191
   \                     ??CrossCallReturnLabel_280:
   \   0000007C   8100               LD      R16, Z
   \   0000007E   01FD               MOVW    R31:R30, R27:R26
   \   00000080   8706               STD     Z+14, R16
   1474            buf_tx_232[IP_SRC+1]=ip_self[1]; 
   \   00000082   ....               RCALL   ?Subroutine191
   \                     ??CrossCallReturnLabel_281:
   \   00000084   8101               LDD     R16, Z+1
   \   00000086   01FD               MOVW    R31:R30, R27:R26
   \   00000088   8707               STD     Z+15, R16
   1475            buf_tx_232[IP_SRC+2]=ip_self[2];    
   \   0000008A   ....               RCALL   ?Subroutine191
   \                     ??CrossCallReturnLabel_282:
   \   0000008C   8102               LDD     R16, Z+2
   \   0000008E   01FD               MOVW    R31:R30, R27:R26
   \   00000090   8B00               STD     Z+16, R16
   1476            buf_tx_232[IP_SRC+3]=ip_self[3];
   \   00000092   ....               RCALL   ?Subroutine191
   \                     ??CrossCallReturnLabel_283:
   \   00000094   8103               LDD     R16, Z+3
   \   00000096   01FD               MOVW    R31:R30, R27:R26
   \   00000098   8B01               STD     Z+17, R16
   1477            
   1478            buf_tx_232[IP_DST]=ip_ls[0]; 
   \   0000009A   ....               LDI     R16, LOW(Appl_seq)
   \   0000009C   ....               LDI     R17, (Appl_seq) >> 8
   \   0000009E   01F8               MOVW    R31:R30, R17:R16
   \   000000A0   A524               LDD     R18, Z+44
   \   000000A2   01FD               MOVW    R31:R30, R27:R26
   \   000000A4   8B22               STD     Z+18, R18
   1479            buf_tx_232[IP_DST+1]=ip_ls[1];    
   \   000000A6   01F8               MOVW    R31:R30, R17:R16
   \   000000A8   A525               LDD     R18, Z+45
   \   000000AA   01FD               MOVW    R31:R30, R27:R26
   \   000000AC   8B23               STD     Z+19, R18
   1480            buf_tx_232[IP_DST+2]=ip_ls[2]; 
   \   000000AE   01F8               MOVW    R31:R30, R17:R16
   \   000000B0   A526               LDD     R18, Z+46
   \   000000B2   01FD               MOVW    R31:R30, R27:R26
   \   000000B4   8B24               STD     Z+20, R18
   1481            buf_tx_232[IP_DST+3]=ip_ls[3];    
   \   000000B6   01F8               MOVW    R31:R30, R17:R16
   \   000000B8   A527               LDD     R18, Z+47
   \   000000BA   01FD               MOVW    R31:R30, R27:R26
   \   000000BC   8B25               STD     Z+21, R18
   1482                                          
   1483           // buf_tx_232[18]=read_eeprom(ADR_IP_SRV);
   1484           // buf_tx_232[19]=read_eeprom(ADR_IP_SRV+1);
   1485           // buf_tx_232[20]=read_eeprom(ADR_IP_SRV+2);
   1486            //buf_tx_232[21]=read_eeprom(ADR_IP_SRV+3);
   1487                           
   1488                                           
   1489           //заголовок UDP
   1490            //buf_tx_232[22]=UDP_PORT_H;
   1491            //buf_tx_232[23]=UDP_PORT_L;
   1492            //buf_tx_232[24]=UDP_PORT_H;
   1493            //buf_tx_232[25]=UDP_PORT_L;       
   1494            /*
   1495            buf_tx_232[UDP_PSRC]=read_eeprom(ADR_UDP_PORT_HI);
   1496            buf_tx_232[UDP_PSRC+1]=read_eeprom(ADR_UDP_PORT_LO);
   1497            buf_tx_232[UDP_PDST]=read_eeprom(ADR_UDP_PORT_HI);
   1498            buf_tx_232[UDP_PDST+1]=read_eeprom(ADR_UDP_PORT_LO);
   1499            */
   1500            buf_tx_232[UDP_PSRC]=port_udp>>8;
   \   000000BE   5C04               SUBI    R16, 196
   \   000000C0   4F1F               SBCI    R17, 255
   \   000000C2   ........           CALL    ?Subroutine72
   \                     ??CrossCallReturnLabel_72:
   \   000000C6   8131               LDD     R19, Z+1
   \   000000C8   01FD               MOVW    R31:R30, R27:R26
   \   000000CA   8B36               STD     Z+22, R19
   1501            buf_tx_232[UDP_PSRC+1]=port_udp;
   \   000000CC   8B27               STD     Z+23, R18
   1502            buf_tx_232[UDP_PDST]=port_udp>>8;
   \   000000CE   8F30               STD     Z+24, R19
   1503            buf_tx_232[UDP_PDST+1]=port_udp;
   \   000000D0   8F21               STD     Z+25, R18
   1504            
   1505            
   1506              //общая длина UDP 
   1507            
   1508           // 8 -UDP
   1509           // 12 - Заголовок Данных
   1510           // + Длина буфера опций
   1511           // + Заполнитель
   1512           // + Длина данных
   1513             
   1514           
   1515             temp.word=temp.word-20;
   \   000000D2   ....               RCALL   ?Subroutine262
   \                     ??CrossCallReturnLabel_516:
   \   000000D4   5104               SUBI    R16, 20
   \   000000D6   4010               SBCI    R17, 0
   \   000000D8   ....               RCALL   ??Subroutine155_0
   1516            
   1517            buf_tx_232[UDP_LN]=temp.bytes[1]; ///////////////длина UDP 
   \                     ??CrossCallReturnLabel_205:
   \   000000DA   8F12               STD     Z+26, R17
   1518            buf_tx_232[UDP_LN+1]=temp.bytes[0];        ////////////   
   \   000000DC   8108               LD      R16, Y
   \   000000DE   8F03               STD     Z+27, R16
   1519              
   1520            //buf_tx_232[UDP_CRC]=0;        //СRС UDP пакета
   1521            //buf_tx_232[UDP_CRC+1]=0;
   1522            *(unsigned int*)&buf_tx_232[UDP_CRC]=0; 
   \   000000E0   E000               LDI     R16, 0
   \   000000E2   8F04               STD     Z+28, R16
   \   000000E4   8F05               STD     Z+29, R16
   1523              
   1524           if(Obj_ppp_tx.prozr==FALSE)
   \   000000E6   ....               RCALL   ?Subroutine97
   \                     ??CrossCallReturnLabel_617:
   \   000000E8   2300               TST     R16
   \   000000EA   F009               BREQ    $+2+2
   \   000000EC   C06A               RJMP    ??form_buf_tx_ppp_3
   1525            {  
   1526           //Транспортный заголовок
   1527           //buf_tx_232[30]=0;        //CRC
   1528           //buf_tx_232[31]=0; 
   1529           //*(unsigned int*)&buf_tx_232[TR_CRC]=0;
   1530                                       
   1531           temp.word=temp.word-8;                             
   \   000000EE   ....               RCALL   ?Subroutine262
   \                     ??CrossCallReturnLabel_517:
   \   000000F0   5008               SUBI    R16, 8
   \   000000F2   4010               SBCI    R17, 0
   \   000000F4   ....               RCALL   ??Subroutine155_0
   1532           //buf_tx_232[32]=temp.bytes[1];        //полная длина
   1533           //buf_tx_232[33]=temp.bytes[0];                 
   1534           *(unsigned int*)&buf_tx_232[TR_LEN]=temp.word;
   \                     ??CrossCallReturnLabel_206:
   \   000000F6   01FD               MOVW    R31:R30, R27:R26
   \   000000F8   A300               STD     Z+32, R16
   \   000000FA   A311               STD     Z+33, R17
   1535           
   1536          // buf_tx_232[34]=0;        //шифр
   1537          // buf_tx_232[35]=0;              
   1538           
   1539            *(unsigned int*)&buf_tx_232[TR_KOD]=0;        
   \   000000FC   E000               LDI     R16, 0
   \   000000FE   A302               STD     Z+34, R16
   \   00000100   A303               STD     Z+35, R16
   1540                    
   1541           buf_tx_232[TR_V]=Obj_ppp_tx.version;                                     //версия
   1542           buf_tx_232[TR_V]=(buf_tx_232[TR_V]<<2) | Obj_ppp_tx.type_pac;              // тип
   1543           buf_tx_232[TR_V]=(buf_tx_232[TR_V]<<4) | ((12+Obj_ppp_tx.l_opt+nopp)/4);   // длина траспортного заголовка
   \   00000102   01FC               MOVW    R31:R30, R25:R24
   \   00000104   8111               LDD     R17, Z+1
   \   00000106   0F11               LSL     R17
   \   00000108   0F11               LSL     R17
   \   0000010A   8102               LDD     R16, Z+2
   \   0000010C   2B01               OR      R16, R17
   \   0000010E   9502               SWAP    R16
   \   00000110   7F00               ANDI    R16, 0xF0
   \   00000112   2E70               MOV     R7, R16
   \   00000114   8522               LDD     R18, Z+10
   \   00000116   ....               RCALL   ?Subroutine142
   \                     ??CrossCallReturnLabel_183:
   \   00000118   5F04               SUBI    R16, 244
   \   0000011A   4F1F               SBCI    R17, 255
   \   0000011C   E044               LDI     R20, 4
   \   0000011E   E050               LDI     R21, 0
   \   00000120   ........           CALL    ?SS_DIVMOD_L02
   \   00000124   2907               OR      R16, R7
   \   00000126   01FD               MOVW    R31:R30, R27:R26
   \   00000128   A304               STD     Z+36, R16
   1544              
   1545           
   1546           buf_tx_232[TR_ID]=Obj_ppp_tx.id_pac; 
   \   0000012A   01FC               MOVW    R31:R30, R25:R24
   \   0000012C   8107               LDD     R16, Z+7
   \   0000012E   01FD               MOVW    R31:R30, R27:R26
   \   00000130   A305               STD     Z+37, R16
   1547           
   1548             *(unsigned int*)&buf_tx_232[TR_SRC]=Obj_ppp_tx.num_src;   //номер отправителя
   \   00000132   01FC               MOVW    R31:R30, R25:R24
   \   00000134   8103               LDD     R16, Z+3
   \   00000136   8114               LDD     R17, Z+4
   \   00000138   01FD               MOVW    R31:R30, R27:R26
   \   0000013A   8F06               STD     Z+30, R16
   \   0000013C   8F17               STD     Z+31, R17
   1549             *(unsigned int*)&buf_tx_232[TR_DST]=Obj_ppp_tx.num_dst;   //номер получателя 
   \   0000013E   01FC               MOVW    R31:R30, R25:R24
   \   00000140   8105               LDD     R16, Z+5
   \   00000142   8116               LDD     R17, Z+6
   \   00000144   01FD               MOVW    R31:R30, R27:R26
   \   00000146   A700               STD     Z+40, R16
   \   00000148   A711               STD     Z+41, R17
   1550           
   1551                     
   1552           pointer=&buf_tx_232[TR_OP_DATA];         
   \   0000014A   018D               MOVW    R17:R16, R27:R26
   \   0000014C   5D06               SUBI    R16, 214
   \   0000014E   4F1F               SBCI    R17, 255
   1553            
   1554           //Забивка опции и заполнителя
   1555           if(Obj_ppp_tx.l_opt!=0)
   \   00000150   2322               TST     R18
   \   00000152   F0E9               BREQ    ??form_buf_tx_ppp_4
   1556           {
   1557            for(j=0;j<Obj_ppp_tx.l_opt;j++)
   \   00000154   E040               LDI     R20, 0
   \   00000156   C00E               RJMP    ??form_buf_tx_ppp_5
   1558                {
   1559                 *pointer=*Obj_ppp_tx.p_opt;
   \                     ??form_buf_tx_ppp_6:
   \   00000158   8520               LDD     R18, Z+8
   \   0000015A   8531               LDD     R19, Z+9
   \   0000015C   01F9               MOVW    R31:R30, R19:R18
   \   0000015E   8120               LD      R18, Z
   \   00000160   01F8               MOVW    R31:R30, R17:R16
   \   00000162   9321               ST      Z+, R18
   \   00000164   018F               MOVW    R17:R16, R31:R30
   1560                 pointer++;
   1561                 Obj_ppp_tx.p_opt++;
   \   00000166   01FC               MOVW    R31:R30, R25:R24
   \   00000168   8520               LDD     R18, Z+8
   \   0000016A   8531               LDD     R19, Z+9
   \   0000016C   ....               RCALL   ?Subroutine298
   \                     ??CrossCallReturnLabel_802:
   \   0000016E   8720               STD     Z+8, R18
   \   00000170   8731               STD     Z+9, R19
   1562                }   
   \   00000172   9543               INC     R20
   \                     ??form_buf_tx_ppp_5:
   \   00000174   01FC               MOVW    R31:R30, R25:R24
   \   00000176   8522               LDD     R18, Z+10
   \   00000178   1742               CP      R20, R18
   \   0000017A   F370               BRCS    ??form_buf_tx_ppp_6
   1563            if(nopp!=0)
   \   0000017C   2066               TST     R6
   \   0000017E   F039               BREQ    ??form_buf_tx_ppp_4
   1564               for(j=0;j<nopp;j++)
   \   00000180   2D26               MOV     R18, R6
   1565                  {
   1566                  *pointer=NOPPER;
   \                     ??form_buf_tx_ppp_7:
   \   00000182   E030               LDI     R19, 0
   \   00000184   01F8               MOVW    R31:R30, R17:R16
   \   00000186   9331               ST      Z+, R19
   \   00000188   018F               MOVW    R17:R16, R31:R30
   1567                  pointer++; 
   1568                  }     
   \   0000018A   952A               DEC     R18
   \   0000018C   F7D1               BRNE    ??form_buf_tx_ppp_7
   1569           }
   1570             
   1571           //Забивка данных   
   1572           for(i=0;i<Obj_ppp_tx.l_data;i++)
   \                     ??form_buf_tx_ppp_4:
   \   0000018E   ....               RCALL   ?Subroutine315
   \                     ??CrossCallReturnLabel_879:
   \   00000190   C001               RJMP    ??CrossCallReturnLabel_791
   1573               {
   1574                 *pointer=*Obj_ppp_tx.p_data;
   \                     ??form_buf_tx_ppp_8:
   \   00000192   ....               RCALL   ?Subroutine64
   1575                 pointer++;
   1576                 Obj_ppp_tx.p_data++;
   1577                }   
   \                     ??CrossCallReturnLabel_791:
   \   00000194   01FC               MOVW    R31:R30, R25:R24
   \   00000196   ....               RCALL   ?Subroutine204
   \                     ??CrossCallReturnLabel_521:
   \   00000198   F3E0               BRCS    ??form_buf_tx_ppp_8
   1578           
   1579             //crc
   1580            *(unsigned int*)&buf_tx_232[TR_KOD]=0;
   \   0000019A   ....               RCALL   ?Subroutine11
   \                     ??CrossCallReturnLabel_434:
   \   0000019C   A302               STD     Z+34, R16
   \   0000019E   A303               STD     Z+35, R16
   1581           
   1582            *(unsigned int*)&buf_tx_232[TR_CRC]=0;
   \   000001A0   A306               STD     Z+38, R16
   \   000001A2   A307               STD     Z+39, R16
   1583            *(unsigned int*)&buf_tx_232[TR_CRC]=crc_m1(&buf_tx_232[TR_SRC],*(unsigned int*)&buf_tx_232[TR_LEN],0xffff);
   \   000001A4   ....               RCALL   ?Subroutine120
   \                     ??CrossCallReturnLabel_155:
   \   000001A6   A120               LDD     R18, Z+32
   \   000001A8   A131               LDD     R19, Z+33
   \   000001AA   018D               MOVW    R17:R16, R27:R26
   \   000001AC   5E02               SUBI    R16, 226
   \   000001AE   4F1F               SBCI    R17, 255
   \   000001B0   ....               RCALL   ?Subroutine292
   \                     ??CrossCallReturnLabel_706:
   \   000001B2   01FD               MOVW    R31:R30, R27:R26
   \   000001B4   A306               STD     Z+38, R16
   \   000001B6   A317               STD     Z+39, R17
   1584           
   1585          
   1586             kodirovka(*(unsigned int*)&buf_tx_232[TR_LEN]);
   \   000001B8   A100               LDD     R16, Z+32
   \   000001BA   A111               LDD     R17, Z+33
   \   000001BC   ........           CALL    kodirovka
   \   000001C0   C008               RJMP    ??form_buf_tx_ppp_9
   1587            
   1588             
   1589            }
   1590            else 
   1591            {
   1592            
   1593            pointer=&buf_tx_232[TR_SRC];   
   \                     ??form_buf_tx_ppp_3:
   \   000001C2   018D               MOVW    R17:R16, R27:R26
   \   000001C4   5E02               SUBI    R16, 226
   \   000001C6   4F1F               SBCI    R17, 255
   1594            for(i=0;i<Obj_ppp_tx.l_data;i++)
   \   000001C8   ....               RCALL   ?Subroutine315
   \                     ??CrossCallReturnLabel_880:
   \   000001CA   C001               RJMP    ??CrossCallReturnLabel_792
   1595               {
   1596                 *pointer=*Obj_ppp_tx.p_data;
   \                     ??form_buf_tx_ppp_10:
   \   000001CC   ....               RCALL   ?Subroutine64
   1597                 pointer++;
   1598                 Obj_ppp_tx.p_data++;
   1599                }   
   \                     ??CrossCallReturnLabel_792:
   \   000001CE   ....               RCALL   ?Subroutine204
   \                     ??CrossCallReturnLabel_522:
   \   000001D0   F3E8               BRCS    ??form_buf_tx_ppp_10
   1600             } 
   1601              
   1602             
   1603             
   1604           // temp.word=calc_crc_ip(&buf_tx_232[2],20);
   1605           // buf_tx_232[12]=temp.bytes[0]; 
   1606           // buf_tx_232[13]=temp.bytes[1];  
   1607            
   1608           
   1609            
   1610            
   1611           
   1612            *(unsigned int*)&buf_tx_232[IP_CRC]=calc_crc_ip(&buf_tx_232[IP_VLEN],20); 
   \                     ??form_buf_tx_ppp_9:
   \   000001D2   E124               LDI     R18, 20
   \   000001D4   E030               LDI     R19, 0
   \   000001D6   018D               MOVW    R17:R16, R27:R26
   \   000001D8   5F0E               SUBI    R16, 254
   \   000001DA   4F1F               SBCI    R17, 255
   \   000001DC   ........           CALL    calc_crc_ip
   \   000001E0   01FD               MOVW    R31:R30, R27:R26
   \   000001E2   8704               STD     Z+12, R16
   \   000001E4   8715               STD     Z+13, R17
   1613            
   1614          
   1615            temp.bytes[1]=buf_tx_232[UDP_LN]; ///////////////длина UDP 
   \   000001E6   8D02               LDD     R16, Z+26
   \   000001E8   8309               STD     Y+1, R16
   1616            temp.bytes[0]=buf_tx_232[UDP_LN+1];    
   \   000001EA   8D03               LDD     R16, Z+27
   \   000001EC   8308               ST      Y, R16
   1617            
   1618           // *(unsigned int*)&buf_tx_232[UDP_CRC]=calc_crc_udp(&buf_tx_232[UDP_PSRC],temp.word);
   1619            *(unsigned int*)&buf_tx_232[UDP_CRC]=calc_crc_udp_2(&buf_tx_232[0],temp.word);
   \   000001EE   2F20               MOV     R18, R16
   \   000001F0   8139               LDD     R19, Y+1
   \   000001F2   018D               MOVW    R17:R16, R27:R26
   \   000001F4   ........           CALL    calc_crc_udp_2
   \   000001F8   01FD               MOVW    R31:R30, R27:R26
   \   000001FA   8F04               STD     Z+28, R16
   \   000001FC   8F15               STD     Z+29, R17
   1620          
   1621            
   1622            i=buf_tx_232[IP_LN];
   1623            i=(i<<8)+buf_tx_232[IP_LN+1];  //длина IP пакета         ///////////////!!!!!!!!!!!!!!!!!  
   1624            i=i+5;                  //длина PPP пакета         ///////////////!!!!!!!!!!!!!!!!! 
   1625           
   1626            vol_tx_ppp=i;
   \   000001FE   8114               LDD     R17, Z+4
   \   00000200   8105               LDD     R16, Z+5
   \   00000202   5F0B               SUBI    R16, 251
   \   00000204   ....               RCALL   ?Subroutine189
   1627            temp.word=vol_tx_ppp-4;
   \                     ??CrossCallReturnLabel_273:
   \   00000206   01C8               MOVW    R25:R24, R17:R16
   \   00000208   9704               SBIW    R25:R24, 4
   \   0000020A   8388               ST      Y, R24
   \   0000020C   8399               STD     Y+1, R25
   1628           
   1629            if(compress_off==1)
   \   0000020E   9120....           LDS     R18, compress_off
   \   00000212   3021               CPI     R18, 1
   \   00000214   F4C1               BRNE    ??CrossCallReturnLabel_274
   1630                           {
   1631                             for (i=0;i < (vol_tx_ppp-1);i++)buf_tx_232[vol_tx_ppp+2-i]=buf_tx_232[vol_tx_ppp-1-i];
   \   00000216   ....               RCALL   ?Subroutine315
   \                     ??CrossCallReturnLabel_881:
   \   00000218   C006               RJMP    ??CrossCallReturnLabel_789
   \                     ??form_buf_tx_ppp_11:
   \   0000021A   ....               RCALL   ?Subroutine203
   \                     ??CrossCallReturnLabel_307:
   \   0000021C   8140               LD      R20, Z
   \   0000021E   01C8               MOVW    R25:R24, R17:R16
   \   00000220   9602               ADIW    R25:R24, 2
   \   00000222   ....               RCALL   ?Subroutine203
   \                     ??CrossCallReturnLabel_308:
   \   00000224   ....               RCALL   ?Subroutine202
   \                     ??CrossCallReturnLabel_789:
   \   00000226   01C8               MOVW    R25:R24, R17:R16
   \   00000228   9701               SBIW    R25:R24, 1
   \   0000022A   1728               CP      R18, R24
   \   0000022C   0739               CPC     R19, R25
   \   0000022E   F3A8               BRCS    ??form_buf_tx_ppp_11
   1632                             buf_tx_232[1]=0xff;
   \   00000230   EF0F               LDI     R16, 255
   \   00000232   ....               RCALL   ?Subroutine117
   1633                             buf_tx_232[2]=0x03;
   \                     ??CrossCallReturnLabel_592:
   \   00000234   E003               LDI     R16, 3
   \   00000236   8302               STD     Z+2, R16
   1634                             buf_tx_232[3]=0x00;
   \   00000238   E000               LDI     R16, 0
   \   0000023A   8303               STD     Z+3, R16
   1635                            // temp.word=temp.word+2;
   1636                             temp.word=temp.word+3;
   \   0000023C   ....               RCALL   ?Subroutine262
   \                     ??CrossCallReturnLabel_518:
   \   0000023E   5F0D               SUBI    R16, 253
   \   00000240   ....               RCALL   ?Subroutine155
   1637                             vol_tx_ppp=temp.word+4;
   \                     ??CrossCallReturnLabel_207:
   \   00000242   5F0C               SUBI    R16, 252
   \   00000244   ....               RCALL   ?Subroutine189
   1638                           }
   1639            
   1640            temp.word=pppfcs16(PPPINITFCS16,&buf_tx_232[1],temp.word) ^ 0xffff;
   \                     ??CrossCallReturnLabel_274:
   \   00000246   8148               LD      R20, Y
   \   00000248   8159               LDD     R21, Y+1
   \   0000024A   019D               MOVW    R19:R18, R27:R26
   \   0000024C   ....               RCALL   ?Subroutine298
   \                     ??CrossCallReturnLabel_803:
   \   0000024E   EF0F               LDI     R16, 255
   \   00000250   EF1F               LDI     R17, 255
   \   00000252   ........           CALL    pppfcs16
   \   00000256   EF2F               LDI     R18, 255
   \   00000258   EF3F               LDI     R19, 255
   \   0000025A   2720               EOR     R18, R16
   \   0000025C   2731               EOR     R19, R17
   \   0000025E   8328               ST      Y, R18
   \   00000260   8339               STD     Y+1, R19
   \   00000262   ....               RCALL   ?Subroutine191
   \                     ??CrossCallReturnLabel_284:
   \   00000264   8104               LDD     R16, Z+4
   \   00000266   8115               LDD     R17, Z+5
   \   00000268   0FA0               ADD     R26, R16
   \   0000026A   1FB1               ADC     R27, R17
   \   0000026C   9713               SBIW    R27:R26, 3
   \   0000026E   932C               ST      X, R18
   1641            buf_tx_232[vol_tx_ppp-3]=temp.bytes[0];
   1642            buf_tx_232[vol_tx_ppp-2]=temp.bytes[1];                 
   \   00000270   8109               LDD     R16, Y+1
   \   00000272   ....               RCALL   ?Subroutine117
   1643            buf_tx_232[vol_tx_ppp-1]=0x7e;  
   \                     ??CrossCallReturnLabel_593:
   \   00000274   E70E               LDI     R16, 126
   \   00000276   8302               STD     Z+2, R16
   1644            count_tx_ppp=0;
   \   00000278   E000               LDI     R16, 0
   \   0000027A   ....               RCALL   ?Subroutine169
   \                     ??CrossCallReturnLabel_239:
   \   0000027C   A706               STD     Z+46, R16
   \   0000027E   A707               STD     Z+47, R16
   1645            
   1646            
   1647            /* 
   1648            
   1649            temp.word=pppfcs16(PPPINITFCS16,&buf_tx_232[PPP_PROT],i-4) ^ 0xffff;    // //длина IP+1 т.е   
   1650            buf_tx_232[i-3]=temp.bytes[0];
   1651            buf_tx_232[i-2]=temp.bytes[1];                 
   1652            buf_tx_232[i-1]=0x7e;  
   1653            
   1654            vol_tx_ppp=i;
   1655            count_tx_ppp=0;                
   1656           */ 
   1657             
   1658            
   1659            /*
   1660            
   1661                           temp.word=temp.word+2;
   1662                           vol_tx_ppp=temp.word+4;
   1663                            
   1664                           if(compress_off==1)
   1665                           {
   1666                             for (k=0;k < (vol_tx_ppp-1);k++)buf_tx_232[vol_tx_ppp+1-k]=buf_tx_232[vol_tx_ppp-1-k];
   1667                             buf_tx_232[1]=0xff;
   1668                             buf_tx_232[2]=0x03;
   1669                             temp.word=temp.word+2;
   1670                             vol_tx_ppp=temp.word+4;
   1671                           }
   1672                           
   1673                            
   1674          
   1675                           temp.word=pppfcs16(PPPINITFCS16,&buf_tx_232[1],temp.word) ^ 0xffff;                  
   1676                           buf_tx_232[vol_tx_ppp-3]=temp.bytes[0];
   1677                           buf_tx_232[vol_tx_ppp-2]=temp.bytes[1];
   1678                           
   1679                           buf_tx_232[vol_tx_ppp-1]=0x7e; 
   1680            */
   1681            
   1682            
   1683            
   1684          } 
   \   00000280   9622               ADIW    R29:R28, 2
   \   00000282   ....               RJMP    ??Subroutine288_0

   \                                 In segment FARCODE, align 2, keep-with-next
   \                     ?Subroutine204:
   \   00000000   8546               LDD     R20, Z+14
   \   00000002   8557               LDD     R21, Z+15
   \   00000004                      REQUIRE ?Subroutine263
   \   00000004                      ;               // Fall through to label ?Subroutine263

   \                                 In segment FARCODE, align 2, keep-with-next
   \                     ?Subroutine263:
   \   00000000   1724               CP      R18, R20
   \   00000002   0735               CPC     R19, R21
   \   00000004   9508               RET

   \                                 In segment FARCODE, align 2, keep-with-next
   \                     ?Subroutine203:
   \   00000000   1B82               SUB     R24, R18
   \   00000002   0B93               SBC     R25, R19
   \   00000004   01FD               MOVW    R31:R30, R27:R26
   \   00000006   0FE8               ADD     R30, R24
   \   00000008   1FF9               ADC     R31, R25
   \   0000000A   9508               RET

   \                                 In segment FARCODE, align 2, keep-with-next
   \                     ?Subroutine191:
   \   00000000   ....               LDI     R30, LOW(ip_self)
   \   00000002   ....               LDI     R31, (ip_self) >> 8
   \   00000004   9508               RET

   \                                 In segment FARCODE, align 2, keep-with-next
   \                     ?Subroutine189:
   \   00000000   4F1F               SBCI    R17, 255
   \   00000002   ....               LDI     R30, LOW(ip_self)
   \   00000004   ....               LDI     R31, (ip_self) >> 8
   \   00000006   8304               STD     Z+4, R16
   \   00000008   8315               STD     Z+5, R17
   \   0000000A   9508               RET

   \                                 In segment FARCODE, align 2, keep-with-next
   \                     ?Subroutine155:
   \   00000000   4F1F               SBCI    R17, 255
   \                     ??Subroutine155_0:
   \   00000002   8308               ST      Y, R16
   \   00000004   8319               STD     Y+1, R17
   \   00000006   9508               RET

   \                                 In segment FARCODE, align 2, keep-with-next
   \                     ?Subroutine142:
   \   00000000   E030               LDI     R19, 0
   \   00000002   2D06               MOV     R16, R6
   \   00000004   E010               LDI     R17, 0
   \   00000006   0F02               ADD     R16, R18
   \   00000008   1F13               ADC     R17, R19
   \   0000000A   9508               RET

   \                                 In segment FARCODE, align 2, keep-with-next
   \                     ?Subroutine64:
   \   00000000   8544               LDD     R20, Z+12
   \   00000002   8555               LDD     R21, Z+13
   \   00000004   01FA               MOVW    R31:R30, R21:R20
   \   00000006   8140               LD      R20, Z
   \   00000008   01F8               MOVW    R31:R30, R17:R16
   \   0000000A   9341               ST      Z+, R20
   \   0000000C   018F               MOVW    R17:R16, R31:R30
   \   0000000E   01FC               MOVW    R31:R30, R25:R24
   \   00000010   8544               LDD     R20, Z+12
   \   00000012   8555               LDD     R21, Z+13
   \   00000014   5F4F               SUBI    R20, 255
   \   00000016   4F5F               SBCI    R21, 255
   \   00000018   8744               STD     Z+12, R20
   \   0000001A   8755               STD     Z+13, R21
   \   0000001C                      REQUIRE ?Subroutine298
   \   0000001C                      ;               // Fall through to label ?Subroutine298

   \                                 In segment FARCODE, align 2, keep-with-next
   \                     ?Subroutine298:
   \   00000000   5F2F               SUBI    R18, 255
   \   00000002   ....               RJMP    ??Subroutine251_1

   \                                 In segment FARCODE, align 2, keep-with-next
   \                     ?Subroutine251:
   \   00000000   E050               LDI     R21, 0
   \                     ??Subroutine251_0:
   \   00000002   019D               MOVW    R19:R18, R27:R26
   \   00000004   5D20               SUBI    R18, 208
   \                     ??Subroutine251_1:
   \   00000006   4F3F               SBCI    R19, 255
   \   00000008   9508               RET

   \                                 In segment FARCODE, align 2, keep-with-next
   \                     ?Subroutine276:
   \   00000000   8301               STD     Z+1, R16
   \   00000002   9508               RET

   \                                 In segment FARCODE, align 2, keep-with-next
   \                     ?Subroutine202:
   \   00000000   8340               ST      Z, R20
   \   00000002   ....               RJMP    ?Subroutine298

   \                                 In segment FARCODE, align 2, keep-with-next
   \                     ?Subroutine117:
   \   00000000   01FD               MOVW    R31:R30, R27:R26
   \   00000002   ....               RJMP    ?Subroutine276

   \                                 In segment FARCODE, align 2, keep-with-next
   \                     ?Subroutine97:
   \   00000000   01FC               MOVW    R31:R30, R25:R24
   \   00000002                      REQUIRE ?Subroutine280
   \   00000002                      ;               // Fall through to label ?Subroutine280

   \                                 In segment FARCODE, align 2, keep-with-next
   \                     ?Subroutine280:
   \   00000000   8100               LD      R16, Z
   \   00000002   9508               RET

   \                                 In segment FARCODE, align 2, keep-with-next
   \                     ?Subroutine72:
   \   00000000   01F8               MOVW    R31:R30, R17:R16
   \   00000002   8120               LD      R18, Z
   \   00000004   9508               RET

   \                                 In segment FARCODE, align 2, keep-with-next
   \                     ?Subroutine190:
   \   00000000   01FD               MOVW    R31:R30, R27:R26
   \                     ??Subroutine190_0:
   \   00000002   8506               LDD     R16, Z+14
   \   00000004   8517               LDD     R17, Z+15
   \   00000006   9508               RET
   1685          
   1686          
   1687          
   1688          
   1689          
   1690          
   1691          
   1692          
   1693          
   1694          
   1695          
   1696          
   1697          
   1698          

   \                                 In segment FARCODE, align 2, keep-with-next
   1699            void clr_cntr_link_2(void)
   \                     clr_cntr_link_2:
   1700           {
   1701           Control.link_waits=FALSE;
   \   00000000   ....               RCALL   ?Subroutine264
   \                     ??CrossCallReturnLabel_778:
   \   00000002   E000               LDI     R16, 0
   \   00000004   8F03               STD     Z+27, R16
   1702           Control.link=FALSE;
   \   00000006   ....               RCALL   ?Subroutine126
   1703           Control.cnt_link=Control.vol_link;
   1704           Control.cnt_try=0;
   \                     ??CrossCallReturnLabel_159:
   \   00000008   E000               LDI     R16, 0
   \   0000000A   A700               STD     Z+40, R16
   1705           Control.link_no=FALSE;
   \   0000000C   8F02               STD     Z+26, R16
   1706           } 
   \   0000000E   9508               RET

   \                                 In segment FARCODE, align 2, keep-with-next
   \                     ?Subroutine126:
   \   00000000   8F04               STD     Z+28, R16
   \   00000002   A102               LDD     R16, Z+34
   \   00000004   A113               LDD     R17, Z+35
   \   00000006   8F06               STD     Z+30, R16
   \   00000008   8F17               STD     Z+31, R17
   \   0000000A   9508               RET
   1707           
   1708           
   1709           

   \                                 In segment FARCODE, align 2, keep-with-next
   1710           void clr_cntr_link(void)
   \                     clr_cntr_link:
   1711           {
   \   00000000   01AD               MOVW    R21:R20, R27:R26
   1712           if(Control.link_waits==FALSE)
   \   00000002   ....               RCALL   ?Subroutine264
   \                     ??CrossCallReturnLabel_779:
   \   00000004   8D03               LDD     R16, Z+27
   \   00000006   2300               TST     R16
   \   00000008   F459               BRNE    ??CrossCallReturnLabel_160
   1713           {
   1714           cnt_no_link=vol_cnt_no_link;//dobavka
   \   0000000A   A900               LDD     R16, Z+48
   \   0000000C   A911               LDD     R17, Z+49
   \   0000000E   A922               LDD     R18, Z+50
   \   00000010   A933               LDD     R19, Z+51
   \   00000012   ....               LDI     R26, LOW((Appl_RS485_1 + 38))
   \   00000014   ....               LDI     R27, HIGH((Appl_RS485_1 + 38))
   \   00000016   930D               ST      X+, R16
   \   00000018   931D               ST      X+, R17
   \   0000001A   ....               RCALL   ?Subroutine210
   1715           Control.link=FALSE;
   \                     ??CrossCallReturnLabel_316:
   \   0000001C   E000               LDI     R16, 0
   \   0000001E   ....               RCALL   ?Subroutine126
   1716           Control.cnt_link=Control.vol_link;
   1717           }
   1718           } 
   \                     ??CrossCallReturnLabel_160:
   \   00000020                      REQUIRE ?Subroutine275
   \   00000020                      ;               // Fall through to label ?Subroutine275

   \                                 In segment FARCODE, align 2, keep-with-next
   \                     ?Subroutine275:
   \   00000000   01DA               MOVW    R27:R26, R21:R20
   \   00000002   9508               RET

   \                                 In segment FARCODE, align 2, keep-with-next
   \                     ?Subroutine210:
   \   00000000   932D               ST      X+, R18
   \   00000002   933C               ST      X, R19
   \   00000004   9508               RET
   1719            
   1720            
   1721          
   1722          
   1723          

   \                                 In segment FARCODE, align 2, keep-with-next
   1724          void monitor_rst(void)
   \                     monitor_rst:
   1725          {
   \   00000000   ....               RCALL   ?Subroutine128
   \                     ??CrossCallReturnLabel_167:
   \   00000002                      REQUIRE ?Register_R4_is_cg_reg
   \   00000002                      REQUIRE ?Register_R5_is_cg_reg
   \   00000002                      REQUIRE ?Register_R6_is_cg_reg
   \   00000002                      REQUIRE ?Register_R7_is_cg_reg
   \   00000002   9729               SBIW    R29:R28, 9
   1726          unsigned char buf[9],i;
   1727          
   1728          
   1729          time_cnt_ch_time=CHECK_TIME;
   \   00000004   E00F               LDI     R16, 15
   \   00000006   9300....           STS     (unix + 16), R16
   1730          
   1731          if((MCUSR & 0x01)==0x01)
   \   0000000A   ....               LDI     R24, LOW(Appl_seq)
   \   0000000C   ....               LDI     R25, (Appl_seq) >> 8
   \   0000000E   ....               LDI     R16, LOW(Appl_RS485_1)
   \   00000010   2E40               MOV     R4, R16
   \   00000012   ....               LDI     R16, (Appl_RS485_1) >> 8
   \   00000014   2E50               MOV     R5, R16
   \   00000016   ....               LDI     R26, LOW(crc_tii)
   \   00000018   ....               LDI     R27, (crc_tii) >> 8
   \   0000001A   B704               IN      R16, 0x34
   \   0000001C   FF00               SBRS    R16, 0
   \   0000001E   C027               RJMP    ??monitor_rst_0
   1732          {
   1733          
   1734          
   1735          simka=SIM_RES; //dobavka
   \   00000020   ....               RCALL   ?Subroutine25
   \                     ??CrossCallReturnLabel_438:
   \   00000022   8B02               STD     Z+18, R16
   1736          Fl_ch_sim=1;  //dobavka
   \   00000024   01F2               MOVW    R31:R30, R5:R4
   \   00000026   AB07               STD     Z+55, R16
   1737            
   1738          send_info(sizeof(evc_pwr),evc_pwr,0,0); 
   \   00000028   ....               RCALL   ??Subroutine253_0
   \                     ??CrossCallReturnLabel_818:
   \   0000002A   ....               LDI     R18, LOW((evc_wdr + 21))
   \   0000002C   ....               LDI     R19, HIGH((evc_wdr + 21))
   \   0000002E   ....               RCALL   ?Subroutine182
   1739          write_log_info(ST_PIT_ON,RESET_POWER);
   \                     ??CrossCallReturnLabel_847:
   \   00000030   E011               LDI     R17, 1
   \   00000032   E001               LDI     R16, 1
   \   00000034   ....               RCALL   ??Subroutine173_1
   1740          
   1741          if (Appl_seq_des==1){MCUSR=0;return;}// блокировка 
   \                     ??CrossCallReturnLabel_248:
   \   00000036   ....               RCALL   ??Subroutine95_0
   \                     ??CrossCallReturnLabel_760:
   \   00000038   F421               BRNE    ??monitor_rst_1
   \                     ??monitor_rst_2:
   \   0000003A   E000               LDI     R16, 0
   \   0000003C   BF04               OUT     0x34, R16
   \   0000003E   9629               ADIW    R29:R28, 9
   \   00000040   ....               RJMP    ??Subroutine288_0
   1742          
   1743          buf[0]=COOL_RESET;
   \                     ??monitor_rst_1:
   \   00000042   E002               LDI     R16, 2
   \   00000044   8308               ST      Y, R16
   1744          *(unsigned int*)&buf[1]=L_COOL_RESET;
   \   00000046   E004               LDI     R16, 4
   \   00000048   ....               RCALL   ??Subroutine41_0
   1745          *(unsigned long int*)&buf[3]=burst_ds_r();
   1746          
   1747          for(i=0;i<8;i++)cnt_tii[i]=0;
   \                     ??CrossCallReturnLabel_44:
   \   0000004A   E000               LDI     R16, 0
   \                     ??monitor_rst_3:
   \   0000004C   ....               RCALL   ?Subroutine82
   \                     ??CrossCallReturnLabel_93:
   \   0000004E   F3F0               BRCS    ??monitor_rst_3
   1748          crc_tii=0;
   \   00000050   ....               RCALL   ?Subroutine205
   1749          
   1750          
   1751          if(write_to_buf(&Appl_seq_buf[0],&Appl_seq.p_in,&Appl_seq.p_out,&Appl_seq.p_out_kv,&Appl_seq.crc,&buf[0],L_COOL_RESET+3, sizeof(Appl_seq_buf))==1)
   \                     ??CrossCallReturnLabel_601:
   \   00000052   EC08               LDI     R16, 200
   \   00000054   932A               ST      -Y, R18
   \   00000056   930A               ST      -Y, R16
   \   00000058   E007               LDI     R16, 7
   \   0000005A   932A               ST      -Y, R18
   \   0000005C   ....               RCALL   ?Subroutine89
   \                     ??CrossCallReturnLabel_747:
   \   0000005E   F769               BRNE    ??monitor_rst_2
   1752             {
   1753             fl_appl_seq1.over_buf=1;
   \                     ??monitor_rst_4:
   \   00000060   E30C               LDI     R16, 60
   \   00000062   0E40               ADD     R4, R16
   \   00000064   E000               LDI     R16, 0
   \   00000066   1E50               ADC     R5, R16
   \   00000068   01F2               MOVW    R31:R30, R5:R4
   \   0000006A   ....               RCALL   ?Subroutine314
   \                     ??CrossCallReturnLabel_858:
   \   0000006C   CFE6               RJMP    ??monitor_rst_2
   1754             }
   1755          
   1756          }
   1757          else
   1758          {
   1759          
   1760             if(crc_tii!=func_crc_tii())
   \                     ??monitor_rst_0:
   \   0000006E   906D               LD      R6, X+
   \   00000070   907C               LD      R7, X
   \   00000072   9711               SBIW    R27:R26, 1
   \   00000074   ....               RCALL   func_crc_tii
   \   00000076   1660               CP      R6, R16
   \   00000078   0671               CPC     R7, R17
   \   0000007A   E000               LDI     R16, 0
   \   0000007C   F029               BREQ    ??monitor_rst_5
   1761             {
   1762               for(i=0;i<8;i++)cnt_tii[i]=0;
   \                     ??monitor_rst_6:
   \   0000007E   ....               RCALL   ?Subroutine82
   \                     ??CrossCallReturnLabel_94:
   \   00000080   F3F0               BRCS    ??monitor_rst_6
   1763               crc_tii=0;
   \   00000082   ....               RCALL   ?Subroutine205
   \                     ??CrossCallReturnLabel_602:
   \   00000084   9711               SBIW    R27:R26, 1
   \   00000086   C00E               RJMP    ??monitor_rst_7
   1764             }
   1765             else for(i=0;i<8;i++) modbus_mem1[AD_TII1+i]=cnt_tii[i];  
   \                     ??monitor_rst_5:
   \   00000088   E012               LDI     R17, 2
   \   0000008A   9F01               MUL     R16, R17
   \   0000008C   01FD               MOVW    R31:R30, R27:R26
   \   0000008E   ....               RCALL   ?Subroutine83
   \                     ??CrossCallReturnLabel_98:
   \   00000090   8122               LDD     R18, Z+2
   \   00000092   8133               LDD     R19, Z+3
   \   00000094   01F0               MOVW    R31:R30, R1:R0
   \   00000096   ....               SUBI    R30, LOW((-(modbus_mem1) & 0xFFFF))
   \   00000098   ....               SBCI    R31, (-(modbus_mem1) & 0xFFFF) >> 8
   \   0000009A   8320               ST      Z, R18
   \   0000009C   8331               STD     Z+1, R19
   \   0000009E   9503               INC     R16
   \   000000A0   3008               CPI     R16, 8
   \   000000A2   F390               BRCS    ??monitor_rst_5
   1766            
   1767            
   1768          if(simka>1)  {simka=SIM_RES; Fl_ch_sim=1;}  //dobavka
   \                     ??monitor_rst_7:
   \   000000A4   01FD               MOVW    R31:R30, R27:R26
   \   000000A6   8902               LDD     R16, Z+18
   \   000000A8   3002               CPI     R16, 2
   \   000000AA   F020               BRCS    ??monitor_rst_8
   \   000000AC   E001               LDI     R16, 1
   \   000000AE   8B02               STD     Z+18, R16
   \   000000B0   01F2               MOVW    R31:R30, R5:R4
   \   000000B2   AB07               STD     Z+55, R16
   1769            
   1770          if((MCUSR & 0x02)==0x02){write_log_info(ST_PIT_ON,RESET_EXT);send_info(sizeof(evc_rst),evc_rst,0,0);}
   \                     ??monitor_rst_8:
   \   000000B4   B704               IN      R16, 0x34
   \   000000B6   FF01               SBRS    R16, 1
   \   000000B8   C004               RJMP    ??CrossCallReturnLabel_846
   \   000000BA   ....               RCALL   ?Subroutine20
   \                     ??CrossCallReturnLabel_811:
   \   000000BC   ....               LDI     R18, LOW((evc_wdr + 14))
   \   000000BE   ....               LDI     R19, HIGH((evc_wdr + 14))
   \   000000C0   ....               RCALL   ?Subroutine182
   1771          if((MCUSR & 0x04)==0x04){write_log_info(ST_PIT_ON,RESET_BROWN);send_info(sizeof(evc_bod),evc_bod,0,0);}
   \                     ??CrossCallReturnLabel_846:
   \   000000C2   B704               IN      R16, 0x34
   \   000000C4   FF02               SBRS    R16, 2
   \   000000C6   C005               RJMP    ??CrossCallReturnLabel_845
   \   000000C8   E013               LDI     R17, 3
   \   000000CA   ....               RCALL   ?Subroutine20
   \                     ??CrossCallReturnLabel_812:
   \   000000CC   ....               LDI     R18, LOW((evc_wdr + 7))
   \   000000CE   ....               LDI     R19, HIGH((evc_wdr + 7))
   \   000000D0   ....               RCALL   ?Subroutine182
   1772          if((MCUSR & 0x08)==0x08){write_log_info(ST_PIT_ON,RESET_WDR);send_info(sizeof(evc_wdr),evc_wdr,0,0);}
   \                     ??CrossCallReturnLabel_845:
   \   000000D2   B704               IN      R16, 0x34
   \   000000D4   FF03               SBRS    R16, 3
   \   000000D6   C005               RJMP    ??CrossCallReturnLabel_844
   \   000000D8   E014               LDI     R17, 4
   \   000000DA   ....               RCALL   ?Subroutine20
   \                     ??CrossCallReturnLabel_813:
   \   000000DC   ....               LDI     R18, LOW(evc_wdr)
   \   000000DE   ....               LDI     R19, (evc_wdr) >> 8
   \   000000E0   ....               RCALL   ?Subroutine182
   1773          
   1774          if (Appl_seq_des==1){MCUSR=0;return;}// блокировка 
   \                     ??CrossCallReturnLabel_844:
   \   000000E2   ....               RCALL   ??Subroutine95_0
   \                     ??CrossCallReturnLabel_761:
   \   000000E4   F409               BRNE    $+2+2
   \   000000E6   CFA9               RJMP    ??monitor_rst_2
   1775          
   1776          buf[0]=HOT_RESET;
   \   000000E8   E003               LDI     R16, 3
   \   000000EA   8308               ST      Y, R16
   1777          *(unsigned int*)&buf[1]=L_HOT_RESET;
   \   000000EC   E006               LDI     R16, 6
   \   000000EE   ....               RCALL   ??Subroutine41_0
   1778          *(unsigned long int*)&buf[3]=burst_ds_r();
   1779          if((MCUSR & 0x02)==0x02)buf[7]=RST_EXT;
   \                     ??CrossCallReturnLabel_45:
   \   000000F0   B704               IN      R16, 0x34
   \   000000F2   FF01               SBRS    R16, 1
   \   000000F4   C002               RJMP    ??monitor_rst_9
   \   000000F6   E000               LDI     R16, 0
   \   000000F8   830F               STD     Y+7, R16
   1780          if((MCUSR & 0x04)==0x04)buf[7]=RST_BROWN;
   \                     ??monitor_rst_9:
   \   000000FA   B704               IN      R16, 0x34
   \   000000FC   FF02               SBRS    R16, 2
   \   000000FE   C002               RJMP    ??monitor_rst_10
   \   00000100   E001               LDI     R16, 1
   \   00000102   830F               STD     Y+7, R16
   1781          if((MCUSR & 0x08)==0x08)buf[7]=RST_WDR;
   \                     ??monitor_rst_10:
   \   00000104   B704               IN      R16, 0x34
   \   00000106   FF03               SBRS    R16, 3
   \   00000108   C002               RJMP    ??monitor_rst_11
   \   0000010A   E002               LDI     R16, 2
   \   0000010C   830F               STD     Y+7, R16
   1782          buf[8]=0;
   \                     ??monitor_rst_11:
   \   0000010E   E000               LDI     R16, 0
   \   00000110   8708               STD     Y+8, R16
   1783          if(write_to_buf(&Appl_seq_buf[0],&Appl_seq.p_in,&Appl_seq.p_out,&Appl_seq.p_out_kv,&Appl_seq.crc,&buf[0],L_HOT_RESET+3, sizeof(Appl_seq_buf))==1)
   \   00000112   ....               RCALL   ?Subroutine153
   \                     ??CrossCallReturnLabel_528:
   \   00000114   E009               LDI     R16, 9
   \   00000116   931A               ST      -Y, R17
   \   00000118   ....               RCALL   ?Subroutine89
   \                     ??CrossCallReturnLabel_748:
   \   0000011A   F009               BREQ    $+2+2
   \   0000011C   CF8E               RJMP    ??monitor_rst_2
   \   0000011E   CFA0               RJMP    ??monitor_rst_4
   1784             {
   1785             fl_appl_seq1.over_buf=1;
   1786             }
   1787          }
   1788          
   1789          MCUSR=0;
   1790          } 

   \                                 In segment FARCODE, align 2, keep-with-next
   \                     ?Subroutine89:
   \   00000000   930A               ST      -Y, R16
   \   00000002   018E               MOVW    R17:R16, R29:R28
   \   00000004   5F0C               SUBI    R16, 252
   \   00000006   4F1F               SBCI    R17, 255
   \   00000008   931A               ST      -Y, R17
   \   0000000A   930A               ST      -Y, R16
   \                     ??Subroutine89_0:
   \   0000000C   018C               MOVW    R17:R16, R25:R24
   \   0000000E   5F09               SUBI    R16, 249
   \   00000010   4F1F               SBCI    R17, 255
   \   00000012   931A               ST      -Y, R17
   \   00000014   930A               ST      -Y, R16
   \   00000016   01BC               MOVW    R23:R22, R25:R24
   \   00000018   5F6B               SUBI    R22, 251
   \   0000001A   4F7F               SBCI    R23, 255
   \   0000001C   01AC               MOVW    R21:R20, R25:R24
   \   0000001E   5F4D               SUBI    R20, 253
   \   00000020   4F5F               SBCI    R21, 255
   \   00000022   9601               ADIW    R25:R24, 1
   \   00000024   019C               MOVW    R19:R18, R25:R24
   \   00000026   ....               LDI     R16, LOW(Appl_seq_buf)
   \   00000028   ....               LDI     R17, (Appl_seq_buf) >> 8
   \   0000002A   ........           CALL    write_to_buf
   \   0000002E   ....               RJMP    ??Subroutine247_1

   \                                 In segment FARCODE, align 2, keep-with-next
   \                     ?Subroutine82:
   \   00000000   E020               LDI     R18, 0
   \   00000002   E012               LDI     R17, 2
   \   00000004   9F01               MUL     R16, R17
   \   00000006   01FD               MOVW    R31:R30, R27:R26
   \   00000008   0DE0               ADD     R30, R0
   \   0000000A   1DF1               ADC     R31, R1
   \   0000000C   8322               STD     Z+2, R18
   \   0000000E   8323               STD     Z+3, R18
   \   00000010   9503               INC     R16
   \   00000012   3008               CPI     R16, 8
   \   00000014   9508               RET

   \                                 In segment FARCODE, align 2, keep-with-next
   \                     ?Subroutine20:
   \   00000000   E001               LDI     R16, 1
   \   00000002   ....               RJMP    ?Subroutine253

   \                                 In segment FARCODE, align 2, keep-with-next
   \                     ?Subroutine95:
   \   00000000   ....               LDI     R24, LOW(Appl_seq)
   \   00000002   ....               LDI     R25, (Appl_seq) >> 8
   \                     ??Subroutine95_0:
   \   00000004   01FC               MOVW    R31:R30, R25:R24
   \   00000006   AD06               LDD     R16, Z+62
   \   00000008   ....               RJMP    ??Subroutine247_1

   \                                 In segment FARCODE, align 2, keep-with-next
   \                     ?Subroutine41:
   \   00000000   E006               LDI     R16, 6
   \   00000002   8308               ST      Y, R16
   \   00000004   E007               LDI     R16, 7
   \                     ??Subroutine41_0:
   \   00000006   E010               LDI     R17, 0
   \   00000008   8309               STD     Y+1, R16
   \   0000000A   831A               STD     Y+2, R17
   \   0000000C   ........           CALL    burst_ds_r
   \   00000010   830B               STD     Y+3, R16
   \   00000012   831C               STD     Y+4, R17
   \   00000014   832D               STD     Y+5, R18
   \   00000016   833E               STD     Y+6, R19
   \   00000018   9508               RET

   \                                 In segment FARCODE, align 2, keep-with-next
   \                     ?Subroutine277:
   \   00000000   932C               ST      X, R18
   \   00000002   9508               RET

   \                                 In segment FARCODE, align 2, keep-with-next
   \                     ?Subroutine205:
   \   00000000   932D               ST      X+, R18
   \   00000002   ....               RJMP    ?Subroutine277

   \                                 In segment FARCODE, align 2, keep-with-next
   \                     ?Subroutine182:
   \   00000000   E007               LDI     R16, 7
   \   00000002   ....               RJMP    ??Subroutine291_0

   \                                 In segment FARCODE, align 2, keep-with-next
   \                     ?Subroutine265:
   \   00000000   931A               ST      -Y, R17
   \   00000002   930A               ST      -Y, R16
   \   00000004   9508               RET

   \                                 In segment FARCODE, align 2, keep-with-next
   \                     ?Subroutine153:
   \   00000000   EC08               LDI     R16, 200
   \   00000002   E010               LDI     R17, 0
   \   00000004   ....               RJMP    ?Subroutine265

   \                                 In segment FARCODE, align 2, keep-with-next
   \                     ?Subroutine173:
   \   00000000   E011               LDI     R17, 1
   \                     ??Subroutine173_0:
   \   00000002   E006               LDI     R16, 6
   \                     ??Subroutine173_1:
   \   00000004   ........           JMP     write_log_info
   1791          
   1792          
   1793          /*
   1794          void monitor_over_net(void)
   1795             {        
   1796               unsigned char buf[9];
   1797              
   1798               if (Appl_seq_des==1)return;// блокировка опроса охранки     
   1799               if(count_block_net!=0)return;//блокировка монитора   
   1800               if (((PINA & TCC2)&&(byte_state_net==YES_NET))|| (((PINA & TCC2)==0)&&(byte_state_net==NO_NET)))
   1801                    {
   1802                      if(byte_state_net==YES_NET) {byte_state_net=NO_NET;send_info(sizeof(evc_feed_akb),evc_feed_akb,0,0);}
   1803                      else {byte_state_net=YES_NET;send_info(sizeof(evc_feed_220),evc_feed_220,0,0);}
   1804                      count_block_net=3;
   1805                      buf[0]=AKB_SET;
   1806                      *(unsigned int*)&buf[1]=L_AKB_SET;
   1807                      *(unsigned long int*)&buf[3]=burst_ds_r();
   1808                      buf[7]=byte_state_net;
   1809                      buf[8]=0; 
   1810                      if(write_to_buf(&Appl_seq_buf[0],&Appl_seq.p_in,&Appl_seq.p_out,&Appl_seq.p_out_kv,&Appl_seq.crc,&buf[0],L_AKB_SET+3, sizeof(Appl_seq_buf))==1)
   1811                                   {
   1812                                   fl_appl_seq1.over_buf=1;
   1813                                   } 
   1814                     
   1815                    }
   1816             
   1817             }
   1818          
   1819          */
   1820          
   1821          
   1822           
   1823           

   \                                 In segment FARCODE, align 2, keep-with-next
   1824          void monitor_beg_state_seq(unsigned char zad)
   \                     monitor_beg_state_seq:
   1825          {
   \   00000000   ........           CALL    ?Subroutine101
   \                     ??CrossCallReturnLabel_117:
   \   00000004   972A               SBIW    R29:R28, 10
   1826             // здесь должна быть пауза чтобы определились текущие ТС
   1827           unsigned char buf[10];
   1828           unsigned char i=0;
   \   00000006   E080               LDI     R24, 0
   1829          
   1830           
   1831           if(zad==0)
   \   00000008   ....               LDI     R26, LOW(state_seq)
   \   0000000A   ....               LDI     R27, (state_seq) >> 8
   \   0000000C   2300               TST     R16
   \   0000000E   F009               BREQ    $+2+2
   \   00000010   C048               RJMP    ??monitor_beg_state_seq_0
   1832           {
   1833             
   1834             
   1835             
   1836             while(i<200) //400 мсек
   1837             {
   1838             __watchdog_reset();
   \                     ??monitor_beg_state_seq_1:
   \   00000012   95A8               WDR
   1839             delay(16000);//1mcek
   \   00000014   ....               RCALL   ?Subroutine24
   1840             delay(16000);//1mcek
   \                     ??CrossCallReturnLabel_700:
   \   00000016   ....               RCALL   ?Subroutine24
   1841             i++;
   \                     ??CrossCallReturnLabel_699:
   \   00000018   9583               INC     R24
   1842             }
   \   0000001A   3C88               CPI     R24, 200
   \   0000001C   F3D0               BRCS    ??monitor_beg_state_seq_1
   1843             
   1844            struct_tcc1.real_tc=0x01 & (~struct_tcc1.tek_pin);
   \   0000001E   ....               LDI     R30, LOW(struct_tcc1)
   \   00000020   ....               LDI     R31, (struct_tcc1) >> 8
   \   00000022   ....               RCALL   ?Subroutine124
   1845            struct_tcc2.real_tc=0x01 & (~struct_tcc2.tek_pin);
   \                     ??CrossCallReturnLabel_595:
   \   00000024   ....               LDI     R30, LOW(struct_tcc2)
   \   00000026   ....               LDI     R31, (struct_tcc2) >> 8
   \   00000028   ....               RCALL   ?Subroutine124
   1846            
   1847            
   1848          
   1849            
   1850            
   1851            /*
   1852            if(sel_modul==1)
   1853            {
   1854               modbus_mem1[AD_TS]=modbus_mem1[AD_TS] | str_tc1.tek_pin | (str_tc2.tek_pin<<1) | (str_tc3.tek_pin<<2) | (str_tc4.tek_pin<<3)| (str_tc5.tek_pin<<4);
   1855            }
   1856            else
   1857            {
   1858            modbus_mem1[AD_TS]=modbus_mem1[AD_TS] | (str_tc2.tek_pin<<1) | (str_tc3.tek_pin<<2) | (str_tc4.tek_pin<<3)| (str_tc5.tek_pin<<4) | (str_tc6.tek_pin<<5) | (str_tc7.tek_pin<<6) | (str_tc8.tek_pin<<7);
   1859            if(PINK & IO1)modbus_mem1[AD_TS]=modbus_mem1[AD_TS] & (~0x01); else modbus_mem1[AD_TS]=modbus_mem1[AD_TS] | 0x01;
   1860            }
   1861            */
   1862           
   1863            if(sel_modul!=1)
   \                     ??CrossCallReturnLabel_596:
   \   0000002A   01FD               MOVW    R31:R30, R27:R26
   \   0000002C   8103               LDD     R16, Z+3
   \   0000002E   3001               CPI     R16, 1
   \   00000030   F1C1               BREQ    ??monitor_beg_state_seq_0
   1864            {
   1865            modbus_mem1[AD_TS]=0;
   1866            modbus_mem1[AD_TS]=modbus_mem1[AD_TS] | (str_tc2.tek_pin<<1) | (str_tc3.tek_pin<<2) | (str_tc4.tek_pin<<3)| (str_tc5.tek_pin<<4) | (str_tc6.tek_pin<<5) | (str_tc7.tek_pin<<6) | (str_tc8.tek_pin<<7);
   \   00000032   9100....           LDS     R16, str_tc2
   \   00000036   7001               ANDI    R16, 0x01
   \   00000038   E012               LDI     R17, 2
   \   0000003A   9F01               MUL     R16, R17
   \   0000003C   0180               MOVW    R17:R16, R1:R0
   \   0000003E   9140....           LDS     R20, str_tc3
   \   00000042   7041               ANDI    R20, 0x01
   \   00000044   E054               LDI     R21, 4
   \   00000046   9F45               MUL     R20, R21
   \   00000048   2A00               OR      R0, R16
   \   0000004A   9100....           LDS     R16, str_tc4
   \   0000004E   7001               ANDI    R16, 0x01
   \   00000050   E043               LDI     R20, 3
   \   00000052   ....               RCALL   ?Subroutine216
   \                     ??CrossCallReturnLabel_320:
   \   00000054   2F60               MOV     R22, R16
   \   00000056   2960               OR      R22, R0
   \   00000058   9100....           LDS     R16, str_tc5
   \   0000005C   7001               ANDI    R16, 0x01
   \   0000005E   E044               LDI     R20, 4
   \   00000060   ....               RCALL   ?Subroutine216
   \                     ??CrossCallReturnLabel_321:
   \   00000062   2E00               MOV     R0, R16
   \   00000064   2A06               OR      R0, R22
   \   00000066   9100....           LDS     R16, str_tc6
   \   0000006A   7001               ANDI    R16, 0x01
   \   0000006C   E045               LDI     R20, 5
   \   0000006E   ....               RCALL   ?Subroutine216
   \                     ??CrossCallReturnLabel_322:
   \   00000070   01B8               MOVW    R23:R22, R17:R16
   \   00000072   2960               OR      R22, R0
   \   00000074   9100....           LDS     R16, str_tc7
   \   00000078   7001               ANDI    R16, 0x01
   \   0000007A   E046               LDI     R20, 6
   \   0000007C   ....               RCALL   ?Subroutine216
   \                     ??CrossCallReturnLabel_323:
   \   0000007E   2B06               OR      R16, R22
   \   00000080   9140....           LDS     R20, str_tc8
   \   00000084   7041               ANDI    R20, 0x01
   \   00000086   E850               LDI     R21, 128
   \   00000088   9F45               MUL     R20, R21
   \   0000008A   2A00               OR      R0, R16
   \   0000008C   ....               LDI     R30, LOW(modbus_mem1)
   \   0000008E   ....               LDI     R31, (modbus_mem1) >> 8
   \   00000090   AA00               STD     Z+48, R0
   \   00000092   AB71               STD     Z+49, R23
   1867            if(PINK & IO1)modbus_mem1[AD_TS]=modbus_mem1[AD_TS] & (~0x01); else modbus_mem1[AD_TS]=modbus_mem1[AD_TS] | 0x01;
   \   00000094   91000106           LDS     R16, 262
   \   00000098   FD07               SBRC    R16, 7
   \   0000009A   C003               RJMP    ??monitor_beg_state_seq_0
   \   0000009C   2D00               MOV     R16, R0
   \   0000009E   6001               ORI     R16, 0x01
   \   000000A0   AB00               STD     Z+48, R16
   1868            }
   1869            
   1870           }
   1871           
   1872           
   1873                     
   1874                        sv1.tc=struct_tcc1.real_tc;
   \                     ??monitor_beg_state_seq_0:
   \   000000A2   ....               LDI     R30, LOW(struct_tcc1)
   \   000000A4   ....               LDI     R31, (struct_tcc1) >> 8
   \   000000A6   ....               RCALL   ?Subroutine199
   \                     ??CrossCallReturnLabel_301:
   \   000000A8   8101               LDD     R16, Z+1
   \   000000AA   F900               BLD     R16, 0
   \   000000AC   8301               STD     Z+1, R16
   1875                        sv1.tc_old=sv1.tc;
   \   000000AE   F901               BLD     R16, 1
   \   000000B0   8301               STD     Z+1, R16
   1876                        sv2.tc=struct_tcc2.real_tc;
   \   000000B2   ....               LDI     R30, LOW(struct_tcc2)
   \   000000B4   ....               LDI     R31, (struct_tcc2) >> 8
   \   000000B6   ....               RCALL   ?Subroutine199
   \                     ??CrossCallReturnLabel_302:
   \   000000B8   8102               LDD     R16, Z+2
   \   000000BA   F900               BLD     R16, 0
   \   000000BC   8302               STD     Z+2, R16
   1877                        sv2.tc_old=sv2.tc;
   \   000000BE   F901               BLD     R16, 1
   \   000000C0   8302               STD     Z+2, R16
   1878                        
   1879                      
   1880          if (Appl_seq_des==1)return;// блокировка сообщдений            
   \   000000C2   ....               RCALL   ?Subroutine95
   \                     ??CrossCallReturnLabel_762:
   \   000000C4   F1D9               BREQ    ??CrossCallReturnLabel_875
   1881          
   1882          
   1883          buf[0]=SEQ_STATE;
   \   000000C6   ....               RCALL   ?Subroutine41
   1884          *(unsigned int*)&buf[1]=L_STATE;
   1885          *(unsigned long int*)&buf[3]=burst_ds_r();
   1886          
   1887          switch (struct_tcc1.type)
   \                     ??CrossCallReturnLabel_42:
   \   000000C8   ....               LDI     R30, LOW(struct_tcc1)
   \   000000CA   ....               LDI     R31, (struct_tcc1) >> 8
   \   000000CC   8104               LDD     R16, Z+4
   \   000000CE   950A               DEC     R16
   \   000000D0   F019               BREQ    ??monitor_beg_state_seq_2
   \   000000D2   950A               DEC     R16
   \   000000D4   F029               BREQ    ??monitor_beg_state_seq_3
   \   000000D6   C018               RJMP    ??monitor_beg_state_seq_4
   1888          {
   1889          case TC_SUHOI:
   1890                      struct_tcc1.cnt_block_tc=VOL_BLOCK_TC;
   \                     ??monitor_beg_state_seq_2:
   \   000000D8   E003               LDI     R16, 3
   \   000000DA   8305               STD     Z+5, R16
   1891                      buf[7]=DES_SEQ;
   \   000000DC   EF0F               LDI     R16, 255
   \   000000DE   C00F               RJMP    ??monitor_beg_state_seq_5
   1892                      buf[8]=sv1.tc & 0x01;
   1893                      break;
   1894          case TC_SHL:
   1895                      if(sv1.tc & 0x01)
   \                     ??monitor_beg_state_seq_3:
   \   000000E0   01FD               MOVW    R31:R30, R27:R26
   \   000000E2   8101               LDD     R16, Z+1
   \   000000E4   FF00               SBRS    R16, 0
   \   000000E6   C006               RJMP    ??monitor_beg_state_seq_6
   1896                          {
   1897                        //   send_info(sizeof(evc_taken),evc_taken,0,0);
   1898                           Appl_seq.event=EV_TC_NORMA;
   \   000000E8   E001               LDI     R16, 1
   \   000000EA   01FC               MOVW    R31:R30, R25:R24
   \   000000EC   8707               STD     Z+15, R16
   1899                           Appl_seq.state=ST_VZAT;
   \   000000EE   8706               STD     Z+14, R16
   1900                           state_seq=VZT;
   \   000000F0   E005               LDI     R16, 5
   \   000000F2   C004               RJMP    ??CrossCallReturnLabel_161
   1901                           buf[7]=VZT;
   1902                          }
   1903                          else
   1904                          {
   1905                       //    send_info(sizeof(evc_alarm),evc_alarm,0,0);
   1906                           Appl_seq.event=EV_TC_ALARM;
   \                     ??monitor_beg_state_seq_6:
   \   000000F4   E000               LDI     R16, 0
   \   000000F6   01FC               MOVW    R31:R30, R25:R24
   \   000000F8   8707               STD     Z+15, R16
   1907                           Appl_seq.tm_vzat=Appl_seq.vol_tm_vzat;
   \   000000FA   ....               RCALL   ?Subroutine127
   1908                           Appl_seq.state=ST_ALARM;
   1909                           state_seq=ALRM;
   \                     ??CrossCallReturnLabel_161:
   \   000000FC   930C               ST      X, R16
   1910                           buf[7]=ALRM;
   \                     ??monitor_beg_state_seq_5:
   \   000000FE   830F               STD     Y+7, R16
   1911                          }
   1912                      buf[8]=sv1.tc & 0x01;
   \   00000100   01FD               MOVW    R31:R30, R27:R26
   \   00000102   8101               LDD     R16, Z+1
   \   00000104   7001               ANDI    R16, 0x01
   \   00000106   C002               RJMP    ??monitor_beg_state_seq_7
   1913                      break;
   1914          default:    
   1915                      buf[7]=DES_SEQ;
   \                     ??monitor_beg_state_seq_4:
   \   00000108   EF0F               LDI     R16, 255
   \   0000010A   830F               STD     Y+7, R16
   1916                      buf[8]=DES_SEQ;
   \                     ??monitor_beg_state_seq_7:
   \   0000010C   8708               STD     Y+8, R16
   1917                      break;
   1918                
   1919          }    
   1920          
   1921          if(struct_tcc2.type==TC_SUHOI)
   \   0000010E   ....               LDI     R30, LOW(struct_tcc2)
   \   00000110   ....               LDI     R31, (struct_tcc2) >> 8
   \   00000112   8104               LDD     R16, Z+4
   \   00000114   3001               CPI     R16, 1
   \   00000116   F431               BRNE    ??monitor_beg_state_seq_8
   1922             {
   1923               struct_tcc2.cnt_block_tc=VOL_BLOCK_TC;
   \   00000118   E003               LDI     R16, 3
   \   0000011A   8305               STD     Z+5, R16
   1924               buf[9]=sv2.tc & 0x01;
   \   0000011C   01FD               MOVW    R31:R30, R27:R26
   \   0000011E   8102               LDD     R16, Z+2
   \   00000120   7001               ANDI    R16, 0x01
   \   00000122   C001               RJMP    ??monitor_beg_state_seq_9
   1925             }else buf[9]=DES_SEQ;
   \                     ??monitor_beg_state_seq_8:
   \   00000124   EF0F               LDI     R16, 255
   \                     ??monitor_beg_state_seq_9:
   \   00000126   8709               STD     Y+9, R16
   1926          
   1927          
   1928          send_info(sizeof(evc_state),evc_state,0,0);
   \   00000128   ....               RCALL   ??Subroutine253_0
   \                     ??CrossCallReturnLabel_819:
   \   0000012A   ....               LDI     R18, LOW(evc_state)
   \   0000012C   ....               LDI     R19, (evc_state) >> 8
   \   0000012E   E009               LDI     R16, 9
   \   00000130   ....               RCALL   ??Subroutine291_0
   1929          
   1930          if(write_to_buf(&Appl_seq_buf[0],&Appl_seq.p_in,&Appl_seq.p_out,&Appl_seq.p_out_kv,&Appl_seq.crc,&buf[0],L_STATE+3, sizeof(Appl_seq_buf))==1)
   \                     ??CrossCallReturnLabel_838:
   \   00000132   ....               RCALL   ?Subroutine47
   \                     ??CrossCallReturnLabel_526:
   \   00000134   ....               RCALL   ??Subroutine89_0
   \                     ??CrossCallReturnLabel_749:
   \   00000136   F411               BRNE    ??CrossCallReturnLabel_875
   1931                             {
   1932                              fl_appl_seq1.over_buf=1;
   \   00000138   ........           CALL    ?Subroutine91
   \                     ??CrossCallReturnLabel_875:
   \   0000013C   962A               ADIW    R29:R28, 10
   \   0000013E   ........           JMP     ?Subroutine286
   1933                             }
   1934          
   1935          
   1936          
   1937          /*
   1938          
   1939                      if(sv1.tc & 0x01)
   1940                          {
   1941                           send_info(sizeof(evc_taken),evc_taken,0,0);
   1942                           
   1943                           Appl_seq.event=EV_TC_NORMA;
   1944                           Appl_seq.state=ST_VZAT;
   1945                           state_seq=VZAT;
   1946                           buf[0]=VZAT;
   1947                           *(unsigned int*)&buf[1]=L_VZAT;
   1948                           *(unsigned long int*)&buf[3]=burst_ds_r();
   1949                           buf[7]=sv1.tc & 0x01;
   1950                           buf[8]=0;
   1951                           if(write_to_buf(&Appl_seq_buf[0],&Appl_seq.p_in,&Appl_seq.p_out,&Appl_seq.p_out_kv,&Appl_seq.crc,&buf[0],L_VZAT+3, sizeof(Appl_seq_buf))==1)
   1952                              {
   1953                               fl_appl_seq1.over_buf=1;
   1954                              }
   1955                          }else 
   1956                           {
   1957                           send_info(sizeof(evc_alarm),evc_alarm,0,0);
   1958                           Appl_seq.event=EV_TC_ALARM;
   1959                           Appl_seq.tm_vzat=Appl_seq.vol_tm_vzat;
   1960                           Appl_seq.state=ST_ALARM;
   1961                           state_seq=ALARM;
   1962                           buf[0]=ALARM;
   1963                           *(unsigned int*)&buf[1]=L_ALARM;
   1964                           *(unsigned long int*)&buf[3]=burst_ds_r();
   1965                           buf[7]=sv1.tc & 0x01;
   1966                           buf[8]=0;
   1967                           if(write_to_buf(&Appl_seq_buf[0],&Appl_seq.p_in,&Appl_seq.p_out,&Appl_seq.p_out_kv,&Appl_seq.crc,&buf[0],L_ALARM+3, sizeof(Appl_seq_buf))==1)
   1968                             {
   1969                              fl_appl_seq1.over_buf=1;
   1970                             }
   1971                           }
   1972          
   1973                      if (PINA & TCC2) {byte_state_net=NO_NET;send_info(sizeof(evc_feed_akb),evc_feed_akb,0,0);}
   1974                      else {byte_state_net=YES_NET;send_info(sizeof(evc_feed_220),evc_feed_220,0,0);}
   1975                      
   1976                      count_block_net=3;
   1977                      buf[0]=AKB_SET;
   1978                      *(unsigned int*)&buf[1]=L_AKB_SET;
   1979                      *(unsigned long int*)&buf[3]=burst_ds_r();
   1980                      buf[7]=byte_state_net;
   1981                      buf[8]=0;
   1982                      if(write_to_buf(&Appl_seq_buf[0],&Appl_seq.p_in,&Appl_seq.p_out,&Appl_seq.p_out_kv,&Appl_seq.crc,&buf[0],L_AKB_SET+3, sizeof(Appl_seq_buf))==1)
   1983                                   {
   1984                                   fl_appl_seq1.over_buf=1;
   1985                                   }     
   1986          
   1987                      
   1988                 */     
   1989                      
   1990                      
   1991          } 

   \                                 In segment FARCODE, align 2, keep-with-next
   \                     ?Subroutine216:
   \   00000000   ........           JMP     ?S_SHL_L02

   \                                 In segment FARCODE, align 2, keep-with-next
   \                     ?Subroutine199:
   \   00000000   8101               LDD     R16, Z+1
   \   00000002   7001               ANDI    R16, 0x01
   \   00000004   01FD               MOVW    R31:R30, R27:R26
   \   00000006   FB00               BST     R16, 0
   \   00000008   9508               RET

   \                                 In segment FARCODE, align 2, keep-with-next
   \                     ?Subroutine124:
   \   00000000   8100               LD      R16, Z
   \   00000002   7001               ANDI    R16, 0x01
   \   00000004   9500               COM     R16
   \   00000006   7001               ANDI    R16, 0x01
   \   00000008                      REQUIRE ?Subroutine276
   \   00000008                      ;               // Fall through to label ?Subroutine276

   \                                 In segment FARCODE, align 2, keep-with-next
   \                     ?Subroutine24:
   \   00000000   E800               LDI     R16, 128
   \   00000002   E31E               LDI     R17, 62
   \   00000004   ........           JMP     ?Subroutine285

   \                                 In segment FARCODE, align 2, keep-with-next
   \                     ?Subroutine127:
   \   00000000   8902               LDD     R16, Z+18
   \   00000002   8913               LDD     R17, Z+19
   \   00000004   8B00               STD     Z+16, R16
   \   00000006   8B11               STD     Z+17, R17
   \   00000008   E000               LDI     R16, 0
   \   0000000A   8706               STD     Z+14, R16
   \   0000000C   E004               LDI     R16, 4
   \   0000000E   9508               RET

   \                                 In segment FARCODE, align 2, keep-with-next
   \                     ?Subroutine47:
   \   00000000   EC08               LDI     R16, 200
   \   00000002   E010               LDI     R17, 0
   \   00000004   931A               ST      -Y, R17
   \   00000006   930A               ST      -Y, R16
   \   00000008   E00A               LDI     R16, 10
   \   0000000A   931A               ST      -Y, R17
   \   0000000C   930A               ST      -Y, R16
   \   0000000E   018E               MOVW    R17:R16, R29:R28
   \   00000010   5F0C               SUBI    R16, 252
   \   00000012   4F1F               SBCI    R17, 255
   \   00000014                      REQUIRE ?Subroutine265
   \   00000014                      ;               // Fall through to label ?Subroutine265
   1992          
   1993          

   \                                 In segment FARCODE, align 2, keep-with-next
   1994          void clr_cntr_nat(void)
   \                     clr_cntr_nat:
   1995           {
   1996           Control.nat=FALSE;
   \   00000000   ....               RCALL   ?Subroutine264
   \                     ??CrossCallReturnLabel_780:
   \   00000002   E000               LDI     R16, 0
   \   00000004   8F05               STD     Z+29, R16
   1997           //Control.cnt_nat=Control.vol_nat;
   1998           if(simka==SIM_RES)Control.cnt_nat=Control.vol_nat_r;else Control.cnt_nat=Control.vol_nat;
   \   00000006   9100....           LDS     R16, (crc_tii + 18)
   \   0000000A   3001               CPI     R16, 1
   \   0000000C   F419               BRNE    ??clr_cntr_nat_0
   \   0000000E   A502               LDD     R16, Z+42
   \   00000010   A513               LDD     R17, Z+43
   \   00000012   C002               RJMP    ??clr_cntr_nat_1
   \                     ??clr_cntr_nat_0:
   \   00000014   A104               LDD     R16, Z+36
   \   00000016   A115               LDD     R17, Z+37
   \                     ??clr_cntr_nat_1:
   \   00000018   A300               STD     Z+32, R16
   \   0000001A   A311               STD     Z+33, R17
   1999           } 
   \   0000001C   9508               RET
   2000          
   2001          

   \                                 In segment FARCODE, align 2, keep-with-next
   2002          void clr_var_ppp_rx(void)
   \                     clr_var_ppp_rx:
   2003          {
   2004           UCSR0B=UCSR0B & ~RXEN;
   \   00000000   ....               RCALL   ?Subroutine179
   2005           UCSR0B=UCSR0B & ~RXCIE;
   2006           fl_rx_ppp.switcher=0;
   2007           fl_rx_ppp.fl_7e=0;
   2008           fl_rx_ppp.fl_7d=0;
   \                     ??CrossCallReturnLabel_562:
   \   00000002   ....               LDI     R30, LOW(fl_rx_ppp)
   \   00000004   ....               LDI     R31, (fl_rx_ppp) >> 8
   \   00000006   8100               LD      R16, Z
   \   00000008   7F08               ANDI    R16, 0xF8
   \   0000000A   8300               ST      Z, R16
   2009           Buf1_rx_ppp.ln_data=0;
   \   0000000C   E000               LDI     R16, 0
   \   0000000E   E010               LDI     R17, 0
   \   00000010   ....               LDI     R30, LOW((Buf1_rx_ppp + 330))
   \   00000012   ....               LDI     R31, HIGH((Buf1_rx_ppp + 330))
   \   00000014   ....               RCALL   ?Subroutine146
   2010           Buf1_rx_ppp.rec=FALSE;
   2011           Buf1_rx_ppp.busy=FALSE;
   2012           Buf2_rx_ppp.ln_data=0;
   \                     ??CrossCallReturnLabel_189:
   \   00000016   ....               LDI     R30, LOW((Buf2_rx_ppp + 330))
   \   00000018   ....               LDI     R31, HIGH((Buf2_rx_ppp + 330))
   \   0000001A   ....               RCALL   ?Subroutine146
   2013           Buf2_rx_ppp.rec=FALSE;
   2014           Buf2_rx_ppp.busy=FALSE;  
   2015           
   2016            fl_ip.ip_tm_cntr_en=0;   //21.01.2008
   2017            fl_ip.ip_tm_nat_en=0;    //21.01.2008
   \                     ??CrossCallReturnLabel_190:
   \   0000001C   ....               RCALL   ?Subroutine188
   \                     ??CrossCallReturnLabel_270:
   \   0000001E   8100               LD      R16, Z
   \   00000020   7F09               ANDI    R16, 0xF9
   \   00000022   8300               ST      Z, R16
   2018            Control.cnt_link=0;      //21.01.2008
   \   00000024   ....               RCALL   ?Subroutine264
   \                     ??CrossCallReturnLabel_781:
   \   00000026   8F16               STD     Z+30, R17
   \   00000028   8F17               STD     Z+31, R17
   2019            Control.link_waits=FALSE;//21.01.2008
   \   0000002A   8F13               STD     Z+27, R17
   2020            Control.cnt_try=0;       //21.01.2008
   \   0000002C   A710               STD     Z+40, R17
   2021          }  
   \   0000002E   9508               RET

   \                                 In segment FARCODE, align 2, keep-with-next
   \                     ?Subroutine146:
   \   00000000   8300               ST      Z, R16
   \   00000002   8301               STD     Z+1, R16
   \   00000004   8302               STD     Z+2, R16
   \   00000006   8303               STD     Z+3, R16
   \   00000008   9508               RET
   2022          
   2023          

   \                                 In segment FARCODE, align 2, keep-with-next
   2024          void clr_var_ppp(void)
   \                     clr_var_ppp:
   2025          {
   \   00000000   01AD               MOVW    R21:R20, R27:R26
   2026          //UCSR0B=UCSR0B & ~TXEN; !!!!!!
   2027          //UCSR0B=UCSR0B & ~TXCIE; !!!!!
   2028          
   2029          count_tx_ppp=0;
   \   00000002   ....               LDI     R30, LOW(Appl_RS485_1)
   \   00000004   ....               LDI     R31, (Appl_RS485_1) >> 8
   \   00000006   E000               LDI     R16, 0
   \   00000008   A706               STD     Z+46, R16
   \   0000000A   A707               STD     Z+47, R16
   2030          
   2031          fl_reg3.add_byte=0;
   \   0000000C   ....               LDI     R16, LOW(ip_self)
   \   0000000E   ....               LDI     R17, (ip_self) >> 8
   \   00000010   01D8               MOVW    R27:R26, R17:R16
   \   00000012   9617               ADIW    R27:R26, 7
   \   00000014   ....               RCALL   ?Subroutine219
   2032          fl_lcp.act_lcp_end=1;
   \                     ??CrossCallReturnLabel_607:
   \   00000016   ....               LDI     R26, LOW(fl_lcp)
   \   00000018   ....               LDI     R27, (fl_lcp) >> 8
   \   0000001A   912C               LD      R18, X
   \   0000001C   6021               ORI     R18, 0x01
   \   0000001E   ....               RCALL   ?Subroutine207
   2033          fl_pap.act_pap_end=1;
   \                     ??CrossCallReturnLabel_610:
   \   00000020   6021               ORI     R18, 0x01
   \   00000022   ....               RCALL   ?Subroutine208
   2034          fl_ipcp.act_ipcp_end=1;
   \                     ??CrossCallReturnLabel_612:
   \   00000024   6021               ORI     R18, 0x01
   \   00000026   ....               RCALL   ?Subroutine209
   2035          fl_ip.act_ip_end=1;
   \                     ??CrossCallReturnLabel_614:
   \   00000028   6021               ORI     R18, 0x01
   \   0000002A   932C               ST      X, R18
   2036          
   2037          cnt_rst_lcp=0;
   \   0000002C   E020               LDI     R18, 0
   \   0000002E   9320....           STS     cnt_rst_lcp, R18
   2038          cnt_rst_ipcp=0;                      
   \   00000032   9320....           STS     cnt_rst_ipcp, R18
   2039          cnt_rst_pap=0;                     
   \   00000036   9320....           STS     cnt_rst_pap, R18
   2040                                  
   2041          cnt_lcp_tm_out=0;
   \   0000003A   E030               LDI     R19, 0
   \   0000003C   ....               LDI     R26, LOW(cnt_lcp_tm_out)
   \   0000003E   ....               LDI     R27, (cnt_lcp_tm_out) >> 8
   \   00000040   ....               RCALL   ?Subroutine205
   2042          cnt_ipcp_tm_out=0;
   \                     ??CrossCallReturnLabel_603:
   \   00000042   ....               LDI     R26, LOW(cnt_ipcp_tm_out)
   \   00000044   ....               LDI     R27, (cnt_ipcp_tm_out) >> 8
   \   00000046   ....               RCALL   ?Subroutine205
   2043          cnt_pap_tm_out=0;
   \                     ??CrossCallReturnLabel_604:
   \   00000048   ....               LDI     R26, LOW(cnt_pap_tm_out)
   \   0000004A   ....               LDI     R27, (cnt_pap_tm_out) >> 8
   \   0000004C   ....               RCALL   ?Subroutine205
   2044          cnt_ip_tm_cntr=0;
   \                     ??CrossCallReturnLabel_605:
   \   0000004E   ....               LDI     R26, LOW(cnt_ip_tm_cntr)
   \   00000050   ....               LDI     R27, (cnt_ip_tm_cntr) >> 8
   \   00000052   932D               ST      X+, R18
   \   00000054   932D               ST      X+, R18
   \   00000056   ....               RCALL   ?Subroutine205
   2045          
   2046          rcvd_protokol=0;
   \                     ??CrossCallReturnLabel_606:
   \   00000058   9320....           STS     rcvd_protokol, R18
   2047          
   2048            i_scr_lcp=0;
   \   0000005C   9320....           STS     i_scr_lcp, R18
   2049            i_scan_lcp=0;
   \   00000060   9320....           STS     i_scan_lcp, R18
   2050            i_scj_lcp=0;
   \   00000064   9320....           STS     i_scj_lcp, R18
   2051            i_str_lcp=0;
   \   00000068   9320....           STS     i_str_lcp, R18
   2052            i_sta_lcp=0;
   \   0000006C   9320....           STS     i_sta_lcp, R18
   2053            
   2054            i_scr_ipcp=0;
   \   00000070   9320....           STS     i_scr_ipcp, R18
   2055            i_scan_ipcp=0;
   \   00000074   9320....           STS     i_scan_ipcp, R18
   2056            i_scj_ipcp=0;
   \   00000078   9320....           STS     i_scj_ipcp, R18
   2057            i_str_ipcp=0;
   \   0000007C   9320....           STS     i_str_ipcp, R18
   2058            i_sta_ipcp=0; 
   \   00000080   9320....           STS     i_sta_ipcp, R18
   2059            
   2060            i_scr_pap=0;
   \   00000084   9320....           STS     i_scr_pap, R18
   2061            
   2062            ip_self[0]=0;
   \   00000088   01D8               MOVW    R27:R26, R17:R16
   \   0000008A   ....               RCALL   ?Subroutine205
   2063            ip_self[1]=0;
   2064            ip_self[2]=0;
   \                     ??CrossCallReturnLabel_600:
   \   0000008C   01D8               MOVW    R27:R26, R17:R16
   \   0000008E   9612               ADIW    R27:R26, 2
   \   00000090   932C               ST      X, R18
   2065            ip_self[3]=0;
   \   00000092   01D8               MOVW    R27:R26, R17:R16
   \   00000094   9613               ADIW    R27:R26, 3
   \   00000096   932C               ST      X, R18
   2066           
   2067            ip_change=0;
   \   00000098   9320....           STS     ip_change, R18
   2068            
   2069            fl_lcp.lcp_tm_out_en=0;
   2070            fl_lcp.t0_pl=0;
   2071            fl_lcp.t0_mi=0;
   \   0000009C   ....               LDI     R26, LOW(fl_lcp)
   \   0000009E   ....               LDI     R27, (fl_lcp) >> 8
   \   000000A0   912C               LD      R18, X
   \   000000A2   7F21               ANDI    R18, 0xF1
   \   000000A4   ....               RCALL   ?Subroutine208
   2072          
   2073            fl_ipcp.ipcp_tm_out_en=0;
   2074            fl_ipcp.t0_pl=0;
   2075            fl_ipcp.t0_mi=0;
   \                     ??CrossCallReturnLabel_613:
   \   000000A6   7F21               ANDI    R18, 0xF1
   \   000000A8   ....               RCALL   ?Subroutine209
   2076            
   2077            fl_ip.ip_tm_cntr_en=0; 
   2078            fl_ip.ip_tm_nat_en=0;
   \                     ??CrossCallReturnLabel_615:
   \   000000AA   7F29               ANDI    R18, 0xF9
   \   000000AC   ....               RCALL   ?Subroutine207
   2079            
   2080            fl_pap.pap_tm_out_en=0;
   2081            fl_pap.t0_pl=0;
   2082            fl_pap.t0_mi=0;
   2083            fl_pap.up=0;
   \                     ??CrossCallReturnLabel_611:
   \   000000AE   7E21               ANDI    R18, 0xE1
   \   000000B0   932C               ST      X, R18
   2084            
   2085            fl_lcp1.up=0;
   2086            fl_lcp1.down=0;
   \   000000B2   ....               LDI     R26, LOW(fl_lcp1)
   \   000000B4   ....               LDI     R27, (fl_lcp1) >> 8
   \   000000B6   912C               LD      R18, X
   \   000000B8   7F2C               ANDI    R18, 0xFC
   \   000000BA   932C               ST      X, R18
   2087            
   2088            fl_ipcp1.up=0;
   2089            fl_ipcp1.down=0;
   \   000000BC   ....               LDI     R26, LOW(fl_ipcp1)
   \   000000BE   ....               LDI     R27, (fl_ipcp1) >> 8
   \   000000C0   912C               LD      R18, X
   \   000000C2   7F2C               ANDI    R18, 0xFC
   \   000000C4   932C               ST      X, R18
   2090            
   2091            fl_lcp2.nac_rej=0;
   \   000000C6   ....               LDI     R26, LOW(fl_lcp2)
   \   000000C8   ....               LDI     R27, (fl_lcp2) >> 8
   \   000000CA   ....               RCALL   ?Subroutine219
   2092            
   2093            fl_ipcp2.nac_rej=0;
   \                     ??CrossCallReturnLabel_608:
   \   000000CC   ....               LDI     R26, LOW(fl_ipcp2)
   \   000000CE   ....               LDI     R27, (fl_ipcp2) >> 8
   \   000000D0   ....               RCALL   ?Subroutine219
   2094            fl_cts_232.on=0;
   \                     ??CrossCallReturnLabel_609:
   \   000000D2   01D8               MOVW    R27:R26, R17:R16
   \   000000D4   9616               ADIW    R27:R26, 6
   \   000000D6   910C               LD      R16, X
   \   000000D8   7F0E               ANDI    R16, 0xFE
   \   000000DA   930C               ST      X, R16
   2095            fl_cts_232_ignor=FALSE;
   \   000000DC   AF31               STD     Z+57, R19
   2096            
   2097            Control.cnt_link=0;
   2098            Control.cnt_nat=0;
   2099            Control.link_no=FALSE;
   \   000000DE   ....               LDI     R16, LOW(Appl_seq)
   \   000000E0   ....               LDI     R17, (Appl_seq) >> 8
   \   000000E2   01D8               MOVW    R27:R26, R17:R16
   \   000000E4   965A               ADIW    R27:R26, 26
   \   000000E6   ....               RCALL   ??Subroutine206_0
   2100            Control.link_waits=FALSE;
   \                     ??CrossCallReturnLabel_312:
   \   000000E8   965B               ADIW    R27:R26, 27
   \   000000EA   ....               RCALL   ??Subroutine206_0
   2101            Control.cnt_link=0;
   \                     ??CrossCallReturnLabel_313:
   \   000000EC   965E               ADIW    R27:R26, 30
   \   000000EE   ....               RCALL   ?Subroutine206
   2102            Control.cnt_nat=0;
   \                     ??CrossCallReturnLabel_309:
   \   000000F0   9690               ADIW    R27:R26, 32
   \   000000F2   ....               RCALL   ?Subroutine206
   2103            Control.cnt_try=0;
   \                     ??CrossCallReturnLabel_310:
   \   000000F4   9698               ADIW    R27:R26, 40
   \   000000F6   933C               ST      X, R19
   2104            
   2105            Appl_RS485_1.fl_data_buf=FALSE;
   \   000000F8   8330               ST      Z, R19
   2106            Appl_RS485_2.fl_data_buf=FALSE;
   \   000000FA   8B33               STD     Z+19, R19
   2107            Appl_RS485_1.id_tek=0;
   \   000000FC   8B30               STD     Z+16, R19
   2108            Appl_RS485_2.id_tek=0;
   \   000000FE   A333               STD     Z+35, R19
   2109            fl_tx485.mon1=0;
   \   00000100   AD22               LDD     R18, Z+58
   \   00000102   7F2E               ANDI    R18, 0xFE
   \   00000104   AF22               STD     Z+58, R18
   2110            
   2111            Appl_seq.cnt_waits=0;
   \   00000106   01D8               MOVW    R27:R26, R17:R16
   \   00000108   9619               ADIW    R27:R26, 9
   \   0000010A   ....               RCALL   ?Subroutine206
   2112            Appl_seq.cnt_try=0;
   \                     ??CrossCallReturnLabel_311:
   \   0000010C   961B               ADIW    R27:R26, 11
   \   0000010E   933C               ST      X, R19
   2113            fl_appl_seq.en_tx=0;
   2114            fl_appl_seq.kv_waits=0;
   2115            fl_appl_seq.en_povtor=0;
   \   00000110   AD23               LDD     R18, Z+59
   \   00000112   7F28               ANDI    R18, 0xF8
   \   00000114   AF23               STD     Z+59, R18
   2116            Appl_seq.l_data=0;
   \   00000116   01D8               MOVW    R27:R26, R17:R16
   \   00000118   961C               ADIW    R27:R26, 12
   \   0000011A   933D               ST      X+, R19
   \   0000011C   933C               ST      X, R19
   2117            
   2118            fl_appl_seq1.enable=0; //21.01.2008
   \   0000011E   01DF               MOVW    R27:R26, R31:R30
   \   00000120   96DC               ADIW    R27:R26, 60
   \   00000122   912C               LD      R18, X
   \   00000124   7F2B               ANDI    R18, 0xFB
   \   00000126   932C               ST      X, R18
   2119            
   2120            Appl_seq.cntr_cl=FALSE;
   \   00000128   01D8               MOVW    R27:R26, R17:R16
   \   0000012A   9654               ADIW    R27:R26, 20
   \   0000012C   ....               RCALL   ??Subroutine206_0
   2121            Appl_seq.en_cntr_cl=FALSE;
   \                     ??CrossCallReturnLabel_314:
   \   0000012E   9655               ADIW    R27:R26, 21
   \   00000130   ....               RCALL   ??Subroutine206_0
   2122            Appl_seq.cnt_cntr_cl=0;
   \                     ??CrossCallReturnLabel_315:
   \   00000132   9656               ADIW    R27:R26, 22
   \   00000134   933D               ST      X+, R19
   \   00000136   933C               ST      X, R19
   2123            
   2124            cnt_cts_off=0;
   \   00000138   AB30               STD     Z+48, R19
   \   0000013A   AB31               STD     Z+49, R19
   2125          }
   \   0000013C   ....               RJMP    ?Subroutine275

   \                                 In segment FARCODE, align 2, keep-with-next
   \                     ?Subroutine219:
   \   00000000   912C               LD      R18, X
   \   00000002   7F2E               ANDI    R18, 0xFE
   \   00000004                      REQUIRE ?Subroutine277
   \   00000004                      ;               // Fall through to label ?Subroutine277

   \                                 In segment FARCODE, align 2, keep-with-next
   \                     ?Subroutine209:
   \   00000000   932C               ST      X, R18
   \   00000002   ....               LDI     R26, LOW(fl_ip)
   \   00000004   ....               LDI     R27, (fl_ip) >> 8
   \   00000006                      REQUIRE ?Subroutine278
   \   00000006                      ;               // Fall through to label ?Subroutine278

   \                                 In segment FARCODE, align 2, keep-with-next
   \                     ?Subroutine278:
   \   00000000   912C               LD      R18, X
   \   00000002   9508               RET

   \                                 In segment FARCODE, align 2, keep-with-next
   \                     ?Subroutine208:
   \   00000000   932C               ST      X, R18
   \   00000002   ....               LDI     R26, LOW(fl_ipcp)
   \   00000004   ....               LDI     R27, (fl_ipcp) >> 8
   \   00000006   ....               RJMP    ?Subroutine278

   \                                 In segment FARCODE, align 2, keep-with-next
   \                     ?Subroutine207:
   \   00000000   932C               ST      X, R18
   \   00000002   ....               LDI     R26, LOW(fl_pap)
   \   00000004   ....               LDI     R27, (fl_pap) >> 8
   \   00000006   ....               RJMP    ?Subroutine278

   \                                 In segment FARCODE, align 2, keep-with-next
   \                     ?Subroutine206:
   \   00000000   933D               ST      X+, R19
   \                     ??Subroutine206_0:
   \   00000002   933C               ST      X, R19
   \   00000004   01D8               MOVW    R27:R26, R17:R16
   \   00000006   9508               RET
   2126          
   2127          
   2128          
   2129          

   \                                 In segment FARCODE, align 2, keep-with-next
   2130           void monitor_cntr_ch(void)
   \                     monitor_cntr_ch:
   2131           {
   \   00000000   ....               RCALL   ?Subroutine176
   2132             
   2133             
   2134            if((fl_lcp.act_lcp_end!=1)&&(fl_pap.act_pap_end!=1)||(fl_ipcp.act_ipcp_end!=1)||(fl_ip.act_ip_end!=1))return;
   \                     ??CrossCallReturnLabel_254:
   \   00000002   ....               RCALL   ?Subroutine213
   \                     ??CrossCallReturnLabel_448:
   \   00000004   F409               BRNE    $+2+2
   \   00000006   C053               RJMP    ??CrossCallReturnLabel_17
   2135             
   2136            if(Control.link_waits==TRUE) return; 
   \   00000008   ....               LDI     R26, LOW(Appl_seq)
   \   0000000A   ....               LDI     R27, (Appl_seq) >> 8
   \   0000000C   01FD               MOVW    R31:R30, R27:R26
   \   0000000E   8D03               LDD     R16, Z+27
   \   00000010   3001               CPI     R16, 1
   \   00000012   F409               BRNE    $+2+2
   \   00000014   C04C               RJMP    ??CrossCallReturnLabel_17
   2137            if(Control.link==FALSE) return;  
   \   00000016   8D04               LDD     R16, Z+28
   \   00000018   2300               TST     R16
   \   0000001A   F409               BRNE    $+2+2
   \   0000001C   C048               RJMP    ??CrossCallReturnLabel_17
   2138            Control.link=FALSE;
   \   0000001E   E000               LDI     R16, 0
   \   00000020   8F04               STD     Z+28, R16
   2139            
   2140            
   2141           // {modbus_mem1[0x15e-0x150]++;} 
   2142            clr_cntr_nat();
   \   00000022   ....               RCALL   ?Subroutine122
   2143            
   2144            fl_ip.act_ip_end=0;
   2145            
   2146            Obj_ppp_tx.prozr=FALSE;      //версия       
   \                     ??CrossCallReturnLabel_859:
   \   00000024   ....               LDI     R18, LOW(Obj_ppp_tx)
   \   00000026   ....               LDI     R19, (Obj_ppp_tx) >> 8
   \   00000028   E000               LDI     R16, 0
   \   0000002A   01F9               MOVW    R31:R30, R19:R18
   \   0000002C   8300               ST      Z, R16
   2147            Obj_ppp_tx.version=VER2;      //версия 
   \   0000002E   E002               LDI     R16, 2
   \   00000030   8301               STD     Z+1, R16
   2148            Obj_ppp_tx.type_pac=SOOB;     //тип пакета
   \   00000032   8302               STD     Z+2, R16
   2149            Obj_ppp_tx.num_src=num_self; // номер отправителя
   \   00000034   ....               RCALL   ??Subroutine109_0
   \                     ??CrossCallReturnLabel_135:
   \   00000036   AD11               LDD     R17, Z+57
   \   00000038   01F9               MOVW    R31:R30, R19:R18
   \   0000003A   8303               STD     Z+3, R16
   \   0000003C   8314               STD     Z+4, R17
   2150            Obj_ppp_tx.num_dst=NUM_SRV_LINK; // номер получателя
   \   0000003E   E000               LDI     R16, 0
   \   00000040   8305               STD     Z+5, R16
   \   00000042   8306               STD     Z+6, R16
   2151            Obj_ppp_tx.id_pac=ID_CC; // идентификатор пакета  
   \   00000044   8307               STD     Z+7, R16
   2152            Obj_ppp_tx.p_opt=&buf_opt_tr[0]; // //указатель буфера опций  
   \   00000046   ....               LDI     R16, LOW(Appl_RS232_2)
   \   00000048   ....               LDI     R17, (Appl_RS232_2) >> 8
   \   0000004A   01A8               MOVW    R21:R20, R17:R16
   \   0000004C   5E4D               SUBI    R20, 237
   \   0000004E   4F5F               SBCI    R21, 255
   \   00000050   8740               STD     Z+8, R20
   \   00000052   8751               STD     Z+9, R21
   2153            
   2154            Obj_ppp_tx.l_opt=0;// длина буфера опций   
   \   00000054   E040               LDI     R20, 0
   \   00000056   8742               STD     Z+10, R20
   2155            buf_opt_tr[0]=1;
   \   00000058   E041               LDI     R20, 1
   \   0000005A   01F8               MOVW    R31:R30, R17:R16
   \   0000005C   8B43               STD     Z+19, R20
   2156            buf_opt_tr[1]=2;
   \   0000005E   E042               LDI     R20, 2
   \   00000060   8B44               STD     Z+20, R20
   2157            buf_opt_tr[2]=3;  
   \   00000062   E043               LDI     R20, 3
   \   00000064   8B45               STD     Z+21, R20
   2158            buf_opt_tr[3]=4;
   \   00000066   E044               LDI     R20, 4
   \   00000068   8B46               STD     Z+22, R20
   2159            buf_opt_tr[4]=5;
   \   0000006A   E045               LDI     R20, 5
   \   0000006C   8B47               STD     Z+23, R20
   2160            buf_opt_tr[5]=6;
   \   0000006E   E046               LDI     R20, 6
   \   00000070   8F40               STD     Z+24, R20
   2161            buf_opt_tr[6]=7;
   \   00000072   E047               LDI     R20, 7
   \   00000074   8F41               STD     Z+25, R20
   2162            buf_opt_tr[7]=8;
   \   00000076   E048               LDI     R20, 8
   \   00000078   8F42               STD     Z+26, R20
   2163            buf_opt_tr[8]=9;  
   \   0000007A   E049               LDI     R20, 9
   \   0000007C   8F43               STD     Z+27, R20
   2164            buf_opt_tr[9]=10;   
   \   0000007E   E04A               LDI     R20, 10
   \   00000080   8F44               STD     Z+28, R20
   2165            buf_opt_tr[10]=11;  
   \   00000082   E04B               LDI     R20, 11
   \   00000084   8F45               STD     Z+29, R20
   2166            
   2167            Obj_ppp_tx.kol_opt=0;// количество опций   
   \   00000086   E000               LDI     R16, 0
   \   00000088   01F9               MOVW    R31:R30, R19:R18
   \   0000008A   8703               STD     Z+11, R16
   2168            
   2169            Obj_ppp_tx.l_data=0;   // длина данных
   \   0000008C   8706               STD     Z+14, R16
   \   0000008E   8707               STD     Z+15, R16
   2170            Obj_ppp_tx.p_data=&buf_tx_232[TR_OP_DATA];  //указатель буфера данных
   \   00000090   ....               RCALL   ?Subroutine192
   2171            
   2172            
   2173            send_info(sizeof(msg_ctrl_ch),msg_ctrl_ch,1,Obj_ppp_tx.id_pac);
   \                     ??CrossCallReturnLabel_285:
   \   00000092   ....               LDI     R18, LOW(msg_ctrl_ch)
   \   00000094   ....               LDI     R19, (msg_ctrl_ch) >> 8
   \   00000096   E00B               LDI     R16, 11
   \   00000098   ....               RCALL   ?Subroutine181
   2174           
   2175            form_buf_tx_ppp();                            
   2176          
   2177            Control.cnt_link=Control.vol_waits;
   \                     ??CrossCallReturnLabel_264:
   \   0000009A   01FD               MOVW    R31:R30, R27:R26
   \   0000009C   A106               LDD     R16, Z+38
   \   0000009E   A117               LDD     R17, Z+39
   \   000000A0   8F06               STD     Z+30, R16
   \   000000A2   8F17               STD     Z+31, R17
   2178            Control.link_waits=TRUE;
   \   000000A4   E001               LDI     R16, 1
   \   000000A6   8F03               STD     Z+27, R16
   2179            UCSR0A=UCSR0A | TXC;                            
   \   000000A8   ....               RCALL   ?Subroutine247
   2180            UCSR0B=UCSR0B | TXEN;
   2181            UCSR0B=UCSR0B | TXCIE;
   2182            if(check_cts()==1) return;     
   \                     ??CrossCallReturnLabel_755:
   \   000000AA   F009               BREQ    ??CrossCallReturnLabel_17
   2183            S2_RD;          
   \   000000AC   ....               RCALL   ?Subroutine15
   2184            UDR0=buf_tx_232[0];
   2185            if(Regim==RG_DEBAG) UDR3=buf_tx_232[0];
   \                     ??CrossCallReturnLabel_17:
   \   000000AE   ....               RJMP    ?Subroutine313
   2186          
   2187            return;     
   2188           
   2189           }  

   \                                 In segment FARCODE, align 2, keep-with-next
   \                     ?Subroutine15:
   \   00000000   9A40               SBI     0x08, 0x00
   \   00000002   9841               CBI     0x08, 0x01
   \   00000004   9100....           LDS     R16, buf_tx_232
   \   00000008   930000C6           STS     198, R16
   \   0000000C   9100....           LDS     R16, Regim
   \   00000010   3001               CPI     R16, 1
   \   00000012   F421               BRNE    ??Subroutine15_0
   \   00000014   9100....           LDS     R16, buf_tx_232
   \   00000018   93000136           STS     310, R16
   \                     ??Subroutine15_0:
   \   0000001C   9508               RET

   \                                 In segment FARCODE, align 2, keep-with-next
   \                     ?Subroutine213:
   \   00000000   9100....           LDS     R16, fl_lcp
   \   00000004   7001               ANDI    R16, 0x01
   \   00000006   9110....           LDS     R17, fl_pap
   \   0000000A   7011               ANDI    R17, 0x01
   \   0000000C   2B10               OR      R17, R16
   \   0000000E   9100....           LDS     R16, fl_ipcp
   \   00000012   7001               ANDI    R16, 0x01
   \   00000014   2301               AND     R16, R17
   \   00000016                      REQUIRE ?Subroutine254
   \   00000016                      ;               // Fall through to label ?Subroutine254

   \                                 In segment FARCODE, align 2, keep-with-next
   \                     ?Subroutine254:
   \   00000000   9110....           LDS     R17, fl_ip
   \                     ??Subroutine254_0:
   \   00000004   7011               ANDI    R17, 0x01
   \   00000006   2310               AND     R17, R16
   \   00000008   9508               RET

   \                                 In segment FARCODE, align 2, keep-with-next
   \                     ?Subroutine122:
   \   00000000   ....               RCALL   clr_cntr_nat
   \   00000002   ....               LDI     R30, LOW(fl_ip)
   \   00000004   ....               LDI     R31, (fl_ip) >> 8
   \   00000006   8100               LD      R16, Z
   \   00000008   7F0E               ANDI    R16, 0xFE
   \   0000000A   ........           JMP     ?Subroutine279

   \                                 In segment FARCODE, align 2, keep-with-next
   \                     ?Subroutine192:
   \   00000000   ....               LDI     R16, LOW((buf_tx_232 + 42))
   \   00000002   ....               LDI     R17, HIGH((buf_tx_232 + 42))
   \   00000004   8704               STD     Z+12, R16
   \   00000006   8715               STD     Z+13, R17
   \   00000008   8147               LDD     R20, Z+7
   \   0000000A   E011               LDI     R17, 1
   \   0000000C   9508               RET

   \                                 In segment FARCODE, align 2, keep-with-next
   \                     ?Subroutine181:
   \   00000000   ....               RCALL   ?Subroutine312
   \                     ??__CCRETURN_1:
   \                     ??Subroutine181_0:
   \   00000002   ....               RJMP    form_buf_tx_ppp
   2190            
   2191            
   2192           

   \                                 In segment FARCODE, align 2, keep-with-next
   2193           void monitor_cntr_nat(void)
   \                     monitor_cntr_nat:
   2194           {
   \   00000000   9721               SBIW    R29:R28, 1
   2195           unsigned char temp=NOPPER;
   \   00000002   E000               LDI     R16, 0
   \   00000004   8308               ST      Y, R16
   2196            if((fl_lcp.act_lcp_end!=1)&&(fl_pap.act_pap_end!=1)||(fl_ipcp.act_ipcp_end!=1)||(fl_ip.act_ip_end!=1))return; 
   \   00000006   ....               RCALL   ?Subroutine213
   \                     ??CrossCallReturnLabel_449:
   \   00000008   F099               BREQ    ??CrossCallReturnLabel_18
   2197             
   2198            if(Control.nat==FALSE) return;    
   \   0000000A   9100....           LDS     R16, (Appl_seq + 29)
   \   0000000E   2300               TST     R16
   \   00000010   F079               BREQ    ??CrossCallReturnLabel_18
   2199            clr_cntr_nat();
   \   00000012   ....               RCALL   ?Subroutine122
   2200            fl_ip.act_ip_end=0;
   2201           
   2202            Obj_ppp_tx.prozr=TRUE;           
   \                     ??CrossCallReturnLabel_860:
   \   00000014   ....               LDI     R30, LOW(Obj_ppp_tx)
   \   00000016   ....               LDI     R31, (Obj_ppp_tx) >> 8
   \   00000018   E001               LDI     R16, 1
   \   0000001A   8300               ST      Z, R16
   2203            Obj_ppp_tx.l_data=1;   // длина данных
   \   0000001C   E010               LDI     R17, 0
   \   0000001E   ....               RCALL   ??Subroutine198_0
   2204            Obj_ppp_tx.p_data=&temp;  //указатель буфера данных
   \                     ??CrossCallReturnLabel_295:
   \   00000020   87C4               STD     Z+12, R28
   \   00000022   87D5               STD     Z+13, R29
   2205            
   2206            send_info(sizeof(msg_ctrl_nat),msg_ctrl_nat,0,0);
   \   00000024   E040               LDI     R20, 0
   \   00000026   ....               LDI     R18, LOW(msg_ctrl_nat)
   \   00000028   ....               LDI     R19, (msg_ctrl_nat) >> 8
   \   0000002A   ....               RCALL   ?Subroutine156
   2207            
   2208            form_buf_tx_ppp();                               
   2209            UCSR0A=UCSR0A | TXC;                            
   2210            UCSR0B=UCSR0B | TXEN;
   2211            UCSR0B=UCSR0B | TXCIE;
   2212            if(check_cts()==1) return;                
   \                     ??CrossCallReturnLabel_758:
   \   0000002C   F009               BREQ    ??CrossCallReturnLabel_18
   2213            S2_RD; 
   \   0000002E   ....               RCALL   ?Subroutine15
   2214            UDR0=buf_tx_232[0];
   2215            if(Regim==RG_DEBAG) UDR3=buf_tx_232[0];
   \                     ??CrossCallReturnLabel_18:
   \   00000030   9621               ADIW    R29:R28, 1
   \   00000032   9508               RET
   2216            return; 
   2217           }

   \                                 In segment FARCODE, align 2, keep-with-next
   \                     ?Subroutine156:
   \   00000000   E00C               LDI     R16, 12
   \   00000002   ....               RCALL   ?Subroutine312
   \                     ??__CCRETURN_0:
   \                     ??Subroutine156_0:
   \   00000004   ....               RCALL   form_buf_tx_ppp
   \   00000006   ....               RJMP    ?Subroutine247

   \                                 In segment FARCODE, align 2, keep-with-next
   \                     ?Subroutine198:
   \   00000000   5F0E               SUBI    R16, 254
   \   00000002   4F1F               SBCI    R17, 255
   \                     ??Subroutine198_0:
   \   00000004   8706               STD     Z+14, R16
   \   00000006   8717               STD     Z+15, R17
   \   00000008   9508               RET
   2218           
   2219           

   \                                 In segment FARCODE, align 2, keep-with-next
   2220            void monitor_cntr_cl_seq(void)
   \                     monitor_cntr_cl_seq:
   2221           {
   \   00000000   ....               RCALL   ?Subroutine101
   2222          
   2223            if((fl_lcp.act_lcp_end!=1)&&(fl_pap.act_pap_end!=1)||(fl_ipcp.act_ipcp_end!=1)||(fl_ip.act_ip_end!=1))return;
   \                     ??CrossCallReturnLabel_118:
   \   00000002   ....               RCALL   ?Subroutine213
   \                     ??CrossCallReturnLabel_450:
   \   00000004   F409               BRNE    $+2+2
   \   00000006   C04C               RJMP    ??CrossCallReturnLabel_19
   2224            if(Appl_seq.cntr_cl==FALSE) return;  
   \   00000008   ....               LDI     R24, LOW(Appl_seq)
   \   0000000A   ....               LDI     R25, (Appl_seq) >> 8
   \   0000000C   01FC               MOVW    R31:R30, R25:R24
   \   0000000E   8904               LDD     R16, Z+20
   \   00000010   2300               TST     R16
   \   00000012   F409               BRNE    $+2+2
   \   00000014   C045               RJMP    ??CrossCallReturnLabel_19
   2225            if(Appl_seq.en_cntr_cl==FALSE) return; 
   \   00000016   8905               LDD     R16, Z+21
   \   00000018   2300               TST     R16
   \   0000001A   F409               BRNE    $+2+2
   \   0000001C   C041               RJMP    ??CrossCallReturnLabel_19
   2226            Appl_seq.cnt_cntr_cl=Appl_seq.vol_cntr_cl; 
   \   0000001E   8D00               LDD     R16, Z+24
   \   00000020   8D11               LDD     R17, Z+25
   \   00000022   8B06               STD     Z+22, R16
   \   00000024   8B17               STD     Z+23, R17
   2227            Appl_seq.en_cntr_cl=FALSE;
   \   00000026   E000               LDI     R16, 0
   \   00000028   8B05               STD     Z+21, R16
   2228          
   2229            if (Appl_seq_des==1)return;// блокировка 
   \   0000002A   AD06               LDD     R16, Z+62
   \   0000002C   3001               CPI     R16, 1
   \   0000002E   F1C1               BREQ    ??CrossCallReturnLabel_19
   2230            
   2231            clr_cntr_nat();
   \   00000030   ....               RCALL   ?Subroutine122
   2232            fl_ip.act_ip_end=0;
   2233            Obj_ppp_tx.prozr=FALSE;      //версия       
   \                     ??CrossCallReturnLabel_861:
   \   00000032   ....               RCALL   ?Subroutine74
   2234            Obj_ppp_tx.version=VER2;      //версия 
   2235            Obj_ppp_tx.type_pac=ZAPR;     //тип пакета
   \                     ??CrossCallReturnLabel_80:
   \   00000034   E020               LDI     R18, 0
   \   00000036   8322               STD     Z+2, R18
   2236            Obj_ppp_tx.num_src=num_self; // номер отправителя
   \   00000038   01FC               MOVW    R31:R30, R25:R24
   \   0000003A   ....               RCALL   ?Subroutine224
   2237            Obj_ppp_tx.num_dst=NUM_SRV_LINK; // номер получателя
   \                     ??CrossCallReturnLabel_335:
   \   0000003C   E020               LDI     R18, 0
   \   0000003E   8325               STD     Z+5, R18
   \   00000040   8326               STD     Z+6, R18
   2238            Obj_ppp_tx.id_pac=0; // идентификатор пакета  
   \   00000042   8327               STD     Z+7, R18
   2239            Obj_ppp_tx.p_opt=&buf_opt_tr[0]; // //указатель буфера опций  
   \   00000044   ....               LDI     R30, LOW(Appl_RS232_2)
   \   00000046   ....               LDI     R31, (Appl_RS232_2) >> 8
   \   00000048   019F               MOVW    R19:R18, R31:R30
   \   0000004A   5E2D               SUBI    R18, 237
   \   0000004C   4F3F               SBCI    R19, 255
   \   0000004E   01D8               MOVW    R27:R26, R17:R16
   \   00000050   9618               ADIW    R27:R26, 8
   \   00000052   ....               RCALL   ?Subroutine210
   2240            Obj_ppp_tx.l_opt=0;// длина буфера опций   
   \                     ??CrossCallReturnLabel_317:
   \   00000054   E020               LDI     R18, 0
   \   00000056   01D8               MOVW    R27:R26, R17:R16
   \   00000058   961A               ADIW    R27:R26, 10
   \   0000005A   932C               ST      X, R18
   2241            buf_opt_tr[0]=PROT_SL_LS;
   \   0000005C   E023               LDI     R18, 3
   \   0000005E   8B23               STD     Z+19, R18
   2242            buf_opt_tr[1]=COM_CNTR_CL;
   \   00000060   E022               LDI     R18, 2
   \   00000062   8B24               STD     Z+20, R18
   2243            *(unsigned int*)&buf_opt_tr[2]=L_COM_CNTR_CL;  
   \   00000064   E030               LDI     R19, 0
   \   00000066   8B25               STD     Z+21, R18
   \   00000068   8B36               STD     Z+22, R19
   2244            *(unsigned int*)&buf_opt_tr[4]=num_seq_cl;
   \   0000006A   01DC               MOVW    R27:R26, R25:R24
   \   0000006C   96DA               ADIW    R27:R26, 58
   \   0000006E   ........           CALL    ?Subroutine223
   \                     ??CrossCallReturnLabel_329:
   \   00000072   8B27               STD     Z+23, R18
   \   00000074   8F30               STD     Z+24, R19
   2245            Obj_ppp_tx.kol_opt=0;// количество опций     
   \   00000076   E020               LDI     R18, 0
   \   00000078   01D8               MOVW    R27:R26, R17:R16
   \   0000007A   961B               ADIW    R27:R26, 11
   \   0000007C   932C               ST      X, R18
   2246            Obj_ppp_tx.l_data=6;   // длина данных
   \   0000007E   E026               LDI     R18, 6
   \   00000080   E030               LDI     R19, 0
   \   00000082   01D8               MOVW    R27:R26, R17:R16
   \   00000084   961E               ADIW    R27:R26, 14
   \   00000086   ....               RCALL   ?Subroutine210
   2247            Obj_ppp_tx.p_data=&buf_opt_tr[0];  //указатель буфера данных    
   \                     ??CrossCallReturnLabel_318:
   \   00000088   9673               ADIW    R31:R30, 19
   \   0000008A   01D8               MOVW    R27:R26, R17:R16
   \   0000008C   961C               ADIW    R27:R26, 12
   \   0000008E   93ED               ST      X+, R30
   \   00000090   93FC               ST      X, R31
   2248          
   2249             send_info(sizeof(req_out_ctrl_cl),req_out_ctrl_cl,1,Obj_ppp_tx.id_pac);
   \   00000092   E040               LDI     R20, 0
   \   00000094   E011               LDI     R17, 1
   \   00000096   ....               LDI     R18, LOW(req_out_ctrl_cl)
   \   00000098   ....               LDI     R19, (req_out_ctrl_cl) >> 8
   \   0000009A   ....               RCALL   ?Subroutine156
   2250            
   2251            form_buf_tx_ppp();                            
   2252            UCSR0A=UCSR0A | TXC;                            
   2253            UCSR0B=UCSR0B | TXEN;
   2254            UCSR0B=UCSR0B | TXCIE;
   2255            if(check_cts()==1) return; 
   \                     ??CrossCallReturnLabel_759:
   \   0000009C   F009               BREQ    ??CrossCallReturnLabel_19
   2256            S2_RD;               
   \   0000009E   ....               RCALL   ?Subroutine15
   2257            UDR0=buf_tx_232[0];
   2258            if(Regim==RG_DEBAG) UDR3=buf_tx_232[0];
   \                     ??CrossCallReturnLabel_19:
   \   000000A0   ....               RJMP    ?Subroutine286
   2259            return;      
   2260           }  

   \                                 In segment FARCODE, align 2, keep-with-next
   \                     ?Subroutine224:
   \   00000000   AD20               LDD     R18, Z+56
   \   00000002   AD31               LDD     R19, Z+57
   \   00000004   01F8               MOVW    R31:R30, R17:R16
   \   00000006   8323               STD     Z+3, R18
   \   00000008   8334               STD     Z+4, R19
   \   0000000A   9508               RET

   \                                 In segment FARCODE, align 2, keep-with-next
   \                     ?Subroutine74:
   \   00000000   ....               LDI     R16, LOW(Obj_ppp_tx)
   \   00000002   ....               LDI     R17, (Obj_ppp_tx) >> 8
   \   00000004   E020               LDI     R18, 0
   \   00000006   01F8               MOVW    R31:R30, R17:R16
   \   00000008   8320               ST      Z, R18
   \   0000000A   E022               LDI     R18, 2
   \   0000000C   8321               STD     Z+1, R18
   \   0000000E   9508               RET

   \                                 In segment FARCODE, align 2, keep-with-next
   \                     ?Subroutine223:
   \   00000000   912D               LD      R18, X+
   \   00000002   913C               LD      R19, X
   \   00000004   9508               RET
   2261          
   2262          /*
   2263          
   2264          void monitor_change_state(void)
   2265          {
   2266          
   2267          unsigned char buf[10];                                                                           
   2268          
   2269          sv1.tc=struct_tcc1.real_tc;
   2270          
   2271          if (Appl_seq_des==1)return;// блокировка опроса охранки
   2272          
   2273          
   2274          if(fl_appl_seq1.send_state==1)
   2275          {
   2276          fl_appl_seq1.send_state=0;
   2277          buf[0]=SEQ_STATE;
   2278          *(unsigned int*)&buf[1]=L_STATE;
   2279          *(unsigned long int*)&buf[3]=burst_ds_r();
   2280          buf[7]=state_seq;
   2281          buf[8]=sv1.tc & 0x01;
   2282          //buf[9]=0;
   2283          buf[9]=byte_state_net & 0x01;
   2284          if(write_to_buf(&Appl_seq_buf[0],&Appl_seq.p_in,&Appl_seq.p_out,&Appl_seq.p_out_kv,&Appl_seq.crc,&buf[0],L_STATE+3, sizeof(Appl_seq_buf))==1)
   2285            {
   2286             fl_appl_seq1.over_buf=1;
   2287            }
   2288          }
   2289          
   2290          
   2291          
   2292          
   2293          
   2294          if( (sv1.tc & 0x01)!=(sv1.tc_old & 0x01))
   2295            {
   2296            if(sv1.tc & 0x01)Appl_seq.event=EV_TC_NORMA; else Appl_seq.event=EV_TC_ALARM;
   2297            sv1.tc_old=sv1.tc;
   2298            }
   2299          
   2300          
   2301          switch(Appl_seq.state)
   2302          {
   2303          case ST_ALARM:
   2304                                  
   2305                       switch(Appl_seq.event)
   2306                       {
   2307                       case(EV_TC_NORMA):                   
   2308                                   Appl_seq.tm_vzat=Appl_seq.vol_tm_vzat;
   2309                                   Appl_seq.state=ST_VZATIE;
   2310                                   break;
   2311                       case(EV_TM_OUT):
   2312                                   Appl_seq.tm_vzat=Appl_seq.vol_tm_vzat;
   2313                                   break;            
   2314                       default: break;
   2315                       }
   2316               break;
   2317          case ST_VZAT:
   2318          
   2319          
   2320                       switch(Appl_seq.event)
   2321                       {
   2322                       case(EV_TC_ALARM):
   2323                                   send_info(sizeof(evc_alarm),evc_alarm,0,0);
   2324                                  
   2325                                   Appl_seq.tm_vzat=Appl_seq.vol_tm_vzat;
   2326                                   Appl_seq.state=ST_ALARM;
   2327                                   state_seq=ALARM;
   2328                                   buf[0]=ALARM;
   2329                                   *(unsigned int*)&buf[1]=L_ALARM;
   2330                                   *(unsigned long int*)&buf[3]=burst_ds_r();
   2331                                   buf[7]=sv1.tc & 0x01;
   2332                                   buf[8]=0;
   2333                                   if(write_to_buf(&Appl_seq_buf[0],&Appl_seq.p_in,&Appl_seq.p_out,&Appl_seq.p_out_kv,&Appl_seq.crc,&buf[0],L_ALARM+3, sizeof(Appl_seq_buf))==1)
   2334                                   {
   2335                                   fl_appl_seq1.over_buf=1;
   2336                                   }
   2337                                   break;
   2338                       default: break;
   2339                       }
   2340               break;     
   2341          case ST_VZATIE:
   2342                       switch(Appl_seq.event)
   2343                       {
   2344                       case(EV_TC_ALARM):
   2345                                   Appl_seq.tm_vzat=Appl_seq.vol_tm_vzat;
   2346                                   Appl_seq.state=ST_ALARM;
   2347                                   break;
   2348                       case(EV_TM_OUT):
   2349                                   
   2350                                   send_info(sizeof(evc_taken),evc_taken,0,0);
   2351                                   
   2352                                   Appl_seq.state=ST_VZAT;
   2353                                    state_seq=VZAT;
   2354                                    buf[0]=VZAT;
   2355                                   *(unsigned int*)&buf[1]=L_VZAT;
   2356                                   *(unsigned long int*)&buf[3]=burst_ds_r();
   2357                                   buf[7]=sv1.tc & 0x01;
   2358                                   buf[8]=0;
   2359                                   if(write_to_buf(&Appl_seq_buf[0],&Appl_seq.p_in,&Appl_seq.p_out,&Appl_seq.p_out_kv,&Appl_seq.crc,&buf[0],L_VZAT+3, sizeof(Appl_seq_buf))==1)
   2360                                   {
   2361                                   fl_appl_seq1.over_buf=1;
   2362                                   }
   2363                                   break;       
   2364                       default: break;
   2365                       }
   2366               break;          
   2367               
   2368          default: break;
   2369          }
   2370          
   2371          } 
   2372           
   2373           
   2374          */
   2375          
   2376          

   \                                 In segment FARCODE, align 2, keep-with-next
   2377          void monitor_change_state(void)
   \                     monitor_change_state:
   2378          {
   \   00000000   ........           CALL    ?PROLOGUE5_L09
   \   00000004                      REQUIRE ?Register_R4_is_cg_reg
   \   00000004   972A               SBIW    R29:R28, 10
   2379          
   2380          unsigned char buf[10]; 
   2381          unsigned char flag_msg=0;
   \   00000006   2444               CLR     R4
   2382          
   2383          
   2384          sv1.tc=struct_tcc1.real_tc;
   \   00000008   ....               LDI     R24, LOW(struct_tcc1)
   \   0000000A   ....               LDI     R25, (struct_tcc1) >> 8
   \   0000000C   01FC               MOVW    R31:R30, R25:R24
   \   0000000E   8101               LDD     R16, Z+1
   \   00000010   7001               ANDI    R16, 0x01
   \   00000012   ....               RCALL   ?Subroutine225
   \                     ??CrossCallReturnLabel_337:
   \   00000014   FB00               BST     R16, 0
   \   00000016   8101               LDD     R16, Z+1
   \   00000018   F900               BLD     R16, 0
   \   0000001A   8301               STD     Z+1, R16
   2385          switch (struct_tcc1.type)
   \   0000001C   ....               LDI     R26, LOW(Appl_seq)
   \   0000001E   ....               LDI     R27, (Appl_seq) >> 8
   \   00000020   01FC               MOVW    R31:R30, R25:R24
   \   00000022   8104               LDD     R16, Z+4
   \   00000024   950A               DEC     R16
   \   00000026   F019               BREQ    ??monitor_change_state_0
   \   00000028   950A               DEC     R16
   \   0000002A   F091               BREQ    ??monitor_change_state_1
   \   0000002C   C020               RJMP    ??monitor_change_state_2
   2386          {
   2387          case TC_SUHOI:
   2388                 if(struct_tcc1.cnt_block_tc==0)       
   \                     ??monitor_change_state_0:
   \   0000002E   8105               LDD     R16, Z+5
   \   00000030   2300               TST     R16
   \   00000032   F459               BRNE    ??CrossCallReturnLabel_843
   2389                 {
   2390                   if( (sv1.tc & 0x01)!=(sv1.tc_old & 0x01))
   \   00000034   ....               RCALL   ?Subroutine197
   \                     ??CrossCallReturnLabel_293:
   \   00000036   F049               BREQ    ??CrossCallReturnLabel_843
   2391                   { 
   2392                   struct_tcc1.cnt_block_tc=VOL_BLOCK_TC;
   \   00000038   E003               LDI     R16, 3
   \   0000003A   01FC               MOVW    R31:R30, R25:R24
   \   0000003C   8305               STD     Z+5, R16
   2393                   //установить флаг есть событие
   2394                   flag_msg=1;
   \   0000003E   9443               INC     R4
   2395                   sv1.tc_old=sv1.tc;
   \   00000040   ....               RCALL   ?Subroutine194
   2396                   send_info(sizeof(evc_ts1),evc_ts1,0,0);
   \                     ??CrossCallReturnLabel_597:
   \   00000042   ....               RCALL   ??Subroutine253_0
   \                     ??CrossCallReturnLabel_820:
   \   00000044   ....               LDI     R18, LOW((evc_taken + 18))
   \   00000046   ....               LDI     R19, HIGH((evc_taken + 18))
   \   00000048   ....               RCALL   ?Subroutine182
   2397                   }
   2398                 }
   2399                 buf[7]=DES_SEQ;
   \                     ??CrossCallReturnLabel_843:
   \   0000004A   EF0F               LDI     R16, 255
   \   0000004C   830F               STD     Y+7, R16
   \   0000004E   C00B               RJMP    ??CrossCallReturnLabel_598
   2400                 buf[8]=sv1.tc & 0x01;
   2401                 break;
   2402          case TC_SHL:
   2403                 if( (sv1.tc & 0x01)!=(sv1.tc_old & 0x01))
   \                     ??monitor_change_state_1:
   \   00000050   ....               RCALL   ?Subroutine197
   \                     ??CrossCallReturnLabel_294:
   \   00000052   F049               BREQ    ??CrossCallReturnLabel_598
   2404                 {
   2405                   if(sv1.tc & 0x01)Appl_seq.event=EV_TC_NORMA; else Appl_seq.event=EV_TC_ALARM;
   \   00000054   8101               LDD     R16, Z+1
   \   00000056   FF00               SBRS    R16, 0
   \   00000058   C003               RJMP    ??monitor_change_state_3
   \   0000005A   ....               RCALL   ?Subroutine25
   \                     ??CrossCallReturnLabel_439:
   \   0000005C   8707               STD     Z+15, R16
   \   0000005E   C002               RJMP    ??monitor_change_state_4
   \                     ??monitor_change_state_3:
   \   00000060   01FD               MOVW    R31:R30, R27:R26
   \   00000062   8647               STD     Z+15, R4
   2406                   sv1.tc_old=sv1.tc;
   \                     ??monitor_change_state_4:
   \   00000064   ....               RCALL   ?Subroutine194
   2407                 }
   2408                 buf[8]=sv1.tc & 0x01;
   \                     ??CrossCallReturnLabel_598:
   \   00000066   9100....           LDS     R16, (state_seq + 1)
   \   0000006A   7001               ANDI    R16, 0x01
   \   0000006C   C004               RJMP    ??monitor_change_state_5
   2409                 break;
   2410          default:  
   2411                   buf[7]=DES_SEQ;
   \                     ??monitor_change_state_2:
   \   0000006E   EF0F               LDI     R16, 255
   \   00000070   830F               STD     Y+7, R16
   2412                   sv1.tc_old=sv1.tc; 
   \   00000072   ....               RCALL   ?Subroutine194
   2413                   buf[8]=DES_SEQ;
   \                     ??CrossCallReturnLabel_599:
   \   00000074   EF0F               LDI     R16, 255
   \                     ??monitor_change_state_5:
   \   00000076   8708               STD     Y+8, R16
   2414          }
   2415             
   2416          
   2417          sv2.tc=struct_tcc2.real_tc;
   \   00000078   ....               LDI     R16, LOW(struct_tcc2)
   \   0000007A   ....               LDI     R17, (struct_tcc2) >> 8
   \   0000007C   01F8               MOVW    R31:R30, R17:R16
   \   0000007E   8121               LDD     R18, Z+1
   \   00000080   7021               ANDI    R18, 0x01
   \   00000082   ....               RCALL   ?Subroutine225
   \                     ??CrossCallReturnLabel_338:
   \   00000084   FB20               BST     R18, 0
   \   00000086   8122               LDD     R18, Z+2
   \   00000088   F920               BLD     R18, 0
   \   0000008A   8322               STD     Z+2, R18
   2418          if(struct_tcc2.type==TC_SUHOI)
   \   0000008C   01F8               MOVW    R31:R30, R17:R16
   \   0000008E   8124               LDD     R18, Z+4
   \   00000090   3021               CPI     R18, 1
   \   00000092   F501               BRNE    ??monitor_change_state_6
   2419             {
   2420               if(struct_tcc2.cnt_block_tc==0)
   \   00000094   8125               LDD     R18, Z+5
   \   00000096   2322               TST     R18
   \   00000098   F4C9               BRNE    ??monitor_change_state_7
   2421               {
   2422                 if( (sv2.tc & 0x01)!=(sv2.tc_old & 0x01))
   \   0000009A   ....               RCALL   ?Subroutine225
   \                     ??CrossCallReturnLabel_339:
   \   0000009C   8122               LDD     R18, Z+2
   \   0000009E   7021               ANDI    R18, 0x01
   \   000000A0   8132               LDD     R19, Z+2
   \   000000A2   FB31               BST     R19, 1
   \   000000A4   E030               LDI     R19, 0
   \   000000A6   F930               BLD     R19, 0
   \   000000A8   1723               CP      R18, R19
   \   000000AA   F081               BREQ    ??monitor_change_state_7
   2423                   {
   2424                     struct_tcc2.cnt_block_tc=VOL_BLOCK_TC;
   \   000000AC   E023               LDI     R18, 3
   \   000000AE   01F8               MOVW    R31:R30, R17:R16
   \   000000B0   8325               STD     Z+5, R18
   2425                     //установить флаг есть событие;
   2426                     send_info(sizeof(evc_ts2),evc_ts2,0,0);
   \   000000B2   ....               RCALL   ??Subroutine253_0
   \                     ??CrossCallReturnLabel_821:
   \   000000B4   ....               LDI     R18, LOW((evc_taken + 25))
   \   000000B6   ....               LDI     R19, HIGH((evc_taken + 25))
   \   000000B8   ....               RCALL   ?Subroutine182
   2427                     flag_msg=1;
   \                     ??CrossCallReturnLabel_842:
   \   000000BA   2444               CLR     R4
   \   000000BC   9443               INC     R4
   2428                     sv2.tc_old=sv2.tc;
   \   000000BE   ....               RCALL   ?Subroutine225
   \                     ??CrossCallReturnLabel_340:
   \   000000C0   8102               LDD     R16, Z+2
   \   000000C2   7001               ANDI    R16, 0x01
   \   000000C4   FB00               BST     R16, 0
   \   000000C6   8102               LDD     R16, Z+2
   \   000000C8   F901               BLD     R16, 1
   \   000000CA   8302               STD     Z+2, R16
   2429                    }
   2430                }
   2431               
   2432               buf[9]=sv2.tc & 0x01;
   \                     ??monitor_change_state_7:
   \   000000CC   9100....           LDS     R16, (state_seq + 2)
   \   000000D0   7001               ANDI    R16, 0x01
   \   000000D2   C005               RJMP    ??monitor_change_state_8
   2433             }
   2434          else {sv2.tc_old=sv2.tc; buf[9]=DES_SEQ;}
   \                     ??monitor_change_state_6:
   \   000000D4   ....               RCALL   ?Subroutine225
   \                     ??CrossCallReturnLabel_341:
   \   000000D6   8102               LDD     R16, Z+2
   \   000000D8   F901               BLD     R16, 1
   \   000000DA   8302               STD     Z+2, R16
   \   000000DC   EF0F               LDI     R16, 255
   \                     ??monitor_change_state_8:
   \   000000DE   8709               STD     Y+9, R16
   2435          
   2436          
   2437          
   2438          
   2439          if(struct_tcc1.type==TC_SHL)
   \   000000E0   01FC               MOVW    R31:R30, R25:R24
   \   000000E2   8104               LDD     R16, Z+4
   \   000000E4   3002               CPI     R16, 2
   \   000000E6   F5E9               BRNE    ??monitor_change_state_9
   2440          {
   2441          switch(Appl_seq.state)
   \   000000E8   01FD               MOVW    R31:R30, R27:R26
   \   000000EA   8902               LDD     R16, Z+18
   \   000000EC   8913               LDD     R17, Z+19
   \   000000EE   8537               LDD     R19, Z+15
   \   000000F0   8526               LDD     R18, Z+14
   \   000000F2   2322               TST     R18
   \   000000F4   F029               BREQ    ??monitor_change_state_10
   \   000000F6   952A               DEC     R18
   \   000000F8   F081               BREQ    ??monitor_change_state_11
   \   000000FA   952A               DEC     R18
   \   000000FC   F0C1               BREQ    ??monitor_change_state_12
   \   000000FE   C031               RJMP    ??monitor_change_state_9
   2442          {
   2443          case ST_ALARM:
   2444                                  
   2445                       switch(Appl_seq.event)
   \                     ??monitor_change_state_10:
   \   00000100   953A               DEC     R19
   \   00000102   F019               BREQ    ??monitor_change_state_13
   \   00000104   953A               DEC     R19
   \   00000106   F031               BREQ    ??monitor_change_state_14
   \   00000108   C02C               RJMP    ??monitor_change_state_9
   2446                       {
   2447                       case(EV_TC_NORMA):                   
   2448                                   Appl_seq.tm_vzat=Appl_seq.vol_tm_vzat;
   \                     ??monitor_change_state_13:
   \   0000010A   8B00               STD     Z+16, R16
   \   0000010C   8B11               STD     Z+17, R17
   2449                                   Appl_seq.state=ST_VZATIE;
   \   0000010E   E002               LDI     R16, 2
   \                     ??monitor_change_state_15:
   \   00000110   8706               STD     Z+14, R16
   \   00000112   C027               RJMP    ??monitor_change_state_9
   2450                                   break;
   2451                       case(EV_TM_OUT):
   2452                                   Appl_seq.tm_vzat=Appl_seq.vol_tm_vzat;
   \                     ??monitor_change_state_14:
   \   00000114   8B00               STD     Z+16, R16
   \   00000116   8B11               STD     Z+17, R17
   \   00000118   C024               RJMP    ??monitor_change_state_9
   2453                                   break;            
   2454                       default: break;
   2455                       }
   2456               break;
   2457          case ST_VZAT:
   2458          
   2459          
   2460                       switch(Appl_seq.event)
   \                     ??monitor_change_state_11:
   \   0000011A   2333               TST     R19
   \   0000011C   F511               BRNE    ??monitor_change_state_9
   2461                       {
   2462                       case(EV_TC_ALARM):
   2463                                   send_info(sizeof(evc_alarm),evc_alarm,0,0);
   \   0000011E   ....               RCALL   ??Subroutine253_0
   \                     ??CrossCallReturnLabel_822:
   \   00000120   ....               LDI     R18, LOW((evc_taken + 9))
   \   00000122   ....               LDI     R19, HIGH((evc_taken + 9))
   \   00000124   E009               LDI     R16, 9
   \   00000126   ....               RCALL   ??Subroutine291_0
   2464                                  
   2465                                   Appl_seq.tm_vzat=Appl_seq.vol_tm_vzat;
   \                     ??CrossCallReturnLabel_837:
   \   00000128   01FD               MOVW    R31:R30, R27:R26
   \   0000012A   ....               RCALL   ?Subroutine127
   2466                                   Appl_seq.state=ST_ALARM;
   2467                                   state_seq=ALRM;
   \                     ??CrossCallReturnLabel_162:
   \   0000012C   C011               RJMP    ??monitor_change_state_16
   2468                                   buf[7]=ALRM;
   2469                                   buf[8]=sv1.tc & 0x01;
   2470                                   //установить флаг есть событие;
   2471                                   flag_msg=1;
   2472                                   break;
   2473                       default: break;
   2474                       }
   2475               break;     
   2476          case ST_VZATIE:
   2477                       switch(Appl_seq.event)
   \                     ??monitor_change_state_12:
   \   0000012E   2333               TST     R19
   \   00000130   F019               BREQ    ??monitor_change_state_17
   \   00000132   5032               SUBI    R19, 2
   \   00000134   F029               BREQ    ??monitor_change_state_18
   \   00000136   C015               RJMP    ??monitor_change_state_9
   2478                       {
   2479                       case(EV_TC_ALARM):
   2480                                   Appl_seq.tm_vzat=Appl_seq.vol_tm_vzat;
   \                     ??monitor_change_state_17:
   \   00000138   8B00               STD     Z+16, R16
   \   0000013A   8B11               STD     Z+17, R17
   2481                                   Appl_seq.state=ST_ALARM;
   \   0000013C   E000               LDI     R16, 0
   \   0000013E   CFE8               RJMP    ??monitor_change_state_15
   2482                                   break;
   2483                       case(EV_TM_OUT):
   2484                                   
   2485                                   send_info(sizeof(evc_taken),evc_taken,0,0);
   \                     ??monitor_change_state_18:
   \   00000140   ....               RCALL   ??Subroutine253_0
   \                     ??CrossCallReturnLabel_823:
   \   00000142   ....               LDI     R18, LOW(evc_taken)
   \   00000144   ....               LDI     R19, (evc_taken) >> 8
   \   00000146   E009               LDI     R16, 9
   \   00000148   ....               RCALL   ??Subroutine291_0
   2486                                   
   2487                                   Appl_seq.state=ST_VZAT;
   \                     ??CrossCallReturnLabel_836:
   \   0000014A   ....               RCALL   ?Subroutine25
   \                     ??CrossCallReturnLabel_440:
   \   0000014C   8706               STD     Z+14, R16
   2488                                   state_seq=VZT;
   \   0000014E   E005               LDI     R16, 5
   \                     ??monitor_change_state_16:
   \   00000150   9300....           STS     state_seq, R16
   2489                                   buf[7]=VZT;
   \   00000154   830F               STD     Y+7, R16
   2490                                   buf[8]=sv1.tc & 0x01;
   \   00000156   9100....           LDS     R16, (state_seq + 1)
   \   0000015A   7001               ANDI    R16, 0x01
   \   0000015C   8708               STD     Y+8, R16
   2491                                   flag_msg=1;
   \   0000015E   2444               CLR     R4
   \   00000160   9443               INC     R4
   2492                                   //установить флаг есть событие;
   2493                                   break;       
   2494                       default: break;
   2495                       }
   2496               break;          
   2497               
   2498          default: break;
   2499          }
   2500          
   2501          }
   2502          
   2503          
   2504          
   2505          
   2506          
   2507          if (Appl_seq_des==1)return;//блокировка сообщений
   \                     ??monitor_change_state_9:
   \   00000162   01FD               MOVW    R31:R30, R27:R26
   \   00000164   AD06               LDD     R16, Z+62
   \   00000166   3001               CPI     R16, 1
   \   00000168   F121               BREQ    ??CrossCallReturnLabel_876
   2508          
   2509          
   2510          if ((flag_msg==1)||(fl_appl_seq1.send_state==1))
   \   0000016A   E001               LDI     R16, 1
   \   0000016C   1640               CP      R4, R16
   \   0000016E   F021               BREQ    ??monitor_change_state_19
   \   00000170   9100....           LDS     R16, (Appl_RS485_1 + 60)
   \   00000174   FF01               SBRS    R16, 1
   \   00000176   C01D               RJMP    ??CrossCallReturnLabel_876
   2511          {
   2512          if(fl_appl_seq1.send_state==1)fl_appl_seq1.send_state=0; 
   \                     ??monitor_change_state_19:
   \   00000178   ....               LDI     R30, LOW((Appl_RS485_1 + 60))
   \   0000017A   ....               LDI     R31, HIGH((Appl_RS485_1 + 60))
   \   0000017C   8100               LD      R16, Z
   \   0000017E   FF01               SBRS    R16, 1
   \   00000180   C002               RJMP    ??CrossCallReturnLabel_871
   \   00000182   ........           CALL    ?Subroutine187
   2513          buf[0]=SEQ_STATE;
   \                     ??CrossCallReturnLabel_871:
   \   00000186   ....               RCALL   ?Subroutine41
   2514          *(unsigned int*)&buf[1]=L_STATE;
   2515          *(unsigned long int*)&buf[3]=burst_ds_r();
   2516          if(write_to_buf(&Appl_seq_buf[0],&Appl_seq.p_in,&Appl_seq.p_out,&Appl_seq.p_out_kv,&Appl_seq.crc,&buf[0],L_STATE+3, sizeof(Appl_seq_buf))==1)
   \                     ??CrossCallReturnLabel_43:
   \   00000188   ....               RCALL   ?Subroutine47
   \                     ??CrossCallReturnLabel_527:
   \   0000018A   018D               MOVW    R17:R16, R27:R26
   \   0000018C   5F09               SUBI    R16, 249
   \   0000018E   4F1F               SBCI    R17, 255
   \   00000190   ....               RCALL   ?Subroutine265
   \                     ??CrossCallReturnLabel_523:
   \   00000192   01BD               MOVW    R23:R22, R27:R26
   \   00000194   5F6B               SUBI    R22, 251
   \   00000196   4F7F               SBCI    R23, 255
   \   00000198   01AD               MOVW    R21:R20, R27:R26
   \   0000019A   5F4D               SUBI    R20, 253
   \   0000019C   4F5F               SBCI    R21, 255
   \   0000019E   9611               ADIW    R27:R26, 1
   \   000001A0   019D               MOVW    R19:R18, R27:R26
   \   000001A2   ....               LDI     R16, LOW(Appl_seq_buf)
   \   000001A4   ....               LDI     R17, (Appl_seq_buf) >> 8
   \   000001A6   ........           CALL    write_to_buf
   \   000001AA   3001               CPI     R16, 1
   \   000001AC   F411               BRNE    ??CrossCallReturnLabel_876
   2517                                   {
   2518                                   fl_appl_seq1.over_buf=1;
   \   000001AE   ........           CALL    ?Subroutine91
   \                     ??CrossCallReturnLabel_876:
   \   000001B2   962A               ADIW    R29:R28, 10
   \   000001B4                      REQUIRE ?Subroutine293
   \   000001B4                      ;               // Fall through to label ?Subroutine293
   2519                                   }
   2520          
   2521          }
   2522          
   2523          
   2524          } 

   \                                 In segment FARCODE, align 2, keep-with-next
   \                     ?Subroutine293:
   \   00000000   E0E5               LDI     R30, 5
   \   00000002   ........           JMP     ?EPILOGUE_B5_L09

   \                                 In segment FARCODE, align 2, keep-with-next
   \                     ?Subroutine225:
   \   00000000   ....               LDI     R30, LOW(state_seq)
   \   00000002   ....               LDI     R31, (state_seq) >> 8
   \   00000004   9508               RET

   \                                 In segment FARCODE, align 2, keep-with-next
   \                     ?Subroutine197:
   \   00000000   ....               LDI     R30, LOW(state_seq)
   \   00000002   ....               LDI     R31, (state_seq) >> 8
   \   00000004   8101               LDD     R16, Z+1
   \   00000006   7001               ANDI    R16, 0x01
   \   00000008   8111               LDD     R17, Z+1
   \   0000000A   FB11               BST     R17, 1
   \   0000000C   E010               LDI     R17, 0
   \   0000000E   F910               BLD     R17, 0
   \   00000010   1701               CP      R16, R17
   \   00000012   9508               RET

   \                                 In segment FARCODE, align 2, keep-with-next
   \                     ?Subroutine194:
   \   00000000   ....               LDI     R30, LOW(state_seq)
   \   00000002   ....               LDI     R31, (state_seq) >> 8
   \   00000004   8101               LDD     R16, Z+1
   \   00000006   7001               ANDI    R16, 0x01
   \   00000008   FB00               BST     R16, 0
   \   0000000A   8101               LDD     R16, Z+1
   \   0000000C   F901               BLD     R16, 1
   \   0000000E   ....               RJMP    ?Subroutine276

   \                                 In segment FARCODE, align 2, keep-with-next
   \                     ?Subroutine187:
   \   00000000   7F0D               ANDI    R16, 0xFD
   \   00000002   ....               RJMP    ?Subroutine279
   2525          
   2526          
   2527           

   \                                 In segment FARCODE, align 2, keep-with-next
   2528          void Application_SEQ_tx(void)
   \                     Application_SEQ_tx:
   2529          {
   \   00000000   ....               RCALL   ?Subroutine101
   2530           if(fl_appl_seq1.enable==0)return;
   \                     ??CrossCallReturnLabel_119:
   \   00000002   ....               LDI     R30, LOW((Appl_RS485_1 + 60))
   \   00000004   ....               LDI     R31, HIGH((Appl_RS485_1 + 60))
   \   00000006   8100               LD      R16, Z
   \   00000008   FF02               SBRS    R16, 2
   \   0000000A   C078               RJMP    ??Application_SEQ_tx_0
   2531            
   2532           if (Appl_seq_des==1)return;// блокировка сообщений
   \   0000000C   ....               RCALL   ?Subroutine95
   \                     ??CrossCallReturnLabel_763:
   \   0000000E   F409               BRNE    $+2+2
   \   00000010   C075               RJMP    ??Application_SEQ_tx_0
   2533           
   2534           if(Appl_seq.cntr_cl==TRUE) return;
   \   00000012   8904               LDD     R16, Z+20
   \   00000014   3001               CPI     R16, 1
   \   00000016   F409               BRNE    $+2+2
   \   00000018   C071               RJMP    ??Application_SEQ_tx_0
   2535           
   2536           if((fl_lcp.act_lcp_end!=1)&&(fl_pap.act_pap_end!=1)||(fl_ipcp.act_ipcp_end!=1)||(fl_ip.act_ip_end!=1))return;
   \   0000001A   ....               RCALL   ?Subroutine213
   \                     ??CrossCallReturnLabel_451:
   \   0000001C   F409               BRNE    $+2+2
   \   0000001E   C06E               RJMP    ??Application_SEQ_tx_0
   2537                //проверять здесь готово ли для отправки буфер PPP 
   2538                
   2539            
   2540                  Obj_ppp_tx.l_data=read_from_buf(&Appl_seq_buf[0],&Appl_seq.p_in,&Appl_seq.p_out,&Appl_seq.p_out_kv,&Appl_seq.crc,&buf_tx_232[TR_OP_DATA+C1_DATA],sizeof(Appl_seq_buf));  
   \   00000020   ....               LDI     R26, LOW(Obj_ppp_tx)
   \   00000022   ....               LDI     R27, (Obj_ppp_tx) >> 8
   \   00000024   ....               RCALL   ?Subroutine153
   \                     ??CrossCallReturnLabel_529:
   \   00000026   ....               LDI     R16, LOW((buf_tx_232 + 44))
   \   00000028   ....               LDI     R17, HIGH((buf_tx_232 + 44))
   \   0000002A   ....               RCALL   ?Subroutine265
   \                     ??CrossCallReturnLabel_524:
   \   0000002C   018C               MOVW    R17:R16, R25:R24
   \   0000002E   5F09               SUBI    R16, 249
   \   00000030   4F1F               SBCI    R17, 255
   \   00000032   ....               RCALL   ?Subroutine265
   \                     ??CrossCallReturnLabel_525:
   \   00000034   01BC               MOVW    R23:R22, R25:R24
   \   00000036   5F6B               SUBI    R22, 251
   \   00000038   4F7F               SBCI    R23, 255
   \   0000003A   01AC               MOVW    R21:R20, R25:R24
   \   0000003C   5F4D               SUBI    R20, 253
   \   0000003E   4F5F               SBCI    R21, 255
   \   00000040   019C               MOVW    R19:R18, R25:R24
   \   00000042   ....               RCALL   ?Subroutine298
   \                     ??CrossCallReturnLabel_804:
   \   00000044   ....               LDI     R16, LOW(Appl_seq_buf)
   \   00000046   ....               LDI     R17, (Appl_seq_buf) >> 8
   \   00000048   ........           CALL    read_from_buf
   \   0000004C   01FD               MOVW    R31:R30, R27:R26
   \   0000004E   ....               RCALL   ??Subroutine198_0
   2541                    if(Obj_ppp_tx.l_data!=0)
   \                     ??CrossCallReturnLabel_296:
   \   00000050   2F20               MOV     R18, R16
   \   00000052   2B21               OR      R18, R17
   \   00000054   F409               BRNE    $+2+2
   \   00000056   C052               RJMP    ??Application_SEQ_tx_0
   2542                     {
   2543                        // приращение идентификатора
   2544                        if(Appl_seq.l_data!=Obj_ppp_tx.l_data)
   \   00000058   01FC               MOVW    R31:R30, R25:R24
   \   0000005A   8524               LDD     R18, Z+12
   \   0000005C   8535               LDD     R19, Z+13
   \   0000005E   1720               CP      R18, R16
   \   00000060   0731               CPC     R19, R17
   \   00000062   F409               BRNE    $+2+2
   \   00000064   C04B               RJMP    ??Application_SEQ_tx_0
   2545                           {
   2546                           if(fl_appl_seq.en_povtor==0)Appl_seq.id++;
   \   00000066   ....               RCALL   ?Subroutine169
   \                     ??CrossCallReturnLabel_240:
   \   00000068   AD03               LDD     R16, Z+59
   \   0000006A   FD02               SBRC    R16, 2
   \   0000006C   C003               RJMP    ??Application_SEQ_tx_1
   \   0000006E   ....               RCALL   ?Subroutine97
   \                     ??CrossCallReturnLabel_618:
   \   00000070   9503               INC     R16
   \   00000072   8300               ST      Z, R16
   2547                           }else return;
   2548                         
   2549          
   2550                         
   2551                         Appl_seq.cnt_waits=Control.vol_waits;              
   \                     ??Application_SEQ_tx_1:
   \   00000074   01FC               MOVW    R31:R30, R25:R24
   \   00000076   A106               LDD     R16, Z+38
   \   00000078   A117               LDD     R17, Z+39
   \   0000007A   8701               STD     Z+9, R16
   \   0000007C   8712               STD     Z+10, R17
   2552                         fl_appl_seq.kv_waits=1;      
   2553                         fl_appl_seq.en_povtor=0;  
   \   0000007E   ....               RCALL   ?Subroutine169
   \                     ??CrossCallReturnLabel_241:
   \   00000080   AD03               LDD     R16, Z+59
   \   00000082   7F0B               ANDI    R16, 0xFB
   \   00000084   6002               ORI     R16, 0x02
   \   00000086   AF03               STD     Z+59, R16
   2554                         Appl_seq.l_data=Obj_ppp_tx.l_data;
   \   00000088   ........           CALL    ?Subroutine190
   \                     ??CrossCallReturnLabel_276:
   \   0000008C   01FC               MOVW    R31:R30, R25:R24
   \   0000008E   8704               STD     Z+12, R16
   \   00000090   8715               STD     Z+13, R17
   2555                       
   2556                       
   2557                       //формирование на передачу в буффер
   2558                         clr_cntr_nat();
   \   00000092   ....               RCALL   ?Subroutine122
   2559                        
   2560                        // clr_cntr_link_2(); // proverka
   2561                         
   2562                         fl_ip.act_ip_end=0;
   2563            
   2564                         Obj_ppp_tx.prozr=FALSE;            
   \                     ??CrossCallReturnLabel_862:
   \   00000094   E000               LDI     R16, 0
   \   00000096   930C               ST      X, R16
   2565                         Obj_ppp_tx.version=VER2;      //версия 
   \   00000098   E002               LDI     R16, 2
   \   0000009A   ....               RCALL   ?Subroutine117
   2566                         Obj_ppp_tx.type_pac=SOOB;     //тип пакета
   \                     ??CrossCallReturnLabel_594:
   \   0000009C   8302               STD     Z+2, R16
   2567                         Obj_ppp_tx.num_src=num_self; // номер отправителя
   \   0000009E   01FC               MOVW    R31:R30, R25:R24
   \   000000A0   AD00               LDD     R16, Z+56
   \   000000A2   AD11               LDD     R17, Z+57
   \   000000A4   01FD               MOVW    R31:R30, R27:R26
   \   000000A6   8303               STD     Z+3, R16
   \   000000A8   8314               STD     Z+4, R17
   2568                         Obj_ppp_tx.num_dst=num_seq_cl; // номер получателя // потом установить подумать не отошлется ли это другим котнроллерам
   \   000000AA   01FC               MOVW    R31:R30, R25:R24
   \   000000AC   AD02               LDD     R16, Z+58
   \   000000AE   AD13               LDD     R17, Z+59
   \   000000B0   01FD               MOVW    R31:R30, R27:R26
   \   000000B2   8305               STD     Z+5, R16
   \   000000B4   8316               STD     Z+6, R17
   2569                         Obj_ppp_tx.id_pac=Appl_seq.id; // идентификатор пакета  
   \   000000B6   ....               RCALL   ?Subroutine97
   \                     ??CrossCallReturnLabel_619:
   \   000000B8   01FD               MOVW    R31:R30, R27:R26
   \   000000BA   8307               STD     Z+7, R16
   2570                         Obj_ppp_tx.p_opt=&buf_opt_tr[0]; // //указатель буфера опций  
   \   000000BC   ....               LDI     R16, LOW((Appl_RS232_2 + 19))
   \   000000BE   ....               LDI     R17, HIGH((Appl_RS232_2 + 19))
   \   000000C0   ........           CALL    ?Subroutine165
   2571                         Obj_ppp_tx.l_opt=0;// длина буфера опций   
   2572                         Obj_ppp_tx.kol_opt=0;// количество опций 
   2573            
   2574          
   2575                         buf_tx_232[TR_OP_DATA+C1_PROT]=PROT_C1;
   \                     ??CrossCallReturnLabel_226:
   \   000000C4   E001               LDI     R16, 1
   \   000000C6   ....               LDI     R30, LOW(buf_tx_232)
   \   000000C8   ....               LDI     R31, (buf_tx_232) >> 8
   \   000000CA   A702               STD     Z+42, R16
   2576                         buf_tx_232[TR_OP_DATA+C1_PORT]=PORT_SEQ;
   \   000000CC   E004               LDI     R16, 4
   \   000000CE   A703               STD     Z+43, R16
   2577                         
   2578                         Obj_ppp_tx.l_data=2+Obj_ppp_tx.l_data;   // длина данных
   \   000000D0   ........           CALL    ?Subroutine190
   \                     ??CrossCallReturnLabel_277:
   \   000000D4   ....               RCALL   ?Subroutine198
   2579                         Obj_ppp_tx.p_data=&buf_tx_232[TR_OP_DATA+C1_PROT];  //указатель буфера данных 
   \                     ??CrossCallReturnLabel_297:
   \   000000D6   ....               RCALL   ?Subroutine192
   2580           
   2581                         send_info(sizeof(msg_evc),msg_evc,1,Obj_ppp_tx.id_pac);
   \                     ??CrossCallReturnLabel_286:
   \   000000D8   ....               LDI     R18, LOW(msg_evc)
   \   000000DA   ....               LDI     R19, (msg_evc) >> 8
   \   000000DC   E007               LDI     R16, 7
   \   000000DE   ....               RCALL   ?Subroutine181
   2582                         
   2583                         form_buf_tx_ppp();    
   2584                         
   2585                                          
   2586                         UCSR0A=UCSR0A | TXC;                            
   \                     ??CrossCallReturnLabel_263:
   \   000000E0   ....               RCALL   ?Subroutine247
   2587                         UCSR0B=UCSR0B | TXEN;
   2588                         UCSR0B=UCSR0B | TXCIE;
   2589                         if(check_cts()==1) return;                
   \                     ??CrossCallReturnLabel_756:
   \   000000E2   F061               BREQ    ??Application_SEQ_tx_0
   2590                         S2_RD;
   \   000000E4   9A40               SBI     0x08, 0x00
   \   000000E6   9841               CBI     0x08, 0x01
   2591                         UDR0=buf_tx_232[0];
   \   000000E8   ....               LDI     R30, LOW(buf_tx_232)
   \   000000EA   ....               LDI     R31, (buf_tx_232) >> 8
   \   000000EC   8100               LD      R16, Z
   \   000000EE   930000C6           STS     198, R16
   2592                         if(Regim==RG_DEBAG) UDR3=buf_tx_232[0];
   \   000000F2   ....               RCALL   ?Subroutine297
   \                     ??CrossCallReturnLabel_765:
   \   000000F4   F419               BRNE    ??Application_SEQ_tx_0
   \   000000F6   8100               LD      R16, Z
   \   000000F8   93000136           STS     310, R16
   \                     ??Application_SEQ_tx_0:
   \   000000FC   ....               RJMP    ?Subroutine286
   2593          
   2594                          return;     
   2595                     }    
   2596          
   2597           
   2598           }

   \                                 In segment FARCODE, align 2, keep-with-next
   \                     ?Subroutine165:
   \   00000000   8700               STD     Z+8, R16
   \   00000002   8711               STD     Z+9, R17
   \   00000004   E000               LDI     R16, 0
   \   00000006   8702               STD     Z+10, R16
   \   00000008   8703               STD     Z+11, R16
   \   0000000A   9508               RET
   2599          
   2600          

   \                                 In segment FARCODE, align 2, keep-with-next
   2601           void check_wdt(void)
   \                     check_wdt:
   2602           {
   \   00000000   ....               RCALL   ?Subroutine101
   2603             unsigned char i;
   2604             
   2605           fl_wdt.clr_wdt=0;  
   \                     ??CrossCallReturnLabel_120:
   \   00000002   ....               RCALL   ?Subroutine109
   \                     ??CrossCallReturnLabel_136:
   \   00000004   7F0E               ANDI    R16, 0xFE
   \   00000006   AF00               STD     Z+56, R16
   2606            
   2607           if (fl_wdt.fl_out==1)
   \   00000008   FF01               SBRS    R16, 1
   \   0000000A   C036               RJMP    ??check_wdt_0
   2608               {                 
   2609               
   2610                 
   2611               for(i=0;i<8;i++)cnt_tii[i]=modbus_mem1[AD_TII1+i];  
   \   0000000C   E000               LDI     R16, 0
   \                     ??check_wdt_1:
   \   0000000E   E012               LDI     R17, 2
   \   00000010   9F01               MUL     R16, R17
   \   00000012   01F0               MOVW    R31:R30, R1:R0
   \   00000014   ....               SUBI    R30, LOW((-(modbus_mem1) & 0xFFFF))
   \   00000016   ....               SBCI    R31, (-(modbus_mem1) & 0xFFFF) >> 8
   \   00000018   8120               LD      R18, Z
   \   0000001A   8131               LDD     R19, Z+1
   \   0000001C   01F0               MOVW    R31:R30, R1:R0
   \   0000001E   ....               SUBI    R30, LOW((-(crc_tii) & 0xFFFF))
   \   00000020   ....               SBCI    R31, (-(crc_tii) & 0xFFFF) >> 8
   \   00000022   8322               STD     Z+2, R18
   \   00000024   8333               STD     Z+3, R19
   \   00000026   9503               INC     R16
   \   00000028   3008               CPI     R16, 8
   \   0000002A   F388               BRCS    ??check_wdt_1
   2612                crc_tii=func_crc_tii();         
   \   0000002C   ........           CALL    func_crc_tii
   \   00000030   ....               LDI     R30, LOW(crc_tii)
   \   00000032   ....               LDI     R31, (crc_tii) >> 8
   \   00000034   ....               RCALL   ?Subroutine145
   2613                           
   2614               if((fl_wdt.from_timer0!=1)||(fl_wdt.fl_main!=1)||
   2615                  (fl_wdt.from_timer3!=1)||
   2616                  (fl_wdt.from_timer2!=1)||
   2617                  (fl_wdt.from_adc!=1))
   \                     ??CrossCallReturnLabel_188:
   \   00000036   ....               RCALL   ??Subroutine109_0
   \                     ??CrossCallReturnLabel_137:
   \   00000038   770C               ANDI    R16, 0x7C
   \   0000003A   370C               CPI     R16, 124
   \   0000003C   F011               BREQ    ??CrossCallReturnLabel_41
   2618                  {
   2619                  write_log_info(ST_ERROR,ERR1);
   \   0000003E   E011               LDI     R17, 1
   \   00000040   ....               RCALL   ?Subroutine27
   2620                 // s_port(0x55);
   2621                  lock_it();
   2622                  
   2623                  }
   2624          
   2625               if (prov_ozu!=crc_ozu())
   \                     ??CrossCallReturnLabel_41:
   \   00000042   ....               LDI     R30, LOW(unix)
   \   00000044   ....               LDI     R31, (unix) >> 8
   \   00000046   8584               LDD     R24, Z+12
   \   00000048   8595               LDD     R25, Z+13
   \   0000004A   ....               RCALL   ?Subroutine307
   \                     ??__CCRETURN_2:
   \                     ??check_wdt_2:
   \   0000004C   1780               CP      R24, R16
   \   0000004E   0791               CPC     R25, R17
   \   00000050   F011               BREQ    ??CrossCallReturnLabel_40
   2626                   {
   2627                   write_log_info(ST_ERROR,ERR2);
   \   00000052   E012               LDI     R17, 2
   \   00000054   ....               RCALL   ?Subroutine27
   2628                  // s_port(0x56);
   2629                   lock_it();
   2630                   
   2631                   }
   2632               
   2633               if(*(unsigned int*)&keys[L_KEYS-2]!=crc_m1(&keys[0],L_KEYS-2,0xffff))
   \                     ??CrossCallReturnLabel_40:
   \   00000056   ....               LDI     R16, LOW(keys)
   \   00000058   ....               LDI     R17, (keys) >> 8
   \   0000005A   01F8               MOVW    R31:R30, R17:R16
   \   0000005C   8580               LDD     R24, Z+8
   \   0000005E   8591               LDD     R25, Z+9
   \   00000060   ....               RCALL   ?Subroutine120
   \                     ??CrossCallReturnLabel_156:
   \   00000062   E028               LDI     R18, 8
   \   00000064   E030               LDI     R19, 0
   \   00000066   ....               RCALL   ?Subroutine292
   \                     ??CrossCallReturnLabel_705:
   \   00000068   1780               CP      R24, R16
   \   0000006A   0791               CPC     R25, R17
   \   0000006C   F011               BREQ    ??CrossCallReturnLabel_39
   2634               {
   2635                 write_log_info(ST_ERROR,ERR3);
   \   0000006E   E013               LDI     R17, 3
   \   00000070   ....               RCALL   ?Subroutine27
   2636                 // s_port(0x57);
   2637                 lock_it();
   2638                
   2639               }
   2640               
   2641               
   2642               fl_wdt.from_timer0=0; 
   2643               fl_wdt.from_timer3=0; 
   2644               fl_wdt.from_timer2=0;
   2645               fl_wdt.fl_main=0;    
   2646               fl_wdt.fl_out=0;  
   \                     ??CrossCallReturnLabel_39:
   \   00000072   ....               RCALL   ??Subroutine109_0
   \                     ??CrossCallReturnLabel_138:
   \   00000074   7C01               ANDI    R16, 0xC1
   \   00000076   AF00               STD     Z+56, R16
   2647               }  
   2648            __watchdog_reset();   
   \                     ??check_wdt_0:
   \   00000078   95A8               WDR
   2649           }  
   \   0000007A   ....               RJMP    ?Subroutine286

   \                                 In segment FARCODE, align 2, keep-with-next
   \                     ?Subroutine307:
   \   00000000   ........           JMP     crc_ozu

   \                                 In segment FARCODE, align 2, keep-with-next
   \                     ?Subroutine27:
   \   00000000   E002               LDI     R16, 2
   \   00000002   ........           CALL    write_log_info
   \   00000006   ........           JMP     lock_it
   2650          
   2651          
   2652          
   2653          
   2654          

   \                                 In segment FARCODE, align 2, keep-with-next
   \                     ?Subroutine311:
   \   00000000   ....               RJMP    ?Subroutine291

   \                                 In segment FARCODE, align 2, keep-with-next
   \                     ?Subroutine310:
   \   00000000   ....               RJMP    ??Subroutine253_0

   \                                 In segment FARCODE, align 2, keep-with-next
   2655          void modem_engine(void)  
   \                     modem_engine:
   2656          {
   \   00000000   ....               RCALL   ?Subroutine176
   2657            start_func_stm_on();//подача питания-включение модема в рабочем режиме
   \                     ??CrossCallReturnLabel_255:
   \   00000002   ....               RCALL   start_func_stm_on
   \   00000004   C002               RJMP    ??CrossCallReturnLabel_38
   2658            //fl_wdt.fl_main=1;
   2659            
   2660            while(1){
   2661                      
   2662                      
   2663                      
   2664                     if(fl_wdt.clr_wdt==1) check_wdt();
   2665                     fl_wdt.fl_main=1; 
   2666                     
   2667                     
   2668                     supervisorwdt();
   2669                      
   2670                      
   2671                      monitor_change_state(); // записи состоянии охраны
   2672          
   2673                      energy_plus();
   2674                      
   2675                      control_temperatura();
   2676                      
   2677                      monitor_wr_truffic();
   2678                      
   2679                      control_ts();
   2680                      
   2681                      ds_handler();
   2682                      monitori();
   2683                      
   2684                     //  if ( (PINE & RI0 )==0 ) S3_GR;
   2685                     //  if ( PINE & RI0 ) S3_RD;
   2686                     //  if ( PINE & RI0 ) {init_modem_call_inside();}
   2687                       
   2688                      
   2689                      switch(state_modem)
   2690                         {
   2691                           case STM_ON: 
   2692                                        
   2693                                        switch(event_modem)
   2694                                               {
   2695                                               case EVM_TM1:
   2696                                                            
   2697                                                            start_func_stm_kon();
   2698                                                            break;  
   2699                                              
   2700                                               case EVM_NONE: break;
   2701                                               
   2702                                                               
   2703                                               default:            
   2704                                                               write_log_info(ST_ERROR,ERR8);
   2705                                                               lock_it();        
   2706                                                               break;
   2707                                               }
   2708                            break;
   2709                            
   2710                           case STM_KON: 
   2711                                        
   2712                                        switch(event_modem)
   2713                                               {
   2714                                               case EVM_TM1:
   2715                                                            start_func_stm_pwk();
   2716                                                            break;
   2717                                                            
   2718                                               case EVM_NONE: break;
   2719                                               
   2720                                                               
   2721                                              default:            
   2722                                                               write_log_info(ST_ERROR,ERR8);
   2723                                                              lock_it();        
   2724                                                               break;
   2725                                               }
   2726                            break;  
   2727                         
   2728                          case STM_PWK: 
   2729                                        
   2730                                        switch(event_modem)
   2731                                               {
   2732                                               case EVM_TM1:
   2733                                                            init_pins_hiz_to_out();
   2734                                                            send_info(sizeof(stm_si),stm_si,0,0);
   2735                                                            state_modem=STM_SI;
   2736                                                            init_scen_stm_si();
   2737                                                            cnt_stm_tm2=DEF_TM2_STM_SI;
   2738                                                            event_modem=EVM_NONE;
   2739                                                            command_AT=TRUE;// включен коммандный режим
   2740                                               break;
   2741                                               
   2742                                                            
   2743                                               case EVM_NONE: break;
   2744                                                               
   2745                                                default: 
   2746                                                          write_log_info(ST_ERROR,ERR8);
   2747                                                          lock_it();
   2748                                                         break; 
   2749                                               
   2750                                               }
   2751                            break; 
   2752                         
   2753                         case STM_SI:
   2754                                       // выполнение процедур - сценарий
   2755                                        at_com_tx(cnt_com);
   2756                                        at_com_rx(cnt_com);
   2757                                        at_com_scen_init(&cnt_com,&rep);
   2758               
   2759                                        switch(event_modem)
   2760                                               {
   2761                                               case EVM_AT_OK:
   2762                                                             send_info(sizeof(stm_sc),stm_sc,0,0);
   2763                                                             write_log_info(ST_MODEM,MDM_INIT); 
   2764                                                             state_modem=STM_SC;
   2765                                                             init_scen_stm_sc();
   2766                                                             cnt_stm_tm2=DEF_TM2_STM_SC;
   2767                                                             event_modem=EVM_NONE;
   2768                                                             command_AT=TRUE;// включен коммандный режим
   2769                                               break;
   2770                                               case EVM_AT_ERR:
   2771                                                              send_info(sizeof(evm_at_err),evm_at_err,0,0); 
   2772                                                              start_func_stm_koff();
   2773          
   2774                                               break;
   2775                                               
   2776                                               
   2777                                                            
   2778                                              case EVM_NONE:
   2779                                                               if(Fl_ch_sim==1)
   2780                                                                  {
   2781                                                                   send_info(sizeof(evm_ch_sim),evm_ch_sim,0,0); 
   2782                                                                  //выключаем модем сразу!!!!
   2783                                                                   state_modem=STM_OFF;
   2784                                                                   start_func_stm_koff();
   2785                                                                   event_modem=EVM_NONE;
   2786                                                                   command_AT=TRUE;// включен коммандный режим
   2787                                                            /////////////////////////////////////////////     
   2788                                                                  }break;
   2789                                                               
   2790                                                default: 
   2791                                                         write_log_info(ST_ERROR,ERR8);
   2792                                                         lock_it();
   2793                                                         break; 
   2794                                               
   2795                                               }
   2796                            break;
   2797                            
   2798                         
   2799                         case STM_SC:
   2800                                             // выполнение процедур - сценарий
   2801                                        
   2802                           
   2803                                                
   2804                                                  //   if ( PINE & RI0 ) S3_RD;
   2805                                                  //   if ( PINE & RI0 ) {init_modem_call_inside();}
   2806                           
   2807                                        at_com_tx(cnt_com);
   2808                                        at_com_rx(cnt_com);
   2809                                        at_com_scen_stm_sc(&cnt_com,&rep);                                   
   2810                                        switch(event_modem)
   2811                                               {
   2812                                               case EVM_AT_OK:
   2813                                                             send_info(sizeof(stm_scp),stm_scp,0,0);
   2814                                                             write_log_info(ST_MODEM,MDM_CON); 
   2815                                                             state_modem=STM_SCP;
   2816                                                             start_func_stm_scp();
   2817                                                             event_modem=EVM_NONE;
   2818           
   2819                                               break;
   2820                                               case EVM_AT_ERR:
   2821                                                              send_info(sizeof(evm_at_err),evm_at_err,0,0);
   2822                                                              start_func_stm_koff();
   2823                                               break;
   2824                                               
   2825                                               
   2826                                                            
   2827                                               case EVM_NONE: break;
   2828                                                               
   2829                                                default: write_log_info(ST_ERROR,ERR8);
   2830                                                         lock_it();
   2831                                                         break; 
   2832                                               
   2833                                               }
   2834                            break;
   2835                            
   2836                        
   2837                         case STM_SCP:
   2838                                             
   2839                           
   2840                                                // выполнение процедур - сценарий
   2841                                      analiz_ppp_rx();    
   2842                                      
   2843                              
   2844                                    
   2845                                     
   2846                                       if (layer_PPP!=LAYER_HW) 
   2847                                                       {
   2848                                                        monitor_event_LCP();   
   2849                                                        monitor_act_LCP();  
   2850                                                        }  
   2851                                       
   2852                                    
   2853                                                  if (layer_PPP==LAYER_PAP) 
   2854                                                       {
   2855              
   2856                                                         monitor_event_PAP();   
   2857                                                         monitor_act_PAP();  
   2858                                                       }  
   2859          
   2860                                             
   2861                          
   2862                                                  if ((layer_PPP!=LAYER_HW)&&(layer_PPP!=LAYER_PAP)) 
   2863                                                       {
   2864                                                          
   2865                                                          monitor_event_IPCP();   
   2866                                                          monitor_act_IPCP();  
   2867                                                       } 
   2868                                                  
   2869                                                 
   2870                    
   2871                             
   2872                                                    
   2873                                                  
   2874                                                   if((PINE & DCD0)==0)event_modem=EVM_DCD_ERR;
   2875                                                   
   2876                                                   //  if ( PINE & RI0 ) S3_RD;
   2877                                                   //  if ( PINE & RI0 ) {init_modem_call_inside();}
   2878                                                  
   2879                                          
   2880                                                  
   2881                            
   2882                                         switch(event_modem)
   2883                                               {                                  
   2884                                               case EVM_NONE: break;
   2885                                               case EVM_PPP_OK:
   2886                                                             cnt_stm_tm2=0;
   2887                                                             send_info(sizeof(stm_ppp),stm_ppp,0,0);
   2888                                                             write_log_info(ST_SET_PPP,SET_PPP_OK); 
   2889                                                             
   2890                                                             S5_OFF;
   2891                                                             
   2892                                                             state_led_md=LED_MD_PPP;
   2893                                                             cnt_stm_tm1=0;
   2894                                                             state_modem=STM_PPP;
   2895                                                             event_modem=EVM_NONE;
   2896                                                             command_AT=FALSE;// выключен коммандный режим
   2897                                                             
   2898                                                             //!!!!!! dobavka
   2899                                                             if((simka==SIM_RES)&&(cnt_link_res==0))cnt_link_res=vol_cnt_link_res;
   2900                                                             //EEEEEEEEE dobavka
   2901                                                             
   2902                                                             break;
   2903                                               case EVM_TM1: 
   2904                                                            send_info(sizeof(evm_tm),evm_tm,0,0);
   2905                                                            write_log_info(ST_SET_PPP,SET_PPP_TM); 
   2906                                                            goto err_set_ppp;
   2907                                               case EVM_PPP_ERR: 
   2908                                                            send_info(sizeof(evm_ppp_err),evm_ppp_err,0,0);
   2909                                                            write_log_info(ST_SET_PPP,SET_PPP_RJ);
   2910                                                            goto err_set_ppp;   
   2911                                               case EVM_DCD_ERR:
   2912                                                             send_info(sizeof(evm_dcd_err),evm_dcd_err,0,0);
   2913                                                             write_log_info(ST_SET_PPP,SET_PPP_DCD);
   2914                                                             goto err_set_ppp;
   2915                                               case EVM_CTS_ERR:
   2916                                                             send_info(sizeof(evm_cts_err),evm_cts_err,0,0);
   2917                                                             write_log_info(ST_SET_PPP,SET_PPP_CTS); 
   2918                                                 err_set_ppp:  
   2919                                                      
   2920                                                             
   2921                                                                //  st_gprs_att();
   2922                                                                cnt_cts_off=0;             
   2923                                                                fl_cts_232_ignor=TRUE;
   2924                                                                state_modem=STM_DCP; 
   2925                                                                clr_var_ppp_rx();//обнулить все что касается приему по GPRS и запретить прием
   2926                                                                cnt_stm_tm2=DEF_TM2_STM_DCP;
   2927                                                                event_modem=EVM_DCP;
   2928                                                                command_AT=FALSE;// выключен коммандный режим
   2929                                                                
   2930                                               break;
   2931                                               
   2932                                               
   2933                                               default:  write_log_info(ST_ERROR,ERR8);
   2934                                                         lock_it();
   2935                                                         break; 
   2936                                               
   2937                                               }
   2938                                               
   2939                                               
   2940                                               
   2941                            break;
   2942                            
   2943                            case STM_PPP:
   2944                                                        
   2945                                                          
   2946                                                          analiz_ppp_rx();  
   2947                                                         
   2948                                                     
   2949                                                          
   2950                                                          monitor_event_IPCP();   
   2951                                                          monitor_act_IPCP();  
   2952                                                         
   2953                                                          
   2954                                                           monitor1_tx_rs485_1();   //GPRS-штатный RS485_1
   2955                                                           monitor1_rec_rs485_1();
   2956                                                           monitor1_tm_rs485_1();
   2957                         
   2958                         
   2959                                                           monitor1_tx_rs485_2();   //GPRS-штатный RS485_2
   2960                                                           monitor1_rec_rs485_2();
   2961                                                           monitor1_tm_rs485_2();
   2962                            
   2963                                                           monitor1_tx_rs232_2();   //GPRS-штатный RS232_2
   2964                                                           monitor1_rec_rs232_2();
   2965                                                           monitor1_tm_rs232_2();
   2966                                                           
   2967          
   2968                                                          Application_SEQ_tx();// монитор передачи сообщений охраны              
   2969                                                       
   2970                                                          monitor_cntr_ch();
   2971                                                          monitor_cntr_cl_seq();
   2972                                                          monitor_cntr_nat(); 
   2973                                                
   2974                                                         
   2975                                        
   2976                                        
   2977                                        
   2978                                        if(Fl_ch_sim==1)  //dobavka
   2979                                        {
   2980                                        if((fl_tx485.mon1==0)&&(fl_tx485.mon2==0)&&(fl_tx485.mon232_2==0)&&(fl_ip.act_ip_end==1)&&(fl_pap.act_pap_end==1)&&(fl_lcp.act_lcp_end==1)&&(fl_ipcp.act_ipcp_end==1)) 
   2981                                         {
   2982                                             //!!!!!! dobavka
   2983                                          
   2984                                          send_info(sizeof(evm_ch_sim),evm_ch_sim,0,0);
   2985                                          write_log_info(ST_PPP,PPP_CH_SIM);  
   2986                                          
   2987                                          cnt_cts_off=0;             
   2988                                          fl_cts_232_ignor=TRUE;
   2989                                          state_modem=STM_KOFF;
   2990                                          clr_var_ppp_rx();//обнулить все что касается приему по GPRS и запретить прием       
   2991                                          start_func_stm_koff();
   2992                                          state_modem=STM_KOFF;
   2993                                          event_modem=EVM_NONE;
   2994                                          command_AT=TRUE;// включен коммандный режим
   2995                                          //EEEEEEEEEEE dobavka
   2996                                        //  st_gprs_att(); !!!!!!!!!!!!!!!!!!!!!11
   2997                                          
   2998                                         }
   2999                                        }
   3000                                        
   3001                                        
   3002          
   3003                                        if((PINE & DCD0)==0)event_modem=EVM_DCD_ERR;
   3004                                     
   3005                                    //    if ( PINE & RI0 ) S3_RD;
   3006                                    //    if ( PINE & RI0 ) {init_modem_call_inside();}
   3007          
   3008                            
   3009                                         switch(event_modem)
   3010                                               {                                  
   3011          
   3012                                               case EVM_PPP_ERR:
   3013                                                                send_info(sizeof(evm_ppp_err),evm_ppp_err,0,0);
   3014                                                                write_log_info(ST_PPP,PPP_RJ); 
   3015                                                                goto err_ppp;
   3016                                               case EVM_DCD_ERR:
   3017                                                             send_info(sizeof(evm_dcd_err),evm_dcd_err,0,0);
   3018                                                             write_log_info(ST_PPP,PPP_DCD);
   3019                                                             goto err_ppp;  
   3020                                                                
   3021                                               case EVM_MS_LMT:
   3022                                                                send_info(sizeof(evm_no_rec),evm_no_rec,0,0);
   3023                                                                write_log_info(ST_PPP,PPP_LS); 
   3024                                                                goto err_ppp; 
   3025                                               case EVM_CTS_ERR:
   3026                                                                send_info(sizeof(evm_cts_err),evm_cts_err,0,0);
   3027                                                                write_log_info(ST_PPP,PPP_CTS);       
   3028                                                         err_ppp:      
   3029                                                  //              st_gprs_att();
   3030                                                                cnt_cts_off=0;
   3031                                                                fl_cts_232_ignor=TRUE;
   3032                                                                state_modem=STM_DCP; 
   3033                                                                clr_var_ppp_rx();//обнулить все что касается приему по GPRS и запретить прием
   3034                                                                cnt_stm_tm2=DEF_TM2_STM_DCP;
   3035                                                                event_modem=EVM_DCP;
   3036                                                                command_AT=FALSE;// выключен коммандный режим
   3037                                                                
   3038                                                                
   3039                                                               
   3040                                               break;
   3041                                           
   3042                                               }
   3043                            break;
   3044                            
   3045                            case STM_DCP:
   3046                                                         
   3047          
   3048                              
   3049                                                         //GPRS-штатный RS485 
   3050                                                          monitor1_rec_rs485_1();
   3051                                                          monitor1_tm_rs485_1();
   3052                         
   3053                                                        //GPRS-штатный RS485 
   3054                                                          monitor1_rec_rs485_2();
   3055                                                          monitor1_tm_rs485_2();  
   3056                                                          
   3057                                                          //GPRS-штатный RS232 
   3058                                                          monitor1_rec_rs232_2();
   3059                                                          monitor1_tm_rs232_2();  
   3060                                                          
   3061                                                          /*
   3062                                                          if((fl_tx485.mon1==0)&&(fl_tx485.mon2==0)&&(fl_tx485.mon232_2==0)&&(fl_ip.act_ip_end==1))//!!!!!!!!!!!!!!!!!!!!!!!!!!!!!!!!!
   3063                                                             {
   3064                                                             fl_cts_232_ignor=FALSE;
   3065                                                             event_modem=EVM_RDC;
   3066                                                             }
   3067                                                           */                              
   3068          
   3069                                                          /*
   3070                                                         if((fl_tx485.mon1==0)&&(fl_tx485.mon2==0)&&(fl_tx485.mon232_2==0)&&(fl_ip.act_ip_end==1))
   3071                                                             {
   3072                                                               cnt_term_lcp=DEF_TM_TERM_LCP;
   3073                                                               send_terminate_lcp();
   3074                                                             //fl_cts_232_ignor=FALSE;
   3075                                                             //event_modem=EVM_RDC;
   3076                                                             } 
   3077                                                         */
   3078                                                          
   3079                                         
   3080                                         switch(event_modem)
   3081                                               {
   3082          
   3083                                                
   3084                                               
   3085                                               case EVM_DCP:
   3086                                                           if((fl_tx485.mon1==0)&&(fl_tx485.mon2==0)&&(fl_tx485.mon232_2==0)&&(fl_ip.act_ip_end==1)&&(fl_pap.act_pap_end==1)&&(fl_lcp.act_lcp_end==1)&&(fl_ipcp.act_ipcp_end==1))
   3087                                                             {
   3088                                                               send_terminate_lcp();
   3089                                                               event_modem=EVM_RDC;
   3090                                                             } 
   3091                                                 
   3092                                                             break;
   3093                                               
   3094                                               
   3095                                               case EVM_RDC:
   3096                                                            if(fl_lcp.act_lcp_end==0)break;
   3097                                                            count_ppp_down++;
   3098                                                            if (count_ppp_down < 7) { 
   3099                                                              write_log_info(ST_CLR_PPP,CLR_PPP_RDY); 
   3100                                                           
   3101                                                             state_modem=STM_DC;
   3102                                                             cnt_stm_tm2=DEF_TM2_STM_DC;
   3103                                                                 //обнуление ppp переменных
   3104                                                                 //и запртить передачу по GPRS
   3105                                                             UCSR0B=UCSR0B & ~TXEN;
   3106                                                             UCSR0B=UCSR0B & ~TXCIE;
   3107                                                             clr_var_ppp();   
   3108                                                             init_scen_stm_dc_1();
   3109                                                             event_modem=EVM_NONE;
   3110                                                             command_AT=TRUE;// включен коммандный режим
   3111                                                             
   3112                                                             
   3113                                                            }
   3114                                                             //SVD2_1_OFF;!!!!!
   3115                                                             //SVD2_2_OFF;!!!!!!!!!
   3116                                                            else { 
   3117                                              /////////////////////  09 07 14 добавили кусок               
   3118                                              // если PPP сессия часто рвется , то сбросить питание              
   3119                                                            //выключаем модем 
   3120                                                              count_ppp_down=0; 
   3121                                                             write_log_info(ST_CLR_PPP,CLR_PPP_RDY); 
   3122                                                             state_modem=STM_OFF;
   3123                                                             start_func_stm_off();
   3124                                                             event_modem=EVM_NONE;
   3125                                                             command_AT=TRUE;// включен коммандный режим
   3126                                                            
   3127                                                            } 
   3128                                               break;
   3129                                               }
   3130                            
   3131                            break;
   3132                            
   3133                            case STM_DC:
   3134                                        
   3135                                        at_com_tx(cnt_com);
   3136                                        at_com_rx(cnt_com);
   3137                                        at_com_scen_stm_dc_1(&cnt_com,&rep);  
   3138                                         
   3139                                         
   3140                                         switch(event_modem)
   3141                                               {
   3142                                               case EVM_AT_OK:                                                  
   3143                                                             //write_log_info(ST_CLR_PPP,CLR_PPP_OK);
   3144                                                             send_info(sizeof(stm_sc),stm_sc,0,0);
   3145                                                             state_modem=STM_SC;
   3146                                                             init_scen_stm_sc();
   3147                                                             cnt_stm_tm2=DEF_TM2_STM_SC;
   3148                                                             event_modem=EVM_NONE;
   3149                                                             command_AT=TRUE;// включен коммандный режим
   3150                                                                                  
   3151                                                                  
   3152                                               break;
   3153                                               case EVM_AT_ERR:
   3154                                                             write_log_info(ST_CLR_PPP,CLR_PPP_ERR);
   3155                                                             state_modem=STM_KOFF;
   3156                                                             start_func_stm_koff();
   3157                                                             event_modem=EVM_NONE;
   3158                                                             command_AT=TRUE;// включен коммандный режим
   3159                                                             
   3160                                               break;
   3161                                               }
   3162                            break;
   3163                            
   3164                            
   3165                            case STM_KOFF:
   3166                                         switch(event_modem)
   3167                                               {
   3168                                               case EVM_TM1:
   3169                                                           
   3170                                                            start_func_stm_off();
   3171                                                            event_modem=EVM_NONE;
   3172                                                            break;
   3173                                               
   3174                                               case EVM_NONE: break;
   3175                                                               
   3176                                                default: 
   3177                                                         write_log_info(ST_ERROR,ERR8);
   3178                                                         lock_it();
   3179                                                         break;              
   3180                                               }
   3181                            
   3182                            break;
   3183                            case STM_OFF:
   3184                                         switch(event_modem)
   3185                                               {
   3186                                               case EVM_TM1:
   3187                                                           
   3188                                                            start_func_stm_on();
   3189                                                            event_modem=EVM_NONE;
   3190                                                            break;
   3191                                               
   3192                                               case EVM_NONE: break;
   3193                                                               
   3194                                                default: 
   3195                                                         write_log_info(ST_ERROR,ERR8);
   3196                                                         lock_it();
   3197                                                         break;              
   3198                                               }
   3199                            break;
   3200                   
   3201                            
   3202                           default: 
   3203                             write_log_info(ST_ERROR,ERR9);    
   \                     ??modem_engine_0:
   \   00000006   E019               LDI     R17, 9
   \                     ??modem_engine_1:
   \   00000008   ....               RCALL   ?Subroutine27
   3204                             lock_it();
   \                     ??CrossCallReturnLabel_38:
   \   0000000A   ....               RCALL   ?Subroutine109
   \                     ??CrossCallReturnLabel_139:
   \   0000000C   FD00               SBRC    R16, 0
   \   0000000E   ....               RCALL   check_wdt
   \                     ??modem_engine_2:
   \   00000010   ....               RCALL   ??Subroutine109_0
   \                     ??CrossCallReturnLabel_140:
   \   00000012   6008               ORI     R16, 0x08
   \   00000014   AF00               STD     Z+56, R16
   \   00000016   ........           CALL    supervisorwdt
   \   0000001A   ....               RCALL   monitor_change_state
   \   0000001C   ........           CALL    energy_plus
   \   00000020   ........           CALL    control_temperatura
   \   00000024   ........           CALL    monitor_wr_truffic
   \   00000028   ........           CALL    control_ts
   \   0000002C   ........           CALL    ds_handler
   \   00000030   ........           CALL    monitori
   \   00000034   01FD               MOVW    R31:R30, R27:R26
   \   00000036   A902               LDD     R16, Z+50
   \   00000038   950A               DEC     R16
   \   0000003A   F0E1               BREQ    ??modem_engine_3
   \   0000003C   950A               DEC     R16
   \   0000003E   F111               BREQ    ??modem_engine_4
   \   00000040   950A               DEC     R16
   \   00000042   F131               BREQ    ??modem_engine_5
   \   00000044   950A               DEC     R16
   \   00000046   F1E1               BREQ    ??modem_engine_6
   \   00000048   950A               DEC     R16
   \   0000004A   F409               BRNE    $+2+2
   \   0000004C   C05D               RJMP    ??modem_engine_7
   \   0000004E   950A               DEC     R16
   \   00000050   F409               BRNE    $+2+2
   \   00000052   C070               RJMP    ??modem_engine_8
   \   00000054   950A               DEC     R16
   \   00000056   F409               BRNE    $+2+2
   \   00000058   C0E1               RJMP    ??modem_engine_9
   \   0000005A   950A               DEC     R16
   \   0000005C   F409               BRNE    $+2+2
   \   0000005E   C122               RJMP    ??modem_engine_10
   \   00000060   950A               DEC     R16
   \   00000062   F409               BRNE    $+2+2
   \   00000064   C154               RJMP    ??modem_engine_11
   \   00000066   950A               DEC     R16
   \   00000068   F409               BRNE    $+2+2
   \   0000006A   C161               RJMP    ??modem_engine_12
   \   0000006C   950A               DEC     R16
   \   0000006E   F409               BRNE    $+2+2
   \   00000070   C167               RJMP    ??modem_engine_13
   \   00000072   CFC9               RJMP    ??modem_engine_0
   \                     ??modem_engine_3:
   \   00000074   ....               RCALL   ?Subroutine266
   \                     ??CrossCallReturnLabel_532:
   \   00000076   F249               BREQ    ??CrossCallReturnLabel_38
   \   00000078   950A               DEC     R16
   \   0000007A   F411               BRNE    ??modem_engine_14
   \   0000007C   ....               RCALL   start_func_stm_kon
   \   0000007E   CFC5               RJMP    ??CrossCallReturnLabel_38
   \                     ??modem_engine_14:
   \   00000080   E018               LDI     R17, 8
   \   00000082   CFC2               RJMP    ??modem_engine_1
   \                     ??modem_engine_4:
   \   00000084   ....               RCALL   ?Subroutine266
   \                     ??CrossCallReturnLabel_533:
   \   00000086   F209               BREQ    ??CrossCallReturnLabel_38
   \   00000088   950A               DEC     R16
   \   0000008A   F7D1               BRNE    ??modem_engine_14
   \   0000008C   ....               RCALL   start_func_stm_pwk
   \   0000008E   CFBD               RJMP    ??CrossCallReturnLabel_38
   \                     ??modem_engine_5:
   \   00000090   ....               RCALL   ?Subroutine266
   \                     ??CrossCallReturnLabel_534:
   \   00000092   F409               BRNE    $+2+2
   \   00000094   CFBA               RJMP    ??CrossCallReturnLabel_38
   \   00000096   950A               DEC     R16
   \   00000098   F799               BRNE    ??modem_engine_14
   \   0000009A   ........           CALL    init_pins_hiz_to_out
   \   0000009E   ....               RCALL   ??Subroutine253_0
   \                     ??CrossCallReturnLabel_824:
   \   000000A0   ....               LDI     R18, LOW(stm_si)
   \   000000A2   ....               LDI     R19, (stm_si) >> 8
   \   000000A4   E006               LDI     R16, 6
   \   000000A6   ....               RCALL   ?Subroutine309
   \                     ??CrossCallReturnLabel_835:
   \   000000A8   E004               LDI     R16, 4
   \   000000AA   ....               RCALL   ?Subroutine110
   \                     ??CrossCallReturnLabel_141:
   \   000000AC   ........           CALL    init_scen_stm_si
   \   000000B0   E906               LDI     R16, 150
   \                     ??modem_engine_15:
   \   000000B2   01FD               MOVW    R31:R30, R27:R26
   \   000000B4   AB06               STD     Z+54, R16
   \   000000B6   E000               LDI     R16, 0
   \                     ??modem_engine_16:
   \   000000B8   AB03               STD     Z+51, R16
   \   000000BA   E001               LDI     R16, 1
   \                     ??modem_engine_17:
   \   000000BC   AB04               STD     Z+52, R16
   \   000000BE   CFA5               RJMP    ??CrossCallReturnLabel_38
   \                     ??modem_engine_6:
   \   000000C0   ....               RCALL   ?Subroutine226
   \                     ??CrossCallReturnLabel_342:
   \   000000C2   ........           CALL    at_com_scen_init
   \   000000C6   ....               RCALL   ?Subroutine116
   \                     ??CrossCallReturnLabel_537:
   \   000000C8   F0A9               BREQ    ??modem_engine_18
   \   000000CA   5002               SUBI    R16, 2
   \   000000CC   F019               BREQ    ??modem_engine_19
   \                     ??modem_engine_20:
   \   000000CE   950A               DEC     R16
   \   000000D0   F059               BREQ    ??modem_engine_21
   \   000000D2   CFD6               RJMP    ??modem_engine_14
   \                     ??modem_engine_19:
   \   000000D4   ....               RCALL   ?Subroutine51
   \                     ??CrossCallReturnLabel_828:
   \   000000D6   E013               LDI     R17, 3
   \   000000D8   E003               LDI     R16, 3
   \   000000DA   ....               RCALL   ??Subroutine173_1
   \                     ??CrossCallReturnLabel_247:
   \   000000DC   E005               LDI     R16, 5
   \   000000DE   ....               RCALL   ?Subroutine110
   \                     ??CrossCallReturnLabel_142:
   \   000000E0   ........           CALL    init_scen_stm_sc
   \   000000E4   E30C               LDI     R16, 60
   \   000000E6   CFE5               RJMP    ??modem_engine_15
   \                     ??modem_engine_21:
   \   000000E8   ....               RCALL   ??Subroutine253_0
   \                     ??CrossCallReturnLabel_825:
   \   000000EA   ....               LDI     R18, LOW((stm_si + 32))
   \   000000EC   ....               LDI     R19, HIGH((stm_si + 32))
   \   000000EE   ....               RCALL   ?Subroutine296
   \                     ??CrossCallReturnLabel_832:
   \   000000F0   ....               RCALL   ?Subroutine229
   \                     ??CrossCallReturnLabel_349:
   \   000000F2   CF8B               RJMP    ??CrossCallReturnLabel_38
   \                     ??modem_engine_18:
   \   000000F4   A907               LDD     R16, Z+55
   \   000000F6   3001               CPI     R16, 1
   \   000000F8   F009               BREQ    $+2+2
   \   000000FA   CF87               RJMP    ??CrossCallReturnLabel_38
   \   000000FC   ....               RCALL   ?Subroutine52
   \                     ??CrossCallReturnLabel_830:
   \   000000FE   E00B               LDI     R16, 11
   \                     ??modem_engine_22:
   \   00000100   ....               RCALL   ?Subroutine110
   \                     ??CrossCallReturnLabel_143:
   \   00000102   ....               RCALL   ?Subroutine229
   \                     ??CrossCallReturnLabel_348:
   \   00000104   ....               RCALL   ?Subroutine11
   \                     ??CrossCallReturnLabel_435:
   \   00000106   CFD8               RJMP    ??modem_engine_16
   \                     ??modem_engine_7:
   \   00000108   ....               RCALL   ?Subroutine226
   \                     ??CrossCallReturnLabel_343:
   \   0000010A   ........           CALL    at_com_scen_stm_sc
   \   0000010E   ....               RCALL   ?Subroutine116
   \                     ??CrossCallReturnLabel_538:
   \   00000110   F409               BRNE    $+2+2
   \   00000112   CF7B               RJMP    ??CrossCallReturnLabel_38
   \   00000114   5002               SUBI    R16, 2
   \   00000116   F6D9               BRNE    ??modem_engine_20
   \   00000118   ....               RCALL   ??Subroutine253_0
   \                     ??CrossCallReturnLabel_826:
   \   0000011A   ....               LDI     R18, LOW((stm_si + 12))
   \   0000011C   ....               LDI     R19, HIGH((stm_si + 12))
   \   0000011E   ....               RCALL   ?Subroutine182
   \                     ??CrossCallReturnLabel_841:
   \   00000120   E014               LDI     R17, 4
   \   00000122   E003               LDI     R16, 3
   \   00000124   ....               RCALL   ??Subroutine173_1
   \                     ??CrossCallReturnLabel_246:
   \   00000126   E006               LDI     R16, 6
   \   00000128   ....               RCALL   ?Subroutine110
   \                     ??CrossCallReturnLabel_144:
   \   0000012A   ....               RCALL   start_func_stm_scp
   \                     ??modem_engine_23:
   \   0000012C   E000               LDI     R16, 0
   \                     ??modem_engine_24:
   \   0000012E   01FD               MOVW    R31:R30, R27:R26
   \   00000130   AB03               STD     Z+51, R16
   \   00000132   CF6B               RJMP    ??CrossCallReturnLabel_38
   \                     ??modem_engine_8:
   \   00000134   ........           CALL    analiz_ppp_rx
   \   00000138   01FD               MOVW    R31:R30, R27:R26
   \   0000013A   AD05               LDD     R16, Z+61
   \   0000013C   2300               TST     R16
   \   0000013E   F021               BREQ    ??modem_engine_25
   \   00000140   ........           CALL    monitor_event_LCP
   \   00000144   ........           CALL    monitor_act_LCP
   \                     ??modem_engine_25:
   \   00000148   01FD               MOVW    R31:R30, R27:R26
   \   0000014A   AD05               LDD     R16, Z+61
   \   0000014C   3002               CPI     R16, 2
   \   0000014E   F421               BRNE    ??modem_engine_26
   \   00000150   ........           CALL    monitor_event_PAP
   \   00000154   ........           CALL    monitor_act_PAP
   \                     ??modem_engine_26:
   \   00000158   01FD               MOVW    R31:R30, R27:R26
   \   0000015A   AD05               LDD     R16, Z+61
   \   0000015C   2300               TST     R16
   \   0000015E   F019               BREQ    ??CrossCallReturnLabel_346
   \   00000160   3002               CPI     R16, 2
   \   00000162   F009               BREQ    ??CrossCallReturnLabel_346
   \   00000164   ....               RCALL   ?Subroutine228
   \                     ??CrossCallReturnLabel_346:
   \   00000166   9966               SBIC    0x0C, 0x06
   \   00000168   C006               RJMP    ??modem_engine_27
   \   0000016A   E006               LDI     R16, 6
   \   0000016C   01FD               MOVW    R31:R30, R27:R26
   \   0000016E   AB03               STD     Z+51, R16
   \                     ??modem_engine_28:
   \   00000170   ....               RCALL   ?Subroutine53
   \                     ??CrossCallReturnLabel_849:
   \   00000172   E014               LDI     R17, 4
   \   00000174   C048               RJMP    ??modem_engine_29
   \                     ??modem_engine_27:
   \   00000176   ....               RCALL   ?Subroutine116
   \                     ??CrossCallReturnLabel_539:
   \   00000178   F409               BRNE    $+2+2
   \   0000017A   CF47               RJMP    ??CrossCallReturnLabel_38
   \   0000017C   950A               DEC     R16
   \   0000017E   F1B9               BREQ    ??modem_engine_30
   \   00000180   5003               SUBI    R16, 3
   \   00000182   F039               BREQ    ??modem_engine_31
   \   00000184   950A               DEC     R16
   \   00000186   F1D1               BREQ    ??modem_engine_32
   \   00000188   950A               DEC     R16
   \   0000018A   F391               BREQ    ??modem_engine_28
   \   0000018C   5003               SUBI    R16, 3
   \   0000018E   F1C9               BREQ    ??modem_engine_33
   \   00000190   CF77               RJMP    ??modem_engine_14
   \                     ??modem_engine_31:
   \   00000192   E000               LDI     R16, 0
   \   00000194   AB06               STD     Z+54, R16
   \   00000196   ....               RCALL   ?Subroutine310
   \                     ??CrossCallReturnLabel_806:
   \   00000198   ....               LDI     R18, LOW((stm_si + 19))
   \   0000019A   ....               LDI     R19, HIGH((stm_si + 19))
   \   0000019C   ....               RCALL   ?Subroutine182
   \                     ??CrossCallReturnLabel_840:
   \   0000019E   E012               LDI     R17, 2
   \   000001A0   E004               LDI     R16, 4
   \   000001A2   ....               RCALL   ??Subroutine173_1
   \                     ??CrossCallReturnLabel_245:
   \   000001A4   9846               CBI     0x08, 0x06
   \   000001A6   9847               CBI     0x08, 0x07
   \   000001A8   E005               LDI     R16, 5
   \   000001AA   9300....           STS     state_led_md, R16
   \   000001AE   ....               RCALL   ?Subroutine11
   \                     ??CrossCallReturnLabel_436:
   \   000001B0   AB05               STD     Z+53, R16
   \   000001B2   E007               LDI     R16, 7
   \   000001B4   AB02               STD     Z+50, R16
   \   000001B6   ........           CALL    ??Subroutine13_0
   \                     ??CrossCallReturnLabel_11:
   \   000001BA   AB04               STD     Z+52, R16
   \   000001BC   9100....           LDS     R16, (crc_tii + 18)
   \   000001C0   3001               CPI     R16, 1
   \   000001C2   F009               BREQ    $+2+2
   \   000001C4   CF22               RJMP    ??CrossCallReturnLabel_38
   \   000001C6   A502               LDD     R16, Z+42
   \   000001C8   A513               LDD     R17, Z+43
   \   000001CA   A524               LDD     R18, Z+44
   \   000001CC   A535               LDD     R19, Z+45
   \   000001CE   2B01               OR      R16, R17
   \   000001D0   2B02               OR      R16, R18
   \   000001D2   2B03               OR      R16, R19
   \   000001D4   F009               BREQ    $+2+2
   \   000001D6   CF19               RJMP    ??CrossCallReturnLabel_38
   \   000001D8   ....               RCALL   ?Subroutine264
   \                     ??CrossCallReturnLabel_782:
   \   000001DA   A904               LDD     R16, Z+52
   \   000001DC   A915               LDD     R17, Z+53
   \   000001DE   A926               LDD     R18, Z+54
   \   000001E0   A937               LDD     R19, Z+55
   \   000001E2   01FD               MOVW    R31:R30, R27:R26
   \   000001E4   A702               STD     Z+42, R16
   \   000001E6   A713               STD     Z+43, R17
   \   000001E8   A724               STD     Z+44, R18
   \   000001EA   A735               STD     Z+45, R19
   \   000001EC   CF0E               RJMP    ??CrossCallReturnLabel_38
   \                     ??modem_engine_30:
   \   000001EE   ....               RCALL   ?Subroutine310
   \                     ??CrossCallReturnLabel_807:
   \   000001F0   ....               LDI     R18, LOW((stm_si + 26))
   \   000001F2   ....               LDI     R19, HIGH((stm_si + 26))
   \   000001F4   E006               LDI     R16, 6
   \   000001F6   ....               RCALL   ?Subroutine309
   \                     ??CrossCallReturnLabel_834:
   \   000001F8   E011               LDI     R17, 1
   \   000001FA   C005               RJMP    ??modem_engine_29
   \                     ??modem_engine_32:
   \   000001FC   ....               RCALL   ?Subroutine54
   \                     ??CrossCallReturnLabel_851:
   \   000001FE   E013               LDI     R17, 3
   \   00000200   C002               RJMP    ??modem_engine_29
   \                     ??modem_engine_33:
   \   00000202   ....               RCALL   ?Subroutine55
   \                     ??CrossCallReturnLabel_853:
   \   00000204   E015               LDI     R17, 5
   \                     ??modem_engine_29:
   \   00000206   E004               LDI     R16, 4
   \                     ??modem_engine_34:
   \   00000208   ....               RCALL   ?Subroutine9
   \                     ??CrossCallReturnLabel_5:
   \   0000020A   E008               LDI     R16, 8
   \   0000020C   ....               RCALL   ?Subroutine171
   \                     ??CrossCallReturnLabel_244:
   \   0000020E   E10E               LDI     R16, 30
   \   00000210   01FD               MOVW    R31:R30, R27:R26
   \   00000212   AB06               STD     Z+54, R16
   \   00000214   E00A               LDI     R16, 10
   \   00000216   AB03               STD     Z+51, R16
   \   00000218   E000               LDI     R16, 0
   \   0000021A   CF50               RJMP    ??modem_engine_17
   \                     ??modem_engine_9:
   \   0000021C   ........           CALL    analiz_ppp_rx
   \   00000220   ....               RCALL   ?Subroutine228
   \                     ??CrossCallReturnLabel_345:
   \   00000222   ........           CALL    monitor1_tx_rs485_1
   \   00000226   ....               RCALL   ?Subroutine230
   \                     ??CrossCallReturnLabel_351:
   \   00000228   ........           CALL    monitor1_tx_rs485_2
   \   0000022C   ....               RCALL   ?Subroutine231
   \                     ??CrossCallReturnLabel_353:
   \   0000022E   ........           CALL    monitor1_tx_rs232_2
   \   00000232   ....               RCALL   ?Subroutine232
   \                     ??CrossCallReturnLabel_355:
   \   00000234   ....               RCALL   Application_SEQ_tx
   \   00000236   ....               RCALL   monitor_cntr_ch
   \   00000238   ....               RCALL   monitor_cntr_cl_seq
   \   0000023A   ....               RCALL   monitor_cntr_nat
   \   0000023C   01FD               MOVW    R31:R30, R27:R26
   \   0000023E   A907               LDD     R16, Z+55
   \   00000240   3001               CPI     R16, 1
   \   00000242   F491               BRNE    ??modem_engine_35
   \   00000244   AD02               LDD     R16, Z+58
   \   00000246   7007               ANDI    R16, 0x07
   \   00000248   F479               BRNE    ??modem_engine_35
   \   0000024A   ....               RCALL   ?Subroutine214
   \                     ??CrossCallReturnLabel_452:
   \   0000024C   F069               BREQ    ??modem_engine_35
   \   0000024E   ....               RCALL   ?Subroutine52
   \                     ??CrossCallReturnLabel_829:
   \   00000250   E015               LDI     R17, 5
   \   00000252   E005               LDI     R16, 5
   \   00000254   ....               RCALL   ?Subroutine9
   \                     ??CrossCallReturnLabel_6:
   \   00000256   E00A               LDI     R16, 10
   \   00000258   ....               RCALL   ?Subroutine171
   \                     ??CrossCallReturnLabel_243:
   \   0000025A   ....               RCALL   ?Subroutine229
   \                     ??CrossCallReturnLabel_347:
   \   0000025C   E00A               LDI     R16, 10
   \   0000025E   ....               RCALL   ?Subroutine110
   \                     ??CrossCallReturnLabel_145:
   \   00000260   ........           CALL    ??Subroutine13_0
   \                     ??CrossCallReturnLabel_12:
   \   00000264   E001               LDI     R16, 1
   \   00000266   AB04               STD     Z+52, R16
   \                     ??modem_engine_35:
   \   00000268   9966               SBIC    0x0C, 0x06
   \   0000026A   C006               RJMP    ??modem_engine_36
   \   0000026C   E006               LDI     R16, 6
   \   0000026E   AB03               STD     Z+51, R16
   \                     ??modem_engine_37:
   \   00000270   ....               RCALL   ?Subroutine53
   \                     ??CrossCallReturnLabel_848:
   \   00000272   E012               LDI     R17, 2
   \                     ??modem_engine_38:
   \   00000274   E005               LDI     R16, 5
   \   00000276   CFC8               RJMP    ??modem_engine_34
   \                     ??modem_engine_36:
   \   00000278   A903               LDD     R16, Z+51
   \   0000027A   5005               SUBI    R16, 5
   \   0000027C   F039               BREQ    ??modem_engine_39
   \   0000027E   950A               DEC     R16
   \   00000280   F3B9               BREQ    ??modem_engine_37
   \   00000282   950A               DEC     R16
   \   00000284   F031               BREQ    ??modem_engine_40
   \   00000286   5002               SUBI    R16, 2
   \   00000288   F051               BREQ    ??modem_engine_41
   \   0000028A   CEBF               RJMP    ??CrossCallReturnLabel_38
   \                     ??modem_engine_39:
   \   0000028C   ....               RCALL   ?Subroutine54
   \                     ??CrossCallReturnLabel_850:
   \   0000028E   E011               LDI     R17, 1
   \   00000290   CFF1               RJMP    ??modem_engine_38
   \                     ??modem_engine_40:
   \   00000292   ....               RCALL   ?Subroutine310
   \                     ??CrossCallReturnLabel_808:
   \   00000294   ....               LDI     R18, LOW((stm_si + 64))
   \   00000296   ....               LDI     R19, HIGH((stm_si + 64))
   \   00000298   ....               RCALL   ?Subroutine296
   \                     ??CrossCallReturnLabel_831:
   \   0000029A   E014               LDI     R17, 4
   \   0000029C   CFEB               RJMP    ??modem_engine_38
   \                     ??modem_engine_41:
   \   0000029E   ....               RCALL   ?Subroutine55
   \                     ??CrossCallReturnLabel_852:
   \   000002A0   E013               LDI     R17, 3
   \   000002A2   CFE8               RJMP    ??modem_engine_38
   \                     ??modem_engine_10:
   \   000002A4   ....               RCALL   ?Subroutine230
   \                     ??CrossCallReturnLabel_350:
   \   000002A6   ....               RCALL   ?Subroutine231
   \                     ??CrossCallReturnLabel_352:
   \   000002A8   ....               RCALL   ?Subroutine232
   \                     ??CrossCallReturnLabel_354:
   \   000002AA   01FD               MOVW    R31:R30, R27:R26
   \   000002AC   A903               LDD     R16, Z+51
   \   000002AE   5008               SUBI    R16, 8
   \   000002B0   F071               BREQ    ??modem_engine_42
   \   000002B2   5002               SUBI    R16, 2
   \   000002B4   F009               BREQ    $+2+2
   \   000002B6   CEA9               RJMP    ??CrossCallReturnLabel_38
   \   000002B8   AD02               LDD     R16, Z+58
   \   000002BA   7007               ANDI    R16, 0x07
   \   000002BC   F009               BREQ    $+2+2
   \   000002BE   CEA5               RJMP    ??CrossCallReturnLabel_38
   \   000002C0   ....               RCALL   ?Subroutine214
   \                     ??CrossCallReturnLabel_453:
   \   000002C2   F409               BRNE    $+2+2
   \   000002C4   CEA2               RJMP    ??CrossCallReturnLabel_38
   \   000002C6   ........           CALL    send_terminate_lcp
   \   000002CA   E008               LDI     R16, 8
   \   000002CC   CF30               RJMP    ??modem_engine_24
   \                     ??modem_engine_42:
   \   000002CE   9100....           LDS     R16, fl_lcp
   \   000002D2   FF00               SBRS    R16, 0
   \   000002D4   CE9A               RJMP    ??CrossCallReturnLabel_38
   \   000002D6   AD06               LDD     R16, Z+62
   \   000002D8   9503               INC     R16
   \   000002DA   AF06               STD     Z+62, R16
   \   000002DC   3007               CPI     R16, 7
   \   000002DE   F478               BRCC    ??modem_engine_43
   \   000002E0   ....               RCALL   ?Subroutine173
   \                     ??CrossCallReturnLabel_251:
   \   000002E2   E009               LDI     R16, 9
   \   000002E4   ....               RCALL   ?Subroutine110
   \                     ??CrossCallReturnLabel_146:
   \   000002E6   E30C               LDI     R16, 60
   \   000002E8   AB06               STD     Z+54, R16
   \   000002EA   ....               RCALL   ?Subroutine185
   \                     ??CrossCallReturnLabel_267:
   \   000002EC   7F07               ANDI    R16, 0xF7
   \   000002EE   ....               RCALL   ?Subroutine270
   \                     ??CrossCallReturnLabel_565:
   \   000002F0   ....               RCALL   ?Subroutine185
   \                     ??CrossCallReturnLabel_268:
   \   000002F2   7B0F               ANDI    R16, 0xBF
   \   000002F4   ....               RCALL   ?Subroutine270
   \                     ??CrossCallReturnLabel_566:
   \   000002F6   ....               RCALL   clr_var_ppp
   \   000002F8   ........           CALL    init_scen_stm_dc_1
   \   000002FC   CF03               RJMP    ??CrossCallReturnLabel_348
   \                     ??modem_engine_43:
   \   000002FE   E000               LDI     R16, 0
   \   00000300   AF06               STD     Z+62, R16
   \   00000302   ....               RCALL   ?Subroutine173
   \                     ??CrossCallReturnLabel_250:
   \   00000304   E00B               LDI     R16, 11
   \   00000306   ....               RCALL   ?Subroutine110
   \                     ??CrossCallReturnLabel_147:
   \   00000308   ........           CALL    start_func_stm_off
   \   0000030C   CEFB               RJMP    ??CrossCallReturnLabel_348
   \                     ??modem_engine_11:
   \   0000030E   ....               RCALL   ?Subroutine226
   \                     ??CrossCallReturnLabel_344:
   \   00000310   ........           CALL    at_com_scen_stm_dc_1
   \   00000314   01FD               MOVW    R31:R30, R27:R26
   \   00000316   A903               LDD     R16, Z+51
   \   00000318   5002               SUBI    R16, 2
   \   0000031A   F019               BREQ    ??modem_engine_44
   \   0000031C   950A               DEC     R16
   \   0000031E   F019               BREQ    ??modem_engine_45
   \   00000320   CE74               RJMP    ??CrossCallReturnLabel_38
   \                     ??modem_engine_44:
   \   00000322   ....               RCALL   ?Subroutine51
   \                     ??CrossCallReturnLabel_827:
   \   00000324   CEDB               RJMP    ??CrossCallReturnLabel_247
   \                     ??modem_engine_45:
   \   00000326   E013               LDI     R17, 3
   \   00000328   ....               RCALL   ??Subroutine173_0
   \                     ??CrossCallReturnLabel_249:
   \   0000032A   E00A               LDI     R16, 10
   \   0000032C   CEE9               RJMP    ??modem_engine_22
   \                     ??modem_engine_12:
   \   0000032E   ....               RCALL   ?Subroutine266
   \                     ??CrossCallReturnLabel_535:
   \   00000330   F409               BRNE    $+2+2
   \   00000332   CE6B               RJMP    ??CrossCallReturnLabel_38
   \   00000334   950A               DEC     R16
   \   00000336   F009               BREQ    $+2+2
   \   00000338   CEA3               RJMP    ??modem_engine_14
   \   0000033A   ........           CALL    start_func_stm_off
   \   0000033E   CEF6               RJMP    ??modem_engine_23
   \                     ??modem_engine_13:
   \   00000340   ....               RCALL   ?Subroutine266
   \                     ??CrossCallReturnLabel_536:
   \   00000342   F409               BRNE    $+2+2
   \   00000344   CE62               RJMP    ??CrossCallReturnLabel_38
   \   00000346   950A               DEC     R16
   \   00000348   F009               BREQ    $+2+2
   \   0000034A   CE9A               RJMP    ??modem_engine_14
   \   0000034C   ........           CALL    start_func_stm_on
   \   00000350   CEED               RJMP    ??modem_engine_23
   3205                            
   3206                         }
   3207                    } 
   3208            
   3209          }

   \                                 In segment FARCODE, align 2, keep-with-next
   \                     ?Subroutine232:
   \   00000000   ........           CALL    monitor1_rec_rs232_2
   \   00000004   ........           JMP     monitor1_tm_rs232_2

   \                                 In segment FARCODE, align 2, keep-with-next
   \                     ?Subroutine231:
   \   00000000   ........           CALL    monitor1_rec_rs485_2
   \   00000004   ........           JMP     monitor1_tm_rs485_2

   \                                 In segment FARCODE, align 2, keep-with-next
   \                     ?Subroutine230:
   \   00000000   ........           CALL    monitor1_rec_rs485_1
   \   00000004   ....               RJMP    monitor1_tm_rs485_1

   \                                 In segment FARCODE, align 2, keep-with-next
   \                     ?Subroutine229:
   \   00000000   ........           JMP     start_func_stm_koff

   \                                 In segment FARCODE, align 2, keep-with-next
   \                     ?Subroutine228:
   \   00000000   ........           CALL    monitor_event_IPCP
   \   00000004   ........           JMP     monitor_act_IPCP

   \                                 In segment FARCODE, align 2, keep-with-next
   \                     ?Subroutine226:
   \   00000000   9100....           LDS     R16, cnt_com
   \   00000004   ........           CALL    at_com_tx
   \   00000008   9100....           LDS     R16, cnt_com
   \   0000000C   ........           CALL    at_com_rx
   \   00000010   ....               LDI     R18, LOW(rep)
   \   00000012   ....               LDI     R19, (rep) >> 8
   \   00000014   ....               LDI     R16, LOW(cnt_com)
   \   00000016   ....               LDI     R17, (cnt_com) >> 8
   \   00000018   9508               RET

   \                                 In segment FARCODE, align 2, keep-with-next
   \                     ?Subroutine214:
   \   00000000   9100....           LDS     R16, fl_ip
   \   00000004   7001               ANDI    R16, 0x01
   \   00000006   9110....           LDS     R17, fl_pap
   \   0000000A   7011               ANDI    R17, 0x01
   \   0000000C   2310               AND     R17, R16
   \   0000000E   9100....           LDS     R16, fl_lcp
   \   00000012   7001               ANDI    R16, 0x01
   \   00000014   2301               AND     R16, R17
   \   00000016   9110....           LDS     R17, fl_ipcp
   \   0000001A   ....               RJMP    ??Subroutine254_0

   \                                 In segment FARCODE, align 2, keep-with-next
   \                     ?Subroutine171:
   \   00000000   AB02               STD     Z+50, R16
   \   00000002   ....               RJMP    clr_var_ppp_rx

   \                                 In segment FARCODE, align 2, keep-with-next
   \                     ?Subroutine116:
   \   00000000   01FD               MOVW    R31:R30, R27:R26
   \   00000002   ....               RJMP    ?Subroutine266

   \                                 In segment FARCODE, align 2, keep-with-next
   \                     ?Subroutine110:
   \   00000000   01FD               MOVW    R31:R30, R27:R26
   \   00000002   AB02               STD     Z+50, R16
   \   00000004   9508               RET

   \                                 In segment FARCODE, align 2, keep-with-next
   \                     ?Subroutine55:
   \   00000000   E040               LDI     R20, 0
   \   00000002   E010               LDI     R17, 0
   \   00000004   ....               LDI     R18, LOW((stm_si + 74))
   \   00000006   ....               LDI     R19, HIGH((stm_si + 74))
   \   00000008   ....               RJMP    ?Subroutine311

   \                                 In segment FARCODE, align 2, keep-with-next
   \                     ?Subroutine54:
   \   00000000   E040               LDI     R20, 0
   \   00000002   E010               LDI     R17, 0
   \   00000004   ....               LDI     R18, LOW((stm_si + 42))
   \   00000006   ....               LDI     R19, HIGH((stm_si + 42))
   \   00000008   ....               RJMP    ?Subroutine311

   \                                 In segment FARCODE, align 2, keep-with-next
   \                     ?Subroutine53:
   \   00000000   E040               LDI     R20, 0
   \   00000002   E010               LDI     R17, 0
   \   00000004   ....               LDI     R18, LOW((stm_si + 53))
   \   00000006   ....               LDI     R19, HIGH((stm_si + 53))
   \   00000008   ....               RJMP    ?Subroutine311

   \                                 In segment FARCODE, align 2, keep-with-next
   \                     ?Subroutine52:
   \   00000000   E040               LDI     R20, 0
   \   00000002   E010               LDI     R17, 0
   \   00000004   ....               LDI     R18, LOW((stm_si + 85))
   \   00000006   ....               LDI     R19, HIGH((stm_si + 85))
   \   00000008   ....               RJMP    ?Subroutine296

   \                                 In segment FARCODE, align 2, keep-with-next
   \                     ?Subroutine51:
   \   00000000   E040               LDI     R20, 0
   \   00000002   E010               LDI     R17, 0
   \   00000004   ....               LDI     R18, LOW((stm_si + 6))
   \   00000006   ....               LDI     R19, HIGH((stm_si + 6))
   \   00000008   E006               LDI     R16, 6
   \   0000000A   ....               RJMP    ?Subroutine309

   \                                 In segment FARCODE, align 2, keep-with-next
   \                     ?Subroutine9:
   \   00000000   ........           CALL    write_log_info
   \   00000004   E000               LDI     R16, 0
   \   00000006   01FD               MOVW    R31:R30, R27:R26
   \   00000008   AB00               STD     Z+48, R16
   \   0000000A   AB01               STD     Z+49, R16
   \   0000000C   E001               LDI     R16, 1
   \   0000000E   AF01               STD     Z+57, R16
   \   00000010   9508               RET
   3210          
   3211          
   3212          

   \                                 In segment FARCODE, align 2, keep-with-next
   3213          void send_err485(unsigned char port,unsigned char err,unsigned char id,unsigned int dst)
   \                     send_err485:
   3214              {
   \   00000000   ........           CALL    ?PROLOGUE5_L09
   \   00000004                      REQUIRE ?Register_R4_is_cg_reg
   \   00000004   2E40               MOV     R4, R16
   \   00000006   2FB1               MOV     R27, R17
   \   00000008   2FA2               MOV     R26, R18
   \   0000000A   01CA               MOVW    R25:R24, R21:R20
   3215                 if(fl_ip.act_ip_end!=1)return;
   \   0000000C   ....               RCALL   ?Subroutine188
   \                     ??CrossCallReturnLabel_271:
   \   0000000E   8100               LD      R16, Z
   \   00000010   FF00               SBRS    R16, 0
   \   00000012   C032               RJMP    ??CrossCallReturnLabel_13
   3216                    fl_ip.act_ip_end=0;      
   \   00000014   7F0E               ANDI    R16, 0xFE
   \   00000016   8300               ST      Z, R16
   3217                    clr_cntr_nat();
   \   00000018   ........           CALL    ??Subroutine221_0
   3218                    clr_cntr_link();
   3219                    Obj_ppp_tx.prozr=FALSE;            
   \                     ??CrossCallReturnLabel_326:
   \   0000001C   ....               RCALL   ?Subroutine74
   3220                    Obj_ppp_tx.version=VER2;      //версия 
   3221                    Obj_ppp_tx.type_pac=OTV;     //тип пакета
   \                     ??CrossCallReturnLabel_81:
   \   0000001E   E021               LDI     R18, 1
   \   00000020   8322               STD     Z+2, R18
   3222                    Obj_ppp_tx.num_src=num_self; // номер отправителя
   \   00000022   ....               RCALL   ?Subroutine264
   \                     ??CrossCallReturnLabel_783:
   \   00000024   ....               RCALL   ?Subroutine224
   3223                    Obj_ppp_tx.num_dst=dst; // номер получателя
   \                     ??CrossCallReturnLabel_336:
   \   00000026   8385               STD     Z+5, R24
   \   00000028   8396               STD     Z+6, R25
   3224                    Obj_ppp_tx.id_pac=id; // идентификатор пакета  
   \   0000002A   83A7               STD     Z+7, R26
   3225                    Obj_ppp_tx.p_opt=&buf_opt_tr[0]; // //указатель буфера опций  
   \   0000002C   ....               LDI     R18, LOW((Appl_RS232_2 + 19))
   \   0000002E   ....               LDI     R19, HIGH((Appl_RS232_2 + 19))
   \   00000030   8720               STD     Z+8, R18
   \   00000032   8731               STD     Z+9, R19
   3226                    Obj_ppp_tx.l_opt=0;// длина буфера опций   
   \   00000034   E020               LDI     R18, 0
   \   00000036   8722               STD     Z+10, R18
   3227                    Obj_ppp_tx.kol_opt=0;// количество опций   
   \   00000038   8723               STD     Z+11, R18
   3228                   
   3229                   buf_tx_232[TR_OP_DATA+C1_PROT]=PROT_C1;
   \   0000003A   ....               LDI     R24, LOW(buf_tx_232)
   \   0000003C   ....               LDI     R25, (buf_tx_232) >> 8
   \   0000003E   E021               LDI     R18, 1
   \   00000040   01FC               MOVW    R31:R30, R25:R24
   \   00000042   A722               STD     Z+42, R18
   3230                   buf_tx_232[TR_OP_DATA+C1_PORT]=PORT_SYS;
   \   00000044   E025               LDI     R18, 5
   \   00000046   A723               STD     Z+43, R18
   3231          
   3232                   buf_tx_232[TR_OP_DATA+C1_DATA]=RS485_ERR;
   \   00000048   E021               LDI     R18, 1
   \   0000004A   A724               STD     Z+44, R18
   3233                   *(unsigned int*)&buf_tx_232[TR_OP_DATA+C1_DATA+1]=LN_RS485_ERR;
   \   0000004C   E022               LDI     R18, 2
   \   0000004E   E030               LDI     R19, 0
   \   00000050   A725               STD     Z+45, R18
   \   00000052   A736               STD     Z+46, R19
   3234                   buf_tx_232[TR_OP_DATA+C1_DATA+3]=port;
   \   00000054   A647               STD     Z+47, R4
   3235                   buf_tx_232[TR_OP_DATA+C1_DATA+4]=err;
   \   00000056   ABB0               STD     Z+48, R27
   3236                   Obj_ppp_tx.l_data=5+LN_RS485_ERR;   // длина данных
   \   00000058   E027               LDI     R18, 7
   \   0000005A   01F8               MOVW    R31:R30, R17:R16
   \   0000005C   8726               STD     Z+14, R18
   \   0000005E   8737               STD     Z+15, R19
   3237                   Obj_ppp_tx.p_data=&buf_tx_232[TR_OP_DATA+C1_PROT];  //указатель буфера данных
   \   00000060   019C               MOVW    R19:R18, R25:R24
   \   00000062   5D26               SUBI    R18, 214
   \   00000064   4F3F               SBCI    R19, 255
   \   00000066   8724               STD     Z+12, R18
   \   00000068   8735               STD     Z+13, R19
   3238                  
   3239                   form_buf_tx_ppp();                            
   \   0000006A   ........           CALL    form_buf_tx_ppp
   3240                   UCSR0A=UCSR0A | TXC;                            
   \   0000006E   ........           CALL    ?Subroutine247
   3241                   UCSR0B=UCSR0B | TXEN;
   3242                   UCSR0B=UCSR0B | TXCIE;
   3243                   if(check_cts()==1) return;                
   \                     ??CrossCallReturnLabel_757:
   \   00000072   F011               BREQ    ??CrossCallReturnLabel_13
   3244                   S2_RD;
   \   00000074   ........           CALL    ?Subroutine14
   3245                   UDR0=buf_tx_232[0];
   3246                   if(Regim==RG_DEBAG) UDR3=buf_tx_232[0];
   \                     ??CrossCallReturnLabel_13:
   \   00000078   ....               RJMP    ?Subroutine293
   3247                   return;     
   3248              }

   \                                 In segment FARCODE, align 2, keep-with-next
   \                     ?Subroutine304:
   \   00000000   ........           JMP     clr_cntr_link

   \                                 In segment FARCODE, align 2, keep-with-next
   \                     ?Subroutine303:
   \   00000000   ........           JMP     clr_cntr_nat

   \                                 In segment FARCODE, align 2, keep-with-next
   \                     ?Subroutine14:
   \   00000000   9A40               SBI     0x08, 0x00
   \   00000002   9841               CBI     0x08, 0x01
   \   00000004   01FC               MOVW    R31:R30, R25:R24
   \   00000006   8100               LD      R16, Z
   \   00000008   930000C6           STS     198, R16
   \   0000000C   9100....           LDS     R16, Regim
   \   00000010   3001               CPI     R16, 1
   \   00000012   F419               BRNE    ??Subroutine14_0
   \   00000014   8100               LD      R16, Z
   \   00000016   93000136           STS     310, R16
   \                     ??Subroutine14_0:
   \   0000001A   9508               RET

   \                                 In segment FARCODE, align 2, keep-with-next
   \                     ?Subroutine221:
   \   00000000   91000102           LDS     R16, 258
   \   00000004   6004               ORI     R16, 0x04
   \   00000006   93000102           STS     258, R16
   \                     ??Subroutine221_0:
   \   0000000A   ....               RCALL   ?Subroutine303
   \                     ??__CCRETURN_14:
   \                     ??Subroutine221_1:
   \   0000000C   ....               RJMP    ?Subroutine304
   3249          
   3250          
   3251          
   3252          
   3253          

   \                                 In segment FARCODE, align 2, keep-with-next
   3254          unsigned char check_cont_485_1 (unsigned char *pointer)
   \                     check_cont_485_1:
   3255          {
   \   00000000   01AC               MOVW    R21:R20, R25:R24
   3256             
   3257                   
   3258                              switch (*pointer)
   \   00000002   ....               RCALL   ?Subroutine72
   \                     ??CrossCallReturnLabel_73:
   \   00000004   5024               SUBI    R18, 4
   \   00000006   5023               SUBI    R18, 3
   \   00000008   F020               BRCS    ??check_cont_485_1_0
   \   0000000A   952A               DEC     R18
   \   0000000C   F011               BREQ    ??check_cont_485_1_0
   \   0000000E   952A               DEC     R18
   \   00000010   F421               BRNE    ??check_cont_485_1_1
   3259                                      {
   3260                                        case B2400:
   3261                                        case B4800:
   3262                                        case B9600:
   3263                                        case B38400:
   3264                                        case B19200:break;
   3265                                        default: return(1);
   3266                                      }
   3267                   
   3268                   
   3269                          switch ((*(pointer+1)) & 0x07)
   \                     ??check_cont_485_1_0:
   \   00000012   8121               LDD     R18, Z+1
   \   00000014   7027               ANDI    R18, 0x07
   \   00000016   5023               SUBI    R18, 3
   \   00000018   F010               BRCS    ??check_cont_485_1_2
   \                     ??check_cont_485_1_1:
   \   0000001A   E001               LDI     R16, 1
   \   0000001C   C024               RJMP    ??check_cont_485_1_3
   3270                                     {
   3271                                     case NON:
   3272                                     case ODD:
   3273                                     case EVEN: break;
   3274                                     default: return(1);
   3275                                     }
   3276                   
   3277          
   3278                              switch (((*(pointer+1))>>3)& 0x03)
   \                     ??check_cont_485_1_2:
   \   0000001E   8121               LDD     R18, Z+1
   \   00000020   9526               LSR     R18
   \   00000022   9526               LSR     R18
   \   00000024   9526               LSR     R18
   \   00000026   7023               ANDI    R18, 0x03
   \   00000028   F011               BREQ    ??check_cont_485_1_4
   \   0000002A   5022               SUBI    R18, 2
   \   0000002C   F7B1               BRNE    ??check_cont_485_1_1
   3279                                     {
   3280                                     case STOP1:
   3281                                     case STOP2:break;
   3282                                     default: return(1);
   3283                                     }
   3284                      
   3285                              
   3286                              switch (((*(pointer+1))>>5)& 0x03)
   \                     ??check_cont_485_1_4:
   \   0000002E   8121               LDD     R18, Z+1
   \   00000030   9522               SWAP    R18
   \   00000032   702F               ANDI    R18, 0x0F
   \   00000034   9526               LSR     R18
   \   00000036   7023               ANDI    R18, 0x03
   \   00000038   5022               SUBI    R18, 2
   \   0000003A   F011               BREQ    ??check_cont_485_1_5
   \   0000003C   952A               DEC     R18
   \   0000003E   F769               BRNE    ??check_cont_485_1_1
   3287                                     {
   3288                                     case INF7:
   3289                                     case INF8:break;
   3290                                     default: return(1);
   3291                                     }
   3292          
   3293          
   3294          
   3295                            if((*(unsigned int*)(pointer+2))>10000)return(1);
   \                     ??check_cont_485_1_5:
   \   00000040   8122               LDD     R18, Z+2
   \   00000042   8133               LDD     R19, Z+3
   \   00000044   3121               CPI     R18, 17
   \   00000046   4237               SBCI    R19, 39
   \   00000048   F740               BRCC    ??check_cont_485_1_1
   3296                            
   3297                            if((*(unsigned int*)(pointer+4))==0)return(1);
   \   0000004A   8124               LDD     R18, Z+4
   \   0000004C   8135               LDD     R19, Z+5
   \   0000004E   2B23               OR      R18, R19
   \   00000050   F321               BREQ    ??check_cont_485_1_1
   3298                            if((*(unsigned int*)(pointer+4))>10000)return(1);
   \   00000052   8124               LDD     R18, Z+4
   \   00000054   3121               CPI     R18, 17
   \   00000056   4237               SBCI    R19, 39
   \   00000058   F700               BRCC    ??check_cont_485_1_1
   3299                            
   3300                            if((*(unsigned int*)(pointer+6))<3)return(1);
   \   0000005A   8186               LDD     R24, Z+6
   \   0000005C   8197               LDD     R25, Z+7
   \   0000005E   3083               CPI     R24, 3
   \   00000060   4090               SBCI    R25, 0
   \   00000062   F2D8               BRCS    ??check_cont_485_1_1
   3301                            
   3302                            return(0);
   \   00000064   E000               LDI     R16, 0
   \                     ??check_cont_485_1_3:
   \   00000066   01CA               MOVW    R25:R24, R21:R20
   \   00000068   9508               RET
   3303          }
   3304          
   3305          
   3306          
   3307          

   \                                 In segment FARCODE, align 2, keep-with-next
   3308          unsigned char run_cont_485_1 (unsigned char *pointer)
   \                     run_cont_485_1:
   3309          {
   \   00000000   ....               RCALL   ?Subroutine73
   3310              
   3311             
   3312                          switch ((*(pointer+1)) & 0x07)
   \                     ??CrossCallReturnLabel_77:
   \   00000002   F029               BREQ    ??run_cont_485_1_0
   \   00000004   950A               DEC     R16
   \   00000006   F079               BREQ    ??run_cont_485_1_1
   \   00000008   950A               DEC     R16
   \   0000000A   F081               BREQ    ??run_cont_485_1_2
   \   0000000C   C014               RJMP    ??run_cont_485_1_3
   3313                                     {
   3314                                     case NON:  UCSR3C=UCSR3C & ~0x30;
   \                     ??run_cont_485_1_0:
   \   0000000E   ....               RCALL   ??Subroutine234_0
   \                     ??CrossCallReturnLabel_362:
   \   00000010   7C0F               ANDI    R16, 0xCF
   \                     ??run_cont_485_1_4:
   \   00000012   93000132           STS     306, R16
   3315                                           break;
   3316                                     case ODD:  UCSR3C=UCSR3C | 0x30;
   3317                                           break;
   3318                                     case EVEN: UCSR3C=UCSR3C & ~0x30;
   3319                                           UCSR3C=UCSR3C | 0x20;
   3320                                           break;
   3321                                     default: return(1);
   3322                                     }
   3323                   
   3324          
   3325                              switch (((*(pointer+1))>>3)& 0x03)
   \   00000016   ....               RCALL   ?Subroutine196
   \                     ??CrossCallReturnLabel_290:
   \   00000018   F019               BREQ    ??run_cont_485_1_5
   \   0000001A   5002               SUBI    R16, 2
   \   0000001C   F071               BREQ    ??run_cont_485_1_6
   \   0000001E   C00B               RJMP    ??run_cont_485_1_3
   3326                                     {
   3327                                     case STOP1:UCSR3C=UCSR3C & ~0x08; 
   \                     ??run_cont_485_1_5:
   \   00000020   ....               RCALL   ??Subroutine234_0
   \                     ??CrossCallReturnLabel_363:
   \   00000022   7F07               ANDI    R16, 0xF7
   \   00000024   C00C               RJMP    ??run_cont_485_1_7
   \                     ??run_cont_485_1_1:
   \   00000026   ....               RCALL   ??Subroutine234_0
   \                     ??CrossCallReturnLabel_364:
   \   00000028   6300               ORI     R16, 0x30
   \   0000002A   CFF3               RJMP    ??run_cont_485_1_4
   \                     ??run_cont_485_1_2:
   \   0000002C   ....               RCALL   ??Subroutine234_0
   \                     ??CrossCallReturnLabel_365:
   \   0000002E   7C0F               ANDI    R16, 0xCF
   \   00000030   ....               RCALL   ?Subroutine234
   \                     ??CrossCallReturnLabel_360:
   \   00000032   6200               ORI     R16, 0x20
   \   00000034   CFEE               RJMP    ??run_cont_485_1_4
   \                     ??run_cont_485_1_3:
   \   00000036   E001               LDI     R16, 1
   \   00000038   C04D               RJMP    ??CrossCallReturnLabel_569
   3328                                           break;
   3329                                     case STOP2:
   3330                                           UCSR3C=UCSR3C | 0x08; 
   \                     ??run_cont_485_1_6:
   \   0000003A   ....               RCALL   ??Subroutine234_0
   \                     ??CrossCallReturnLabel_366:
   \   0000003C   6008               ORI     R16, 0x08
   \                     ??run_cont_485_1_7:
   \   0000003E   93000132           STS     306, R16
   3331                                           break;
   3332                                     default: return(1);
   3333                                     }
   3334                      
   3335                      
   3336                              switch (((*(pointer+1))>>5)& 0x03)
   \   00000042   ....               RCALL   ?Subroutine195
   \                     ??CrossCallReturnLabel_287:
   \   00000044   F019               BREQ    ??run_cont_485_1_8
   \   00000046   950A               DEC     R16
   \   00000048   F031               BREQ    ??run_cont_485_1_9
   \   0000004A   CFF5               RJMP    ??run_cont_485_1_3
   3337                                     {
   3338                                     case INF7:
   3339                                          UCSR3C=UCSR3C & ~0x06;
   \                     ??run_cont_485_1_8:
   \   0000004C   ....               RCALL   ??Subroutine234_0
   \                     ??CrossCallReturnLabel_367:
   \   0000004E   7F09               ANDI    R16, 0xF9
   \   00000050   ....               RCALL   ?Subroutine234
   3340                                          UCSR3C=UCSR3C | 0x04;
   \                     ??CrossCallReturnLabel_361:
   \   00000052   6004               ORI     R16, 0x04
   \   00000054   C002               RJMP    ??run_cont_485_1_10
   3341                                          break;
   3342                                     case INF8:
   3343                                          UCSR3C=UCSR3C | 0x06;
   \                     ??run_cont_485_1_9:
   \   00000056   ....               RCALL   ??Subroutine234_0
   \                     ??CrossCallReturnLabel_368:
   \   00000058   6006               ORI     R16, 0x06
   \                     ??run_cont_485_1_10:
   \   0000005A   93000132           STS     306, R16
   3344                                          break;
   3345                                     default: return(1);
   3346                                     }
   3347          
   3348          
   3349                            if((*(unsigned int*)(pointer+2))>10000)return(1);
   \   0000005E   ....               RCALL   ?Subroutine201
   \                     ??CrossCallReturnLabel_543:
   \   00000060   F750               BRCC    ??run_cont_485_1_3
   3350                            Rs485_1.cnt_tm_tx_out=0;
   \   00000062   ....               LDI     R30, LOW(Rs485_1)
   \   00000064   ....               LDI     R31, (Rs485_1) >> 8
   \   00000066   ....               RCALL   ?Subroutine1
   3351                            Rs485_1.vol_tm_tx_out=*(unsigned int*)(pointer+2);
   3352                            
   3353                            if((*(unsigned int*)(pointer+4))==0)return(1);
   \                     ??CrossCallReturnLabel_629:
   \   00000068   F331               BREQ    ??run_cont_485_1_3
   3354                            if((*(unsigned int*)(pointer+4))>10000)return(1);
   \   0000006A   ....               RCALL   ?Subroutine99
   \                     ??CrossCallReturnLabel_540:
   \   0000006C   F720               BRCC    ??run_cont_485_1_3
   3355                            Rs485_1.cnt_tm_rx_out=0;
   \   0000006E   ....               RCALL   ?Subroutine0
   3356                            Rs485_1.vol_tm_rx_out=*(unsigned int*)(pointer+4);
   3357                            
   3358                            
   3359                            if((*(unsigned int*)(pointer+6))<3)return(1);
   \                     ??CrossCallReturnLabel_0:
   \   00000070   F310               BRCS    ??run_cont_485_1_3
   3360                            Rs485_1.cnt_tm_out=0;
   \   00000072   ....               RCALL   ?Subroutine6
   3361                            Rs485_1.vol_tm_out=*(unsigned int*)(pointer+6); // 1000 миллисекунд
   3362                             
   3363                             
   3364                             
   3365                           switch (*pointer)
   \                     ??CrossCallReturnLabel_3:
   \   00000074   F049               BREQ    ??run_cont_485_1_11
   \   00000076   952A               DEC     R18
   \   00000078   F081               BREQ    ??run_cont_485_1_12
   \   0000007A   952A               DEC     R18
   \   0000007C   F0A1               BREQ    ??run_cont_485_1_13
   \   0000007E   5022               SUBI    R18, 2
   \   00000080   F0C1               BREQ    ??run_cont_485_1_14
   \   00000082   952A               DEC     R18
   \   00000084   F0E1               BREQ    ??run_cont_485_1_15
   \   00000086   CFD7               RJMP    ??run_cont_485_1_3
   3366                                      {
   3367                                        case B2400:
   3368                                               UBRR3H=R2400_H;
   \                     ??run_cont_485_1_11:
   \   00000088   E021               LDI     R18, 1
   \   0000008A   93200135           STS     309, R18
   3369                                               UBRR3L=R2400_L;
   \   0000008E   E92F               LDI     R18, 159
   \   00000090   ....               RCALL   ?Subroutine217
   3370                                               
   3371                                               
   3372                                               if(Appl_RS485_1.pre_tx!=0)
   \                     ??CrossCallReturnLabel_465:
   \   00000092   F4C9               BRNE    ??run_cont_485_1_16
   3373                                                    {
   3374                                                    // перехват порта для лафкина
   3375                                                    
   3376                                                  //  __disable_interrupt();
   3377                                                    SET_RTS1;
   3378                                                  //  __enable_interrupt();
   3379                                                    
   3380                                                    
   3381                                                    Rs485_1.cnt_tm_pre_tx=Appl_RS485_1.pre_tx;//задержка перед передачей
   3382                                                    }
   3383                                                  else Rs485_1.cnt_tm_pre_tx=17;// 17 миллисекунд
   \   00000094   E101               LDI     R16, 17
   \                     ??run_cont_485_1_17:
   \   00000096   E010               LDI     R17, 0
   \   00000098   C01C               RJMP    ??CrossCallReturnLabel_126
   3384                                              
   3385                                            //   Rs485_1.vol_tm_tx_out=Rs485_1.vol_tm_tx_out+5;
   3386                                               break;
   3387                                        case B4800:
   3388                                               UBRR3H=R4800_H;
   \                     ??run_cont_485_1_12:
   \   0000009A   ....               RCALL   ?Subroutine159
   3389                                               UBRR3L=R4800_L;
   \                     ??CrossCallReturnLabel_208:
   \   0000009C   EC2F               LDI     R18, 207
   \   0000009E   ....               RCALL   ?Subroutine217
   3390                                               
   3391                                               if(Appl_RS485_1.pre_tx!=0)
   \                     ??CrossCallReturnLabel_466:
   \   000000A0   F491               BRNE    ??run_cont_485_1_16
   3392                                                    {
   3393                                                    // перехват порта для лафкина
   3394                                                  //  __disable_interrupt();
   3395                                                   SET_RTS1;
   3396                                                 //   __enable_interrupt();
   3397                                                    
   3398                                                    Rs485_1.cnt_tm_pre_tx=Appl_RS485_1.pre_tx;//задержка перед передачей
   3399                                                    }
   3400                                                  else Rs485_1.cnt_tm_pre_tx=9;// 9 миллисекунд
   \   000000A2   E009               LDI     R16, 9
   \   000000A4   CFF8               RJMP    ??run_cont_485_1_17
   3401                                                  
   3402                                         //      Rs485_1.vol_tm_tx_out=Rs485_1.vol_tm_tx_out+3;
   3403                                               break;
   3404                                        case B9600:
   3405                                               UBRR3H=R9600_H;
   \                     ??run_cont_485_1_13:
   \   000000A6   ....               RCALL   ?Subroutine159
   3406                                               UBRR3L=R9600_L;
   \                     ??CrossCallReturnLabel_209:
   \   000000A8   E627               LDI     R18, 103
   \   000000AA   ....               RCALL   ?Subroutine217
   3407                                                                                    
   3408                                               if(Appl_RS485_1.pre_tx!=0)
   \                     ??CrossCallReturnLabel_467:
   \   000000AC   F461               BRNE    ??run_cont_485_1_16
   3409                                                    {
   3410                                                    // перехват порта для лафкина
   3411                                                   // __disable_interrupt();
   3412                                                    SET_RTS1;
   3413                                                  //  __enable_interrupt();
   3414                                                    
   3415                                                    Rs485_1.cnt_tm_pre_tx=Appl_RS485_1.pre_tx;//задержка перед передачей
   3416                                                    }
   3417                                                  else Rs485_1.cnt_tm_pre_tx=4;// 4 миллисекунд
   \   000000AE   E004               LDI     R16, 4
   \   000000B0   CFF2               RJMP    ??run_cont_485_1_17
   3418                                                  
   3419                                         //      Rs485_1.vol_tm_tx_out=Rs485_1.vol_tm_tx_out+2;
   3420                                               break;
   3421                                        case B19200:
   3422                                               UBRR3H=R19200_H;
   \                     ??run_cont_485_1_14:
   \   000000B2   ....               RCALL   ?Subroutine159
   3423                                               UBRR3L=R19200_L;
   \                     ??CrossCallReturnLabel_210:
   \   000000B4   E323               LDI     R18, 51
   \   000000B6   ....               RCALL   ?Subroutine217
   3424                                                                                    
   3425                                               if(Appl_RS485_1.pre_tx!=0)
   \                     ??CrossCallReturnLabel_468:
   \   000000B8   F431               BRNE    ??run_cont_485_1_16
   3426                                                    {
   3427                                                    // перехват порта для лафкина
   3428                                                     
   3429                                                    // __disable_interrupt();
   3430                                                    SET_RTS1;
   3431                                                   // __enable_interrupt();
   3432                                                    
   3433                                                    Rs485_1.cnt_tm_pre_tx=Appl_RS485_1.pre_tx;//задержка перед передачей
   3434                                                    }
   3435                                                  else Rs485_1.cnt_tm_pre_tx=2;// 2 миллисекунд
   \                     ??run_cont_485_1_18:
   \   000000BA   E002               LDI     R16, 2
   \   000000BC   CFEC               RJMP    ??run_cont_485_1_17
   3436                                                  
   3437                                         //      Rs485_1.vol_tm_tx_out=Rs485_1.vol_tm_tx_out+1;
   3438                                               break;
   3439                                               
   3440                                         case B38400:
   3441                                               UBRR3H=R38400_H;
   \                     ??run_cont_485_1_15:
   \   000000BE   ....               RCALL   ?Subroutine159
   3442                                               UBRR3L=R38400_L;
   \                     ??CrossCallReturnLabel_211:
   \   000000C0   E129               LDI     R18, 25
   \   000000C2   ....               RCALL   ?Subroutine217
   3443                                                                                    
   3444                                               if(Appl_RS485_1.pre_tx!=0)
   \                     ??CrossCallReturnLabel_469:
   \   000000C4   F3D1               BREQ    ??run_cont_485_1_18
   3445                                                    {
   3446                                                    // перехват порта для лафкина
   3447                                                     
   3448                                                    // __disable_interrupt();
   3449                                                    SET_RTS1;
   \                     ??run_cont_485_1_16:
   \   000000C6   91200105           LDS     R18, 261
   \   000000CA   6024               ORI     R18, 0x04
   \   000000CC   93200105           STS     261, R18
   3450                                                   // __enable_interrupt();
   3451                                                    
   3452                                                    Rs485_1.cnt_tm_pre_tx=Appl_RS485_1.pre_tx;//задержка перед передачей
   \   000000D0   ....               RCALL   ?Subroutine102
   \                     ??CrossCallReturnLabel_126:
   \   000000D2   ....               RCALL   ?Subroutine163
   3453                                                    }
   3454                                                  else Rs485_1.cnt_tm_pre_tx=2;// 2 миллисекунд
   3455                                                  
   3456                                         //      Rs485_1.vol_tm_tx_out=Rs485_1.vol_tm_tx_out+1;
   3457                                               break;       
   3458                                        default: return(1);
   3459                                      }  
   3460                             
   3461                             
   3462                             
   3463                             
   3464          return(0);
   \                     ??CrossCallReturnLabel_569:
   \   000000D4   ....               RJMP    ?Subroutine286
   3465          }

   \                                 In segment FARCODE, align 2, keep-with-next
   \                     ?Subroutine234:
   \   00000000   93000132           STS     306, R16
   \                     ??Subroutine234_0:
   \   00000004   91000132           LDS     R16, 306
   \   00000008   9508               RET

   \                                 In segment FARCODE, align 2, keep-with-next
   \                     ?Subroutine217:
   \   00000000   93200134           STS     308, R18
   \                     ??Subroutine217_0:
   \   00000004   01D8               MOVW    R27:R26, R17:R16
   \   00000006   9651               ADIW    R27:R26, 17
   \   00000008                      REQUIRE ?Subroutine256
   \   00000008                      ;               // Fall through to label ?Subroutine256

   \                                 In segment FARCODE, align 2, keep-with-next
   \                     ?Subroutine256:
   \   00000000   912D               LD      R18, X+
   \   00000002   913C               LD      R19, X
   \   00000004   2B23               OR      R18, R19
   \   00000006   9508               RET

   \                                 In segment FARCODE, align 2, keep-with-next
   \                     ?Subroutine159:
   \   00000000   E020               LDI     R18, 0
   \   00000002   93200135           STS     309, R18
   \   00000006   9508               RET

   \                                 In segment FARCODE, align 2, keep-with-next
   \                     ?Subroutine201:
   \   00000000   8102               LDD     R16, Z+2
   \   00000002   8113               LDD     R17, Z+3
   \   00000004                      REQUIRE ?Subroutine267
   \   00000004                      ;               // Fall through to label ?Subroutine267

   \                                 In segment FARCODE, align 2, keep-with-next
   \                     ?Subroutine267:
   \   00000000   3101               CPI     R16, 17
   \   00000002   4217               SBCI    R17, 39
   \   00000004   9508               RET

   \                                 In segment FARCODE, align 2, keep-with-next
   \                     ?Subroutine196:
   \   00000000   8101               LDD     R16, Z+1
   \   00000002   9506               LSR     R16
   \   00000004   9506               LSR     R16
   \   00000006   9506               LSR     R16
   \   00000008   7003               ANDI    R16, 0x03
   \   0000000A   9508               RET

   \                                 In segment FARCODE, align 2, keep-with-next
   \                     ?Subroutine195:
   \   00000000   8101               LDD     R16, Z+1
   \   00000002   9502               SWAP    R16
   \   00000004   700F               ANDI    R16, 0x0F
   \   00000006   9506               LSR     R16
   \   00000008   7003               ANDI    R16, 0x03
   \   0000000A   5002               SUBI    R16, 2
   \   0000000C   9508               RET

   \                                 In segment FARCODE, align 2, keep-with-next
   \                     ?Subroutine163:
   \   00000000   8304               STD     Z+4, R16
   \   00000002   8315               STD     Z+5, R17
   \   00000004                      REQUIRE ?Subroutine271
   \   00000004                      ;               // Fall through to label ?Subroutine271

   \                                 In segment FARCODE, align 2, keep-with-next
   \                     ?Subroutine99:
   \   00000000   9614               ADIW    R27:R26, 4
   \   00000002   910D               LD      R16, X+
   \   00000004   911C               LD      R17, X
   \   00000006   9715               SBIW    R27:R26, 5
   \   00000008   ....               RJMP    ?Subroutine267

   \                                 In segment FARCODE, align 2, keep-with-next
   \                     ?Subroutine73:
   \   00000000   ........           CALL    ?PROLOGUE4_L09
   \   00000004   01D8               MOVW    R27:R26, R17:R16
   \   00000006   01F8               MOVW    R31:R30, R17:R16
   \   00000008   8101               LDD     R16, Z+1
   \   0000000A   7007               ANDI    R16, 0x07
   \   0000000C   9508               RET

   \                                 In segment FARCODE, align 2, keep-with-next
   \                     ?Subroutine6:
   \   00000000   E000               LDI     R16, 0
   \   00000002   8704               STD     Z+12, R16
   \   00000004   8705               STD     Z+13, R16
   \   00000006   9616               ADIW    R27:R26, 6
   \   00000008   910D               LD      R16, X+
   \   0000000A   911C               LD      R17, X
   \   0000000C   9717               SBIW    R27:R26, 7
   \   0000000E   8706               STD     Z+14, R16
   \   00000010   8717               STD     Z+15, R17
   \   00000012   ....               LDI     R16, LOW(Appl_RS485_1)
   \   00000014   ....               LDI     R17, (Appl_RS485_1) >> 8
   \   00000016   912C               LD      R18, X
   \   00000018   5024               SUBI    R18, 4
   \   0000001A   9508               RET

   \                                 In segment FARCODE, align 2, keep-with-next
   \                     ?Subroutine1:
   \   00000000   E000               LDI     R16, 0
   \   00000002   8302               STD     Z+2, R16
   \   00000004   8303               STD     Z+3, R16
   \   00000006   9612               ADIW    R27:R26, 2
   \   00000008   910D               LD      R16, X+
   \   0000000A   911D               LD      R17, X+
   \   0000000C   8306               STD     Z+6, R16
   \   0000000E   8317               STD     Z+7, R17
   \   00000010   910D               LD      R16, X+
   \   00000012   911C               LD      R17, X
   \   00000014   9715               SBIW    R27:R26, 5
   \   00000016                      REQUIRE ?Subroutine281
   \   00000016                      ;               // Fall through to label ?Subroutine281

   \                                 In segment FARCODE, align 2, keep-with-next
   \                     ?Subroutine281:
   \   00000000   2B01               OR      R16, R17
   \   00000002   9508               RET

   \                                 In segment FARCODE, align 2, keep-with-next
   \                     ?Subroutine0:
   \   00000000   E000               LDI     R16, 0
   \   00000002   8700               STD     Z+8, R16
   \   00000004   8701               STD     Z+9, R16
   \   00000006   9614               ADIW    R27:R26, 4
   \   00000008   910D               LD      R16, X+
   \   0000000A   911D               LD      R17, X+
   \   0000000C   8702               STD     Z+10, R16
   \   0000000E   8713               STD     Z+11, R17
   \   00000010   918D               LD      R24, X+
   \   00000012   919C               LD      R25, X
   \   00000014   9717               SBIW    R27:R26, 7
   \   00000016   3083               CPI     R24, 3
   \   00000018   4090               SBCI    R25, 0
   \   0000001A   9508               RET

   \                                 In segment FARCODE, align 2, keep-with-next
   \                     ?Subroutine102:
   \   00000000   01D8               MOVW    R27:R26, R17:R16
   \   00000002   9651               ADIW    R27:R26, 17
   \                     ??Subroutine102_0:
   \   00000004   910D               LD      R16, X+
   \   00000006   911C               LD      R17, X
   \   00000008   9508               RET
   3466          
   3467          
   3468          

   \                                 In segment FARCODE, align 2, keep-with-next
   3469          unsigned char run_cont_485_2 (unsigned char *pointer)
   \                     run_cont_485_2:
   3470          {
   \   00000000   ....               RCALL   ?Subroutine73
   3471              
   3472             
   3473                          switch ((*(pointer+1)) & 0x07)
   \                     ??CrossCallReturnLabel_78:
   \   00000002   F029               BREQ    ??run_cont_485_2_0
   \   00000004   950A               DEC     R16
   \   00000006   F079               BREQ    ??run_cont_485_2_1
   \   00000008   950A               DEC     R16
   \   0000000A   F081               BREQ    ??run_cont_485_2_2
   \   0000000C   C014               RJMP    ??run_cont_485_2_3
   3474                                     {
   3475                                     case NON:  UCSR1C=UCSR1C & ~0x30;
   \                     ??run_cont_485_2_0:
   \   0000000E   ....               RCALL   ??Subroutine235_0
   \                     ??CrossCallReturnLabel_371:
   \   00000010   7C0F               ANDI    R16, 0xCF
   \                     ??run_cont_485_2_4:
   \   00000012   930000CA           STS     202, R16
   3476                                           break;
   3477                                     case ODD:  UCSR1C=UCSR1C | 0x30;
   3478                                           break;
   3479                                     case EVEN: UCSR1C=UCSR1C & ~0x30;
   3480                                           UCSR1C=UCSR1C | 0x20;
   3481                                           break;
   3482                                     default: return(1);
   3483                                     }
   3484                   
   3485          
   3486                              switch (((*(pointer+1))>>3)& 0x03)
   \   00000016   ....               RCALL   ?Subroutine196
   \                     ??CrossCallReturnLabel_291:
   \   00000018   F019               BREQ    ??run_cont_485_2_5
   \   0000001A   5002               SUBI    R16, 2
   \   0000001C   F071               BREQ    ??run_cont_485_2_6
   \   0000001E   C00B               RJMP    ??run_cont_485_2_3
   3487                                     {
   3488                                     case STOP1:UCSR1C=UCSR1C & ~0x08; 
   \                     ??run_cont_485_2_5:
   \   00000020   ....               RCALL   ??Subroutine235_0
   \                     ??CrossCallReturnLabel_372:
   \   00000022   7F07               ANDI    R16, 0xF7
   \   00000024   C00C               RJMP    ??run_cont_485_2_7
   \                     ??run_cont_485_2_1:
   \   00000026   ....               RCALL   ??Subroutine235_0
   \                     ??CrossCallReturnLabel_373:
   \   00000028   6300               ORI     R16, 0x30
   \   0000002A   CFF3               RJMP    ??run_cont_485_2_4
   \                     ??run_cont_485_2_2:
   \   0000002C   ....               RCALL   ??Subroutine235_0
   \                     ??CrossCallReturnLabel_374:
   \   0000002E   7C0F               ANDI    R16, 0xCF
   \   00000030   ....               RCALL   ?Subroutine235
   \                     ??CrossCallReturnLabel_369:
   \   00000032   6200               ORI     R16, 0x20
   \   00000034   CFEE               RJMP    ??run_cont_485_2_4
   \                     ??run_cont_485_2_3:
   \   00000036   E001               LDI     R16, 1
   \   00000038   C04B               RJMP    ??CrossCallReturnLabel_570
   3489                                           break;
   3490                                     case STOP2:
   3491                                           UCSR1C=UCSR1C | 0x08; 
   \                     ??run_cont_485_2_6:
   \   0000003A   ....               RCALL   ??Subroutine235_0
   \                     ??CrossCallReturnLabel_375:
   \   0000003C   6008               ORI     R16, 0x08
   \                     ??run_cont_485_2_7:
   \   0000003E   930000CA           STS     202, R16
   3492                                           break;
   3493                                     default: return(1);
   3494                                     }
   3495                      
   3496                      
   3497                              switch (((*(pointer+1))>>5)& 0x03)
   \   00000042   ....               RCALL   ?Subroutine195
   \                     ??CrossCallReturnLabel_288:
   \   00000044   F019               BREQ    ??run_cont_485_2_8
   \   00000046   950A               DEC     R16
   \   00000048   F031               BREQ    ??run_cont_485_2_9
   \   0000004A   CFF5               RJMP    ??run_cont_485_2_3
   3498                                     {
   3499                                     case INF7:
   3500                                          UCSR1C=UCSR1C & ~0x06;
   \                     ??run_cont_485_2_8:
   \   0000004C   ....               RCALL   ??Subroutine235_0
   \                     ??CrossCallReturnLabel_376:
   \   0000004E   7F09               ANDI    R16, 0xF9
   \   00000050   ....               RCALL   ?Subroutine235
   3501                                          UCSR1C=UCSR1C | 0x04;
   \                     ??CrossCallReturnLabel_370:
   \   00000052   6004               ORI     R16, 0x04
   \   00000054   C002               RJMP    ??run_cont_485_2_10
   3502                                          break;
   3503                                     case INF8:
   3504                                          UCSR1C=UCSR1C | 0x06;
   \                     ??run_cont_485_2_9:
   \   00000056   ....               RCALL   ??Subroutine235_0
   \                     ??CrossCallReturnLabel_377:
   \   00000058   6006               ORI     R16, 0x06
   \                     ??run_cont_485_2_10:
   \   0000005A   930000CA           STS     202, R16
   3505                                          break;
   3506                                     default: return(1);
   3507                                     }
   3508          
   3509          
   3510                            if((*(unsigned int*)(pointer+2))>10000)return(1);
   \   0000005E   ....               RCALL   ?Subroutine201
   \                     ??CrossCallReturnLabel_544:
   \   00000060   F750               BRCC    ??run_cont_485_2_3
   3511                            Rs485_2.cnt_tm_tx_out=0;
   \   00000062   ....               LDI     R30, LOW(Rs485_2)
   \   00000064   ....               LDI     R31, (Rs485_2) >> 8
   \   00000066   ....               RCALL   ?Subroutine1
   3512                            Rs485_2.vol_tm_tx_out=*(unsigned int*)(pointer+2);
   3513                            
   3514                            if((*(unsigned int*)(pointer+4))==0)return(1);
   \                     ??CrossCallReturnLabel_630:
   \   00000068   F331               BREQ    ??run_cont_485_2_3
   3515                            if((*(unsigned int*)(pointer+4))>10000)return(1);
   \   0000006A   ....               RCALL   ?Subroutine99
   \                     ??CrossCallReturnLabel_541:
   \   0000006C   F720               BRCC    ??run_cont_485_2_3
   3516                            Rs485_2.cnt_tm_rx_out=0;
   \   0000006E   ....               RCALL   ?Subroutine0
   3517                            Rs485_2.vol_tm_rx_out=*(unsigned int*)(pointer+4);
   3518                            
   3519                            
   3520                            if((*(unsigned int*)(pointer+6))<3)return(1);
   \                     ??CrossCallReturnLabel_1:
   \   00000070   F310               BRCS    ??run_cont_485_2_3
   3521                            Rs485_2.cnt_tm_out=0;
   \   00000072   ....               RCALL   ?Subroutine6
   3522                            Rs485_2.vol_tm_out=*(unsigned int*)(pointer+6); // 1000 миллисекунд
   3523                             
   3524                             
   3525                             
   3526                           switch (*pointer)
   \                     ??CrossCallReturnLabel_4:
   \   00000074   F049               BREQ    ??run_cont_485_2_11
   \   00000076   952A               DEC     R18
   \   00000078   F081               BREQ    ??run_cont_485_2_12
   \   0000007A   952A               DEC     R18
   \   0000007C   F0A1               BREQ    ??run_cont_485_2_13
   \   0000007E   5022               SUBI    R18, 2
   \   00000080   F0C1               BREQ    ??run_cont_485_2_14
   \   00000082   952A               DEC     R18
   \   00000084   F0E1               BREQ    ??run_cont_485_2_15
   \   00000086   CFD7               RJMP    ??run_cont_485_2_3
   3527                                      {
   3528                                        case B2400:
   3529                                               UBRR1H=R2400_H;
   \                     ??run_cont_485_2_11:
   \   00000088   E021               LDI     R18, 1
   \   0000008A   932000CD           STS     205, R18
   3530                                               UBRR1L=R2400_L;
   \   0000008E   E92F               LDI     R18, 159
   \   00000090   ....               RCALL   ?Subroutine218
   3531                                               
   3532                                               
   3533                                               if(Appl_RS485_2.pre_tx!=0)
   \                     ??CrossCallReturnLabel_460:
   \   00000092   F4C9               BRNE    ??run_cont_485_2_16
   3534                                                    {
   3535                                                    // перехват порта для лафкина
   3536                                                    
   3537                                                  //  __disable_interrupt();
   3538                                                    SET_RTS3;
   3539                                                  //  __enable_interrupt();
   3540                                                    
   3541                                                    
   3542                                                    Rs485_2.cnt_tm_pre_tx=Appl_RS485_2.pre_tx;//задержка перед передачей
   3543                                                    }
   3544                                                  else Rs485_2.cnt_tm_pre_tx=17;// 17 миллисекунд
   \   00000094   E101               LDI     R16, 17
   \                     ??run_cont_485_2_17:
   \   00000096   E010               LDI     R17, 0
   \   00000098   C01A               RJMP    ??CrossCallReturnLabel_127
   3545                                              
   3546                                          //     Rs485_2.vol_tm_tx_out=Rs485_2.vol_tm_tx_out+5;
   3547                                               break;
   3548                                        case B4800:
   3549                                               UBRR1H=R4800_H;
   \                     ??run_cont_485_2_12:
   \   0000009A   ....               RCALL   ?Subroutine160
   3550                                               UBRR1L=R4800_L;
   \                     ??CrossCallReturnLabel_212:
   \   0000009C   EC2F               LDI     R18, 207
   \   0000009E   ....               RCALL   ?Subroutine218
   3551                                               
   3552                                               if(Appl_RS485_2.pre_tx!=0)
   \                     ??CrossCallReturnLabel_461:
   \   000000A0   F491               BRNE    ??run_cont_485_2_16
   3553                                                    {
   3554                                                    // перехват порта для лафкина
   3555                                                  //  __disable_interrupt();
   3556                                                   SET_RTS3;
   3557                                                 //   __enable_interrupt();
   3558                                                    
   3559                                                    Rs485_2.cnt_tm_pre_tx=Appl_RS485_2.pre_tx;//задержка перед передачей
   3560                                                    }
   3561                                                  else Rs485_2.cnt_tm_pre_tx=9;// 9 миллисекунд
   \   000000A2   E009               LDI     R16, 9
   \   000000A4   CFF8               RJMP    ??run_cont_485_2_17
   3562                                                  
   3563                                           //    Rs485_2.vol_tm_tx_out=Rs485_2.vol_tm_tx_out+3;
   3564                                               break;
   3565                                        case B9600:
   3566                                               UBRR1H=R9600_H;
   \                     ??run_cont_485_2_13:
   \   000000A6   ....               RCALL   ?Subroutine160
   3567                                               UBRR1L=R9600_L;
   \                     ??CrossCallReturnLabel_213:
   \   000000A8   E627               LDI     R18, 103
   \   000000AA   ....               RCALL   ?Subroutine218
   3568                                                                                    
   3569                                               if(Appl_RS485_2.pre_tx!=0)
   \                     ??CrossCallReturnLabel_462:
   \   000000AC   F461               BRNE    ??run_cont_485_2_16
   3570                                                    {
   3571                                                    // перехват порта для лафкина
   3572                                                   // __disable_interrupt();
   3573                                                    SET_RTS3;
   3574                                                  //  __enable_interrupt();
   3575                                                    
   3576                                                    Rs485_2.cnt_tm_pre_tx=Appl_RS485_2.pre_tx;//задержка перед передачей
   3577                                                    }
   3578                                                  else Rs485_2.cnt_tm_pre_tx=4;// 4 миллисекунд
   \   000000AE   E004               LDI     R16, 4
   \   000000B0   CFF2               RJMP    ??run_cont_485_2_17
   3579                                                  
   3580                                          //     Rs485_2.vol_tm_tx_out=Rs485_2.vol_tm_tx_out+2;
   3581                                               break;
   3582                                        case B19200:
   3583                                               UBRR1H=R19200_H;
   \                     ??run_cont_485_2_14:
   \   000000B2   ....               RCALL   ?Subroutine160
   3584                                               UBRR1L=R19200_L;
   \                     ??CrossCallReturnLabel_214:
   \   000000B4   E323               LDI     R18, 51
   \   000000B6   ....               RCALL   ?Subroutine218
   3585                                                                                    
   3586                                               if(Appl_RS485_2.pre_tx!=0)
   \                     ??CrossCallReturnLabel_463:
   \   000000B8   F431               BRNE    ??run_cont_485_2_16
   3587                                                    {
   3588                                                    // перехват порта для лафкина
   3589                                                     
   3590                                                    // __disable_interrupt();
   3591                                                    SET_RTS3;
   3592                                                   // __enable_interrupt();
   3593                                                    
   3594                                                    Rs485_2.cnt_tm_pre_tx=Appl_RS485_2.pre_tx;//задержка перед передачей
   3595                                                    }
   3596                                                  else Rs485_2.cnt_tm_pre_tx=2;// 2 миллисекунд
   \                     ??run_cont_485_2_18:
   \   000000BA   E002               LDI     R16, 2
   \   000000BC   CFEC               RJMP    ??run_cont_485_2_17
   3597                                                  
   3598                                          //     Rs485_2.vol_tm_tx_out=Rs485_2.vol_tm_tx_out+1;
   3599                                               break;
   3600                                               
   3601                                          case B38400:
   3602                                               UBRR1H=R38400_H;
   \                     ??run_cont_485_2_15:
   \   000000BE   ....               RCALL   ?Subroutine160
   3603                                               UBRR1L=R38400_L;
   \                     ??CrossCallReturnLabel_215:
   \   000000C0   E129               LDI     R18, 25
   \   000000C2   ....               RCALL   ?Subroutine218
   3604                                                                                    
   3605                                               if(Appl_RS485_2.pre_tx!=0)
   \                     ??CrossCallReturnLabel_464:
   \   000000C4   F3D1               BREQ    ??run_cont_485_2_18
   3606                                                    {
   3607                                                    // перехват порта для лафкина
   3608                                                     
   3609                                                    // __disable_interrupt();
   3610                                                    SET_RTS3;
   \                     ??run_cont_485_2_16:
   \   000000C6   9A5C               SBI     0x0B, 0x04
   3611                                                   // __enable_interrupt();
   3612                                                    
   3613                                                    Rs485_2.cnt_tm_pre_tx=Appl_RS485_2.pre_tx;//задержка перед передачей
   \   000000C8   01D8               MOVW    R27:R26, R17:R16
   \   000000CA   9694               ADIW    R27:R26, 36
   \   000000CC   ....               RCALL   ??Subroutine102_0
   \                     ??CrossCallReturnLabel_127:
   \   000000CE   ....               RCALL   ?Subroutine163
   3614                                                    }
   3615                                                  else Rs485_2.cnt_tm_pre_tx=2;// 2 миллисекунд
   3616                                                  
   3617                                          //     Rs485_2.vol_tm_tx_out=Rs485_2.vol_tm_tx_out+1;
   3618                                               break;      
   3619                                               
   3620                                        default: return(1);
   3621                                      }  
   3622                             
   3623                             
   3624                             
   3625                             
   3626          return(0);
   \                     ??CrossCallReturnLabel_570:
   \   000000D0   ....               RJMP    ?Subroutine286
   3627          }

   \                                 In segment FARCODE, align 2, keep-with-next
   \                     ?Subroutine235:
   \   00000000   930000CA           STS     202, R16
   \                     ??Subroutine235_0:
   \   00000004   910000CA           LDS     R16, 202
   \   00000008   9508               RET

   \                                 In segment FARCODE, align 2, keep-with-next
   \                     ?Subroutine218:
   \   00000000   932000CC           STS     204, R18
   \   00000004   01D8               MOVW    R27:R26, R17:R16
   \   00000006   9694               ADIW    R27:R26, 36
   \   00000008   ....               RJMP    ?Subroutine256

   \                                 In segment FARCODE, align 2, keep-with-next
   \                     ?Subroutine160:
   \   00000000   E020               LDI     R18, 0
   \   00000002   932000CD           STS     205, R18
   \   00000006   9508               RET
   3628          
   3629          
   3630          
   3631          

   \                                 In segment FARCODE, align 2, keep-with-next
   3632          unsigned char run_cont_232_2 (unsigned char *pointer)
   \                     run_cont_232_2:
   3633          {
   \   00000000   ....               RCALL   ?Subroutine73
   3634              
   3635             
   3636                          switch ((*(pointer+1)) & 0x07)
   \                     ??CrossCallReturnLabel_79:
   \   00000002   F029               BREQ    ??run_cont_232_2_0
   \   00000004   950A               DEC     R16
   \   00000006   F079               BREQ    ??run_cont_232_2_1
   \   00000008   950A               DEC     R16
   \   0000000A   F081               BREQ    ??run_cont_232_2_2
   \   0000000C   C014               RJMP    ??run_cont_232_2_3
   3637                                     {
   3638                                     case NON:  UCSR2C=UCSR2C & ~0x30;
   \                     ??run_cont_232_2_0:
   \   0000000E   ....               RCALL   ??Subroutine236_0
   \                     ??CrossCallReturnLabel_380:
   \   00000010   7C0F               ANDI    R16, 0xCF
   \                     ??run_cont_232_2_4:
   \   00000012   930000D2           STS     210, R16
   3639                                           break;
   3640                                     case ODD:  UCSR2C=UCSR2C | 0x30;
   3641                                           break;
   3642                                     case EVEN: UCSR2C=UCSR2C & ~0x30;
   3643                                           UCSR2C=UCSR2C | 0x20;
   3644                                           break;
   3645                                     default: return(1);
   3646                                     }
   3647                   
   3648          
   3649                              switch (((*(pointer+1))>>3)& 0x03)
   \   00000016   ....               RCALL   ?Subroutine196
   \                     ??CrossCallReturnLabel_292:
   \   00000018   F019               BREQ    ??run_cont_232_2_5
   \   0000001A   5002               SUBI    R16, 2
   \   0000001C   F071               BREQ    ??run_cont_232_2_6
   \   0000001E   C00B               RJMP    ??run_cont_232_2_3
   3650                                     {
   3651                                     case STOP1:UCSR2C=UCSR2C & ~0x08; 
   \                     ??run_cont_232_2_5:
   \   00000020   ....               RCALL   ??Subroutine236_0
   \                     ??CrossCallReturnLabel_381:
   \   00000022   7F07               ANDI    R16, 0xF7
   \   00000024   C00C               RJMP    ??run_cont_232_2_7
   \                     ??run_cont_232_2_1:
   \   00000026   ....               RCALL   ??Subroutine236_0
   \                     ??CrossCallReturnLabel_382:
   \   00000028   6300               ORI     R16, 0x30
   \   0000002A   CFF3               RJMP    ??run_cont_232_2_4
   \                     ??run_cont_232_2_2:
   \   0000002C   ....               RCALL   ??Subroutine236_0
   \                     ??CrossCallReturnLabel_383:
   \   0000002E   7C0F               ANDI    R16, 0xCF
   \   00000030   ....               RCALL   ?Subroutine236
   \                     ??CrossCallReturnLabel_378:
   \   00000032   6200               ORI     R16, 0x20
   \   00000034   CFEE               RJMP    ??run_cont_232_2_4
   \                     ??run_cont_232_2_3:
   \   00000036   E001               LDI     R16, 1
   \   00000038   C05C               RJMP    ??CrossCallReturnLabel_571
   3652                                           break;
   3653                                     case STOP2:
   3654                                           UCSR2C=UCSR2C | 0x08; 
   \                     ??run_cont_232_2_6:
   \   0000003A   ....               RCALL   ??Subroutine236_0
   \                     ??CrossCallReturnLabel_384:
   \   0000003C   6008               ORI     R16, 0x08
   \                     ??run_cont_232_2_7:
   \   0000003E   930000D2           STS     210, R16
   3655                                           break;
   3656                                     default: return(1);
   3657                                     }
   3658                      
   3659                      
   3660                              switch (((*(pointer+1))>>5)& 0x03)
   \   00000042   ....               RCALL   ?Subroutine195
   \                     ??CrossCallReturnLabel_289:
   \   00000044   F019               BREQ    ??run_cont_232_2_8
   \   00000046   950A               DEC     R16
   \   00000048   F031               BREQ    ??run_cont_232_2_9
   \   0000004A   CFF5               RJMP    ??run_cont_232_2_3
   3661                                     {
   3662                                     case INF7:
   3663                                          UCSR2C=UCSR2C & ~0x06;
   \                     ??run_cont_232_2_8:
   \   0000004C   ....               RCALL   ??Subroutine236_0
   \                     ??CrossCallReturnLabel_385:
   \   0000004E   7F09               ANDI    R16, 0xF9
   \   00000050   ....               RCALL   ?Subroutine236
   3664                                          UCSR2C=UCSR2C | 0x04;
   \                     ??CrossCallReturnLabel_379:
   \   00000052   6004               ORI     R16, 0x04
   \   00000054   C002               RJMP    ??run_cont_232_2_10
   3665                                          break;
   3666                                     case INF8:
   3667                                          UCSR2C=UCSR2C | 0x06;
   \                     ??run_cont_232_2_9:
   \   00000056   ....               RCALL   ??Subroutine236_0
   \                     ??CrossCallReturnLabel_386:
   \   00000058   6006               ORI     R16, 0x06
   \                     ??run_cont_232_2_10:
   \   0000005A   930000D2           STS     210, R16
   3668                                          break;
   3669                                     default: return(1);
   3670                                     }
   3671          
   3672          
   3673                            if((*(unsigned int*)(pointer+2))>10000)return(1);
   \   0000005E   ....               RCALL   ?Subroutine201
   \                     ??CrossCallReturnLabel_545:
   \   00000060   F750               BRCC    ??run_cont_232_2_3
   3674                            Rs232_2.cnt_tm_tx_out=0;
   \   00000062   ....               LDI     R30, LOW(Rs232_2)
   \   00000064   ....               LDI     R31, (Rs232_2) >> 8
   \   00000066   ....               RCALL   ?Subroutine1
   3675                            Rs232_2.vol_tm_tx_out=*(unsigned int*)(pointer+2);
   3676                            
   3677                            if((*(unsigned int*)(pointer+4))==0)return(1);
   \                     ??CrossCallReturnLabel_631:
   \   00000068   F331               BREQ    ??run_cont_232_2_3
   3678                            if((*(unsigned int*)(pointer+4))>10000)return(1);
   \   0000006A   ....               RCALL   ?Subroutine99
   \                     ??CrossCallReturnLabel_542:
   \   0000006C   F720               BRCC    ??run_cont_232_2_3
   3679                            Rs232_2.cnt_tm_rx_out=0;
   \   0000006E   ....               RCALL   ?Subroutine0
   3680                            Rs232_2.vol_tm_rx_out=*(unsigned int*)(pointer+4);
   3681                            
   3682                            
   3683                            if((*(unsigned int*)(pointer+6))<3)return(1);
   \                     ??CrossCallReturnLabel_2:
   \   00000070   F310               BRCS    ??run_cont_232_2_3
   3684                            Rs232_2.cnt_tm_out=0;
   \   00000072   E000               LDI     R16, 0
   \   00000074   8704               STD     Z+12, R16
   \   00000076   8705               STD     Z+13, R16
   3685                            Rs232_2.vol_tm_out=*(unsigned int*)(pointer+6); // 1000 миллисекунд
   \   00000078   9616               ADIW    R27:R26, 6
   \   0000007A   ....               RCALL   ??Subroutine102_0
   \                     ??CrossCallReturnLabel_128:
   \   0000007C   9717               SBIW    R27:R26, 7
   \   0000007E   ....               RCALL   ??Subroutine198_0
   3686                             
   3687                             
   3688                             
   3689                           switch (*pointer)
   \                     ??CrossCallReturnLabel_298:
   \   00000080   ....               LDI     R16, LOW(Appl_RS232_2)
   \   00000082   ....               LDI     R17, (Appl_RS232_2) >> 8
   \   00000084   912C               LD      R18, X
   \   00000086   5024               SUBI    R18, 4
   \   00000088   F049               BREQ    ??run_cont_232_2_11
   \   0000008A   952A               DEC     R18
   \   0000008C   F089               BREQ    ??run_cont_232_2_12
   \   0000008E   952A               DEC     R18
   \   00000090   F0B1               BREQ    ??run_cont_232_2_13
   \   00000092   5022               SUBI    R18, 2
   \   00000094   F0D9               BREQ    ??run_cont_232_2_14
   \   00000096   952A               DEC     R18
   \   00000098   F101               BREQ    ??run_cont_232_2_15
   \   0000009A   CFCD               RJMP    ??run_cont_232_2_3
   3690                                      {
   3691                                        case B2400:
   3692                                               UBRR2H=R2400_H;
   \                     ??run_cont_232_2_11:
   \   0000009C   E021               LDI     R18, 1
   \   0000009E   932000D5           STS     213, R18
   3693                                               UBRR2L=R2400_L;
   \   000000A2   E92F               LDI     R18, 159
   \   000000A4   ....               RCALL   ?Subroutine237
   3694                                               
   3695                                               
   3696                                               if(Appl_RS232_2.pre_tx!=0)
   \                     ??CrossCallReturnLabel_387:
   \   000000A6   ....               RCALL   ??Subroutine217_0
   \                     ??CrossCallReturnLabel_470:
   \   000000A8   F4E9               BRNE    ??run_cont_232_2_16
   3697                                                    {
   3698                                                    // перехват порта для лафкина
   3699                                                    
   3700                                                  //  __disable_interrupt();
   3701                                                    SET_RTS2;
   3702                                                  //  __enable_interrupt();
   3703                                                    
   3704                                                    
   3705                                                    Rs232_2.cnt_tm_pre_tx=Appl_RS232_2.pre_tx;//задержка перед передачей
   3706                                                    }
   3707                                                  else Rs232_2.cnt_tm_pre_tx=17;// 17 миллисекунд
   \   000000AA   E101               LDI     R16, 17
   \                     ??run_cont_232_2_17:
   \   000000AC   E010               LDI     R17, 0
   \   000000AE   C020               RJMP    ??CrossCallReturnLabel_129
   3708                                              
   3709                                            //   Rs232_2.vol_tm_tx_out=Rs232_2.vol_tm_tx_out+5;
   3710                                               break;
   3711                                        case B4800:
   3712                                               UBRR2H=R4800_H;
   \                     ??run_cont_232_2_12:
   \   000000B0   ....               RCALL   ?Subroutine161
   3713                                               UBRR2L=R4800_L;
   \                     ??CrossCallReturnLabel_216:
   \   000000B2   EC2F               LDI     R18, 207
   \   000000B4   ....               RCALL   ?Subroutine237
   3714                                               
   3715                                               if(Appl_RS232_2.pre_tx!=0)
   \                     ??CrossCallReturnLabel_388:
   \   000000B6   ....               RCALL   ??Subroutine217_0
   \                     ??CrossCallReturnLabel_471:
   \   000000B8   F4A9               BRNE    ??run_cont_232_2_16
   3716                                                    {
   3717                                                    // перехват порта для лафкина
   3718                                                  //  __disable_interrupt();
   3719                                                   SET_RTS2;
   3720                                                 //   __enable_interrupt();
   3721                                                    
   3722                                                    Rs232_2.cnt_tm_pre_tx=Appl_RS232_2.pre_tx;//задержка перед передачей
   3723                                                    }
   3724                                                  else Rs232_2.cnt_tm_pre_tx=9;// 9 миллисекунд
   \   000000BA   E009               LDI     R16, 9
   \   000000BC   CFF7               RJMP    ??run_cont_232_2_17
   3725                                                  
   3726                                           //    Rs232_2.vol_tm_tx_out=Rs232_2.vol_tm_tx_out+3;
   3727                                               break;
   3728                                        case B9600:
   3729                                               UBRR2H=R9600_H;
   \                     ??run_cont_232_2_13:
   \   000000BE   ....               RCALL   ?Subroutine161
   3730                                               UBRR2L=R9600_L;
   \                     ??CrossCallReturnLabel_217:
   \   000000C0   E627               LDI     R18, 103
   \   000000C2   ....               RCALL   ?Subroutine237
   3731                                                                                    
   3732                                               if(Appl_RS232_2.pre_tx!=0)
   \                     ??CrossCallReturnLabel_389:
   \   000000C4   ....               RCALL   ??Subroutine217_0
   \                     ??CrossCallReturnLabel_472:
   \   000000C6   F471               BRNE    ??run_cont_232_2_16
   3733                                                    {
   3734                                                    // перехват порта для лафкина
   3735                                                   // __disable_interrupt();
   3736                                                    SET_RTS2;
   3737                                                  //  __enable_interrupt();
   3738                                                    
   3739                                                    Rs232_2.cnt_tm_pre_tx=Appl_RS232_2.pre_tx;//задержка перед передачей
   3740                                                    }
   3741                                                  else Rs232_2.cnt_tm_pre_tx=4;// 4 миллисекунд
   \   000000C8   E004               LDI     R16, 4
   \   000000CA   CFF0               RJMP    ??run_cont_232_2_17
   3742                                                  
   3743                                         //      Rs232_2.vol_tm_tx_out=Rs232_2.vol_tm_tx_out+2;
   3744                                               break;
   3745                                        case B19200:
   3746                                               UBRR2H=R19200_H;
   \                     ??run_cont_232_2_14:
   \   000000CC   ....               RCALL   ?Subroutine161
   3747                                               UBRR2L=R19200_L;
   \                     ??CrossCallReturnLabel_218:
   \   000000CE   E323               LDI     R18, 51
   \   000000D0   ....               RCALL   ?Subroutine237
   3748                                                                                    
   3749                                               if(Appl_RS232_2.pre_tx!=0)
   \                     ??CrossCallReturnLabel_390:
   \   000000D2   ....               RCALL   ??Subroutine217_0
   \                     ??CrossCallReturnLabel_473:
   \   000000D4   F439               BRNE    ??run_cont_232_2_16
   3750                                                    {
   3751                                                    // перехват порта для лафкина
   3752                                                     
   3753                                                    // __disable_interrupt();
   3754                                                    SET_RTS2;
   3755                                                   // __enable_interrupt();
   3756                                                    
   3757                                                    Rs232_2.cnt_tm_pre_tx=Appl_RS232_2.pre_tx;//задержка перед передачей
   3758                                                    }
   3759                                                  else Rs232_2.cnt_tm_pre_tx=2;// 2 миллисекунд
   \                     ??run_cont_232_2_18:
   \   000000D6   E002               LDI     R16, 2
   \   000000D8   CFE9               RJMP    ??run_cont_232_2_17
   3760                                                  
   3761                                         //      Rs232_2.vol_tm_tx_out=Rs232_2.vol_tm_tx_out+1;
   3762                                               break;
   3763                                         
   3764                                         case B38400:
   3765                                               UBRR2H=R38400_H;
   \                     ??run_cont_232_2_15:
   \   000000DA   ....               RCALL   ?Subroutine161
   3766                                               UBRR2L=R38400_L;
   \                     ??CrossCallReturnLabel_219:
   \   000000DC   E129               LDI     R18, 25
   \   000000DE   ....               RCALL   ?Subroutine237
   3767                                                                                    
   3768                                               if(Appl_RS232_2.pre_tx!=0)
   \                     ??CrossCallReturnLabel_391:
   \   000000E0   ....               RCALL   ??Subroutine217_0
   \                     ??CrossCallReturnLabel_474:
   \   000000E2   F3C9               BREQ    ??run_cont_232_2_18
   3769                                                    {
   3770                                                    // перехват порта для лафкина
   3771                                                     
   3772                                                    // __disable_interrupt();
   3773                                                    SET_RTS2;
   \                     ??run_cont_232_2_16:
   \   000000E4   91200102           LDS     R18, 258
   \   000000E8   7F2B               ANDI    R18, 0xFB
   \   000000EA   93200102           STS     258, R18
   3774                                                   // __enable_interrupt();
   3775                                                    
   3776                                                    Rs232_2.cnt_tm_pre_tx=Appl_RS232_2.pre_tx;//задержка перед передачей
   \   000000EE   ....               RCALL   ?Subroutine102
   \                     ??CrossCallReturnLabel_129:
   \   000000F0   ....               RCALL   ?Subroutine163
   3777                                                    }
   3778                                                  else Rs232_2.cnt_tm_pre_tx=2;// 2 миллисекунд
   3779                                                  
   3780                                         //      Rs232_2.vol_tm_tx_out=Rs232_2.vol_tm_tx_out+1;
   3781                                               break;       
   3782                                               
   3783                                        default: return(1);
   3784                                      }  
   3785                             
   3786                             
   3787                             
   3788                             
   3789          return(0);
   \                     ??CrossCallReturnLabel_571:
   \   000000F2                      REQUIRE ?Subroutine286
   \   000000F2                      ;               // Fall through to label ?Subroutine286
   3790          }

   \                                 In segment FARCODE, align 2, keep-with-next
   \                     ?Subroutine237:
   \   00000000   932000D4           STS     212, R18
   \   00000004   9508               RET

   \                                 In segment FARCODE, align 2, keep-with-next
   \                     ?Subroutine236:
   \   00000000   930000D2           STS     210, R16
   \                     ??Subroutine236_0:
   \   00000004   910000D2           LDS     R16, 210
   \   00000008   9508               RET

   \                                 In segment FARCODE, align 2, keep-with-next
   \                     ?Subroutine161:
   \   00000000   E020               LDI     R18, 0
   \   00000002   932000D5           STS     213, R18
   \   00000006   9508               RET
   3791          
   3792          
   3793          
   3794          
   3795          
   3796          
   3797          
   3798          
   3799          

   \                                 In segment FARCODE, align 2, keep-with-next
   3800           unsigned char check_ln_conf(unsigned char *buf_rx_ppp,unsigned char offset,unsigned int count_rx_ppp)
   \                     check_ln_conf:
   3801           {
   \   00000000   ....               RCALL   ?Subroutine101
   3802           unsigned int ind;
   3803          
   3804           ind=offset+C1_DATA;
   \                     ??CrossCallReturnLabel_121:
   \   00000002   2F82               MOV     R24, R18
   \   00000004   E090               LDI     R25, 0
   \   00000006   9602               ADIW    R25:R24, 2
   \   00000008   5043               SUBI    R20, 3
   \   0000000A   4050               SBCI    R21, 0
   3805           next_check_ln: 
   3806                         ind=ind+3+*(unsigned int*)&buf_rx_ppp[ind+1]; 
   \                     ??check_ln_conf_0:
   \   0000000C   01F8               MOVW    R31:R30, R17:R16
   \   0000000E   9631               ADIW    R31:R30, 1
   \   00000010   0FE8               ADD     R30, R24
   \   00000012   1FF9               ADC     R31, R25
   \   00000014   81A0               LD      R26, Z
   \   00000016   81B1               LDD     R27, Z+1
   \   00000018   9613               ADIW    R27:R26, 3
   \   0000001A   0F8A               ADD     R24, R26
   \   0000001C   1F9B               ADC     R25, R27
   3807                         if(ind>count_rx_ppp-3)return(1);
   \   0000001E   1748               CP      R20, R24
   \   00000020   0759               CPC     R21, R25
   \   00000022   F410               BRCC    ??check_ln_conf_1
   \   00000024   E001               LDI     R16, 1
   \   00000026   C004               RJMP    ??check_ln_conf_2
   3808                         if(ind==count_rx_ppp-3)return(0);
   \                     ??check_ln_conf_1:
   \   00000028   1784               CP      R24, R20
   \   0000002A   0795               CPC     R25, R21
   \   0000002C   F779               BRNE    ??check_ln_conf_0
   \   0000002E   E000               LDI     R16, 0
   \                     ??check_ln_conf_2:
   \   00000030   ....               RJMP    ?Subroutine286
   3809                         goto next_check_ln;
   3810           } 
   3811          
   3812          
   3813          

   \                                 In segment FARCODE, align 2, keep-with-next
   \                     ?Subroutine308:
   \   00000000   ....               RJMP    ?Subroutine251

   \                                 In segment FARCODE, align 2, keep-with-next
   \                     ?Subroutine305:
   \   00000000   ....               RJMP    ?Subroutine264

   \                                 In segment FARCODE, align 2, keep-with-next
   3814          unsigned int proc_config(unsigned char *buf_rx_ppp,unsigned char offset,unsigned int count_rx_ppp)
   \                     proc_config:
   3815           {
   \   00000000   ........           CALL    ?PROLOGUE16_L09
   \   00000004                      REQUIRE ?Register_R4_is_cg_reg
   \   00000004                      REQUIRE ?Register_R5_is_cg_reg
   \   00000004                      REQUIRE ?Register_R6_is_cg_reg
   \   00000004                      REQUIRE ?Register_R7_is_cg_reg
   \   00000004                      REQUIRE ?Register_R8_is_cg_reg
   \   00000004                      REQUIRE ?Register_R9_is_cg_reg
   \   00000004                      REQUIRE ?Register_R10_is_cg_reg
   \   00000004                      REQUIRE ?Register_R11_is_cg_reg
   \   00000004                      REQUIRE ?Register_R14_is_cg_reg
   \   00000004                      REQUIRE ?Register_R15_is_cg_reg
   \   00000004   976B               SBIW    R29:R28, 27
   \   00000006   8B0F               STD     Y+23, R16
   \   00000008   8F18               STD     Y+24, R17
   \   0000000A   8B2E               STD     Y+22, R18
   \   0000000C   8F49               STD     Y+25, R20
   \   0000000E   8F5A               STD     Y+26, R21
   3816          
   3817           //unsigned char flag_monitor_beg=0;
   3818           unsigned int long old_unix;  
   3819           unsigned int ind,temp,ofs,i;
   3820           unsigned int cnt_bt;
   3821           unsigned char buf[20];
   3822           cnt_bt=0;
   \   00000010   24EE               CLR     R14
   \   00000012   24FF               CLR     R15
   \   00000014   2F82               MOV     R24, R18
   \   00000016   E090               LDI     R25, 0
   \   00000018   9602               ADIW    R25:R24, 2
   \   0000001A   8B8C               STD     Y+20, R24
   \   0000001C   8B9D               STD     Y+21, R25
   3823           ind=offset+C1_DATA;
   3824           next_parametr: 
   3825                         
   3826                         switch(buf_rx_ppp[ind]&0x7f)
   \                     ??proc_config_0:
   \   0000001E   ....               LDI     R26, LOW(buf_tx_232)
   \   00000020   ....               LDI     R27, (buf_tx_232) >> 8
   \   00000022   0DAE               ADD     R26, R14
   \   00000024   1DBF               ADC     R27, R15
   \   00000026   898F               LDD     R24, Y+23
   \   00000028   8D98               LDD     R25, Y+24
   \   0000002A   890E               LDD     R16, Y+22
   \   0000002C   E010               LDI     R17, 0
   \   0000002E   0F80               ADD     R24, R16
   \   00000030   1F91               ADC     R25, R17
   \   00000032   884F               LDD     R4, Y+23
   \   00000034   8C58               LDD     R5, Y+24
   \   00000036   890C               LDD     R16, Y+20
   \   00000038   891D               LDD     R17, Y+21
   \   0000003A   0E40               ADD     R4, R16
   \   0000003C   1E51               ADC     R5, R17
   \   0000003E   ....               LDI     R16, LOW(Appl_seq)
   \   00000040   2E60               MOV     R6, R16
   \   00000042   ....               LDI     R16, (Appl_seq) >> 8
   \   00000044   2E70               MOV     R7, R16
   \   00000046   ....               RCALL   ?Subroutine211
   \                     ??CrossCallReturnLabel_620:
   \   00000048   770F               ANDI    R16, 0x7F
   \   0000004A   ....               LDI     R30, LOW(`?<Jumptable for proc_config>_0`)
   \   0000004C   ....               LDI     R31, (`?<Jumptable for proc_config>_0`) >> 16
   \   0000004E   BFFB               OUT     0x3B, R31
   \   00000050   ....               LDI     R31, HIGH(`?<Jumptable for proc_config>_0`)
   \   00000052   ........           JMP     ?CV_SWITCH_L06
   3827                           {
   3828                           case CONF_VERS:  if((buf_rx_ppp[ind] & 0x80)==0x80)goto bad_com;
   \                     ??proc_config_1:
   \   00000056   ....               RCALL   ?Subroutine211
   \                     ??CrossCallReturnLabel_621:
   \   00000058   FD07               SBRC    R16, 7
   \   0000005A   C304               RJMP    ??proc_config_2
   3829                                              else
   3830                                              {
   3831                                              if(*(unsigned int*)&buf_rx_ppp[ind+1]!=L_RD_CONF_VERS)goto bad_com;   
   \   0000005C   ....               RCALL   ??Subroutine193_0
   \                     ??CrossCallReturnLabel_632:
   \   0000005E   F009               BREQ    $+2+2
   \   00000060   C301               RJMP    ??proc_config_2
   3832                                              }
   3833                                             buf_tx_232[TR_OP_DATA+C1_DATA+cnt_bt]=buf_rx_ppp[ind];  
   \   00000062   ....               RCALL   ?Subroutine7
   3834                                             buf_tx_232[TR_OP_DATA+C1_DATA+3+cnt_bt]=0x00; //OK  
   3835                                             buf[0]=ret_version(0,&buf_tx_232[TR_OP_DATA+C1_DATA+4+cnt_bt]);
   \                     ??CrossCallReturnLabel_793:
   \   00000064   ........           CALL    ret_version
   \   00000068   8308               ST      Y, R16
   3836                                             *(unsigned int*)&buf_tx_232[TR_OP_DATA+C1_DATA+1+cnt_bt]=buf[0]+1;
   \   0000006A   E010               LDI     R17, 0
   \   0000006C   ....               RCALL   ?Subroutine239
   \                     ??CrossCallReturnLabel_392:
   \   0000006E   01FD               MOVW    R31:R30, R27:R26
   \   00000070   A705               STD     Z+45, R16
   \   00000072   A716               STD     Z+46, R17
   3837                                            cnt_bt=cnt_bt+buf[0]+1+3;
   \   00000074   8188               LD      R24, Y
   \   00000076   E090               LDI     R25, 0
   \                     ??proc_config_3:
   \   00000078   9604               ADIW    R25:R24, 4
   \   0000007A   0EE8               ADD     R14, R24
   \   0000007C   1EF9               ADC     R15, R25
   \   0000007E   C2FD               RJMP    ??proc_config_4
   3838                                            break;
   3839                           
   3840                           case CONF_MAP:  if((buf_rx_ppp[ind] & 0x80)==0x80)goto bad_com;
   \                     ??proc_config_5:
   \   00000080   ....               RCALL   ?Subroutine211
   \                     ??CrossCallReturnLabel_622:
   \   00000082   FD07               SBRC    R16, 7
   \   00000084   C2EF               RJMP    ??proc_config_2
   3841                                              else
   3842                                              {
   3843                                              if(*(unsigned int*)&buf_rx_ppp[ind+1]!=L_RD_CONF_MAP)goto bad_com;   
   \   00000086   ....               RCALL   ??Subroutine193_0
   \                     ??CrossCallReturnLabel_633:
   \   00000088   F009               BREQ    $+2+2
   \   0000008A   C2EC               RJMP    ??proc_config_2
   3844                                              }
   3845                                             buf_tx_232[TR_OP_DATA+C1_DATA+cnt_bt]=buf_rx_ppp[ind];  
   \   0000008C   ....               RCALL   ?Subroutine7
   3846                                             buf_tx_232[TR_OP_DATA+C1_DATA+3+cnt_bt]=0x00; //OK  
   3847                                             buf[0]=ret_version(1,&buf_tx_232[TR_OP_DATA+C1_DATA+4+cnt_bt]);
   \                     ??CrossCallReturnLabel_794:
   \   0000008E   E001               LDI     R16, 1
   \   00000090   CFE9               RJMP    ??CrossCallReturnLabel_793
   3848                                             *(unsigned int*)&buf_tx_232[TR_OP_DATA+C1_DATA+1+cnt_bt]=buf[0]+1;
   3849                                            cnt_bt=cnt_bt+buf[0]+1+3;
   3850                                            break;
   3851                           
   3852                           
   3853                          case CONF_OZU:  if((buf_rx_ppp[ind] & 0x80)==0x80)goto bad_com;
   \                     ??proc_config_6:
   \   00000092   ....               RCALL   ?Subroutine211
   \                     ??CrossCallReturnLabel_623:
   \   00000094   FD07               SBRC    R16, 7
   \   00000096   C2E6               RJMP    ??proc_config_2
   3854                                              else
   3855                                              {
   3856                                              if(*(unsigned int*)&buf_rx_ppp[ind+1]!=L_RD_CONF_OZU)goto bad_com;   
   \   00000098   ....               RCALL   ??Subroutine193_0
   \                     ??CrossCallReturnLabel_634:
   \   0000009A   F009               BREQ    $+2+2
   \   0000009C   C2E3               RJMP    ??proc_config_2
   3857                                              }
   3858                                             buf_tx_232[TR_OP_DATA+C1_DATA+cnt_bt]=buf_rx_ppp[ind];  
   \   0000009E   ....               RCALL   ?Subroutine7
   3859                                             buf_tx_232[TR_OP_DATA+C1_DATA+3+cnt_bt]=0x00; //OK  
   3860                                             buf[0]=ret_version(2,&buf_tx_232[TR_OP_DATA+C1_DATA+4+cnt_bt]);
   \                     ??CrossCallReturnLabel_795:
   \   000000A0   E002               LDI     R16, 2
   \   000000A2   CFE0               RJMP    ??CrossCallReturnLabel_793
   3861                                             *(unsigned int*)&buf_tx_232[TR_OP_DATA+C1_DATA+1+cnt_bt]=buf[0]+1;
   3862                                            cnt_bt=cnt_bt+buf[0]+1+3;
   3863                                            break;
   3864                          
   3865                           case CONF_TM_NAT:  
   3866                           
   3867                                            
   3868                                            if((buf_rx_ppp[offset+C1_DATA] & 0x80)==0x80)
   \                     ??proc_config_7:
   \   000000A4   ....               RCALL   ?Subroutine93
   \                     ??CrossCallReturnLabel_681:
   \   000000A6   FF07               SBRS    R16, 7
   \   000000A8   C00F               RJMP    ??proc_config_8
   3869                                              {
   3870                                              if(*(unsigned int*)&buf_rx_ppp[ind+1]!=L_CONF_TM_NAT)goto bad_com;
   \   000000AA   ....               RCALL   ?Subroutine157
   \                     ??CrossCallReturnLabel_669:
   \   000000AC   F009               BREQ    $+2+2
   \   000000AE   C2DA               RJMP    ??proc_config_2
   3871                                              //запись
   3872                                              temp=*(unsigned int*)&buf_rx_ppp[ind+3];
   \   000000B0   ....               RCALL   ?Subroutine238
   3873                                              
   3874                                              if (temp<10){buf_tx_232[TR_OP_DATA+C1_DATA+3+cnt_bt]=0x01;goto nocorr_com;}
   \                     ??CrossCallReturnLabel_658:
   \   000000B2   F410               BRCC    ??proc_config_9
   \                     ??proc_config_10:
   \   000000B4   E001               LDI     R16, 1
   \   000000B6   C2D7               RJMP    ??proc_config_11
   3875                                              
   3876                                              
   3877                                              Control.vol_nat=temp;
   \                     ??proc_config_9:
   \   000000B8   ....               RCALL   ?Subroutine305
   \                     ??CrossCallReturnLabel_767:
   \   000000BA   A384               STD     Z+36, R24
   \   000000BC   A395               STD     Z+37, R25
   3878                                              RdFromFleshToArr(A_C_PAR,&buf[0],L_C_PAR); 
   \   000000BE   ....               RCALL   ?Subroutine60
   3879                                              *(unsigned int*)&buf[OFS_NAT]=temp;
   \                     ??CrossCallReturnLabel_923:
   \   000000C0   8388               ST      Y, R24
   \   000000C2   8399               STD     Y+1, R25
   3880                                              *(unsigned int*)&buf[OFS_C_PAR_CRC]=crc_m1(&buf[0],L_C_PAR-2,0xffff);
   \   000000C4   ....               RCALL   ?Subroutine32
   3881                                              WrArrayToFlesh(A_C_PAR, &buf[0],L_C_PAR,0,0);
   3882                                              prov_ozu=crc_ozu();
   \                     ??CrossCallReturnLabel_409:
   \   000000C6   C003               RJMP    ??proc_config_12
   3883                                              }
   3884                                              else {if(*(unsigned int*)&buf_rx_ppp[ind+1]!=(L_CONF_TM_NAT-2))goto bad_com;}
   \                     ??proc_config_8:
   \   000000C8   ....               RCALL   ??Subroutine193_0
   \                     ??CrossCallReturnLabel_635:
   \   000000CA   F009               BREQ    $+2+2
   \   000000CC   C2CB               RJMP    ??proc_config_2
   3885                                               
   3886          
   3887                                              buf_tx_232[TR_OP_DATA+C1_DATA+cnt_bt]=buf_rx_ppp[ind];  //чтение
   \                     ??proc_config_12:
   \   000000CE   ....               RCALL   ?Subroutine39
   3888                                              *(unsigned int*)&buf_tx_232[TR_OP_DATA+C1_DATA+1+cnt_bt]=L_CONF_TM_NAT+1;   
   3889                                              buf_tx_232[TR_OP_DATA+C1_DATA+3+cnt_bt]=0x00; //OK  
   3890                                              RdFromFleshToArr(A_C_PAR+OFS_NAT,&buf_tx_232[TR_OP_DATA+C1_DATA+4+cnt_bt],2);
   \                     ??CrossCallReturnLabel_579:
   \   000000D0   E906               LDI     R16, 150
   \                     ??proc_config_13:
   \   000000D2   ....               RCALL   ??Subroutine290_0
   3891                                              
   3892                                              cnt_bt=cnt_bt+L_CONF_TM_NAT+1+3;
   \                     ??CrossCallReturnLabel_910:
   \   000000D4   E006               LDI     R16, 6
   \                     ??proc_config_14:
   \   000000D6   0EE0               ADD     R14, R16
   \   000000D8   E000               LDI     R16, 0
   \   000000DA   1EF0               ADC     R15, R16
   \   000000DC   C2CE               RJMP    ??proc_config_4
   3893                                            break;
   3894                             
   3895                             case CONF_TM_CC:  
   3896                           
   3897                                            
   3898                                            if((buf_rx_ppp[offset+C1_DATA] & 0x80)==0x80)
   \                     ??proc_config_15:
   \   000000DE   ....               RCALL   ?Subroutine93
   \                     ??CrossCallReturnLabel_682:
   \   000000E0   FF07               SBRS    R16, 7
   \   000000E2   C00D               RJMP    ??proc_config_16
   3899                                              {
   3900                                              if(*(unsigned int*)&buf_rx_ppp[ind+1]!=L_CONF_TM_CC)goto bad_com;
   \   000000E4   ....               RCALL   ?Subroutine157
   \                     ??CrossCallReturnLabel_670:
   \   000000E6   F009               BREQ    $+2+2
   \   000000E8   C2BD               RJMP    ??proc_config_2
   3901                                              //запись
   3902                                              temp=*(unsigned int*)&buf_rx_ppp[ind+3];
   \   000000EA   ....               RCALL   ?Subroutine238
   3903                                              
   3904                                              if (temp<10){buf_tx_232[TR_OP_DATA+C1_DATA+3+cnt_bt]=0x01;goto nocorr_com;}
   \                     ??CrossCallReturnLabel_659:
   \   000000EC   F318               BRCS    ??proc_config_10
   3905                                              
   3906                                              Control.vol_link=temp;
   \   000000EE   ....               RCALL   ?Subroutine305
   \                     ??CrossCallReturnLabel_768:
   \   000000F0   A382               STD     Z+34, R24
   \   000000F2   A393               STD     Z+35, R25
   3907                                              RdFromFleshToArr(A_C_PAR,&buf[0],L_C_PAR); 
   \   000000F4   ....               RCALL   ?Subroutine60
   3908                                              *(unsigned int*)&buf[OFS_CCH]=temp;
   \                     ??CrossCallReturnLabel_922:
   \   000000F6   838A               STD     Y+2, R24
   \   000000F8   839B               STD     Y+3, R25
   3909                                              *(unsigned int*)&buf[OFS_C_PAR_CRC]=crc_m1(&buf[0],L_C_PAR-2,0xffff);
   \   000000FA   ....               RCALL   ?Subroutine32
   3910                                              WrArrayToFlesh(A_C_PAR, &buf[0],L_C_PAR,0,0);
   3911                                              prov_ozu=crc_ozu();
   \                     ??CrossCallReturnLabel_410:
   \   000000FC   C003               RJMP    ??proc_config_17
   3912                                              }
   3913                                              else {if(*(unsigned int*)&buf_rx_ppp[ind+1]!=(L_CONF_TM_CC-2))goto bad_com;}
   \                     ??proc_config_16:
   \   000000FE   ....               RCALL   ??Subroutine193_0
   \                     ??CrossCallReturnLabel_636:
   \   00000100   F009               BREQ    $+2+2
   \   00000102   C2B0               RJMP    ??proc_config_2
   3914                                               
   3915          
   3916                                              buf_tx_232[TR_OP_DATA+C1_DATA+cnt_bt]=buf_rx_ppp[ind];  //чтение
   \                     ??proc_config_17:
   \   00000104   ....               RCALL   ?Subroutine39
   3917                                              *(unsigned int*)&buf_tx_232[TR_OP_DATA+C1_DATA+1+cnt_bt]=L_CONF_TM_CC+1;   
   3918                                              buf_tx_232[TR_OP_DATA+C1_DATA+3+cnt_bt]=0x00; //OK  
   3919                                              RdFromFleshToArr(A_C_PAR+OFS_CCH,&buf_tx_232[TR_OP_DATA+C1_DATA+4+cnt_bt],2);
   \                     ??CrossCallReturnLabel_580:
   \   00000106   E908               LDI     R16, 152
   \   00000108   CFE4               RJMP    ??proc_config_13
   3920                                              
   3921                                              cnt_bt=cnt_bt+L_CONF_TM_CC+1+3;
   3922                                            break;
   3923                                            
   3924                                            
   3925                              case CONF_TM_WT :  
   3926                           
   3927                                            
   3928                                            if((buf_rx_ppp[offset+C1_DATA] & 0x80)==0x80)
   \                     ??proc_config_18:
   \   0000010A   ....               RCALL   ?Subroutine93
   \                     ??CrossCallReturnLabel_683:
   \   0000010C   FF07               SBRS    R16, 7
   \   0000010E   C014               RJMP    ??proc_config_19
   3929                                              {
   3930                                              if(*(unsigned int*)&buf_rx_ppp[ind+1]!=L_CONF_TM_WT)goto bad_com;
   \   00000110   ....               RCALL   ?Subroutine157
   \                     ??CrossCallReturnLabel_671:
   \   00000112   F009               BREQ    $+2+2
   \   00000114   C2A7               RJMP    ??proc_config_2
   3931                                              //запись
   3932                                              temp=*(unsigned int*)&buf_rx_ppp[ind+3];
   \   00000116   ....               RCALL   ?Subroutine240
   3933                                               
   3934                                              if (temp<5){buf_tx_232[TR_OP_DATA+C1_DATA+3+cnt_bt]=0x01;goto nocorr_com;}
   \                     ??CrossCallReturnLabel_661:
   \   00000118   F268               BRCS    ??proc_config_10
   3935          
   3936                                              Control.vol_try=temp/Control.vol_waits;
   \   0000011A   018C               MOVW    R17:R16, R25:R24
   \   0000011C   ....               RCALL   ?Subroutine305
   \                     ??CrossCallReturnLabel_769:
   \   0000011E   A146               LDD     R20, Z+38
   \   00000120   A157               LDD     R21, Z+39
   \   00000122   ........           CALL    ?US_DIVMOD_L02
   \   00000126   ....               LDI     R30, LOW(Appl_seq)
   \   00000128   A701               STD     Z+41, R16
   3937                                             
   3938                                              RdFromFleshToArr(A_C_PAR,&buf[0],L_C_PAR); 
   \   0000012A   E04E               LDI     R20, 14
   \   0000012C   ........           CALL    ?Subroutine261
   \                     ??CrossCallReturnLabel_508:
   \   00000130   E906               LDI     R16, 150
   \   00000132   ....               RCALL   ?Subroutine56
   3939                                              *(unsigned int*)&buf[OFS_TM_CH]=temp;
   3940                                              *(unsigned int*)&buf[OFS_C_PAR_CRC]=crc_m1(&buf[0],L_C_PAR-2,0xffff);
   \                     ??CrossCallReturnLabel_54:
   \   00000134   ....               RCALL   ?Subroutine32
   3941                                              WrArrayToFlesh(A_C_PAR, &buf[0],L_C_PAR,0,0);
   3942                                              prov_ozu=crc_ozu();
   \                     ??CrossCallReturnLabel_411:
   \   00000136   C003               RJMP    ??proc_config_20
   3943                                              }
   3944                                              else {if(*(unsigned int*)&buf_rx_ppp[ind+1]!=(L_CONF_TM_WT-2))goto bad_com;}
   \                     ??proc_config_19:
   \   00000138   ....               RCALL   ??Subroutine193_0
   \                     ??CrossCallReturnLabel_637:
   \   0000013A   F009               BREQ    $+2+2
   \   0000013C   C293               RJMP    ??proc_config_2
   3945                                               
   3946          
   3947                                              buf_tx_232[TR_OP_DATA+C1_DATA+cnt_bt]=buf_rx_ppp[ind];  //чтение
   \                     ??proc_config_20:
   \   0000013E   ....               RCALL   ?Subroutine39
   3948                                              *(unsigned int*)&buf_tx_232[TR_OP_DATA+C1_DATA+1+cnt_bt]=L_CONF_TM_WT+1;   
   3949                                              buf_tx_232[TR_OP_DATA+C1_DATA+3+cnt_bt]=0x00; //OK  
   3950                                              RdFromFleshToArr(A_C_PAR+OFS_TM_CH,&buf_tx_232[TR_OP_DATA+C1_DATA+4+cnt_bt],2);
   \                     ??CrossCallReturnLabel_581:
   \   00000140   E90A               LDI     R16, 154
   \   00000142   CFC7               RJMP    ??proc_config_13
   3951                                              
   3952                                              cnt_bt=cnt_bt+L_CONF_TM_WT+1+3;
   3953                                            break;              
   3954          
   3955          
   3956                         case CONF_NUM_CL :  
   3957                           
   3958                                            
   3959                                            if((buf_rx_ppp[offset+C1_DATA] & 0x80)==0x80)
   \                     ??proc_config_21:
   \   00000144   ....               RCALL   ?Subroutine93
   \                     ??CrossCallReturnLabel_684:
   \   00000146   FF07               SBRS    R16, 7
   \   00000148   C00F               RJMP    ??proc_config_22
   3960                                              {
   3961                                              if(*(unsigned int*)&buf_rx_ppp[ind+1]!=L_CONF_NUM_CL)goto bad_com;
   \   0000014A   ....               RCALL   ?Subroutine157
   \                     ??CrossCallReturnLabel_672:
   \   0000014C   F009               BREQ    $+2+2
   \   0000014E   C28A               RJMP    ??proc_config_2
   3962                                              //запись
   3963                                              temp=*(unsigned int*)&buf_rx_ppp[ind+3];
   \   00000150   ....               RCALL   ?Subroutine241
   3964                                               
   3965                                              if (temp<3){buf_tx_232[TR_OP_DATA+C1_DATA+3+cnt_bt]=0x01;goto nocorr_com;}
   \                     ??CrossCallReturnLabel_663:
   \   00000152   F408               BRCC    $+2+2
   \   00000154   CFAF               RJMP    ??proc_config_10
   3966          
   3967                                              num_seq_cl=temp;
   \   00000156   ....               RCALL   ?Subroutine305
   \                     ??CrossCallReturnLabel_770:
   \   00000158   AF82               STD     Z+58, R24
   \   0000015A   AF93               STD     Z+59, R25
   3968                                              
   3969                                              RdFromFleshToArr(A_SEQ_PAR,&buf[0],L_SEQ_PAR); 
   \   0000015C   ....               RCALL   ?Subroutine131
   \                     ??CrossCallReturnLabel_176:
   \   0000015E   ....               RCALL   ?Subroutine290
   3970                                              *(unsigned int*)&buf[OFS_NUM_CL]=temp;
   \                     ??CrossCallReturnLabel_917:
   \   00000160   8389               STD     Y+1, R24
   \   00000162   839A               STD     Y+2, R25
   3971                                              *(unsigned int*)&buf[OFS_SEQ_PAR_CRC]=crc_m1(&buf[0],L_SEQ_PAR-2,0xffff);
   \   00000164   ....               RCALL   ?Subroutine33
   3972                                              WrArrayToFlesh(A_SEQ_PAR, &buf[0],L_SEQ_PAR,0,0);
   3973                                              prov_ozu=crc_ozu();
   \                     ??CrossCallReturnLabel_415:
   \   00000166   C003               RJMP    ??proc_config_23
   3974                                              }
   3975                                              else {if(*(unsigned int*)&buf_rx_ppp[ind+1]!=(L_CONF_NUM_CL-2))goto bad_com;}
   \                     ??proc_config_22:
   \   00000168   ....               RCALL   ??Subroutine193_0
   \                     ??CrossCallReturnLabel_638:
   \   0000016A   F009               BREQ    $+2+2
   \   0000016C   C27B               RJMP    ??proc_config_2
   3976                                               
   3977          
   3978                                              buf_tx_232[TR_OP_DATA+C1_DATA+cnt_bt]=buf_rx_ppp[ind];  //чтение
   \                     ??proc_config_23:
   \   0000016E   ....               RCALL   ?Subroutine39
   3979                                              *(unsigned int*)&buf_tx_232[TR_OP_DATA+C1_DATA+1+cnt_bt]=L_CONF_NUM_CL+1;   
   3980                                              buf_tx_232[TR_OP_DATA+C1_DATA+3+cnt_bt]=0x00; //OK  
   3981                                              RdFromFleshToArr(A_SEQ_PAR+OFS_NUM_CL,&buf_tx_232[TR_OP_DATA+C1_DATA+4+cnt_bt],2);
   \                     ??CrossCallReturnLabel_582:
   \   00000170   EA05               LDI     R16, 165
   \   00000172   CFAF               RJMP    ??proc_config_13
   3982                                              
   3983                                              cnt_bt=cnt_bt+L_CONF_NUM_CL+1+3;
   3984                                            break;   
   3985                         case CONF_TM_VZ :  
   3986                           
   3987                                            
   3988                                            if((buf_rx_ppp[offset+C1_DATA] & 0x80)==0x80)
   \                     ??proc_config_24:
   \   00000174   ....               RCALL   ?Subroutine93
   \                     ??CrossCallReturnLabel_685:
   \   00000176   FF07               SBRS    R16, 7
   \   00000178   C011               RJMP    ??proc_config_25
   3989                                              {
   3990                                              if(*(unsigned int*)&buf_rx_ppp[ind+1]!=L_CONF_TM_VZ)goto bad_com;
   \   0000017A   ....               RCALL   ?Subroutine137
   \                     ??CrossCallReturnLabel_665:
   \   0000017C   F009               BREQ    $+2+2
   \   0000017E   C272               RJMP    ??proc_config_2
   3991                                              //запись
   3992                                              temp=*(unsigned int*)&buf_rx_ppp[ind+3];
   \   00000180   ....               RCALL   ?Subroutine103
   3993                                               
   3994                                              if (temp<1){buf_tx_232[TR_OP_DATA+C1_DATA+3+cnt_bt]=0x01;goto nocorr_com;}
   \                     ??CrossCallReturnLabel_130:
   \   00000182   F409               BRNE    $+2+2
   \   00000184   CF97               RJMP    ??proc_config_10
   3995          
   3996                                              Appl_seq.vol_tm_vzat=temp;
   \   00000186   ....               RCALL   ?Subroutine305
   \                     ??CrossCallReturnLabel_771:
   \   00000188   8B82               STD     Z+18, R24
   \   0000018A   8B93               STD     Z+19, R25
   3997                                              
   3998                                              RdFromFleshToArr(A_SEQ_PAR,&buf[0],L_SEQ_PAR); 
   \   0000018C   E04B               LDI     R20, 11
   \   0000018E   019E               MOVW    R19:R18, R29:R28
   \   00000190   EA04               LDI     R16, 164
   \   00000192   ....               RCALL   ?Subroutine290
   3999                                              *(unsigned int*)&buf[OFS_TM_VZ]=temp;
   \                     ??CrossCallReturnLabel_916:
   \   00000194   838B               STD     Y+3, R24
   \   00000196   839C               STD     Y+4, R25
   4000                                              *(unsigned int*)&buf[OFS_SEQ_PAR_CRC]=crc_m1(&buf[0],L_SEQ_PAR-2,0xffff);
   \   00000198   ....               RCALL   ?Subroutine33
   4001                                              WrArrayToFlesh(A_SEQ_PAR, &buf[0],L_SEQ_PAR,0,0);
   4002                                              prov_ozu=crc_ozu();
   \                     ??CrossCallReturnLabel_416:
   \   0000019A   C003               RJMP    ??proc_config_26
   4003                                              }
   4004                                              else {if(*(unsigned int*)&buf_rx_ppp[ind+1]!=(L_CONF_TM_VZ-2))goto bad_com;}
   \                     ??proc_config_25:
   \   0000019C   ....               RCALL   ??Subroutine193_0
   \                     ??CrossCallReturnLabel_639:
   \   0000019E   F009               BREQ    $+2+2
   \   000001A0   C261               RJMP    ??proc_config_2
   4005                                               
   4006          
   4007                                              buf_tx_232[TR_OP_DATA+C1_DATA+cnt_bt]=buf_rx_ppp[ind];  //чтение
   \                     ??proc_config_26:
   \   000001A2   ....               RCALL   ?Subroutine39
   4008                                              *(unsigned int*)&buf_tx_232[TR_OP_DATA+C1_DATA+1+cnt_bt]=L_CONF_TM_VZ+1;   
   4009                                              buf_tx_232[TR_OP_DATA+C1_DATA+3+cnt_bt]=0x00; //OK  
   4010                                              RdFromFleshToArr(A_SEQ_PAR+OFS_TM_VZ,&buf_tx_232[TR_OP_DATA+C1_DATA+4+cnt_bt],2);
   \                     ??CrossCallReturnLabel_583:
   \   000001A4   EA07               LDI     R16, 167
   \   000001A6   CF95               RJMP    ??proc_config_13
   4011                                              
   4012                                              cnt_bt=cnt_bt+L_CONF_TM_VZ+1+3;
   4013                                            break;   
   4014          
   4015                         case CONF_TM_CL :  
   4016                           
   4017                                            
   4018                                            if((buf_rx_ppp[offset+C1_DATA] & 0x80)==0x80)
   \                     ??proc_config_27:
   \   000001A8   ....               RCALL   ?Subroutine93
   \                     ??CrossCallReturnLabel_686:
   \   000001AA   FF07               SBRS    R16, 7
   \   000001AC   C00F               RJMP    ??proc_config_28
   4019                                              {
   4020                                              if(*(unsigned int*)&buf_rx_ppp[ind+1]!=L_CONF_TM_CL)goto bad_com;
   \   000001AE   ....               RCALL   ?Subroutine157
   \                     ??CrossCallReturnLabel_673:
   \   000001B0   F009               BREQ    $+2+2
   \   000001B2   C258               RJMP    ??proc_config_2
   4021                                              //запись
   4022                                              temp=*(unsigned int*)&buf_rx_ppp[ind+3];
   \   000001B4   ....               RCALL   ?Subroutine240
   4023                                               
   4024                                              if (temp<5){buf_tx_232[TR_OP_DATA+C1_DATA+3+cnt_bt]=0x01;goto nocorr_com;}
   \                     ??CrossCallReturnLabel_662:
   \   000001B6   F408               BRCC    $+2+2
   \   000001B8   CF7D               RJMP    ??proc_config_10
   4025          
   4026                                              Appl_seq.vol_cntr_cl=temp;
   \   000001BA   ....               RCALL   ?Subroutine305
   \                     ??CrossCallReturnLabel_772:
   \   000001BC   8F80               STD     Z+24, R24
   \   000001BE   8F91               STD     Z+25, R25
   4027                                              
   4028                                              RdFromFleshToArr(A_SEQ_PAR,&buf[0],L_SEQ_PAR); 
   \   000001C0   ....               RCALL   ?Subroutine131
   \                     ??CrossCallReturnLabel_177:
   \   000001C2   ....               RCALL   ?Subroutine290
   4029                                              *(unsigned int*)&buf[OFS_TM_CL]=temp;
   \                     ??CrossCallReturnLabel_915:
   \   000001C4   838D               STD     Y+5, R24
   \   000001C6   839E               STD     Y+6, R25
   4030                                              *(unsigned int*)&buf[OFS_SEQ_PAR_CRC]=crc_m1(&buf[0],L_SEQ_PAR-2,0xffff);
   \   000001C8   ....               RCALL   ?Subroutine33
   4031                                              WrArrayToFlesh(A_SEQ_PAR, &buf[0],L_SEQ_PAR,0,0);
   4032                                              prov_ozu=crc_ozu();
   \                     ??CrossCallReturnLabel_417:
   \   000001CA   C003               RJMP    ??proc_config_29
   4033                                              }
   4034                                              else {if(*(unsigned int*)&buf_rx_ppp[ind+1]!=(L_CONF_TM_CL-2))goto bad_com;}
   \                     ??proc_config_28:
   \   000001CC   ....               RCALL   ??Subroutine193_0
   \                     ??CrossCallReturnLabel_640:
   \   000001CE   F009               BREQ    $+2+2
   \   000001D0   C249               RJMP    ??proc_config_2
   4035                                               
   4036          
   4037                                              buf_tx_232[TR_OP_DATA+C1_DATA+cnt_bt]=buf_rx_ppp[ind];  //чтение
   \                     ??proc_config_29:
   \   000001D2   ....               RCALL   ?Subroutine39
   4038                                              *(unsigned int*)&buf_tx_232[TR_OP_DATA+C1_DATA+1+cnt_bt]=L_CONF_TM_CL+1;   
   4039                                              buf_tx_232[TR_OP_DATA+C1_DATA+3+cnt_bt]=0x00; //OK  
   4040                                              RdFromFleshToArr(A_SEQ_PAR+OFS_TM_CL,&buf_tx_232[TR_OP_DATA+C1_DATA+4+cnt_bt],2);
   \                     ??CrossCallReturnLabel_584:
   \   000001D4   EA09               LDI     R16, 169
   \   000001D6   CF7D               RJMP    ??proc_config_13
   4041                                              
   4042                                              cnt_bt=cnt_bt+L_CONF_TM_CL+1+3;
   4043                                            break;   
   4044                       
   4045                       case CONF_DES_OHR :  
   4046                           
   4047                                            
   4048                                            if((buf_rx_ppp[offset+C1_DATA] & 0x80)==0x80)
   \                     ??proc_config_30:
   \   000001D8   ....               RCALL   ?Subroutine93
   \                     ??CrossCallReturnLabel_687:
   \   000001DA   FF07               SBRS    R16, 7
   \   000001DC   C014               RJMP    ??proc_config_31
   4049                                              {
   4050                                              if(*(unsigned int*)&buf_rx_ppp[ind+1]!=L_CONF_DES_OHR)goto bad_com;
   \   000001DE   ....               RCALL   ?Subroutine200
   \                     ??CrossCallReturnLabel_303:
   \   000001E0   3001               CPI     R16, 1
   \   000001E2   4010               SBCI    R17, 0
   \   000001E4   F009               BREQ    $+2+2
   \   000001E6   C23E               RJMP    ??proc_config_2
   4051                                              //запись
   4052                                              temp=buf_rx_ppp[ind+3];
   \   000001E8   8183               LDD     R24, Z+3
   4053                                               
   4054                                              if (temp>2){buf_tx_232[TR_OP_DATA+C1_DATA+3+cnt_bt]=0x01;goto nocorr_com;}
   \   000001EA   3083               CPI     R24, 3
   \   000001EC   F008               BRCS    $+2+2
   \   000001EE   CF62               RJMP    ??proc_config_10
   4055          
   4056                                              Appl_seq_des=temp;
   \   000001F0   E31E               LDI     R17, 62
   \   000001F2   0E61               ADD     R6, R17
   \   000001F4   E010               LDI     R17, 0
   \   000001F6   1E71               ADC     R7, R17
   \   000001F8   01F3               MOVW    R31:R30, R7:R6
   \   000001FA   8380               ST      Z, R24
   4057                                              
   4058                                              RdFromFleshToArr(A_SEQ_PAR,&buf[0],L_SEQ_PAR); 
   \   000001FC   ....               RCALL   ?Subroutine131
   \                     ??CrossCallReturnLabel_178:
   \   000001FE   ....               RCALL   ??Subroutine290_0
   4059                                              buf[OFS_DES_SEQ]=temp;
   \                     ??CrossCallReturnLabel_909:
   \   00000200   8388               ST      Y, R24
   4060                                              *(unsigned int*)&buf[OFS_SEQ_PAR_CRC]=crc_m1(&buf[0],L_SEQ_PAR-2,0xffff);
   \   00000202   ....               RCALL   ?Subroutine26
   4061                                              WrArrayToFlesh(A_SEQ_PAR, &buf[0],L_SEQ_PAR,0,0);
   4062                                              prov_ozu=crc_ozu();
   4063                                              
   4064                                              monitor_beg_state_seq(1);
   \                     ??CrossCallReturnLabel_37:
   \   00000204   C003               RJMP    ??proc_config_32
   4065                                              /*
   4066                                              if(Appl_seq_des!=1)
   4067                                              { 
   4068                                                if(flag_monitor_beg==0)
   4069                                                 {
   4070                                                  flag_monitor_beg=1; 
   4071                                                  monitor_beg_state_seq(1);
   4072                                                 }
   4073                                              }
   4074                                              */
   4075                                                
   4076                                              }
   4077                                              else {if(*(unsigned int*)&buf_rx_ppp[ind+1]!=(L_CONF_DES_OHR-1))goto bad_com;}
   \                     ??proc_config_31:
   \   00000206   ....               RCALL   ??Subroutine193_0
   \                     ??CrossCallReturnLabel_641:
   \   00000208   F009               BREQ    $+2+2
   \   0000020A   C22C               RJMP    ??proc_config_2
   4078                                               
   4079          
   4080                                              buf_tx_232[TR_OP_DATA+C1_DATA+cnt_bt]=buf_rx_ppp[ind];  //чтение
   \                     ??proc_config_32:
   \   0000020C   01F2               MOVW    R31:R30, R5:R4
   \   0000020E   ....               RCALL   ?Subroutine29
   4081                                              *(unsigned int*)&buf_tx_232[TR_OP_DATA+C1_DATA+1+cnt_bt]=L_CONF_DES_OHR+1;   
   4082                                              buf_tx_232[TR_OP_DATA+C1_DATA+3+cnt_bt]=0x00; //OK  
   4083                                              RdFromFleshToArr(A_SEQ_PAR+OFS_DES_SEQ,&buf_tx_232[TR_OP_DATA+C1_DATA+4+cnt_bt],1);
   \                     ??CrossCallReturnLabel_442:
   \   00000210   ........           CALL    ?Subroutine130
   \                     ??CrossCallReturnLabel_174:
   \   00000214   96D0               ADIW    R27:R26, 48
   \   00000216   019D               MOVW    R19:R18, R27:R26
   \   00000218   EA04               LDI     R16, 164
   \   0000021A   ....               RCALL   ??Subroutine290_0
   4084                                              
   4085                                              cnt_bt=cnt_bt+L_CONF_DES_OHR+1+3;
   \                     ??CrossCallReturnLabel_908:
   \   0000021C   E005               LDI     R16, 5
   \   0000021E   CF5B               RJMP    ??proc_config_14
   4086                                            break;  
   4087          
   4088          
   4089                           case CONF_NUM_SELF :  
   4090                           
   4091                                            
   4092                                            if((buf_rx_ppp[offset+C1_DATA] & 0x80)==0x80)
   \                     ??proc_config_33:
   \   00000220   ....               RCALL   ?Subroutine93
   \                     ??CrossCallReturnLabel_688:
   \   00000222   FF07               SBRS    R16, 7
   \   00000224   C010               RJMP    ??proc_config_34
   4093                                              {
   4094                                              if(*(unsigned int*)&buf_rx_ppp[ind+1]!=L_CONF_NUM_SELF)goto bad_com;
   \   00000226   ....               RCALL   ?Subroutine157
   \                     ??CrossCallReturnLabel_674:
   \   00000228   F009               BREQ    $+2+2
   \   0000022A   C21C               RJMP    ??proc_config_2
   4095                                              //запись
   4096                                              temp=*(unsigned int*)&buf_rx_ppp[ind+3];
   \   0000022C   ....               RCALL   ?Subroutine241
   4097                                               
   4098                                              if (temp<3){buf_tx_232[TR_OP_DATA+C1_DATA+3+cnt_bt]=0x01;goto nocorr_com;}
   \                     ??CrossCallReturnLabel_664:
   \   0000022E   F408               BRCC    $+2+2
   \   00000230   CF41               RJMP    ??proc_config_10
   4099                                               
   4100                                              fl_rewrite.num_self=1;  
   \   00000232   ....               RCALL   ?Subroutine244
   \                     ??CrossCallReturnLabel_403:
   \   00000234   8100               LD      R16, Z
   \   00000236   6004               ORI     R16, 0x04
   \   00000238   8300               ST      Z, R16
   4101                                              
   4102                                              //WrArrayToFlesh(ABUF_NUM,&buf_rx_ppp[ind+3],L_CONF_NUM_SELF,0,0);                                  
   4103                                             // RdFromFleshToArr(ABUF_NUM,&buf_tx_232[TR_OP_DATA+C1_DATA+4+cnt_bt],2);
   4104                                                                                                        
   4105                                              RdFromFleshToArr(A_IP_PAR,&buf[0],L_IP_PAR); 
   \   0000023A   ........           CALL    ?Subroutine133
   \                     ??CrossCallReturnLabel_511:
   \   0000023E   E80C               LDI     R16, 140
   \   00000240   ....               RCALL   ?Subroutine57
   4106                                              *(unsigned int*)&buf[OFS_NUM]=temp;
   4107                                              *(unsigned int*)&buf[OFS_IP_PAR_CRC]=crc_m1(&buf[0],L_IP_PAR-2,0xffff);
   \                     ??CrossCallReturnLabel_56:
   \   00000242   ....               RCALL   ?Subroutine35
   4108                                              WrArrayToFlesh(A_IP_PAR, &buf[0],L_IP_PAR,0,0);
   \                     ??CrossCallReturnLabel_900:
   \   00000244   C003               RJMP    ??proc_config_35
   4109                                            //  prov_ozu=crc_ozu();
   4110                                              
   4111                                              }
   4112                                              else if(*(unsigned int*)&buf_rx_ppp[ind+1]!=(L_CONF_NUM_SELF-2))goto bad_com;
   \                     ??proc_config_34:
   \   00000246   ....               RCALL   ??Subroutine193_0
   \                     ??CrossCallReturnLabel_642:
   \   00000248   F009               BREQ    $+2+2
   \   0000024A   C20C               RJMP    ??proc_config_2
   4113                                                   
   4114          
   4115                                              RdFromFleshToArr(A_IP_PAR+OFS_NUM,&buf_tx_232[TR_OP_DATA+C1_DATA+4+cnt_bt],2);
   \                     ??proc_config_35:
   \   0000024C   ....               RCALL   ?Subroutine134
   \                     ??CrossCallReturnLabel_785:
   \   0000024E   E902               LDI     R16, 146
   \                     ??proc_config_36:
   \   00000250   ....               RCALL   ?Subroutine50
   4116                                              buf_tx_232[TR_OP_DATA+C1_DATA+cnt_bt]=buf_rx_ppp[ind];  //чтение
   4117                                              *(unsigned int*)&buf_tx_232[TR_OP_DATA+C1_DATA+1+cnt_bt]=L_CONF_NUM_SELF+1;   
   \                     ??CrossCallReturnLabel_546:
   \   00000252   E003               LDI     R16, 3
   \   00000254   ....               RCALL   ?Subroutine252
   4118                                              buf_tx_232[TR_OP_DATA+C1_DATA+3+cnt_bt]=0x00; //OK  
   4119                                              
   4120                                              
   4121                                              cnt_bt=cnt_bt+L_CONF_NUM_SELF+1+3;
   \                     ??CrossCallReturnLabel_444:
   \   00000256   E006               LDI     R16, 6
   \   00000258   C20E               RJMP    ??proc_config_37
   4122                                            break;   
   4123          
   4124                            case CONF_UDP :  
   4125                           
   4126                                            
   4127                                            if((buf_rx_ppp[offset+C1_DATA] & 0x80)==0x80)
   \                     ??proc_config_38:
   \   0000025A   ....               RCALL   ?Subroutine93
   \                     ??CrossCallReturnLabel_689:
   \   0000025C   FF07               SBRS    R16, 7
   \   0000025E   C010               RJMP    ??proc_config_39
   4128                                              {
   4129                                              if(*(unsigned int*)&buf_rx_ppp[ind+1]!=L_CONF_UDP)goto bad_com;
   \   00000260   ....               RCALL   ?Subroutine137
   \                     ??CrossCallReturnLabel_666:
   \   00000262   F009               BREQ    $+2+2
   \   00000264   C1FF               RJMP    ??proc_config_2
   4130                                             
   4131                                             
   4132                                              //запись
   4133                                              fl_rewrite.udp=1;
   \   00000266   ....               RCALL   ?Subroutine244
   \                     ??CrossCallReturnLabel_404:
   \   00000268   8100               LD      R16, Z
   \   0000026A   6002               ORI     R16, 0x02
   \   0000026C   8300               ST      Z, R16
   4134                                              temp=*(unsigned int*)&buf_rx_ppp[ind+3];
   \   0000026E   01F2               MOVW    R31:R30, R5:R4
   \   00000270   8183               LDD     R24, Z+3
   \   00000272   8194               LDD     R25, Z+4
   4135                                             // WrArrayToFlesh(ABUF_PORT, &buf_rx_ppp[ind+3],L_CONF_UDP,0,0);
   4136                                             // RdFromFleshToArr(ABUF_PORT,&buf_tx_232[TR_OP_DATA+C1_DATA+4+cnt_bt],2);
   4137                                              
   4138                                              RdFromFleshToArr(A_IP_PAR,&buf[0],L_IP_PAR); 
   \   00000274   E04A               LDI     R20, 10
   \   00000276   019E               MOVW    R19:R18, R29:R28
   \   00000278   E80C               LDI     R16, 140
   \   0000027A   ....               RCALL   ?Subroutine56
   4139                                              *(unsigned int*)&buf[OFS_PORT]=temp;
   4140                                              *(unsigned int*)&buf[OFS_IP_PAR_CRC]=crc_m1(&buf[0],L_IP_PAR-2,0xffff);
   \                     ??CrossCallReturnLabel_55:
   \   0000027C   ....               RCALL   ?Subroutine35
   4141                                              WrArrayToFlesh(A_IP_PAR, &buf[0],L_IP_PAR,0,0);
   \                     ??CrossCallReturnLabel_899:
   \   0000027E   C003               RJMP    ??proc_config_40
   4142                                              
   4143                                              }
   4144                                              else if(*(unsigned int*)&buf_rx_ppp[ind+1]!=(L_CONF_UDP-2))goto bad_com;
   \                     ??proc_config_39:
   \   00000280   ....               RCALL   ??Subroutine193_0
   \                     ??CrossCallReturnLabel_643:
   \   00000282   F009               BREQ    $+2+2
   \   00000284   C1EF               RJMP    ??proc_config_2
   4145                                                
   4146          
   4147                                               
   4148                                              RdFromFleshToArr(A_IP_PAR+OFS_PORT,&buf_tx_232[TR_OP_DATA+C1_DATA+4+cnt_bt],2);
   \                     ??proc_config_40:
   \   00000286   ....               RCALL   ?Subroutine134
   \                     ??CrossCallReturnLabel_786:
   \   00000288   E900               LDI     R16, 144
   \   0000028A   CFE2               RJMP    ??proc_config_36
   4149                                              buf_tx_232[TR_OP_DATA+C1_DATA+cnt_bt]=buf_rx_ppp[ind];  //чтение
   4150                                              *(unsigned int*)&buf_tx_232[TR_OP_DATA+C1_DATA+1+cnt_bt]=L_CONF_UDP+1;   
   4151                                              buf_tx_232[TR_OP_DATA+C1_DATA+3+cnt_bt]=0x00; //OK  
   4152                                              
   4153                                              
   4154                                              cnt_bt=cnt_bt+L_CONF_UDP+1+3;
   4155                                            break;   
   4156                             
   4157                             case CONF_IP :  
   4158                                                             
   4159                                            if((buf_rx_ppp[offset+C1_DATA] & 0x80)==0x80)
   \                     ??proc_config_41:
   \   0000028C   ....               RCALL   ?Subroutine93
   \                     ??CrossCallReturnLabel_690:
   \   0000028E   FF07               SBRS    R16, 7
   \   00000290   C015               RJMP    ??proc_config_42
   4160                                              {
   4161                                              if(*(unsigned int*)&buf_rx_ppp[ind+1]!=L_CONF_IP)goto bad_com;
   \   00000292   ....               RCALL   ?Subroutine200
   \                     ??CrossCallReturnLabel_304:
   \   00000294   3004               CPI     R16, 4
   \   00000296   ....               RCALL   ??Subroutine137_0
   \                     ??CrossCallReturnLabel_667:
   \   00000298   F009               BREQ    $+2+2
   \   0000029A   C1E4               RJMP    ??proc_config_2
   4162                                                
   4163                                              fl_rewrite.ip=1;
   \   0000029C   ....               RCALL   ?Subroutine244
   \                     ??CrossCallReturnLabel_405:
   \   0000029E   ....               RCALL   ??Subroutine91_0
   4164                                              
   4165                                              //запись
   4166                                             // WrArrayToFlesh(ABUF_IP, &buf_rx_ppp[ind+3],L_CONF_IP,0,0);
   4167                                             // RdFromFleshToArr(ABUF_IP,&buf_tx_232[TR_OP_DATA+C1_DATA+4+cnt_bt],4);
   4168                                              
   4169                                        
   4170                                              RdFromFleshToArr(A_IP_PAR,&buf[0],L_IP_PAR); 
   \                     ??CrossCallReturnLabel_877:
   \   000002A0   E04A               LDI     R20, 10
   \   000002A2   019E               MOVW    R19:R18, R29:R28
   \   000002A4   E80C               LDI     R16, 140
   \   000002A6   ....               RCALL   ?Subroutine59
   4171                                              buf[OFS_IP]=buf_rx_ppp[ind+3];
   \                     ??CrossCallReturnLabel_679:
   \   000002A8   8103               LDD     R16, Z+3
   \   000002AA   8308               ST      Y, R16
   4172                                              buf[OFS_IP+1]=buf_rx_ppp[ind+4];
   \   000002AC   8104               LDD     R16, Z+4
   \   000002AE   8309               STD     Y+1, R16
   4173                                              buf[OFS_IP+2]=buf_rx_ppp[ind+5];
   \   000002B0   8105               LDD     R16, Z+5
   \   000002B2   830A               STD     Y+2, R16
   4174                                              buf[OFS_IP+3]=buf_rx_ppp[ind+6];
   \   000002B4   8106               LDD     R16, Z+6
   \   000002B6   830B               STD     Y+3, R16
   4175                                              *(unsigned int*)&buf[OFS_IP_PAR_CRC]=crc_m1(&buf[0],L_IP_PAR-2,0xffff);
   \   000002B8   ....               RCALL   ?Subroutine35
   4176                                              WrArrayToFlesh(A_IP_PAR, &buf[0],L_IP_PAR,0,0);
   \                     ??CrossCallReturnLabel_898:
   \   000002BA   C003               RJMP    ??proc_config_43
   4177                                              //prov_ozu=crc_ozu();
   4178                                              
   4179                                              }
   4180                                              else if(*(unsigned int*)&buf_rx_ppp[ind+1]!=(L_CONF_IP-4))goto bad_com;
   \                     ??proc_config_42:
   \   000002BC   ....               RCALL   ??Subroutine193_0
   \                     ??CrossCallReturnLabel_644:
   \   000002BE   F009               BREQ    $+2+2
   \   000002C0   C1D1               RJMP    ??proc_config_2
   4181                                                  
   4182                                              RdFromFleshToArr(A_IP_PAR+OFS_IP,&buf_tx_232[TR_OP_DATA+C1_DATA+4+cnt_bt],4);  
   \                     ??proc_config_43:
   \   000002C2   E044               LDI     R20, 4
   \   000002C4   ....               RCALL   ?Subroutine308
   \                     ??CrossCallReturnLabel_784:
   \   000002C6   E80C               LDI     R16, 140
   \   000002C8   ....               RCALL   ?Subroutine50
   4183                                              buf_tx_232[TR_OP_DATA+C1_DATA+cnt_bt]=buf_rx_ppp[ind];  //чтение
   4184                                              *(unsigned int*)&buf_tx_232[TR_OP_DATA+C1_DATA+1+cnt_bt]=L_CONF_IP+1;   
   \                     ??CrossCallReturnLabel_547:
   \   000002CA   E005               LDI     R16, 5
   \   000002CC   ....               RCALL   ?Subroutine252
   4185                                              buf_tx_232[TR_OP_DATA+C1_DATA+3+cnt_bt]=0x00; //OK  
   4186          
   4187                                              cnt_bt=cnt_bt+L_CONF_IP+1+3;
   \                     ??CrossCallReturnLabel_445:
   \   000002CE   E008               LDI     R16, 8
   \   000002D0   C1D2               RJMP    ??proc_config_37
   4188                                            break;   
   4189          
   4190          
   4191                             case CONF_PDP :                                                  
   4192                                            if((buf_rx_ppp[offset+C1_DATA] & 0x80)==0x80)
   \                     ??proc_config_44:
   \   000002D2   ....               RCALL   ?Subroutine98
   \                     ??CrossCallReturnLabel_112:
   \   000002D4   FD07               SBRC    R16, 7
   \   000002D6   C1C6               RJMP    ??proc_config_2
   4193                                              {
   4194                                              goto bad_com;
   4195                                              }
   4196                                              else {if(*(unsigned int*)&buf_rx_ppp[ind+1]!=0)goto bad_com;}
   \   000002D8   ....               RCALL   ?Subroutine193
   \                     ??CrossCallReturnLabel_645:
   \   000002DA   F009               BREQ    $+2+2
   \   000002DC   C1C3               RJMP    ??proc_config_2
   4197                                               
   4198          
   4199                                              buf_tx_232[TR_OP_DATA+C1_DATA+cnt_bt]=buf_rx_ppp[ind];  //чтение                                    
   \   000002DE   ....               RCALL   ?Subroutine8
   4200                                              buf_tx_232[TR_OP_DATA+C1_DATA+3+cnt_bt]=0x00; //OK  
   4201                                            
   4202                                              RdFromFleshToArr(A_C_GPRS,&buf_tx_232[TR_OP_DATA+C1_DATA+4+cnt_bt],L_C_GPRS_MAX);
   \                     ??CrossCallReturnLabel_796:
   \   000002E0   E104               LDI     R16, 20
   \                     ??proc_config_45:
   \   000002E2   ....               RCALL   ?Subroutine290
   4203                                              
   4204                           same_1:            ofs=TR_OP_DATA+C1_DATA+4+cnt_bt;
   \                     ??CrossCallReturnLabel_914:
   \   000002E4   0187               MOVW    R17:R16, R15:R14
   \   000002E6   5D00               SUBI    R16, 208
   \   000002E8   4F1F               SBCI    R17, 255
   4205                                              temp=buf_tx_232[ofs];
   \   000002EA   01F8               MOVW    R31:R30, R17:R16
   \   000002EC   ....               SUBI    R30, LOW((-(buf_tx_232) & 0xFFFF))
   \   000002EE   ....               SBCI    R31, (-(buf_tx_232) & 0xFFFF) >> 8
   \   000002F0   8180               LD      R24, Z
   \   000002F2   E090               LDI     R25, 0
   4206                                              for(i=0;i<temp;i++)buf_tx_232[ofs+i]=buf_tx_232[ofs+i+1];
   \   000002F4   ....               RCALL   ??Subroutine158_0
   \                     ??CrossCallReturnLabel_886:
   \   000002F6   C002               RJMP    ??CrossCallReturnLabel_790
   \                     ??proc_config_46:
   \   000002F8   8141               LDD     R20, Z+1
   \   000002FA   ....               RCALL   ?Subroutine202
   \                     ??CrossCallReturnLabel_790:
   \   000002FC   ....               LDI     R30, LOW(buf_tx_232)
   \   000002FE   ....               LDI     R31, (buf_tx_232) >> 8
   \   00000300   01A9               MOVW    R21:R20, R19:R18
   \   00000302   0F40               ADD     R20, R16
   \   00000304   1F51               ADC     R21, R17
   \   00000306   0FE4               ADD     R30, R20
   \   00000308   1FF5               ADC     R31, R21
   \   0000030A   1728               CP      R18, R24
   \   0000030C   0739               CPC     R19, R25
   \   0000030E   F3A0               BRCS    ??proc_config_46
   4207                                              buf_tx_232[ofs+i]=0;
   \   00000310   ....               RCALL   ?Subroutine63
   4208                                        
   4209                                              
   4210                                              ofs=ofs+temp+1;
   4211                                              temp=buf_tx_232[ofs];
   4212                                              for(i=0;i<temp;i++)buf_tx_232[ofs+i]=buf_tx_232[ofs+i+1];
   4213                                              buf_tx_232[ofs+i]=0;
   \                     ??CrossCallReturnLabel_58:
   \   00000312   ....               RCALL   ?Subroutine63
   4214          
   4215                                           
   4216                                              ofs=ofs+temp+1;
   4217                                              temp=buf_tx_232[ofs];
   4218                                              for(i=0;i<temp;i++)buf_tx_232[ofs+i]=buf_tx_232[ofs+i+1];
   4219                                              buf_tx_232[ofs+i]=0;
   \                     ??CrossCallReturnLabel_59:
   \   00000314   8390               ST      Z, R25
   4220                                              
   4221                                              ofs=ofs+temp+1;
   4222                                              ofs=ofs-(TR_OP_DATA+C1_DATA+4+cnt_bt);
   \   00000316   0F08               ADD     R16, R24
   \   00000318   1F19               ADC     R17, R25
   \   0000031A   ....               RCALL   ?Subroutine239
   \                     ??CrossCallReturnLabel_393:
   \   0000031C   190E               SUB     R16, R14
   \   0000031E   091F               SBC     R17, R15
   \   00000320   5300               SUBI    R16, 48
   \   00000322   4010               SBCI    R17, 0
   4223                                           
   4224           
   4225                                              *(unsigned int*)&buf_tx_232[TR_OP_DATA+C1_DATA+1+cnt_bt]=ofs+1;   
   \   00000324   01C8               MOVW    R25:R24, R17:R16
   \   00000326   9601               ADIW    R25:R24, 1
   \   00000328   01FD               MOVW    R31:R30, R27:R26
   \   0000032A   A785               STD     Z+45, R24
   \   0000032C   A796               STD     Z+46, R25
   4226                                              cnt_bt=cnt_bt+ofs+1+3;
   \   0000032E   5F0C               SUBI    R16, 252
   \   00000330   4F1F               SBCI    R17, 255
   \   00000332   C1A1               RJMP    ??proc_config_37
   4227                                            
   4228                                            break;   
   4229                           
   4230                           
   4231                         case CONF_RESET:          
   4232                                           if((buf_rx_ppp[offset+C1_DATA] & 0x80)==0x80)
   \                     ??proc_config_47:
   \   00000334   ....               RCALL   ?Subroutine98
   \                     ??CrossCallReturnLabel_113:
   \   00000336   FF07               SBRS    R16, 7
   \   00000338   C195               RJMP    ??proc_config_2
   4233                                              {
   4234                                              if(*(unsigned int*)&buf_rx_ppp[ind+1]!=0)goto bad_com;
   \   0000033A   ....               RCALL   ?Subroutine193
   \                     ??CrossCallReturnLabel_646:
   \   0000033C   F009               BREQ    $+2+2
   \   0000033E   C192               RJMP    ??proc_config_2
   4235                                              buf_tx_232[TR_OP_DATA+C1_DATA+cnt_bt]=buf_rx_ppp[ind];
   \   00000340   ....               RCALL   ?Subroutine21
   4236                                              *(unsigned int*)&buf_tx_232[TR_OP_DATA+C1_DATA+1+cnt_bt]=1;   
   4237                                              buf_tx_232[TR_OP_DATA+C1_DATA+3+cnt_bt]=0x00; //OK  
   4238                                              cnt_bt=cnt_bt+1+3;
   4239                                              fl_rewrite.cnt_reset=4;
   \                     ??CrossCallReturnLabel_26:
   \   00000342   ....               RCALL   ?Subroutine244
   \                     ??CrossCallReturnLabel_406:
   \   00000344   8301               STD     Z+1, R16
   4240                                              break;
   \   00000346   C199               RJMP    ??proc_config_4
   4241                                              }
   4242                                              else goto bad_com;
   4243                           
   4244                           
   4245                           case CONF_PDP_DOP :                                                  
   4246                                            if((buf_rx_ppp[offset+C1_DATA] & 0x80)==0x80)
   \                     ??proc_config_48:
   \   00000348   ....               RCALL   ?Subroutine93
   \                     ??CrossCallReturnLabel_691:
   \   0000034A   FF07               SBRS    R16, 7
   \   0000034C   C017               RJMP    ??proc_config_49
   4247                                              {
   4248                                              temp=*(unsigned int*)&buf_rx_ppp[ind+1];
   \   0000034E   ....               RCALL   ?Subroutine243
   4249                                              
   4250                                              
   4251                                              
   4252                                              if((temp==1)||(temp==2))goto bad_com;
   \                     ??CrossCallReturnLabel_401:
   \   00000350   F409               BRNE    $+2+2
   \   00000352   C188               RJMP    ??proc_config_2
   \   00000354   3082               CPI     R24, 2
   \   00000356   0790               CPC     R25, R16
   \   00000358   F409               BRNE    $+2+2
   \   0000035A   C184               RJMP    ??proc_config_2
   4253                                              if(temp>L_CONF_PDP)goto bad_com;
   \   0000035C   338B               CPI     R24, 59
   \   0000035E   0790               CPC     R25, R16
   \   00000360   F008               BRCS    $+2+2
   \   00000362   C180               RJMP    ??proc_config_2
   4254                                             
   4255                                              if(temp==0)
   \   00000364   ....               RCALL   ??Subroutine103_0
   \                     ??CrossCallReturnLabel_132:
   \   00000366   F429               BRNE    ??proc_config_50
   4256                                                 {
   4257                                                   e_rw_pdp=0xff;
   \   00000368   EF0F               LDI     R16, 255
   \   0000036A   E021               LDI     R18, 1
   \   0000036C   ....               RCALL   ?Subroutine65
   4258                                                   temp=L_CONF_PDP;                                
   4259                                                   WrArrayToFlesh(ABUF_C_GPRS,0,temp,0x01,0xff);   
   \                     ??CrossCallReturnLabel_60:
   \   0000036E   ....               RCALL   ?Subroutine30
   \                     ??CrossCallReturnLabel_888:
   \   00000370   C00A               RJMP    ??proc_config_51
   4260                                                  //записать во флешь признак перезаписи контекста
   4261                                                 }
   4262                                                 
   4263                                                 else
   4264                                                   { 
   4265                                                  //запись
   4266                                                  WrArrayToFlesh(ABUF_C_GPRS,&buf_rx_ppp[ind+3],temp,0,0);                                  
   \                     ??proc_config_50:
   \   00000372   ....               RCALL   ?Subroutine37
   \                     ??CrossCallReturnLabel_798:
   \   00000374   ....               RCALL   ?Subroutine30
   4267                                                  //записать во флешь признак перезаписи контекста
   4268                                                   e_rw_pdp=0;
   \                     ??CrossCallReturnLabel_887:
   \   00000376   E000               LDI     R16, 0
   \   00000378   ....               RCALL   ?Subroutine129
   \                     ??CrossCallReturnLabel_709:
   \   0000037A   C005               RJMP    ??proc_config_51
   4269                                                   }
   4270                                              }
   4271                                              else {
   4272                                                      if(*(unsigned int*)&buf_rx_ppp[ind+1]!=0)goto bad_com;
   \                     ??proc_config_49:
   \   0000037C   ....               RCALL   ??Subroutine193_0
   \                     ??CrossCallReturnLabel_647:
   \   0000037E   F009               BREQ    $+2+2
   \   00000380   C171               RJMP    ??proc_config_2
   4273                                                      temp=L_CONF_PDP;
   \   00000382   E38A               LDI     R24, 58
   \   00000384   E090               LDI     R25, 0
   4274                                                    }
   4275                                               
   4276                                              RdFromFleshToArr(ABUF_C_GPRS,&buf_tx_232[TR_OP_DATA+C1_DATA+4+cnt_bt],temp); 
   \                     ??proc_config_51:
   \   00000386   ....               RCALL   ?Subroutine212
   \                     ??CrossCallReturnLabel_800:
   \   00000388   E100               LDI     R16, 16
   \   0000038A   E217               LDI     R17, 39
   \                     ??proc_config_52:
   \   0000038C   ....               RCALL   ??Subroutine290_0
   4277                                              buf_tx_232[TR_OP_DATA+C1_DATA+cnt_bt]=buf_rx_ppp[ind]; 
   \                     ??CrossCallReturnLabel_907:
   \   0000038E   ....               RCALL   ?Subroutine115
   4278                                              *(unsigned int*)&buf_tx_232[TR_OP_DATA+C1_DATA+1+cnt_bt]=temp+1;                                  
   \                     ??CrossCallReturnLabel_550:
   \   00000390   018C               MOVW    R17:R16, R25:R24
   \   00000392   ....               RCALL   ?Subroutine239
   \                     ??CrossCallReturnLabel_394:
   \   00000394   A705               STD     Z+45, R16
   \   00000396   A716               STD     Z+46, R17
   4279                                              buf_tx_232[TR_OP_DATA+C1_DATA+3+cnt_bt]=0x00; //OK 
   \   00000398   E000               LDI     R16, 0
   \   0000039A   A707               STD     Z+47, R16
   4280                                               
   4281          
   4282                                              cnt_bt=cnt_bt+temp+1+3;
   \   0000039C   CE6D               RJMP    ??proc_config_3
   4283                                               
   4284                                            break;   
   4285           
   4286                                           
   4287                         
   4288                                              
   4289          
   4290                           case CONF_TIME:
   4291                                           if((buf_rx_ppp[ind] & 0x80)==0x80)
   \                     ??proc_config_53:
   \   0000039E   ....               RCALL   ?Subroutine211
   \                     ??CrossCallReturnLabel_624:
   \   000003A0   FF07               SBRS    R16, 7
   \   000003A2   C02E               RJMP    ??proc_config_54
   4292                                              {
   4293                                              if(*(unsigned int*)&buf_rx_ppp[ind+1]!=L_WR_CONF_TIME)goto bad_com;
   \   000003A4   ....               RCALL   ?Subroutine200
   \                     ??CrossCallReturnLabel_305:
   \   000003A6   3006               CPI     R16, 6
   \   000003A8   4010               SBCI    R17, 0
   \   000003AA   F009               BREQ    $+2+2
   \   000003AC   C15B               RJMP    ??proc_config_2
   4294                                              //запись времени 
   4295                                              old_unix=unix;
   \   000003AE   ....               RCALL   ?Subroutine242
   \                     ??CrossCallReturnLabel_396:
   \   000003B0   8080               LD      R8, Z
   \   000003B2   8091               LDD     R9, Z+1
   \   000003B4   80A2               LDD     R10, Z+2
   \   000003B6   80B3               LDD     R11, Z+3
   4296                                              set_rlt(2,&buf_rx_ppp[ind+3]);
   \   000003B8   0192               MOVW    R19:R18, R5:R4
   \   000003BA   5F2D               SUBI    R18, 253
   \   000003BC   4F3F               SBCI    R19, 255
   \   000003BE   E002               LDI     R16, 2
   \   000003C0   ........           CALL    set_rlt
   4297                                              burst_ds_r();
   \   000003C4   ....               RCALL   ?Subroutine164
   4298                                              if ((( old_unix - unix) >= 600 )||(( unix - old_unix) >= 600 )) bit_level=1;
   \                     ??CrossCallReturnLabel_225:
   \   000003C6   ....               RCALL   ?Subroutine242
   \                     ??CrossCallReturnLabel_397:
   \   000003C8   8100               LD      R16, Z
   \   000003CA   8111               LDD     R17, Z+1
   \   000003CC   8122               LDD     R18, Z+2
   \   000003CE   8133               LDD     R19, Z+3
   \   000003D0   01A4               MOVW    R21:R20, R9:R8
   \   000003D2   01B5               MOVW    R23:R22, R11:R10
   \   000003D4   1B40               SUB     R20, R16
   \   000003D6   0B51               SBC     R21, R17
   \   000003D8   0B62               SBC     R22, R18
   \   000003DA   0B73               SBC     R23, R19
   \   000003DC   3548               CPI     R20, 88
   \   000003DE   4052               SBCI    R21, 2
   \   000003E0   4060               SBCI    R22, 0
   \   000003E2   4070               SBCI    R23, 0
   \   000003E4   F448               BRCC    ??proc_config_55
   \   000003E6   1908               SUB     R16, R8
   \   000003E8   0919               SBC     R17, R9
   \   000003EA   092A               SBC     R18, R10
   \   000003EC   093B               SBC     R19, R11
   \   000003EE   3508               CPI     R16, 88
   \   000003F0   4012               SBCI    R17, 2
   \   000003F2   4020               SBCI    R18, 0
   \   000003F4   4030               SBCI    R19, 0
   \   000003F6   F038               BRCS    ??proc_config_56
   \                     ??proc_config_55:
   \   000003F8   E001               LDI     R16, 1
   \   000003FA   9300....           STS     bit_level, R16
   \   000003FE   C003               RJMP    ??proc_config_56
   4299                                              }
   4300                                              else
   4301                                              {
   4302                                              if(*(unsigned int*)&buf_rx_ppp[ind+1]!=L_RD_CONF_TIME)goto bad_com;   
   \                     ??proc_config_54:
   \   00000400   ....               RCALL   ??Subroutine193_0
   \                     ??CrossCallReturnLabel_648:
   \   00000402   F009               BREQ    $+2+2
   \   00000404   C12F               RJMP    ??proc_config_2
   4303                                              }
   4304                                              
   4305                                            buf_tx_232[TR_OP_DATA+C1_DATA+cnt_bt]=buf_rx_ppp[ind];
   \                     ??proc_config_56:
   \   00000406   ....               RCALL   ?Subroutine115
   4306                                            *(unsigned int*)&buf_tx_232[TR_OP_DATA+C1_DATA+1+cnt_bt]=L_WR_CONF_TIME+1;
   \                     ??CrossCallReturnLabel_551:
   \   00000408   E007               LDI     R16, 7
   \   0000040A   ....               RCALL   ?Subroutine252
   4307                                            
   4308                                            buf_tx_232[TR_OP_DATA+C1_DATA+3+cnt_bt]=0x00; //OK                                  
   4309                                            burst_ds_r();                                
   \                     ??CrossCallReturnLabel_446:
   \   0000040C   ....               RCALL   ?Subroutine164
   4310                                            buf_tx_232[TR_OP_DATA+C1_DATA+4+cnt_bt]=real_time.r_sec;
   \                     ??CrossCallReturnLabel_224:
   \   0000040E   ....               LDI     R16, LOW(real_time)
   \   00000410   ....               LDI     R17, (real_time) >> 8
   \   00000412   ....               RCALL   ?Subroutine72
   \                     ??CrossCallReturnLabel_74:
   \   00000414   01FD               MOVW    R31:R30, R27:R26
   \   00000416   AB20               STD     Z+48, R18
   4311                                            buf_tx_232[TR_OP_DATA+C1_DATA+5+cnt_bt]=real_time.r_min;
   \   00000418   01F8               MOVW    R31:R30, R17:R16
   \   0000041A   8121               LDD     R18, Z+1
   \   0000041C   01FD               MOVW    R31:R30, R27:R26
   \   0000041E   AB21               STD     Z+49, R18
   4312                                            buf_tx_232[TR_OP_DATA+C1_DATA+6+cnt_bt]=real_time.r_hor;
   \   00000420   01F8               MOVW    R31:R30, R17:R16
   \   00000422   8122               LDD     R18, Z+2
   \   00000424   01FD               MOVW    R31:R30, R27:R26
   \   00000426   AB22               STD     Z+50, R18
   4313                                            buf_tx_232[TR_OP_DATA+C1_DATA+7+cnt_bt]=real_time.r_date;
   \   00000428   01F8               MOVW    R31:R30, R17:R16
   \   0000042A   8124               LDD     R18, Z+4
   \   0000042C   01FD               MOVW    R31:R30, R27:R26
   \   0000042E   AB23               STD     Z+51, R18
   4314                                            buf_tx_232[TR_OP_DATA+C1_DATA+8+cnt_bt]=real_time.r_month;
   \   00000430   01F8               MOVW    R31:R30, R17:R16
   \   00000432   8125               LDD     R18, Z+5
   \   00000434   01FD               MOVW    R31:R30, R27:R26
   \   00000436   AB24               STD     Z+52, R18
   4315                                            buf_tx_232[TR_OP_DATA+C1_DATA+9+cnt_bt]=real_time.r_year;
   \   00000438   01F8               MOVW    R31:R30, R17:R16
   \   0000043A   8106               LDD     R16, Z+6
   \   0000043C   01FD               MOVW    R31:R30, R27:R26
   \   0000043E   AB05               STD     Z+53, R16
   4316                                            cnt_bt=cnt_bt+L_WR_CONF_TIME+1+3;
   \   00000440   E00A               LDI     R16, 10
   \   00000442   CE49               RJMP    ??proc_config_14
   4317                           
   4318                                break;
   4319           
   4320                                
   4321                           case CONF_PDP_R :                                                  
   4322                                            if((buf_rx_ppp[offset+C1_DATA] & 0x80)==0x80)
   \                     ??proc_config_57:
   \   00000444   ....               RCALL   ?Subroutine98
   \                     ??CrossCallReturnLabel_114:
   \   00000446   FD07               SBRC    R16, 7
   \   00000448   C10D               RJMP    ??proc_config_2
   4323                                              {
   4324                                              goto bad_com;
   4325                                              }
   4326                                              else {if(*(unsigned int*)&buf_rx_ppp[ind+1]!=0)goto bad_com;}
   \   0000044A   ....               RCALL   ?Subroutine193
   \                     ??CrossCallReturnLabel_649:
   \   0000044C   F009               BREQ    $+2+2
   \   0000044E   C10A               RJMP    ??proc_config_2
   4327                                               
   4328          
   4329                                              buf_tx_232[TR_OP_DATA+C1_DATA+cnt_bt]=buf_rx_ppp[ind];  //чтение                                    
   \   00000450   ....               RCALL   ?Subroutine8
   4330                                              buf_tx_232[TR_OP_DATA+C1_DATA+3+cnt_bt]=0x00; //OK  
   4331                                            
   4332                                              RdFromFleshToArr(A_CR_GPRS,&buf_tx_232[TR_OP_DATA+C1_DATA+4+cnt_bt],L_CR_GPRS_MAX);
   \                     ??CrossCallReturnLabel_797:
   \   00000452   E500               LDI     R16, 80
   \   00000454   CF46               RJMP    ??proc_config_45
   4333                                              
   4334                                              goto same_1;
   4335                                              
   4336                                            
   4337                                            //  break;                
   4338                           
   4339                                              
   4340                           case CONF_PDP_DOP_R :                                                  
   4341                                            if((buf_rx_ppp[offset+C1_DATA] & 0x80)==0x80)
   \                     ??proc_config_58:
   \   00000456   ....               RCALL   ?Subroutine93
   \                     ??CrossCallReturnLabel_692:
   \   00000458   FF07               SBRS    R16, 7
   \   0000045A   C019               RJMP    ??proc_config_59
   4342                                              {
   4343                                              temp=*(unsigned int*)&buf_rx_ppp[ind+1];
   \   0000045C   ....               RCALL   ?Subroutine243
   4344                                              
   4345                                              
   4346                                              
   4347                                              if((temp==1)||(temp==2))goto bad_com;
   \                     ??CrossCallReturnLabel_402:
   \   0000045E   F409               BRNE    $+2+2
   \   00000460   C101               RJMP    ??proc_config_2
   \   00000462   3082               CPI     R24, 2
   \   00000464   0790               CPC     R25, R16
   \   00000466   F409               BRNE    $+2+2
   \   00000468   C0FD               RJMP    ??proc_config_2
   4348                                              if(temp>L_CONF_PDP_R)goto bad_com;
   \   0000046A   338B               CPI     R24, 59
   \   0000046C   0790               CPC     R25, R16
   \   0000046E   F008               BRCS    $+2+2
   \   00000470   C0F9               RJMP    ??proc_config_2
   4349                                             
   4350                                              if(temp==0)
   \   00000472   ....               RCALL   ??Subroutine103_0
   \                     ??CrossCallReturnLabel_133:
   \   00000474   F431               BRNE    ??proc_config_60
   4351                                                 {
   4352                                                   e_rw_pdp_r=0xff;
   \   00000476   EF0F               LDI     R16, 255
   \   00000478   E022               LDI     R18, 2
   \   0000047A   ....               RCALL   ?Subroutine65
   4353                                                   temp=L_CONF_PDP_R;                                
   4354                                                   WrArrayToFlesh(ABUF_CR_GPRS,0,temp,0x01,0xff);   
   \                     ??CrossCallReturnLabel_61:
   \   0000047C   ....               RCALL   ?Subroutine150
   \                     ??CrossCallReturnLabel_192:
   \   0000047E   ....               RCALL   ??Subroutine289_0
   \                     ??CrossCallReturnLabel_893:
   \   00000480   C00B               RJMP    ??proc_config_61
   4355                                                  //записать во флешь признак перезаписи контекста
   4356                                                 }
   4357                                                 
   4358                                                 else
   4359                                                   { 
   4360                                                  //запись
   4361                                                  WrArrayToFlesh(ABUF_CR_GPRS,&buf_rx_ppp[ind+3],temp,0,0);                                  
   \                     ??proc_config_60:
   \   00000482   ....               RCALL   ?Subroutine37
   \                     ??CrossCallReturnLabel_799:
   \   00000484   ....               RCALL   ?Subroutine150
   \                     ??CrossCallReturnLabel_193:
   \   00000486   ........           CALL    ??Subroutine148_0
   4362                                                  //записать во флешь признак перезаписи контекста
   4363                                                   e_rw_pdp_r=0;
   \                     ??CrossCallReturnLabel_574:
   \   0000048A   ....               RCALL   ?Subroutine136
   \                     ??CrossCallReturnLabel_711:
   \   0000048C   C005               RJMP    ??proc_config_61
   4364                                                   }
   4365                                              }
   4366                                              else {
   4367                                                      if(*(unsigned int*)&buf_rx_ppp[ind+1]!=0)goto bad_com;
   \                     ??proc_config_59:
   \   0000048E   ....               RCALL   ??Subroutine193_0
   \                     ??CrossCallReturnLabel_650:
   \   00000490   F009               BREQ    $+2+2
   \   00000492   C0E8               RJMP    ??proc_config_2
   4368                                                      temp=L_CONF_PDP_R;
   \   00000494   E38A               LDI     R24, 58
   \   00000496   E090               LDI     R25, 0
   4369                                                    }
   4370                                               
   4371                                              RdFromFleshToArr(ABUF_CR_GPRS,&buf_tx_232[TR_OP_DATA+C1_DATA+4+cnt_bt],temp); 
   \                     ??proc_config_61:
   \   00000498   ....               RCALL   ?Subroutine212
   \                     ??CrossCallReturnLabel_801:
   \   0000049A   ....               RCALL   ?Subroutine150
   \                     ??CrossCallReturnLabel_194:
   \   0000049C   CF77               RJMP    ??proc_config_52
   4372                                              buf_tx_232[TR_OP_DATA+C1_DATA+cnt_bt]=buf_rx_ppp[ind]; 
   4373                                              *(unsigned int*)&buf_tx_232[TR_OP_DATA+C1_DATA+1+cnt_bt]=temp+1;                                  
   4374                                              buf_tx_232[TR_OP_DATA+C1_DATA+3+cnt_bt]=0x00; //OK 
   4375               
   4376                                              cnt_bt=cnt_bt+temp+1+3;
   4377                                               
   4378                                            break;                       
   4379                                
   4380                                
   4381                           case CONF_KEYS:
   4382                                         
   4383                                          
   4384                                          if((buf_rx_ppp[ind] & 0x80)!=0x80)goto bad_com;
   \                     ??proc_config_62:
   \   0000049E   ....               RCALL   ?Subroutine211
   \                     ??CrossCallReturnLabel_625:
   \   000004A0   FF07               SBRS    R16, 7
   \   000004A2   C0E0               RJMP    ??proc_config_2
   4385                                          if(*(unsigned int*)&buf_rx_ppp[ind+1]!=L_WR_CONF_KEYS)goto bad_com;   
   \   000004A4   ....               RCALL   ?Subroutine200
   \                     ??CrossCallReturnLabel_306:
   \   000004A6   3008               CPI     R16, 8
   \   000004A8   ....               RCALL   ??Subroutine157_0
   \                     ??CrossCallReturnLabel_675:
   \   000004AA   F009               BREQ    $+2+2
   \   000004AC   C0DB               RJMP    ??proc_config_2
   4386                                          
   4387                                         
   4388                                          for(i=0;i<L_KEYS-2;i++)buf[i]=buf_rx_ppp[ind+3+i];
   \   000004AE   E030               LDI     R19, 0
   \                     ??proc_config_63:
   \   000004B0   89EF               LDD     R30, Y+23
   \   000004B2   8DF8               LDD     R31, Y+24
   \   000004B4   9633               ADIW    R31:R30, 3
   \   000004B6   894C               LDD     R20, Y+20
   \   000004B8   895D               LDD     R21, Y+21
   \   000004BA   0F42               ADD     R20, R18
   \   000004BC   1F53               ADC     R21, R19
   \   000004BE   0FE4               ADD     R30, R20
   \   000004C0   1FF5               ADC     R31, R21
   \   000004C2   8100               LD      R16, Z
   \   000004C4   01FE               MOVW    R31:R30, R29:R28
   \   000004C6   0FE2               ADD     R30, R18
   \   000004C8   1FF3               ADC     R31, R19
   \   000004CA   8300               ST      Z, R16
   \   000004CC   ........           CALL    ?Subroutine298
   \                     ??CrossCallReturnLabel_805:
   \   000004D0   3028               CPI     R18, 8
   \   000004D2   E000               LDI     R16, 0
   \   000004D4   0730               CPC     R19, R16
   \   000004D6   F360               BRCS    ??proc_config_63
   4389                                          *(unsigned int*)&buf[L_KEYS-2]=crc_m1(&buf[0],L_KEYS-2,0xffff);
   \   000004D8   ....               RCALL   ?Subroutine119
   \                     ??CrossCallReturnLabel_703:
   \   000004DA   8708               STD     Y+8, R16
   \   000004DC   8719               STD     Y+9, R17
   4390                                          
   4391                                          WrArrayToFlesh(A_KEYS,&buf[0],L_KEYS,0,0);
   \   000004DE   E070               LDI     R23, 0
   \   000004E0   E060               LDI     R22, 0
   \   000004E2   ........           CALL    ?Subroutine133
   \                     ??CrossCallReturnLabel_512:
   \   000004E6   E300               LDI     R16, 48
   \   000004E8   E715               LDI     R17, 117
   \   000004EA   ....               RCALL   ??Subroutine289_0
   4392                                          
   4393                     
   4394                                          
   4395                                           buf_tx_232[TR_OP_DATA+C1_DATA+cnt_bt]=buf_rx_ppp[ind]; 
   \                     ??CrossCallReturnLabel_892:
   \   000004EC   01F2               MOVW    R31:R30, R5:R4
   \   000004EE   ....               RCALL   ?Subroutine21
   4396                                           *(unsigned int*)&buf_tx_232[TR_OP_DATA+C1_DATA+1+cnt_bt]=1;                                  
   4397                                           buf_tx_232[TR_OP_DATA+C1_DATA+3+cnt_bt]=0x00; //OK 
   4398                                           cnt_bt=cnt_bt+1+3;
   4399                                           
   4400                                           RdFromFleshToArr(A_KEYS,&keys[0],L_KEYS); // новый ключ
   \                     ??CrossCallReturnLabel_27:
   \   000004F0   E04A               LDI     R20, 10
   \   000004F2   E050               LDI     R21, 0
   \   000004F4   ....               LDI     R18, LOW(keys)
   \   000004F6   ....               LDI     R19, (keys) >> 8
   \   000004F8   E300               LDI     R16, 48
   \   000004FA   E715               LDI     R17, 117
   \   000004FC   ....               RCALL   ??Subroutine290_0
   \                     ??CrossCallReturnLabel_906:
   \   000004FE   C0BD               RJMP    ??proc_config_4
   4401                                           
   4402          
   4403                                break;
   4404           
   4405                                 //!!!!!!!!!!dobavka
   4406                                case CONF_TM_NO_LINK:
   4407                                      
   4408                                  if((buf_rx_ppp[offset+C1_DATA] & 0x80)==0x80)
   \                     ??proc_config_64:
   \   00000500   ....               RCALL   ?Subroutine93
   \                     ??CrossCallReturnLabel_693:
   \   00000502   FF07               SBRS    R16, 7
   \   00000504   C01A               RJMP    ??proc_config_65
   4409                                              {
   4410                                              if(*(unsigned int*)&buf_rx_ppp[ind+1]!=L_CONF_TM_NO_LINK)goto bad_com;
   \   00000506   ....               RCALL   ?Subroutine157
   \                     ??CrossCallReturnLabel_676:
   \   00000508   F009               BREQ    $+2+2
   \   0000050A   C0AC               RJMP    ??proc_config_2
   4411                                              //запись
   4412                                              temp=*(unsigned int*)&buf_rx_ppp[ind+3];
   \   0000050C   ....               RCALL   ?Subroutine103
   4413                                              
   4414                                              if(temp!=0)
   \                     ??CrossCallReturnLabel_131:
   \   0000050E   F049               BREQ    ??proc_config_66
   4415                                                if(temp <= (Control.vol_link/60)){buf_tx_232[TR_OP_DATA+C1_DATA+3+cnt_bt]=0x01;goto nocorr_com;}
   \   00000510   ....               RCALL   ?Subroutine305
   \                     ??CrossCallReturnLabel_773:
   \   00000512   A102               LDD     R16, Z+34
   \   00000514   A113               LDD     R17, Z+35
   \   00000516   E34C               LDI     R20, 60
   \   00000518   ....               RCALL   ?Subroutine135
   \                     ??CrossCallReturnLabel_180:
   \   0000051A   1708               CP      R16, R24
   \   0000051C   0719               CPC     R17, R25
   \   0000051E   F008               BRCS    $+2+2
   \   00000520   CDC9               RJMP    ??proc_config_10
   4416                                              
   4417                                              
   4418                                              vol_cnt_no_link=temp;
   4419                                              vol_cnt_no_link=vol_cnt_no_link*60;
   \                     ??proc_config_66:
   \   00000522   ....               RCALL   ?Subroutine36
   \                     ??CrossCallReturnLabel_775:
   \   00000524   AB00               STD     Z+48, R16
   \   00000526   AB11               STD     Z+49, R17
   \   00000528   AB22               STD     Z+50, R18
   \   0000052A   AB33               STD     Z+51, R19
   4420                                              
   4421                                              RdFromFleshToArr(A_C_PAR,&buf[0],L_C_PAR); 
   \   0000052C   E04E               LDI     R20, 14
   \   0000052E   ........           CALL    ?Subroutine261
   \                     ??CrossCallReturnLabel_509:
   \   00000532   E906               LDI     R16, 150
   \   00000534   ....               RCALL   ?Subroutine57
   4422                                              *(unsigned int*)&buf[OFS_TM_NO_LINK]=temp;
   4423                                              *(unsigned int*)&buf[OFS_C_PAR_CRC]=crc_m1(&buf[0],L_C_PAR-2,0xffff);
   \                     ??CrossCallReturnLabel_57:
   \   00000536   ....               RCALL   ?Subroutine32
   4424                                              WrArrayToFlesh(A_C_PAR, &buf[0],L_C_PAR,0,0);
   4425                                              prov_ozu=crc_ozu();
   \                     ??CrossCallReturnLabel_412:
   \   00000538   C003               RJMP    ??proc_config_67
   4426                                              }
   4427                                              else {if(*(unsigned int*)&buf_rx_ppp[ind+1]!=(L_CONF_TM_NO_LINK-2))goto bad_com;}
   \                     ??proc_config_65:
   \   0000053A   ....               RCALL   ??Subroutine193_0
   \                     ??CrossCallReturnLabel_651:
   \   0000053C   F009               BREQ    $+2+2
   \   0000053E   C092               RJMP    ??proc_config_2
   4428                                               
   4429          
   4430                                              buf_tx_232[TR_OP_DATA+C1_DATA+cnt_bt]=buf_rx_ppp[ind];  //чтение
   \                     ??proc_config_67:
   \   00000540   ....               RCALL   ?Subroutine39
   4431                                              *(unsigned int*)&buf_tx_232[TR_OP_DATA+C1_DATA+1+cnt_bt]=L_CONF_TM_NO_LINK+1;   
   4432                                              buf_tx_232[TR_OP_DATA+C1_DATA+3+cnt_bt]=0x00; //OK  
   4433                                              RdFromFleshToArr(A_C_PAR+OFS_TM_NO_LINK,&buf_tx_232[TR_OP_DATA+C1_DATA+4+cnt_bt],2);
   \                     ??CrossCallReturnLabel_585:
   \   00000542   E90C               LDI     R16, 156
   \   00000544   CDC6               RJMP    ??proc_config_13
   4434                                              
   4435                                              cnt_bt=cnt_bt+L_CONF_TM_NO_LINK+1+3;
   4436                                   break;
   4437                                  
   4438                                 case CONF_TM_LINK_RES:
   4439                                      
   4440                                  if((buf_rx_ppp[offset+C1_DATA] & 0x80)==0x80)
   \                     ??proc_config_68:
   \   00000546   ....               RCALL   ?Subroutine93
   \                     ??CrossCallReturnLabel_694:
   \   00000548   FF07               SBRS    R16, 7
   \   0000054A   C013               RJMP    ??proc_config_69
   4441                                              {
   4442                                              if(*(unsigned int*)&buf_rx_ppp[ind+1]!=L_CONF_TM_LINK_RES)goto bad_com;
   \   0000054C   ....               RCALL   ?Subroutine157
   \                     ??CrossCallReturnLabel_677:
   \   0000054E   F009               BREQ    $+2+2
   \   00000550   C089               RJMP    ??proc_config_2
   4443                                              //запись
   4444                                              temp=*(unsigned int*)&buf_rx_ppp[ind+3];
   \   00000552   8183               LDD     R24, Z+3
   \   00000554   8194               LDD     R25, Z+4
   4445                                              
   4446                                              if(temp < MIN_TM_LINK_RES){buf_tx_232[TR_OP_DATA+C1_DATA+3+cnt_bt]=0x01;goto nocorr_com;}
   \   00000556   318E               CPI     R24, 30
   \   00000558   0792               CPC     R25, R18
   \   0000055A   F408               BRCC    $+2+2
   \   0000055C   CDAB               RJMP    ??proc_config_10
   4447                                              
   4448                                              
   4449                                              vol_cnt_link_res=temp;
   4450                                              vol_cnt_link_res=vol_cnt_link_res*60;
   \   0000055E   ....               RCALL   ?Subroutine36
   \                     ??CrossCallReturnLabel_776:
   \   00000560   AB04               STD     Z+52, R16
   \   00000562   AB15               STD     Z+53, R17
   \   00000564   AB26               STD     Z+54, R18
   \   00000566   AB37               STD     Z+55, R19
   4451                                              
   4452                                              RdFromFleshToArr(A_C_PAR,&buf[0],L_C_PAR); 
   \   00000568   ....               RCALL   ?Subroutine60
   4453                                              *(unsigned int*)&buf[OFS_TM_LINK_RES]=temp;
   \                     ??CrossCallReturnLabel_921:
   \   0000056A   8788               STD     Y+8, R24
   \   0000056C   8799               STD     Y+9, R25
   4454                                              *(unsigned int*)&buf[OFS_C_PAR_CRC]=crc_m1(&buf[0],L_C_PAR-2,0xffff);
   \   0000056E   ....               RCALL   ?Subroutine32
   4455                                              WrArrayToFlesh(A_C_PAR, &buf[0],L_C_PAR,0,0);
   4456                                              prov_ozu=crc_ozu();
   \                     ??CrossCallReturnLabel_413:
   \   00000570   C003               RJMP    ??proc_config_70
   4457                                              }
   4458                                              else {if(*(unsigned int*)&buf_rx_ppp[ind+1]!=(L_CONF_TM_LINK_RES-2))goto bad_com;}
   \                     ??proc_config_69:
   \   00000572   ....               RCALL   ??Subroutine193_0
   \                     ??CrossCallReturnLabel_652:
   \   00000574   F009               BREQ    $+2+2
   \   00000576   C076               RJMP    ??proc_config_2
   4459                                               
   4460          
   4461                                              buf_tx_232[TR_OP_DATA+C1_DATA+cnt_bt]=buf_rx_ppp[ind];  //чтение
   \                     ??proc_config_70:
   \   00000578   ....               RCALL   ?Subroutine39
   4462                                              *(unsigned int*)&buf_tx_232[TR_OP_DATA+C1_DATA+1+cnt_bt]=L_CONF_TM_LINK_RES+1;   
   4463                                              buf_tx_232[TR_OP_DATA+C1_DATA+3+cnt_bt]=0x00; //OK  
   4464                                              RdFromFleshToArr(A_C_PAR+OFS_TM_LINK_RES,&buf_tx_232[TR_OP_DATA+C1_DATA+4+cnt_bt],2);
   \                     ??CrossCallReturnLabel_586:
   \   0000057A   E90E               LDI     R16, 158
   \   0000057C   CDAA               RJMP    ??proc_config_13
   4465                                              
   4466                                              cnt_bt=cnt_bt+L_CONF_TM_LINK_RES+1+3;
   4467                                   break;    
   4468                           
   4469                                   
   4470                          case CONF_TP_TS:   
   4471                                      if((buf_rx_ppp[offset+C1_DATA] & 0x80)==0x80)
   \                     ??proc_config_71:
   \   0000057E   ....               RCALL   ?Subroutine93
   \                     ??CrossCallReturnLabel_695:
   \   00000580   FF07               SBRS    R16, 7
   \   00000582   C01E               RJMP    ??proc_config_72
   4472                                              {
   4473                                              if(*(unsigned int*)&buf_rx_ppp[ind+1]!=L_CONF_TP_TS)goto bad_com;
   \   00000584   ....               RCALL   ?Subroutine137
   \                     ??CrossCallReturnLabel_668:
   \   00000586   F009               BREQ    $+2+2
   \   00000588   C06D               RJMP    ??proc_config_2
   4474                                              //запись
   4475                                              
   4476                                              RdFromFleshToArr(A_SEQ_PAR,&buf[0],L_SEQ_PAR);
   \   0000058A   E04B               LDI     R20, 11
   \   0000058C   019E               MOVW    R19:R18, R29:R28
   \   0000058E   EA04               LDI     R16, 164
   \   00000590   ....               RCALL   ?Subroutine59
   4477                                              
   4478                                              temp=buf_rx_ppp[ind+3];
   \                     ??CrossCallReturnLabel_680:
   \   00000592   8183               LDD     R24, Z+3
   \   00000594   E090               LDI     R25, 0
   4479                                              if((temp!=0xff)&&(temp>2)){buf_tx_232[TR_OP_DATA+C1_DATA+3+cnt_bt]=0x01;goto nocorr_com;}
   \   00000596   3F8F               CPI     R24, 255
   \   00000598   0799               CPC     R25, R25
   \   0000059A   F031               BREQ    ??proc_config_73
   \   0000059C   3083               CPI     R24, 3
   \   0000059E   F008               BRCS    $+2+2
   \   000005A0   CD89               RJMP    ??proc_config_10
   4480                                              if(temp!=0xff)
   4481                                               {
   4482                                                buf[OFS_TP_TS]=temp; 
   \   000005A2   838F               STD     Y+7, R24
   4483                                                struct_tcc1.type=temp;
   \   000005A4   9380....           STS     (struct_tcc1 + 4), R24
   4484                                                }
   4485                                              
   4486                                              temp=buf_rx_ppp[ind+4];
   \                     ??proc_config_73:
   \   000005A8   8184               LDD     R24, Z+4
   4487                                              if ((temp!=0xff)&&(temp>1)){buf_tx_232[TR_OP_DATA+C1_DATA+3+cnt_bt]=0x01;goto nocorr_com;}
   \   000005AA   3F8F               CPI     R24, 255
   \   000005AC   4090               SBCI    R25, 0
   \   000005AE   F031               BREQ    ??proc_config_74
   \   000005B0   3082               CPI     R24, 2
   \   000005B2   F008               BRCS    $+2+2
   \   000005B4   CD7F               RJMP    ??proc_config_10
   4488                                              if(temp!=0xff)
   4489                                                {
   4490                                                buf[OFS_TP_TS+1]=temp; 
   \   000005B6   8788               STD     Y+8, R24
   4491                                                struct_tcc2.type=temp;
   \   000005B8   9380....           STS     (struct_tcc2 + 4), R24
   4492                                                }
   4493           
   4494                                              
   4495                                              *(unsigned int*)&buf[OFS_SEQ_PAR_CRC]=crc_m1(&buf[0],L_SEQ_PAR-2,0xffff);
   \                     ??proc_config_74:
   \   000005BC   ....               RCALL   ?Subroutine26
   4496                                              WrArrayToFlesh(A_SEQ_PAR, &buf[0],L_SEQ_PAR,0,0);
   4497                                              prov_ozu=crc_ozu();
   4498                                              
   4499                                             
   4500                                              
   4501                                              monitor_beg_state_seq(1);
   \                     ??CrossCallReturnLabel_36:
   \   000005BE   C003               RJMP    ??proc_config_75
   4502                                              
   4503                                              /*
   4504                                              if(Appl_seq_des!=1)
   4505                                              { 
   4506                                                if(flag_monitor_beg==0)
   4507                                                 {
   4508                                                  flag_monitor_beg=1; 
   4509                                                  monitor_beg_state_seq(1);
   4510                                                 }
   4511                                               }
   4512                                              */
   4513                                              
   4514                                              }
   4515                                      
   4516                                              else {if(*(unsigned int*)&buf_rx_ppp[ind+1]!=(L_CONF_TP_TS-2))goto bad_com;}
   \                     ??proc_config_72:
   \   000005C0   ....               RCALL   ??Subroutine193_0
   \                     ??CrossCallReturnLabel_653:
   \   000005C2   F009               BREQ    $+2+2
   \   000005C4   C04F               RJMP    ??proc_config_2
   4517                                               
   4518          
   4519                                              buf_tx_232[TR_OP_DATA+C1_DATA+cnt_bt]=buf_rx_ppp[ind];  //чтение
   \                     ??proc_config_75:
   \   000005C6   ....               RCALL   ?Subroutine39
   4520                                              *(unsigned int*)&buf_tx_232[TR_OP_DATA+C1_DATA+1+cnt_bt]=L_CONF_TP_TS+1;   
   4521                                              buf_tx_232[TR_OP_DATA+C1_DATA+3+cnt_bt]=0x00; //OK  
   4522                                              RdFromFleshToArr(A_SEQ_PAR+OFS_TP_TS,&buf_tx_232[TR_OP_DATA+C1_DATA+4+cnt_bt],2);
   \                     ??CrossCallReturnLabel_587:
   \   000005C8   EA0B               LDI     R16, 171
   \   000005CA   CD83               RJMP    ??proc_config_13
   4523                                              
   4524                                              cnt_bt=cnt_bt+L_CONF_TP_TS+1+3;
   4525                                        
   4526                                     break;
   4527                                   
   4528                           case CONF_TM_NAT_R:  
   4529                           
   4530                                            
   4531                                            if((buf_rx_ppp[offset+C1_DATA] & 0x80)==0x80)
   \                     ??proc_config_76:
   \   000005CC   ....               RCALL   ?Subroutine93
   \                     ??CrossCallReturnLabel_696:
   \   000005CE   FF07               SBRS    R16, 7
   \   000005D0   C00E               RJMP    ??proc_config_77
   4532                                              {
   4533                                              if(*(unsigned int*)&buf_rx_ppp[ind+1]!=L_CONF_TM_NAT_R)goto bad_com;
   \   000005D2   ....               RCALL   ?Subroutine157
   \                     ??CrossCallReturnLabel_678:
   \   000005D4   F009               BREQ    $+2+2
   \   000005D6   C046               RJMP    ??proc_config_2
   4534                                              //запись
   4535                                              temp=*(unsigned int*)&buf_rx_ppp[ind+3];
   \   000005D8   ....               RCALL   ?Subroutine238
   4536                                              
   4537                                              if (temp<10){buf_tx_232[TR_OP_DATA+C1_DATA+3+cnt_bt]=0x01;goto nocorr_com;}
   \                     ??CrossCallReturnLabel_660:
   \   000005DA   F408               BRCC    $+2+2
   \   000005DC   CD6B               RJMP    ??proc_config_10
   4538                                              
   4539                                              
   4540                                              Control.vol_nat_r=temp;
   \   000005DE   ....               RCALL   ?Subroutine305
   \                     ??CrossCallReturnLabel_774:
   \   000005E0   A782               STD     Z+42, R24
   \   000005E2   A793               STD     Z+43, R25
   4541                                              RdFromFleshToArr(A_C_PAR,&buf[0],L_C_PAR); 
   \   000005E4   ....               RCALL   ?Subroutine60
   4542                                              *(unsigned int*)&buf[OFS_NAT_R]=temp;
   \                     ??CrossCallReturnLabel_920:
   \   000005E6   878A               STD     Y+10, R24
   \   000005E8   879B               STD     Y+11, R25
   4543                                              *(unsigned int*)&buf[OFS_C_PAR_CRC]=crc_m1(&buf[0],L_C_PAR-2,0xffff);
   \   000005EA   ....               RCALL   ?Subroutine32
   4544                                              WrArrayToFlesh(A_C_PAR, &buf[0],L_C_PAR,0,0);
   4545                                              prov_ozu=crc_ozu();
   \                     ??CrossCallReturnLabel_414:
   \   000005EC   C002               RJMP    ??proc_config_78
   4546                                              }
   4547                                              else {if(*(unsigned int*)&buf_rx_ppp[ind+1]!=(L_CONF_TM_NAT_R-2))goto bad_com;}
   \                     ??proc_config_77:
   \   000005EE   ....               RCALL   ??Subroutine193_0
   \                     ??CrossCallReturnLabel_654:
   \   000005F0   F5C9               BRNE    ??proc_config_2
   4548                                               
   4549          
   4550                                              buf_tx_232[TR_OP_DATA+C1_DATA+cnt_bt]=buf_rx_ppp[ind];  //чтение
   \                     ??proc_config_78:
   \   000005F2   ....               RCALL   ?Subroutine39
   4551                                              *(unsigned int*)&buf_tx_232[TR_OP_DATA+C1_DATA+1+cnt_bt]=L_CONF_TM_NAT_R+1;   
   4552                                              buf_tx_232[TR_OP_DATA+C1_DATA+3+cnt_bt]=0x00; //OK  
   4553                                              RdFromFleshToArr(A_C_PAR+OFS_NAT_R,&buf_tx_232[TR_OP_DATA+C1_DATA+4+cnt_bt],2);
   \                     ??CrossCallReturnLabel_588:
   \   000005F4   EA00               LDI     R16, 160
   \   000005F6   CD6D               RJMP    ??proc_config_13
   4554                                              
   4555                                              cnt_bt=cnt_bt+L_CONF_TM_NAT_R+1+3;
   4556                                            break;        
   4557                            
   4558                          case CONF_TRAF :  
   4559                           
   4560                                            
   4561                                            if((buf_rx_ppp[offset+C1_DATA] & 0x80)==0x80)
   \                     ??proc_config_79:
   \   000005F8   ....               RCALL   ?Subroutine93
   \                     ??CrossCallReturnLabel_697:
   \   000005FA   FF07               SBRS    R16, 7
   \   000005FC   C019               RJMP    ??proc_config_80
   4562                                              {
   4563                                              if(*(unsigned int*)&buf_rx_ppp[ind+1]!=L_CONF_TRAF)goto bad_com;
   \   000005FE   ....               RCALL   ??Subroutine193_0
   \                     ??CrossCallReturnLabel_655:
   \   00000600   F589               BRNE    ??proc_config_2
   4564                                              //запись
   4565                                              
   4566                                              
   4567                                              cnt_incom=0;
   \   00000602   E000               LDI     R16, 0
   \   00000604   ....               RCALL   ?Subroutine242
   \                     ??CrossCallReturnLabel_398:
   \   00000606   8700               STD     Z+8, R16
   \   00000608   8701               STD     Z+9, R16
   \   0000060A   8702               STD     Z+10, R16
   \   0000060C   8703               STD     Z+11, R16
   4568                                              cnt_outcom=0;
   \   0000060E   8304               STD     Z+4, R16
   \   00000610   8305               STD     Z+5, R16
   \   00000612   8306               STD     Z+6, R16
   \   00000614   8307               STD     Z+7, R16
   4569                                              *(unsigned long int*)&buf[0]=burst_ds_r();
   \   00000616   ....               RCALL   ?Subroutine154
   4570                                              *(unsigned long int*)&buf[4]=cnt_outcom;
   \                     ??CrossCallReturnLabel_203:
   \   00000618   ....               RCALL   ?Subroutine242
   \                     ??CrossCallReturnLabel_399:
   \   0000061A   8104               LDD     R16, Z+4
   \   0000061C   8115               LDD     R17, Z+5
   \   0000061E   8126               LDD     R18, Z+6
   \   00000620   8137               LDD     R19, Z+7
   \   00000622   ....               RCALL   ?Subroutine245
   4571                                              *(unsigned long int*)&buf[8]=cnt_incom;
   \                     ??CrossCallReturnLabel_407:
   \   00000624   8500               LDD     R16, Z+8
   \   00000626   8511               LDD     R17, Z+9
   \   00000628   8522               LDD     R18, Z+10
   \   0000062A   8533               LDD     R19, Z+11
   \   0000062C   ....               RCALL   ?Subroutine34
   4572                                              *(unsigned int*)&buf[L_TRAF-2]=crc_m1(&buf[0],L_TRAF-2,0xffff);
   4573                                              WrArrayToFlesh(A_TRAF, &buf[0],L_TRAF,0,0);
   \                     ??CrossCallReturnLabel_891:
   \   0000062E   C002               RJMP    ??proc_config_81
   4574                                              }
   4575                                              else {if(*(unsigned int*)&buf_rx_ppp[ind+1]!=L_CONF_TRAF)goto bad_com;}
   \                     ??proc_config_80:
   \   00000630   ....               RCALL   ??Subroutine193_0
   \                     ??CrossCallReturnLabel_656:
   \   00000632   F4C1               BRNE    ??proc_config_2
   4576                                               
   4577          
   4578                                              buf_tx_232[TR_OP_DATA+C1_DATA+cnt_bt]=buf_rx_ppp[ind];  //чтение
   \                     ??proc_config_81:
   \   00000634   ....               RCALL   ?Subroutine115
   4579                                              *(unsigned int*)&buf_tx_232[TR_OP_DATA+C1_DATA+1+cnt_bt]=(L_TRAF-2)+1;   
   \                     ??CrossCallReturnLabel_552:
   \   00000636   E00D               LDI     R16, 13
   \   00000638   ....               RCALL   ?Subroutine252
   4580                                              buf_tx_232[TR_OP_DATA+C1_DATA+3+cnt_bt]=0x00; //OK  
   4581                                              RdFromFleshToArr(A_TRAF,&buf_tx_232[TR_OP_DATA+C1_DATA+4+cnt_bt],L_TRAF-2);
   \                     ??CrossCallReturnLabel_447:
   \   0000063A   E04C               LDI     R20, 12
   \   0000063C   E050               LDI     R21, 0
   \   0000063E   96D0               ADIW    R27:R26, 48
   \   00000640   019D               MOVW    R19:R18, R27:R26
   \   00000642   EF0E               LDI     R16, 254
   \   00000644   E714               LDI     R17, 116
   \   00000646   ....               RCALL   ??Subroutine290_0
   4582                                              
   4583                                              cnt_bt=cnt_bt+(L_TRAF-2)+1+3;
   \                     ??CrossCallReturnLabel_905:
   \   00000648   E100               LDI     R16, 16
   \   0000064A   CD45               RJMP    ??proc_config_14
   4584                                            break;                     
   4585                            
   4586                            case CONF_TEMPER :  
   4587                           
   4588                                            
   4589                                            if((buf_rx_ppp[offset+C1_DATA] & 0x80)==0x80)goto bad_com;
   \                     ??proc_config_82:
   \   0000064C   ....               RCALL   ?Subroutine98
   \                     ??CrossCallReturnLabel_115:
   \   0000064E   FD07               SBRC    R16, 7
   \   00000650   C009               RJMP    ??proc_config_2
   4590                                              
   4591                                              else {if(*(unsigned int*)&buf_rx_ppp[ind+1]!=L_CONF_TEMPER)goto bad_com;}
   \   00000652   ....               RCALL   ?Subroutine193
   \                     ??CrossCallReturnLabel_657:
   \   00000654   F439               BRNE    ??proc_config_2
   4592                                             
   4593                                              
   4594                                              buf_tx_232[TR_OP_DATA+C1_DATA+cnt_bt]=buf_rx_ppp[ind];  //чтение
   \   00000656   ....               RCALL   ?Subroutine29
   4595                                              *(unsigned int*)&buf_tx_232[TR_OP_DATA+C1_DATA+1+cnt_bt]=1+1;   
   4596                                              buf_tx_232[TR_OP_DATA+C1_DATA+3+cnt_bt]=0x00; //OK  
   4597                                              buf_tx_232[TR_OP_DATA+C1_DATA+4+cnt_bt]=temp_to_grad(temperatura);
   \                     ??CrossCallReturnLabel_443:
   \   00000658   ....               RCALL   ?Subroutine242
   \                     ??CrossCallReturnLabel_400:
   \   0000065A   ....               RCALL   ??Subroutine190_0
   \                     ??CrossCallReturnLabel_278:
   \   0000065C   ....               RCALL   temp_to_grad
   \   0000065E   01FD               MOVW    R31:R30, R27:R26
   \   00000660   AB00               STD     Z+48, R16
   4598                                              cnt_bt=cnt_bt+1+1+3;
   \   00000662   CDDC               RJMP    ??CrossCallReturnLabel_908
   4599                                              
   4600                                            break;                       
   4601                                            
   4602                                            
   4603                           default:     
   4604                            bad_com:buf_tx_232[TR_OP_DATA+C1_DATA+3+cnt_bt]=0x02; //не поддерживается   
   \                     ??proc_config_2:
   \   00000664   E002               LDI     R16, 2
   \                     ??proc_config_11:
   \   00000666   01FD               MOVW    R31:R30, R27:R26
   \   00000668   A707               STD     Z+47, R16
   4605                            nocorr_com: 
   4606                                   buf_tx_232[TR_OP_DATA+C1_DATA+cnt_bt]=buf_rx_ppp[ind];
   \   0000066A   ....               RCALL   ?Subroutine115
   4607                                   *(unsigned int*)&buf_tx_232[TR_OP_DATA+C1_DATA+1+cnt_bt]=1;                        
   \                     ??CrossCallReturnLabel_553:
   \   0000066C   E001               LDI     R16, 1
   \   0000066E   E010               LDI     R17, 0
   \   00000670   A705               STD     Z+45, R16
   \   00000672   A716               STD     Z+46, R17
   4608                                   cnt_bt=cnt_bt+4;  
   \   00000674   E004               LDI     R16, 4
   \                     ??proc_config_37:
   \   00000676   0EE0               ADD     R14, R16
   \   00000678   1EF1               ADC     R15, R17
   4609                                break;                  
   4610                           }
   4611                         
   4612                         
   4613           ind=ind+3+*(unsigned int*)&buf_rx_ppp[ind+1]; 
   \                     ??proc_config_4:
   \   0000067A   89EF               LDD     R30, Y+23
   \   0000067C   8DF8               LDD     R31, Y+24
   \   0000067E   9631               ADIW    R31:R30, 1
   \   00000680   890C               LDD     R16, Y+20
   \   00000682   891D               LDD     R17, Y+21
   \   00000684   0FE0               ADD     R30, R16
   \   00000686   1FF1               ADC     R31, R17
   \   00000688   8180               LD      R24, Z
   \   0000068A   8191               LDD     R25, Z+1
   \   0000068C   9603               ADIW    R25:R24, 3
   \   0000068E   0F08               ADD     R16, R24
   \   00000690   1F19               ADC     R17, R25
   \   00000692   8B0C               STD     Y+20, R16
   \   00000694   8B1D               STD     Y+21, R17
   4614           if(ind>=count_rx_ppp-3)return(cnt_bt);
   \   00000696   8D89               LDD     R24, Y+25
   \   00000698   8D9A               LDD     R25, Y+26
   \   0000069A   9703               SBIW    R25:R24, 3
   \   0000069C   1708               CP      R16, R24
   \   0000069E   0719               CPC     R17, R25
   \   000006A0   F408               BRCC    $+2+2
   \   000006A2   CCBD               RJMP    ??proc_config_0
   \   000006A4   0187               MOVW    R17:R16, R15:R14
   \   000006A6   966B               ADIW    R29:R28, 27
   \   000006A8   E1E0               LDI     R30, 16
   \   000006AA   ........           JMP     ?EPILOGUE_B16_L09
   4615           goto next_parametr;
   4616           } 

   \                                 In segment FARCODE, align 2, keep-with-next
   \                     ?Subroutine244:
   \   00000000   ....               LDI     R30, LOW(fl_rewrite)
   \   00000002   ....               LDI     R31, (fl_rewrite) >> 8
   \   00000004   9508               RET

   \                                 In segment FARCODE, align 2, keep-with-next
   \                     ?Subroutine243:
   \   00000000   8181               LDD     R24, Z+1
   \   00000002   8192               LDD     R25, Z+2
   \   00000004   3081               CPI     R24, 1
   \   00000006   E000               LDI     R16, 0
   \   00000008   0790               CPC     R25, R16
   \   0000000A   9508               RET

   \                                 In segment FARCODE, align 2, keep-with-next
   \                     ?Subroutine242:
   \   00000000   ....               LDI     R30, LOW(unix)
   \   00000002   ....               LDI     R31, (unix) >> 8
   \   00000004   9508               RET

   \                                 In segment FARCODE, align 2, keep-with-next
   \                     ?Subroutine241:
   \   00000000   8183               LDD     R24, Z+3
   \   00000002   8194               LDD     R25, Z+4
   \   00000004   3083               CPI     R24, 3
   \   00000006                      REQUIRE ?Subroutine282
   \   00000006                      ;               // Fall through to label ?Subroutine282

   \                                 In segment FARCODE, align 2, keep-with-next
   \                     ?Subroutine282:
   \   00000000   0792               CPC     R25, R18
   \   00000002   9508               RET

   \                                 In segment FARCODE, align 2, keep-with-next
   \                     ?Subroutine240:
   \   00000000   8183               LDD     R24, Z+3
   \   00000002   8194               LDD     R25, Z+4
   \   00000004   3085               CPI     R24, 5
   \   00000006   ....               RJMP    ?Subroutine282

   \                                 In segment FARCODE, align 2, keep-with-next
   \                     ?Subroutine238:
   \   00000000   8183               LDD     R24, Z+3
   \   00000002   8194               LDD     R25, Z+4
   \   00000004   308A               CPI     R24, 10
   \   00000006   ....               RJMP    ?Subroutine282

   \                                 In segment FARCODE, align 2, keep-with-next
   \                     ?Subroutine212:
   \   00000000   01AC               MOVW    R21:R20, R25:R24
   \   00000002   ........           JMP     ??Subroutine251_0

   \                                 In segment FARCODE, align 2, keep-with-next
   \                     ?Subroutine211:
   \   00000000   01F2               MOVW    R31:R30, R5:R4
   \   00000002   ........           JMP     ?Subroutine280

   \                                 In segment FARCODE, align 2, keep-with-next
   \                     ?Subroutine200:
   \   00000000   8101               LDD     R16, Z+1
   \   00000002   8112               LDD     R17, Z+2
   \   00000004   9508               RET

   \                                 In segment FARCODE, align 2, keep-with-next
   \                     ?Subroutine193:
   \   00000000   01F2               MOVW    R31:R30, R5:R4
   \                     ??Subroutine193_0:
   \   00000002   8101               LDD     R16, Z+1
   \   00000004   8112               LDD     R17, Z+2
   \   00000006   ....               RJMP    ?Subroutine281

   \                                 In segment FARCODE, align 2, keep-with-next
   \                     ?Subroutine157:
   \   00000000   8101               LDD     R16, Z+1
   \   00000002   8112               LDD     R17, Z+2
   \   00000004   3002               CPI     R16, 2
   \                     ??Subroutine157_0:
   \   00000006   E020               LDI     R18, 0
   \   00000008                      REQUIRE ?Subroutine283
   \   00000008                      ;               // Fall through to label ?Subroutine283

   \                                 In segment FARCODE, align 2, keep-with-next
   \                     ?Subroutine283:
   \   00000000   4010               SBCI    R17, 0
   \   00000002   9508               RET

   \                                 In segment FARCODE, align 2, keep-with-next
   \                     ?Subroutine137:
   \   00000000   8101               LDD     R16, Z+1
   \   00000002   8112               LDD     R17, Z+2
   \   00000004   3002               CPI     R16, 2
   \                     ??Subroutine137_0:
   \   00000006   E050               LDI     R21, 0
   \   00000008   ....               RJMP    ?Subroutine283

   \                                 In segment FARCODE, align 2, keep-with-next
   \                     ?Subroutine134:
   \   00000000   E042               LDI     R20, 2
   \   00000002   ....               RJMP    ?Subroutine308

   \                                 In segment FARCODE, align 2, keep-with-next
   \                     ?Subroutine115:
   \   00000000   01F2               MOVW    R31:R30, R5:R4
   \   00000002   8100               LD      R16, Z
   \   00000004                      REQUIRE ?Subroutine268
   \   00000004                      ;               // Fall through to label ?Subroutine268

   \                                 In segment FARCODE, align 2, keep-with-next
   \                     ?Subroutine103:
   \   00000000   8183               LDD     R24, Z+3
   \   00000002   8194               LDD     R25, Z+4
   \                     ??Subroutine103_0:
   \   00000004   2F08               MOV     R16, R24
   \   00000006   2B09               OR      R16, R25
   \   00000008   9508               RET

   \                                 In segment FARCODE, align 2, keep-with-next
   \                     ?Subroutine98:
   \   00000000   01FC               MOVW    R31:R30, R25:R24
   \   00000002   8102               LDD     R16, Z+2
   \   00000004   9508               RET

   \                                 In segment FARCODE, align 2, keep-with-next
   \                     ?Subroutine93:
   \   00000000   01FC               MOVW    R31:R30, R25:R24
   \   00000002   8102               LDD     R16, Z+2
   \   00000004                      REQUIRE ?Subroutine284
   \   00000004                      ;               // Fall through to label ?Subroutine284

   \                                 In segment FARCODE, align 2, keep-with-next
   \                     ?Subroutine284:
   \   00000000   01F2               MOVW    R31:R30, R5:R4
   \   00000002   9508               RET

   \                                 In segment FARCODE, align 2, keep-with-next
   \                     ?Subroutine65:
   \   00000000   E030               LDI     R19, 0
   \   00000002   01A9               MOVW    R21:R20, R19:R18
   \   00000004   ........           CALL    __eeput8_16
   \   00000008   E38A               LDI     R24, 58
   \   0000000A   E090               LDI     R25, 0
   \   0000000C   EF7F               LDI     R23, 255
   \   0000000E   E061               LDI     R22, 1
   \   00000010   E34A               LDI     R20, 58
   \   00000012   E050               LDI     R21, 0
   \   00000014   E020               LDI     R18, 0
   \   00000016   9508               RET

   \                                 In segment FARCODE, align 2, keep-with-next
   \                     ?Subroutine63:
   \   00000000   E020               LDI     R18, 0
   \   00000002   8390               ST      Z, R25
   \   00000004   9601               ADIW    R25:R24, 1
   \   00000006   0F08               ADD     R16, R24
   \   00000008   1F19               ADC     R17, R25
   \   0000000A   01F8               MOVW    R31:R30, R17:R16
   \   0000000C   ....               SUBI    R30, LOW((-(buf_tx_232) & 0xFFFF))
   \   0000000E   ....               SBCI    R31, (-(buf_tx_232) & 0xFFFF) >> 8
   \   00000010   8180               LD      R24, Z
   \   00000012   E090               LDI     R25, 0
   \   00000014   E030               LDI     R19, 0
   \   00000016   C004               RJMP    ??Subroutine63_0
   \                     ??Subroutine63_1:
   \   00000018   8141               LDD     R20, Z+1
   \   0000001A   8340               ST      Z, R20
   \   0000001C   5F2F               SUBI    R18, 255
   \   0000001E   4F3F               SBCI    R19, 255
   \                     ??Subroutine63_0:
   \   00000020   ....               LDI     R30, LOW(buf_tx_232)
   \   00000022   ....               LDI     R31, (buf_tx_232) >> 8
   \   00000024   01A9               MOVW    R21:R20, R19:R18
   \   00000026   0F40               ADD     R20, R16
   \   00000028   1F51               ADC     R21, R17
   \   0000002A   0FE4               ADD     R30, R20
   \   0000002C   1FF5               ADC     R31, R21
   \   0000002E   1728               CP      R18, R24
   \   00000030   0739               CPC     R19, R25
   \   00000032   F390               BRCS    ??Subroutine63_1
   \   00000034   9508               RET

   \                                 In segment FARCODE, align 2, keep-with-next
   \                     ?Subroutine59:
   \   00000000   E010               LDI     R17, 0
   \   00000002   ........           CALL    RdFromFleshToArr
   \   00000006   ....               RJMP    ?Subroutine284

   \                                 In segment FARCODE, align 2, keep-with-next
   \                     ?Subroutine57:
   \   00000000   E010               LDI     R17, 0
   \   00000002   ........           CALL    RdFromFleshToArr
   \   00000006   838E               STD     Y+6, R24
   \   00000008   839F               STD     Y+7, R25
   \   0000000A   9508               RET

   \                                 In segment FARCODE, align 2, keep-with-next
   \                     ?Subroutine56:
   \   00000000   E010               LDI     R17, 0
   \   00000002   ........           CALL    RdFromFleshToArr
   \   00000006   838C               STD     Y+4, R24
   \   00000008   839D               STD     Y+5, R25
   \   0000000A   9508               RET

   \                                 In segment FARCODE, align 2, keep-with-next
   \                     ?Subroutine50:
   \   00000000   E010               LDI     R17, 0
   \   00000002   ........           CALL    RdFromFleshToArr
   \   00000006   01F2               MOVW    R31:R30, R5:R4
   \   00000008   8100               LD      R16, Z
   \   0000000A   ....               RJMP    ?Subroutine268

   \                                 In segment FARCODE, align 2, keep-with-next
   \                     ?Subroutine252:
   \   00000000   E010               LDI     R17, 0
   \   00000002   A705               STD     Z+45, R16
   \   00000004   A716               STD     Z+46, R17
   \   00000006   A717               STD     Z+47, R17
   \   00000008   9508               RET

   \                                 In segment FARCODE, align 2, keep-with-next
   \                     ?Subroutine39:
   \   00000000   01F2               MOVW    R31:R30, R5:R4
   \   00000002   8100               LD      R16, Z
   \   00000004   01FD               MOVW    R31:R30, R27:R26
   \   00000006   A704               STD     Z+44, R16
   \   00000008   E003               LDI     R16, 3
   \   0000000A   E010               LDI     R17, 0
   \   0000000C   A705               STD     Z+45, R16
   \   0000000E   A716               STD     Z+46, R17
   \   00000010   A717               STD     Z+47, R17
   \   00000012   E042               LDI     R20, 2
   \   00000014   E050               LDI     R21, 0
   \   00000016   96D0               ADIW    R27:R26, 48
   \   00000018   ........           JMP     ?Subroutine273

   \                                 In segment FARCODE, align 2, keep-with-next
   \                     ?Subroutine37:
   \   00000000   E070               LDI     R23, 0
   \   00000002   E060               LDI     R22, 0
   \   00000004   01AC               MOVW    R21:R20, R25:R24
   \   00000006   0192               MOVW    R19:R18, R5:R4
   \   00000008   5F2D               SUBI    R18, 253
   \   0000000A   ........           JMP     ??Subroutine251_1

   \                                 In segment FARCODE, align 2, keep-with-next
   \                     ?Subroutine36:
   \   00000000   01AC               MOVW    R21:R20, R25:R24
   \   00000002   E060               LDI     R22, 0
   \   00000004   E070               LDI     R23, 0
   \   00000006   E30C               LDI     R16, 60
   \   00000008   E010               LDI     R17, 0
   \   0000000A   E030               LDI     R19, 0
   \   0000000C   ........           CALL    ?L_EC_MUL_L03
   \   00000010   ....               RJMP    ?Subroutine305

   \                                 In segment FARCODE, align 2, keep-with-next
   \                     ?Subroutine35:
   \   00000000   EF4F               LDI     R20, 255
   \   00000002   EF5F               LDI     R21, 255
   \   00000004   E028               LDI     R18, 8
   \   00000006   E030               LDI     R19, 0
   \   00000008   018E               MOVW    R17:R16, R29:R28
   \   0000000A   ....               RCALL   ?Subroutine306
   \                     ??__CCRETURN_3:
   \                     ??Subroutine35_0:
   \   0000000C   8708               STD     Y+8, R16
   \   0000000E   8719               STD     Y+9, R17
   \   00000010   E070               LDI     R23, 0
   \   00000012   E060               LDI     R22, 0
   \   00000014   E04A               LDI     R20, 10
   \   00000016   E050               LDI     R21, 0
   \   00000018   019E               MOVW    R19:R18, R29:R28
   \   0000001A   E80C               LDI     R16, 140
   \   0000001C   ....               RJMP    ?Subroutine289

   \                                 In segment FARCODE, align 2, keep-with-next
   \                     ?Subroutine33:
   \   00000000   EF4F               LDI     R20, 255
   \   00000002   EF5F               LDI     R21, 255
   \   00000004   E029               LDI     R18, 9
   \   00000006   E030               LDI     R19, 0
   \   00000008   018E               MOVW    R17:R16, R29:R28
   \   0000000A   ....               RCALL   ?Subroutine306
   \                     ??__CCRETURN_5:
   \                     ??Subroutine33_0:
   \   0000000C   8709               STD     Y+9, R16
   \   0000000E   871A               STD     Y+10, R17
   \   00000010   E070               LDI     R23, 0
   \   00000012   E060               LDI     R22, 0
   \   00000014   E04B               LDI     R20, 11
   \   00000016   E050               LDI     R21, 0
   \   00000018   019E               MOVW    R19:R18, R29:R28
   \   0000001A   EA04               LDI     R16, 164
   \   0000001C                      REQUIRE ?Subroutine249
   \   0000001C                      ;               // Fall through to label ?Subroutine249

   \                                 In segment FARCODE, align 2, keep-with-next
   \                     ?Subroutine249:
   \   00000000   E010               LDI     R17, 0
   \   00000002   ........           CALL    WrArrayToFlesh
   \   00000006   ....               RCALL   ?Subroutine307
   \                     ??__CCRETURN_6:
   \                     ??Subroutine249_0:
   \   00000008   ....               LDI     R30, LOW(unix)
   \   0000000A   ....               LDI     R31, (unix) >> 8
   \   0000000C   8704               STD     Z+12, R16
   \   0000000E   8715               STD     Z+13, R17
   \   00000010   9508               RET

   \                                 In segment FARCODE, align 2, keep-with-next
   \                     ?Subroutine32:
   \   00000000   EF4F               LDI     R20, 255
   \   00000002   EF5F               LDI     R21, 255
   \   00000004   E02C               LDI     R18, 12
   \   00000006   E030               LDI     R19, 0
   \   00000008   018E               MOVW    R17:R16, R29:R28
   \   0000000A   ....               RCALL   ?Subroutine306
   \                     ??__CCRETURN_7:
   \                     ??Subroutine32_0:
   \   0000000C   870C               STD     Y+12, R16
   \   0000000E   871D               STD     Y+13, R17
   \   00000010   E070               LDI     R23, 0
   \   00000012   E060               LDI     R22, 0
   \   00000014   E04E               LDI     R20, 14
   \   00000016   E050               LDI     R21, 0
   \   00000018   019E               MOVW    R19:R18, R29:R28
   \   0000001A   E906               LDI     R16, 150
   \   0000001C   ....               RJMP    ?Subroutine249

   \                                 In segment FARCODE, align 2, keep-with-next
   \                     ?Subroutine30:
   \   00000000   E100               LDI     R16, 16
   \   00000002   E217               LDI     R17, 39
   \   00000004   ....               RJMP    ??Subroutine289_0

   \                                 In segment FARCODE, align 2, keep-with-next
   \                     ?Subroutine29:
   \   00000000   8100               LD      R16, Z
   \   00000002   01FD               MOVW    R31:R30, R27:R26
   \   00000004   A704               STD     Z+44, R16
   \   00000006   E002               LDI     R16, 2
   \   00000008   ....               RJMP    ?Subroutine252

   \                                 In segment FARCODE, align 2, keep-with-next
   \                     ?Subroutine26:
   \   00000000   EF4F               LDI     R20, 255
   \   00000002   EF5F               LDI     R21, 255
   \   00000004   E029               LDI     R18, 9
   \   00000006   E030               LDI     R19, 0
   \   00000008   018E               MOVW    R17:R16, R29:R28
   \   0000000A   ....               RCALL   ?Subroutine306
   \                     ??__CCRETURN_8:
   \                     ??Subroutine26_0:
   \   0000000C   8709               STD     Y+9, R16
   \   0000000E   871A               STD     Y+10, R17
   \   00000010   E070               LDI     R23, 0
   \   00000012   E060               LDI     R22, 0
   \   00000014   E04B               LDI     R20, 11
   \   00000016   E050               LDI     R21, 0
   \   00000018   019E               MOVW    R19:R18, R29:R28
   \   0000001A   EA04               LDI     R16, 164
   \   0000001C   E010               LDI     R17, 0
   \   0000001E   ........           CALL    WrArrayToFlesh
   \   00000022   ....               RCALL   ?Subroutine307
   \                     ??__CCRETURN_9:
   \                     ??Subroutine26_1:
   \   00000024   ....               LDI     R30, LOW(unix)
   \   00000026   ....               LDI     R31, (unix) >> 8
   \   00000028   8704               STD     Z+12, R16
   \   0000002A   8715               STD     Z+13, R17
   \   0000002C   E001               LDI     R16, 1
   \   0000002E   ........           JMP     monitor_beg_state_seq

   \                                 In segment FARCODE, align 2, keep-with-next
   \                     ?Subroutine21:
   \   00000000   8100               LD      R16, Z
   \   00000002   01FD               MOVW    R31:R30, R27:R26
   \   00000004   A704               STD     Z+44, R16
   \   00000006   E001               LDI     R16, 1
   \   00000008   E010               LDI     R17, 0
   \   0000000A   A705               STD     Z+45, R16
   \   0000000C   A716               STD     Z+46, R17
   \   0000000E   A717               STD     Z+47, R17
   \   00000010   E004               LDI     R16, 4
   \   00000012   0EE0               ADD     R14, R16
   \   00000014   1EF1               ADC     R15, R17
   \   00000016   9508               RET

   \                                 In segment FARCODE, align 2, keep-with-next
   \                     ?Subroutine8:
   \   00000000   8100               LD      R16, Z
   \   00000002   01FD               MOVW    R31:R30, R27:R26
   \   00000004   A704               STD     Z+44, R16
   \   00000006   E000               LDI     R16, 0
   \   00000008   A707               STD     Z+47, R16
   \   0000000A   E34C               LDI     R20, 60
   \   0000000C   ....               RJMP    ?Subroutine308

   \                                 In segment FARCODE, align 2, keep-with-next
   \                     ?Subroutine7:
   \   00000000   8100               LD      R16, Z
   \   00000002   01FD               MOVW    R31:R30, R27:R26
   \   00000004   A704               STD     Z+44, R16
   \   00000006   E000               LDI     R16, 0
   \   00000008   A707               STD     Z+47, R16
   \   0000000A   ........           JMP     ??Subroutine251_0

   \                                 In segment FARCODE, align 2, keep-with-next
   \                     ?Subroutine239:
   \   00000000   5F0F               SUBI    R16, 255
   \   00000002   4F1F               SBCI    R17, 255
   \   00000004   9508               RET

   \                                 In segment FARCODE, align 2, keep-with-next
   \                     ?Subroutine245:
   \   00000000   830C               STD     Y+4, R16
   \   00000002   831D               STD     Y+5, R17
   \   00000004   832E               STD     Y+6, R18
   \   00000006   833F               STD     Y+7, R19
   \   00000008   9508               RET

   \                                 In segment FARCODE, align 2, keep-with-next
   \                     ?Subroutine164:
   \   00000000   ........           JMP     burst_ds_r
   4617          
   4618          
   4619          
   4620          ///!!!!!!!!!!!!!!!!!!!!!!!!!!!!!!!!!!!!!!!!!!!!!!!!!!Работа с портом RS485-1
   4621          

   \                                 In segment FARCODE, align 2, keep-with-next
   4622          void monitor1_tx_rs485_1(void)
   \                     monitor1_tx_rs485_1:
   4623          {
   \   00000000   ....               RCALL   ?Subroutine101
   4624            unsigned int i;
   4625            if(fl_485_1.busy==1)return;
   \                     ??CrossCallReturnLabel_122:
   \   00000002   ....               LDI     R30, LOW(fl_485_1)
   \   00000004   ....               LDI     R31, (fl_485_1) >> 8
   \   00000006   8100               LD      R16, Z
   \   00000008   FD00               SBRC    R16, 0
   \   0000000A   C03E               RJMP    ??CrossCallReturnLabel_928
   4626            if((fl_485_1.tx==1)||(Appl_RS485_1.fl_data_buf==TRUE))
   \   0000000C   ....               LDI     R26, LOW(Appl_RS485_1)
   \   0000000E   ....               LDI     R27, (Appl_RS485_1) >> 8
   \   00000010   FD03               SBRC    R16, 3
   \   00000012   C004               RJMP    ??monitor1_tx_rs485_1_0
   \   00000014   910C               LD      R16, X
   \   00000016   3001               CPI     R16, 1
   \   00000018   F5B9               BRNE    ??CrossCallReturnLabel_928
   \   0000001A   C002               RJMP    ??monitor1_tx_rs485_1_1
   4627              {
   4628              if(fl_485_1.tx==1)fl_485_1.tx=0;
   \                     ??monitor1_tx_rs485_1_0:
   \   0000001C   7F07               ANDI    R16, 0xF7
   \   0000001E   8300               ST      Z, R16
   4629              if(Appl_RS485_1.fl_data_buf==TRUE)Appl_RS485_1.fl_data_buf=FALSE;
   \                     ??monitor1_tx_rs485_1_1:
   \   00000020   910C               LD      R16, X
   \   00000022   3001               CPI     R16, 1
   \   00000024   F411               BRNE    ??monitor1_tx_rs485_1_2
   \   00000026   E000               LDI     R16, 0
   \   00000028   930C               ST      X, R16
   4630              fl_485_1.busy=1;
   \                     ??monitor1_tx_rs485_1_2:
   \   0000002A   ....               RCALL   ?Subroutine90
   4631              fl_tx485.mon1=1;
   \                     ??CrossCallReturnLabel_556:
   \   0000002C   6001               ORI     R16, 0x01
   \   0000002E   AF02               STD     Z+58, R16
   4632              Appl_RS485_1.dst_tek=Appl_RS485_1.dst_buf;
   \   00000030   8103               LDD     R16, Z+3
   \   00000032   8114               LDD     R17, Z+4
   \   00000034   ....               RCALL   ??Subroutine198_0
   4633              Appl_RS485_1.id_tek=Appl_RS485_1.id_buf;
   \                     ??CrossCallReturnLabel_299:
   \   00000036   8505               LDD     R16, Z+13
   \   00000038   8B00               STD     Z+16, R16
   4634              Rs485_1.cnt_bt_rx_tx=Appl_RS485_1.ln_data_buf;
   \   0000003A   ....               LDI     R16, LOW(Rs485_1)
   \   0000003C   ....               LDI     R17, (Rs485_1) >> 8
   \   0000003E   8121               LDD     R18, Z+1
   \   00000040   8132               LDD     R19, Z+2
   \   00000042   ....               RCALL   ?Subroutine67
   4635              for(i=0;i<Rs485_1.cnt_bt_rx_tx;i++)Rs485_1_buf_rx_tx[i]=Appl_RS485_1_data_buf[i];
   \                     ??CrossCallReturnLabel_64:
   \   00000044   C009               RJMP    ??monitor1_tx_rs485_1_3
   \                     ??monitor1_tx_rs485_1_4:
   \   00000046   01FC               MOVW    R31:R30, R25:R24
   \   00000048   ....               SUBI    R30, LOW((-(Appl_RS485_1_data_buf) & 0xFFFF))
   \   0000004A   ....               SBCI    R31, (-(Appl_RS485_1_data_buf) & 0xFFFF) >> 8
   \   0000004C   8120               LD      R18, Z
   \   0000004E   01FC               MOVW    R31:R30, R25:R24
   \   00000050   ....               SUBI    R30, LOW((-(Rs485_1_buf_rx_tx) & 0xFFFF))
   \   00000052   ....               SBCI    R31, (-(Rs485_1_buf_rx_tx) & 0xFFFF) >> 8
   \   00000054   8320               ST      Z, R18
   \   00000056   9601               ADIW    R25:R24, 1
   \                     ??monitor1_tx_rs485_1_3:
   \   00000058   ....               RCALL   ?Subroutine71
   \                     ??CrossCallReturnLabel_70:
   \   0000005A   F3A8               BRCS    ??monitor1_tx_rs485_1_4
   4636              Rs485_1.p_data485=&Rs485_1_buf_rx_tx[0];
   \   0000005C   ....               LDI     R18, LOW(Rs485_1_buf_rx_tx)
   \   0000005E   ....               LDI     R19, (Rs485_1_buf_rx_tx) >> 8
   \   00000060   8B20               STD     Z+16, R18
   \   00000062   8B31               STD     Z+17, R19
   4637              //здесь должна быть функция настройки порта по контексту.
   4638              
   4639              if (run_cont_485_1(&Appl_RS485_1.cont_buf[0])==1)
   \   00000064   018D               MOVW    R17:R16, R27:R26
   \   00000066   5F0B               SUBI    R16, 251
   \   00000068   4F1F               SBCI    R17, 255
   \   0000006A   ....               RCALL   run_cont_485_1
   \   0000006C   3001               CPI     R16, 1
   \   0000006E   F411               BRNE    ??monitor1_tx_rs485_1_5
   4640                 {
   4641                 fl_485_1.busy=0;
   \   00000070   ....               RCALL   ?Subroutine299
   4642                 fl_tx485.mon1=0;
   4643                 return;
   \                     ??CrossCallReturnLabel_728:
   \   00000072   C00A               RJMP    ??CrossCallReturnLabel_928
   4644                 }
   4645              
   4646              /*
   4647              //UBRR1H=R9600_H;
   4648              //UBRR1L=R9600_L;  
   4649              UBRR1H=R4800_H;
   4650              UBRR1L=R4800_L;   
   4651              UCSR1B=UCSR1B & ~(RXCIE | RXEN);      
   4652              Rs485_1.cnt_tm_tx_out=0;
   4653              Rs485_1.vol_tm_tx_out=5; // 5 миллисекунд
   4654              Rs485_1.cnt_tm_pre_tx=20;// 20 миллисекунд    
   4655              Rs485_1.cnt_tm_rx_out=0;
   4656              Rs485_1.vol_tm_rx_out=5;// 5 миллисекунд   
   4657              Rs485_1.cnt_tm_out=0;
   4658              Rs485_1.vol_tm_out=1000; // 1000 миллисекунд
   4659              */
   4660              S3_RD;   
   \                     ??monitor1_tx_rs485_1_5:
   \   00000074   9A44               SBI     0x08, 0x04
   \   00000076   9845               CBI     0x08, 0x05
   4661              UCSR3B=UCSR3B & ~(RXCIE | RXEN); 
   \   00000078   91000131           LDS     R16, 305
   \   0000007C   760F               ANDI    R16, 0x6F
   \   0000007E   93000131           STS     305, R16
   4662              SET_RTS1;  //rts на передачу
   \   00000082   ....               RCALL   ??Subroutine168_0
   \                     ??CrossCallReturnLabel_234:
   \   00000084   6004               ORI     R16, 0x04
   \   00000086   ....               RCALL   ?Subroutine170
   \                     ??CrossCallReturnLabel_928:
   \   00000088   ....               RJMP    ?Subroutine286
   4663               
   4664              }
   4665          }

   \                                 In segment FARCODE, align 2, keep-with-next
   \                     ?Subroutine299:
   \   00000000   ....               LDI     R30, LOW(fl_485_1)
   \   00000002   ....               LDI     R31, (fl_485_1) >> 8
   \   00000004   8100               LD      R16, Z
   \   00000006   7F0E               ANDI    R16, 0xFE
   \   00000008   8300               ST      Z, R16
   \   0000000A   01FD               MOVW    R31:R30, R27:R26
   \   0000000C   AD02               LDD     R16, Z+58
   \   0000000E   7F0E               ANDI    R16, 0xFE
   \   00000010   ....               RJMP    ??Subroutine248_0

   \                                 In segment FARCODE, align 2, keep-with-next
   \                     ?Subroutine248:
   \   00000000   ....               LDI     R30, LOW(fl_232_2)
   \   00000002   ....               LDI     R31, (fl_232_2) >> 8
   \   00000004   8100               LD      R16, Z
   \   00000006   7F0E               ANDI    R16, 0xFE
   \   00000008   8300               ST      Z, R16
   \   0000000A   ....               LDI     R30, LOW(Appl_RS485_1)
   \   0000000C   ....               LDI     R31, (Appl_RS485_1) >> 8
   \   0000000E   AD02               LDD     R16, Z+58
   \   00000010   7F0B               ANDI    R16, 0xFB
   \                     ??Subroutine248_0:
   \   00000012   AF02               STD     Z+58, R16
   \   00000014   9508               RET

   \                                 In segment FARCODE, align 2, keep-with-next
   \                     ?Subroutine90:
   \   00000000   8100               LD      R16, Z
   \   00000002   6001               ORI     R16, 0x01
   \   00000004   8300               ST      Z, R16
   \   00000006                      REQUIRE ?Subroutine269
   \   00000006                      ;               // Fall through to label ?Subroutine269

   \                                 In segment FARCODE, align 2, keep-with-next
   \                     ?Subroutine269:
   \   00000000   01FD               MOVW    R31:R30, R27:R26
   \   00000002   AD02               LDD     R16, Z+58
   \   00000004   9508               RET

   \                                 In segment FARCODE, align 2, keep-with-next
   \                     ?Subroutine71:
   \   00000000   01F8               MOVW    R31:R30, R17:R16
   \   00000002   8120               LD      R18, Z
   \   00000004   8131               LDD     R19, Z+1
   \   00000006   1782               CP      R24, R18
   \   00000008   0793               CPC     R25, R19
   \   0000000A   9508               RET
   4666          
   4667          

   \                                 In segment FARCODE, align 2, keep-with-next
   4668          void monitor1_tm_rs485_1(void)
   \                     monitor1_tm_rs485_1:
   4669            {
   \   00000000   ....               RCALL   ?Subroutine176
   4670            if(fl_tx485.mon1==0)return;
   4671            if(fl_ip.act_ip_end!=1)return; 
   4672            if(fl_485_1.tm_out==0)return;
   \                     ??CrossCallReturnLabel_256:
   \   00000002   ....               LDI     R26, LOW(Appl_RS485_1)
   \   00000004   ....               LDI     R27, (Appl_RS485_1) >> 8
   \   00000006   01FD               MOVW    R31:R30, R27:R26
   \   00000008   AD02               LDD     R16, Z+58
   \   0000000A   ....               RCALL   ?Subroutine215
   \                     ??CrossCallReturnLabel_454:
   \   0000000C   F061               BREQ    ??CrossCallReturnLabel_729
   \   0000000E   9100....           LDS     R16, fl_485_1
   \   00000012   FF02               SBRS    R16, 2
   \   00000014   C008               RJMP    ??CrossCallReturnLabel_729
   4673             
   4674            // __disable_interrupt();
   4675            CLR_RTS1;
   \   00000016   ....               RCALL   ?Subroutine167
   4676            //__enable_interrupt();
   4677            
   4678            clr_cntr_nat();
   4679            clr_cntr_link();
   4680            
   4681            fl_485_1.tm_out=0; 
   \                     ??CrossCallReturnLabel_228:
   \   00000018   ....               RCALL   ?Subroutine125
   4682            if(PINE & DCD0) send_err485(NUM_RS485_1,RS_NO_LINK,Appl_RS485_1.id_tek,Appl_RS485_1.dst_tek);// игнорировать передачу если нет GPRS канала
   \                     ??CrossCallReturnLabel_863:
   \   0000001A   9B66               SBIS    0x0C, 0x06
   \   0000001C   C003               RJMP    ??CrossCallReturnLabel_720
   \   0000001E   ....               RCALL   ?Subroutine113
   \                     ??CrossCallReturnLabel_477:
   \   00000020   E011               LDI     R17, 1
   \   00000022   ....               RCALL   ?Subroutine23
   4683            fl_485_1.busy=0; 
   \                     ??CrossCallReturnLabel_720:
   \   00000024   ....               RCALL   ?Subroutine299
   4684            fl_tx485.mon1=0;
   4685            }
   \                     ??CrossCallReturnLabel_729:
   \   00000026                      REQUIRE ?Subroutine184
   \   00000026                      ;               // Fall through to label ?Subroutine184

   \                                 In segment FARCODE, align 2, keep-with-next
   \                     ?Subroutine215:
   \   00000000   7001               ANDI    R16, 0x01
   \   00000002   ........           JMP     ?Subroutine254

   \                                 In segment FARCODE, align 2, keep-with-next
   \                     ?Subroutine167:
   \   00000000   91000105           LDS     R16, 261
   \   00000004   7F0B               ANDI    R16, 0xFB
   \   00000006   93000105           STS     261, R16
   \   0000000A   ....               RCALL   ?Subroutine303
   \                     ??__CCRETURN_10:
   \                     ??Subroutine167_0:
   \   0000000C   ....               RCALL   ?Subroutine304
   \                     ??__CCRETURN_11:
   \                     ??Subroutine167_1:
   \   0000000E   ....               LDI     R30, LOW(fl_485_1)
   \   00000010   ....               LDI     R31, (fl_485_1) >> 8
   \   00000012   9508               RET

   \                                 In segment FARCODE, align 2, keep-with-next
   \                     ?Subroutine113:
   \   00000000   01FD               MOVW    R31:R30, R27:R26
   \   00000002                      REQUIRE ?Subroutine257
   \   00000002                      ;               // Fall through to label ?Subroutine257

   \                                 In segment FARCODE, align 2, keep-with-next
   \                     ?Subroutine257:
   \   00000000   8546               LDD     R20, Z+14
   \   00000002   8557               LDD     R21, Z+15
   \   00000004   8920               LDD     R18, Z+16
   \   00000006   9508               RET

   \                                 In segment FARCODE, align 2, keep-with-next
   \                     ?Subroutine23:
   \   00000000   E001               LDI     R16, 1
   \   00000002                      REQUIRE ?Subroutine295
   \   00000002                      ;               // Fall through to label ?Subroutine295

   \                                 In segment FARCODE, align 2, keep-with-next
   \                     ?Subroutine295:
   \   00000000   ....               RJMP    send_err485

   \                                 In segment FARCODE, align 2, keep-with-next
   \                     ?Subroutine125:
   \   00000000   8100               LD      R16, Z
   \   00000002   7F0B               ANDI    R16, 0xFB
   \   00000004                      REQUIRE ?Subroutine279
   \   00000004                      ;               // Fall through to label ?Subroutine279
   4686          
   4687          
   4688          

   \                                 In segment FARCODE, align 2, keep-with-next
   \                     ?Subroutine302:
   \   00000000   ........           JMP     ??Subroutine247_0

   \                                 In segment FARCODE, align 2, keep-with-next
   4689          void monitor1_rec_rs485_1(void)
   \                     monitor1_rec_rs485_1:
   4690            {
   \   00000000   ....               RCALL   ?Subroutine100
   4691            unsigned int i;
   4692            if(fl_tx485.mon1==0)return;
   4693            if(fl_ip.act_ip_end!=1)return; 
   4694            if(fl_485_1.rec==0)return;
   \                     ??CrossCallReturnLabel_554:
   \   00000002   ....               RCALL   ?Subroutine215
   \                     ??CrossCallReturnLabel_455:
   \   00000004   F1A9               BREQ    ??CrossCallReturnLabel_14
   \   00000006   ....               LDI     R30, LOW(fl_485_1)
   \   00000008   ....               LDI     R31, (fl_485_1) >> 8
   \   0000000A   8100               LD      R16, Z
   \   0000000C   FF01               SBRS    R16, 1
   \   0000000E   C030               RJMP    ??CrossCallReturnLabel_14
   4695          
   4696            fl_485_1.rec=0;
   \   00000010   ....               RCALL   ?Subroutine187
   4697            
   4698           // __disable_interrupt();
   4699            CLR_RTS1;
   \                     ??CrossCallReturnLabel_872:
   \   00000012   ....               RCALL   ?Subroutine167
   4700           // __enable_interrupt();
   4701            
   4702            clr_cntr_nat();
   4703            clr_cntr_link();
   4704            
   4705            
   4706            if((PINE & DCD0)==0)
   \                     ??CrossCallReturnLabel_229:
   \   00000014   8100               LD      R16, Z
   \   00000016   9966               SBIC    0x0C, 0x06
   \   00000018   C003               RJMP    ??monitor1_rec_rs485_1_0
   4707            {
   4708               fl_485_1.over=0;         // игнорировать передачу если нет GPRS канала
   \   0000001A   ....               RCALL   ?Subroutine180
   4709               Rs485_1.cnt_bt_rx_tx=0;
   \                     ??CrossCallReturnLabel_866:
   \   0000001C   ....               RCALL   ?Subroutine3
   4710               fl_485_1.busy=0;
   4711               fl_tx485.mon1=0; 
   4712               return; 
   \                     ??CrossCallReturnLabel_726:
   \   0000001E   C028               RJMP    ??CrossCallReturnLabel_14
   4713            }
   4714            
   4715            
   4716            
   4717            if(fl_485_1.over==1)
   \                     ??monitor1_rec_rs485_1_0:
   \   00000020   FF04               SBRS    R16, 4
   \   00000022   C005               RJMP    ??monitor1_rec_rs485_1_1
   4718               {
   4719               fl_485_1.over=0;
   \   00000024   ....               RCALL   ?Subroutine180
   4720               send_err485(NUM_RS485_1,RS_OVER_BUF_RX,Appl_RS485_1.id_tek,Appl_RS485_1.dst_tek);
   \                     ??CrossCallReturnLabel_867:
   \   00000026   ....               RCALL   ?Subroutine113
   \                     ??CrossCallReturnLabel_478:
   \   00000028   E014               LDI     R17, 4
   \   0000002A   ....               RCALL   ?Subroutine23
   4721               Rs485_1.cnt_bt_rx_tx=0;
   \                     ??CrossCallReturnLabel_719:
   \   0000002C   CFF7               RJMP    ??CrossCallReturnLabel_866
   4722               fl_485_1.busy=0;
   4723               fl_tx485.mon1=0; 
   4724               return; 
   4725               }
   4726              
   4727              //!!!!!!!!!!!!!! здесь бы надо проверк на длину буфера для PPP
   4728             if(Rs485_1.cnt_bt_rx_tx+70>VOL_TX_PPP)
   \                     ??monitor1_rec_rs485_1_1:
   \   0000002E   ....               LDI     R30, LOW(Rs485_1)
   \   00000030   ....               LDI     R31, (Rs485_1) >> 8
   \   00000032   ....               RCALL   ?Subroutine123
   \                     ??CrossCallReturnLabel_157:
   \   00000034   F028               BRCS    ??monitor1_rec_rs485_1_2
   4729                {
   4730                send_err485(NUM_RS485_1,RS_OVER_BUF_PPP_TX,Appl_RS485_1.id_tek,Appl_RS485_1.dst_tek);
   \   00000036   ....               RCALL   ?Subroutine113
   \                     ??CrossCallReturnLabel_479:
   \   00000038   E017               LDI     R17, 7
   \   0000003A   ....               RCALL   ?Subroutine23
   4731                Rs485_1.cnt_bt_rx_tx=0;
   \                     ??CrossCallReturnLabel_718:
   \   0000003C   ....               RCALL   ?Subroutine3
   4732                fl_485_1.busy=0;
   4733                fl_tx485.mon1=0; 
   4734                return; 
   \                     ??CrossCallReturnLabel_727:
   \   0000003E   C018               RJMP    ??CrossCallReturnLabel_14
   4735                }
   4736              
   4737            fl_ip.act_ip_end=0;
   \                     ??monitor1_rec_rs485_1_2:
   \   00000040   ....               RCALL   ?Subroutine68
   4738            
   4739            Obj_ppp_tx.prozr=FALSE;            
   4740            Obj_ppp_tx.version=VER2;      //версия 
   4741            Obj_ppp_tx.type_pac=OTV;     //тип пакета
   4742            Obj_ppp_tx.num_src=num_self; // номер отправителя
   4743            Obj_ppp_tx.num_dst=Appl_RS485_1.dst_tek; // номер получателя
   \                     ??CrossCallReturnLabel_418:
   \   00000042   8526               LDD     R18, Z+14
   \   00000044   8537               LDD     R19, Z+15
   \   00000046   ....               RCALL   ?Subroutine75
   4744            Obj_ppp_tx.id_pac=Appl_RS485_1.id_tek; // идентификатор пакета  
   \                     ??CrossCallReturnLabel_420:
   \   00000048   8920               LDD     R18, Z+16
   \   0000004A   ....               RCALL   ?Subroutine69
   4745            Obj_ppp_tx.p_opt=&buf_opt_tr[0]; // //указатель буфера опций  
   4746            Obj_ppp_tx.l_opt=0;// длина буфера опций   
   4747            Obj_ppp_tx.kol_opt=0;// количество опций 
   4748            
   4749          
   4750              buf_tx_232[TR_OP_DATA+C1_PROT]=PROT_C1;
   4751              buf_tx_232[TR_OP_DATA+C1_PORT]=PORT485_1;
   \                     ??CrossCallReturnLabel_68:
   \   0000004C   ....               RCALL   ?Subroutine158
   4752             
   4753             
   4754          
   4755              for(i=0;i<Rs485_1.cnt_bt_rx_tx;i++)buf_tx_232[TR_OP_DATA+C1_DATA+i]=Rs485_1_buf_rx_tx[i];
   \                     ??CrossCallReturnLabel_882:
   \   0000004E   C004               RJMP    ??CrossCallReturnLabel_787
   \                     ??monitor1_rec_rs485_1_3:
   \   00000050   01F9               MOVW    R31:R30, R19:R18
   \   00000052   ....               SUBI    R30, LOW((-(Rs485_1_buf_rx_tx) & 0xFFFF))
   \   00000054   ....               SBCI    R31, (-(Rs485_1_buf_rx_tx) & 0xFFFF) >> 8
   \   00000056   ....               RCALL   ?Subroutine96
   \                     ??CrossCallReturnLabel_787:
   \   00000058   ....               LDI     R30, LOW(Rs485_1)
   \   0000005A   ....               LDI     R31, (Rs485_1) >> 8
   \   0000005C   ....               RCALL   ?Subroutine143
   \                     ??CrossCallReturnLabel_519:
   \   0000005E   F3C0               BRCS    ??monitor1_rec_rs485_1_3
   4756              Obj_ppp_tx.l_data=2+Rs485_1.cnt_bt_rx_tx;   // длина данных
   \   00000060   ....               RCALL   ?Subroutine70
   4757              Obj_ppp_tx.p_data=&buf_tx_232[TR_OP_DATA+C1_PROT];  //указатель буфера данных 
   4758              Rs485_1.cnt_bt_rx_tx=0;
   \                     ??CrossCallReturnLabel_567:
   \   00000062   ....               LDI     R30, LOW(Rs485_1)
   \   00000064   ....               LDI     R31, (Rs485_1) >> 8
   \   00000066   ....               RCALL   ?Subroutine144
   4759              
   4760            form_buf_tx_ppp();                            
   4761            UCSR0A=UCSR0A | TXC;                            
   4762            UCSR0B=UCSR0B | TXEN;
   4763            UCSR0B=UCSR0B | TXCIE; 
   4764            fl_485_1.busy=0;
   \                     ??CrossCallReturnLabel_558:
   \   00000068   ....               RCALL   ?Subroutine299
   4765            fl_tx485.mon1=0;
   4766            if(check_cts()==1) return;                
   \                     ??CrossCallReturnLabel_730:
   \   0000006A   ....               RCALL   ?Subroutine302
   \                     ??CrossCallReturnLabel_752:
   \   0000006C   F009               BREQ    ??CrossCallReturnLabel_14
   4767            S2_RD;
   \   0000006E   ....               RCALL   ?Subroutine14
   4768            UDR0=buf_tx_232[0]; 
   4769            if(Regim==RG_DEBAG) UDR3=buf_tx_232[0];
   \                     ??CrossCallReturnLabel_14:
   \   00000070   ....               RJMP    ?Subroutine286
   4770            return;     
   4771            
   4772            }

   \                                 In segment FARCODE, align 2, keep-with-next
   \                     ?Subroutine3:
   \   00000000   E000               LDI     R16, 0
   \   00000002   ....               LDI     R30, LOW(Rs485_1)
   \   00000004   ....               LDI     R31, (Rs485_1) >> 8
   \   00000006   8300               ST      Z, R16
   \   00000008   8301               STD     Z+1, R16
   \   0000000A   ....               RJMP    ?Subroutine299

   \                                 In segment FARCODE, align 2, keep-with-next
   \                     ?Subroutine180:
   \   00000000   7E0F               ANDI    R16, 0xEF
   \   00000002   ....               RJMP    ?Subroutine279

   \                                 In segment FARCODE, align 2, keep-with-next
   \                     ?Subroutine144:
   \   00000000   8300               ST      Z, R16
   \   00000002   8301               STD     Z+1, R16
   \   00000004   ........           CALL    form_buf_tx_ppp
   \   00000008   910000C0           LDS     R16, 192
   \   0000000C   6400               ORI     R16, 0x40
   \   0000000E   930000C0           STS     192, R16
   \   00000012   910000C1           LDS     R16, 193
   \   00000016   6008               ORI     R16, 0x08
   \   00000018   930000C1           STS     193, R16
   \   0000001C   910000C1           LDS     R16, 193
   \   00000020   6400               ORI     R16, 0x40
   \   00000022   ........           JMP     ?Subroutine270

   \                                 In segment FARCODE, align 2, keep-with-next
   \                     ?Subroutine143:
   \   00000000   8140               LD      R20, Z
   \   00000002   8151               LDD     R21, Z+1
   \   00000004   ........           JMP     ?Subroutine263

   \                                 In segment FARCODE, align 2, keep-with-next
   \                     ?Subroutine123:
   \   00000000   8100               LD      R16, Z
   \   00000002   8111               LDD     R17, Z+1
   \   00000004   5B0A               SUBI    R16, 186
   \   00000006   4F1F               SBCI    R17, 255
   \   00000008   340D               CPI     R16, 77
   \   0000000A   4014               SBCI    R17, 4
   \   0000000C   9508               RET

   \                                 In segment FARCODE, align 2, keep-with-next
   \                     ?Subroutine100:
   \   00000000   ........           CALL    ?PROLOGUE4_L09
   \   00000004   ....               LDI     R26, LOW(Appl_RS485_1)
   \   00000006   ....               LDI     R27, (Appl_RS485_1) >> 8
   \   00000008   ....               RJMP    ?Subroutine269

   \                                 In segment FARCODE, align 2, keep-with-next
   \                     ?Subroutine96:
   \   00000000   8140               LD      R20, Z
   \   00000002   01FC               MOVW    R31:R30, R25:R24
   \   00000004   0FE2               ADD     R30, R18
   \   00000006   1FF3               ADC     R31, R19
   \   00000008   A744               STD     Z+44, R20
   \   0000000A   ........           JMP     ?Subroutine298

   \                                 In segment FARCODE, align 2, keep-with-next
   \                     ?Subroutine75:
   \   00000000   01F8               MOVW    R31:R30, R17:R16
   \   00000002   8325               STD     Z+5, R18
   \   00000004   8336               STD     Z+6, R19
   \   00000006   ........           JMP     ??Subroutine250_0

   \                                 In segment FARCODE, align 2, keep-with-next
   \                     ?Subroutine70:
   \   00000000   019A               MOVW    R19:R18, R21:R20
   \   00000002   5F2E               SUBI    R18, 254
   \   00000004   4F3F               SBCI    R19, 255
   \   00000006   01F8               MOVW    R31:R30, R17:R16
   \   00000008   8726               STD     Z+14, R18
   \   0000000A   8737               STD     Z+15, R19
   \   0000000C   019C               MOVW    R19:R18, R25:R24
   \   0000000E   5D26               SUBI    R18, 214
   \   00000010   4F3F               SBCI    R19, 255
   \   00000012   8724               STD     Z+12, R18
   \   00000014   8735               STD     Z+13, R19
   \   00000016   ....               RJMP    ?Subroutine271

   \                                 In segment FARCODE, align 2, keep-with-next
   \                     ?Subroutine69:
   \   00000000   01F8               MOVW    R31:R30, R17:R16
   \   00000002   8327               STD     Z+7, R18
   \   00000004   ....               LDI     R18, LOW((Appl_RS232_2 + 19))
   \   00000006   ....               LDI     R19, HIGH((Appl_RS232_2 + 19))
   \   00000008   8720               STD     Z+8, R18
   \   0000000A   8731               STD     Z+9, R19
   \   0000000C   E020               LDI     R18, 0
   \   0000000E   8722               STD     Z+10, R18
   \   00000010   8723               STD     Z+11, R18
   \   00000012   ....               LDI     R24, LOW(buf_tx_232)
   \   00000014   ....               LDI     R25, (buf_tx_232) >> 8
   \   00000016   E021               LDI     R18, 1
   \   00000018   01FC               MOVW    R31:R30, R25:R24
   \   0000001A   A722               STD     Z+42, R18
   \   0000001C   9508               RET

   \                                 In segment FARCODE, align 2, keep-with-next
   \                     ?Subroutine68:
   \   00000000   ....               LDI     R30, LOW(fl_ip)
   \   00000002   ....               LDI     R31, (fl_ip) >> 8
   \   00000004   8100               LD      R16, Z
   \   00000006   7F0E               ANDI    R16, 0xFE
   \   00000008   8300               ST      Z, R16
   \   0000000A   ....               LDI     R16, LOW(Obj_ppp_tx)
   \   0000000C   ....               LDI     R17, (Obj_ppp_tx) >> 8
   \   0000000E   E020               LDI     R18, 0
   \   00000010   01F8               MOVW    R31:R30, R17:R16
   \   00000012   8320               ST      Z, R18
   \   00000014   E022               LDI     R18, 2
   \   00000016   8321               STD     Z+1, R18
   \   00000018   E021               LDI     R18, 1
   \   0000001A   8322               STD     Z+2, R18
   \   0000001C   ....               LDI     R30, LOW(Appl_seq)
   \   0000001E   ....               LDI     R31, (Appl_seq) >> 8
   \   00000020   AD20               LDD     R18, Z+56
   \   00000022   AD31               LDD     R19, Z+57
   \   00000024   01F8               MOVW    R31:R30, R17:R16
   \   00000026   8323               STD     Z+3, R18
   \   00000028   8334               STD     Z+4, R19
   \   0000002A   ........           JMP     ??Subroutine250_0
   4773          
   4774          
   4775          ///EEEEEEEEEEEEEEEEEEEEEEEEEEEEEEEEEEEEEEEEEEEEEEEEEEEEEE!Работа с портом RS485-1
   4776          
   4777          
   4778          
   4779          
   4780          ///!!!!!!!!!!!!!!!!!!!!!!!!!!!!!!!!!!!!!!!!!!!!!!!!!!Работа с портом RS485-2
   4781          

   \                                 In segment FARCODE, align 2, keep-with-next
   4782          void monitor1_tx_rs485_2(void)
   \                     monitor1_tx_rs485_2:
   4783          {
   \   00000000   ....               RCALL   ?Subroutine101
   4784            unsigned int i;
   4785            if(fl_485_2.busy==1)return;
   \                     ??CrossCallReturnLabel_123:
   \   00000002   ....               LDI     R30, LOW(fl_485_2)
   \   00000004   ....               LDI     R31, (fl_485_2) >> 8
   \   00000006   8100               LD      R16, Z
   \   00000008   FD00               SBRC    R16, 0
   \   0000000A   C040               RJMP    ??monitor1_tx_rs485_2_0
   4786            if((fl_485_2.tx==1)||(Appl_RS485_2.fl_data_buf==TRUE))
   \   0000000C   ....               RCALL   ?Subroutine177
   \                     ??CrossCallReturnLabel_261:
   \   0000000E   FD03               SBRC    R16, 3
   \   00000010   C005               RJMP    ??monitor1_tx_rs485_2_1
   \   00000012   01FD               MOVW    R31:R30, R27:R26
   \   00000014   8903               LDD     R16, Z+19
   \   00000016   3001               CPI     R16, 1
   \   00000018   F5C9               BRNE    ??monitor1_tx_rs485_2_0
   \   0000001A   C002               RJMP    ??monitor1_tx_rs485_2_2
   4787              {
   4788              if(fl_485_2.tx==1)fl_485_2.tx=0;
   \                     ??monitor1_tx_rs485_2_1:
   \   0000001C   7F07               ANDI    R16, 0xF7
   \   0000001E   8300               ST      Z, R16
   4789              if(Appl_RS485_2.fl_data_buf==TRUE)Appl_RS485_2.fl_data_buf=FALSE;
   \                     ??monitor1_tx_rs485_2_2:
   \   00000020   01FD               MOVW    R31:R30, R27:R26
   \   00000022   8903               LDD     R16, Z+19
   \   00000024   3001               CPI     R16, 1
   \   00000026   F411               BRNE    ??monitor1_tx_rs485_2_3
   \   00000028   E000               LDI     R16, 0
   \   0000002A   8B03               STD     Z+19, R16
   4790              fl_485_2.busy=1;
   \                     ??monitor1_tx_rs485_2_3:
   \   0000002C   ....               LDI     R30, LOW(fl_485_2)
   \   0000002E   ....               LDI     R31, (fl_485_2) >> 8
   \   00000030   ....               RCALL   ?Subroutine90
   4791              fl_tx485.mon2=1;
   \                     ??CrossCallReturnLabel_557:
   \   00000032   6002               ORI     R16, 0x02
   \   00000034   AF02               STD     Z+58, R16
   4792              Appl_RS485_2.dst_tek=Appl_RS485_2.dst_buf;
   \   00000036   8906               LDD     R16, Z+22
   \   00000038   8917               LDD     R17, Z+23
   \   0000003A   A301               STD     Z+33, R16
   \   0000003C   A312               STD     Z+34, R17
   4793              Appl_RS485_2.id_tek=Appl_RS485_2.id_buf;
   \   0000003E   A100               LDD     R16, Z+32
   \   00000040   A303               STD     Z+35, R16
   4794              Rs485_2.cnt_bt_rx_tx=Appl_RS485_2.ln_data_buf;
   \   00000042   ....               LDI     R16, LOW(Rs485_2)
   \   00000044   ....               LDI     R17, (Rs485_2) >> 8
   \   00000046   8924               LDD     R18, Z+20
   \   00000048   8935               LDD     R19, Z+21
   \   0000004A   ....               RCALL   ?Subroutine67
   4795              for(i=0;i<Rs485_2.cnt_bt_rx_tx;i++)Rs485_2_buf_rx_tx[i]=Appl_RS485_2_data_buf[i];
   \                     ??CrossCallReturnLabel_65:
   \   0000004C   C009               RJMP    ??monitor1_tx_rs485_2_4
   \                     ??monitor1_tx_rs485_2_5:
   \   0000004E   01FC               MOVW    R31:R30, R25:R24
   \   00000050   ....               SUBI    R30, LOW((-(Appl_RS485_2_data_buf) & 0xFFFF))
   \   00000052   ....               SBCI    R31, (-(Appl_RS485_2_data_buf) & 0xFFFF) >> 8
   \   00000054   8120               LD      R18, Z
   \   00000056   01FC               MOVW    R31:R30, R25:R24
   \   00000058   ....               SUBI    R30, LOW((-(Rs485_2_buf_rx_tx) & 0xFFFF))
   \   0000005A   ....               SBCI    R31, (-(Rs485_2_buf_rx_tx) & 0xFFFF) >> 8
   \   0000005C   8320               ST      Z, R18
   \   0000005E   9601               ADIW    R25:R24, 1
   \                     ??monitor1_tx_rs485_2_4:
   \   00000060   ....               RCALL   ?Subroutine71
   \                     ??CrossCallReturnLabel_71:
   \   00000062   F3A8               BRCS    ??monitor1_tx_rs485_2_5
   4796              Rs485_2.p_data485=&Rs485_2_buf_rx_tx[0];
   \   00000064   ....               LDI     R18, LOW(Rs485_2_buf_rx_tx)
   \   00000066   ....               LDI     R19, (Rs485_2_buf_rx_tx) >> 8
   \   00000068   8B20               STD     Z+16, R18
   \   0000006A   8B31               STD     Z+17, R19
   4797              //здесь должна быть функция настройки порта по контексту.
   4798              
   4799              if (run_cont_485_2(&Appl_RS485_2.cont_buf[0])==1)
   \   0000006C   018D               MOVW    R17:R16, R27:R26
   \   0000006E   5E08               SUBI    R16, 232
   \   00000070   4F1F               SBCI    R17, 255
   \   00000072   ....               RCALL   run_cont_485_2
   \   00000074   3001               CPI     R16, 1
   \   00000076   F411               BRNE    ??monitor1_tx_rs485_2_6
   4800                 {
   4801                 fl_485_2.busy=0;
   \   00000078   ....               RCALL   ?Subroutine300
   4802                 fl_tx485.mon2=0;
   4803                 return;
   \                     ??CrossCallReturnLabel_723:
   \   0000007A   C008               RJMP    ??monitor1_tx_rs485_2_0
   4804                 }
   4805              S4_RD;    
   \                     ??monitor1_tx_rs485_2_6:
   \   0000007C   9A42               SBI     0x08, 0x02
   \   0000007E   9843               CBI     0x08, 0x03
   4806              UCSR1B=UCSR1B & ~(RXCIE | RXEN); 
   \   00000080   910000C9           LDS     R16, 201
   \   00000084   760F               ANDI    R16, 0x6F
   \   00000086   930000C9           STS     201, R16
   4807              SET_RTS3;  //rts на передачу
   \   0000008A   9A5C               SBI     0x0B, 0x04
   \                     ??monitor1_tx_rs485_2_0:
   \   0000008C   ....               RJMP    ?Subroutine286
   4808               
   4809              }
   4810          }

   \                                 In segment FARCODE, align 2, keep-with-next
   \                     ?Subroutine300:
   \   00000000   ....               LDI     R30, LOW(fl_485_2)
   \   00000002   ....               LDI     R31, (fl_485_2) >> 8
   \   00000004   8100               LD      R16, Z
   \   00000006   7F0E               ANDI    R16, 0xFE
   \   00000008   8300               ST      Z, R16
   \   0000000A   01FD               MOVW    R31:R30, R27:R26
   \   0000000C   AD02               LDD     R16, Z+58
   \   0000000E   7F0D               ANDI    R16, 0xFD
   \   00000010   ....               RJMP    ??Subroutine248_0
   4811          
   4812          

   \                                 In segment FARCODE, align 2, keep-with-next
   4813          void monitor1_tm_rs485_2(void)
   \                     monitor1_tm_rs485_2:
   4814            {
   \   00000000   ........           CALL    ?Subroutine176
   4815            if(fl_tx485.mon2==0)return;
   4816            if(fl_ip.act_ip_end!=1)return; 
   4817            if(fl_485_2.tm_out==0)return;
   \                     ??CrossCallReturnLabel_257:
   \   00000004   ....               RCALL   ?Subroutine177
   \                     ??CrossCallReturnLabel_262:
   \   00000006   01FD               MOVW    R31:R30, R27:R26
   \   00000008   AD02               LDD     R16, Z+58
   \   0000000A   FF01               SBRS    R16, 1
   \   0000000C   C00F               RJMP    ??CrossCallReturnLabel_724
   \   0000000E   ....               RCALL   ?Subroutine233
   \                     ??CrossCallReturnLabel_356:
   \   00000010   FF00               SBRS    R16, 0
   \   00000012   C00C               RJMP    ??CrossCallReturnLabel_724
   \   00000014   9100....           LDS     R16, fl_485_2
   \   00000018   FF02               SBRS    R16, 2
   \   0000001A   C008               RJMP    ??CrossCallReturnLabel_724
   4818             
   4819            // __disable_interrupt();
   4820            CLR_RTS3;
   \   0000001C   ....               RCALL   ?Subroutine220
   4821            //__enable_interrupt();
   4822            
   4823            clr_cntr_nat();
   4824            clr_cntr_link();
   4825            
   4826            fl_485_2.tm_out=0; 
   \                     ??CrossCallReturnLabel_324:
   \   0000001E   ....               RCALL   ?Subroutine125
   4827            if(PINE & DCD0) send_err485(NUM_RS485_2,RS_NO_LINK,Appl_RS485_2.id_tek,Appl_RS485_2.dst_tek);// игнорировать передачу если нет GPRS канала
   \                     ??CrossCallReturnLabel_864:
   \   00000020   9B66               SBIS    0x0C, 0x06
   \   00000022   C003               RJMP    ??CrossCallReturnLabel_717
   \   00000024   ....               RCALL   ?Subroutine114
   \                     ??CrossCallReturnLabel_148:
   \   00000026   E011               LDI     R17, 1
   \   00000028   ....               RCALL   ?Subroutine28
   4828            fl_485_2.busy=0; 
   \                     ??CrossCallReturnLabel_717:
   \   0000002A   ....               RCALL   ?Subroutine300
   4829            fl_tx485.mon2=0;
   4830            }
   \                     ??CrossCallReturnLabel_724:
   \   0000002C   ....               RJMP    ?Subroutine184

   \                                 In segment FARCODE, align 2, keep-with-next
   \                     ?Subroutine220:
   \   00000000   985C               CBI     0x0B, 0x04
   \   00000002   ....               RCALL   ?Subroutine303
   \                     ??__CCRETURN_12:
   \                     ??Subroutine220_0:
   \   00000004   ....               RCALL   ?Subroutine304
   \                     ??__CCRETURN_13:
   \                     ??Subroutine220_1:
   \   00000006   ....               LDI     R30, LOW(fl_485_2)
   \   00000008   ....               LDI     R31, (fl_485_2) >> 8
   \   0000000A   9508               RET

   \                                 In segment FARCODE, align 2, keep-with-next
   \                     ?Subroutine114:
   \   00000000   01FD               MOVW    R31:R30, R27:R26
   \   00000002   A141               LDD     R20, Z+33
   \   00000004   A152               LDD     R21, Z+34
   \   00000006   A123               LDD     R18, Z+35
   \   00000008   9508               RET

   \                                 In segment FARCODE, align 2, keep-with-next
   \                     ?Subroutine28:
   \   00000000   E002               LDI     R16, 2
   \   00000002   ....               RJMP    ?Subroutine295

   \                                 In segment FARCODE, align 2, keep-with-next
   \                     ?Subroutine233:
   \   00000000   9100....           LDS     R16, fl_ip
   \   00000004   9508               RET
   4831          
   4832          
   4833          

   \                                 In segment FARCODE, align 2, keep-with-next
   4834          void monitor1_rec_rs485_2(void)
   \                     monitor1_rec_rs485_2:
   4835            {
   \   00000000   ....               RCALL   ?Subroutine100
   4836            unsigned int i;
   4837            if(fl_tx485.mon2==0)return;
   4838            if(fl_ip.act_ip_end!=1)return; 
   4839            if(fl_485_2.rec==0)return;
   \                     ??CrossCallReturnLabel_555:
   \   00000002   FF01               SBRS    R16, 1
   \   00000004   C039               RJMP    ??CrossCallReturnLabel_15
   \   00000006   ....               RCALL   ?Subroutine233
   \                     ??CrossCallReturnLabel_357:
   \   00000008   FF00               SBRS    R16, 0
   \   0000000A   C036               RJMP    ??CrossCallReturnLabel_15
   \   0000000C   ....               LDI     R30, LOW(fl_485_2)
   \   0000000E   ....               LDI     R31, (fl_485_2) >> 8
   \   00000010   8100               LD      R16, Z
   \   00000012   FF01               SBRS    R16, 1
   \   00000014   C031               RJMP    ??CrossCallReturnLabel_15
   4840          
   4841            fl_485_2.rec=0;
   \   00000016   ....               RCALL   ?Subroutine187
   4842            
   4843           // __disable_interrupt();
   4844            CLR_RTS3;
   \                     ??CrossCallReturnLabel_873:
   \   00000018   ....               RCALL   ?Subroutine220
   4845           // __enable_interrupt();
   4846            
   4847            clr_cntr_nat();
   4848            clr_cntr_link();
   4849            
   4850            
   4851            if((PINE & DCD0)==0)
   \                     ??CrossCallReturnLabel_325:
   \   0000001A   8100               LD      R16, Z
   \   0000001C   9966               SBIC    0x0C, 0x06
   \   0000001E   C003               RJMP    ??monitor1_rec_rs485_2_0
   4852            {
   4853               fl_485_2.over=0;         // игнорировать передачу если нет GPRS канала
   \   00000020   ....               RCALL   ?Subroutine180
   4854               Rs485_2.cnt_bt_rx_tx=0;
   \                     ??CrossCallReturnLabel_868:
   \   00000022   ....               RCALL   ?Subroutine4
   4855               fl_485_2.busy=0;
   4856               fl_tx485.mon2=0; 
   4857               return; 
   \                     ??CrossCallReturnLabel_721:
   \   00000024   C029               RJMP    ??CrossCallReturnLabel_15
   4858            }
   4859            
   4860            
   4861            
   4862            if(fl_485_2.over==1)
   \                     ??monitor1_rec_rs485_2_0:
   \   00000026   FF04               SBRS    R16, 4
   \   00000028   C005               RJMP    ??monitor1_rec_rs485_2_1
   4863               {
   4864               fl_485_2.over=0;
   \   0000002A   ....               RCALL   ?Subroutine180
   4865               send_err485(NUM_RS485_2,RS_OVER_BUF_RX,Appl_RS485_2.id_tek,Appl_RS485_2.dst_tek);
   \                     ??CrossCallReturnLabel_869:
   \   0000002C   ....               RCALL   ?Subroutine114
   \                     ??CrossCallReturnLabel_149:
   \   0000002E   E014               LDI     R17, 4
   \   00000030   ....               RCALL   ?Subroutine28
   4866               Rs485_2.cnt_bt_rx_tx=0;
   \                     ??CrossCallReturnLabel_716:
   \   00000032   CFF7               RJMP    ??CrossCallReturnLabel_868
   4867               fl_485_2.busy=0;
   4868               fl_tx485.mon2=0; 
   4869               return; 
   4870               }
   4871              
   4872              //!!!!!!!!!!!!!! здесь бы надо проверк на длину буфера для PPP
   4873             if(Rs485_2.cnt_bt_rx_tx+70>VOL_TX_PPP)
   \                     ??monitor1_rec_rs485_2_1:
   \   00000034   ....               LDI     R30, LOW(Rs485_2)
   \   00000036   ....               LDI     R31, (Rs485_2) >> 8
   \   00000038   ....               RCALL   ?Subroutine123
   \                     ??CrossCallReturnLabel_158:
   \   0000003A   F028               BRCS    ??monitor1_rec_rs485_2_2
   4874                {
   4875                send_err485(NUM_RS485_2,RS_OVER_BUF_PPP_TX,Appl_RS485_2.id_tek,Appl_RS485_2.dst_tek);
   \   0000003C   ....               RCALL   ?Subroutine114
   \                     ??CrossCallReturnLabel_150:
   \   0000003E   E017               LDI     R17, 7
   \   00000040   ....               RCALL   ?Subroutine28
   4876                Rs485_2.cnt_bt_rx_tx=0;
   \                     ??CrossCallReturnLabel_715:
   \   00000042   ....               RCALL   ?Subroutine4
   4877                fl_485_2.busy=0;
   4878                fl_tx485.mon2=0; 
   4879                return; 
   \                     ??CrossCallReturnLabel_722:
   \   00000044   C019               RJMP    ??CrossCallReturnLabel_15
   4880                }
   4881              
   4882            fl_ip.act_ip_end=0;
   \                     ??monitor1_rec_rs485_2_2:
   \   00000046   ....               RCALL   ?Subroutine68
   4883            
   4884            Obj_ppp_tx.prozr=FALSE;            
   4885            Obj_ppp_tx.version=VER2;      //версия 
   4886            Obj_ppp_tx.type_pac=OTV;     //тип пакета
   4887            Obj_ppp_tx.num_src=num_self; // номер отправителя
   4888            Obj_ppp_tx.num_dst=Appl_RS485_2.dst_tek; // номер получателя
   \                     ??CrossCallReturnLabel_419:
   \   00000048   A121               LDD     R18, Z+33
   \   0000004A   A132               LDD     R19, Z+34
   \   0000004C   ....               RCALL   ?Subroutine75
   4889            Obj_ppp_tx.id_pac=Appl_RS485_2.id_tek; // идентификатор пакета  
   \                     ??CrossCallReturnLabel_421:
   \   0000004E   A123               LDD     R18, Z+35
   \   00000050   ....               RCALL   ?Subroutine69
   4890            Obj_ppp_tx.p_opt=&buf_opt_tr[0]; // //указатель буфера опций  
   4891            Obj_ppp_tx.l_opt=0;// длина буфера опций   
   4892            Obj_ppp_tx.kol_opt=0;// количество опций 
   4893            
   4894          
   4895              buf_tx_232[TR_OP_DATA+C1_PROT]=PROT_C1;
   4896              buf_tx_232[TR_OP_DATA+C1_PORT]=PORT485_2;
   \                     ??CrossCallReturnLabel_69:
   \   00000052   E022               LDI     R18, 2
   \   00000054   ....               RCALL   ?Subroutine158
   4897             
   4898             
   4899          
   4900              for(i=0;i<Rs485_2.cnt_bt_rx_tx;i++)buf_tx_232[TR_OP_DATA+C1_DATA+i]=Rs485_2_buf_rx_tx[i];
   \                     ??CrossCallReturnLabel_883:
   \   00000056   C004               RJMP    ??CrossCallReturnLabel_788
   \                     ??monitor1_rec_rs485_2_3:
   \   00000058   01F9               MOVW    R31:R30, R19:R18
   \   0000005A   ....               SUBI    R30, LOW((-(Rs485_2_buf_rx_tx) & 0xFFFF))
   \   0000005C   ....               SBCI    R31, (-(Rs485_2_buf_rx_tx) & 0xFFFF) >> 8
   \   0000005E   ....               RCALL   ?Subroutine96
   \                     ??CrossCallReturnLabel_788:
   \   00000060   ....               LDI     R30, LOW(Rs485_2)
   \   00000062   ....               LDI     R31, (Rs485_2) >> 8
   \   00000064   ....               RCALL   ?Subroutine143
   \                     ??CrossCallReturnLabel_520:
   \   00000066   F3C0               BRCS    ??monitor1_rec_rs485_2_3
   4901              Obj_ppp_tx.l_data=2+Rs485_2.cnt_bt_rx_tx;   // длина данных
   \   00000068   ....               RCALL   ?Subroutine70
   4902              Obj_ppp_tx.p_data=&buf_tx_232[TR_OP_DATA+C1_PROT];  //указатель буфера данных 
   4903              Rs485_2.cnt_bt_rx_tx=0;
   \                     ??CrossCallReturnLabel_568:
   \   0000006A   ....               LDI     R30, LOW(Rs485_2)
   \   0000006C   ....               LDI     R31, (Rs485_2) >> 8
   \   0000006E   ....               RCALL   ?Subroutine144
   4904              
   4905            form_buf_tx_ppp();                            
   4906            UCSR0A=UCSR0A | TXC;                            
   4907            UCSR0B=UCSR0B | TXEN;
   4908            UCSR0B=UCSR0B | TXCIE; 
   4909            fl_485_2.busy=0;
   \                     ??CrossCallReturnLabel_559:
   \   00000070   ....               RCALL   ?Subroutine300
   4910            fl_tx485.mon2=0;
   4911            if(check_cts()==1) return;                
   \                     ??CrossCallReturnLabel_725:
   \   00000072   ....               RCALL   ?Subroutine302
   \                     ??CrossCallReturnLabel_753:
   \   00000074   F009               BREQ    ??CrossCallReturnLabel_15
   4912            S2_RD;
   \   00000076   ....               RCALL   ?Subroutine14
   4913            UDR0=buf_tx_232[0]; 
   4914            if(Regim==RG_DEBAG) UDR3=buf_tx_232[0];
   \                     ??CrossCallReturnLabel_15:
   \   00000078   ....               RJMP    ?Subroutine286
   4915            return;     
   4916            
   4917            }

   \                                 In segment FARCODE, align 2, keep-with-next
   \                     ?Subroutine4:
   \   00000000   E000               LDI     R16, 0
   \   00000002   ....               LDI     R30, LOW(Rs485_2)
   \   00000004   ....               LDI     R31, (Rs485_2) >> 8
   \   00000006   8300               ST      Z, R16
   \   00000008   8301               STD     Z+1, R16
   \   0000000A   ....               RJMP    ?Subroutine300
   4918          
   4919          
   4920          ///EEEEEEEEEEEEEEEEEEEEEEEEEEEEEEEEEEEEEEEEEEEEEEEEEEEEEE!Работа с портом RS485-2
   4921          
   4922          
   4923          
   4924          
   4925          
   4926          
   4927          
   4928          ///!!!!!!!!!!!!!!!!!!!!!!!!!!!!!!!!!!!!!!!!!!!!!!!!!!Работа с портом RS232-2
   4929          

   \                                 In segment FARCODE, align 2, keep-with-next
   4930          void monitor1_tx_rs232_2(void)
   \                     monitor1_tx_rs232_2:
   4931          {
   \   00000000   ....               RCALL   ?Subroutine101
   4932            unsigned int i;
   4933            if(fl_232_2.busy==1)return;
   \                     ??CrossCallReturnLabel_124:
   \   00000002   ....               RCALL   ?Subroutine246
   \                     ??CrossCallReturnLabel_626:
   \   00000004   FD00               SBRC    R16, 0
   \   00000006   C051               RJMP    ??monitor1_tx_rs232_2_0
   4934            if((fl_232_2.tx==1)||(Appl_RS232_2.fl_data_buf==TRUE))
   \   00000008   ....               LDI     R16, LOW(Appl_RS232_2)
   \   0000000A   ....               LDI     R17, (Appl_RS232_2) >> 8
   \   0000000C   8120               LD      R18, Z
   \   0000000E   FD23               SBRC    R18, 3
   \   00000010   C005               RJMP    ??monitor1_tx_rs232_2_1
   \   00000012   ....               RCALL   ?Subroutine72
   \                     ??CrossCallReturnLabel_75:
   \   00000014   3021               CPI     R18, 1
   \   00000016   F009               BREQ    $+2+2
   \   00000018   C048               RJMP    ??monitor1_tx_rs232_2_0
   \   0000001A   C002               RJMP    ??monitor1_tx_rs232_2_2
   4935              {
   4936              if(fl_232_2.tx==1)fl_232_2.tx=0;
   \                     ??monitor1_tx_rs232_2_1:
   \   0000001C   7F27               ANDI    R18, 0xF7
   \   0000001E   8320               ST      Z, R18
   4937              if(Appl_RS232_2.fl_data_buf==TRUE)Appl_RS232_2.fl_data_buf=FALSE;
   \                     ??monitor1_tx_rs232_2_2:
   \   00000020   ....               RCALL   ?Subroutine72
   \                     ??CrossCallReturnLabel_76:
   \   00000022   3021               CPI     R18, 1
   \   00000024   F411               BRNE    ??monitor1_tx_rs232_2_3
   \   00000026   E020               LDI     R18, 0
   \   00000028   8320               ST      Z, R18
   4938              fl_232_2.busy=1;
   \                     ??monitor1_tx_rs232_2_3:
   \   0000002A   ....               LDI     R30, LOW(fl_232_2)
   \   0000002C   ....               LDI     R31, (fl_232_2) >> 8
   \   0000002E   8120               LD      R18, Z
   \   00000030   6021               ORI     R18, 0x01
   \   00000032   8320               ST      Z, R18
   4939              fl_tx485.mon232_2=1;
   \   00000034   ........           CALL    ?Subroutine169
   \                     ??CrossCallReturnLabel_242:
   \   00000038   AD22               LDD     R18, Z+58
   \   0000003A   6024               ORI     R18, 0x04
   \   0000003C   AF22               STD     Z+58, R18
   4940              Appl_RS232_2.dst_tek=Appl_RS232_2.dst_buf;
   \   0000003E   01F8               MOVW    R31:R30, R17:R16
   \   00000040   8123               LDD     R18, Z+3
   \   00000042   8134               LDD     R19, Z+4
   \   00000044   8726               STD     Z+14, R18
   \   00000046   8737               STD     Z+15, R19
   4941              Appl_RS232_2.id_tek=Appl_RS232_2.id_buf;
   \   00000048   8525               LDD     R18, Z+13
   \   0000004A   8B20               STD     Z+16, R18
   4942              Rs232_2.cnt_bt_rx_tx=Appl_RS232_2.ln_data_buf;
   \   0000004C   ....               LDI     R26, LOW(Rs232_2)
   \   0000004E   ....               LDI     R27, (Rs232_2) >> 8
   \   00000050   8121               LDD     R18, Z+1
   \   00000052   8132               LDD     R19, Z+2
   \   00000054   ........           CALL    ?Subroutine210
   \                     ??CrossCallReturnLabel_319:
   \   00000058   9711               SBIW    R27:R26, 1
   4943              for(i=0;i<Rs232_2.cnt_bt_rx_tx;i++)Rs232_2_buf_rx_tx[i]=Appl_RS232_2_data_buf[i];
   \   0000005A   ....               RCALL   ??Subroutine67_0
   \                     ??CrossCallReturnLabel_67:
   \   0000005C   C009               RJMP    ??monitor1_tx_rs232_2_4
   \                     ??monitor1_tx_rs232_2_5:
   \   0000005E   01FC               MOVW    R31:R30, R25:R24
   \   00000060   ....               SUBI    R30, LOW((-(Appl_RS232_2_data_buf) & 0xFFFF))
   \   00000062   ....               SBCI    R31, (-(Appl_RS232_2_data_buf) & 0xFFFF) >> 8
   \   00000064   8120               LD      R18, Z
   \   00000066   01FC               MOVW    R31:R30, R25:R24
   \   00000068   ....               SUBI    R30, LOW((-(Rs232_2_buf_rx_tx) & 0xFFFF))
   \   0000006A   ....               SBCI    R31, (-(Rs232_2_buf_rx_tx) & 0xFFFF) >> 8
   \   0000006C   8320               ST      Z, R18
   \   0000006E   9601               ADIW    R25:R24, 1
   \                     ??monitor1_tx_rs232_2_4:
   \   00000070   ....               RCALL   ?Subroutine223
   \                     ??CrossCallReturnLabel_330:
   \   00000072   9711               SBIW    R27:R26, 1
   \   00000074   1782               CP      R24, R18
   \   00000076   0793               CPC     R25, R19
   \   00000078   F390               BRCS    ??monitor1_tx_rs232_2_5
   4944              Rs232_2.p_data485=&Rs232_2_buf_rx_tx[0];
   \   0000007A   ....               LDI     R18, LOW(Rs232_2_buf_rx_tx)
   \   0000007C   ....               LDI     R19, (Rs232_2_buf_rx_tx) >> 8
   \   0000007E   01FD               MOVW    R31:R30, R27:R26
   \   00000080   8B20               STD     Z+16, R18
   \   00000082   8B31               STD     Z+17, R19
   4945              //здесь должна быть функция настройки порта по контексту.
   4946              
   4947              if (run_cont_232_2(&Appl_RS232_2.cont_buf[0])==1)
   \   00000084   5F0B               SUBI    R16, 251
   \   00000086   4F1F               SBCI    R17, 255
   \   00000088   ....               RCALL   run_cont_232_2
   \   0000008A   3001               CPI     R16, 1
   \   0000008C   F411               BRNE    ??monitor1_tx_rs232_2_6
   4948                 {
   4949                 fl_232_2.busy=0;
   \   0000008E   ....               RCALL   ?Subroutine248
   4950                 fl_tx485.mon232_2=0;
   4951                 return;
   \                     ??CrossCallReturnLabel_733:
   \   00000090   C00C               RJMP    ??monitor1_tx_rs232_2_0
   4952                 }
   4953               
   4954              S5_RD; 
   \                     ??monitor1_tx_rs232_2_6:
   \   00000092   9A46               SBI     0x08, 0x06
   \   00000094   9847               CBI     0x08, 0x07
   4955              UCSR2B=UCSR2B & ~(RXCIE | RXEN); 
   \   00000096   910000D1           LDS     R16, 209
   \   0000009A   760F               ANDI    R16, 0x6F
   \   0000009C   930000D1           STS     209, R16
   4956              SET_RTS2;  //rts на передачу
   \   000000A0   91000102           LDS     R16, 258
   \   000000A4   7F0B               ANDI    R16, 0xFB
   \   000000A6   93000102           STS     258, R16
   \                     ??monitor1_tx_rs232_2_0:
   \   000000AA   ....               RJMP    ?Subroutine286
   4957               
   4958              }
   4959          }

   \                                 In segment FARCODE, align 2, keep-with-next
   \                     ?Subroutine246:
   \   00000000   ....               LDI     R30, LOW(fl_232_2)
   \   00000002   ....               LDI     R31, (fl_232_2) >> 8
   \   00000004   ........           JMP     ?Subroutine280
   4960          
   4961          

   \                                 In segment FARCODE, align 2, keep-with-next
   4962          void monitor1_tm_rs232_2(void)
   \                     monitor1_tm_rs232_2:
   4963            {
   4964            if(fl_tx485.mon232_2==0)return;
   4965            if(fl_ip.act_ip_end!=1)return; 
   4966            if(fl_232_2.tm_out==0)return;
   \   00000000   9100....           LDS     R16, (Appl_RS485_1 + 58)
   \   00000004   FF02               SBRS    R16, 2
   \   00000006   C015               RJMP    ??CrossCallReturnLabel_734
   \   00000008   ....               RCALL   ?Subroutine233
   \                     ??CrossCallReturnLabel_358:
   \   0000000A   FF00               SBRS    R16, 0
   \   0000000C   C012               RJMP    ??CrossCallReturnLabel_734
   \   0000000E   9100....           LDS     R16, fl_232_2
   \   00000012   FF02               SBRS    R16, 2
   \   00000014   C00E               RJMP    ??CrossCallReturnLabel_734
   4967             
   4968            // __disable_interrupt();
   4969            CLR_RTS2;
   \   00000016   ....               RCALL   ?Subroutine221
   4970            //__enable_interrupt();
   4971            
   4972            clr_cntr_nat();
   4973            clr_cntr_link();
   4974            
   4975            fl_232_2.tm_out=0; 
   \                     ??CrossCallReturnLabel_328:
   \   00000018   ....               LDI     R30, LOW(fl_232_2)
   \   0000001A   ....               LDI     R31, (fl_232_2) >> 8
   \   0000001C   ....               RCALL   ?Subroutine125
   4976            if(PINE & DCD0) send_err485(NUM_RS232_2,RS_NO_LINK,Appl_RS232_2.id_tek,Appl_RS232_2.dst_tek);// игнорировать передачу если нет GPRS канала
   \                     ??CrossCallReturnLabel_865:
   \   0000001E   9B66               SBIS    0x0C, 0x06
   \   00000020   C007               RJMP    ??CrossCallReturnLabel_714
   \   00000022   ....               LDI     R30, LOW(Appl_RS232_2)
   \   00000024   ....               LDI     R31, (Appl_RS232_2) >> 8
   \   00000026   8546               LDD     R20, Z+14
   \   00000028   8557               LDD     R21, Z+15
   \   0000002A   8920               LDD     R18, Z+16
   \   0000002C   E011               LDI     R17, 1
   \   0000002E   ....               RCALL   ?Subroutine174
   4977            fl_232_2.busy=0; 
   \                     ??CrossCallReturnLabel_714:
   \   00000030   ....               RCALL   ?Subroutine248
   4978            fl_tx485.mon232_2=0;
   4979            }
   \                     ??CrossCallReturnLabel_734:
   \   00000032   9508               RET

   \                                 In segment FARCODE, align 2, keep-with-next
   \                     ?Subroutine174:
   \   00000000   E003               LDI     R16, 3
   \   00000002   ....               RJMP    ?Subroutine295
   4980          
   4981          
   4982          

   \                                 In segment FARCODE, align 2, keep-with-next
   4983          void monitor1_rec_rs232_2(void)
   \                     monitor1_rec_rs232_2:
   4984            {
   \   00000000   ....               RCALL   ?Subroutine101
   4985            unsigned int i;
   4986            if(fl_tx485.mon232_2==0)return;
   4987            if(fl_ip.act_ip_end!=1)return; 
   4988            if(fl_232_2.rec==0)return;
   \                     ??CrossCallReturnLabel_125:
   \   00000002   9100....           LDS     R16, (Appl_RS485_1 + 58)
   \   00000006   FF02               SBRS    R16, 2
   \   00000008   C075               RJMP    ??CrossCallReturnLabel_16
   \   0000000A   ....               RCALL   ?Subroutine233
   \                     ??CrossCallReturnLabel_359:
   \   0000000C   FF00               SBRS    R16, 0
   \   0000000E   C072               RJMP    ??CrossCallReturnLabel_16
   \   00000010   ....               RCALL   ?Subroutine246
   \                     ??CrossCallReturnLabel_627:
   \   00000012   FF01               SBRS    R16, 1
   \   00000014   C06F               RJMP    ??CrossCallReturnLabel_16
   4989          
   4990            fl_232_2.rec=0;
   \   00000016   ....               RCALL   ?Subroutine187
   4991            
   4992           // __disable_interrupt();
   4993            CLR_RTS2;
   \                     ??CrossCallReturnLabel_874:
   \   00000018   ....               RCALL   ?Subroutine221
   4994           // __enable_interrupt();
   4995            
   4996            clr_cntr_nat();
   4997            clr_cntr_link();
   4998            
   4999            
   5000            if((PINE & DCD0)==0)
   \                     ??CrossCallReturnLabel_327:
   \   0000001A   9966               SBIC    0x0C, 0x06
   \   0000001C   C004               RJMP    ??monitor1_rec_rs232_2_0
   5001            {
   5002               fl_232_2.over=0;         // игнорировать передачу если нет GPRS канала
   \   0000001E   ....               RCALL   ?Subroutine246
   \                     ??CrossCallReturnLabel_628:
   \   00000020   ....               RCALL   ?Subroutine180
   5003               Rs232_2.cnt_bt_rx_tx=0;
   \                     ??CrossCallReturnLabel_870:
   \   00000022   ....               RCALL   ?Subroutine2
   5004               fl_232_2.busy=0;
   5005               fl_tx485.mon232_2=0; 
   5006               return; 
   \                     ??CrossCallReturnLabel_731:
   \   00000024   C067               RJMP    ??CrossCallReturnLabel_16
   5007            }
   5008            
   5009            
   5010            
   5011            if(fl_232_2.over==1)
   \                     ??monitor1_rec_rs232_2_0:
   \   00000026   ....               LDI     R16, LOW(Appl_RS232_2)
   \   00000028   ....               LDI     R17, (Appl_RS232_2) >> 8
   \   0000002A   ....               LDI     R30, LOW(fl_232_2)
   \   0000002C   ....               LDI     R31, (fl_232_2) >> 8
   \   0000002E   8120               LD      R18, Z
   \   00000030   FF24               SBRS    R18, 4
   \   00000032   C006               RJMP    ??monitor1_rec_rs232_2_1
   5012               {
   5013               fl_232_2.over=0;
   \   00000034   7E2F               ANDI    R18, 0xEF
   \   00000036   8320               ST      Z, R18
   5014               send_err485(NUM_RS232_2,RS_OVER_BUF_RX,Appl_RS232_2.id_tek,Appl_RS232_2.dst_tek);
   \   00000038   ....               RCALL   ?Subroutine76
   \                     ??CrossCallReturnLabel_475:
   \   0000003A   E014               LDI     R17, 4
   \   0000003C   ....               RCALL   ?Subroutine174
   5015               Rs232_2.cnt_bt_rx_tx=0;
   \                     ??CrossCallReturnLabel_713:
   \   0000003E   CFF1               RJMP    ??CrossCallReturnLabel_870
   5016               fl_232_2.busy=0;
   5017               fl_tx485.mon232_2=0; 
   5018               return; 
   5019               }
   5020              
   5021              //!!!!!!!!!!!!!! здесь бы надо проверк на длину буфера для PPP
   5022             if(Rs232_2.cnt_bt_rx_tx+70>VOL_TX_PPP)
   \                     ??monitor1_rec_rs232_2_1:
   \   00000040   ....               LDI     R30, LOW(Rs232_2)
   \   00000042   ....               LDI     R31, (Rs232_2) >> 8
   \   00000044   8120               LD      R18, Z
   \   00000046   8131               LDD     R19, Z+1
   \   00000048   5B2A               SUBI    R18, 186
   \   0000004A   4F3F               SBCI    R19, 255
   \   0000004C   342D               CPI     R18, 77
   \   0000004E   4034               SBCI    R19, 4
   \   00000050   F028               BRCS    ??monitor1_rec_rs232_2_2
   5023                {
   5024                send_err485(NUM_RS232_2,RS_OVER_BUF_PPP_TX,Appl_RS232_2.id_tek,Appl_RS232_2.dst_tek);
   \   00000052   ....               RCALL   ?Subroutine76
   \                     ??CrossCallReturnLabel_476:
   \   00000054   E017               LDI     R17, 7
   \   00000056   ....               RCALL   ?Subroutine174
   5025                Rs232_2.cnt_bt_rx_tx=0;
   \                     ??CrossCallReturnLabel_712:
   \   00000058   ....               RCALL   ?Subroutine2
   5026                fl_232_2.busy=0;
   5027                fl_tx485.mon232_2=0; 
   5028                return; 
   \                     ??CrossCallReturnLabel_732:
   \   0000005A   C04C               RJMP    ??CrossCallReturnLabel_16
   5029                }
   5030              
   5031            fl_ip.act_ip_end=0;
   \                     ??monitor1_rec_rs232_2_2:
   \   0000005C   ........           CALL    ?Subroutine188
   \                     ??CrossCallReturnLabel_272:
   \   00000060   8120               LD      R18, Z
   \   00000062   7F2E               ANDI    R18, 0xFE
   \   00000064   8320               ST      Z, R18
   5032            
   5033            Obj_ppp_tx.prozr=FALSE;            
   \   00000066   ....               LDI     R30, LOW(Obj_ppp_tx)
   \   00000068   ....               LDI     R31, (Obj_ppp_tx) >> 8
   \   0000006A   E020               LDI     R18, 0
   \   0000006C   8320               ST      Z, R18
   5034            Obj_ppp_tx.version=VER2;      //версия 
   \   0000006E   E022               LDI     R18, 2
   \   00000070   8321               STD     Z+1, R18
   5035            Obj_ppp_tx.type_pac=OTV;     //тип пакета
   \   00000072   E021               LDI     R18, 1
   \   00000074   8322               STD     Z+2, R18
   5036            Obj_ppp_tx.num_src=num_self; // номер отправителя
   \   00000076   ....               LDI     R26, LOW((Appl_seq + 56))
   \   00000078   ....               LDI     R27, HIGH((Appl_seq + 56))
   \   0000007A   ....               RCALL   ?Subroutine223
   \                     ??CrossCallReturnLabel_331:
   \   0000007C   8323               STD     Z+3, R18
   \   0000007E   8334               STD     Z+4, R19
   5037            Obj_ppp_tx.num_dst=Appl_RS232_2.dst_tek; // номер получателя
   \   00000080   01D8               MOVW    R27:R26, R17:R16
   \   00000082   961E               ADIW    R27:R26, 14
   \   00000084   ....               RCALL   ?Subroutine223
   \                     ??CrossCallReturnLabel_332:
   \   00000086   8325               STD     Z+5, R18
   \   00000088   8336               STD     Z+6, R19
   5038            Obj_ppp_tx.id_pac=Appl_RS232_2.id_tek; // идентификатор пакета  
   \   0000008A   01D8               MOVW    R27:R26, R17:R16
   \   0000008C   9650               ADIW    R27:R26, 16
   \   0000008E   912C               LD      R18, X
   \   00000090   8327               STD     Z+7, R18
   5039            Obj_ppp_tx.p_opt=&buf_opt_tr[0]; // //указатель буфера опций  
   \   00000092   5E0D               SUBI    R16, 237
   \   00000094   4F1F               SBCI    R17, 255
   \   00000096   ....               RCALL   ?Subroutine165
   5040            Obj_ppp_tx.l_opt=0;// длина буфера опций   
   5041            Obj_ppp_tx.kol_opt=0;// количество опций 
   5042            
   5043          
   5044              buf_tx_232[TR_OP_DATA+C1_PROT]=PROT_C1;
   \                     ??CrossCallReturnLabel_227:
   \   00000098   ....               LDI     R24, LOW(buf_tx_232)
   \   0000009A   ....               LDI     R25, (buf_tx_232) >> 8
   \   0000009C   E001               LDI     R16, 1
   \   0000009E   01DC               MOVW    R27:R26, R25:R24
   \   000000A0   969A               ADIW    R27:R26, 42
   \   000000A2   930C               ST      X, R16
   5045              buf_tx_232[TR_OP_DATA+C1_PORT]=PORT232_2;
   \   000000A4   E003               LDI     R16, 3
   \   000000A6   01DC               MOVW    R27:R26, R25:R24
   \   000000A8   969B               ADIW    R27:R26, 43
   \   000000AA   930C               ST      X, R16
   5046             
   5047             
   5048          
   5049              for(i=0;i<Rs232_2.cnt_bt_rx_tx;i++)buf_tx_232[TR_OP_DATA+C1_DATA+i]=Rs232_2_buf_rx_tx[i];
   \   000000AC   E000               LDI     R16, 0
   \   000000AE   E010               LDI     R17, 0
   \   000000B0   C00A               RJMP    ??CrossCallReturnLabel_395
   \                     ??monitor1_rec_rs232_2_3:
   \   000000B2   01D8               MOVW    R27:R26, R17:R16
   \   000000B4   ....               SUBI    R26, LOW((-(Rs232_2_buf_rx_tx) & 0xFFFF))
   \   000000B6   ....               SBCI    R27, (-(Rs232_2_buf_rx_tx) & 0xFFFF) >> 8
   \   000000B8   912C               LD      R18, X
   \   000000BA   01DC               MOVW    R27:R26, R25:R24
   \   000000BC   0FA0               ADD     R26, R16
   \   000000BE   1FB1               ADC     R27, R17
   \   000000C0   969C               ADIW    R27:R26, 44
   \   000000C2   932C               ST      X, R18
   \   000000C4   ....               RCALL   ?Subroutine239
   \                     ??CrossCallReturnLabel_395:
   \   000000C6   ....               LDI     R26, LOW(Rs232_2)
   \   000000C8   ....               LDI     R27, (Rs232_2) >> 8
   \   000000CA   ....               RCALL   ?Subroutine223
   \                     ??CrossCallReturnLabel_333:
   \   000000CC   1702               CP      R16, R18
   \   000000CE   0713               CPC     R17, R19
   \   000000D0   F380               BRCS    ??monitor1_rec_rs232_2_3
   5050              Obj_ppp_tx.l_data=2+Rs232_2.cnt_bt_rx_tx;   // длина данных
   \   000000D2   9100....           LDS     R16, Rs232_2
   \   000000D6   2F13               MOV     R17, R19
   \   000000D8   ....               RCALL   ?Subroutine198
   5051              Obj_ppp_tx.p_data=&buf_tx_232[TR_OP_DATA+C1_PROT];  //указатель буфера данных 
   \                     ??CrossCallReturnLabel_300:
   \   000000DA   018C               MOVW    R17:R16, R25:R24
   \   000000DC   5D06               SUBI    R16, 214
   \   000000DE   4F1F               SBCI    R17, 255
   \   000000E0   8704               STD     Z+12, R16
   \   000000E2   8715               STD     Z+13, R17
   5052              Rs232_2.cnt_bt_rx_tx=0;
   \   000000E4   E000               LDI     R16, 0
   \   000000E6   ....               LDI     R30, LOW(Rs232_2)
   \   000000E8   ....               LDI     R31, (Rs232_2) >> 8
   \   000000EA   ....               RCALL   ?Subroutine144
   5053              
   5054            form_buf_tx_ppp();                            
   5055            UCSR0A=UCSR0A | TXC;                            
   5056            UCSR0B=UCSR0B | TXEN;
   5057            UCSR0B=UCSR0B | TXCIE; 
   5058            fl_232_2.busy=0;
   \                     ??CrossCallReturnLabel_560:
   \   000000EC   ....               RCALL   ?Subroutine248
   5059            fl_tx485.mon232_2=0;
   5060            if(check_cts()==1) return;                
   \                     ??CrossCallReturnLabel_735:
   \   000000EE   ....               RCALL   ?Subroutine302
   \                     ??CrossCallReturnLabel_754:
   \   000000F0   F009               BREQ    ??CrossCallReturnLabel_16
   5061            S2_RD;
   \   000000F2   ....               RCALL   ?Subroutine14
   5062            UDR0=buf_tx_232[0]; 
   5063            if(Regim==RG_DEBAG) UDR3=buf_tx_232[0];
   \                     ??CrossCallReturnLabel_16:
   \   000000F4   ........           JMP     ?Subroutine286
   5064            return;     
   5065            
   5066            }

   \                                 In segment FARCODE, align 2, keep-with-next
   \                     ?Subroutine76:
   \   00000000   01F8               MOVW    R31:R30, R17:R16
   \   00000002   ....               RJMP    ?Subroutine257

   \                                 In segment FARCODE, align 2, keep-with-next
   \                     ?Subroutine2:
   \   00000000   E000               LDI     R16, 0
   \   00000002   ....               LDI     R30, LOW(Rs232_2)
   \   00000004   ....               LDI     R31, (Rs232_2) >> 8
   \   00000006   8300               ST      Z, R16
   \   00000008   8301               STD     Z+1, R16
   \   0000000A   ....               RJMP    ?Subroutine248
   5067          
   5068          
   5069          ///EEEEEEEEEEEEEEEEEEEEEEEEEEEEEEEEEEEEEEEEEEEEEEEEEEEEEE!Работа с портом RS232-2

   \                                 In segment FARCODE, align 2, keep-with-next
   5070          void monitor_wr_truffic(void)
   \                     monitor_wr_truffic:
   5071          {
   \   00000000   ........           CALL    ?Subroutine176
   \                     ??CrossCallReturnLabel_258:
   \   00000004   972E               SBIW    R29:R28, 14
   5072            unsigned char buf[14];
   5073           if(time_cnt_ch_time!=0)return;
   \   00000006   ....               LDI     R26, LOW((unix + 16))
   \   00000008   ....               LDI     R27, HIGH((unix + 16))
   \   0000000A   910C               LD      R16, X
   \   0000000C   9750               SBIW    R27:R26, 16
   \   0000000E   2300               TST     R16
   \   00000010   F531               BRNE    ??monitor_wr_truffic_0
   5074           time_cnt_ch_time=CHECK_TIME;  
   \   00000012   E00F               LDI     R16, 15
   \   00000014   9650               ADIW    R27:R26, 16
   \   00000016   930C               ST      X, R16
   \   00000018   9750               SBIW    R27:R26, 16
   5075           burst_ds_r();                                                                
   \   0000001A   ....               RCALL   ?Subroutine164
   5076           if ((real_time.r_min==0)&&(fl_truffic.wr==0))
   \                     ??CrossCallReturnLabel_223:
   \   0000001C   9100....           LDS     R16, (real_time + 1)
   \   00000020   2300               TST     R16
   \   00000022   F4A9               BRNE    ??monitor_wr_truffic_1
   \   00000024   9651               ADIW    R27:R26, 17
   \   00000026   910C               LD      R16, X
   \   00000028   9751               SBIW    R27:R26, 17
   \   0000002A   FD00               SBRC    R16, 0
   \   0000002C   C018               RJMP    ??monitor_wr_truffic_0
   5077              {
   5078                fl_truffic.wr=1;
   \   0000002E   9651               ADIW    R27:R26, 17
   \   00000030   6001               ORI     R16, 0x01
   \   00000032   930C               ST      X, R16
   \   00000034   971D               SBIW    R27:R26, 13
   5079               // *(unsigned long int*)&buf[0]=burst_ds_r();
   5080                RdFromFleshToArr(A_TRAF,&buf[0],4);
   \   00000036   E044               LDI     R20, 4
   \   00000038   ....               RCALL   ?Subroutine132
   5081                *(unsigned long int*)&buf[4]=cnt_outcom;
   \                     ??CrossCallReturnLabel_903:
   \   0000003A   910D               LD      R16, X+
   \   0000003C   911D               LD      R17, X+
   \   0000003E   912D               LD      R18, X+
   \   00000040   913D               LD      R19, X+
   \   00000042   ....               RCALL   ?Subroutine245
   5082                *(unsigned long int*)&buf[8]=cnt_incom;
   \                     ??CrossCallReturnLabel_408:
   \   00000044   910D               LD      R16, X+
   \   00000046   911D               LD      R17, X+
   \   00000048   ....               RCALL   ?Subroutine223
   \                     ??CrossCallReturnLabel_334:
   \   0000004A   ....               RCALL   ?Subroutine34
   5083                *(unsigned int*)&buf[L_TRAF-2]=crc_m1(&buf[0],L_TRAF-2,0xffff);
   5084                WrArrayToFlesh(A_TRAF, &buf[0],L_TRAF,0,0);
   5085                return;
   \                     ??CrossCallReturnLabel_890:
   \   0000004C   C008               RJMP    ??monitor_wr_truffic_0
   5086              }
   5087           if((real_time.r_min!=0)&&(fl_truffic.wr==1))fl_truffic.wr=0;
   \                     ??monitor_wr_truffic_1:
   \   0000004E   9651               ADIW    R27:R26, 17
   \   00000050   910C               LD      R16, X
   \   00000052   9751               SBIW    R27:R26, 17
   \   00000054   FF00               SBRS    R16, 0
   \   00000056   C003               RJMP    ??monitor_wr_truffic_0
   \   00000058   9651               ADIW    R27:R26, 17
   \   0000005A   7F0E               ANDI    R16, 0xFE
   \   0000005C   930C               ST      X, R16
   \                     ??monitor_wr_truffic_0:
   \   0000005E   962E               ADIW    R29:R28, 14
   \   00000060   ....               RJMP    ?Subroutine184
   5088          }
   5089          
   5090          
   5091          

   \                                 In segment FARCODE, align 2, keep-with-next
   5092          int proc_temp_to_grad(char t,unsigned int t_cod,unsigned int offset_cod,unsigned char delta_t,unsigned char delta_cod)
   \                     proc_temp_to_grad:
   5093           {
   \   00000000   2F7B               MOV     R23, R27
   \   00000002   2E2A               MOV     R2, R26
   \   00000004   2E00               MOV     R0, R16
   \   00000006   2F01               MOV     R16, R17
   5094             return(t-(t_cod-offset_cod)*delta_t/delta_cod);
   \   00000008   2DA0               MOV     R26, R0
   \   0000000A   E0B0               LDI     R27, 0
   \   0000000C   1B24               SUB     R18, R20
   \   0000000E   0B35               SBC     R19, R21
   \   00000010   01A9               MOVW    R21:R20, R19:R18
   \   00000012   ....               RCALL   ??Subroutine49_0
   \                     ??CrossCallReturnLabel_53:
   \   00000014   2F46               MOV     R20, R22
   \   00000016   ....               RCALL   ?Subroutine135
   \                     ??CrossCallReturnLabel_181:
   \   00000018   1BA0               SUB     R26, R16
   \   0000001A   0BB1               SBC     R27, R17
   \   0000001C   018D               MOVW    R17:R16, R27:R26
   \   0000001E   2DA2               MOV     R26, R2
   \   00000020   2FB7               MOV     R27, R23
   \   00000022   9508               RET
   5095           }
   5096          

   \                                 In segment FARCODE, align 2, keep-with-next
   5097          char temp_to_grad(unsigned int t)
   \                     temp_to_grad:
   5098          {
   \   00000000   0198               MOVW    R19:R18, R17:R16
   5099          
   5100           if(t>230 && t<=319) return(proc_temp_to_grad(60,t,207,5,23));
   \   00000002   3E07               CPI     R16, 231
   \   00000004   E000               LDI     R16, 0
   \   00000006   0730               CPC     R19, R16
   \   00000008   F050               BRCS    ??temp_to_grad_0
   \   0000000A   3420               CPI     R18, 64
   \   0000000C   E001               LDI     R16, 1
   \   0000000E   0730               CPC     R19, R16
   \   00000010   F430               BRCC    ??temp_to_grad_0
   \   00000012   E167               LDI     R22, 23
   \   00000014   E015               LDI     R17, 5
   \   00000016   EC4F               LDI     R20, 207
   \   00000018   E050               LDI     R21, 0
   \   0000001A   E30C               LDI     R16, 60
   \   0000001C   C00C               RJMP    ??temp_to_grad_1
   5101           if(t>319 && t<=393) return(proc_temp_to_grad(40,t,320,10,73));
   \                     ??temp_to_grad_0:
   \   0000001E   3420               CPI     R18, 64
   \   00000020   E001               LDI     R16, 1
   \   00000022   0730               CPC     R19, R16
   \   00000024   F048               BRCS    ??temp_to_grad_2
   \   00000026   382A               CPI     R18, 138
   \   00000028   0730               CPC     R19, R16
   \   0000002A   F430               BRCC    ??temp_to_grad_2
   \   0000002C   E469               LDI     R22, 73
   \   0000002E   E01A               LDI     R17, 10
   \   00000030   E440               LDI     R20, 64
   \   00000032   E051               LDI     R21, 1
   \   00000034   E208               LDI     R16, 40
   \                     ??temp_to_grad_1:
   \   00000036   ....               RJMP    proc_temp_to_grad
   5102           if(t>393 && t<=477) return(proc_temp_to_grad(30,t,394,10,83));
   \                     ??temp_to_grad_2:
   \   00000038   382A               CPI     R18, 138
   \   0000003A   0730               CPC     R19, R16
   \   0000003C   F048               BRCS    ??temp_to_grad_3
   \   0000003E   3D2E               CPI     R18, 222
   \   00000040   0730               CPC     R19, R16
   \   00000042   F430               BRCC    ??temp_to_grad_3
   \   00000044   E563               LDI     R22, 83
   \   00000046   E01A               LDI     R17, 10
   \   00000048   E84A               LDI     R20, 138
   \   0000004A   E051               LDI     R21, 1
   \   0000004C   E10E               LDI     R16, 30
   \   0000004E   CFF3               RJMP    ??temp_to_grad_1
   5103           if(t>477 && t<=706) return(proc_temp_to_grad(20,t,478,25,228));
   \                     ??temp_to_grad_3:
   \   00000050   3D2E               CPI     R18, 222
   \   00000052   0730               CPC     R19, R16
   \   00000054   F050               BRCS    ??temp_to_grad_4
   \   00000056   3C23               CPI     R18, 195
   \   00000058   E002               LDI     R16, 2
   \   0000005A   0730               CPC     R19, R16
   \   0000005C   F430               BRCC    ??temp_to_grad_4
   \   0000005E   EE64               LDI     R22, 228
   \   00000060   E119               LDI     R17, 25
   \   00000062   ED4E               LDI     R20, 222
   \   00000064   E051               LDI     R21, 1
   \   00000066   E104               LDI     R16, 20
   \   00000068   CFE6               RJMP    ??temp_to_grad_1
   5104           if(t>706 && t<=828) return(proc_temp_to_grad(-5,t,707,15,121));
   \                     ??temp_to_grad_4:
   \   0000006A   3C23               CPI     R18, 195
   \   0000006C   E002               LDI     R16, 2
   \   0000006E   0730               CPC     R19, R16
   \   00000070   F050               BRCS    ??temp_to_grad_5
   \   00000072   332D               CPI     R18, 61
   \   00000074   E003               LDI     R16, 3
   \   00000076   0730               CPC     R19, R16
   \   00000078   F430               BRCC    ??temp_to_grad_5
   \   0000007A   E769               LDI     R22, 121
   \   0000007C   E01F               LDI     R17, 15
   \   0000007E   EC43               LDI     R20, 195
   \   00000080   E052               LDI     R21, 2
   \   00000082   EF0B               LDI     R16, 251
   \   00000084   CFD8               RJMP    ??temp_to_grad_1
   5105           if(t>828 && t<=891) return(proc_temp_to_grad(-20,t,829,10,62));
   \                     ??temp_to_grad_5:
   \   00000086   332D               CPI     R18, 61
   \   00000088   E003               LDI     R16, 3
   \   0000008A   0730               CPC     R19, R16
   \   0000008C   F048               BRCS    ??temp_to_grad_6
   \   0000008E   372C               CPI     R18, 124
   \   00000090   0730               CPC     R19, R16
   \   00000092   F430               BRCC    ??temp_to_grad_6
   \   00000094   E36E               LDI     R22, 62
   \   00000096   E01A               LDI     R17, 10
   \   00000098   E34D               LDI     R20, 61
   \   0000009A   E053               LDI     R21, 3
   \   0000009C   EE0C               LDI     R16, 236
   \   0000009E   CFCB               RJMP    ??temp_to_grad_1
   5106           if(t>891 && t<=939) return(proc_temp_to_grad(-30,t,892,10,57));
   \                     ??temp_to_grad_6:
   \   000000A0   372C               CPI     R18, 124
   \   000000A2   0730               CPC     R19, R16
   \   000000A4   F048               BRCS    ??temp_to_grad_7
   \   000000A6   3A2C               CPI     R18, 172
   \   000000A8   0730               CPC     R19, R16
   \   000000AA   F430               BRCC    ??temp_to_grad_7
   \   000000AC   E369               LDI     R22, 57
   \   000000AE   E01A               LDI     R17, 10
   \   000000B0   E74C               LDI     R20, 124
   \   000000B2   E053               LDI     R21, 3
   \   000000B4   EE02               LDI     R16, 226
   \   000000B6   CFBF               RJMP    ??temp_to_grad_1
   5107            return(0x80);
   \                     ??temp_to_grad_7:
   \   000000B8   E800               LDI     R16, 128
   \   000000BA   9508               RET
   5108          }
   5109          
   5110          
   5111          /*
   5112          char temp_to_grad(unsigned int t)
   5113          {
   5114           
   5115            
   5116          //  if(t>=207 && t<=230) return(60-(t-207)*5 /23);
   5117          
   5118           // if(t>230 && t<=287) return(55-(t-231)*10 /56);
   5119           // if(t>287 && t<=319) return(45-(t-288)*5 /31);
   5120            
   5121            if(t>230 && t<=319) return(55-(t-231)*15 /90);
   5122            
   5123           // if(t>319 && t<=355) return(40-(t-320)*5 /35);
   5124           // if(t>355 && t<=393) return(35-(t-356)*5 /37);
   5125              
   5126            if(t>319 && t<=393) return(40-(t-320)*10 /73);
   5127            
   5128            
   5129            //if(t>393 && t<=434) return(30-(t-394)*5 /40);
   5130            //if(t>434 && t<=477) return(25-(t-435)*5 /42);
   5131            
   5132            if(t>393 && t<=477) return(30-(t-394)*10 /83);
   5133            
   5134            if(t>477 && t<=706) return(20-(t-478)*25 /228);
   5135          
   5136          //  if(t>707 && t<=749) return(-5-(t-707)*5 /42);
   5137          //  if(t>749 && t<=790) return(-10-(t-750)*5 /40);
   5138          //  if(t>790 && t<=828) return(-15-(t-791)*5 /37);
   5139            
   5140            if(t>706 && t<=828) return(-5-(t-707)*15 /121);
   5141            
   5142           
   5143           // if(t>828 && t<=861) return(-20-(t-829)*5 /32);
   5144           // if(t>861 && t<=891) return(-25-(t-862)*5 /29);
   5145            if(t>828 && t<=891) return(-20-(t-829)*10 /62);
   5146             
   5147             
   5148           // if(t>891 && t<=917) return(-30-(t-892)*5 /25);
   5149           // if(t>917 && t<=939) return(-35-(t-918)*5 /21);
   5150            if(t>891 && t<=939) return(-30-(t-892)*10 /57);
   5151           
   5152           // if(t>939 && t<=958) return(-40-(t-940)*5 /18);
   5153            
   5154            
   5155            return(0x80);
   5156          }
   5157          
   5158          */
   5159          
   5160          

   \                                 In segment FARCODE, align 2, keep-with-next
   5161          void control_temperatura(void)
   \                     control_temperatura:
   5162          {
   \   00000000   ....               LDI     R30, LOW(unix)
   \   00000002   ....               LDI     R31, (unix) >> 8
   \   00000004   ....               RCALL   ??Subroutine190_0
   \                     ??CrossCallReturnLabel_279:
   \   00000006   3E0E               CPI     R16, 238
   \   00000008   E022               LDI     R18, 2
   \   0000000A   0712               CPC     R17, R18
   \   0000000C   F018               BRCS    ??control_temperatura_0
   5163            /*
   5164            if ( PINE & RI0 ) S3_RD;
   5165            if ( (PINE & RI0 )==0 ) S3_GR;
   5166           
   5167            
   5168            if ( PINE & DCD0 ) S4_RD;
   5169           if ( (PINE & DCD0 )==0 ) S4_GR;
   5170            */
   5171            if(temperatura>T_MINUS10)SET_TEN;
   \   0000000E   ....               RCALL   ??Subroutine168_0
   \                     ??CrossCallReturnLabel_235:
   \   00000010   6008               ORI     R16, 0x08
   \   00000012   ....               RJMP    ?Subroutine170
   5172            if(temperatura<T_MINUS5)CLR_TEN;
   \                     ??control_temperatura_0:
   \   00000014   3C02               CPI     R16, 194
   \   00000016   4012               SBCI    R17, 2
   \   00000018   F418               BRCC    ??CrossCallReturnLabel_929
   \   0000001A   ....               RCALL   ??Subroutine168_0
   \                     ??CrossCallReturnLabel_236:
   \   0000001C   7F07               ANDI    R16, 0xF7
   \   0000001E   ....               RCALL   ?Subroutine170
   5173          
   5174          }
   \                     ??CrossCallReturnLabel_929:
   \   00000020   9508               RET
   5175          

   \                                 In segment FARCODE, align 2, keep-with-next
   5176          void send_info(char size,char __flash *p,unsigned char fl_id,unsigned char id)
   \                     send_info:
   5177          {
   \   00000000   ........           CALL    ?PROLOGUE6_L09
   \   00000004                      REQUIRE ?Register_R4_is_cg_reg
   \   00000004                      REQUIRE ?Register_R5_is_cg_reg
   \   00000004   9726               SBIW    R29:R28, 6
   \   00000006   2F80               MOV     R24, R16
   \   00000008   01D9               MOVW    R27:R26, R19:R18
   \   0000000A   2F91               MOV     R25, R17
   \   0000000C   2E44               MOV     R4, R20
   5178          
   5179            char massiv[6];
   5180            
   5181            if(Regim!=RG_DEBAG)return;
   \   0000000E   ........           CALL    ?Subroutine297
   \                     ??CrossCallReturnLabel_766:
   \   00000012   F5C9               BRNE    ??CrossCallReturnLabel_738
   5182                     burst_ds_r();
   \   00000014   ....               RCALL   ?Subroutine164
   5183                     sprintf(massiv,"%d\0",real_time.r_date);
   \                     ??CrossCallReturnLabel_222:
   \   00000016   ....               LDI     R30, LOW(real_time)
   \   00000018   ....               LDI     R31, (real_time) >> 8
   \   0000001A   8104               LDD     R16, Z+4
   \   0000001C   ....               RCALL   ?Subroutine43
   5184                     mov_massiv(strlen(massiv),massiv);
   5185                     s_port('.');
   5186                     sprintf(massiv,"%d\0",real_time.r_month);
   \                     ??CrossCallReturnLabel_456:
   \   0000001E   8105               LDD     R16, Z+5
   \   00000020   ....               RCALL   ?Subroutine43
   5187                     mov_massiv(strlen(massiv),massiv);
   5188                     s_port('.');
   5189                     sprintf(massiv,"%d\0",real_time.r_year);
   \                     ??CrossCallReturnLabel_457:
   \   00000022   8106               LDD     R16, Z+6
   \   00000024   ....               RCALL   ?Subroutine46
   5190                     mov_massiv(strlen(massiv),massiv);
   5191                     s_port(' ');
   \                     ??CrossCallReturnLabel_49:
   \   00000026   ....               RCALL   ?Subroutine31
   5192                     sprintf(massiv,"%d\0",real_time.r_hor);
   \                     ??CrossCallReturnLabel_737:
   \   00000028   ....               LDI     R30, LOW(real_time)
   \   0000002A   ....               LDI     R31, (real_time) >> 8
   \   0000002C   8102               LDD     R16, Z+2
   \   0000002E   ....               RCALL   ?Subroutine44
   5193                     mov_massiv(strlen(massiv),massiv);
   5194                     s_port(':');
   5195                     sprintf(massiv,"%d\0",real_time.r_min);
   \                     ??CrossCallReturnLabel_458:
   \   00000030   8101               LDD     R16, Z+1
   \   00000032   ....               RCALL   ?Subroutine44
   5196                     mov_massiv(strlen(massiv),massiv);
   5197                     s_port(':');
   5198                     sprintf(massiv,"%d\0",real_time.r_sec);
   \                     ??CrossCallReturnLabel_459:
   \   00000034   8100               LD      R16, Z
   \   00000036   ....               RCALL   ?Subroutine46
   5199                     mov_massiv(strlen(massiv),massiv);
   5200                     s_port(' ');
   \                     ??CrossCallReturnLabel_48:
   \   00000038   E200               LDI     R16, 32
   \   0000003A   C003               RJMP    ??send_info_0
   5201                     
   5202                     while(size--) s_port(*p++);
   \                     ??send_info_1:
   \   0000003C   01FD               MOVW    R31:R30, R27:R26
   \   0000003E   9105               LPM     R16, Z+
   \   00000040   01DF               MOVW    R27:R26, R31:R30
   \                     ??send_info_0:
   \   00000042   ....               RCALL   ?Subroutine301
   \                     ??CrossCallReturnLabel_742:
   \   00000044   2F08               MOV     R16, R24
   \   00000046   958A               DEC     R24
   \   00000048   2300               TST     R16
   \   0000004A   F7C1               BRNE    ??send_info_1
   5203                     
   5204                     if(fl_id!=0)
   \   0000004C   2399               TST     R25
   \   0000004E   F0C1               BREQ    ??send_info_2
   5205                     { 
   5206                       s_port(' ');
   \   00000050   ....               RCALL   ?Subroutine31
   5207                       s_port('I');
   \                     ??CrossCallReturnLabel_736:
   \   00000052   E409               LDI     R16, 73
   \   00000054   ....               RCALL   ?Subroutine301
   5208                       s_port('D');
   \                     ??CrossCallReturnLabel_741:
   \   00000056   E404               LDI     R16, 68
   \   00000058   ....               RCALL   ?Subroutine301
   5209                       s_port(':');
   \                     ??CrossCallReturnLabel_740:
   \   0000005A   E30A               LDI     R16, 58
   \   0000005C   ....               RCALL   ?Subroutine301
   5210                      
   5211                       sprintf(massiv,"%d\0",id);
   \                     ??CrossCallReturnLabel_739:
   \   0000005E   2455               CLR     R5
   \   00000060   925A               ST      -Y, R5
   \   00000062   924A               ST      -Y, R4
   \   00000064   ....               LDI     R18, LOW(`?<Constant "%d\\000">`)
   \   00000066   ....               LDI     R19, (`?<Constant "%d\\000">`) >> 8
   \   00000068   018E               MOVW    R17:R16, R29:R28
   \   0000006A   5F0E               SUBI    R16, 254
   \   0000006C   4F1F               SBCI    R17, 255
   \   0000006E   ........           CALL    sprintf
   \   00000072   9622               ADIW    R29:R28, 2
   5212                       mov_massiv(strlen(massiv),massiv);
   \   00000074   018E               MOVW    R17:R16, R29:R28
   \   00000076   ........           CALL    strlen
   \   0000007A   019E               MOVW    R19:R18, R29:R28
   \   0000007C   ........           CALL    mov_massiv
   5213                     }
   5214                     
   5215                     s_port(0x0d);
   \                     ??send_info_2:
   \   00000080   ....               RCALL   ?Subroutine94
   5216                     s_port(0x0a);
   \                     ??CrossCallReturnLabel_745:
   \   00000082   E00A               LDI     R16, 10
   \   00000084   ....               RCALL   ?Subroutine301
   5217          }
   \                     ??CrossCallReturnLabel_738:
   \   00000086   9626               ADIW    R29:R28, 6
   \   00000088   E0E6               LDI     R30, 6
   \   0000008A   ........           JMP     ?EPILOGUE_B6_L09

   \                                 In segment FARCODE, align 2, keep-with-next
   \                     ?Subroutine46:
   \   00000000   E010               LDI     R17, 0
   \   00000002   931A               ST      -Y, R17
   \   00000004   930A               ST      -Y, R16
   \   00000006   ....               LDI     R18, LOW(`?<Constant "%d\\000">`)
   \   00000008   ....               LDI     R19, (`?<Constant "%d\\000">`) >> 8
   \   0000000A   018E               MOVW    R17:R16, R29:R28
   \   0000000C   5F0E               SUBI    R16, 254
   \   0000000E   4F1F               SBCI    R17, 255
   \   00000010   ........           CALL    sprintf
   \   00000014   9622               ADIW    R29:R28, 2
   \   00000016   018E               MOVW    R17:R16, R29:R28
   \   00000018   ........           CALL    strlen
   \   0000001C   019E               MOVW    R19:R18, R29:R28
   \   0000001E   ........           JMP     mov_massiv

   \                                 In segment FARCODE, align 2, keep-with-next
   \                     ?Subroutine44:
   \   00000000   E010               LDI     R17, 0
   \   00000002   931A               ST      -Y, R17
   \   00000004   930A               ST      -Y, R16
   \   00000006   ....               LDI     R18, LOW(`?<Constant "%d\\000">`)
   \   00000008   ....               LDI     R19, (`?<Constant "%d\\000">`) >> 8
   \   0000000A   018E               MOVW    R17:R16, R29:R28
   \   0000000C   5F0E               SUBI    R16, 254
   \   0000000E   4F1F               SBCI    R17, 255
   \   00000010   ........           CALL    sprintf
   \   00000014   9622               ADIW    R29:R28, 2
   \   00000016   018E               MOVW    R17:R16, R29:R28
   \   00000018   ........           CALL    strlen
   \   0000001C   019E               MOVW    R19:R18, R29:R28
   \   0000001E   ........           CALL    mov_massiv
   \   00000022   E30A               LDI     R16, 58
   \   00000024                      REQUIRE ?Subroutine255
   \   00000024                      ;               // Fall through to label ?Subroutine255

   \                                 In segment FARCODE, align 2, keep-with-next
   \                     ?Subroutine255:
   \   00000000   ........           CALL    s_port
   \   00000004   ....               LDI     R30, LOW(real_time)
   \   00000006   ....               LDI     R31, (real_time) >> 8
   \   00000008   9508               RET

   \                                 In segment FARCODE, align 2, keep-with-next
   \                     ?Subroutine43:
   \   00000000   E010               LDI     R17, 0
   \   00000002   931A               ST      -Y, R17
   \   00000004   930A               ST      -Y, R16
   \   00000006   ....               LDI     R18, LOW(`?<Constant "%d\\000">`)
   \   00000008   ....               LDI     R19, (`?<Constant "%d\\000">`) >> 8
   \   0000000A   018E               MOVW    R17:R16, R29:R28
   \   0000000C   5F0E               SUBI    R16, 254
   \   0000000E   4F1F               SBCI    R17, 255
   \   00000010   ........           CALL    sprintf
   \   00000014   9622               ADIW    R29:R28, 2
   \   00000016   018E               MOVW    R17:R16, R29:R28
   \   00000018   ........           CALL    strlen
   \   0000001C   019E               MOVW    R19:R18, R29:R28
   \   0000001E   ........           CALL    mov_massiv
   \   00000022   E20E               LDI     R16, 46
   \   00000024   ....               RJMP    ?Subroutine255

   \                                 In segment FARCODE, align 2, keep-with-next
   \                     ?Subroutine31:
   \   00000000   E200               LDI     R16, 32
   \   00000002   ....               RJMP    ?Subroutine301

   \                                 In segment NEAR_ID, align 1, keep-with-next
   \                     `?<Initializer for <Constant "%d\\000">>`:
   \   00000000   64250000           DB 25H, 64H, 0, 0

   \                                 In segment SWITCH, align 2, keep-with-next
   \                     `?<Jumptable for proc_config>_0`:
   \   00000000   01                 DB      1
   \   00000001   01                 DB      1
   \   00000002   ......             DP      (??proc_config_2) /2
   \   00000005   ......             DP      (??proc_config_1) /2
   \   00000008   01                 DB      0x1
   \   00000009   ......             DP      (??proc_config_5) /2
   \   0000000C   01                 DB      0x1
   \   0000000D   ......             DP      (??proc_config_44) /2
   \   00000010   01                 DB      0x1
   \   00000011   ......             DP      (??proc_config_41) /2
   \   00000014   01                 DB      0x1
   \   00000015   ......             DP      (??proc_config_38) /2
   \   00000018   01                 DB      0x1
   \   00000019   ......             DP      (??proc_config_33) /2
   \   0000001C   01                 DB      0x1
   \   0000001D   ......             DP      (??proc_config_7) /2
   \   00000020   01                 DB      0x1
   \   00000021   ......             DP      (??proc_config_15) /2
   \   00000024   01                 DB      0x1
   \   00000025   ......             DP      (??proc_config_18) /2
   \   00000028   01                 DB      0x1
   \   00000029   ......             DP      (??proc_config_30) /2
   \   0000002C   01                 DB      0x1
   \   0000002D   ......             DP      (??proc_config_21) /2
   \   00000030   01                 DB      0x1
   \   00000031   ......             DP      (??proc_config_24) /2
   \   00000034   01                 DB      0x1
   \   00000035   ......             DP      (??proc_config_27) /2
   \   00000038   01                 DB      0x1
   \   00000039   ......             DP      (??proc_config_47) /2
   \   0000003C   01                 DB      0x1
   \   0000003D   ......             DP      (??proc_config_53) /2
   \   00000040   02                 DB      0x2
   \   00000041   ......             DP      (??proc_config_48) /2
   \   00000044   01                 DB      0x1
   \   00000045   ......             DP      (??proc_config_6) /2
   \   00000048   01                 DB      0x1
   \   00000049   ......             DP      (??proc_config_57) /2
   \   0000004C   01                 DB      0x1
   \   0000004D   ......             DP      (??proc_config_58) /2
   \   00000050   01                 DB      0x1
   \   00000051   ......             DP      (??proc_config_64) /2
   \   00000054   01                 DB      0x1
   \   00000055   ......             DP      (??proc_config_68) /2
   \   00000058   01                 DB      0x1
   \   00000059   ......             DP      (??proc_config_71) /2
   \   0000005C   01                 DB      0x1
   \   0000005D   ......             DP      (??proc_config_76) /2
   \   00000060   01                 DB      0x1
   \   00000061   ......             DP      (??proc_config_79) /2
   \   00000064   01                 DB      0x1
   \   00000065   ......             DP      (??proc_config_82) /2
   \   00000068   65                 DB      0x65
   \   00000069   ......             DP      (??proc_config_62) /2
   \   0000006C   FB                 DB      251
   \   0000006D   00                 DB      0

   \                                 In segment NEAR_I, align 1, keep-with-next
   \   00000000                      REQUIRE `?<Segment init: NEAR_I>`
   \                     `?<Constant "%d\\000">`:
   \   00000000                      DS 4
   \   00000004                      REQUIRE `?<Initializer for <Constant "%d\\000">>`
   5218          
   5219          

   Maximum stack usage in bytes:

     Function                   CSTACK RSTACK
     --------                   ------ ------
     Application_SEQ_tx            14      3
       -> read_from_buf            14      3
       -> clr_cntr_nat              8      3
       -> send_info                 8      3
       -> form_buf_tx_ppp           8      3
       -> check_cts                 8      3
     check_cont_485_1               0      3
     check_cts                      0      3
     check_ln_conf                  4      3
     check_wdt                      4      3
       -> func_crc_tii              4      3
       -> write_log_info            4      3
       -> lock_it                   4      3
       -> crc_ozu                   4      3
       -> write_log_info            4      3
       -> lock_it                   4      3
       -> crc_m1                    4      3
       -> write_log_info            4      3
       -> lock_it                   4      3
     clr_cntr_link                  0      3
     clr_cntr_link_2                0      3
     clr_cntr_nat                   0      3
     clr_var_ppp                    0      3
     clr_var_ppp_rx                 0      3
     control_temperatura            0      3
     crc_485                        0      3
     crc_m1                         0      3
     crc_ozu                        2      3
     delay                          0      3
     delay_on_contr                 1      3
       -> delay                     1      3
       -> delay                     1      3
       -> delay                     1      3
       -> delay                     1      3
       -> delay                     1      3
     form_buf_tx_ppp               10      6
       -> crc_m1                   10      3
       -> kodirovka                10      3
       -> calc_crc_ip              10      3
       -> calc_crc_udp_2           10      3
       -> pppfcs16                 10      3
     func_crc_tii                   0      3
     load_par_first_flash           8      3
       -> RdFromFleshToArrInt       6      3
       -> WrArrayToFleshInt         8      3
       -> WrArrayToFleshInt         8      3
       -> WrArrayToFlesh            6      3
       -> WrArrayToFlesh            6      3
       -> WrArrayToFlesh            6      3
     load_par_from_memory          28      6
       -> RdFromFleshToArr         28      3
       -> crc_m1                   28      3
       -> RdFromFleshToArr         28      3
       -> crc_m1                   28      3
       -> RdFromFleshToArr         28      3
       -> crc_m1                   28      3
       -> RdFromFleshToArr         28      3
       -> crc_m1                   28      3
       -> burst_ds_r               28      3
       -> crc_m1                   28      3
       -> WrArrayToFlesh           28      3
       -> RdFromFleshToArr         28      3
       -> crc_sum                  28      3
       -> WrArrayToFlesh           28      3
       -> RdFromFleshToArr         28      3
       -> WrArrayToFlesh           28      3
       -> RdFromFleshToArr         28      3
       -> WrArrayToFlesh           28      3
       -> RdFromFleshToArr         28      3
       -> RdFromFleshToArrInt      28      3
       -> RdFromFleshToArrInt      28      3
       -> RdFromFleshToArr         28      3
     load_rw_pdp                   78      6
       -> RdFromFleshToArr         78      3
       -> strlen                   78      3
       -> strlen                   78      3
       -> strlen                   78      3
       -> crc_m1                   78      3
       -> WrArrayToFlesh           78      3
     load_rw_pdp_r                 78      6
       -> RdFromFleshToArr         78      3
       -> strlen                   78      3
       -> strlen                   78      3
       -> strlen                   78      3
       -> crc_m1                   78      3
       -> WrArrayToFlesh           78      3
     load_sel_modul                 0      3
       -> RdFromFleshToArr          0      3
     lock_it                        0      3
     long_delay                     0      3
     modem_engine                   2      3
       -> start_func_stm_on         2      3
       -> write_log_info            2      3
       -> lock_it                   2      3
       -> check_wdt                 2      3
       -> supervisorwdt             2      3
       -> monitor_change_state      2      3
       -> energy_plus               2      3
       -> control_temperatura       2      3
       -> monitor_wr_truffic        2      3
       -> control_ts                2      3
       -> ds_handler                2      3
       -> monitori                  2      3
       -> start_func_stm_kon        2      3
       -> write_log_info            2      3
       -> lock_it                   2      3
       -> start_func_stm_pwk        2      3
       -> init_pins_hiz_to_out      2      3
       -> send_info                 2      3
       -> init_scen_stm_si          2      3
       -> at_com_tx                 2      3
       -> at_com_rx                 2      3
       -> at_com_scen_init          2      3
       -> send_info                 2      3
       -> write_log_info            2      3
       -> init_scen_stm_sc          2      3
       -> send_info                 2      3
       -> start_func_stm_koff       2      3
       -> send_info                 2      3
       -> start_func_stm_koff       2      3
       -> at_com_tx                 2      3
       -> at_com_rx                 2      3
       -> at_com_scen_stm_sc        2      3
       -> send_info                 2      3
       -> write_log_info            2      3
       -> start_func_stm_scp        2      3
       -> analiz_ppp_rx             2      3
       -> monitor_event_LCP         2      3
       -> monitor_act_LCP           2      3
       -> monitor_event_PAP         2      3
       -> monitor_act_PAP           2      3
       -> monitor_event_IPCP        2      3
       -> monitor_act_IPCP          2      3
       -> send_info                 2      3
       -> write_log_info            2      3
       -> send_info                 2      3
       -> write_log_info            2      3
       -> send_info                 2      3
       -> write_log_info            2      3
       -> send_info                 2      3
       -> write_log_info            2      3
       -> send_info                 2      3
       -> write_log_info            2      3
       -> clr_var_ppp_rx            2      3
       -> analiz_ppp_rx             2      3
       -> monitor_event_IPCP        2      3
       -> monitor_act_IPCP          2      3
       -> monitor1_tx_rs485_1       2      3
       -> monitor1_rec_rs485_1      2      3
       -> monitor1_tm_rs485_1       2      3
       -> monitor1_tx_rs485_2       2      3
       -> monitor1_rec_rs485_2      2      3
       -> monitor1_tm_rs485_2       2      3
       -> monitor1_tx_rs232_2       2      3
       -> monitor1_rec_rs232_2      2      3
       -> monitor1_tm_rs232_2       2      3
       -> Application_SEQ_tx        2      3
       -> monitor_cntr_ch           2      3
       -> monitor_cntr_cl_seq       2      3
       -> monitor_cntr_nat          2      3
       -> send_info                 2      3
       -> write_log_info            2      3
       -> clr_var_ppp_rx            2      3
       -> start_func_stm_koff       2      3
       -> send_info                 2      3
       -> write_log_info            2      3
       -> send_info                 2      3
       -> write_log_info            2      3
       -> send_info                 2      3
       -> write_log_info            2      3
       -> send_info                 2      3
       -> write_log_info            2      3
       -> monitor1_rec_rs485_1      2      3
       -> monitor1_tm_rs485_1       2      3
       -> monitor1_rec_rs485_2      2      3
       -> monitor1_tm_rs485_2       2      3
       -> monitor1_rec_rs232_2      2      3
       -> monitor1_tm_rs232_2       2      3
       -> send_terminate_lcp        2      3
       -> write_log_info            2      3
       -> clr_var_ppp               2      3
       -> init_scen_stm_dc_1        2      3
       -> write_log_info            2      3
       -> start_func_stm_off        2      3
       -> at_com_tx                 2      3
       -> at_com_rx                 2      3
       -> at_com_scen_stm_dc_1      2      3
       -> send_info                 2      3
       -> init_scen_stm_sc          2      3
       -> write_log_info            2      3
       -> start_func_stm_koff       2      3
       -> start_func_stm_off        2      3
       -> start_func_stm_on         2      3
     monitor1_rec_rs232_2           4      3
       -> clr_cntr_nat              4      3
       -> clr_cntr_link             4      3
       -> send_err485               4      3
       -> send_err485               4      3
       -> form_buf_tx_ppp           4      3
       -> check_cts                 4      3
     monitor1_rec_rs485_1           4      3
       -> clr_cntr_nat              4      3
       -> clr_cntr_link             4      3
       -> send_err485               4      3
       -> send_err485               4      3
       -> form_buf_tx_ppp           4      3
       -> check_cts                 4      3
     monitor1_rec_rs485_2           4      3
       -> clr_cntr_nat              4      3
       -> clr_cntr_link             4      3
       -> send_err485               4      3
       -> send_err485               4      3
       -> form_buf_tx_ppp           4      3
       -> check_cts                 4      3
     monitor1_tm_rs232_2            0      3
       -> clr_cntr_nat              0      3
       -> clr_cntr_link             0      3
       -> send_err485               0      3
     monitor1_tm_rs485_1            2      3
       -> clr_cntr_nat              2      3
       -> clr_cntr_link             2      3
       -> send_err485               2      3
     monitor1_tm_rs485_2            2      3
       -> clr_cntr_nat              2      3
       -> clr_cntr_link             2      3
       -> send_err485               2      3
     monitor1_tx_rs232_2            4      3
       -> run_cont_232_2            4      3
     monitor1_tx_rs485_1            4      3
       -> run_cont_485_1            4      3
     monitor1_tx_rs485_2            4      3
       -> run_cont_485_2            4      3
     monitor_beg_state_seq         26      6
       -> delay                    18      3
       -> delay                    18      3
       -> burst_ds_r               18      3
       -> send_info                18      3
       -> write_to_buf             26      3
     monitor_change_state          23      3
       -> send_info                15      3
       -> send_info                15      3
       -> send_info                15      3
       -> send_info                15      3
       -> burst_ds_r               15      3
       -> write_to_buf             23      3
     monitor_cntr_ch                2      3
       -> clr_cntr_nat              2      3
       -> send_info                 2      3
       -> form_buf_tx_ppp           2      3
       -> check_cts                 2      3
     monitor_cntr_cl_seq            4      3
       -> clr_cntr_nat              4      3
       -> send_info                 4      3
       -> form_buf_tx_ppp           4      3
       -> check_cts                 4      3
     monitor_cntr_nat               1      3
       -> clr_cntr_nat              1      3
       -> send_info                 1      3
       -> form_buf_tx_ppp           1      3
       -> check_cts                 1      3
     monitor_rst                   25      3
       -> send_info                17      3
       -> write_log_info           17      3
       -> burst_ds_r               17      3
       -> write_to_buf             25      3
       -> func_crc_tii             17      3
       -> write_log_info           17      3
       -> send_info                17      3
       -> write_log_info           17      3
       -> send_info                17      3
       -> write_log_info           17      3
       -> send_info                17      3
       -> burst_ds_r               17      3
       -> write_to_buf             25      3
     monitor_wr_truffic            16      3
       -> burst_ds_r               16      3
       -> RdFromFleshToArr         16      3
       -> crc_m1                   16      3
       -> WrArrayToFlesh           16      3
     mov_buf                        4      3
       -> s_port                    4      3
     mov_lf                         0      3
       -> s_port                    0      3
       -> s_port                    0      3
     mov_s                          3      3
       -> s_port                    3      3
     proc_config                   43      6
       -> ret_version              43      3
       -> ret_version              43      3
       -> ret_version              43      3
       -> RdFromFleshToArr         43      3
       -> crc_m1                   43      3
       -> WrArrayToFlesh           43      3
       -> crc_ozu                  43      3
       -> RdFromFleshToArr         43      3
       -> RdFromFleshToArr         43      3
       -> crc_m1                   43      3
       -> WrArrayToFlesh           43      3
       -> crc_ozu                  43      3
       -> RdFromFleshToArr         43      3
       -> RdFromFleshToArr         43      3
       -> crc_m1                   43      3
       -> WrArrayToFlesh           43      3
       -> crc_ozu                  43      3
       -> RdFromFleshToArr         43      3
       -> RdFromFleshToArr         43      3
       -> crc_m1                   43      3
       -> WrArrayToFlesh           43      3
       -> crc_ozu                  43      3
       -> RdFromFleshToArr         43      3
       -> RdFromFleshToArr         43      3
       -> crc_m1                   43      3
       -> WrArrayToFlesh           43      3
       -> crc_ozu                  43      3
       -> RdFromFleshToArr         43      3
       -> RdFromFleshToArr         43      3
       -> crc_m1                   43      3
       -> WrArrayToFlesh           43      3
       -> crc_ozu                  43      3
       -> RdFromFleshToArr         43      3
       -> RdFromFleshToArr         43      3
       -> crc_m1                   43      3
       -> WrArrayToFlesh           43      3
       -> crc_ozu                  43      3
       -> monitor_beg_state_seq    43      3
       -> RdFromFleshToArr         43      3
       -> RdFromFleshToArr         43      3
       -> crc_m1                   43      3
       -> WrArrayToFlesh           43      3
       -> RdFromFleshToArr         43      3
       -> RdFromFleshToArr         43      3
       -> crc_m1                   43      3
       -> WrArrayToFlesh           43      3
       -> RdFromFleshToArr         43      3
       -> RdFromFleshToArr         43      3
       -> crc_m1                   43      3
       -> WrArrayToFlesh           43      3
       -> RdFromFleshToArr         43      3
       -> RdFromFleshToArr         43      3
       -> WrArrayToFlesh           43      3
       -> WrArrayToFlesh           43      3
       -> RdFromFleshToArr         43      3
       -> set_rlt                  43      3
       -> burst_ds_r               43      3
       -> burst_ds_r               43      3
       -> RdFromFleshToArr         43      3
       -> WrArrayToFlesh           43      3
       -> WrArrayToFlesh           43      3
       -> RdFromFleshToArr         43      3
       -> crc_m1                   43      3
       -> WrArrayToFlesh           43      3
       -> RdFromFleshToArr         43      3
       -> RdFromFleshToArr         43      3
       -> crc_m1                   43      3
       -> WrArrayToFlesh           43      3
       -> crc_ozu                  43      3
       -> RdFromFleshToArr         43      3
       -> RdFromFleshToArr         43      3
       -> crc_m1                   43      3
       -> WrArrayToFlesh           43      3
       -> crc_ozu                  43      3
       -> RdFromFleshToArr         43      3
       -> RdFromFleshToArr         43      3
       -> crc_m1                   43      3
       -> WrArrayToFlesh           43      3
       -> crc_ozu                  43      3
       -> monitor_beg_state_seq    43      3
       -> RdFromFleshToArr         43      3
       -> RdFromFleshToArr         43      3
       -> crc_m1                   43      3
       -> WrArrayToFlesh           43      3
       -> crc_ozu                  43      3
       -> RdFromFleshToArr         43      3
       -> burst_ds_r               43      3
       -> crc_m1                   43      3
       -> WrArrayToFlesh           43      3
       -> RdFromFleshToArr         43      3
       -> temp_to_grad             43      3
     proc_temp_to_grad              4      6
     run_cont_232_2                 4      3
     run_cont_485_1                 4      3
     run_cont_485_2                 4      3
     s_port                         0      3
     send_err485                    5      3
       -> clr_cntr_nat              5      3
       -> clr_cntr_link             5      3
       -> form_buf_tx_ppp           5      3
       -> check_cts                 5      3
     send_info                     16      3
       -> burst_ds_r               14      3
       -> sprintf                  16      3
       -> strlen                   14      3
       -> mov_massiv               14      3
       -> s_port                   14      3
       -> sprintf                  16      3
       -> strlen                   14      3
       -> mov_massiv               14      3
       -> s_port                   14      3
       -> sprintf                  16      3
       -> strlen                   14      3
       -> mov_massiv               14      3
       -> s_port                   14      3
       -> sprintf                  16      3
       -> strlen                   14      3
       -> mov_massiv               14      3
       -> s_port                   14      3
       -> sprintf                  16      3
       -> strlen                   14      3
       -> mov_massiv               14      3
       -> s_port                   14      3
       -> sprintf                  16      3
       -> strlen                   14      3
       -> mov_massiv               14      3
       -> s_port                   14      3
       -> s_port                   14      3
       -> s_port                   14      3
       -> s_port                   14      3
       -> s_port                   14      3
       -> s_port                   14      3
       -> sprintf                  16      3
       -> strlen                   14      3
       -> mov_massiv               14      3
       -> s_port                   14      3
       -> s_port                   14      3
     start_func_stm_koff            0      3
       -> init_pins_out_to_hiz      0      3
       -> write_log_info            0      3
       -> send_info                 0      3
     start_func_stm_kon             0      3
     start_func_stm_off             0      3
       -> write_log_info            0      3
       -> send_info                 0      3
     start_func_stm_on              2      3
       -> write_log_info            2      3
       -> send_info                 2      3
       -> write_log_info            2      3
       -> send_info                 2      3
       -> send_info                 2      3
     start_func_stm_pwk             0      3
       -> send_info                 0      3
     start_func_stm_scp             2      3
       -> clr_var_ppp_rx            2      3
       -> clr_var_ppp               2      3
     temp_to_grad                   0      3
       -> proc_temp_to_grad         0      3
       -> proc_temp_to_grad         0      3
       -> proc_temp_to_grad         0      3
       -> proc_temp_to_grad         0      3
       -> proc_temp_to_grad         0      3
       -> proc_temp_to_grad         0      3
       -> proc_temp_to_grad         0      3


   Segment part sizes:

     Function/Label                 Bytes
     --------------                 -----
     _A_UDR3                           1
     _A_UBRR3                          2
     _A_UCSR3C                         1
     _A_UCSR3B                         1
     _A_PINK                           1
     _A_PORTJ                          1
     _A_PORTH                          1
     _A_UDR2                           1
     _A_UBRR2                          2
     _A_UCSR2C                         1
     _A_UCSR2B                         1
     _A_UCSR2A                         1
     _A_UBRR1                          2
     _A_UCSR1C                         1
     _A_UCSR1B                         1
     _A_UDR0                           1
     _A_UBRR0                          2
     _A_UCSR0B                         1
     _A_UCSR0A                         1
     _A_WDTCSR                         1
     _A_SREG                           1
     _A_MCUSR                          1
     _A_PORTG                          1
     _A_PORTE                          1
     _A_PINE                           1
     _A_PORTD                          1
     _A_PORTC                          1
     _A_PORTB                          1
     tab_crc                         256
     stm_pwr_on                       33
     stm_pwr_kon                      11
     stm_pwr_off                      11
     stm_pwr_koff                     12
     stm_si                           95
     stm_rdc                           7
     evm_at_ok                         9
     evm_ppp_ok                       10
     evc_taken                        32
     evc_state                         9
     evc_wdr                          28
     msg_evc                           7
     msg_ctrl_ch                      11
     msg_ctrl_nat                     12
     req_out_ctrl_cl                  12
     e_rw_pdp                          1
     e_rw_pdp_r                        1
     auchCRCHi                       256
     auchCRCLo                       256
     unix                             18
     crc_tii                          19
     Appl_RS485_1                     63
     cnt_key_off                       2
     Appl_RS232_2                     39
     buf_tx_232                     1100
     ip_self                           8
     Buf1_rx_ppp                     335
     Buf2_rx_ppp                     335
     Appl_seq                         63
     Appl_RS485_1_data_buf           204
     Appl_RS485_2_data_buf           204
     Appl_RS232_2_data_buf           200
     state_seq                         4
     Appl_seq_buf                    200
     summa_temperatura                 4
     count_summa_temperatura           2
     ??lock_it_0                      18
     ??delay_0                        12
     ??long_delay_0                   22
     delay_on_contr                  104
     ?Subroutine22                     8
     ?Subroutine19                    10
     ?Subroutine285                    2
     ?Subroutine16                    14
     crc_485                          38
     crc_m1                           56
     ?Subroutine83                     6
     ?Subroutine81                    18
     ?Subroutine88                     6
     ?Subroutine67                    12
     check_cts                        22
     ?Subroutine271                    4
     ??s_port_0                       14
     mov_s                            32
     ?Subroutine287                    2
     mov_buf                          26
     ?Subroutine286                    6
     ?Subroutine101                    4
     mov_lf                            6
     ?Subroutine301                    4
     ?Subroutine94                     4
     func_crc_tii                     48
     ?Subroutine84                    16
     ?Subroutine260                    6
     ?Subroutine80                    10
     crc_ozu                         274
     ?Subroutine108                    4
     ?Subroutine259                    6
     ?Subroutine106                    4
     ?Subroutine87                    10
     ?Subroutine86                    10
     ?Subroutine85                    12
     ?Subroutine79                    26
     ?Subroutine272                    4
     ?Subroutine78                    16
     ?Subroutine77                    12
     ?Subroutine62                    94
     ?Subroutine61                    58
     ?Subroutine250                   10
     ?Subroutine109                   10
     ?Subroutine316                    4
     load_rw_pdp                      62
     ?Subroutine138                   10
     ?Subroutine66                    12
     ?Subroutine45                    50
     ?Subroutine42                    48
     ?Subroutine258                    8
     ?Subroutine40                    52
     ?Subroutine38                    26
     ?Subroutine273                    4
     ?Subroutine10                    16
     ?Subroutine261                    6
     ?Subroutine130                    6
     ?Subroutine128                    4
     ?Subroutine288                   10
     ?Subroutine266                    6
     ?Subroutine289                    6
     ?Subroutine294                    6
     ?Subroutine129                    4
     load_rw_pdp_r                    64
     ?Subroutine150                    6
     ?Subroutine136                    2
     ?Subroutine317                    4
     load_par_first_flash            130
     ?Subroutine5                     12
     ?Subroutine152                    6
     ?Subroutine151                    6
     ?Subroutine145                    6
     ?Subroutine149                    4
     ?Subroutine318                    4
     ?Subroutine315                    4
     load_par_from_memory            630
     ?Subroutine162                   10
     ?Subroutine148                   10
     ?Subroutine139                    6
     ?Subroutine262                    6
     ?Subroutine133                    4
     ?Subroutine118                   22
     ?Subroutine105                    8
     ?Subroutine274                    4
     ?Subroutine292                    2
     ?Subroutine120                    6
     ?Subroutine92                    10
     ?Subroutine11                     4
     ?Subroutine306                    4
     ?Subroutine158                    8
     ?Subroutine154                   14
     ?Subroutine140                    4
     ?Subroutine290                    6
     ?Subroutine135                    6
     ?Subroutine131                   10
     ?Subroutine119                   14
     ?Subroutine268                    6
     ?Subroutine60                    10
     ?Subroutine34                    40
     ?Subroutine132                   10
     ?Subroutine49                     8
     load_sel_modul                   10
     ?Subroutine312                    4
     start_func_stm_off               22
     ?Subroutine291                    4
     ?Subroutine172                    4
     ?Subroutine18                    26
     ?Subroutine17                     4
     ?Subroutine297                    6
     ?Subroutine247                   36
     ?Subroutine13                    12
     ?Subroutine253                   10
     start_func_stm_koff              42
     ?Subroutine319                    4
     ?Subroutine313                    4
     start_func_stm_on               186
     ?Subroutine12                     6
     ?Subroutine309                    2
     ?Subroutine25                     4
     ?Subroutine264                    6
     ?Subroutine176                    6
     ?Subroutine296                    4
     ?Subroutine170                    6
     ?Subroutine168                   10
     ?Subroutine184                    6
     ?Subroutine177                    6
     start_func_stm_kon                6
     ?Subroutine169                    6
     start_func_stm_pwk               20
     ?Subroutine314                    4
     start_func_stm_scp              154
     ?Subroutine179                   16
     ?Subroutine270                    6
     ?Subroutine185                    6
     ?Subroutine188                    6
     ?Subroutine91                    10
     ?Subroutine279                    4
     form_buf_tx_ppp                 644
     ?Subroutine204                    4
     ?Subroutine263                    6
     ?Subroutine203                   12
     ?Subroutine191                    6
     ?Subroutine189                   12
     ?Subroutine155                    8
     ?Subroutine142                   12
     ?Subroutine64                    28
     ?Subroutine298                    4
     ?Subroutine251                   10
     ?Subroutine276                    4
     ?Subroutine202                    4
     ?Subroutine117                    4
     ?Subroutine97                     2
     ?Subroutine280                    4
     ?Subroutine72                     6
     ?Subroutine190                    8
     clr_cntr_link_2                  16
     ?Subroutine126                   12
     clr_cntr_link                    32
     ?Subroutine275                    4
     ?Subroutine210                    6
     monitor_rst                     288
     ?Subroutine89                    48
     ?Subroutine82                    22
     ?Subroutine20                     4
     ?Subroutine95                    10
     ?Subroutine41                    26
     ?Subroutine277                    4
     ?Subroutine205                    4
     ?Subroutine182                    4
     ?Subroutine265                    6
     ?Subroutine153                    6
     ?Subroutine173                    8
     monitor_beg_state_seq           322
     ?Subroutine216                    4
     ?Subroutine199                   10
     ?Subroutine124                    8
     ?Subroutine24                     8
     ?Subroutine127                   16
     ?Subroutine47                    20
     clr_cntr_nat                     30
     clr_var_ppp_rx                   48
     ?Subroutine146                   10
     clr_var_ppp                     318
     ?Subroutine219                    4
     ?Subroutine209                    6
     ?Subroutine278                    4
     ?Subroutine208                    8
     ?Subroutine207                    8
     ?Subroutine206                    8
     monitor_cntr_ch                 176
     ?Subroutine15                    30
     ?Subroutine213                   22
     ?Subroutine254                   10
     ?Subroutine122                   14
     ?Subroutine192                   14
     ?Subroutine181                    4
     monitor_cntr_nat                 52
     ?Subroutine156                    8
     ?Subroutine198                   10
     monitor_cntr_cl_seq             162
     ?Subroutine224                   12
     ?Subroutine74                    16
     ?Subroutine223                    6
     monitor_change_state            436
     ?Subroutine293                    6
     ?Subroutine225                    6
     ?Subroutine197                   20
     ?Subroutine194                   16
     ?Subroutine187                    4
     Application_SEQ_tx              254
     ?Subroutine165                   12
     check_wdt                       124
     ?Subroutine307                    4
     ?Subroutine27                    10
     ?Subroutine311                    2
     ?Subroutine310                    2
     modem_engine                    850
     ?Subroutine232                    8
     ?Subroutine231                    8
     ?Subroutine230                    6
     ?Subroutine229                    4
     ?Subroutine228                    8
     ?Subroutine226                   26
     ?Subroutine214                   28
     ?Subroutine171                    4
     ?Subroutine116                    4
     ?Subroutine110                    6
     ?Subroutine55                    10
     ?Subroutine54                    10
     ?Subroutine53                    10
     ?Subroutine52                    10
     ?Subroutine51                    12
     ?Subroutine9                     18
     send_err485                     122
     ?Subroutine304                    4
     ?Subroutine303                    4
     ?Subroutine14                    28
     ?Subroutine221                   14
     check_cont_485_1                106
     run_cont_485_1                  214
     ?Subroutine234                   10
     ?Subroutine217                    8
     ?Subroutine256                    8
     ?Subroutine159                    8
     ?Subroutine201                    4
     ?Subroutine267                    6
     ?Subroutine196                   12
     ?Subroutine195                   14
     ?Subroutine163                    4
     ?Subroutine99                    10
     ?Subroutine73                    14
     ?Subroutine6                     28
     ?Subroutine1                     22
     ?Subroutine281                    4
     ?Subroutine0                     28
     ?Subroutine102                   10
     run_cont_485_2                  210
     ?Subroutine235                   10
     ?Subroutine218                   10
     ?Subroutine160                    8
     run_cont_232_2                  242
     ?Subroutine237                    6
     ?Subroutine236                   10
     ?Subroutine161                    8
     check_ln_conf                    50
     ?Subroutine308                    2
     ?Subroutine305                    2
     proc_config                    1710
     ?Subroutine244                    6
     ?Subroutine243                   12
     ?Subroutine242                    6
     ?Subroutine241                    6
     ?Subroutine282                    4
     ?Subroutine240                    8
     ?Subroutine238                    8
     ?Subroutine212                    6
     ?Subroutine211                    6
     ?Subroutine200                    6
     ?Subroutine193                    8
     ?Subroutine157                    8
     ?Subroutine283                    4
     ?Subroutine137                   10
     ?Subroutine134                    4
     ?Subroutine115                    4
     ?Subroutine103                   10
     ?Subroutine98                     6
     ?Subroutine93                     4
     ?Subroutine284                    4
     ?Subroutine65                    24
     ?Subroutine63                    54
     ?Subroutine59                     8
     ?Subroutine57                    12
     ?Subroutine56                    12
     ?Subroutine50                    12
     ?Subroutine252                   10
     ?Subroutine39                    28
     ?Subroutine37                    14
     ?Subroutine36                    18
     ?Subroutine35                    30
     ?Subroutine33                    28
     ?Subroutine249                   18
     ?Subroutine32                    30
     ?Subroutine30                     6
     ?Subroutine29                    10
     ?Subroutine26                    50
     ?Subroutine21                    24
     ?Subroutine8                     14
     ?Subroutine7                     14
     ?Subroutine239                    6
     ?Subroutine245                   10
     ?Subroutine164                    4
     monitor1_tx_rs485_1             138
     ?Subroutine299                   18
     ?Subroutine248                   22
     ?Subroutine90                     6
     ?Subroutine269                    6
     ?Subroutine71                    12
     monitor1_tm_rs485_1              38
     ?Subroutine215                    6
     ?Subroutine167                   20
     ?Subroutine113                    2
     ?Subroutine257                    8
     ?Subroutine23                     2
     ?Subroutine295                    2
     ?Subroutine125                    4
     ?Subroutine302                    4
     monitor1_rec_rs485_1            114
     ?Subroutine3                     12
     ?Subroutine180                    4
     ?Subroutine144                   38
     ?Subroutine143                    8
     ?Subroutine123                   14
     ?Subroutine100                   10
     ?Subroutine96                    14
     ?Subroutine75                    10
     ?Subroutine70                    24
     ?Subroutine69                    30
     ?Subroutine68                    46
     monitor1_tx_rs485_2             142
     ?Subroutine300                   18
     monitor1_tm_rs485_2              46
     ?Subroutine220                   12
     ?Subroutine114                   10
     ?Subroutine28                     4
     ?Subroutine233                    6
     monitor1_rec_rs485_2            122
     ?Subroutine4                     12
     monitor1_tx_rs232_2             172
     ?Subroutine246                    8
     monitor1_tm_rs232_2              52
     ?Subroutine174                    4
     monitor1_rec_rs232_2            248
     ?Subroutine76                     4
     ?Subroutine2                     12
     monitor_wr_truffic               98
     proc_temp_to_grad                36
     temp_to_grad                    188
     control_temperatura              34
     send_info                       142
     ?Subroutine46                    34
     ?Subroutine44                    36
     ?Subroutine255                   10
     ?Subroutine43                    38
     ?Subroutine31                     4
     ?<Initializer for <Constant "%d\000">>
                                       4
     ?<Jumptable for proc_config>_0  110
     ?<Constant "%d\000">              4
      Others                          14

 
     32 bytes in segment ABSOLUTE
      2 bytes in segment EEPROM_AN
 13 382 bytes in segment FARCODE
     14 bytes in segment INITTAB
  1 067 bytes in segment NEAR_F
      4 bytes in segment NEAR_I
      4 bytes in segment NEAR_ID
     19 bytes in segment NEAR_N
  2 781 bytes in segment NEAR_Z
    110 bytes in segment SWITCH
 
 14 563 bytes of CODE  memory (+ 14 bytes shared)
  2 804 bytes of DATA  memory (+ 32 bytes shared)
      0 bytes of XDATA memory (+  2 bytes shared)

Errors: none
Warnings: 6
