##############################################################################
#                                                                            #
#                                                      21/Jan/2008  12:54:46 #
# IAR Atmel AVR C/C++ Compiler V4.12A/W32, Evaluation Version                #
# Copyright 1996-2005 IAR Systems. All rights reserved.                      #
#                                                                            #
#    Source file  =  D:\PRJIAR\NSSBETA2\base.c                               #
#    Command line =  D:\PRJIAR\NSSBETA2\base.c --cpu=m1280 -ms -o            #
#                    D:\PRJIAR\NSSBETA2\Debug\Obj\ -lCN                      #
#                    D:\PRJIAR\NSSBETA2\Debug\List\ -lA                      #
#                    D:\PRJIAR\NSSBETA2\Debug\List\ -y                       #
#                    --initializers_in_flash -z6 --no_inline                 #
#                    --no_cross_call --no_tbaa --debug -e -I "D:\Program     #
#                    Files\IAR Systems\Embedded Workbench 4.0                #
#                    Evaluation\avr\INC\" -I "D:\Program Files\IAR           #
#                    Systems\Embedded Workbench 4.0                          #
#                    Evaluation\avr\INC\DLIB\" --eeprom_size 4096            #
#                    --dlib_config "D:\Program Files\IAR Systems\Embedded    #
#                    Workbench 4.0 Evaluation\avr\LIB\DLIB\dlAVR-3s-ec-n.h"  #
#    List file    =  D:\PRJIAR\NSSBETA2\Debug\List\base.lst                  #
#    Object file  =  D:\PRJIAR\NSSBETA2\Debug\Obj\base.r90                   #
#                                                                            #
#                                                                            #
##############################################################################

D:\PRJIAR\NSSBETA2\base.c
      1          #include <iom1280.h> 

   \                                 In segment ABSOLUTE, at 0x136
   \   union <unnamed> volatile __ext_io _A_UDR3
   \                     _A_UDR3:
   \   00000000                      DS 1

   \                                 In segment ABSOLUTE, at 0x134
   \   union <unnamed> volatile __ext_io _A_UBRR3
   \                     _A_UBRR3:
   \   00000000                      DS 2

   \                                 In segment ABSOLUTE, at 0x132
   \   union <unnamed> volatile __ext_io _A_UCSR3C
   \                     _A_UCSR3C:
   \   00000000                      DS 1

   \                                 In segment ABSOLUTE, at 0x131
   \   union <unnamed> volatile __ext_io _A_UCSR3B
   \                     _A_UCSR3B:
   \   00000000                      DS 1

   \                                 In segment ABSOLUTE, at 0x105
   \   union <unnamed> volatile __ext_io _A_PORTJ
   \                     _A_PORTJ:
   \   00000000                      DS 1

   \                                 In segment ABSOLUTE, at 0x102
   \   union <unnamed> volatile __ext_io _A_PORTH
   \                     _A_PORTH:
   \   00000000                      DS 1

   \                                 In segment ABSOLUTE, at 0xd6
   \   union <unnamed> volatile __io _A_UDR2
   \                     _A_UDR2:
   \   00000000                      DS 1

   \                                 In segment ABSOLUTE, at 0xd4
   \   union <unnamed> volatile __io _A_UBRR2
   \                     _A_UBRR2:
   \   00000000                      DS 2

   \                                 In segment ABSOLUTE, at 0xd2
   \   union <unnamed> volatile __io _A_UCSR2C
   \                     _A_UCSR2C:
   \   00000000                      DS 1

   \                                 In segment ABSOLUTE, at 0xd0
   \   union <unnamed> volatile __io _A_UCSR2A
   \                     _A_UCSR2A:
   \   00000000                      DS 1

   \                                 In segment ABSOLUTE, at 0xcc
   \   union <unnamed> volatile __io _A_UBRR1
   \                     _A_UBRR1:
   \   00000000                      DS 2

   \                                 In segment ABSOLUTE, at 0xca
   \   union <unnamed> volatile __io _A_UCSR1C
   \                     _A_UCSR1C:
   \   00000000                      DS 1

   \                                 In segment ABSOLUTE, at 0xc9
   \   union <unnamed> volatile __io _A_UCSR1B
   \                     _A_UCSR1B:
   \   00000000                      DS 1

   \                                 In segment ABSOLUTE, at 0xc6
   \   union <unnamed> volatile __io _A_UDR0
   \                     _A_UDR0:
   \   00000000                      DS 1

   \                                 In segment ABSOLUTE, at 0xc1
   \   union <unnamed> volatile __io _A_UCSR0B
   \                     _A_UCSR0B:
   \   00000000                      DS 1

   \                                 In segment ABSOLUTE, at 0xc0
   \   union <unnamed> volatile __io _A_UCSR0A
   \                     _A_UCSR0A:
   \   00000000                      DS 1

   \                                 In segment ABSOLUTE, at 0x60
   \   union <unnamed> volatile __io _A_WDTCSR
   \                     _A_WDTCSR:
   \   00000000                      DS 1

   \                                 In segment ABSOLUTE, at 0x5f
   \   union <unnamed> volatile __io _A_SREG
   \                     _A_SREG:
   \   00000000                      DS 1

   \                                 In segment ABSOLUTE, at 0x54
   \   union <unnamed> volatile __io _A_MCUSR
   \                     _A_MCUSR:
   \   00000000                      DS 1

   \                                 In segment ABSOLUTE, at 0x34
   \   union <unnamed> volatile __io _A_PORTG
   \                     _A_PORTG:
   \   00000000                      DS 1

   \                                 In segment ABSOLUTE, at 0x2e
   \   union <unnamed> volatile __io _A_PORTE
   \                     _A_PORTE:
   \   00000000                      DS 1

   \                                 In segment ABSOLUTE, at 0x2c
   \   union <unnamed> volatile __io _A_PINE
   \                     _A_PINE:
   \   00000000                      DS 1

   \                                 In segment ABSOLUTE, at 0x2b
   \   union <unnamed> volatile __io _A_PORTD
   \                     _A_PORTD:
   \   00000000                      DS 1

   \                                 In segment ABSOLUTE, at 0x28
   \   union <unnamed> volatile __io _A_PORTC
   \                     _A_PORTC:
   \   00000000                      DS 1

   \                                 In segment ABSOLUTE, at 0x25
   \   union <unnamed> volatile __io _A_PORTB
   \                     _A_PORTB:
   \   00000000                      DS 1
      2          #include <inavr.h> 
      3          #include "dfpin.h"
      4          #include "dfproc.h"
      5          #include "def_prot.h"
      6          #include "def_conf.h"
      7          #include "map_ef.h"
      8          #include "map_ad.h"
      9          #include "ozu_map.h"
     10          #include "def_at.h"
     11          #include "def_log.h"
     12          #include "def_link.h"
     13          #include "dfcnst.h"
     14          #include <string.h>
     15          #include "sec.h"
     16          #include <stdio.h>
     17          

   \                                 In segment NEAR_F, align 1, keep-with-next
     18          __flash char stm_pwr_on[]=        {'S','T','M',':','p','w','r',' ','o','n'};
   \                     stm_pwr_on:
   \   00000000   54533A4D7770       DB 83, 84, 77, 58, 112, 119, 114, 32, 111, 110
   \              20726E6F    
     19          __flash char stm_pwr_kon[]=       {'S','T','M',':','p','w','r',' ','k','o','n'};
     20          __flash char stm_pwr_off[]=       {'S','T','M',':','p','w','r',' ','o','f','f',};
     21          __flash char stm_si[]=            {'S','T','M',':','s','i'};
     22          __flash char stm_sc[]=            {'S','T','M',':','s','c'};
     23          __flash char stm_scp[]=           {'S','T','M',':','s','c','p'};
     24          __flash char stm_ppp[]=           {'S','T','M',':','p','p','p'};
     25          __flash char stm_rdc[]=           {'S','T','M',':','r','d','c'};
     26          
     27          __flash char stm_base_sim[]=      {'S','T','M',':','b','a','s','e',' ','s','i','m'}; //dobavka
   \                     stm_base_sim:
   \   0000000A   54533A4D6162       DB 83, 84, 77, 58, 98, 97, 115, 101, 32, 115, 105, 109
   \              657373206D69
     28          __flash char stm_res_sim[]=       {'S','T','M',':','r','e','s',' ','s','i','m'}; //dobavka
   \                     stm_res_sim:
   \   00000016   54533A4D6572       DB 83, 84, 77, 58, 114, 101, 115, 32, 115, 105, 109
   \              207369736D  

   \                                 In segment NEAR_F, align 1, keep-with-next
   \                     stm_pwr_kon:
   \   00000000   54533A4D7770       DB 83, 84, 77, 58, 112, 119, 114, 32, 107, 111, 110
   \              20726F6B6E  

   \                                 In segment NEAR_F, align 1, keep-with-next
   \                     stm_pwr_off:
   \   00000000   54533A4D7770       DB 83, 84, 77, 58, 112, 119, 114, 32, 111, 102, 102
   \              2072666F66  

   \                                 In segment NEAR_F, align 1, keep-with-next
   \                     stm_si:
   \   00000000   54533A4D6973       DB 83, 84, 77, 58, 115, 105
   \                     stm_sc:
   \   00000006   54533A4D6373       DB 83, 84, 77, 58, 115, 99
   \                     stm_scp:
   \   0000000C   54533A4D6373       DB 83, 84, 77, 58, 115, 99, 112
   \              70          
   \                     stm_ppp:
   \   00000013   54533A4D7070       DB 83, 84, 77, 58, 112, 112, 112
   \              70          
     29          
     30          __flash char evm_tm[]=        {'E','V','M',':','t','m'};
   \                     evm_tm:
   \   0000001A   56453A4D6D74       DB 69, 86, 77, 58, 116, 109
     31          __flash char evm_at_ok[]=     {'E','V','M',':','a','t',' ','o','k'};
     32          __flash char evm_at_err[]=    {'E','V','M',':','a','t',' ','e','r','r'};
   \                     evm_at_err:
   \   00000020   56453A4D7461       DB 69, 86, 77, 58, 97, 116, 32, 101, 114, 114
   \              65207272    
     33          __flash char evm_ppp_ok[]=    {'E','V','M',':','p','p','p',' ','o','k'};
     34          __flash char evm_ppp_err[]=   {'E','V','M',':','p','p','p',' ','e','r','r'};
   \                     evm_ppp_err:
   \   0000002A   56453A4D7070       DB 69, 86, 77, 58, 112, 112, 112, 32, 101, 114, 114
   \              2070726572  
     35          __flash char evm_dcd_err[]=   {'E','V','M',':','d','c','d',' ','e','r','r'};
   \                     evm_dcd_err:
   \   00000035   56453A4D6364       DB 69, 86, 77, 58, 100, 99, 100, 32, 101, 114, 114
   \              2064726572  
     36          __flash char evm_no_rec[]=     {'E','V','M',':','n','o',' ','r','e','c'};
   \                     evm_no_rec:
   \   00000040   56453A4D6F6E       DB 69, 86, 77, 58, 110, 111, 32, 114, 101, 99
   \              72206365    
     37          __flash char evm_cts_err[]=   {'E','V','M',':','c','t','s',' ','e','r','r'}; //dobavka
   \                     evm_cts_err:
   \   0000004A   56453A4D7463       DB 69, 86, 77, 58, 99, 116, 115, 32, 101, 114, 114
   \              2073726572  
     38          __flash char evm_ch_sim[]=    {'E','V','M',':','c','h',' ','s','i','m'};     //dobavka
   \                     evm_ch_sim:
   \   00000055   56453A4D6863       DB 69, 86, 77, 58, 99, 104, 32, 115, 105, 109
   \              73206D69    

   \                                 In segment NEAR_F, align 1, keep-with-next
   \                     stm_rdc:
   \   00000000   54533A4D6472       DB 83, 84, 77, 58, 114, 100, 99
   \              63          

   \                                 In segment NEAR_F, align 1, keep-with-next
   \                     evm_at_ok:
   \   00000000   56453A4D7461       DB 69, 86, 77, 58, 97, 116, 32, 111, 107
   \              6F206B      

   \                                 In segment NEAR_F, align 1, keep-with-next
   \                     evm_ppp_ok:
   \   00000000   56453A4D7070       DB 69, 86, 77, 58, 112, 112, 112, 32, 111, 107
   \              20706B6F    
     39          
     40          //__flash char evc_heat_on[]=        {'E','V','C',':','h','e','a','t',' ','o','n'};
     41          //__flash char evc_heat_off[]=       {'E','V','C',':','h','e','a','t',' ','o','f','f'};

   \                                 In segment NEAR_F, align 1, keep-with-next
     42          __flash char evc_taken[]=          {'E','V','C',':','t','a','k','e','n'};
   \                     evc_taken:
   \   00000000   56453A436174       DB 69, 86, 67, 58, 116, 97, 107, 101, 110
   \              656B6E      
     43          __flash char evc_alarm[]=          {'E','V','C',':','a','l','a','r','m'};
   \                     evc_alarm:
   \   00000009   56453A436C61       DB 69, 86, 67, 58, 97, 108, 97, 114, 109
   \              72616D      
     44          //__flash char evc_feed_akb[]=       {'E','V','C',':','f','e','e','d',' ','a','k','b'};
     45          //__flash char evc_feed_220[]=       {'E','V','C',':','f','e','e','d',' ','2','2','0'};
     46          __flash char evc_ts1[]=       {'E','V','C',':','t','s','1'};
   \                     evc_ts1:
   \   00000012   56453A437374       DB 69, 86, 67, 58, 116, 115, 49
   \              31          
     47          __flash char evc_ts2[]=       {'E','V','C',':','t','s','2'};
   \                     evc_ts2:
   \   00000019   56453A437374       DB 69, 86, 67, 58, 116, 115, 50
   \              32          
     48          

   \                                 In segment NEAR_F, align 1, keep-with-next
     49          __flash char evc_state[]=       {'E','V','C',':','s','t','a','t','e'};
   \                     evc_state:
   \   00000000   56453A437473       DB 69, 86, 67, 58, 115, 116, 97, 116, 101
   \              746165      
     50          

   \                                 In segment NEAR_F, align 1, keep-with-next
     51          __flash char evc_wdr[]=            {'E','V','C',':','w','d','r'};
   \                     evc_wdr:
   \   00000000   56453A436477       DB 69, 86, 67, 58, 119, 100, 114
   \              72          
     52          __flash char evc_bod[]=            {'E','V','C',':','b','o','d'};
   \                     evc_bod:
   \   00000007   56453A436F62       DB 69, 86, 67, 58, 98, 111, 100
   \              64          
     53          __flash char evc_rst[]=            {'E','V','C',':','r','s','t'};
   \                     evc_rst:
   \   0000000E   56453A437372       DB 69, 86, 67, 58, 114, 115, 116
   \              74          
     54          __flash char evc_pwr[]=            {'E','V','C',':','p','w','r'};
   \                     evc_pwr:
   \   00000015   56453A437770       DB 69, 86, 67, 58, 112, 119, 114
   \              72          
     55          

   \                                 In segment NEAR_F, align 1, keep-with-next
     56          __flash char msg_evc[]=          {'M','S','G',':','e','v','c',};
   \                     msg_evc:
   \   00000000   534D3A477665       DB 77, 83, 71, 58, 101, 118, 99
   \              63          

   \                                 In segment NEAR_F, align 1, keep-with-next
     57          __flash char msg_ctrl_ch[]=      {'M','S','G',':','c','t','r','l',' ','c','h'};
   \                     msg_ctrl_ch:
   \   00000000   534D3A477463       DB 77, 83, 71, 58, 99, 116, 114, 108, 32, 99, 104
   \              6C72632068  

   \                                 In segment NEAR_F, align 1, keep-with-next
     58          __flash char msg_ctrl_nat[]=     {'M','S','G',':','c','t','r','l',' ','n','a','t'};
   \                     msg_ctrl_nat:
   \   00000000   534D3A477463       DB 77, 83, 71, 58, 99, 116, 114, 108, 32, 110, 97, 116
   \              6C726E207461
     59          
     60          

   \                                 In segment NEAR_F, align 1, keep-with-next
     61          __flash char req_out_ctrl_cl[]={'R','E','Q','-','>','c','t','r','l',' ','c','l'};
   \                     req_out_ctrl_cl:
   \   00000000   45522D51633E       DB 82, 69, 81, 45, 62, 99, 116, 114, 108, 32, 99, 108
   \              7274206C6C63
     62          
     63          
     64          /*
     65          __flash char rec []=             {'R','E','C'};
     66          
     67          __flash char req_out_ctrl_cl[]={'R','E','Q','-','>','c','t','r','l',' ','c','l'};
     68          __flash char ans_in_ctrl_cl[]={'A','N','S','-','<','c','t','r','l',' ','c','l'};
     69          
     70          __flash char req_in_485_1[]={'R','E','Q','-','<','4','8','5','_','1'};
     71          __flash char req_in_485_2[]={'R','E','Q','-','<','4','8','5','_','2'};
     72          __flash char req_in_232[]={'R','E','Q','-','<','2','3','2'};
     73          __flash char req_in_st_contr[]={'R','E','Q','-','<','s','t',' ','c','o','n','t','r'};
     74          __flash char req_in_config[]={'R','E','Q','-','<','c','o','n','f','i','g'};
     75          __flash char req_in_prog[]={'R','E','Q','-','<','p','r','o','g'};
     76          
     77          
     78          __flash char ans_out_485_1[]={'A','N','S','-','>','4','8','5','_','1'};
     79          __flash char ans_out_485_2[]={'A','N','S','-','>','4','8','5','_','2'};
     80          __flash char ans_out_232[]={'A','N','S','-','>','2','3','2'};
     81          __flash char ans_out_st_contr[]={'A','N','S','-','>','s','t',' ','c','o','n','t','r'};
     82          __flash char ans_out_config[]={'A','N','S','-','>','c','o','n','f','i','g'};
     83          __flash char ans_out_prog[]={'A','N','S','-','>','p','r','o','g'};
     84          */
     85          void supervisorwdt(void);
     86          
     87          void kodirovka(unsigned int kol_send_byte);
     88          
     89          void send_info(char size,char __flash *p,unsigned char fl_id,unsigned char id);
     90          
     91          void    mov_massiv (char size, char *p);
     92          
     93          void control_temperatura(void);
     94          
     95          void init_modem_only(void);
     96          extern unsigned char Regim;
     97          
     98          void send_err485(unsigned char port,unsigned char err,unsigned char id,unsigned int dst);
     99          unsigned int proc_config(unsigned char *buf_rx_ppp,unsigned char offset,unsigned int count_rx_ppp);
    100          unsigned char check_ln_conf(unsigned char *buf_rx_ppp,unsigned char offset,unsigned int count_rx_ppp);
    101          unsigned char check_cont_485_1 (unsigned char *pointer);
    102          unsigned char check_cont_485_2 (unsigned char *pointer);
    103          
    104          unsigned char ret_version(unsigned char unit,unsigned char *ptr);
    105          
    106          unsigned int calc_crc_ip(unsigned char *p,unsigned int count);
    107          unsigned int calc_crc_udp_2(unsigned char *buf_rx_ppp,unsigned int count);
    108          unsigned int pppfcs16(unsigned int fcs,unsigned char *cp,unsigned int len);
    109          
    110          void monitor_event_PAP(void);
    111          void monitor_act_LCP(void);
    112          void monitor_event_LCP(void);
    113          void monitor_act_IPCP(void);
    114          void monitor_event_IPCP(void);
    115          void monitor_act_PAP(void);
    116          void clr_var_ppp_rx(void);
    117          void clr_var_ppp(void);
    118          
    119          void analiz_ppp_rx(void);
    120          
    121          void monitor1_tx_rs485_1(void);   //GPRS-řňŕňíűé RS485_1
    122          void monitor1_rec_rs485_1(void);
    123          void monitor1_tm_rs485_1(void);
    124          
    125          void monitor1_tx_rs485_2(void);   //GPRS-řňŕňíűé RS485_2
    126          void monitor1_rec_rs485_2(void);
    127          void monitor1_tm_rs485_2(void);
    128          
    129          void monitor1_tx_rs232_2(void);   //GPRS-řňŕňíűé RS232_2
    130          void monitor1_rec_rs232_2(void);
    131          void monitor1_tm_rs232_2(void);
    132          
    133          
    134          
    135            extern void init_scen_stm_si(void);
    136            extern void init_scen_stm_sc(void);
    137            extern void init_scen_stm_dc(void);
    138            extern void at_com_rx(unsigned char cnt);
    139            extern void at_com_tx(unsigned char cnt);
    140            extern unsigned char at_com_scen_init(unsigned char *cnt,unsigned char *rp);
    141            extern unsigned char at_com_scen_stm_sc(unsigned char *cnt,unsigned char *rp);
    142            //extern unsigned char at_com_scen_stm_dc(unsigned char *cnt,unsigned char *rp);
    143            extern void init_scen_stm_dc_1(void);
    144            extern unsigned char at_com_scen_stm_dc_1(unsigned char *cnt,unsigned char *rp);
    145          
    146             extern unsigned char cnt_com;
    147             extern unsigned char rep;
    148            
    149            
    150          
    151          extern void WrArrayToFlesh(unsigned int adres_flesh,  unsigned char *adres_ozu, unsigned int num,unsigned char flag,unsigned char znach);
    152          extern void RdFromFleshToArr(unsigned int adres_flesh, unsigned char *adres_ozu,unsigned int num);
    153          extern void write_log_info(unsigned char sost,unsigned char mesto);
    154          extern unsigned long int burst_ds_r(void);
    155          void set_rlt(unsigned char address, unsigned char * data);
    156          unsigned char write_to_buf(unsigned char *p_buf,unsigned int *ptr_in,unsigned int *ptr_out,unsigned int *ptr_out_kv,unsigned int *crc,unsigned char *p_data,unsigned int l_data, unsigned int max_buf);
    157          unsigned int read_from_buf(unsigned char *p_buf,unsigned int *ptr_in,unsigned int *ptr_out,unsigned int *ptr_out_kv,unsigned int *crc,unsigned char *p_data, unsigned int max_buf);
    158          
    159          //enum t_version {VER1 = 1 ,VER2,VER3,VER4};
    160          //enum t_type {ZAPR,OTV,SOOB,KVIT};                
    161          enum t_state_modem {STM_NONE=0,STM_ON,STM_KON,STM_PWK,STM_SI,STM_SC,STM_SCP,STM_PPP,STM_RDC,STM_DC,STM_OFF};
    162          enum t_state_modem state_modem;
    163          enum t_event_modem event_modem;
    164          enum bool command_AT;
    165          
    166          unsigned char cnt_stm_tm1;
    167          
    168          
    169          extern unsigned char keys[10];
    170          
    171          extern struct
    172                  { // â äâîč÷íîě ęîäĺ
    173                    char r_sec;
    174                    char r_min;
    175                    char r_hor;
    176                    char r_day;
    177                    char r_date;
    178                    char r_month;
    179                    char r_year;
    180                    char r_control;
    181                  }  real_time; 
    182          
    183          
    184          extern struct
    185            {
    186            unsigned char  ip         :1;
    187            unsigned char  udp        :1;
    188            unsigned char  num_self   :1;
    189            unsigned char cnt_reset;
    190            }fl_rewrite;
    191          
    192           #pragma location=A_RW_PDP 

   \                                 In segment EEPROM_AN, at 0x1
    193          __eeprom __no_init unsigned char e_rw_pdp;
   \                     e_rw_pdp:
   \   00000000                      DS 1
    194          
    195           #pragma location=A_RW_PDP_R 

   \                                 In segment EEPROM_AN, at 0x2
    196          __eeprom __no_init unsigned char e_rw_pdp_r;
   \                     e_rw_pdp_r:
   \   00000000                      DS 1
    197          
    198          

   \                                 In segment NEAR_F, align 1, keep-with-next
    199          __flash  unsigned char auchCRCHi[] ={
   \                     auchCRCHi:
   \   00000000   C1004081C001       DB 0, 193, 129, 64, 1, 192, 128, 65, 1, 192, 128, 65, 0, 193, 129, 64
   \              4180C0014180
   \              C1004081    
   \   00000010   C0014180C100       DB 1, 192, 128, 65, 0, 193, 129, 64, 0, 193, 129, 64, 1, 192, 128, 65
   \              4081C1004081
   \              C0014180    
   \   00000020   C0014180C100       DB 1, 192, 128, 65, 0, 193, 129, 64, 0, 193, 129, 64, 1, 192, 128, 65
   \              4081C1004081
   \              C0014180    
   \   00000030   C1004081C001       DB 0, 193, 129, 64, 1, 192, 128, 65, 1, 192, 128, 65, 0, 193, 129, 64
   \              4180C0014180
   \              C1004081    
   \   00000040   C0014180C100       DB 1, 192, 128, 65, 0, 193, 129, 64, 0, 193, 129, 64, 1, 192, 128, 65
   \              4081C1004081
   \              C0014180    
   \   00000050   C1004081C001       DB 0, 193, 129, 64, 1, 192, 128, 65, 1, 192, 128, 65, 0, 193, 129, 64
   \              4180C0014180
   \              C1004081    
   \   00000060   C1004081C001       DB 0, 193, 129, 64, 1, 192, 128, 65, 1, 192, 128, 65, 0, 193, 129, 64
   \              4180C0014180
   \              C1004081    
   \   00000070   C0014180C100       DB 1, 192, 128, 65, 0, 193, 129, 64, 0, 193, 129, 64, 1, 192, 128, 65
   \              4081C1004081
   \              C0014180    
   \   00000080   C0014180C100       DB 1, 192, 128, 65, 0, 193, 129, 64, 0, 193, 129, 64, 1, 192, 128, 65
   \              4081C1004081
   \              C0014180    
   \   00000090   C1004081C001       DB 0, 193, 129, 64, 1, 192, 128, 65, 1, 192, 128, 65, 0, 193, 129, 64
   \              4180C0014180
   \              C1004081    
   \   000000A0   C1004081C001       DB 0, 193, 129, 64, 1, 192, 128, 65, 1, 192, 128, 65, 0, 193, 129, 64
   \              4180C0014180
   \              C1004081    
   \   000000B0   C0014180C100       DB 1, 192, 128, 65, 0, 193, 129, 64, 0, 193, 129, 64, 1, 192, 128, 65
   \              4081C1004081
   \              C0014180    
   \   000000C0   C1004081C001       DB 0, 193, 129, 64, 1, 192, 128, 65, 1, 192, 128, 65, 0, 193, 129, 64
   \              4180C0014180
   \              C1004081    
   \   000000D0   C0014180C100       DB 1, 192, 128, 65, 0, 193, 129, 64, 0, 193, 129, 64, 1, 192, 128, 65
   \              4081C1004081
   \              C0014180    
   \   000000E0   C0014180C100       DB 1, 192, 128, 65, 0, 193, 129, 64, 0, 193, 129, 64, 1, 192, 128, 65
   \              4081C1004081
   \              C0014180    
   \   000000F0   C1004081C001       DB 0, 193, 129, 64, 1, 192, 128, 65, 1, 192, 128, 65, 0, 193, 129, 64
   \              4180C0014180
   \              C1004081    
    200            0x00,0xC1,0x81,0x40,0x01,0xC0,0x80,0x41,0x01,0xC0,0x80,0x41,0x00,
    201            0xC1,0x81,0x40,0x01,0xC0,0x80,0x41,0x00,0xC1,0x81,0x40,0x00,0xC1,
    202            0x81,0x40,0x01,0xC0,0x80,0x41,0x01,0xC0,0x80,0x41,0x00,0xC1,0x81,
    203            0x40,0x00,0xC1,0x81,0x40,0x01,0xC0,0x80,0x41,0x00,0xC1,0x81,0x40,
    204            0x01,0xC0,0x80,0x41,0x01,0xC0,0x80,0x41,0x00,0xC1,0x81,0x40,0x01,
    205            0xC0,0x80,0x41,0x00,0xC1,0x81,0x40,0x00,0xC1,0x81,0x40,0x01,0xC0,
    206            0x80,0x41,0x00,0xC1,0x81,0x40,0x01,0xC0,0x80,0x41,0x01,0xC0,0x80,
    207            0x41,0x00,0xC1,0x81,0x40,0x00,0xC1,0x81,0x40,0x01,0xC0,0x80,0x41,
    208            0x01,0xC0,0x80,0x41,0x00,0xC1,0x81,0x40,0x01,0xC0,0x80,0x41,0x00,
    209            0xC1,0x81,0x40,0x00,0xC1,0x81,0x40,0x01,0xC0,0x80,0x41,0x01,0xC0,
    210            0x80,0x41,0x00,0xC1,0x81,0x40,0x00,0xC1,0x81,0x40,0x01,0xC0,0x80,
    211            0x41,0x00,0xC1,0x81,0x40,0x01,0xC0,0x80,0x41,0x01,0xC0,0x80,0x41,
    212            0x00,0xC1,0x81,0x40,0x00,0xC1,0x81,0x40,0x01,0xC0,0x80,0x41,0x01,
    213            0xC0,0x80,0x41,0x00,0xC1,0x81,0x40,0x01,0xC0,0x80,0x41,0x00,0xC1,
    214            0x81,0x40,0x00,0xC1,0x81,0x40,0x01,0xC0,0x80,0x41,0x00,0xC1,0x81,
    215            0x40,0x01,0xC0,0x80,0x41,0x01,0xC0,0x80,0x41,0x00,0xC1,0x81,0x40,
    216            0x01,0xC0,0x80,0x41,0x00,0xC1,0x81,0x40,0x00,0xC1,0x81,0x40,0x01,
    217            0xC0,0x80,0x41,0x01,0xC0,0x80,0x41,0x00,0xC1,0x81,0x40,0x00,0xC1,
    218            0x81,0x40,0x01,0xC0,0x80,0x41,0x00,0xC1,0x81,0x40,0x01,0xC0,0x80,
    219            0x41,0x01,0xC0,0x80,0x41,0x00,0xC1,0x81,0x40};
    220            
    221              

   \                                 In segment NEAR_F, align 1, keep-with-next
    222          __flash   unsigned  char auchCRCLo[] = {
   \                     auchCRCLo:
   \   00000000   C00001C103C3       DB 0, 192, 193, 1, 195, 3, 2, 194, 198, 6, 7, 199, 5, 197, 196, 4, 204
   \              C20206C6C707
   \              C50504C4CC  
   \   00000011   0D0C0FCDCECF       DB 12, 13, 205, 15, 207, 206, 14, 10, 202, 203, 11, 201, 9, 8, 200, 216
   \              0A0ECBCAC90B
   \              0809D8C8    
   \   00000021   19181BD9DADB       DB 24, 25, 217, 27, 219, 218, 26, 30, 222, 223, 31, 221, 29, 28, 220
   \              1E1ADFDEDD1F
   \              1C1DDC      
   \   00000030   D41415D517D7       DB 20, 212, 213, 21, 215, 23, 22, 214, 210, 18, 19, 211, 17, 209, 208
   \              D61612D2D313
   \              D111D0      
   \   0000003F   F010313033F1       DB 16, 240, 48, 49, 241, 51, 243, 242, 50, 54, 246, 247, 55, 245, 53
   \              F2F33632F7F6
   \              F53735      
   \   0000004E   F434FC3C3DFD       DB 52, 244, 60, 252, 253, 61, 255, 63, 62, 254, 250, 58, 59, 251, 57
   \              3FFFFE3E3AFA
   \              FB3B39      
   \   0000005D   F8F92838E9E8       DB 249, 248, 56, 40, 232, 233, 41, 235, 43, 42, 234, 238, 46, 47, 239
   \              EB292A2BEEEA
   \              2F2EEF      
   \   0000006C   ED2D2CEC24E4       DB 45, 237, 236, 44, 228, 36, 37, 229, 39, 231, 230, 38, 34, 226, 227
   \              E525E72726E6
   \              E222E3      
   \   0000007B   E1232021A0E0       DB 35, 225, 33, 32, 224, 160, 96, 97, 161, 99, 163, 162, 98, 102, 166
   \              616063A1A2A3
   \              6662A6      
   \   0000008A   67A765A5A464       DB 167, 103, 165, 101, 100, 164, 108, 172, 173, 109, 175, 111, 110, 174
   \              AC6C6DAD6FAF
   \              AE6E        
   \   00000098   6AAAAB6BA969       DB 170, 106, 107, 171, 105, 169, 168, 104, 120, 184, 185, 121, 187, 123
   \              68A8B87879B9
   \              7BBB        
   \   000000A6   BA7A7EBEBF7F       DB 122, 186, 190, 126, 127, 191, 125, 189, 188, 124, 180, 116, 117, 181
   \              BD7D7CBC74B4
   \              B575        
   \   000000B4   B77776B6B272       DB 119, 183, 182, 118, 114, 178, 179, 115, 177, 113, 112, 176, 80, 144
   \              73B371B1B070
   \              9050        
   \   000000C2   519153939252       DB 145, 81, 147, 83, 82, 146, 150, 86, 87, 151, 85, 149, 148, 84, 156
   \              569697579555
   \              54949C      
   \   000000D1   5D5C5F9D9E9F       DB 92, 93, 157, 95, 159, 158, 94, 90, 154, 155, 91, 153, 89, 88, 152
   \              5A5E9B9A995B
   \              585998      
   \   000000E0   488889498B4B       DB 136, 72, 73, 137, 75, 139, 138, 74, 78, 142, 143, 79, 141, 77, 76
   \              4A8A8E4E4F8F
   \              4D8D4C      
   \   000000EF   448C85848745       DB 140, 68, 132, 133, 69, 135, 71, 70, 134, 130, 66, 67, 131, 65, 129
   \              464782864342
   \              418381      
   \   000000FE   4080               DB 128, 64
    223          0x00,0xC0,0xC1,0x01,0xC3,0x03,0x02,0xC2,0xC6,0x06,0x07,0xC7,0x05,
    224          0xC5,0xC4,0x04,0xCC,0x0C,0x0D,0xCD,0x0F,0xCF,0xCE,0x0E,0x0A,0xCA,
    225          0xCB,0x0B,0xC9,0x09,0x08,0xC8,0xD8,0x18,0x19,0xD9,0x1B,0xDB,0xDA,
    226          0x1A,0x1E,0xDE,0xDF,0x1F,0xDD,0x1D,0x1C,0xDC,0x14,0xD4,0xD5,0x15,
    227          0xD7,0x17,0x16,0xD6,0xD2,0x12,0x13,0xD3,0x11,0xD1,0xD0,0x10,0xF0,
    228          0x30,0x31,0xF1,0x33,0xF3,0xF2,0x32,0x36,0xF6,0xF7,0x37,0xF5,0x35,
    229          0x34,0xF4,0x3C,0xFC,0xFD,0x3D,0xFF,0x3F,0x3E,0xFE,0xFA,0x3A,0x3B,
    230          0xFB,0x39,0xF9,0xF8,0x38,0x28,0xE8,0xE9,0x29,0xEB,0x2B,0x2A,0xEA,
    231          0xEE,0x2E,0x2F,0xEF,0x2D,0xED,0xEC,0x2C,0xE4,0x24,0x25,0xE5,0x27,
    232          0xE7,0xE6,0x26,0x22,0xE2,0xE3,0x23,0xE1,0x21,0x20,0xE0,0xA0,0x60,
    233          0x61,0xA1,0x63,0xA3,0xA2,0x62,0x66,0xA6,0xA7,0x67,0xA5,0x65,0x64,
    234          0xA4,0x6C,0xAC,0xAD,0x6D,0xAF,0x6F,0x6E,0xAE,0xAA,0x6A,0x6B,0xAB,
    235          0x69,0xA9,0xA8,0x68,0x78,0xB8,0xB9,0x79,0xBB,0x7B,0x7A,0xBA,0xBE,
    236          0x7E,0x7F,0xBF,0x7D,0xBD,0xBC,0x7C,0xB4,0x74,0x75,0xB5,0x77,0xB7,
    237          0xB6,0x76,0x72,0xB2,0xB3,0x73,0xB1,0x71,0x70,0xB0,0x50,0x90,0x91,
    238          0x51,0x93,0x53,0x52,0x92,0x96,0x56,0x57,0x97,0x55,0x95,0x94,0x54,
    239          0x9C,0x5C,0x5D,0x9D,0x5F,0x9F,0x9E,0x5E,0x5A,0x9A,0x9B,0x5B,0x99,
    240          0x59,0x58,0x98,0x88,0x48,0x49,0x89,0x4B,0x8B,0x8A,0x4A,0x4E,0x8E,
    241          0x8F,0x4F,0x8D,0x4D,0x4C,0x8C,0x44,0x84,0x85,0x45,0x87,0x47,0x46,
    242          0x86,0x82,0x42,0x43,0x83,0x41,0x81,0x80,0x40
    243               };
    244          
    245          
    246          

   \                                 In segment NEAR_N, align 1, keep-with-next
    247          __no_init unsigned char simka; //dobavka
   \                     simka:
   \   00000000                      DS 1

   \                                 In segment NEAR_Z, align 1, keep-with-next
   \   00000000                      REQUIRE `?<Segment init: NEAR_Z>`
    248          unsigned char Fl_ch_sim;       //dobavka
    249          
    250          
    251           struct
    252           {
    253           unsigned char  clr_wdt     :1;
    254           unsigned char  fl_out      :1;
    255           unsigned char  from_timer0 :1;
    256           unsigned char  fl_main     :1;
    257           unsigned char  from_timer3 :1;
    258           unsigned char  from_timer2 :1; 
    259           unsigned char  from_adc :1;
    260           }fl_wdt;
    261          
    262          
    263          
    264          extern struct                   //ńňđóęňóđŕ, îďčńűâŕţůŕ˙ îáúĺęň ďĺđĺäŕ÷č ďî PPP 
    265            {  
    266            enum bool prozr;      //âĺđńč˙       
    267            enum t_version version;      //âĺđńč˙ 
    268            enum t_type   type_pac;     //ňčď ďŕęĺňŕ
    269            unsigned int num_src; // íîěĺđ îňďđŕâčňĺë˙
    270            unsigned int num_dst; // íîěĺđ ďîëó÷ŕňĺë˙
    271            unsigned char id_pac; // čäĺíňčôčęŕňîđ ďŕęĺňŕ  
    272            unsigned char * p_opt; // //óęŕçŕňĺëü áóôĺđŕ îďöčé  
    273            unsigned char l_opt;// äëčíŕ áóôĺđŕ îďöčé   
    274            unsigned char kol_opt;// ęîëč÷ĺńňâî îďöčé   
    275            unsigned char * p_data;  //óęŕçŕňĺëü áóôĺđŕ äŕííűő
    276            unsigned int l_data;   // äëčíŕ äŕííűő
    277            }Obj_ppp_tx;
    278          
    279          unsigned char buf_opt_tr[20]; 
    280          unsigned int prov_ozu;
    281          
    282          
    283          unsigned char buf_tx_232[VOL_TX_PPP];
    284          unsigned int count_tx_ppp,vol_tx_ppp;
    285          
    286           //ńňđóęňóđű áóôĺđîâ íŕ ďđčĺě
    287            struct
    288           {
    289            unsigned char data[VOL_RX_PPP];//ńŕě áóôĺđ
    290            unsigned int ln_data;  // äëčíŕ äŕííűő
    291            enum bool rec; // ďŕęĺň ďđčí˙ň
    292            enum bool busy;// áóôĺđ çŕí˙ň
    293            enum bool check_busy;// ďđîâĺđęŕ çŕí˙ň ëč áóôĺđ
    294           }Buf1_rx_ppp,Buf2_rx_ppp; // 
    295           
    296          enum bool fl_cts_232_ignor;
    297          unsigned int cnt_cts_off;
    298          struct
    299           {
    300           unsigned char on: 1;
    301           } fl_cts_232;
    302          
    303          
    304          
    305          
    306          //unsigned char count_block_net,byte_state_net;
    307          
    308          //!!!!!!!!!!!!!!!!1ďŕđŕěĺňđű ęîíňđîëëĺđŕ
    309          unsigned char ip_ls[4]; 
    310          unsigned int num_self,num_seq_cl,port_udp;
    311          
    312          
    313          
    314          struct                   //ńňđóęňóđŕ, îďčńűâŕţůŕ˙ îáúĺęň ďĺđĺäŕ÷č ďî PPP 
    315            {  
    316            enum bool link_no ; //ńâ˙çč íĺň
    317            enum bool link_waits; //îćčäŕíčĺ ęâčňęŕ íŕ ęîíňđîëü ńâ˙çč
    318            enum bool link;      //ęîíňđîëü ńâ˙çč    
    319            enum bool nat;      //ęîíňđîëü nat 
    320            unsigned int cnt_link; // ń÷ĺň÷čę
    321            unsigned int cnt_nat; // ń÷ĺň÷čę
    322            unsigned int vol_link; // çíŕ÷ĺíčĺ  
    323            unsigned int vol_nat; // //çíŕ÷ĺíčĺ 
    324            unsigned int vol_waits; // çíŕ÷ĺíčĺ âđĺěĺíč ęâčňęŕ îćčäŕíč˙ ęîíňđîë˙ ńâ˙çč
    325            unsigned char cnt_try; // ń÷ĺň÷čę ďîďűňîę ďîëó÷čňü ęâčňîę
    326            unsigned char vol_try; // rjkbxtcndj ďîďűňîę ďîëó÷čňü ęâčňîę
    327            unsigned int vol_nat_r; // ń÷ĺň÷čę
    328            }Control;
    329          
    330          
    331           unsigned long int vol_cnt_no_link, vol_cnt_link_res, cnt_no_link, cnt_link_res;; //dobavka
    332          
    333          
    334            unsigned char Appl_RS485_1_data_buf[LN_BUF_485_1];// ńŕě áóôĺđ
    335            unsigned char Appl_RS485_2_data_buf[LN_BUF_485_2];// ńŕě áóôĺđ
    336            unsigned char Appl_RS232_2_data_buf[LN_BUF_232_2];// ńŕě áóôĺđ
    337           
    338              struct                   //ńňđóęňóđŕ îďčńűâŕţůŕ˙ đŕáîňó ďđčëîćĺíč˙ "RS485_1" 
    339            {  
    340            enum bool fl_data_buf; //čěĺĺňń˙ ëč çŕáóôĺđčçčđîâŕííűé ďŕęĺň äë˙ ďĺđĺäŕ÷č â ďîđň RS485_1
    341            unsigned int ln_data_buf; // çŕáóôĺđčçčđîâŕííŕ˙ äëčíŕ áóôĺđŕ
    342            unsigned int dst_buf; // çŕáóôĺđčçčđîâŕííűé ďîëó÷ŕňĺëü
    343            unsigned char cont_buf[8];// çŕáóôĺđčçčđîâŕííűé ęîíňĺęńň
    344            unsigned char id_buf; // çŕáóôĺđčçčđîâŕííűé id
    345            unsigned int dst_tek;// ňĺęóůčé ďîëó÷ŕňĺëü
    346            unsigned char id_tek; // ňĺęóůčé id
    347            unsigned int pre_tx;//çŕäĺđćęŕ ďĺđĺä ďĺđĺäŕ÷ĺé
    348            }Appl_RS485_1,Appl_RS485_2,Appl_RS232_2;
   \                     Appl_RS485_1:
   \   00000000                      DS 19
   \                     Appl_RS485_2:
   \   00000013                      DS 19
   \                     cnt_link_res:
   \   00000026                      DS 4
    349          
    350            
    351               struct
    352           {
    353           unsigned char mon1 : 1;
    354           unsigned char mon2 : 1;
    355           unsigned char mon232_2 : 1;
    356           } fl_tx485;
    357           
    358          extern struct
    359           {
    360           unsigned char busy : 1;
    361           unsigned char rec : 1;
    362           unsigned char tm_out : 1;
    363           unsigned char tx : 1;
    364           unsigned char over : 1;
    365           unsigned char buffed : 1;
    366           }fl_485_1,fl_485_2,fl_232_2;
    367          
    368           
    369          ///////////////////EEEEEEEEEEEEEEEEEEEEEEEEEEEEEEEEEEEEEEEE
    370          
    371            //!!!!!!!!!!!!!!!!!!!!!!!!!!!!!ńňđóęňóđű ďđčëîćĺíč˙
    372           struct
    373          {
    374          unsigned char id;
    375          unsigned int p_in;// óęŕçŕňĺëü ńâîáîäíîé ˙÷ĺéęč
    376          unsigned int p_out;
    377          unsigned int p_out_kv;
    378          unsigned int crc;
    379          unsigned int cnt_waits; // ń÷ĺň÷čę îćčäŕíč˙ ęâčňęŕ
    380          unsigned char cnt_try; // ń÷ĺň÷čę ďîďűňîę ďîëó÷čňü ęâčňîę 
    381          unsigned int l_data; // äëčíŕ ďîńűëŕĺěűő äŕííűő
    382          unsigned char state;
    383          unsigned char event;
    384          unsigned int tm_vzat;
    385          unsigned int vol_tm_vzat;
    386          enum bool cntr_cl;
    387          enum bool en_cntr_cl;
    388          unsigned int cnt_cntr_cl;
    389          unsigned int vol_cntr_cl;
    390          }Appl_seq;
    391          
    392          unsigned char Appl_seq_des;
    393          
    394          unsigned char state_seq;
    395          
    396          unsigned char Appl_seq_buf[MAX_BUF_SEQ]; 
    397          
    398          
    399          struct
    400          {
    401          unsigned char en_tx :1;
    402          unsigned char kv_waits :1;
    403          unsigned char en_povtor:1;
    404          }fl_appl_seq;
    405          
    406          struct
    407          {
    408          unsigned char over_buf :1;
    409          unsigned char send_state :1;
    410          unsigned char enable:1; 
    411          }fl_appl_seq1; 
    412          
    413          extern struct
    414          {
    415           
    416            unsigned char tek_pin :1;
    417            unsigned char old_pin :1;
    418            unsigned char fl_ch_tc :1;
    419            unsigned char real_tc;
    420            unsigned int count_tc; 
    421            unsigned char type;
    422            unsigned char cnt_block_tc;
    423          }struct_tcc1,struct_tcc2;
    424          
    425          struct
    426          {
    427            unsigned char tc:1;
    428            unsigned char tc_old :1;
    429          }sv1,sv2;
    430            //EEEEEEEEEEEEEEEEEEEEEEEEEEEEEEEEEEEEEEEEE
    431          
    432          ///!!!!!!!!!!!!!!!!!!!!!!!!!!!!!!!!!!!äë˙ ĐĐĐ
    433          extern  struct
    434           {
    435           unsigned char fl_7e : 1;//
    436           unsigned char fl_7d : 1;//
    437           unsigned char switcher : 1;//ďĺđĺęëţ÷ŕňĺëü áóôĺđîâ
    438           } fl_rx_ppp;
    439          
    440          
    441          unsigned char layer_PPP;
    442          
    443          extern struct
    444           {
    445            unsigned char act_lcp_end :1;  
    446            unsigned char lcp_tm_out_en :1;
    447            unsigned char t0_pl:1;
    448            unsigned char t0_mi:1;
    449           }fl_lcp; 
    450           
    451          
    452          
    453          extern struct
    454           {
    455            unsigned char act_ipcp_end :1;  
    456            unsigned char ipcp_tm_out_en :1;
    457            unsigned char t0_pl:1;
    458            unsigned char t0_mi:1;
    459           }fl_ipcp; 
    460          
    461          
    462          extern struct
    463           {
    464            unsigned char act_ip_end :1; 
    465            unsigned char ip_tm_cntr_en :1; 
    466            unsigned char ip_tm_nat_en :1;
    467           }fl_ip;
    468          
    469          
    470          
    471            
    472          extern struct
    473           {
    474            unsigned char act_pap_end :1;  
    475            unsigned char pap_tm_out_en:1;
    476            unsigned char t0_pl:1;
    477            unsigned char t0_mi:1;  
    478            unsigned char up: 1; 
    479           }fl_pap; 
    480          
    481          
    482          struct
    483           {
    484            unsigned char add_byte :1; 
    485           }fl_reg3;
    486          
    487          
    488           extern struct
    489           {
    490            unsigned char up :1;  
    491            unsigned char down :1;
    492           }fl_lcp1; 
    493          
    494          
    495          extern struct
    496           {
    497            unsigned char up :1;  
    498            unsigned char down :1;
    499           }fl_ipcp1;
    500           
    501           extern struct
    502           {
    503            unsigned char nac_rej :1; // reject - 1 
    504           }fl_lcp2;
    505             
    506           extern struct
    507           {
    508            unsigned char nac_rej :1; // reject - 1 
    509           }fl_ipcp2;
    510           
    511          
    512          extern unsigned char pap_act_buf,PAP_state,PAP_event;
    513          extern unsigned char LCP_state, LCP_event,LCP_act_buf[LCP_ACT_VOL];
    514          extern unsigned char IPCP_state, IPCP_event,IPCP_act_buf[IPCP_ACT_VOL];
    515          extern unsigned char uk_in_act_LCP,uk_out_act_LCP,uk_in_act_IPCP,uk_out_act_IPCP;
    516          
    517          extern unsigned char cnt_rst_lcp,vol_cnt_rst_lcp;
    518          extern unsigned char cnt_rst_ipcp,vol_cnt_rst_ipcp;                       
    519          extern unsigned char cnt_rst_pap,vol_cnt_rst_pap;       
    520                                
    521                                  
    522          extern unsigned int cnt_lcp_tm_out,cnt_ipcp_tm_out;
    523          extern unsigned int cnt_pap_tm_out;
    524          extern unsigned long int cnt_ip_tm_cntr;
    525          extern unsigned char rcvd_protokol;
    526          
    527          extern unsigned char  i_scr_lcp,i_scan_lcp;
    528          extern unsigned char  i_scj_lcp;//čäĺíňčôčęŕňîđű lcp
    529          extern unsigned char  i_str_lcp,i_sta_lcp;
    530           
    531          extern unsigned char  i_scr_ipcp,i_scan_ipcp;
    532          extern unsigned char  i_scj_ipcp;//čäĺíňčôčęŕňîđű ipcp
    533          extern unsigned char  i_str_ipcp,i_sta_ipcp; 
    534           
    535            
    536          extern unsigned char  i_scr_pap;
    537           
    538           
    539           unsigned char ip_self[4];
   \                     ip_self:
   \   0000002A                      DS 4
   \                     count_tx_ppp:
   \   0000002E                      DS 2
   \                     cnt_cts_off:
   \   00000030                      DS 2
   \                     state_modem:
   \   00000032                      DS 1
   \                     event_modem:
   \   00000033                      DS 1
   \                     command_AT:
   \   00000034                      DS 1
   \                     cnt_stm_tm1:
   \   00000035                      DS 1
   \                     Fl_ch_sim:
   \   00000036                      DS 1
   \                     fl_wdt:
   \   00000037                      DS 1
   \                     fl_cts_232_ignor:
   \   00000038                      DS 1
   \                     fl_cts_232:
   \   00000039                      DS 1
   \                     fl_tx485:
   \   0000003A                      DS 1
   \                     fl_appl_seq:
   \   0000003B                      DS 1
   \                     fl_appl_seq1:
   \   0000003C                      DS 1
   \                     layer_PPP:
   \   0000003D                      DS 1
   \                     fl_reg3:
   \   0000003E                      DS 1

   \                                 In segment NEAR_Z, align 1, keep-with-next
   \   00000000                      REQUIRE `?<Segment init: NEAR_Z>`
   \                     Appl_RS232_2:
   \   00000000                      DS 19
   \                     buf_opt_tr:
   \   00000013                      DS 20

   \                                 In segment NEAR_Z, align 1, keep-with-next
   \   00000000                      REQUIRE `?<Segment init: NEAR_Z>`
   \                     prov_ozu:
   \   00000000                      DS 2

   \                                 In segment NEAR_Z, align 1, keep-with-next
   \   00000000                      REQUIRE `?<Segment init: NEAR_Z>`
   \                     buf_tx_232:
   \   00000000                      DS 1100

   \                                 In segment NEAR_Z, align 1, keep-with-next
   \   00000000                      REQUIRE `?<Segment init: NEAR_Z>`
   \                     vol_tx_ppp:
   \   00000000                      DS 2

   \                                 In segment NEAR_Z, align 1, keep-with-next
   \   00000000                      REQUIRE `?<Segment init: NEAR_Z>`
   \                     Buf1_rx_ppp:
   \   00000000                      DS 335

   \                                 In segment NEAR_Z, align 1, keep-with-next
   \   00000000                      REQUIRE `?<Segment init: NEAR_Z>`
   \                     Buf2_rx_ppp:
   \   00000000                      DS 335

   \                                 In segment NEAR_Z, align 1, keep-with-next
   \   00000000                      REQUIRE `?<Segment init: NEAR_Z>`
   \                     Appl_seq:
   \   00000000                      DS 26
   \                     Control:
   \   0000001A                      DS 18
   \                     ip_ls:
   \   0000002C                      DS 4
   \                     vol_cnt_no_link:
   \   00000030                      DS 4
   \                     vol_cnt_link_res:
   \   00000034                      DS 4
   \                     num_self:
   \   00000038                      DS 2
   \                     num_seq_cl:
   \   0000003A                      DS 2
   \                     port_udp:
   \   0000003C                      DS 2
   \                     Appl_seq_des:
   \   0000003E                      DS 1

   \                                 In segment NEAR_Z, align 1, keep-with-next
   \   00000000                      REQUIRE `?<Segment init: NEAR_Z>`
   \                     cnt_no_link:
   \   00000000                      DS 4

   \                                 In segment NEAR_Z, align 1, keep-with-next
   \   00000000                      REQUIRE `?<Segment init: NEAR_Z>`
   \                     Appl_RS485_1_data_buf:
   \   00000000                      DS 200

   \                                 In segment NEAR_Z, align 1, keep-with-next
   \   00000000                      REQUIRE `?<Segment init: NEAR_Z>`
   \                     Appl_RS485_2_data_buf:
   \   00000000                      DS 200

   \                                 In segment NEAR_Z, align 1, keep-with-next
   \   00000000                      REQUIRE `?<Segment init: NEAR_Z>`
   \                     Appl_RS232_2_data_buf:
   \   00000000                      DS 200

   \                                 In segment NEAR_Z, align 1, keep-with-next
   \   00000000                      REQUIRE `?<Segment init: NEAR_Z>`
   \                     state_seq:
   \   00000000                      DS 1
   \                     sv1:
   \   00000001                      DS 1
   \                     sv2:
   \   00000002                      DS 1

   \                                 In segment NEAR_Z, align 1, keep-with-next
   \   00000000                      REQUIRE `?<Segment init: NEAR_Z>`
   \                     Appl_seq_buf:
   \   00000000                      DS 200
    540            //EEEEEEEEEEEEEEEEEEEEEEEEEEEEEEEEEEEEEEEEE
    541          
    542           
    543           
    544           extern unsigned char Rs485_1_buf_rx_tx[MAX_BUF_RS485_1];
    545           extern unsigned char Rs485_2_buf_rx_tx[MAX_BUF_RS485_2];
    546           extern unsigned char Rs232_2_buf_rx_tx[MAX_BUF_RS232_2];
    547           
    548           
    549            extern struct                   //ńňđóęňóđŕ îďčńűâŕţůŕ˙ đŕáîňó ďîđňŕ "RS485_1" 
    550            {
    551            unsigned int  cnt_bt_rx_tx;       // ń÷ĺň÷čę áŕéňîâ íŕ ďđčĺě-ďĺđĺäŕ÷ó
    552            unsigned int  cnt_tm_tx_out;    // ń÷ĺň÷čę âđĺěĺíč íŕ óäĺđćŕíčĺ rts ďîńëĺ ďĺđĺäŕ÷č
    553            unsigned int  cnt_tm_pre_tx;    // ń÷ĺň÷čę âđĺěĺíč íŕ óäĺđćŕíčĺ rts ďĺđĺä ďĺđĺäŕ÷č
    554            unsigned int  vol_tm_tx_out;    // ďđĺäĺë ń÷ĺň÷čę âđĺěĺíč íŕ óäĺđćŕíčĺ rts ďîńëĺ ďĺđĺäŕ÷č
    555            unsigned int  cnt_tm_rx_out;   //  ń÷ĺň÷čę âđĺěĺíč íŕ îďđĺäĺëĺíčĺ ęîíöŕ ďđčĺěŕ
    556            unsigned int  vol_tm_rx_out;   //  ďđĺäĺë âđĺěĺíč íŕ îďđĺäĺëĺíčĺ ęîíöŕ ďđčĺěŕ
    557            unsigned int  cnt_tm_out;     // ń÷ĺň÷čę âđĺěĺíč íŕ ďđčĺě 
    558            unsigned int  vol_tm_out;     // ďđĺäĺë ń÷ĺň÷čęŕ âđĺěĺíč íŕ ďđčĺě 
    559            unsigned char *p_data485;   // óęŕçŕňĺëü íŕ áóôĺđ ďĺđĺäŕ÷č
    560            }Rs485_1,Rs485_2,Rs232_2;
    561           
    562           
    563          
    564           
    565           extern unsigned char state_led_md;
    566           
    567          

   \                                 In segment NEAR_Z, align 1, keep-with-next
   \   00000000                      REQUIRE `?<Segment init: NEAR_Z>`
    568          unsigned long int summa_temperatura;         
   \                     summa_temperatura:
   \   00000000                      DS 4

   \                                 In segment NEAR_Z, align 1, keep-with-next
   \   00000000                      REQUIRE `?<Segment init: NEAR_Z>`
    569          unsigned int temperatura;
   \                     temperatura:
   \   00000000                      DS 2

   \                                 In segment NEAR_Z, align 1, keep-with-next
   \   00000000                      REQUIRE `?<Segment init: NEAR_Z>`
    570          unsigned int count_summa_temperatura; 
   \                     count_summa_temperatura:
   \   00000000                      DS 2
    571           
    572           

   \                                 In segment CODE, align 2, keep-with-next
    573          void lock_it(void)
   \                     lock_it:
   \                     ??lock_it_0:
    574                          {
    575                          do
    576                              {   
    577                         
    578                                SREG=0;        
   \   00000000   E000               LDI     R16, 0
   \   00000002   BF0F               OUT     0x3F, R16
    579                                WDTCSR=0x18;     
   \   00000004   E108               LDI     R16, 24
   \   00000006   93000060           STS     96, R16
    580                                WDTCSR=0x0f;     
   \   0000000A   E00F               LDI     R16, 15
   \   0000000C   93000060           STS     96, R16
    581                               } while(1);
   \   00000010   CFF7               RJMP    ??lock_it_0
    582                              }      
    583          

   \                                 In segment CODE, align 2, keep-with-next
    584          void delay(unsigned int period)
   \                     delay:
   \                     ??delay_0:
    585            {
    586            bad:
    587            period--;
   \   00000000   5001               SUBI    R16, 1
   \   00000002   4010               SBCI    R17, 0
    588            if(period !=0) goto bad;
   \   00000004   2F20               MOV     R18, R16
   \   00000006   2B21               OR      R18, R17
   \   00000008   F7D9               BRNE    ??delay_0
    589            }
   \   0000000A   9508               RET
    590          
    591          

   \                                 In segment CODE, align 2, keep-with-next
    592          void long_delay(unsigned long int period)
   \                     long_delay:
   \                     ??long_delay_0:
    593          {
    594            bad1:
    595            period--;
   \   00000000   5001               SUBI    R16, 1
   \   00000002   4010               SBCI    R17, 0
   \   00000004   4020               SBCI    R18, 0
   \   00000006   4030               SBCI    R19, 0
    596            __watchdog_reset();
   \   00000008   95A8               WDR
    597            if(period !=0) goto bad1;
   \   0000000A   2F40               MOV     R20, R16
   \   0000000C   2B41               OR      R20, R17
   \   0000000E   2B42               OR      R20, R18
   \   00000010   2B43               OR      R20, R19
   \   00000012   F7B1               BRNE    ??long_delay_0
    598          }
   \   00000014   9508               RET
    599          
    600          

   \                                 In segment CODE, align 2, keep-with-next
    601          void delay_on_contr(void)
   \                     delay_on_contr:
    602          {
   \   00000000   938A               ST      -Y, R24
    603          unsigned char delay_count;
    604          
    605          delay_count=18;
   \   00000002   E182               LDI     R24, 18
    606          
    607          S1_RD;
   \   00000004   9AA0               SBI     0x14, 0x00
   \   00000006   98A1               CBI     0x14, 0x01
    608          S2_RD;
   \   00000008   9A40               SBI     0x08, 0x00
   \   0000000A   9841               CBI     0x08, 0x01
    609          S3_RD;
   \   0000000C   9A44               SBI     0x08, 0x04
   \   0000000E   9845               CBI     0x08, 0x05
    610          S4_RD;
   \   00000010   9A42               SBI     0x08, 0x02
   \   00000012   9843               CBI     0x08, 0x03
    611          S5_RD;
   \   00000014   9A46               SBI     0x08, 0x06
   \   00000016   9847               CBI     0x08, 0x07
    612          
    613                              
    614                                do
    615                                    {   
    616                                        __watchdog_reset();
   \                     ??delay_on_contr_0:
   \   00000018   95A8               WDR
    617                                        delay(60000);
   \   0000001A   E600               LDI     R16, 96
   \   0000001C   EE1A               LDI     R17, 234
   \   0000001E   ....               RCALL   delay
    618                                        delay(60000);
   \   00000020   E600               LDI     R16, 96
   \   00000022   EE1A               LDI     R17, 234
   \   00000024   ....               RCALL   delay
    619                                        delay(60000);
   \   00000026   E600               LDI     R16, 96
   \   00000028   EE1A               LDI     R17, 234
   \   0000002A   ....               RCALL   delay
    620                                        delay(60000);
   \   0000002C   E600               LDI     R16, 96
   \   0000002E   EE1A               LDI     R17, 234
   \   00000030   ....               RCALL   delay
    621                                        delay(60000);
   \   00000032   E600               LDI     R16, 96
   \   00000034   EE1A               LDI     R17, 234
   \   00000036   ....               RCALL   delay
    622                                        __watchdog_reset();
   \   00000038   95A8               WDR
    623                                        S1_CH;
   \   0000003A   E001               LDI     R16, 1
   \   0000003C   B314               IN      R17, 0x14
   \   0000003E   2710               EOR     R17, R16
   \   00000040   BB14               OUT     0x14, R17
   \   00000042   E002               LDI     R16, 2
   \   00000044   B314               IN      R17, 0x14
   \   00000046   2710               EOR     R17, R16
   \   00000048   BB14               OUT     0x14, R17
    624                                        S2_CH;
   \   0000004A   E001               LDI     R16, 1
   \   0000004C   B118               IN      R17, 0x08
   \   0000004E   2710               EOR     R17, R16
   \   00000050   B918               OUT     0x08, R17
   \   00000052   E002               LDI     R16, 2
   \   00000054   B118               IN      R17, 0x08
   \   00000056   2710               EOR     R17, R16
   \   00000058   B918               OUT     0x08, R17
    625                                        S3_CH;
   \   0000005A   E100               LDI     R16, 16
   \   0000005C   B118               IN      R17, 0x08
   \   0000005E   2710               EOR     R17, R16
   \   00000060   B918               OUT     0x08, R17
   \   00000062   E200               LDI     R16, 32
   \   00000064   B118               IN      R17, 0x08
   \   00000066   2710               EOR     R17, R16
   \   00000068   B918               OUT     0x08, R17
    626                                        S4_CH;
   \   0000006A   E004               LDI     R16, 4
   \   0000006C   B118               IN      R17, 0x08
   \   0000006E   2710               EOR     R17, R16
   \   00000070   B918               OUT     0x08, R17
   \   00000072   E008               LDI     R16, 8
   \   00000074   B118               IN      R17, 0x08
   \   00000076   2710               EOR     R17, R16
   \   00000078   B918               OUT     0x08, R17
    627                                        S5_CH;
   \   0000007A   E400               LDI     R16, 64
   \   0000007C   B118               IN      R17, 0x08
   \   0000007E   2710               EOR     R17, R16
   \   00000080   B918               OUT     0x08, R17
   \   00000082   E800               LDI     R16, 128
   \   00000084   B118               IN      R17, 0x08
   \   00000086   2710               EOR     R17, R16
   \   00000088   B918               OUT     0x08, R17
    628                                        delay_count--;
   \   0000008A   958A               DEC     R24
    629                                     } while(delay_count!=0);
   \   0000008C   F629               BRNE    ??delay_on_contr_0
    630          
    631          S1_OFF;
   \   0000008E   98A0               CBI     0x14, 0x00
   \   00000090   98A1               CBI     0x14, 0x01
    632          S2_OFF;
   \   00000092   9840               CBI     0x08, 0x00
   \   00000094   9841               CBI     0x08, 0x01
    633          S3_OFF;
   \   00000096   9844               CBI     0x08, 0x04
   \   00000098   9845               CBI     0x08, 0x05
    634          S4_OFF;
   \   0000009A   9842               CBI     0x08, 0x02
   \   0000009C   9843               CBI     0x08, 0x03
    635          S5_OFF;
   \   0000009E   9846               CBI     0x08, 0x06
   \   000000A0   9847               CBI     0x08, 0x07
    636          }
   \   000000A2   9189               LD      R24, Y+
   \   000000A4   9508               RET
    637          
    638          

   \                                 In segment CODE, align 2, keep-with-next
    639           unsigned int crc_m1(unsigned char *ka,unsigned int num,unsigned int crc)   
   \                     crc_m1:
    640          
    641               {
   \   00000000   2F79               MOV     R23, R25
   \   00000002   2E28               MOV     R2, R24
    642                unsigned char uchCRCHi,uIndex;
    643                unsigned char uchCRCLo;
    644                unsigned int ii;      
    645                uchCRCLo=crc;  
   \   00000004   2F64               MOV     R22, R20
    646                uchCRCHi=crc>>8;
   \   00000006   2F45               MOV     R20, R21
    647             
    648                
    649                             for (ii=0;ii<num;ii++)
   \   00000008   E080               LDI     R24, 0
   \   0000000A   E090               LDI     R25, 0
   \   0000000C   C011               RJMP    ??crc_m1_0
    650                            {
    651              
    652                 uIndex = uchCRCHi ^ *ka++;
   \                     ??crc_m1_1:
   \   0000000E   01F8               MOVW    R31:R30, R17:R16
   \   00000010   9001               LD      R0, Z+
   \   00000012   018F               MOVW    R17:R16, R31:R30
   \   00000014   2604               EOR     R0, R20
    653          
    654                 uchCRCHi = uchCRCLo ^ auchCRCHi[uIndex];
   \   00000016   2411               CLR     R1
   \   00000018   ....               LDI     R30, LOW(auchCRCHi)
   \   0000001A   ....               LDI     R31, (auchCRCHi) >> 8
   \   0000001C   0DE0               ADD     R30, R0
   \   0000001E   1DF1               ADC     R31, R1
   \   00000020   9144               LPM     R20, Z
   \   00000022   2746               EOR     R20, R22
    655          
    656                 uchCRCLo = auchCRCLo[uIndex];
   \   00000024   ....               LDI     R30, LOW(auchCRCLo)
   \   00000026   ....               LDI     R31, (auchCRCLo) >> 8
   \   00000028   0DE0               ADD     R30, R0
   \   0000002A   1DF1               ADC     R31, R1
   \   0000002C   9164               LPM     R22, Z
    657                 
    658                }
   \   0000002E   9601               ADIW    R25:R24, 1
   \                     ??crc_m1_0:
   \   00000030   1782               CP      R24, R18
   \   00000032   0793               CPC     R25, R19
   \   00000034   F360               BRCS    ??crc_m1_1
    659          
    660               return (uchCRCHi << 8  | uchCRCLo);
   \   00000036   2F06               MOV     R16, R22
   \   00000038   2F14               MOV     R17, R20
   \   0000003A   2D82               MOV     R24, R2
   \   0000003C   2F97               MOV     R25, R23
   \   0000003E   9508               RET
    661          
    662               }
    663          
    664          
    665          

   \                                 In segment CODE, align 2, keep-with-next
    666          unsigned char check_cts(void)
   \                     check_cts:
    667          { 
    668           // if (PINE & CTS0)
    669            if ((PINE & CTS0)==0)     
   \   00000000   9964               SBIC    0x0C, 0x04
   \   00000002   C007               RJMP    ??check_cts_0
    670            {
    671            fl_cts_232.on=1;
   \   00000004   ....               LDI     R30, LOW(Appl_RS485_1)
   \   00000006   ....               LDI     R31, (Appl_RS485_1) >> 8
   \   00000008   AD01               LDD     R16, Z+57
   \   0000000A   6001               ORI     R16, 0x01
   \   0000000C   AF01               STD     Z+57, R16
    672            return(1);
   \   0000000E   E001               LDI     R16, 1
   \   00000010   9508               RET
    673            } //proverka CTS
    674            return(0);  
   \                     ??check_cts_0:
   \   00000012   E000               LDI     R16, 0
   \   00000014   9508               RET
    675          }  
    676          
    677          
    678          

   \                                 In segment CODE, align 2, keep-with-next
    679          void s_port(unsigned char ch)
   \                     s_port:
   \                     ??s_port_0:
    680                {                             
    681                wawa: 
    682                if((UCSR2A & 0x20) ==0) goto wawa;
   \   00000000   911000D0           LDS     R17, 208
   \   00000004   2F21               MOV     R18, R17
   \   00000006   FF25               SBRS    R18, 5
   \   00000008   CFFB               RJMP    ??s_port_0
    683                UDR2=ch;
   \   0000000A   930000D6           STS     214, R16
    684                }
   \   0000000E   9508               RET
    685          
    686          

   \                                 In segment CODE, align 2, keep-with-next
    687           void    mov_s (char size, char __flash *p)
   \                     mov_s:
    688                {     
   \   00000000   ........           CALL    ?PROLOGUE3_L09
   \   00000004   2FA0               MOV     R26, R16
   \   00000006   01C9               MOVW    R25:R24, R19:R18
   \   00000008   C004               RJMP    ??mov_s_0
    689                 while(size--) s_port(*p++);
   \                     ??mov_s_1:
   \   0000000A   01FC               MOVW    R31:R30, R25:R24
   \   0000000C   9105               LPM     R16, Z+
   \   0000000E   01CF               MOVW    R25:R24, R31:R30
   \   00000010   ....               RCALL   s_port
   \                     ??mov_s_0:
   \   00000012   2F0A               MOV     R16, R26
   \   00000014   95AA               DEC     R26
   \   00000016   2300               TST     R16
   \   00000018   F7C1               BRNE    ??mov_s_1
    690                } 
   \   0000001A   E0E3               LDI     R30, 3
   \   0000001C   ........           JMP     ?EPILOGUE_B3_L09
    691           
    692          

   \                                 In segment CODE, align 2, keep-with-next
    693           void    mov_buf (char size,unsigned char * p)
   \                     mov_buf:
    694                {     
   \   00000000   ........           CALL    ?PROLOGUE4_L09
   \   00000004   2F80               MOV     R24, R16
   \   00000006   01D9               MOVW    R27:R26, R19:R18
   \   00000008   C002               RJMP    ??mov_buf_0
    695                 while(size--) s_port(*p++);
   \                     ??mov_buf_1:
   \   0000000A   910D               LD      R16, X+
   \   0000000C   ....               RCALL   s_port
   \                     ??mov_buf_0:
   \   0000000E   2F08               MOV     R16, R24
   \   00000010   958A               DEC     R24
   \   00000012   2300               TST     R16
   \   00000014   F7D1               BRNE    ??mov_buf_1
    696                }
   \   00000016   E0E4               LDI     R30, 4
   \   00000018   ........           JMP     ?EPILOGUE_B4_L09
    697          
    698          

   \                                 In segment CODE, align 2, keep-with-next
    699          void    mov_lf (void)
   \                     mov_lf:
    700               {     
    701               s_port(0xd);
   \   00000000   E00D               LDI     R16, 13
   \   00000002   ....               RCALL   s_port
    702               s_port(0xa);
   \   00000004   E00A               LDI     R16, 10
   \   00000006   ....               RCALL   s_port
    703               }      
   \   00000008   9508               RET
    704          
    705          

   \                                 In segment CODE, align 2, keep-with-next
    706          unsigned int crc_ozu(void)
   \                     crc_ozu:
    707             
    708          
    709               {
   \   00000000   93BA               ST      -Y, R27
   \   00000002   93AA               ST      -Y, R26
    710                unsigned char uchCRCHi;
    711                unsigned char uchCRCLo;
    712                unsigned char temp;
    713                
    714                uchCRCLo=0xff;  
    715                uchCRCHi=0xff;
    716                   
    717                uchCRCHi = uchCRCLo ^ auchCRCHi[uchCRCHi ^ ip_ls[0]];
   \   00000004   ....               LDI     R26, LOW(Appl_seq)
   \   00000006   ....               LDI     R27, (Appl_seq) >> 8
   \   00000008   01FD               MOVW    R31:R30, R27:R26
   \   0000000A   A564               LDD     R22, Z+44
   \   0000000C   E070               LDI     R23, 0
   \   0000000E   ....               LDI     R30, LOW(auchCRCHi)
   \   00000010   ....               LDI     R31, (auchCRCHi) >> 8
   \   00000012   EF0F               LDI     R16, 255
   \   00000014   E010               LDI     R17, 0
   \   00000016   2706               EOR     R16, R22
   \   00000018   0FE0               ADD     R30, R16
   \   0000001A   1FF7               ADC     R31, R23
   \   0000001C   9104               LPM     R16, Z
   \   0000001E   EF4F               LDI     R20, 255
   \   00000020   2740               EOR     R20, R16
   \   00000022   01FD               MOVW    R31:R30, R27:R26
   \   00000024   A525               LDD     R18, Z+45
   \   00000026   E030               LDI     R19, 0
   \   00000028   E050               LDI     R21, 0
   \   0000002A   ....               LDI     R30, LOW(auchCRCLo)
   \   0000002C   ....               LDI     R31, (auchCRCLo) >> 8
   \   0000002E   2764               EOR     R22, R20
   \   00000030   0FE6               ADD     R30, R22
   \   00000032   1FF7               ADC     R31, R23
   \   00000034   9104               LPM     R16, Z
   \   00000036   ....               LDI     R30, LOW(auchCRCHi)
   \   00000038   ....               LDI     R31, (auchCRCHi) >> 8
   \   0000003A   01B9               MOVW    R23:R22, R19:R18
   \   0000003C   2764               EOR     R22, R20
   \   0000003E   0FE6               ADD     R30, R22
   \   00000040   1FF1               ADC     R31, R17
   \   00000042   9144               LPM     R20, Z
   \   00000044   2740               EOR     R20, R16
   \   00000046   01FD               MOVW    R31:R30, R27:R26
   \   00000048   A506               LDD     R16, Z+46
   \   0000004A   ....               LDI     R30, LOW(auchCRCLo)
   \   0000004C   ....               LDI     R31, (auchCRCLo) >> 8
   \   0000004E   2724               EOR     R18, R20
   \   00000050   0FE2               ADD     R30, R18
   \   00000052   1FF1               ADC     R31, R17
   \   00000054   9124               LPM     R18, Z
   \   00000056   ....               LDI     R30, LOW(auchCRCHi)
   \   00000058   ....               LDI     R31, (auchCRCHi) >> 8
   \   0000005A   01B8               MOVW    R23:R22, R17:R16
   \   0000005C   2764               EOR     R22, R20
   \   0000005E   0FE6               ADD     R30, R22
   \   00000060   1FF1               ADC     R31, R17
   \   00000062   9144               LPM     R20, Z
   \   00000064   2742               EOR     R20, R18
   \   00000066   01FD               MOVW    R31:R30, R27:R26
   \   00000068   A567               LDD     R22, Z+47
   \   0000006A   ....               LDI     R30, LOW(auchCRCLo)
   \   0000006C   ....               LDI     R31, (auchCRCLo) >> 8
   \   0000006E   2704               EOR     R16, R20
   \   00000070   0FE0               ADD     R30, R16
   \   00000072   1FF1               ADC     R31, R17
   \   00000074   9104               LPM     R16, Z
   \   00000076   ....               LDI     R30, LOW(auchCRCHi)
   \   00000078   ....               LDI     R31, (auchCRCHi) >> 8
   \   0000007A   019B               MOVW    R19:R18, R23:R22
   \   0000007C   2724               EOR     R18, R20
   \   0000007E   0FE2               ADD     R30, R18
   \   00000080   1FF1               ADC     R31, R17
   \   00000082   9144               LPM     R20, Z
   \   00000084   2740               EOR     R20, R16
    718                uchCRCLo = auchCRCLo[uchCRCHi ^ ip_ls[0]];
    719                uchCRCHi = uchCRCLo ^ auchCRCHi[uchCRCHi ^ ip_ls[1]];
    720                uchCRCLo = auchCRCLo[uchCRCHi ^ ip_ls[1]];
    721                uchCRCHi = uchCRCLo ^ auchCRCHi[uchCRCHi ^ ip_ls[2]];
    722                uchCRCLo = auchCRCLo[uchCRCHi ^ ip_ls[2]];
    723                uchCRCHi = uchCRCLo ^ auchCRCHi[uchCRCHi ^ ip_ls[3]];
    724                uchCRCLo = auchCRCLo[uchCRCHi ^ ip_ls[3]];
    725                
    726                temp=port_udp;
   \   00000086   01FD               MOVW    R31:R30, R27:R26
   \   00000088   96FC               ADIW    R31:R30, 60
   \   0000008A   8120               LD      R18, Z
   \   0000008C   8131               LDD     R19, Z+1
   \   0000008E   2F02               MOV     R16, R18
    727                uchCRCHi = uchCRCLo ^ auchCRCHi[uchCRCHi ^ temp];
   \   00000090   ....               LDI     R30, LOW(auchCRCLo)
   \   00000092   ....               LDI     R31, (auchCRCLo) >> 8
   \   00000094   2764               EOR     R22, R20
   \   00000096   0FE6               ADD     R30, R22
   \   00000098   1FF1               ADC     R31, R17
   \   0000009A   9164               LPM     R22, Z
   \   0000009C   ....               LDI     R30, LOW(auchCRCHi)
   \   0000009E   ....               LDI     R31, (auchCRCHi) >> 8
   \   000000A0   0108               MOVW    R1:R0, R17:R16
   \   000000A2   2604               EOR     R0, R20
   \   000000A4   0DE0               ADD     R30, R0
   \   000000A6   1FF1               ADC     R31, R17
   \   000000A8   9144               LPM     R20, Z
   \   000000AA   2746               EOR     R20, R22
    728                uchCRCLo = auchCRCLo[uchCRCHi ^ temp];
   \   000000AC   2F64               MOV     R22, R20
   \   000000AE   ....               LDI     R30, LOW(auchCRCLo)
   \   000000B0   ....               LDI     R31, (auchCRCLo) >> 8
   \   000000B2   2704               EOR     R16, R20
   \   000000B4   0FE0               ADD     R30, R16
   \   000000B6   1FF1               ADC     R31, R17
   \   000000B8   9144               LPM     R20, Z
    729                temp=port_udp>>8;
   \   000000BA   2F23               MOV     R18, R19
   \   000000BC   2F02               MOV     R16, R18
    730                uchCRCHi = uchCRCLo ^ auchCRCHi[uchCRCHi ^ temp];
   \   000000BE   ....               LDI     R30, LOW(auchCRCHi)
   \   000000C0   ....               LDI     R31, (auchCRCHi) >> 8
   \   000000C2   2726               EOR     R18, R22
   \   000000C4   0FE2               ADD     R30, R18
   \   000000C6   1FF1               ADC     R31, R17
   \   000000C8   9124               LPM     R18, Z
   \   000000CA   2724               EOR     R18, R20
    731                uchCRCLo = auchCRCLo[uchCRCHi ^ temp];
   \   000000CC   ....               LDI     R30, LOW(auchCRCLo)
   \   000000CE   ....               LDI     R31, (auchCRCLo) >> 8
   \   000000D0   2702               EOR     R16, R18
   \   000000D2   0FE0               ADD     R30, R16
   \   000000D4   1FF1               ADC     R31, R17
   \   000000D6   9144               LPM     R20, Z
    732                
    733                temp=num_self;
   \   000000D8   01FD               MOVW    R31:R30, R27:R26
   \   000000DA   AD60               LDD     R22, Z+56
   \   000000DC   AD71               LDD     R23, Z+57
   \   000000DE   2F06               MOV     R16, R22
    734                uchCRCHi = uchCRCLo ^ auchCRCHi[uchCRCHi ^ temp];
   \   000000E0   ....               LDI     R30, LOW(auchCRCHi)
   \   000000E2   ....               LDI     R31, (auchCRCHi) >> 8
   \   000000E4   0108               MOVW    R1:R0, R17:R16
   \   000000E6   2602               EOR     R0, R18
   \   000000E8   0DE0               ADD     R30, R0
   \   000000EA   1FF1               ADC     R31, R17
   \   000000EC   9124               LPM     R18, Z
   \   000000EE   2724               EOR     R18, R20
    735                uchCRCLo = auchCRCLo[uchCRCHi ^ temp];
   \   000000F0   ....               LDI     R30, LOW(auchCRCLo)
   \   000000F2   ....               LDI     R31, (auchCRCLo) >> 8
   \   000000F4   2702               EOR     R16, R18
   \   000000F6   0FE0               ADD     R30, R16
   \   000000F8   1FF1               ADC     R31, R17
   \   000000FA   9144               LPM     R20, Z
    736                temp=num_self>>8;
   \   000000FC   2F67               MOV     R22, R23
   \   000000FE   2F06               MOV     R16, R22
    737                uchCRCHi = uchCRCLo ^ auchCRCHi[uchCRCHi ^ temp];
   \   00000100   ....               LDI     R30, LOW(auchCRCHi)
   \   00000102   ....               LDI     R31, (auchCRCHi) >> 8
   \   00000104   2762               EOR     R22, R18
   \   00000106   0FE6               ADD     R30, R22
   \   00000108   1FF1               ADC     R31, R17
   \   0000010A   9124               LPM     R18, Z
   \   0000010C   2724               EOR     R18, R20
    738                uchCRCLo = auchCRCLo[uchCRCHi ^ temp];
   \   0000010E   ....               LDI     R30, LOW(auchCRCLo)
   \   00000110   ....               LDI     R31, (auchCRCLo) >> 8
   \   00000112   2702               EOR     R16, R18
   \   00000114   0FE0               ADD     R30, R16
   \   00000116   1FF1               ADC     R31, R17
   \   00000118   9144               LPM     R20, Z
    739                
    740                temp=Control.vol_nat;
   \   0000011A   01FD               MOVW    R31:R30, R27:R26
   \   0000011C   A164               LDD     R22, Z+36
   \   0000011E   A175               LDD     R23, Z+37
   \   00000120   2F06               MOV     R16, R22
    741                uchCRCHi = uchCRCLo ^ auchCRCHi[uchCRCHi ^ temp];
   \   00000122   ....               LDI     R30, LOW(auchCRCHi)
   \   00000124   ....               LDI     R31, (auchCRCHi) >> 8
   \   00000126   0108               MOVW    R1:R0, R17:R16
   \   00000128   2602               EOR     R0, R18
   \   0000012A   0DE0               ADD     R30, R0
   \   0000012C   1FF1               ADC     R31, R17
   \   0000012E   9124               LPM     R18, Z
   \   00000130   2724               EOR     R18, R20
    742                uchCRCLo = auchCRCLo[uchCRCHi ^ temp];
   \   00000132   ....               LDI     R30, LOW(auchCRCLo)
   \   00000134   ....               LDI     R31, (auchCRCLo) >> 8
   \   00000136   2702               EOR     R16, R18
   \   00000138   0FE0               ADD     R30, R16
   \   0000013A   1FF1               ADC     R31, R17
   \   0000013C   9144               LPM     R20, Z
    743                temp=Control.vol_nat>>8;
   \   0000013E   2F67               MOV     R22, R23
   \   00000140   2F06               MOV     R16, R22
    744                uchCRCHi = uchCRCLo ^ auchCRCHi[uchCRCHi ^ temp];
   \   00000142   ....               LDI     R30, LOW(auchCRCHi)
   \   00000144   ....               LDI     R31, (auchCRCHi) >> 8
   \   00000146   2762               EOR     R22, R18
   \   00000148   0FE6               ADD     R30, R22
   \   0000014A   1FF1               ADC     R31, R17
   \   0000014C   9124               LPM     R18, Z
   \   0000014E   2724               EOR     R18, R20
    745                uchCRCLo = auchCRCLo[uchCRCHi ^ temp];
   \   00000150   ....               LDI     R30, LOW(auchCRCLo)
   \   00000152   ....               LDI     R31, (auchCRCLo) >> 8
   \   00000154   2702               EOR     R16, R18
   \   00000156   0FE0               ADD     R30, R16
   \   00000158   1FF1               ADC     R31, R17
   \   0000015A   9144               LPM     R20, Z
    746                
    747                temp=Control.vol_nat_r;
   \   0000015C   01FD               MOVW    R31:R30, R27:R26
   \   0000015E   A562               LDD     R22, Z+42
   \   00000160   A573               LDD     R23, Z+43
   \   00000162   2F06               MOV     R16, R22
    748                uchCRCHi = uchCRCLo ^ auchCRCHi[uchCRCHi ^ temp];
   \   00000164   ....               LDI     R30, LOW(auchCRCHi)
   \   00000166   ....               LDI     R31, (auchCRCHi) >> 8
   \   00000168   0108               MOVW    R1:R0, R17:R16
   \   0000016A   2602               EOR     R0, R18
   \   0000016C   0DE0               ADD     R30, R0
   \   0000016E   1FF1               ADC     R31, R17
   \   00000170   9124               LPM     R18, Z
   \   00000172   2724               EOR     R18, R20
    749                uchCRCLo = auchCRCLo[uchCRCHi ^ temp];
   \   00000174   ....               LDI     R30, LOW(auchCRCLo)
   \   00000176   ....               LDI     R31, (auchCRCLo) >> 8
   \   00000178   2702               EOR     R16, R18
   \   0000017A   0FE0               ADD     R30, R16
   \   0000017C   1FF1               ADC     R31, R17
   \   0000017E   9144               LPM     R20, Z
    750                temp=Control.vol_nat_r>>8;
   \   00000180   2F67               MOV     R22, R23
   \   00000182   2F06               MOV     R16, R22
    751                uchCRCHi = uchCRCLo ^ auchCRCHi[uchCRCHi ^ temp];
   \   00000184   ....               LDI     R30, LOW(auchCRCHi)
   \   00000186   ....               LDI     R31, (auchCRCHi) >> 8
   \   00000188   2762               EOR     R22, R18
   \   0000018A   0FE6               ADD     R30, R22
   \   0000018C   1FF1               ADC     R31, R17
   \   0000018E   9124               LPM     R18, Z
   \   00000190   2724               EOR     R18, R20
    752                uchCRCLo = auchCRCLo[uchCRCHi ^ temp];
   \   00000192   ....               LDI     R30, LOW(auchCRCLo)
   \   00000194   ....               LDI     R31, (auchCRCLo) >> 8
   \   00000196   2702               EOR     R16, R18
   \   00000198   0FE0               ADD     R30, R16
   \   0000019A   1FF1               ADC     R31, R17
   \   0000019C   9144               LPM     R20, Z
    753                
    754                temp=Control.vol_link;
   \   0000019E   01FD               MOVW    R31:R30, R27:R26
   \   000001A0   A162               LDD     R22, Z+34
   \   000001A2   A173               LDD     R23, Z+35
   \   000001A4   2F06               MOV     R16, R22
    755                uchCRCHi = uchCRCLo ^ auchCRCHi[uchCRCHi ^ temp];
   \   000001A6   ....               LDI     R30, LOW(auchCRCHi)
   \   000001A8   ....               LDI     R31, (auchCRCHi) >> 8
   \   000001AA   0108               MOVW    R1:R0, R17:R16
   \   000001AC   2602               EOR     R0, R18
   \   000001AE   0DE0               ADD     R30, R0
   \   000001B0   1FF1               ADC     R31, R17
   \   000001B2   9124               LPM     R18, Z
   \   000001B4   2724               EOR     R18, R20
    756                uchCRCLo = auchCRCLo[uchCRCHi ^ temp];
   \   000001B6   ....               LDI     R30, LOW(auchCRCLo)
   \   000001B8   ....               LDI     R31, (auchCRCLo) >> 8
   \   000001BA   2702               EOR     R16, R18
   \   000001BC   0FE0               ADD     R30, R16
   \   000001BE   1FF1               ADC     R31, R17
   \   000001C0   9144               LPM     R20, Z
    757                temp=Control.vol_link>>8;
   \   000001C2   2F67               MOV     R22, R23
   \   000001C4   2F06               MOV     R16, R22
    758                uchCRCHi = uchCRCLo ^ auchCRCHi[uchCRCHi ^ temp];
   \   000001C6   ....               LDI     R30, LOW(auchCRCHi)
   \   000001C8   ....               LDI     R31, (auchCRCHi) >> 8
   \   000001CA   2762               EOR     R22, R18
   \   000001CC   0FE6               ADD     R30, R22
   \   000001CE   1FF1               ADC     R31, R17
   \   000001D0   9124               LPM     R18, Z
   \   000001D2   2724               EOR     R18, R20
    759                uchCRCLo = auchCRCLo[uchCRCHi ^ temp];
   \   000001D4   ....               LDI     R30, LOW(auchCRCLo)
   \   000001D6   ....               LDI     R31, (auchCRCLo) >> 8
   \   000001D8   2702               EOR     R16, R18
   \   000001DA   0FE0               ADD     R30, R16
   \   000001DC   1FF1               ADC     R31, R17
   \   000001DE   9144               LPM     R20, Z
    760                
    761                temp=Control.vol_waits;
   \   000001E0   01FD               MOVW    R31:R30, R27:R26
   \   000001E2   A166               LDD     R22, Z+38
   \   000001E4   A177               LDD     R23, Z+39
   \   000001E6   2F06               MOV     R16, R22
    762                uchCRCHi = uchCRCLo ^ auchCRCHi[uchCRCHi ^ temp];
   \   000001E8   ....               LDI     R30, LOW(auchCRCHi)
   \   000001EA   ....               LDI     R31, (auchCRCHi) >> 8
   \   000001EC   0108               MOVW    R1:R0, R17:R16
   \   000001EE   2602               EOR     R0, R18
   \   000001F0   0DE0               ADD     R30, R0
   \   000001F2   1FF1               ADC     R31, R17
   \   000001F4   9124               LPM     R18, Z
   \   000001F6   2724               EOR     R18, R20
    763                uchCRCLo = auchCRCLo[uchCRCHi ^ temp];
   \   000001F8   ....               LDI     R30, LOW(auchCRCLo)
   \   000001FA   ....               LDI     R31, (auchCRCLo) >> 8
   \   000001FC   2702               EOR     R16, R18
   \   000001FE   0FE0               ADD     R30, R16
   \   00000200   1FF1               ADC     R31, R17
   \   00000202   9144               LPM     R20, Z
    764                temp=Control.vol_waits>>8;
   \   00000204   2F67               MOV     R22, R23
   \   00000206   2F06               MOV     R16, R22
    765                uchCRCHi = uchCRCLo ^ auchCRCHi[uchCRCHi ^ temp];
   \   00000208   ....               LDI     R30, LOW(auchCRCHi)
   \   0000020A   ....               LDI     R31, (auchCRCHi) >> 8
   \   0000020C   2762               EOR     R22, R18
   \   0000020E   0FE6               ADD     R30, R22
   \   00000210   1FF1               ADC     R31, R17
   \   00000212   9124               LPM     R18, Z
   \   00000214   2724               EOR     R18, R20
    766                uchCRCLo = auchCRCLo[uchCRCHi ^ temp];
   \   00000216   ....               LDI     R30, LOW(auchCRCLo)
   \   00000218   ....               LDI     R31, (auchCRCLo) >> 8
   \   0000021A   2702               EOR     R16, R18
   \   0000021C   0FE0               ADD     R30, R16
   \   0000021E   1FF1               ADC     R31, R17
   \   00000220   9144               LPM     R20, Z
    767                
    768                temp=Control.vol_try;
   \   00000222   01FD               MOVW    R31:R30, R27:R26
   \   00000224   A501               LDD     R16, Z+41
    769                uchCRCHi = uchCRCLo ^ auchCRCHi[uchCRCHi ^ temp];
   \   00000226   ....               LDI     R30, LOW(auchCRCHi)
   \   00000228   ....               LDI     R31, (auchCRCHi) >> 8
   \   0000022A   01B8               MOVW    R23:R22, R17:R16
   \   0000022C   2762               EOR     R22, R18
   \   0000022E   0FE6               ADD     R30, R22
   \   00000230   1FF1               ADC     R31, R17
   \   00000232   9124               LPM     R18, Z
   \   00000234   2724               EOR     R18, R20
    770                uchCRCLo = auchCRCLo[uchCRCHi ^ temp];
    771                temp=Control.vol_try>>8;
    772                uchCRCHi = uchCRCLo ^ auchCRCHi[uchCRCHi ^ temp];
   \   00000236   ....               LDI     R30, LOW(auchCRCLo)
   \   00000238   ....               LDI     R31, (auchCRCLo) >> 8
   \   0000023A   2702               EOR     R16, R18
   \   0000023C   0FE0               ADD     R30, R16
   \   0000023E   1FF1               ADC     R31, R17
   \   00000240   9104               LPM     R16, Z
   \   00000242   ....               LDI     R30, LOW(auchCRCHi)
   \   00000244   ....               LDI     R31, (auchCRCHi) >> 8
   \   00000246   0FE2               ADD     R30, R18
   \   00000248   1FF1               ADC     R31, R17
   \   0000024A   9144               LPM     R20, Z
   \   0000024C   2740               EOR     R20, R16
    773                uchCRCLo = auchCRCLo[uchCRCHi ^ temp];
    774                
    775                
    776                //!!!!!!!!!!!!!!!!!! dobavka
    777                temp=vol_cnt_no_link;
   \   0000024E   01FD               MOVW    R31:R30, R27:R26
   \   00000250   A900               LDD     R16, Z+48
   \   00000252   A911               LDD     R17, Z+49
   \   00000254   A922               LDD     R18, Z+50
   \   00000256   A933               LDD     R19, Z+51
   \   00000258   0108               MOVW    R1:R0, R17:R16
   \   0000025A   0119               MOVW    R3:R2, R19:R18
    778                uchCRCHi = uchCRCLo ^ auchCRCHi[uchCRCHi ^ temp];
   \   0000025C   E010               LDI     R17, 0
   \   0000025E   ....               LDI     R30, LOW(auchCRCLo)
   \   00000260   ....               LDI     R31, (auchCRCLo) >> 8
   \   00000262   0FE4               ADD     R30, R20
   \   00000264   1FF5               ADC     R31, R21
   \   00000266   9124               LPM     R18, Z
   \   00000268   ....               LDI     R30, LOW(auchCRCHi)
   \   0000026A   ....               LDI     R31, (auchCRCHi) >> 8
   \   0000026C   01B8               MOVW    R23:R22, R17:R16
   \   0000026E   2764               EOR     R22, R20
   \   00000270   0FE6               ADD     R30, R22
   \   00000272   1FF5               ADC     R31, R21
   \   00000274   9144               LPM     R20, Z
   \   00000276   2742               EOR     R20, R18
    779                uchCRCLo = auchCRCLo[uchCRCHi ^ temp];
   \   00000278   2F24               MOV     R18, R20
   \   0000027A   ....               LDI     R30, LOW(auchCRCLo)
   \   0000027C   ....               LDI     R31, (auchCRCLo) >> 8
   \   0000027E   2704               EOR     R16, R20
   \   00000280   0FE0               ADD     R30, R16
   \   00000282   1FF5               ADC     R31, R21
   \   00000284   9144               LPM     R20, Z
    780                temp=vol_cnt_no_link>>8;
   \   00000286   0180               MOVW    R17:R16, R1:R0
   \   00000288   2F01               MOV     R16, R17
    781                uchCRCHi = uchCRCLo ^ auchCRCHi[uchCRCHi ^ temp];
   \   0000028A   E010               LDI     R17, 0
   \   0000028C   ....               LDI     R30, LOW(auchCRCHi)
   \   0000028E   ....               LDI     R31, (auchCRCHi) >> 8
   \   00000290   01B8               MOVW    R23:R22, R17:R16
   \   00000292   2762               EOR     R22, R18
   \   00000294   0FE6               ADD     R30, R22
   \   00000296   1FF5               ADC     R31, R21
   \   00000298   9124               LPM     R18, Z
   \   0000029A   2724               EOR     R18, R20
   \   0000029C   2F42               MOV     R20, R18
    782                uchCRCLo = auchCRCLo[uchCRCHi ^ temp];
   \   0000029E   2F64               MOV     R22, R20
   \   000002A0   ....               LDI     R30, LOW(auchCRCLo)
   \   000002A2   ....               LDI     R31, (auchCRCLo) >> 8
   \   000002A4   2702               EOR     R16, R18
   \   000002A6   0FE0               ADD     R30, R16
   \   000002A8   1FF5               ADC     R31, R21
   \   000002AA   9144               LPM     R20, Z
    783                temp=vol_cnt_no_link>>16;
   \   000002AC   0191               MOVW    R19:R18, R3:R2
   \   000002AE   2F02               MOV     R16, R18
    784                uchCRCHi = uchCRCLo ^ auchCRCHi[uchCRCHi ^ temp];
   \   000002B0   ....               LDI     R30, LOW(auchCRCHi)
   \   000002B2   ....               LDI     R31, (auchCRCHi) >> 8
   \   000002B4   2726               EOR     R18, R22
   \   000002B6   0FE2               ADD     R30, R18
   \   000002B8   1FF5               ADC     R31, R21
   \   000002BA   9124               LPM     R18, Z
   \   000002BC   2724               EOR     R18, R20
    785                uchCRCLo = auchCRCLo[uchCRCHi ^ temp];
   \   000002BE   ....               LDI     R30, LOW(auchCRCLo)
   \   000002C0   ....               LDI     R31, (auchCRCLo) >> 8
   \   000002C2   2702               EOR     R16, R18
   \   000002C4   0FE0               ADD     R30, R16
   \   000002C6   1FF5               ADC     R31, R21
   \   000002C8   9144               LPM     R20, Z
    786                temp=vol_cnt_no_link>>24;
   \   000002CA   2C03               MOV     R0, R3
   \   000002CC   2D00               MOV     R16, R0
    787                uchCRCHi = uchCRCLo ^ auchCRCHi[uchCRCHi ^ temp];
   \   000002CE   ....               LDI     R30, LOW(auchCRCHi)
   \   000002D0   ....               LDI     R31, (auchCRCHi) >> 8
   \   000002D2   01B8               MOVW    R23:R22, R17:R16
   \   000002D4   2762               EOR     R22, R18
   \   000002D6   0FE6               ADD     R30, R22
   \   000002D8   1FF5               ADC     R31, R21
   \   000002DA   9124               LPM     R18, Z
   \   000002DC   2724               EOR     R18, R20
   \   000002DE   2F42               MOV     R20, R18
    788                uchCRCLo = auchCRCLo[uchCRCHi ^ temp];
   \   000002E0   2F64               MOV     R22, R20
   \   000002E2   ....               LDI     R30, LOW(auchCRCLo)
   \   000002E4   ....               LDI     R31, (auchCRCLo) >> 8
   \   000002E6   2702               EOR     R16, R18
   \   000002E8   0FE0               ADD     R30, R16
   \   000002EA   1FF5               ADC     R31, R21
   \   000002EC   9144               LPM     R20, Z
    789                
    790                temp=vol_cnt_link_res;
   \   000002EE   01FD               MOVW    R31:R30, R27:R26
   \   000002F0   A904               LDD     R16, Z+52
   \   000002F2   A915               LDD     R17, Z+53
   \   000002F4   A926               LDD     R18, Z+54
   \   000002F6   A937               LDD     R19, Z+55
   \   000002F8   0108               MOVW    R1:R0, R17:R16
   \   000002FA   0119               MOVW    R3:R2, R19:R18
    791                uchCRCHi = uchCRCLo ^ auchCRCHi[uchCRCHi ^ temp];
   \   000002FC   E010               LDI     R17, 0
   \   000002FE   ....               LDI     R30, LOW(auchCRCHi)
   \   00000300   ....               LDI     R31, (auchCRCHi) >> 8
   \   00000302   0198               MOVW    R19:R18, R17:R16
   \   00000304   2726               EOR     R18, R22
   \   00000306   0FE2               ADD     R30, R18
   \   00000308   1FF5               ADC     R31, R21
   \   0000030A   9124               LPM     R18, Z
   \   0000030C   2724               EOR     R18, R20
    792                uchCRCLo = auchCRCLo[uchCRCHi ^ temp];
   \   0000030E   ....               LDI     R30, LOW(auchCRCLo)
   \   00000310   ....               LDI     R31, (auchCRCLo) >> 8
   \   00000312   2702               EOR     R16, R18
   \   00000314   0FE0               ADD     R30, R16
   \   00000316   1FF5               ADC     R31, R21
   \   00000318   9144               LPM     R20, Z
    793                temp=vol_cnt_link_res>>8;
   \   0000031A   0180               MOVW    R17:R16, R1:R0
   \   0000031C   2F01               MOV     R16, R17
    794                uchCRCHi = uchCRCLo ^ auchCRCHi[uchCRCHi ^ temp];
   \   0000031E   E010               LDI     R17, 0
   \   00000320   ....               LDI     R30, LOW(auchCRCHi)
   \   00000322   ....               LDI     R31, (auchCRCHi) >> 8
   \   00000324   01B8               MOVW    R23:R22, R17:R16
   \   00000326   2762               EOR     R22, R18
   \   00000328   0FE6               ADD     R30, R22
   \   0000032A   1FF5               ADC     R31, R21
   \   0000032C   9124               LPM     R18, Z
   \   0000032E   2724               EOR     R18, R20
   \   00000330   2F42               MOV     R20, R18
    795                uchCRCLo = auchCRCLo[uchCRCHi ^ temp];
   \   00000332   2F64               MOV     R22, R20
   \   00000334   ....               LDI     R30, LOW(auchCRCLo)
   \   00000336   ....               LDI     R31, (auchCRCLo) >> 8
   \   00000338   2702               EOR     R16, R18
   \   0000033A   0FE0               ADD     R30, R16
   \   0000033C   1FF5               ADC     R31, R21
   \   0000033E   9144               LPM     R20, Z
    796                temp=vol_cnt_link_res>>16;
   \   00000340   0191               MOVW    R19:R18, R3:R2
   \   00000342   2F02               MOV     R16, R18
    797                uchCRCHi = uchCRCLo ^ auchCRCHi[uchCRCHi ^ temp];
   \   00000344   ....               LDI     R30, LOW(auchCRCHi)
   \   00000346   ....               LDI     R31, (auchCRCHi) >> 8
   \   00000348   0198               MOVW    R19:R18, R17:R16
   \   0000034A   2726               EOR     R18, R22
   \   0000034C   0FE2               ADD     R30, R18
   \   0000034E   1FF5               ADC     R31, R21
   \   00000350   9124               LPM     R18, Z
   \   00000352   2724               EOR     R18, R20
    798                uchCRCLo = auchCRCLo[uchCRCHi ^ temp];
   \   00000354   ....               LDI     R30, LOW(auchCRCLo)
   \   00000356   ....               LDI     R31, (auchCRCLo) >> 8
   \   00000358   2702               EOR     R16, R18
   \   0000035A   0FE0               ADD     R30, R16
   \   0000035C   1FF5               ADC     R31, R21
   \   0000035E   9144               LPM     R20, Z
    799                temp=vol_cnt_link_res>>24;
   \   00000360   2C03               MOV     R0, R3
   \   00000362   2D00               MOV     R16, R0
    800                uchCRCHi = uchCRCLo ^ auchCRCHi[uchCRCHi ^ temp];
   \   00000364   ....               LDI     R30, LOW(auchCRCHi)
   \   00000366   ....               LDI     R31, (auchCRCHi) >> 8
   \   00000368   01B8               MOVW    R23:R22, R17:R16
   \   0000036A   2762               EOR     R22, R18
   \   0000036C   0FE6               ADD     R30, R22
   \   0000036E   1FF5               ADC     R31, R21
   \   00000370   9124               LPM     R18, Z
   \   00000372   2724               EOR     R18, R20
   \   00000374   2F42               MOV     R20, R18
   \   00000376   01FD               MOVW    R31:R30, R27:R26
   \   00000378   96FE               ADIW    R31:R30, 62
   \   0000037A   8120               LD      R18, Z
   \   0000037C   ....               LDI     R30, LOW(auchCRCLo)
   \   0000037E   ....               LDI     R31, (auchCRCLo) >> 8
   \   00000380   2704               EOR     R16, R20
   \   00000382   0FE0               ADD     R30, R16
   \   00000384   1FF5               ADC     R31, R21
   \   00000386   9104               LPM     R16, Z
   \   00000388   ....               LDI     R30, LOW(auchCRCHi)
   \   0000038A   ....               LDI     R31, (auchCRCHi) >> 8
   \   0000038C   01B9               MOVW    R23:R22, R19:R18
   \   0000038E   2764               EOR     R22, R20
   \   00000390   0FE6               ADD     R30, R22
   \   00000392   1FF5               ADC     R31, R21
   \   00000394   9144               LPM     R20, Z
   \   00000396   2740               EOR     R20, R16
   \   00000398   9100....           LDS     R16, (struct_tcc1 + 4)
   \   0000039C   ....               LDI     R30, LOW(auchCRCLo)
   \   0000039E   ....               LDI     R31, (auchCRCLo) >> 8
   \   000003A0   2724               EOR     R18, R20
   \   000003A2   0FE2               ADD     R30, R18
   \   000003A4   1FF5               ADC     R31, R21
   \   000003A6   9124               LPM     R18, Z
   \   000003A8   ....               LDI     R30, LOW(auchCRCHi)
   \   000003AA   ....               LDI     R31, (auchCRCHi) >> 8
   \   000003AC   01B8               MOVW    R23:R22, R17:R16
   \   000003AE   2764               EOR     R22, R20
   \   000003B0   0FE6               ADD     R30, R22
   \   000003B2   1FF5               ADC     R31, R21
   \   000003B4   9144               LPM     R20, Z
   \   000003B6   2742               EOR     R20, R18
   \   000003B8   9120....           LDS     R18, (struct_tcc2 + 4)
   \   000003BC   ....               LDI     R30, LOW(auchCRCLo)
   \   000003BE   ....               LDI     R31, (auchCRCLo) >> 8
   \   000003C0   2704               EOR     R16, R20
   \   000003C2   0FE0               ADD     R30, R16
   \   000003C4   1FF5               ADC     R31, R21
   \   000003C6   9104               LPM     R16, Z
   \   000003C8   ....               LDI     R30, LOW(auchCRCHi)
   \   000003CA   ....               LDI     R31, (auchCRCHi) >> 8
   \   000003CC   01B9               MOVW    R23:R22, R19:R18
   \   000003CE   2764               EOR     R22, R20
   \   000003D0   0FE6               ADD     R30, R22
   \   000003D2   1FF5               ADC     R31, R21
   \   000003D4   9144               LPM     R20, Z
   \   000003D6   2740               EOR     R20, R16
    801                uchCRCLo = auchCRCLo[uchCRCHi ^ temp];
    802                //EEEEEEEEEEEEEEEEEEEEEEEEE dobavka
    803                
    804                uchCRCHi = uchCRCLo ^ auchCRCHi[uchCRCHi ^ Appl_seq_des];
    805                uchCRCLo = auchCRCLo[uchCRCHi ^ Appl_seq_des];
    806                
    807                uchCRCHi = uchCRCLo ^ auchCRCHi[uchCRCHi ^ struct_tcc1.type];
    808                uchCRCLo = auchCRCLo[uchCRCHi ^ struct_tcc1.type];
    809                
    810                uchCRCHi = uchCRCLo ^ auchCRCHi[uchCRCHi ^ struct_tcc2.type];
    811                uchCRCLo = auchCRCLo[uchCRCHi ^ struct_tcc2.type];
    812                
    813                
    814                temp=num_seq_cl;
   \   000003D8   01FD               MOVW    R31:R30, R27:R26
   \   000003DA   AD62               LDD     R22, Z+58
   \   000003DC   AD73               LDD     R23, Z+59
   \   000003DE   2F06               MOV     R16, R22
    815                uchCRCHi = uchCRCLo ^ auchCRCHi[uchCRCHi ^ temp];
   \   000003E0   ....               LDI     R30, LOW(auchCRCLo)
   \   000003E2   ....               LDI     R31, (auchCRCLo) >> 8
   \   000003E4   2724               EOR     R18, R20
   \   000003E6   0FE2               ADD     R30, R18
   \   000003E8   1FF5               ADC     R31, R21
   \   000003EA   9124               LPM     R18, Z
   \   000003EC   ....               LDI     R30, LOW(auchCRCHi)
   \   000003EE   ....               LDI     R31, (auchCRCHi) >> 8
   \   000003F0   0108               MOVW    R1:R0, R17:R16
   \   000003F2   2604               EOR     R0, R20
   \   000003F4   0DE0               ADD     R30, R0
   \   000003F6   1FF5               ADC     R31, R21
   \   000003F8   9144               LPM     R20, Z
   \   000003FA   2742               EOR     R20, R18
    816                uchCRCLo = auchCRCLo[uchCRCHi ^ temp];
   \   000003FC   2F24               MOV     R18, R20
   \   000003FE   ....               LDI     R30, LOW(auchCRCLo)
   \   00000400   ....               LDI     R31, (auchCRCLo) >> 8
   \   00000402   2704               EOR     R16, R20
   \   00000404   0FE0               ADD     R30, R16
   \   00000406   1FF5               ADC     R31, R21
   \   00000408   9144               LPM     R20, Z
    817                temp=num_seq_cl>>8;
   \   0000040A   2F67               MOV     R22, R23
   \   0000040C   2F06               MOV     R16, R22
    818                uchCRCHi = uchCRCLo ^ auchCRCHi[uchCRCHi ^ temp];
   \   0000040E   ....               LDI     R30, LOW(auchCRCHi)
   \   00000410   ....               LDI     R31, (auchCRCHi) >> 8
   \   00000412   2762               EOR     R22, R18
   \   00000414   0FE6               ADD     R30, R22
   \   00000416   1FF5               ADC     R31, R21
   \   00000418   9124               LPM     R18, Z
   \   0000041A   2724               EOR     R18, R20
    819                uchCRCLo = auchCRCLo[uchCRCHi ^ temp];
   \   0000041C   ....               LDI     R30, LOW(auchCRCLo)
   \   0000041E   ....               LDI     R31, (auchCRCLo) >> 8
   \   00000420   2702               EOR     R16, R18
   \   00000422   0FE0               ADD     R30, R16
   \   00000424   1FF5               ADC     R31, R21
   \   00000426   9144               LPM     R20, Z
    820                
    821                temp=Appl_seq.vol_tm_vzat;
   \   00000428   01FD               MOVW    R31:R30, R27:R26
   \   0000042A   8962               LDD     R22, Z+18
   \   0000042C   8973               LDD     R23, Z+19
   \   0000042E   2F06               MOV     R16, R22
    822                uchCRCHi = uchCRCLo ^ auchCRCHi[uchCRCHi ^ temp];
   \   00000430   ....               LDI     R30, LOW(auchCRCHi)
   \   00000432   ....               LDI     R31, (auchCRCHi) >> 8
   \   00000434   0108               MOVW    R1:R0, R17:R16
   \   00000436   2602               EOR     R0, R18
   \   00000438   0DE0               ADD     R30, R0
   \   0000043A   1FF5               ADC     R31, R21
   \   0000043C   9124               LPM     R18, Z
   \   0000043E   2724               EOR     R18, R20
    823                uchCRCLo = auchCRCLo[uchCRCHi ^ temp];
   \   00000440   ....               LDI     R30, LOW(auchCRCLo)
   \   00000442   ....               LDI     R31, (auchCRCLo) >> 8
   \   00000444   2702               EOR     R16, R18
   \   00000446   0FE0               ADD     R30, R16
   \   00000448   1FF5               ADC     R31, R21
   \   0000044A   9144               LPM     R20, Z
    824                temp=Appl_seq.vol_tm_vzat>>8;
   \   0000044C   2F67               MOV     R22, R23
   \   0000044E   2F06               MOV     R16, R22
    825                uchCRCHi = uchCRCLo ^ auchCRCHi[uchCRCHi ^ temp];
   \   00000450   ....               LDI     R30, LOW(auchCRCHi)
   \   00000452   ....               LDI     R31, (auchCRCHi) >> 8
   \   00000454   2762               EOR     R22, R18
   \   00000456   0FE6               ADD     R30, R22
   \   00000458   1FF5               ADC     R31, R21
   \   0000045A   9124               LPM     R18, Z
   \   0000045C   2724               EOR     R18, R20
    826                uchCRCLo = auchCRCLo[uchCRCHi ^ temp];
   \   0000045E   ....               LDI     R30, LOW(auchCRCLo)
   \   00000460   ....               LDI     R31, (auchCRCLo) >> 8
   \   00000462   2702               EOR     R16, R18
   \   00000464   0FE0               ADD     R30, R16
   \   00000466   1FF5               ADC     R31, R21
   \   00000468   9144               LPM     R20, Z
    827               
    828                temp=Appl_seq.vol_cntr_cl;
   \   0000046A   01FD               MOVW    R31:R30, R27:R26
   \   0000046C   8D60               LDD     R22, Z+24
   \   0000046E   8D71               LDD     R23, Z+25
   \   00000470   2F06               MOV     R16, R22
    829                uchCRCHi = uchCRCLo ^ auchCRCHi[uchCRCHi ^ temp];
   \   00000472   ....               LDI     R30, LOW(auchCRCHi)
   \   00000474   ....               LDI     R31, (auchCRCHi) >> 8
   \   00000476   0108               MOVW    R1:R0, R17:R16
   \   00000478   2602               EOR     R0, R18
   \   0000047A   0DE0               ADD     R30, R0
   \   0000047C   1FF5               ADC     R31, R21
   \   0000047E   9124               LPM     R18, Z
   \   00000480   2724               EOR     R18, R20
    830                uchCRCLo = auchCRCLo[uchCRCHi ^ temp];
   \   00000482   ....               LDI     R30, LOW(auchCRCLo)
   \   00000484   ....               LDI     R31, (auchCRCLo) >> 8
   \   00000486   2702               EOR     R16, R18
   \   00000488   0FE0               ADD     R30, R16
   \   0000048A   1FF5               ADC     R31, R21
   \   0000048C   9144               LPM     R20, Z
    831                temp=Appl_seq.vol_cntr_cl>>8;
   \   0000048E   2F67               MOV     R22, R23
   \   00000490   2F06               MOV     R16, R22
    832                uchCRCHi = uchCRCLo ^ auchCRCHi[uchCRCHi ^ temp];
   \   00000492   ....               LDI     R30, LOW(auchCRCHi)
   \   00000494   ....               LDI     R31, (auchCRCHi) >> 8
   \   00000496   2762               EOR     R22, R18
   \   00000498   0FE6               ADD     R30, R22
   \   0000049A   1FF5               ADC     R31, R21
   \   0000049C   9124               LPM     R18, Z
   \   0000049E   2724               EOR     R18, R20
    833                uchCRCLo = auchCRCLo[uchCRCHi ^ temp];
    834                
    835                return (uchCRCHi << 8  | uchCRCLo);
   \   000004A0   ....               LDI     R30, LOW(auchCRCLo)
   \   000004A2   ....               LDI     R31, (auchCRCLo) >> 8
   \   000004A4   2702               EOR     R16, R18
   \   000004A6   0FE0               ADD     R30, R16
   \   000004A8   1FF5               ADC     R31, R21
   \   000004AA   9104               LPM     R16, Z
   \   000004AC   2B12               OR      R17, R18
   \   000004AE   91A9               LD      R26, Y+
   \   000004B0   91B9               LD      R27, Y+
   \   000004B2   9508               RET
    836          
    837               } 
    838          
    839          

   \                                 In segment CODE, align 2, keep-with-next
    840          void load_rw_pdp(void)
   \                     load_rw_pdp:
    841          {
   \   00000000   ........           CALL    ?PROLOGUE8_L09
   \   00000004                      REQUIRE ?Register_R4_is_cg_reg
   \   00000004                      REQUIRE ?Register_R5_is_cg_reg
   \   00000004                      REQUIRE ?Register_R7_is_cg_reg
   \   00000004   97EF               SBIW    R29:R28, 63
   \   00000006   9727               SBIW    R29:R28, 7
    842           char buf[70];
    843           unsigned char i,j,temp;
    844           unsigned int kol;
    845           
    846           buf[69]=0;
   \   00000008   E000               LDI     R16, 0
   \   0000000A   01FE               MOVW    R31:R30, R29:R28
   \   0000000C   96FF               ADIW    R31:R30, 63
   \   0000000E   8306               STD     Z+6, R16
    847           
    848           if((MCUSR & 0x01)!=0x01)return;
   \   00000010   B704               IN      R16, 0x34
   \   00000012   2F10               MOV     R17, R16
   \   00000014   FF10               SBRS    R17, 0
   \   00000016   C01B               RJMP    ??load_rw_pdp_0
    849          
    850           if (e_rw_pdp!=0)return;
   \   00000018   E041               LDI     R20, 1
   \   0000001A   E050               LDI     R21, 0
   \   0000001C   ........           CALL    __eeget8_16
   \   00000020   2300               TST     R16
   \   00000022   F4A9               BRNE    ??load_rw_pdp_0
    851           RdFromFleshToArr(ABUF_C_GPRS,&buf[0],L_C_GPRS_MAX-2);                                                                     
   \   00000024   E34A               LDI     R20, 58
   \   00000026   E050               LDI     R21, 0
   \   00000028   019E               MOVW    R19:R18, R29:R28
   \   0000002A   E100               LDI     R16, 16
   \   0000002C   E217               LDI     R17, 39
   \   0000002E   ........           CALL    RdFromFleshToArr
    852           if(buf[0]!=0)
   \   00000032   8108               LD      R16, Y
   \   00000034   2300               TST     R16
   \   00000036   F031               BREQ    ??load_rw_pdp_1
    853             {
    854              j=0;
   \   00000038   E080               LDI     R24, 0
    855              kol=0;
    856              
    857                 temp=strlen(&buf[j]);
   \   0000003A   018E               MOVW    R17:R16, R29:R28
   \   0000003C   ........           CALL    strlen
    858                 if(temp>35){e_rw_pdp=0xff;return;}
   \   00000040   3204               CPI     R16, 36
   \   00000042   F050               BRCS    ??load_rw_pdp_2
   \                     ??load_rw_pdp_1:
   \   00000044   EF0F               LDI     R16, 255
   \   00000046   E041               LDI     R20, 1
   \   00000048   E050               LDI     R21, 0
   \   0000004A   ........           CALL    __eeput8_16
   \                     ??load_rw_pdp_0:
   \   0000004E   96EF               ADIW    R29:R28, 63
   \   00000050   9627               ADIW    R29:R28, 7
   \   00000052   E0E8               LDI     R30, 8
   \   00000054   ........           JMP     ?EPILOGUE_B8_L09
    859                 buf_tx_232[j]=temp;
   \                     ??load_rw_pdp_2:
   \   00000058   ....               LDI     R26, LOW(buf_tx_232)
   \   0000005A   ....               LDI     R27, (buf_tx_232) >> 8
   \   0000005C   930C               ST      X, R16
    860                 for(i=0;i<temp;i++) {buf_tx_232[j+1]=buf[j];j++;}
   \   0000005E   E010               LDI     R17, 0
   \   00000060   C00C               RJMP    ??load_rw_pdp_3
   \                     ??load_rw_pdp_4:
   \   00000062   2F28               MOV     R18, R24
   \   00000064   E030               LDI     R19, 0
   \   00000066   01FE               MOVW    R31:R30, R29:R28
   \   00000068   0FE2               ADD     R30, R18
   \   0000006A   1FF3               ADC     R31, R19
   \   0000006C   8140               LD      R20, Z
   \   0000006E   01FD               MOVW    R31:R30, R27:R26
   \   00000070   0FE2               ADD     R30, R18
   \   00000072   1FF3               ADC     R31, R19
   \   00000074   8341               STD     Z+1, R20
   \   00000076   9583               INC     R24
   \   00000078   9513               INC     R17
   \                     ??load_rw_pdp_3:
   \   0000007A   1710               CP      R17, R16
   \   0000007C   F390               BRCS    ??load_rw_pdp_4
    861                 kol=kol+temp;
   \   0000007E   2E40               MOV     R4, R16
   \   00000080   2455               CLR     R5
    862                 
    863                 j++;
   \   00000082   9583               INC     R24
    864                 temp=strlen(&buf[j]);
   \   00000084   2477               CLR     R7
   \   00000086   018E               MOVW    R17:R16, R29:R28
   \   00000088   0F08               ADD     R16, R24
   \   0000008A   1D15               ADC     R17, R5
   \   0000008C   ........           CALL    strlen
    865                 if(temp>15){e_rw_pdp=0xff;return;}
   \   00000090   3100               CPI     R16, 16
   \   00000092   F6C0               BRCC    ??load_rw_pdp_1
    866                 buf_tx_232[j]=temp;
   \   00000094   01FD               MOVW    R31:R30, R27:R26
   \   00000096   0FE8               ADD     R30, R24
   \   00000098   1DF5               ADC     R31, R5
   \   0000009A   8300               ST      Z, R16
    867                 for(i=0;i<temp;i++) {buf_tx_232[j+1]=buf[j];j++;}
   \   0000009C   E010               LDI     R17, 0
   \   0000009E   C00B               RJMP    ??load_rw_pdp_5
   \                     ??load_rw_pdp_6:
   \   000000A0   2F28               MOV     R18, R24
   \   000000A2   01FE               MOVW    R31:R30, R29:R28
   \   000000A4   0FE2               ADD     R30, R18
   \   000000A6   1DF5               ADC     R31, R5
   \   000000A8   8140               LD      R20, Z
   \   000000AA   01FD               MOVW    R31:R30, R27:R26
   \   000000AC   0FE2               ADD     R30, R18
   \   000000AE   1DF5               ADC     R31, R5
   \   000000B0   8341               STD     Z+1, R20
   \   000000B2   9583               INC     R24
   \   000000B4   9513               INC     R17
   \                     ??load_rw_pdp_5:
   \   000000B6   1710               CP      R17, R16
   \   000000B8   F398               BRCS    ??load_rw_pdp_6
    868                 kol=kol+temp;
   \   000000BA   0E40               ADD     R4, R16
   \   000000BC   1C55               ADC     R5, R5
    869              
    870                 j++;
   \   000000BE   9583               INC     R24
    871                 temp=strlen(&buf[j]);
   \   000000C0   018E               MOVW    R17:R16, R29:R28
   \   000000C2   0F08               ADD     R16, R24
   \   000000C4   1D17               ADC     R17, R7
   \   000000C6   ........           CALL    strlen
    872                 if(temp>15){e_rw_pdp=0xff;return;}
   \   000000CA   3100               CPI     R16, 16
   \   000000CC   F008               BRCS    $+2+2
   \   000000CE   CFBA               RJMP    ??load_rw_pdp_1
    873                 buf_tx_232[j]=temp;
   \   000000D0   01FD               MOVW    R31:R30, R27:R26
   \   000000D2   0FE8               ADD     R30, R24
   \   000000D4   1DF7               ADC     R31, R7
   \   000000D6   8300               ST      Z, R16
    874                 for(i=0;i<temp;i++) {buf_tx_232[j+1]=buf[j];j++;}
   \   000000D8   E010               LDI     R17, 0
   \   000000DA   C00B               RJMP    ??load_rw_pdp_7
   \                     ??load_rw_pdp_8:
   \   000000DC   2F28               MOV     R18, R24
   \   000000DE   01FE               MOVW    R31:R30, R29:R28
   \   000000E0   0FE2               ADD     R30, R18
   \   000000E2   1DF7               ADC     R31, R7
   \   000000E4   8140               LD      R20, Z
   \   000000E6   01FD               MOVW    R31:R30, R27:R26
   \   000000E8   0FE2               ADD     R30, R18
   \   000000EA   1DF7               ADC     R31, R7
   \   000000EC   8341               STD     Z+1, R20
   \   000000EE   9583               INC     R24
   \   000000F0   9513               INC     R17
   \                     ??load_rw_pdp_7:
   \   000000F2   1710               CP      R17, R16
   \   000000F4   F398               BRCS    ??load_rw_pdp_8
    875                 kol=kol+temp;
    876                 
    877                 kol=kol+3;      
    878                 if(kol>(L_C_GPRS_MAX-2)){e_rw_pdp=0xff;return;}
   \   000000F6   2FE0               MOV     R30, R16
   \   000000F8   E0F0               LDI     R31, 0
   \   000000FA   0DE4               ADD     R30, R4
   \   000000FC   1DF5               ADC     R31, R5
   \   000000FE   9633               ADIW    R31:R30, 3
   \   00000100   97FB               SBIW    R31:R30, 59
   \   00000102   F008               BRCS    $+2+2
   \   00000104   CF9F               RJMP    ??load_rw_pdp_1
    879                 
    880                 *(unsigned int*)&buf_tx_232[L_C_GPRS_MAX-2]=crc_m1(&buf_tx_232[0],L_C_GPRS_MAX-2,0xffff);
   \   00000106   EF4F               LDI     R20, 255
   \   00000108   EF5F               LDI     R21, 255
   \   0000010A   E32A               LDI     R18, 58
   \   0000010C   E030               LDI     R19, 0
   \   0000010E   018D               MOVW    R17:R16, R27:R26
   \   00000110   ....               RCALL   crc_m1
   \   00000112   01FD               MOVW    R31:R30, R27:R26
   \   00000114   AF02               STD     Z+58, R16
   \   00000116   AF13               STD     Z+59, R17
    881                 WrArrayToFlesh(A_C_GPRS, &buf_tx_232[0],L_C_GPRS_MAX,0,0);
   \   00000118   E070               LDI     R23, 0
   \   0000011A   E060               LDI     R22, 0
   \   0000011C   E34C               LDI     R20, 60
   \   0000011E   E050               LDI     R21, 0
   \   00000120   019D               MOVW    R19:R18, R27:R26
   \   00000122   E104               LDI     R16, 20
   \   00000124   E010               LDI     R17, 0
   \   00000126   ........           CALL    WrArrayToFlesh
   \   0000012A   CF8C               RJMP    ??load_rw_pdp_1
    882                 
    883             }
    884           e_rw_pdp=0xff;  
    885          } 
    886          
    887          
    888          

   \                                 In segment CODE, align 2, keep-with-next
    889          void load_rw_pdp_r(void)
   \                     load_rw_pdp_r:
    890          {
   \   00000000   ........           CALL    ?PROLOGUE8_L09
   \   00000004                      REQUIRE ?Register_R4_is_cg_reg
   \   00000004                      REQUIRE ?Register_R5_is_cg_reg
   \   00000004                      REQUIRE ?Register_R7_is_cg_reg
   \   00000004   97EF               SBIW    R29:R28, 63
   \   00000006   9727               SBIW    R29:R28, 7
    891           char buf[70];
    892           unsigned char i,j,temp;
    893           unsigned int kol;
    894           
    895           buf[69]=0;
   \   00000008   E000               LDI     R16, 0
   \   0000000A   01FE               MOVW    R31:R30, R29:R28
   \   0000000C   96FF               ADIW    R31:R30, 63
   \   0000000E   8306               STD     Z+6, R16
    896           
    897           if((MCUSR & 0x01)!=0x01)return;
   \   00000010   B704               IN      R16, 0x34
   \   00000012   2F10               MOV     R17, R16
   \   00000014   FF10               SBRS    R17, 0
   \   00000016   C01B               RJMP    ??load_rw_pdp_r_0
    898          
    899           if (e_rw_pdp_r!=0)return;
   \   00000018   E042               LDI     R20, 2
   \   0000001A   E050               LDI     R21, 0
   \   0000001C   ........           CALL    __eeget8_16
   \   00000020   2300               TST     R16
   \   00000022   F4A9               BRNE    ??load_rw_pdp_r_0
    900           RdFromFleshToArr(ABUF_CR_GPRS,&buf[0],L_CR_GPRS_MAX-2);                                                                     
   \   00000024   E34A               LDI     R20, 58
   \   00000026   E050               LDI     R21, 0
   \   00000028   019E               MOVW    R19:R18, R29:R28
   \   0000002A   E408               LDI     R16, 72
   \   0000002C   E216               LDI     R17, 38
   \   0000002E   ........           CALL    RdFromFleshToArr
    901           if(buf[0]!=0)
   \   00000032   8108               LD      R16, Y
   \   00000034   2300               TST     R16
   \   00000036   F031               BREQ    ??load_rw_pdp_r_1
    902             {
    903              j=0;
   \   00000038   E080               LDI     R24, 0
    904              kol=0;
    905              
    906                 temp=strlen(&buf[j]);
   \   0000003A   018E               MOVW    R17:R16, R29:R28
   \   0000003C   ........           CALL    strlen
    907                 if(temp>35){e_rw_pdp_r=0xff;return;}
   \   00000040   3204               CPI     R16, 36
   \   00000042   F050               BRCS    ??load_rw_pdp_r_2
   \                     ??load_rw_pdp_r_1:
   \   00000044   EF0F               LDI     R16, 255
   \   00000046   E042               LDI     R20, 2
   \   00000048   E050               LDI     R21, 0
   \   0000004A   ........           CALL    __eeput8_16
   \                     ??load_rw_pdp_r_0:
   \   0000004E   96EF               ADIW    R29:R28, 63
   \   00000050   9627               ADIW    R29:R28, 7
   \   00000052   E0E8               LDI     R30, 8
   \   00000054   ........           JMP     ?EPILOGUE_B8_L09
    908                 buf_tx_232[j]=temp;
   \                     ??load_rw_pdp_r_2:
   \   00000058   ....               LDI     R26, LOW(buf_tx_232)
   \   0000005A   ....               LDI     R27, (buf_tx_232) >> 8
   \   0000005C   930C               ST      X, R16
    909                 for(i=0;i<temp;i++) {buf_tx_232[j+1]=buf[j];j++;}
   \   0000005E   E010               LDI     R17, 0
   \   00000060   C00C               RJMP    ??load_rw_pdp_r_3
   \                     ??load_rw_pdp_r_4:
   \   00000062   2F28               MOV     R18, R24
   \   00000064   E030               LDI     R19, 0
   \   00000066   01FE               MOVW    R31:R30, R29:R28
   \   00000068   0FE2               ADD     R30, R18
   \   0000006A   1FF3               ADC     R31, R19
   \   0000006C   8140               LD      R20, Z
   \   0000006E   01FD               MOVW    R31:R30, R27:R26
   \   00000070   0FE2               ADD     R30, R18
   \   00000072   1FF3               ADC     R31, R19
   \   00000074   8341               STD     Z+1, R20
   \   00000076   9583               INC     R24
   \   00000078   9513               INC     R17
   \                     ??load_rw_pdp_r_3:
   \   0000007A   1710               CP      R17, R16
   \   0000007C   F390               BRCS    ??load_rw_pdp_r_4
    910                 kol=kol+temp;
   \   0000007E   2E40               MOV     R4, R16
   \   00000080   2455               CLR     R5
    911                 
    912                 j++;
   \   00000082   9583               INC     R24
    913                 temp=strlen(&buf[j]);
   \   00000084   2477               CLR     R7
   \   00000086   018E               MOVW    R17:R16, R29:R28
   \   00000088   0F08               ADD     R16, R24
   \   0000008A   1D15               ADC     R17, R5
   \   0000008C   ........           CALL    strlen
    914                 if(temp>15){e_rw_pdp_r=0xff;return;}
   \   00000090   3100               CPI     R16, 16
   \   00000092   F6C0               BRCC    ??load_rw_pdp_r_1
    915                 buf_tx_232[j]=temp;
   \   00000094   01FD               MOVW    R31:R30, R27:R26
   \   00000096   0FE8               ADD     R30, R24
   \   00000098   1DF5               ADC     R31, R5
   \   0000009A   8300               ST      Z, R16
    916                 for(i=0;i<temp;i++) {buf_tx_232[j+1]=buf[j];j++;}
   \   0000009C   E010               LDI     R17, 0
   \   0000009E   C00B               RJMP    ??load_rw_pdp_r_5
   \                     ??load_rw_pdp_r_6:
   \   000000A0   2F28               MOV     R18, R24
   \   000000A2   01FE               MOVW    R31:R30, R29:R28
   \   000000A4   0FE2               ADD     R30, R18
   \   000000A6   1DF5               ADC     R31, R5
   \   000000A8   8140               LD      R20, Z
   \   000000AA   01FD               MOVW    R31:R30, R27:R26
   \   000000AC   0FE2               ADD     R30, R18
   \   000000AE   1DF5               ADC     R31, R5
   \   000000B0   8341               STD     Z+1, R20
   \   000000B2   9583               INC     R24
   \   000000B4   9513               INC     R17
   \                     ??load_rw_pdp_r_5:
   \   000000B6   1710               CP      R17, R16
   \   000000B8   F398               BRCS    ??load_rw_pdp_r_6
    917                 kol=kol+temp;
   \   000000BA   0E40               ADD     R4, R16
   \   000000BC   1C55               ADC     R5, R5
    918              
    919                 j++;
   \   000000BE   9583               INC     R24
    920                 temp=strlen(&buf[j]);
   \   000000C0   018E               MOVW    R17:R16, R29:R28
   \   000000C2   0F08               ADD     R16, R24
   \   000000C4   1D17               ADC     R17, R7
   \   000000C6   ........           CALL    strlen
    921                 if(temp>15){e_rw_pdp_r=0xff;return;}
   \   000000CA   3100               CPI     R16, 16
   \   000000CC   F008               BRCS    $+2+2
   \   000000CE   CFBA               RJMP    ??load_rw_pdp_r_1
    922                 buf_tx_232[j]=temp;
   \   000000D0   01FD               MOVW    R31:R30, R27:R26
   \   000000D2   0FE8               ADD     R30, R24
   \   000000D4   1DF7               ADC     R31, R7
   \   000000D6   8300               ST      Z, R16
    923                 for(i=0;i<temp;i++) {buf_tx_232[j+1]=buf[j];j++;}
   \   000000D8   E010               LDI     R17, 0
   \   000000DA   C00B               RJMP    ??load_rw_pdp_r_7
   \                     ??load_rw_pdp_r_8:
   \   000000DC   2F28               MOV     R18, R24
   \   000000DE   01FE               MOVW    R31:R30, R29:R28
   \   000000E0   0FE2               ADD     R30, R18
   \   000000E2   1DF7               ADC     R31, R7
   \   000000E4   8140               LD      R20, Z
   \   000000E6   01FD               MOVW    R31:R30, R27:R26
   \   000000E8   0FE2               ADD     R30, R18
   \   000000EA   1DF7               ADC     R31, R7
   \   000000EC   8341               STD     Z+1, R20
   \   000000EE   9583               INC     R24
   \   000000F0   9513               INC     R17
   \                     ??load_rw_pdp_r_7:
   \   000000F2   1710               CP      R17, R16
   \   000000F4   F398               BRCS    ??load_rw_pdp_r_8
    924                 kol=kol+temp;
    925                 
    926                 kol=kol+3;      
    927                 if(kol>(L_CR_GPRS_MAX-2)){e_rw_pdp_r=0xff;return;}
   \   000000F6   2FE0               MOV     R30, R16
   \   000000F8   E0F0               LDI     R31, 0
   \   000000FA   0DE4               ADD     R30, R4
   \   000000FC   1DF5               ADC     R31, R5
   \   000000FE   9633               ADIW    R31:R30, 3
   \   00000100   97FB               SBIW    R31:R30, 59
   \   00000102   F008               BRCS    $+2+2
   \   00000104   CF9F               RJMP    ??load_rw_pdp_r_1
    928                 
    929                 *(unsigned int*)&buf_tx_232[L_C_GPRS_MAX-2]=crc_m1(&buf_tx_232[0],L_CR_GPRS_MAX-2,0xffff);
   \   00000106   EF4F               LDI     R20, 255
   \   00000108   EF5F               LDI     R21, 255
   \   0000010A   E32A               LDI     R18, 58
   \   0000010C   E030               LDI     R19, 0
   \   0000010E   018D               MOVW    R17:R16, R27:R26
   \   00000110   ....               RCALL   crc_m1
   \   00000112   01FD               MOVW    R31:R30, R27:R26
   \   00000114   AF02               STD     Z+58, R16
   \   00000116   AF13               STD     Z+59, R17
    930                 WrArrayToFlesh(A_CR_GPRS, &buf_tx_232[0],L_CR_GPRS_MAX,0,0);
   \   00000118   E070               LDI     R23, 0
   \   0000011A   E060               LDI     R22, 0
   \   0000011C   E34C               LDI     R20, 60
   \   0000011E   E050               LDI     R21, 0
   \   00000120   019D               MOVW    R19:R18, R27:R26
   \   00000122   E500               LDI     R16, 80
   \   00000124   E010               LDI     R17, 0
   \   00000126   ........           CALL    WrArrayToFlesh
   \   0000012A   CF8C               RJMP    ??load_rw_pdp_r_1
    931                 
    932             }
    933           e_rw_pdp_r=0xff;  
    934          } 
    935          
    936          
    937          
    938          

   \                                 In segment CODE, align 2, keep-with-next
    939          void load_par_from_memory(void)
   \                     load_par_from_memory:
    940          {
   \   00000000   ........           CALL    ?PROLOGUE8_L09
   \   00000004                      REQUIRE ?Register_R6_is_cg_reg
   \   00000004                      REQUIRE ?Register_R7_is_cg_reg
   \   00000004   9764               SBIW    R29:R28, 20
    941          unsigned char buf[20];
    942            
    943          
    944          RdFromFleshToArr(A_IP_PAR,&buf[0],L_IP_PAR);
   \   00000006   E04A               LDI     R20, 10
   \   00000008   E050               LDI     R21, 0
   \   0000000A   019E               MOVW    R19:R18, R29:R28
   \   0000000C   E80C               LDI     R16, 140
   \   0000000E   E010               LDI     R17, 0
   \   00000010   ........           CALL    RdFromFleshToArr
    945          if(*(unsigned int*)&buf[OFS_IP_PAR_CRC]!=crc_m1(&buf[0],L_IP_PAR-2,0xffff))
   \   00000014   ....               LDI     R26, LOW(Appl_seq)
   \   00000016   ....               LDI     R27, (Appl_seq) >> 8
   \   00000018   8588               LDD     R24, Y+8
   \   0000001A   8599               LDD     R25, Y+9
   \   0000001C   EF4F               LDI     R20, 255
   \   0000001E   EF5F               LDI     R21, 255
   \   00000020   E028               LDI     R18, 8
   \   00000022   E030               LDI     R19, 0
   \   00000024   018E               MOVW    R17:R16, R29:R28
   \   00000026   ....               RCALL   crc_m1
   \   00000028   1780               CP      R24, R16
   \   0000002A   0791               CPC     R25, R17
   \   0000002C   F099               BREQ    ??load_par_from_memory_0
    946            {
    947             
    948             ip_ls[0]=DEF_IP_SRV_0;
   \   0000002E   E508               LDI     R16, 88
   \   00000030   01FD               MOVW    R31:R30, R27:R26
   \   00000032   A704               STD     Z+44, R16
    949             ip_ls[1]=DEF_IP_SRV_1;
   \   00000034   E502               LDI     R16, 82
   \   00000036   A705               STD     Z+45, R16
    950             ip_ls[2]=DEF_IP_SRV_2;
   \   00000038   E405               LDI     R16, 69
   \   0000003A   A706               STD     Z+46, R16
    951             ip_ls[3]=DEF_IP_SRV_3;
   \   0000003C   EE04               LDI     R16, 228
   \   0000003E   A707               STD     Z+47, R16
    952             num_self=DEF_NUM_SELF;
   \   00000040   E002               LDI     R16, 2
   \   00000042   E010               LDI     R17, 0
   \   00000044   AF00               STD     Z+56, R16
   \   00000046   AF11               STD     Z+57, R17
    953             port_udp=DEF_UDP_PORT;
   \   00000048   EB0A               LDI     R16, 186
   \   0000004A   E113               LDI     R17, 19
   \   0000004C   96FC               ADIW    R31:R30, 60
   \   0000004E   8300               ST      Z, R16
   \   00000050   8311               STD     Z+1, R17
   \   00000052   C013               RJMP    ??load_par_from_memory_1
    954            }
    955            else
    956            {  
    957            
    958             ip_ls[0]=buf[OFS_IP];
   \                     ??load_par_from_memory_0:
   \   00000054   8108               LD      R16, Y
   \   00000056   01FD               MOVW    R31:R30, R27:R26
   \   00000058   A704               STD     Z+44, R16
    959             ip_ls[1]=buf[OFS_IP+1];
   \   0000005A   8109               LDD     R16, Y+1
   \   0000005C   A705               STD     Z+45, R16
    960             ip_ls[2]=buf[OFS_IP+2];
   \   0000005E   810A               LDD     R16, Y+2
   \   00000060   A706               STD     Z+46, R16
    961             ip_ls[3]=buf[OFS_IP+3];
   \   00000062   810B               LDD     R16, Y+3
   \   00000064   A707               STD     Z+47, R16
    962             port_udp=*(unsigned int*)&buf[OFS_PORT];
   \   00000066   810C               LDD     R16, Y+4
   \   00000068   811D               LDD     R17, Y+5
   \   0000006A   96FC               ADIW    R31:R30, 60
   \   0000006C   8300               ST      Z, R16
   \   0000006E   8311               STD     Z+1, R17
    963             num_self=*(unsigned int*)&buf[OFS_NUM];
   \   00000070   810E               LDD     R16, Y+6
   \   00000072   811F               LDD     R17, Y+7
   \   00000074   01FD               MOVW    R31:R30, R27:R26
   \   00000076   AF00               STD     Z+56, R16
   \   00000078   AF11               STD     Z+57, R17
    964            }
    965          
    966          
    967            
    968          RdFromFleshToArr(A_C_PAR,&buf[0],L_C_PAR);
   \                     ??load_par_from_memory_1:
   \   0000007A   E04E               LDI     R20, 14
   \   0000007C   E050               LDI     R21, 0
   \   0000007E   019E               MOVW    R19:R18, R29:R28
   \   00000080   E906               LDI     R16, 150
   \   00000082   E010               LDI     R17, 0
   \   00000084   ........           CALL    RdFromFleshToArr
    969          if(*(unsigned int*)&buf[OFS_C_PAR_CRC]!=crc_m1(&buf[0],L_C_PAR-2,0xffff))
   \   00000088   858C               LDD     R24, Y+12
   \   0000008A   859D               LDD     R25, Y+13
   \   0000008C   EF4F               LDI     R20, 255
   \   0000008E   EF5F               LDI     R21, 255
   \   00000090   E02C               LDI     R18, 12
   \   00000092   E030               LDI     R19, 0
   \   00000094   018E               MOVW    R17:R16, R29:R28
   \   00000096   ....               RCALL   crc_m1
   \   00000098   1780               CP      R24, R16
   \   0000009A   0791               CPC     R25, R17
   \   0000009C   F0F1               BREQ    ??load_par_from_memory_2
    970            {
    971            
    972             Control.vol_nat=DEF_CNTR_NAT;
   \   0000009E   E302               LDI     R16, 50
   \   000000A0   E010               LDI     R17, 0
   \   000000A2   01FD               MOVW    R31:R30, R27:R26
   \   000000A4   A304               STD     Z+36, R16
   \   000000A6   A315               STD     Z+37, R17
    973             Control.vol_nat_r=DEF_CNTR_NAT_R;
   \   000000A8   E20D               LDI     R16, 45
   \   000000AA   A702               STD     Z+42, R16
   \   000000AC   A713               STD     Z+43, R17
    974             Control.vol_link=DEF_CNTR_LINK;
   \   000000AE   E708               LDI     R16, 120
   \   000000B0   A302               STD     Z+34, R16
   \   000000B2   A313               STD     Z+35, R17
    975             Control.vol_waits=DEF_CNTR_LINK_WAITS;
   \   000000B4   E00C               LDI     R16, 12
   \   000000B6   A306               STD     Z+38, R16
   \   000000B8   A317               STD     Z+39, R17
    976             Control.vol_try=DEF_TM_CNTR_LINK/Control.vol_waits;  
   \   000000BA   E005               LDI     R16, 5
   \   000000BC   A701               STD     Z+41, R16
    977             
    978             vol_cnt_no_link=DEF_TM_NO_LINK * 60;  //dobavka
   \   000000BE   E508               LDI     R16, 88
   \   000000C0   E012               LDI     R17, 2
   \   000000C2   E020               LDI     R18, 0
   \   000000C4   AB00               STD     Z+48, R16
   \   000000C6   AB11               STD     Z+49, R17
   \   000000C8   AB22               STD     Z+50, R18
   \   000000CA   AB23               STD     Z+51, R18
    979             vol_cnt_link_res=DEF_TM_LINK_RES * 60;  //dobavka
   \   000000CC   E100               LDI     R16, 16
   \   000000CE   E01E               LDI     R17, 14
   \   000000D0   AB04               STD     Z+52, R16
   \   000000D2   AB15               STD     Z+53, R17
   \   000000D4   AB26               STD     Z+54, R18
   \   000000D6   AB27               STD     Z+55, R18
   \   000000D8   C02E               RJMP    ??load_par_from_memory_3
    980             
    981            }
    982            else
    983            {
    984             
    985             Control.vol_nat=*(unsigned int*)&buf[OFS_NAT];
   \                     ??load_par_from_memory_2:
   \   000000DA   8108               LD      R16, Y
   \   000000DC   8119               LDD     R17, Y+1
   \   000000DE   01FD               MOVW    R31:R30, R27:R26
   \   000000E0   A304               STD     Z+36, R16
   \   000000E2   A315               STD     Z+37, R17
    986             Control.vol_link=*(unsigned int*)&buf[OFS_CCH];
   \   000000E4   810A               LDD     R16, Y+2
   \   000000E6   811B               LDD     R17, Y+3
   \   000000E8   A302               STD     Z+34, R16
   \   000000EA   A313               STD     Z+35, R17
    987             Control.vol_waits=DEF_CNTR_LINK_WAITS;
   \   000000EC   E00C               LDI     R16, 12
   \   000000EE   E010               LDI     R17, 0
   \   000000F0   A306               STD     Z+38, R16
   \   000000F2   A317               STD     Z+39, R17
    988             Control.vol_try=*(unsigned int*)&buf[OFS_TM_CH]/Control.vol_waits;
   \   000000F4   810C               LDD     R16, Y+4
   \   000000F6   811D               LDD     R17, Y+5
   \   000000F8   E04C               LDI     R20, 12
   \   000000FA   E050               LDI     R21, 0
   \   000000FC   ........           CALL    ?US_DIVMOD_L02
   \   00000100   01FD               MOVW    R31:R30, R27:R26
   \   00000102   A701               STD     Z+41, R16
    989             
    990             vol_cnt_no_link=*(unsigned int*)&buf[OFS_TM_NO_LINK]*60;   //dobavka
   \   00000104   814E               LDD     R20, Y+6
   \   00000106   815F               LDD     R21, Y+7
   \   00000108   E30C               LDI     R16, 60
   \   0000010A   E010               LDI     R17, 0
   \   0000010C   ........           CALL    ?S_EC_MUL_L02
   \   00000110   E020               LDI     R18, 0
   \   00000112   AB00               STD     Z+48, R16
   \   00000114   AB11               STD     Z+49, R17
   \   00000116   AB22               STD     Z+50, R18
   \   00000118   AB23               STD     Z+51, R18
    991             vol_cnt_link_res=*(unsigned int*)&buf[OFS_TM_LINK_RES]*60; //dobavka
   \   0000011A   8548               LDD     R20, Y+8
   \   0000011C   8559               LDD     R21, Y+9
   \   0000011E   E30C               LDI     R16, 60
   \   00000120   E010               LDI     R17, 0
   \   00000122   ........           CALL    ?S_EC_MUL_L02
   \   00000126   AB04               STD     Z+52, R16
   \   00000128   AB15               STD     Z+53, R17
   \   0000012A   AB26               STD     Z+54, R18
   \   0000012C   AB27               STD     Z+55, R18
    992             
    993             Control.vol_nat_r=*(unsigned int*)&buf[OFS_NAT_R];
   \   0000012E   850A               LDD     R16, Y+10
   \   00000130   851B               LDD     R17, Y+11
   \   00000132   A702               STD     Z+42, R16
   \   00000134   A713               STD     Z+43, R17
    994            }
    995          
    996          
    997          
    998          RdFromFleshToArr(A_SEQ_PAR,&buf[0],L_SEQ_PAR);
   \                     ??load_par_from_memory_3:
   \   00000136   E04B               LDI     R20, 11
   \   00000138   E050               LDI     R21, 0
   \   0000013A   019E               MOVW    R19:R18, R29:R28
   \   0000013C   EA04               LDI     R16, 164
   \   0000013E   E010               LDI     R17, 0
   \   00000140   ........           CALL    RdFromFleshToArr
    999          if(*(unsigned int*)&buf[OFS_SEQ_PAR_CRC]!=crc_m1(&buf[0],L_SEQ_PAR-2,0xffff))
   \   00000144   ....               LDI     R24, LOW(struct_tcc1)
   \   00000146   ....               LDI     R25, (struct_tcc1) >> 8
   \   00000148   8469               LDD     R6, Y+9
   \   0000014A   847A               LDD     R7, Y+10
   \   0000014C   EF4F               LDI     R20, 255
   \   0000014E   EF5F               LDI     R21, 255
   \   00000150   E029               LDI     R18, 9
   \   00000152   E030               LDI     R19, 0
   \   00000154   018E               MOVW    R17:R16, R29:R28
   \   00000156   ....               RCALL   crc_m1
   \   00000158   1660               CP      R6, R16
   \   0000015A   0671               CPC     R7, R17
   \   0000015C   F099               BREQ    ??load_par_from_memory_4
   1000            {
   1001             
   1002             Appl_seq_des=~DEF_DES_SEQ;
   \   0000015E   EF0E               LDI     R16, 254
   \   00000160   01FD               MOVW    R31:R30, R27:R26
   \   00000162   96FE               ADIW    R31:R30, 62
   \   00000164   8300               ST      Z, R16
   1003             num_seq_cl=DEF_NUM_DST_SEQ;
   \   00000166   EF0F               LDI     R16, 255
   \   00000168   01FD               MOVW    R31:R30, R27:R26
   \   0000016A   AF02               STD     Z+58, R16
   \   0000016C   AF03               STD     Z+59, R16
   1004             Appl_seq.vol_tm_vzat=DEF_VOL_TM_VZAT;
   \   0000016E   E10E               LDI     R16, 30
   \   00000170   E010               LDI     R17, 0
   \   00000172   8B02               STD     Z+18, R16
   \   00000174   8B13               STD     Z+19, R17
   1005             Appl_seq.vol_cntr_cl=DEF_TM_CNTR_CL;
   \   00000176   E00A               LDI     R16, 10
   \   00000178   8F00               STD     Z+24, R16
   \   0000017A   8F11               STD     Z+25, R17
   1006             struct_tcc1.type=DEF_TP_TS1;
   \   0000017C   E001               LDI     R16, 1
   \   0000017E   01FC               MOVW    R31:R30, R25:R24
   \   00000180   8304               STD     Z+4, R16
   1007             struct_tcc2.type=DEF_TP_TS1;
   \   00000182   C015               RJMP    ??load_par_from_memory_5
   1008            }
   1009            else
   1010            {
   1011           
   1012            Appl_seq_des=buf[OFS_DES_SEQ];
   \                     ??load_par_from_memory_4:
   \   00000184   8108               LD      R16, Y
   \   00000186   01FD               MOVW    R31:R30, R27:R26
   \   00000188   96FE               ADIW    R31:R30, 62
   \   0000018A   8300               ST      Z, R16
   1013            num_seq_cl=*(unsigned int*)&buf[OFS_NUM_CL];
   \   0000018C   8109               LDD     R16, Y+1
   \   0000018E   811A               LDD     R17, Y+2
   \   00000190   01FD               MOVW    R31:R30, R27:R26
   \   00000192   AF02               STD     Z+58, R16
   \   00000194   AF13               STD     Z+59, R17
   1014            Appl_seq.vol_tm_vzat=*(unsigned int*)&buf[OFS_TM_VZ];
   \   00000196   810B               LDD     R16, Y+3
   \   00000198   811C               LDD     R17, Y+4
   \   0000019A   8B02               STD     Z+18, R16
   \   0000019C   8B13               STD     Z+19, R17
   1015            Appl_seq.vol_cntr_cl=*(unsigned int*)&buf[OFS_TM_CL];
   \   0000019E   810D               LDD     R16, Y+5
   \   000001A0   811E               LDD     R17, Y+6
   \   000001A2   8F00               STD     Z+24, R16
   \   000001A4   8F11               STD     Z+25, R17
   1016            struct_tcc1.type=buf[OFS_TP_TS];
   \   000001A6   810F               LDD     R16, Y+7
   \   000001A8   01FC               MOVW    R31:R30, R25:R24
   \   000001AA   8304               STD     Z+4, R16
   1017            struct_tcc2.type=buf[OFS_TP_TS+1];
   \   000001AC   8508               LDD     R16, Y+8
   \                     ??load_par_from_memory_5:
   \   000001AE   ....               LDI     R30, LOW(struct_tcc2)
   \   000001B0   ....               LDI     R31, (struct_tcc2) >> 8
   \   000001B2   8304               STD     Z+4, R16
   1018            }
   1019           
   1020          }
   \   000001B4   9664               ADIW    R29:R28, 20
   \   000001B6   E0E8               LDI     R30, 8
   \   000001B8   ........           JMP     ?EPILOGUE_B8_L09
   1021          
   1022          

   \                                 In segment CODE, align 2, keep-with-next
   1023          void start_func_stm_off(void)
   \                     start_func_stm_off:
   1024          {
   1025            S2_OFF;
   \   00000000   9840               CBI     0x08, 0x00
   \   00000002   9841               CBI     0x08, 0x01
   1026            
   1027            if(Regim!=RG_DEBAG){S3_OFF;S4_OFF;S5_OFF;}
   \   00000004   9100....           LDS     R16, Regim
   \   00000008   3001               CPI     R16, 1
   \   0000000A   F031               BREQ    ??start_func_stm_off_0
   \   0000000C   9844               CBI     0x08, 0x04
   \   0000000E   9845               CBI     0x08, 0x05
   \   00000010   9842               CBI     0x08, 0x02
   \   00000012   9843               CBI     0x08, 0x03
   \   00000014   9846               CBI     0x08, 0x06
   \   00000016   9847               CBI     0x08, 0x07
   1028            
   1029            state_led_md=LED_MD_OFF;
   \                     ??start_func_stm_off_0:
   \   00000018   E001               LDI     R16, 1
   \   0000001A   9300....           STS     state_led_md, R16
   1030            command_AT=TRUE;// âęëţ÷ĺí ęîěěŕíäíűé đĺćčě
   \   0000001E   ....               LDI     R30, LOW(Appl_RS485_1)
   \   00000020   ....               LDI     R31, (Appl_RS485_1) >> 8
   \   00000022   AB04               STD     Z+52, R16
   1031            CLR_PWR;
   \   00000024   91000105           LDS     R16, 261
   \   00000028   7B0F               ANDI    R16, 0xBF
   \   0000002A   93000105           STS     261, R16
   1032            CLR_PWRK;
   \   0000002E   982C               CBI     0x05, 0x04
   1033            state_modem=STM_OFF;
   \   00000030   E00A               LDI     R16, 10
   \   00000032   AB02               STD     Z+50, R16
   1034            cnt_stm_tm1=DEF_TM_STM_OFF;
   \   00000034   E003               LDI     R16, 3
   \   00000036   AB05               STD     Z+53, R16
   1035            event_modem=EVM_NONE;
   \   00000038   E000               LDI     R16, 0
   \   0000003A   AB03               STD     Z+51, R16
   1036            write_log_info(ST_MODEM,MDM_OFF);
   \   0000003C   E015               LDI     R17, 5
   \   0000003E   E003               LDI     R16, 3
   \   00000040   ........           CALL    write_log_info
   1037            send_info(sizeof(stm_pwr_off),stm_pwr_off,0,0);
   \   00000044   E040               LDI     R20, 0
   \   00000046   E010               LDI     R17, 0
   \   00000048   ....               LDI     R18, LOW(stm_pwr_off)
   \   0000004A   ....               LDI     R19, (stm_pwr_off) >> 8
   \   0000004C   E00B               LDI     R16, 11
   \   0000004E   ........           CALL    send_info
   1038          }   
   \   00000052   9508               RET
   1039          
   1040          

   \                                 In segment CODE, align 2, keep-with-next
   1041          void start_func_stm_on(void)
   \                     start_func_stm_on:
   1042          {
   \   00000000   93BA               ST      -Y, R27
   \   00000002   93AA               ST      -Y, R26
   1043            S2_OFF;
   \   00000004   9840               CBI     0x08, 0x00
   \   00000006   9841               CBI     0x08, 0x01
   1044            
   1045            if(Regim!=RG_DEBAG){S3_OFF;S4_OFF;S5_OFF;}
   \   00000008   9100....           LDS     R16, Regim
   \   0000000C   3001               CPI     R16, 1
   \   0000000E   F031               BREQ    ??start_func_stm_on_0
   \   00000010   9844               CBI     0x08, 0x04
   \   00000012   9845               CBI     0x08, 0x05
   \   00000014   9842               CBI     0x08, 0x02
   \   00000016   9843               CBI     0x08, 0x03
   \   00000018   9846               CBI     0x08, 0x06
   \   0000001A   9847               CBI     0x08, 0x07
   1046           
   1047              //!!!! dobavka
   1048            if(Fl_ch_sim==1)
   \                     ??start_func_stm_on_0:
   \   0000001C   ....               LDI     R26, LOW(Appl_RS485_1)
   \   0000001E   ....               LDI     R27, (Appl_RS485_1) >> 8
   \   00000020   01FD               MOVW    R31:R30, R27:R26
   \   00000022   A906               LDD     R16, Z+54
   \   00000024   3001               CPI     R16, 1
   \   00000026   F4D1               BRNE    ??start_func_stm_on_1
   1049            {
   1050              Fl_ch_sim=0;
   \   00000028   E000               LDI     R16, 0
   \   0000002A   AB06               STD     Z+54, R16
   1051              simka=simka^SIM_TRIG;
   \   0000002C   E001               LDI     R16, 1
   \   0000002E   ....               LDI     R30, LOW(simka)
   \   00000030   ....               LDI     R31, (simka) >> 8
   \   00000032   8110               LD      R17, Z
   \   00000034   2710               EOR     R17, R16
   \   00000036   8310               ST      Z, R17
   1052              cnt_no_link=vol_cnt_no_link;
   \   00000038   ....               LDI     R30, LOW(Appl_seq)
   \   0000003A   ....               LDI     R31, (Appl_seq) >> 8
   \   0000003C   A900               LDD     R16, Z+48
   \   0000003E   A911               LDD     R17, Z+49
   \   00000040   A922               LDD     R18, Z+50
   \   00000042   A933               LDD     R19, Z+51
   \   00000044   ....               LDI     R30, LOW(cnt_no_link)
   \   00000046   ....               LDI     R31, (cnt_no_link) >> 8
   \   00000048   8300               ST      Z, R16
   \   0000004A   8311               STD     Z+1, R17
   \   0000004C   8322               STD     Z+2, R18
   \   0000004E   8333               STD     Z+3, R19
   1053              cnt_link_res=0;    
   \   00000050   E000               LDI     R16, 0
   \   00000052   01FD               MOVW    R31:R30, R27:R26
   \   00000054   A306               STD     Z+38, R16
   \   00000056   A307               STD     Z+39, R16
   \   00000058   A700               STD     Z+40, R16
   \   0000005A   A701               STD     Z+41, R16
   1054            }
   1055            simka=simka & 0x01; 
   \                     ??start_func_stm_on_1:
   \   0000005C   ....               LDI     R30, LOW(simka)
   \   0000005E   ....               LDI     R31, (simka) >> 8
   \   00000060   8100               LD      R16, Z
   \   00000062   7001               ANDI    R16, 0x01
   \   00000064   9300....           STS     simka, R16
   1056            if(simka==SIM_BASE)
   \   00000068   9100....           LDS     R16, simka
   \   0000006C   2300               TST     R16
   \   0000006E   91000105           LDS     R16, 261
   \   00000072   F491               BRNE    ??start_func_stm_on_2
   1057              {
   1058                 
   1059                 SET_SIM1;
   \   00000074   7E0F               ANDI    R16, 0xEF
   \   00000076   93000105           STS     261, R16
   \   0000007A   91000105           LDS     R16, 261
   \   0000007E   6200               ORI     R16, 0x20
   \   00000080   93000105           STS     261, R16
   1060                 write_log_info(ST_MODEM,BASE_SIM);
   \   00000084   E016               LDI     R17, 6
   \   00000086   E003               LDI     R16, 3
   \   00000088   ........           CALL    write_log_info
   1061                 send_info(sizeof(stm_base_sim),stm_base_sim,0,0);   
   \   0000008C   E040               LDI     R20, 0
   \   0000008E   E010               LDI     R17, 0
   \   00000090   ....               LDI     R18, LOW((stm_pwr_on + 10))
   \   00000092   ....               LDI     R19, HIGH((stm_pwr_on + 10))
   \   00000094   E00C               LDI     R16, 12
   \   00000096   C011               RJMP    ??start_func_stm_on_3
   1062              }else
   1063              {
   1064                SET_SIM2;
   \                     ??start_func_stm_on_2:
   \   00000098   7D0F               ANDI    R16, 0xDF
   \   0000009A   93000105           STS     261, R16
   \   0000009E   91000105           LDS     R16, 261
   \   000000A2   6100               ORI     R16, 0x10
   \   000000A4   93000105           STS     261, R16
   1065                write_log_info(ST_MODEM,RES_SIM);
   \   000000A8   E017               LDI     R17, 7
   \   000000AA   E003               LDI     R16, 3
   \   000000AC   ........           CALL    write_log_info
   1066                send_info(sizeof(stm_res_sim),stm_res_sim,0,0);  
   \   000000B0   E040               LDI     R20, 0
   \   000000B2   E010               LDI     R17, 0
   \   000000B4   ....               LDI     R18, LOW((stm_pwr_on + 22))
   \   000000B6   ....               LDI     R19, HIGH((stm_pwr_on + 22))
   \   000000B8   E00B               LDI     R16, 11
   \                     ??start_func_stm_on_3:
   \   000000BA   ........           CALL    send_info
   1067              }
   1068            ///EEEEEEEEEEEE dobavka
   1069            
   1070          
   1071            state_led_md=LED_MD_NO_CREG;
   \   000000BE   E002               LDI     R16, 2
   \   000000C0   9300....           STS     state_led_md, R16
   1072            command_AT=TRUE;// âęëţ÷ĺí ęîěěŕíäíűé đĺćčě
   \   000000C4   E001               LDI     R16, 1
   \   000000C6   01FD               MOVW    R31:R30, R27:R26
   \   000000C8   AB04               STD     Z+52, R16
   1073            SET_RTS0;
   \   000000CA   9872               CBI     0x0E, 0x02
   1074            SET_PWR;
   \   000000CC   91000105           LDS     R16, 261
   \   000000D0   6400               ORI     R16, 0x40
   \   000000D2   93000105           STS     261, R16
   1075            CLR_PWRK;
   \   000000D6   982C               CBI     0x05, 0x04
   1076            state_modem=STM_ON;
   \   000000D8   E001               LDI     R16, 1
   \   000000DA   AB02               STD     Z+50, R16
   1077            cnt_stm_tm1=DEF_TM_STM_ON;
   \   000000DC   E004               LDI     R16, 4
   \   000000DE   AB05               STD     Z+53, R16
   1078            event_modem=EVM_NONE; 
   \   000000E0   E000               LDI     R16, 0
   \   000000E2   AB03               STD     Z+51, R16
   1079            // write_log_info(ST_MODEM,MDM_ON);
   1080            send_info(sizeof(stm_pwr_on),stm_pwr_on,0,0);    //ot dobavka   
   \   000000E4   E040               LDI     R20, 0
   \   000000E6   E010               LDI     R17, 0
   \   000000E8   ....               LDI     R18, LOW(stm_pwr_on)
   \   000000EA   ....               LDI     R19, (stm_pwr_on) >> 8
   \   000000EC   E00A               LDI     R16, 10
   \   000000EE   ........           CALL    send_info
   1081          }  
   \   000000F2   91A9               LD      R26, Y+
   \   000000F4   91B9               LD      R27, Y+
   \   000000F6   9508               RET
   1082          

   \                                 In segment CODE, align 2, keep-with-next
   1083          void start_func_stm_kon(void)
   \                     start_func_stm_kon:
   1084          { 
   1085            SET_PWRK;
   \   00000000   9A2C               SBI     0x05, 0x04
   1086            state_modem=STM_KON;
   \   00000002   ....               LDI     R30, LOW(Appl_RS485_1)
   \   00000004   ....               LDI     R31, (Appl_RS485_1) >> 8
   \   00000006   E002               LDI     R16, 2
   \   00000008   AB02               STD     Z+50, R16
   1087            cnt_stm_tm1=DEF_TM_STM_KON;
   \   0000000A   E003               LDI     R16, 3
   \   0000000C   AB05               STD     Z+53, R16
   1088            event_modem=EVM_NONE; 
   \   0000000E   E000               LDI     R16, 0
   \   00000010   AB03               STD     Z+51, R16
   1089           
   1090          }  
   \   00000012   9508               RET
   1091          

   \                                 In segment CODE, align 2, keep-with-next
   1092          void start_func_stm_pwk(void)
   \                     start_func_stm_pwk:
   1093          { 
   1094            CLR_PWRK
   \   00000000   982C               CBI     0x05, 0x04
   1095            state_modem=STM_PWK;
   \   00000002   ....               LDI     R30, LOW(Appl_RS485_1)
   \   00000004   ....               LDI     R31, (Appl_RS485_1) >> 8
   \   00000006   E003               LDI     R16, 3
   \   00000008   AB02               STD     Z+50, R16
   1096            cnt_stm_tm1=DEF_TM_STM_PWK;
   \   0000000A   E001               LDI     R16, 1
   \   0000000C   AB05               STD     Z+53, R16
   1097            event_modem=EVM_NONE;
   \   0000000E   E000               LDI     R16, 0
   \   00000010   AB03               STD     Z+51, R16
   1098            send_info(sizeof(stm_pwr_kon),stm_pwr_kon,0,0);
   \   00000012   E040               LDI     R20, 0
   \   00000014   E010               LDI     R17, 0
   \   00000016   ....               LDI     R18, LOW(stm_pwr_kon)
   \   00000018   ....               LDI     R19, (stm_pwr_kon) >> 8
   \   0000001A   E00B               LDI     R16, 11
   \   0000001C   ........           CALL    send_info
   1099          }  
   \   00000020   9508               RET
   1100          
   1101          
   1102          

   \                                 In segment CODE, align 2, keep-with-next
   1103          void start_func_stm_scp(void)
   \                     start_func_stm_scp:
   1104          {
   \   00000000   93BA               ST      -Y, R27
   \   00000002   93AA               ST      -Y, R26
   1105             unsigned char temp;
   1106             clr_var_ppp_rx();
   \   00000004   ....               RCALL   clr_var_ppp_rx
   1107          
   1108             UCSR0B=UCSR0B & ~RXEN;
   \   00000006   910000C1           LDS     R16, 193
   \   0000000A   7E0F               ANDI    R16, 0xEF
   \   0000000C   930000C1           STS     193, R16
   1109             UCSR0B=UCSR0B & ~RXCIE;
   \   00000010   910000C1           LDS     R16, 193
   \   00000014   770F               ANDI    R16, 0x7F
   \   00000016   930000C1           STS     193, R16
   1110           
   1111           //******************************************************************
   1112             //UCSR0B=UCSR0B & ~TXEN;  !!!!!!
   1113             
   1114             UCSR0A=UCSR0A | TXC;
   \   0000001A   910000C0           LDS     R16, 192
   \   0000001E   6400               ORI     R16, 0x40
   \   00000020   930000C0           STS     192, R16
   1115           
   1116             command_AT=FALSE;// âűęëţ÷ĺí ęîěěŕíäíűé đĺćčě
   \   00000024   ....               LDI     R26, LOW(Appl_RS485_1)
   \   00000026   ....               LDI     R27, (Appl_RS485_1) >> 8
   \   00000028   E000               LDI     R16, 0
   \   0000002A   01FD               MOVW    R31:R30, R27:R26
   \   0000002C   AB04               STD     Z+52, R16
   1117           
   1118             clr_var_ppp();
   \   0000002E   ....               RCALL   clr_var_ppp
   1119            
   1120             count_tx_ppp=0; 
   \   00000030   E000               LDI     R16, 0
   \   00000032   E010               LDI     R17, 0
   \   00000034   01FD               MOVW    R31:R30, R27:R26
   \   00000036   A706               STD     Z+46, R16
   \   00000038   A707               STD     Z+47, R16
   1121           // äë˙ ŕęňčâŕöčč óńňŕíîâęč ńîĺäčíĺíč˙ PPP 
   1122            //!!!!!!!!!!!!!!!!!!!!!!!!!!!!!!!!!!!!!!!!!!!!!!!
   1123            
   1124            fl_lcp1.up=1;
   1125            fl_lcp1.down=0;
   \   0000003A   9100....           LDS     R16, fl_lcp1
   \   0000003E   7F0D               ANDI    R16, 0xFD
   \   00000040   6001               ORI     R16, 0x01
   \   00000042   9300....           STS     fl_lcp1, R16
   1126           //ęîíôčăóđŕöč˙ ńîĺäčíĺíč˙  
   1127           
   1128            //ęîíôčăóđŕöč˙ ęŕíŕëŕ
   1129            
   1130            layer_PPP=LAYER_LCP;
   \   00000046   E001               LDI     R16, 1
   \   00000048   96FD               ADIW    R31:R30, 61
   \   0000004A   8300               ST      Z, R16
   1131            LCP_state=START_ST; 
   \   0000004C   9300....           STS     LCP_state, R16
   1132            
   1133            IPCP_event=NO_EVENT;
   \   00000050   EF0F               LDI     R16, 255
   \   00000052   9300....           STS     IPCP_event, R16
   1134            LCP_event=NO_EVENT;
   \   00000056   9300....           STS     LCP_event, R16
   1135            PAP_event=NO_EVENT;
   \   0000005A   9300....           STS     PAP_event, R16
   1136           
   1137            uk_in_act_IPCP=0;
   \   0000005E   9310....           STS     uk_in_act_IPCP, R17
   1138            uk_out_act_IPCP=0;
   \   00000062   9310....           STS     uk_out_act_IPCP, R17
   1139            
   1140            uk_in_act_LCP=0;
   \   00000066   9310....           STS     uk_in_act_LCP, R17
   1141            uk_out_act_LCP=0;
   \   0000006A   9310....           STS     uk_out_act_LCP, R17
   1142            
   1143            cnt_lcp_tm_out=VOL_LCP_TM_OUT;
   \   0000006E   EB08               LDI     R16, 184
   \   00000070   E01B               LDI     R17, 11
   \   00000072   ....               LDI     R30, LOW(cnt_lcp_tm_out)
   \   00000074   ....               LDI     R31, (cnt_lcp_tm_out) >> 8
   \   00000076   8300               ST      Z, R16
   \   00000078   8311               STD     Z+1, R17
   1144            fl_lcp.act_lcp_end=1;           //äĺéńňâč˙ âńĺ çŕęîí÷ĺíű
   \   0000007A   ....               LDI     R30, LOW(fl_lcp)
   \   0000007C   ....               LDI     R31, (fl_lcp) >> 8
   \   0000007E   8100               LD      R16, Z
   \   00000080   6001               ORI     R16, 0x01
   \   00000082   8300               ST      Z, R16
   1145            fl_pap.act_pap_end=1;     
   \   00000084   ....               LDI     R30, LOW(fl_pap)
   \   00000086   ....               LDI     R31, (fl_pap) >> 8
   \   00000088   8100               LD      R16, Z
   \   0000008A   6001               ORI     R16, 0x01
   \   0000008C   8300               ST      Z, R16
   1146            fl_ipcp.act_ipcp_end=1;
   \   0000008E   ....               LDI     R30, LOW(fl_ipcp)
   \   00000090   ....               LDI     R31, (fl_ipcp) >> 8
   \   00000092   8100               LD      R16, Z
   \   00000094   6001               ORI     R16, 0x01
   \   00000096   8300               ST      Z, R16
   1147            fl_ip.act_ip_end=1;
   \   00000098   ....               LDI     R30, LOW(fl_ip)
   \   0000009A   ....               LDI     R31, (fl_ip) >> 8
   \   0000009C   8100               LD      R16, Z
   \   0000009E   6001               ORI     R16, 0x01
   \   000000A0   8300               ST      Z, R16
   1148            //!!!!!!!!!!!!!!!!!!!!!!!!!!!!!!!!!!!!!!!!!!!!!!!  
   1149            
   1150            UCSR0B=UCSR0B | RXEN; 
   \   000000A2   910000C1           LDS     R16, 193
   \   000000A6   6100               ORI     R16, 0x10
   \   000000A8   930000C1           STS     193, R16
   1151            temp=UDR0;
   \   000000AC   910000C6           LDS     R16, 198
   1152            UCSR0B=UCSR0B | RXCIE;  
   \   000000B0   910000C1           LDS     R16, 193
   \   000000B4   6800               ORI     R16, 0x80
   \   000000B6   930000C1           STS     193, R16
   1153            
   1154            cnt_stm_tm1=DEF_TM_STM_SCP; 
   \   000000BA   E10E               LDI     R16, 30
   \   000000BC   01FD               MOVW    R31:R30, R27:R26
   \   000000BE   AB05               STD     Z+53, R16
   1155          }     
   \   000000C0   91A9               LD      R26, Y+
   \   000000C2   91B9               LD      R27, Y+
   \   000000C4   9508               RET
   1156          
   1157          
   1158          
   1159          
   1160          
   1161          
   1162          
   1163          
   1164          
   1165           //ďîäăîňîâęŕ áóôĺđŕ ę îňďđŕâęĺ ďî PPP 
   1166           

   \                                 In segment CODE, align 2, keep-with-next
   1167          void form_buf_tx_ppp(void) 
   \                     form_buf_tx_ppp:
   1168          {   
   \   00000000   ........           CALL    ?PROLOGUE6_L09
   \   00000004                      REQUIRE ?Register_R4_is_cg_reg
   \   00000004                      REQUIRE ?Register_R5_is_cg_reg
   \   00000004   9722               SBIW    R29:R28, 2
   1169          unsigned int i;
   1170          unsigned char nopp,j;     
   1171          unsigned char *pointer; 
   1172          union
   1173           {
   1174           unsigned char bytes[2]; 
   1175           unsigned int word;
   1176           } temp;
   1177          
   1178           
   1179           buf_tx_232[PPP_BEG]=0x7e;               
   \   00000006   ....               LDI     R26, LOW(buf_tx_232)
   \   00000008   ....               LDI     R27, (buf_tx_232) >> 8
   \   0000000A   E70E               LDI     R16, 126
   \   0000000C   930C               ST      X, R16
   1180           buf_tx_232[PPP_PROT]=0x21;
   \   0000000E   E201               LDI     R16, 33
   \   00000010   01FD               MOVW    R31:R30, R27:R26
   \   00000012   8301               STD     Z+1, R16
   1181                            
   1182                     //çŕăîëîâîę IP
   1183            buf_tx_232[IP_VLEN]=0x45;               
   \   00000014   E405               LDI     R16, 69
   \   00000016   8302               STD     Z+2, R16
   1184            buf_tx_232[IP_TYPE]=0;               
   \   00000018   E000               LDI     R16, 0
   \   0000001A   8303               STD     Z+3, R16
   1185            
   1186             
   1187            
   1188            //îáůŕ˙ äëčíŕ IP 
   1189            //20 -IP
   1190            //8 -UDP
   1191            //12 - Çŕăîëîâîę Äŕííűő
   1192            //+ Äëčíŕ áóôĺđŕ îďöčé
   1193            //+ Çŕďîëíčňĺëü
   1194            //+ Äëčíŕ äŕííűő
   1195            nopp=0;
   \   0000001C   2444               CLR     R4
   1196            
   1197            // Đŕń÷ĺň çŕďîëíčňĺë˙
   1198            if(Obj_ppp_tx.prozr==FALSE)
   \   0000001E   ....               LDI     R24, LOW(Obj_ppp_tx)
   \   00000020   ....               LDI     R25, (Obj_ppp_tx) >> 8
   \   00000022   01FC               MOVW    R31:R30, R25:R24
   \   00000024   8100               LD      R16, Z
   \   00000026   2300               TST     R16
   \   00000028   F4E9               BRNE    ??form_buf_tx_ppp_0
   1199            {
   1200             if((Obj_ppp_tx.l_opt<=4)&&(Obj_ppp_tx.l_opt>0))nopp=4-Obj_ppp_tx.l_opt;   
   \   0000002A   8502               LDD     R16, Z+10
   \   0000002C   3005               CPI     R16, 5
   \   0000002E   F428               BRCC    ??form_buf_tx_ppp_1
   \   00000030   2300               TST     R16
   \   00000032   F019               BREQ    ??form_buf_tx_ppp_1
   \   00000034   E014               LDI     R17, 4
   \   00000036   2E41               MOV     R4, R17
   \   00000038   1A40               SUB     R4, R16
   1201             if(Obj_ppp_tx.l_opt%4!=0) nopp=4-Obj_ppp_tx.l_opt%4;
   \                     ??form_buf_tx_ppp_1:
   \   0000003A   2F10               MOV     R17, R16
   \   0000003C   7013               ANDI    R17, 0x03
   \   0000003E   F019               BREQ    ??form_buf_tx_ppp_2
   \   00000040   E024               LDI     R18, 4
   \   00000042   2E42               MOV     R4, R18
   \   00000044   1A41               SUB     R4, R17
   1202             temp.word=20+8+12+Obj_ppp_tx.l_opt+nopp+Obj_ppp_tx.l_data;
   \                     ??form_buf_tx_ppp_2:
   \   00000046   2F20               MOV     R18, R16
   \   00000048   E030               LDI     R19, 0
   \   0000004A   2D04               MOV     R16, R4
   \   0000004C   E010               LDI     R17, 0
   \   0000004E   0F02               ADD     R16, R18
   \   00000050   1F13               ADC     R17, R19
   \   00000052   5D08               SUBI    R16, 216
   \   00000054   4F1F               SBCI    R17, 255
   \   00000056   8526               LDD     R18, Z+14
   \   00000058   8537               LDD     R19, Z+15
   \   0000005A   0F20               ADD     R18, R16
   \   0000005C   1F31               ADC     R19, R17
   \   0000005E   8328               ST      Y, R18
   \   00000060   8339               STD     Y+1, R19
   \   00000062   C006               RJMP    ??form_buf_tx_ppp_3
   1203            }else temp.word=20+8+Obj_ppp_tx.l_data;
   \                     ??form_buf_tx_ppp_0:
   \   00000064   8506               LDD     R16, Z+14
   \   00000066   8517               LDD     R17, Z+15
   \   00000068   5E04               SUBI    R16, 228
   \   0000006A   4F1F               SBCI    R17, 255
   \   0000006C   8308               ST      Y, R16
   \   0000006E   8319               STD     Y+1, R17
   1204             
   1205            buf_tx_232[IP_LN]=temp.bytes[1]; //äëčíŕ IP ďŕęĺňŕ         ///////////////!!!!!!!!!!!!!!!!!      
   \                     ??form_buf_tx_ppp_3:
   \   00000070   8109               LDD     R16, Y+1
   \   00000072   01FD               MOVW    R31:R30, R27:R26
   \   00000074   8304               STD     Z+4, R16
   1206            buf_tx_232[IP_LN+1]=temp.bytes[0];                         ///////////////!!!!!!!!!!!!!!!!!
   \   00000076   8108               LD      R16, Y
   \   00000078   8305               STD     Z+5, R16
   1207                
   1208            buf_tx_232[IP_ID]=0;               
   \   0000007A   E000               LDI     R16, 0
   \   0000007C   8306               STD     Z+6, R16
   1209            buf_tx_232[IP_ID+1]=0;
   \   0000007E   8307               STD     Z+7, R16
   1210            
   1211            buf_tx_232[IP_FUK]=0;               
   \   00000080   8700               STD     Z+8, R16
   1212            buf_tx_232[IP_FUK+1]=0; 
   \   00000082   8701               STD     Z+9, R16
   1213            buf_tx_232[IP_TIME]=0x80;    
   \   00000084   E800               LDI     R16, 128
   \   00000086   8702               STD     Z+10, R16
   1214            buf_tx_232[IP_PROT]=0x11;     //UDP
   \   00000088   E101               LDI     R16, 17
   \   0000008A   8703               STD     Z+11, R16
   1215            
   1216           // buf_tx_232[IP_CRC]=0;     
   1217           // buf_tx_232[IP_CRC+1]=0; //IP - CRC
   1218            *(unsigned int*)&buf_tx_232[IP_CRC]=0;
   \   0000008C   E000               LDI     R16, 0
   \   0000008E   8704               STD     Z+12, R16
   \   00000090   8705               STD     Z+13, R16
   1219               
   1220            buf_tx_232[IP_SRC]=ip_self[0];
   \   00000092   ....               LDI     R30, LOW(Appl_RS485_1)
   \   00000094   ....               LDI     R31, (Appl_RS485_1) >> 8
   \   00000096   A502               LDD     R16, Z+42
   \   00000098   01FD               MOVW    R31:R30, R27:R26
   \   0000009A   8706               STD     Z+14, R16
   1221            buf_tx_232[IP_SRC+1]=ip_self[1]; 
   \   0000009C   ....               LDI     R30, LOW(Appl_RS485_1)
   \   0000009E   ....               LDI     R31, (Appl_RS485_1) >> 8
   \   000000A0   A503               LDD     R16, Z+43
   \   000000A2   01FD               MOVW    R31:R30, R27:R26
   \   000000A4   8707               STD     Z+15, R16
   1222            buf_tx_232[IP_SRC+2]=ip_self[2];    
   \   000000A6   ....               LDI     R30, LOW(Appl_RS485_1)
   \   000000A8   ....               LDI     R31, (Appl_RS485_1) >> 8
   \   000000AA   A504               LDD     R16, Z+44
   \   000000AC   01FD               MOVW    R31:R30, R27:R26
   \   000000AE   8B00               STD     Z+16, R16
   1223            buf_tx_232[IP_SRC+3]=ip_self[3];
   \   000000B0   ....               LDI     R30, LOW(Appl_RS485_1)
   \   000000B2   ....               LDI     R31, (Appl_RS485_1) >> 8
   \   000000B4   A505               LDD     R16, Z+45
   \   000000B6   01FD               MOVW    R31:R30, R27:R26
   \   000000B8   8B01               STD     Z+17, R16
   1224            
   1225            buf_tx_232[IP_DST]=ip_ls[0]; 
   \   000000BA   ....               LDI     R16, LOW(Appl_seq)
   \   000000BC   ....               LDI     R17, (Appl_seq) >> 8
   \   000000BE   01F8               MOVW    R31:R30, R17:R16
   \   000000C0   A524               LDD     R18, Z+44
   \   000000C2   01FD               MOVW    R31:R30, R27:R26
   \   000000C4   8B22               STD     Z+18, R18
   1226            buf_tx_232[IP_DST+1]=ip_ls[1];    
   \   000000C6   01F8               MOVW    R31:R30, R17:R16
   \   000000C8   A525               LDD     R18, Z+45
   \   000000CA   01FD               MOVW    R31:R30, R27:R26
   \   000000CC   8B23               STD     Z+19, R18
   1227            buf_tx_232[IP_DST+2]=ip_ls[2]; 
   \   000000CE   01F8               MOVW    R31:R30, R17:R16
   \   000000D0   A526               LDD     R18, Z+46
   \   000000D2   01FD               MOVW    R31:R30, R27:R26
   \   000000D4   8B24               STD     Z+20, R18
   1228            buf_tx_232[IP_DST+3]=ip_ls[3];    
   \   000000D6   01F8               MOVW    R31:R30, R17:R16
   \   000000D8   A527               LDD     R18, Z+47
   \   000000DA   01FD               MOVW    R31:R30, R27:R26
   \   000000DC   8B25               STD     Z+21, R18
   1229                                          
   1230           // buf_tx_232[18]=read_eeprom(ADR_IP_SRV);
   1231           // buf_tx_232[19]=read_eeprom(ADR_IP_SRV+1);
   1232           // buf_tx_232[20]=read_eeprom(ADR_IP_SRV+2);
   1233            //buf_tx_232[21]=read_eeprom(ADR_IP_SRV+3);
   1234                           
   1235                                           
   1236           //çŕăîëîâîę UDP
   1237            //buf_tx_232[22]=UDP_PORT_H;
   1238            //buf_tx_232[23]=UDP_PORT_L;
   1239            //buf_tx_232[24]=UDP_PORT_H;
   1240            //buf_tx_232[25]=UDP_PORT_L;       
   1241            /*
   1242            buf_tx_232[UDP_PSRC]=read_eeprom(ADR_UDP_PORT_HI);
   1243            buf_tx_232[UDP_PSRC+1]=read_eeprom(ADR_UDP_PORT_LO);
   1244            buf_tx_232[UDP_PDST]=read_eeprom(ADR_UDP_PORT_HI);
   1245            buf_tx_232[UDP_PDST+1]=read_eeprom(ADR_UDP_PORT_LO);
   1246            */
   1247            buf_tx_232[UDP_PSRC]=port_udp>>8;
   \   000000DE   5C04               SUBI    R16, 196
   \   000000E0   4F1F               SBCI    R17, 255
   \   000000E2   01F8               MOVW    R31:R30, R17:R16
   \   000000E4   8120               LD      R18, Z
   \   000000E6   8131               LDD     R19, Z+1
   \   000000E8   01FD               MOVW    R31:R30, R27:R26
   \   000000EA   8B36               STD     Z+22, R19
   1248            buf_tx_232[UDP_PSRC+1]=port_udp;
   \   000000EC   8B27               STD     Z+23, R18
   1249            buf_tx_232[UDP_PDST]=port_udp>>8;
   \   000000EE   8F30               STD     Z+24, R19
   1250            buf_tx_232[UDP_PDST+1]=port_udp;
   \   000000F0   8F21               STD     Z+25, R18
   1251            
   1252            
   1253              //îáůŕ˙ äëčíŕ UDP 
   1254            
   1255           // 8 -UDP
   1256           // 12 - Çŕăîëîâîę Äŕííűő
   1257           // + Äëčíŕ áóôĺđŕ îďöčé
   1258           // + Çŕďîëíčňĺëü
   1259           // + Äëčíŕ äŕííűő
   1260             
   1261           
   1262             temp.word=temp.word-20;
   \   000000F2   8108               LD      R16, Y
   \   000000F4   8119               LDD     R17, Y+1
   \   000000F6   5104               SUBI    R16, 20
   \   000000F8   4010               SBCI    R17, 0
   \   000000FA   8308               ST      Y, R16
   \   000000FC   8319               STD     Y+1, R17
   1263            
   1264            buf_tx_232[UDP_LN]=temp.bytes[1]; ///////////////äëčíŕ UDP 
   \   000000FE   8109               LDD     R16, Y+1
   \   00000100   8F02               STD     Z+26, R16
   1265            buf_tx_232[UDP_LN+1]=temp.bytes[0];        ////////////   
   \   00000102   8108               LD      R16, Y
   \   00000104   8F03               STD     Z+27, R16
   1266              
   1267            //buf_tx_232[UDP_CRC]=0;        //ŃRŃ UDP ďŕęĺňŕ
   1268            //buf_tx_232[UDP_CRC+1]=0;
   1269            *(unsigned int*)&buf_tx_232[UDP_CRC]=0; 
   \   00000106   E000               LDI     R16, 0
   \   00000108   8F04               STD     Z+28, R16
   \   0000010A   8F05               STD     Z+29, R16
   1270              
   1271           if(Obj_ppp_tx.prozr==FALSE)
   \   0000010C   01FC               MOVW    R31:R30, R25:R24
   \   0000010E   8100               LD      R16, Z
   \   00000110   2300               TST     R16
   \   00000112   F009               BREQ    $+2+2
   \   00000114   C08D               RJMP    ??form_buf_tx_ppp_4
   1272            {  
   1273           //Ňđŕíńďîđňíűé çŕăîëîâîę
   1274           //buf_tx_232[30]=0;        //CRC
   1275           //buf_tx_232[31]=0; 
   1276           //*(unsigned int*)&buf_tx_232[TR_CRC]=0;
   1277                                       
   1278           temp.word=temp.word-8;                             
   \   00000116   8108               LD      R16, Y
   \   00000118   8119               LDD     R17, Y+1
   \   0000011A   5008               SUBI    R16, 8
   \   0000011C   4010               SBCI    R17, 0
   \   0000011E   8308               ST      Y, R16
   \   00000120   8319               STD     Y+1, R17
   1279           //buf_tx_232[32]=temp.bytes[1];        //ďîëíŕ˙ äëčíŕ
   1280           //buf_tx_232[33]=temp.bytes[0];                 
   1281           *(unsigned int*)&buf_tx_232[TR_LEN]=temp.word;
   \   00000122   8108               LD      R16, Y
   \   00000124   8119               LDD     R17, Y+1
   \   00000126   01FD               MOVW    R31:R30, R27:R26
   \   00000128   A300               STD     Z+32, R16
   \   0000012A   A311               STD     Z+33, R17
   1282           
   1283          // buf_tx_232[34]=0;        //řčôđ
   1284          // buf_tx_232[35]=0;              
   1285           
   1286            *(unsigned int*)&buf_tx_232[TR_KOD]=0;        
   \   0000012C   E000               LDI     R16, 0
   \   0000012E   A302               STD     Z+34, R16
   \   00000130   A303               STD     Z+35, R16
   1287                    
   1288           buf_tx_232[TR_V]=Obj_ppp_tx.version;                                     //âĺđńč˙
   1289           buf_tx_232[TR_V]=(buf_tx_232[TR_V]<<2) | Obj_ppp_tx.type_pac;              // ňčď
   1290           buf_tx_232[TR_V]=(buf_tx_232[TR_V]<<4) | ((12+Obj_ppp_tx.l_opt+nopp)/4);   // äëčíŕ ňđŕńďîđňíîăî çŕăîëîâęŕ
   \   00000132   01FC               MOVW    R31:R30, R25:R24
   \   00000134   8111               LDD     R17, Z+1
   \   00000136   0F11               LSL     R17
   \   00000138   0F11               LSL     R17
   \   0000013A   8102               LDD     R16, Z+2
   \   0000013C   2B01               OR      R16, R17
   \   0000013E   9502               SWAP    R16
   \   00000140   7F00               ANDI    R16, 0xF0
   \   00000142   2E50               MOV     R5, R16
   \   00000144   8522               LDD     R18, Z+10
   \   00000146   E030               LDI     R19, 0
   \   00000148   2D04               MOV     R16, R4
   \   0000014A   E010               LDI     R17, 0
   \   0000014C   0F02               ADD     R16, R18
   \   0000014E   1F13               ADC     R17, R19
   \   00000150   5F04               SUBI    R16, 244
   \   00000152   4F1F               SBCI    R17, 255
   \   00000154   E044               LDI     R20, 4
   \   00000156   E050               LDI     R21, 0
   \   00000158   ........           CALL    ?SS_DIVMOD_L02
   \   0000015C   2905               OR      R16, R5
   \   0000015E   01FD               MOVW    R31:R30, R27:R26
   \   00000160   A304               STD     Z+36, R16
   1291              
   1292           
   1293           buf_tx_232[TR_ID]=Obj_ppp_tx.id_pac; 
   \   00000162   01FC               MOVW    R31:R30, R25:R24
   \   00000164   8107               LDD     R16, Z+7
   \   00000166   01FD               MOVW    R31:R30, R27:R26
   \   00000168   A305               STD     Z+37, R16
   1294           
   1295             *(unsigned int*)&buf_tx_232[TR_SRC]=Obj_ppp_tx.num_src;   //íîěĺđ îňďđŕâčňĺë˙
   \   0000016A   01FC               MOVW    R31:R30, R25:R24
   \   0000016C   8103               LDD     R16, Z+3
   \   0000016E   8114               LDD     R17, Z+4
   \   00000170   01FD               MOVW    R31:R30, R27:R26
   \   00000172   8F06               STD     Z+30, R16
   \   00000174   8F17               STD     Z+31, R17
   1296             *(unsigned int*)&buf_tx_232[TR_DST]=Obj_ppp_tx.num_dst;   //íîěĺđ ďîëó÷ŕňĺë˙ 
   \   00000176   01FC               MOVW    R31:R30, R25:R24
   \   00000178   8105               LDD     R16, Z+5
   \   0000017A   8116               LDD     R17, Z+6
   \   0000017C   01FD               MOVW    R31:R30, R27:R26
   \   0000017E   A700               STD     Z+40, R16
   \   00000180   A711               STD     Z+41, R17
   1297           
   1298                     
   1299           pointer=&buf_tx_232[TR_OP_DATA];         
   \   00000182   018D               MOVW    R17:R16, R27:R26
   \   00000184   5D06               SUBI    R16, 214
   \   00000186   4F1F               SBCI    R17, 255
   1300            
   1301           //Çŕáčâęŕ îďöčč č çŕďîëíčňĺë˙
   1302           if(Obj_ppp_tx.l_opt!=0)
   \   00000188   01FC               MOVW    R31:R30, R25:R24
   \   0000018A   8522               LDD     R18, Z+10
   \   0000018C   2322               TST     R18
   \   0000018E   F0F9               BREQ    ??form_buf_tx_ppp_5
   1303           {
   1304            for(j=0;j<Obj_ppp_tx.l_opt;j++)
   \   00000190   E040               LDI     R20, 0
   \   00000192   C00F               RJMP    ??form_buf_tx_ppp_6
   1305                {
   1306                 *pointer=*Obj_ppp_tx.p_opt;
   \                     ??form_buf_tx_ppp_7:
   \   00000194   8520               LDD     R18, Z+8
   \   00000196   8531               LDD     R19, Z+9
   \   00000198   01F9               MOVW    R31:R30, R19:R18
   \   0000019A   8120               LD      R18, Z
   \   0000019C   01F8               MOVW    R31:R30, R17:R16
   \   0000019E   9321               ST      Z+, R18
   \   000001A0   018F               MOVW    R17:R16, R31:R30
   1307                 pointer++;
   1308                 Obj_ppp_tx.p_opt++;
   \   000001A2   01FC               MOVW    R31:R30, R25:R24
   \   000001A4   8520               LDD     R18, Z+8
   \   000001A6   8531               LDD     R19, Z+9
   \   000001A8   5F2F               SUBI    R18, 255
   \   000001AA   4F3F               SBCI    R19, 255
   \   000001AC   8720               STD     Z+8, R18
   \   000001AE   8731               STD     Z+9, R19
   1309                }   
   \   000001B0   9543               INC     R20
   \                     ??form_buf_tx_ppp_6:
   \   000001B2   8522               LDD     R18, Z+10
   \   000001B4   1742               CP      R20, R18
   \   000001B6   F370               BRCS    ??form_buf_tx_ppp_7
   1310            if(nopp!=0)
   \   000001B8   2044               TST     R4
   \   000001BA   F049               BREQ    ??form_buf_tx_ppp_5
   1311               for(j=0;j<nopp;j++)
   \   000001BC   E040               LDI     R20, 0
   \   000001BE   C005               RJMP    ??form_buf_tx_ppp_8
   1312                  {
   1313                  *pointer=NOPPER;
   \                     ??form_buf_tx_ppp_9:
   \   000001C0   E020               LDI     R18, 0
   \   000001C2   01F8               MOVW    R31:R30, R17:R16
   \   000001C4   9321               ST      Z+, R18
   \   000001C6   018F               MOVW    R17:R16, R31:R30
   1314                  pointer++; 
   1315                  }     
   \   000001C8   9543               INC     R20
   \                     ??form_buf_tx_ppp_8:
   \   000001CA   1544               CP      R20, R4
   \   000001CC   F3C8               BRCS    ??form_buf_tx_ppp_9
   1316           }
   1317             
   1318           //Çŕáčâęŕ äŕííűő   
   1319           for(i=0;i<Obj_ppp_tx.l_data;i++)
   \                     ??form_buf_tx_ppp_5:
   \   000001CE   2444               CLR     R4
   \   000001D0   2455               CLR     R5
   \   000001D2   C012               RJMP    ??form_buf_tx_ppp_10
   1320               {
   1321                 *pointer=*Obj_ppp_tx.p_data;
   \                     ??form_buf_tx_ppp_11:
   \   000001D4   8524               LDD     R18, Z+12
   \   000001D6   8535               LDD     R19, Z+13
   \   000001D8   01F9               MOVW    R31:R30, R19:R18
   \   000001DA   8120               LD      R18, Z
   \   000001DC   01F8               MOVW    R31:R30, R17:R16
   \   000001DE   9321               ST      Z+, R18
   \   000001E0   018F               MOVW    R17:R16, R31:R30
   1322                 pointer++;
   1323                 Obj_ppp_tx.p_data++;
   \   000001E2   01FC               MOVW    R31:R30, R25:R24
   \   000001E4   8524               LDD     R18, Z+12
   \   000001E6   8535               LDD     R19, Z+13
   \   000001E8   5F2F               SUBI    R18, 255
   \   000001EA   4F3F               SBCI    R19, 255
   \   000001EC   8724               STD     Z+12, R18
   \   000001EE   8735               STD     Z+13, R19
   1324                }   
   \   000001F0   E021               LDI     R18, 1
   \   000001F2   0E42               ADD     R4, R18
   \   000001F4   E020               LDI     R18, 0
   \   000001F6   1E52               ADC     R5, R18
   \                     ??form_buf_tx_ppp_10:
   \   000001F8   01FC               MOVW    R31:R30, R25:R24
   \   000001FA   8526               LDD     R18, Z+14
   \   000001FC   8537               LDD     R19, Z+15
   \   000001FE   1642               CP      R4, R18
   \   00000200   0653               CPC     R5, R19
   \   00000202   F340               BRCS    ??form_buf_tx_ppp_11
   1325           
   1326             //crc
   1327            *(unsigned int*)&buf_tx_232[TR_KOD]=0;
   \   00000204   E000               LDI     R16, 0
   \   00000206   01FD               MOVW    R31:R30, R27:R26
   \   00000208   A302               STD     Z+34, R16
   \   0000020A   A303               STD     Z+35, R16
   1328           
   1329            *(unsigned int*)&buf_tx_232[TR_CRC]=0;
   \   0000020C   A306               STD     Z+38, R16
   \   0000020E   A307               STD     Z+39, R16
   1330            *(unsigned int*)&buf_tx_232[TR_CRC]=crc_m1(&buf_tx_232[TR_SRC],*(unsigned int*)&buf_tx_232[TR_LEN],0xffff);
   \   00000210   EF4F               LDI     R20, 255
   \   00000212   EF5F               LDI     R21, 255
   \   00000214   A120               LDD     R18, Z+32
   \   00000216   A131               LDD     R19, Z+33
   \   00000218   018D               MOVW    R17:R16, R27:R26
   \   0000021A   5E02               SUBI    R16, 226
   \   0000021C   4F1F               SBCI    R17, 255
   \   0000021E   ....               RCALL   crc_m1
   \   00000220   01FD               MOVW    R31:R30, R27:R26
   \   00000222   A306               STD     Z+38, R16
   \   00000224   A317               STD     Z+39, R17
   1331           
   1332          
   1333             kodirovka(*(unsigned int*)&buf_tx_232[TR_LEN]);
   \   00000226   A100               LDD     R16, Z+32
   \   00000228   A111               LDD     R17, Z+33
   \   0000022A   ........           CALL    kodirovka
   \   0000022E   C01D               RJMP    ??form_buf_tx_ppp_12
   1334            
   1335             
   1336            }
   1337            else 
   1338            {
   1339            
   1340            pointer=&buf_tx_232[TR_SRC];   
   \                     ??form_buf_tx_ppp_4:
   \   00000230   018D               MOVW    R17:R16, R27:R26
   \   00000232   5E02               SUBI    R16, 226
   \   00000234   4F1F               SBCI    R17, 255
   1341            for(i=0;i<Obj_ppp_tx.l_data;i++)
   \   00000236   2444               CLR     R4
   \   00000238   2455               CLR     R5
   \   0000023A   C012               RJMP    ??form_buf_tx_ppp_13
   1342               {
   1343                 *pointer=*Obj_ppp_tx.p_data;
   \                     ??form_buf_tx_ppp_14:
   \   0000023C   8524               LDD     R18, Z+12
   \   0000023E   8535               LDD     R19, Z+13
   \   00000240   01F9               MOVW    R31:R30, R19:R18
   \   00000242   8120               LD      R18, Z
   \   00000244   01F8               MOVW    R31:R30, R17:R16
   \   00000246   9321               ST      Z+, R18
   \   00000248   018F               MOVW    R17:R16, R31:R30
   1344                 pointer++;
   1345                 Obj_ppp_tx.p_data++;
   \   0000024A   01FC               MOVW    R31:R30, R25:R24
   \   0000024C   8524               LDD     R18, Z+12
   \   0000024E   8535               LDD     R19, Z+13
   \   00000250   5F2F               SUBI    R18, 255
   \   00000252   4F3F               SBCI    R19, 255
   \   00000254   8724               STD     Z+12, R18
   \   00000256   8735               STD     Z+13, R19
   1346                }   
   \   00000258   E021               LDI     R18, 1
   \   0000025A   0E42               ADD     R4, R18
   \   0000025C   E020               LDI     R18, 0
   \   0000025E   1E52               ADC     R5, R18
   \                     ??form_buf_tx_ppp_13:
   \   00000260   8526               LDD     R18, Z+14
   \   00000262   8537               LDD     R19, Z+15
   \   00000264   1642               CP      R4, R18
   \   00000266   0653               CPC     R5, R19
   \   00000268   F348               BRCS    ??form_buf_tx_ppp_14
   1347             } 
   1348              
   1349             
   1350             
   1351           // temp.word=calc_crc_ip(&buf_tx_232[2],20);
   1352           // buf_tx_232[12]=temp.bytes[0]; 
   1353           // buf_tx_232[13]=temp.bytes[1];  
   1354            
   1355           
   1356            
   1357            
   1358           
   1359            *(unsigned int*)&buf_tx_232[IP_CRC]=calc_crc_ip(&buf_tx_232[IP_VLEN],20); 
   \                     ??form_buf_tx_ppp_12:
   \   0000026A   E124               LDI     R18, 20
   \   0000026C   E030               LDI     R19, 0
   \   0000026E   018D               MOVW    R17:R16, R27:R26
   \   00000270   5F0E               SUBI    R16, 254
   \   00000272   4F1F               SBCI    R17, 255
   \   00000274   ........           CALL    calc_crc_ip
   \   00000278   01FD               MOVW    R31:R30, R27:R26
   \   0000027A   8704               STD     Z+12, R16
   \   0000027C   8715               STD     Z+13, R17
   1360            
   1361          
   1362            temp.bytes[1]=buf_tx_232[UDP_LN]; ///////////////äëčíŕ UDP 
   \   0000027E   8D02               LDD     R16, Z+26
   \   00000280   8309               STD     Y+1, R16
   1363            temp.bytes[0]=buf_tx_232[UDP_LN+1];    
   \   00000282   8D03               LDD     R16, Z+27
   \   00000284   8308               ST      Y, R16
   1364            
   1365           // *(unsigned int*)&buf_tx_232[UDP_CRC]=calc_crc_udp(&buf_tx_232[UDP_PSRC],temp.word);
   1366            *(unsigned int*)&buf_tx_232[UDP_CRC]=calc_crc_udp_2(&buf_tx_232[0],temp.word);
   \   00000286   8128               LD      R18, Y
   \   00000288   8139               LDD     R19, Y+1
   \   0000028A   018D               MOVW    R17:R16, R27:R26
   \   0000028C   ........           CALL    calc_crc_udp_2
   \   00000290   01FD               MOVW    R31:R30, R27:R26
   \   00000292   8F04               STD     Z+28, R16
   \   00000294   8F15               STD     Z+29, R17
   1367          
   1368            
   1369            i=buf_tx_232[IP_LN];
   1370            i=(i<<8)+buf_tx_232[IP_LN+1];  //äëčíŕ IP ďŕęĺňŕ         ///////////////!!!!!!!!!!!!!!!!!  
   1371            i=i+5;                  //äëčíŕ PPP ďŕęĺňŕ         ///////////////!!!!!!!!!!!!!!!!! 
   \   00000296   8114               LDD     R17, Z+4
   \   00000298   E000               LDI     R16, 0
   \   0000029A   8045               LDD     R4, Z+5
   \   0000029C   2455               CLR     R5
   \   0000029E   0E40               ADD     R4, R16
   \   000002A0   1E51               ADC     R5, R17
   \   000002A2   E005               LDI     R16, 5
   \   000002A4   0E40               ADD     R4, R16
   \   000002A6   E000               LDI     R16, 0
   \   000002A8   1E50               ADC     R5, R16
   1372                                     
   1373            temp.word=pppfcs16(PPPINITFCS16,&buf_tx_232[PPP_PROT],i-4) ^ 0xffff;    // //äëčíŕ IP+1 ň.ĺ   
   \   000002AA   01A2               MOVW    R21:R20, R5:R4
   \   000002AC   5044               SUBI    R20, 4
   \   000002AE   4050               SBCI    R21, 0
   \   000002B0   019D               MOVW    R19:R18, R27:R26
   \   000002B2   5F2F               SUBI    R18, 255
   \   000002B4   4F3F               SBCI    R19, 255
   \   000002B6   EF0F               LDI     R16, 255
   \   000002B8   EF1F               LDI     R17, 255
   \   000002BA   ........           CALL    pppfcs16
   \   000002BE   EF2F               LDI     R18, 255
   \   000002C0   EF3F               LDI     R19, 255
   \   000002C2   2720               EOR     R18, R16
   \   000002C4   2731               EOR     R19, R17
   \   000002C6   8328               ST      Y, R18
   \   000002C8   8339               STD     Y+1, R19
   1374            buf_tx_232[i-3]=temp.bytes[0];
   \   000002CA   0DA4               ADD     R26, R4
   \   000002CC   1DB5               ADC     R27, R5
   \   000002CE   9713               SBIW    R27:R26, 3
   \   000002D0   01FD               MOVW    R31:R30, R27:R26
   \   000002D2   8108               LD      R16, Y
   \   000002D4   8300               ST      Z, R16
   1375            buf_tx_232[i-2]=temp.bytes[1];                 
   \   000002D6   8109               LDD     R16, Y+1
   \   000002D8   8301               STD     Z+1, R16
   1376            buf_tx_232[i-1]=0x7e;  
   \   000002DA   E70E               LDI     R16, 126
   \   000002DC   8302               STD     Z+2, R16
   1377            
   1378            vol_tx_ppp=i;
   \   000002DE   ....               LDI     R30, LOW(vol_tx_ppp)
   \   000002E0   ....               LDI     R31, (vol_tx_ppp) >> 8
   \   000002E2   8240               ST      Z, R4
   \   000002E4   8251               STD     Z+1, R5
   1379            count_tx_ppp=0;                
   \   000002E6   E000               LDI     R16, 0
   \   000002E8   ....               LDI     R30, LOW(Appl_RS485_1)
   \   000002EA   ....               LDI     R31, (Appl_RS485_1) >> 8
   \   000002EC   A706               STD     Z+46, R16
   \   000002EE   A707               STD     Z+47, R16
   1380            
   1381             
   1382          } 
   \   000002F0   9622               ADIW    R29:R28, 2
   \   000002F2   E0E6               LDI     R30, 6
   \   000002F4   ........           JMP     ?EPILOGUE_B6_L09
   1383          
   1384          
   1385          
   1386          
   1387          
   1388          
   1389          
   1390          
   1391          
   1392          
   1393          
   1394          
   1395          
   1396          

   \                                 In segment CODE, align 2, keep-with-next
   1397            void clr_cntr_link_2(void)
   \                     clr_cntr_link_2:
   1398           {
   1399           Control.link_waits=FALSE;
   \   00000000   ....               LDI     R30, LOW(Appl_seq)
   \   00000002   ....               LDI     R31, (Appl_seq) >> 8
   \   00000004   E000               LDI     R16, 0
   \   00000006   8F03               STD     Z+27, R16
   1400           Control.link=FALSE;
   \   00000008   8F04               STD     Z+28, R16
   1401           Control.cnt_link=Control.vol_link;
   \   0000000A   A102               LDD     R16, Z+34
   \   0000000C   A113               LDD     R17, Z+35
   \   0000000E   8F06               STD     Z+30, R16
   \   00000010   8F17               STD     Z+31, R17
   1402           Control.cnt_try=0;
   \   00000012   E000               LDI     R16, 0
   \   00000014   A700               STD     Z+40, R16
   1403           Control.link_no=FALSE;
   \   00000016   8F02               STD     Z+26, R16
   1404           } 
   \   00000018   9508               RET
   1405           
   1406           
   1407           

   \                                 In segment CODE, align 2, keep-with-next
   1408           void clr_cntr_link(void)
   \                     clr_cntr_link:
   1409           {
   \   00000000   01AD               MOVW    R21:R20, R27:R26
   1410           if(Control.link_waits==FALSE)
   \   00000002   ....               LDI     R30, LOW(Appl_seq)
   \   00000004   ....               LDI     R31, (Appl_seq) >> 8
   \   00000006   8D03               LDD     R16, Z+27
   \   00000008   2300               TST     R16
   \   0000000A   F481               BRNE    ??clr_cntr_link_0
   1411           {
   1412           cnt_no_link=vol_cnt_no_link;//dobavka
   \   0000000C   A900               LDD     R16, Z+48
   \   0000000E   A911               LDD     R17, Z+49
   \   00000010   A922               LDD     R18, Z+50
   \   00000012   A933               LDD     R19, Z+51
   \   00000014   ....               LDI     R26, LOW(cnt_no_link)
   \   00000016   ....               LDI     R27, (cnt_no_link) >> 8
   \   00000018   930D               ST      X+, R16
   \   0000001A   931D               ST      X+, R17
   \   0000001C   932D               ST      X+, R18
   \   0000001E   933C               ST      X, R19
   1413           Control.link=FALSE;
   \   00000020   E000               LDI     R16, 0
   \   00000022   8F04               STD     Z+28, R16
   1414           Control.cnt_link=Control.vol_link;
   \   00000024   A102               LDD     R16, Z+34
   \   00000026   A113               LDD     R17, Z+35
   \   00000028   8F06               STD     Z+30, R16
   \   0000002A   8F17               STD     Z+31, R17
   1415           }
   1416           } 
   \                     ??clr_cntr_link_0:
   \   0000002C   01DA               MOVW    R27:R26, R21:R20
   \   0000002E   9508               RET
   1417            
   1418            
   1419          
   1420          
   1421          

   \                                 In segment CODE, align 2, keep-with-next
   1422          void monitor_rst(void)
   \                     monitor_rst:
   1423          {
   \   00000000   ........           CALL    ?PROLOGUE4_L09
   \   00000004   9729               SBIW    R29:R28, 9
   1424          unsigned char buf[9];
   1425          
   1426          
   1427          if((MCUSR & 0x01)==0x01)
   \   00000006   ....               LDI     R24, LOW(Appl_seq)
   \   00000008   ....               LDI     R25, (Appl_seq) >> 8
   \   0000000A   ....               LDI     R26, LOW(Appl_RS485_1)
   \   0000000C   ....               LDI     R27, (Appl_RS485_1) >> 8
   \   0000000E   B704               IN      R16, 0x34
   \   00000010   2F10               MOV     R17, R16
   \   00000012   FF10               SBRS    R17, 0
   \   00000014   C04B               RJMP    ??monitor_rst_0
   1428          {
   1429          
   1430          
   1431          simka=SIM_RES; //dobavka
   \   00000016   E001               LDI     R16, 1
   \   00000018   9300....           STS     simka, R16
   1432          Fl_ch_sim=1;  //dobavka
   \   0000001C   01FD               MOVW    R31:R30, R27:R26
   \   0000001E   AB06               STD     Z+54, R16
   1433            
   1434          send_info(sizeof(evc_pwr),evc_pwr,0,0); 
   \   00000020   E040               LDI     R20, 0
   \   00000022   E010               LDI     R17, 0
   \   00000024   ....               LDI     R18, LOW((evc_wdr + 21))
   \   00000026   ....               LDI     R19, HIGH((evc_wdr + 21))
   \   00000028   E007               LDI     R16, 7
   \   0000002A   ........           CALL    send_info
   1435          write_log_info(ST_PIT_ON,RESET_POWER);
   \   0000002E   E011               LDI     R17, 1
   \   00000030   E001               LDI     R16, 1
   \   00000032   ........           CALL    write_log_info
   1436          
   1437          if (Appl_seq_des==1){MCUSR=0;return;}// áëîęčđîâęŕ 
   \   00000036   01FC               MOVW    R31:R30, R25:R24
   \   00000038   96FE               ADIW    R31:R30, 62
   \   0000003A   8100               LD      R16, Z
   \   0000003C   3001               CPI     R16, 1
   \   0000003E   F431               BRNE    ??monitor_rst_1
   \                     ??monitor_rst_2:
   \   00000040   E000               LDI     R16, 0
   \   00000042   BF04               OUT     0x34, R16
   \   00000044   9629               ADIW    R29:R28, 9
   \   00000046   E0E4               LDI     R30, 4
   \   00000048   ........           JMP     ?EPILOGUE_B4_L09
   1438          
   1439          buf[0]=COOL_RESET;
   \                     ??monitor_rst_1:
   \   0000004C   E002               LDI     R16, 2
   \   0000004E   8308               ST      Y, R16
   1440          *(unsigned int*)&buf[1]=L_COOL_RESET;
   \   00000050   E004               LDI     R16, 4
   \   00000052   E010               LDI     R17, 0
   \   00000054   8309               STD     Y+1, R16
   \   00000056   831A               STD     Y+2, R17
   1441          *(unsigned long int*)&buf[3]=burst_ds_r();
   \   00000058   ........           CALL    burst_ds_r
   \   0000005C   830B               STD     Y+3, R16
   \   0000005E   831C               STD     Y+4, R17
   \   00000060   832D               STD     Y+5, R18
   \   00000062   833E               STD     Y+6, R19
   1442          if(write_to_buf(&Appl_seq_buf[0],&Appl_seq.p_in,&Appl_seq.p_out,&Appl_seq.p_out_kv,&Appl_seq.crc,&buf[0],L_COOL_RESET+3, sizeof(Appl_seq_buf))==1)
   \   00000064   EC08               LDI     R16, 200
   \   00000066   E010               LDI     R17, 0
   \   00000068   931A               ST      -Y, R17
   \   0000006A   930A               ST      -Y, R16
   \   0000006C   E007               LDI     R16, 7
   \   0000006E   931A               ST      -Y, R17
   \   00000070   930A               ST      -Y, R16
   \   00000072   018E               MOVW    R17:R16, R29:R28
   \   00000074   5F0C               SUBI    R16, 252
   \   00000076   4F1F               SBCI    R17, 255
   \   00000078   931A               ST      -Y, R17
   \   0000007A   930A               ST      -Y, R16
   \   0000007C   018C               MOVW    R17:R16, R25:R24
   \   0000007E   5F09               SUBI    R16, 249
   \   00000080   4F1F               SBCI    R17, 255
   \   00000082   931A               ST      -Y, R17
   \   00000084   930A               ST      -Y, R16
   \   00000086   01BC               MOVW    R23:R22, R25:R24
   \   00000088   5F6B               SUBI    R22, 251
   \   0000008A   4F7F               SBCI    R23, 255
   \   0000008C   01AC               MOVW    R21:R20, R25:R24
   \   0000008E   5F4D               SUBI    R20, 253
   \   00000090   4F5F               SBCI    R21, 255
   \   00000092   9601               ADIW    R25:R24, 1
   \   00000094   019C               MOVW    R19:R18, R25:R24
   \   00000096   ....               LDI     R16, LOW(Appl_seq_buf)
   \   00000098   ....               LDI     R17, (Appl_seq_buf) >> 8
   \   0000009A   ........           CALL    write_to_buf
   \   0000009E   3001               CPI     R16, 1
   \   000000A0   F679               BRNE    ??monitor_rst_2
   1443             {
   1444             fl_appl_seq1.over_buf=1;
   \                     ??monitor_rst_3:
   \   000000A2   96DC               ADIW    R27:R26, 60
   \   000000A4   910C               LD      R16, X
   \   000000A6   6001               ORI     R16, 0x01
   \   000000A8   930C               ST      X, R16
   \   000000AA   CFCA               RJMP    ??monitor_rst_2
   1445             }
   1446          
   1447          }
   1448          else
   1449          {
   1450          
   1451          if(simka>1)  {simka=SIM_RES; Fl_ch_sim=1;}  //dobavka
   \                     ??monitor_rst_0:
   \   000000AC   9100....           LDS     R16, simka
   \   000000B0   3002               CPI     R16, 2
   \   000000B2   F028               BRCS    ??monitor_rst_4
   \   000000B4   E001               LDI     R16, 1
   \   000000B6   9300....           STS     simka, R16
   \   000000BA   01FD               MOVW    R31:R30, R27:R26
   \   000000BC   AB06               STD     Z+54, R16
   1452            
   1453          if((MCUSR & 0x02)==0x02){write_log_info(ST_PIT_ON,RESET_EXT);send_info(sizeof(evc_rst),evc_rst,0,0);}
   \                     ??monitor_rst_4:
   \   000000BE   B704               IN      R16, 0x34
   \   000000C0   2F10               MOV     R17, R16
   \   000000C2   FF11               SBRS    R17, 1
   \   000000C4   C00B               RJMP    ??monitor_rst_5
   \   000000C6   E012               LDI     R17, 2
   \   000000C8   E001               LDI     R16, 1
   \   000000CA   ........           CALL    write_log_info
   \   000000CE   E040               LDI     R20, 0
   \   000000D0   E010               LDI     R17, 0
   \   000000D2   ....               LDI     R18, LOW((evc_wdr + 14))
   \   000000D4   ....               LDI     R19, HIGH((evc_wdr + 14))
   \   000000D6   E007               LDI     R16, 7
   \   000000D8   ........           CALL    send_info
   1454          if((MCUSR & 0x04)==0x04){write_log_info(ST_PIT_ON,RESET_BROWN);send_info(sizeof(evc_bod),evc_bod,0,0);}
   \                     ??monitor_rst_5:
   \   000000DC   B704               IN      R16, 0x34
   \   000000DE   2F10               MOV     R17, R16
   \   000000E0   FF12               SBRS    R17, 2
   \   000000E2   C00B               RJMP    ??monitor_rst_6
   \   000000E4   E013               LDI     R17, 3
   \   000000E6   E001               LDI     R16, 1
   \   000000E8   ........           CALL    write_log_info
   \   000000EC   E040               LDI     R20, 0
   \   000000EE   E010               LDI     R17, 0
   \   000000F0   ....               LDI     R18, LOW((evc_wdr + 7))
   \   000000F2   ....               LDI     R19, HIGH((evc_wdr + 7))
   \   000000F4   E007               LDI     R16, 7
   \   000000F6   ........           CALL    send_info
   1455          if((MCUSR & 0x08)==0x08){write_log_info(ST_PIT_ON,RESET_WDR);send_info(sizeof(evc_wdr),evc_wdr,0,0);}
   \                     ??monitor_rst_6:
   \   000000FA   B704               IN      R16, 0x34
   \   000000FC   2F10               MOV     R17, R16
   \   000000FE   FF13               SBRS    R17, 3
   \   00000100   C00B               RJMP    ??monitor_rst_7
   \   00000102   E014               LDI     R17, 4
   \   00000104   E001               LDI     R16, 1
   \   00000106   ........           CALL    write_log_info
   \   0000010A   E040               LDI     R20, 0
   \   0000010C   E010               LDI     R17, 0
   \   0000010E   ....               LDI     R18, LOW(evc_wdr)
   \   00000110   ....               LDI     R19, (evc_wdr) >> 8
   \   00000112   E007               LDI     R16, 7
   \   00000114   ........           CALL    send_info
   1456          
   1457          if (Appl_seq_des==1){MCUSR=0;return;}// áëîęčđîâęŕ 
   \                     ??monitor_rst_7:
   \   00000118   01FC               MOVW    R31:R30, R25:R24
   \   0000011A   96FE               ADIW    R31:R30, 62
   \   0000011C   8100               LD      R16, Z
   \   0000011E   3001               CPI     R16, 1
   \   00000120   F409               BRNE    $+2+2
   \   00000122   CF8E               RJMP    ??monitor_rst_2
   1458          
   1459          buf[0]=HOT_RESET;
   \   00000124   E003               LDI     R16, 3
   \   00000126   8308               ST      Y, R16
   1460          *(unsigned int*)&buf[1]=L_HOT_RESET;
   \   00000128   E006               LDI     R16, 6
   \   0000012A   E010               LDI     R17, 0
   \   0000012C   8309               STD     Y+1, R16
   \   0000012E   831A               STD     Y+2, R17
   1461          *(unsigned long int*)&buf[3]=burst_ds_r();
   \   00000130   ........           CALL    burst_ds_r
   \   00000134   830B               STD     Y+3, R16
   \   00000136   831C               STD     Y+4, R17
   \   00000138   832D               STD     Y+5, R18
   \   0000013A   833E               STD     Y+6, R19
   1462          if((MCUSR & 0x02)==0x02)buf[7]=RST_EXT;
   \   0000013C   B704               IN      R16, 0x34
   \   0000013E   2F10               MOV     R17, R16
   \   00000140   FF11               SBRS    R17, 1
   \   00000142   C002               RJMP    ??monitor_rst_8
   \   00000144   E000               LDI     R16, 0
   \   00000146   830F               STD     Y+7, R16
   1463          if((MCUSR & 0x04)==0x04)buf[7]=RST_BROWN;
   \                     ??monitor_rst_8:
   \   00000148   B704               IN      R16, 0x34
   \   0000014A   2F10               MOV     R17, R16
   \   0000014C   FF12               SBRS    R17, 2
   \   0000014E   C002               RJMP    ??monitor_rst_9
   \   00000150   E001               LDI     R16, 1
   \   00000152   830F               STD     Y+7, R16
   1464          if((MCUSR & 0x08)==0x08)buf[7]=RST_WDR;
   \                     ??monitor_rst_9:
   \   00000154   B704               IN      R16, 0x34
   \   00000156   2F10               MOV     R17, R16
   \   00000158   FF13               SBRS    R17, 3
   \   0000015A   C002               RJMP    ??monitor_rst_10
   \   0000015C   E002               LDI     R16, 2
   \   0000015E   830F               STD     Y+7, R16
   1465          buf[8]=0;
   \                     ??monitor_rst_10:
   \   00000160   E000               LDI     R16, 0
   \   00000162   8708               STD     Y+8, R16
   1466          if(write_to_buf(&Appl_seq_buf[0],&Appl_seq.p_in,&Appl_seq.p_out,&Appl_seq.p_out_kv,&Appl_seq.crc,&buf[0],L_HOT_RESET+3, sizeof(Appl_seq_buf))==1)
   \   00000164   EC08               LDI     R16, 200
   \   00000166   E010               LDI     R17, 0
   \   00000168   931A               ST      -Y, R17
   \   0000016A   930A               ST      -Y, R16
   \   0000016C   E009               LDI     R16, 9
   \   0000016E   931A               ST      -Y, R17
   \   00000170   930A               ST      -Y, R16
   \   00000172   018E               MOVW    R17:R16, R29:R28
   \   00000174   5F0C               SUBI    R16, 252
   \   00000176   4F1F               SBCI    R17, 255
   \   00000178   931A               ST      -Y, R17
   \   0000017A   930A               ST      -Y, R16
   \   0000017C   018C               MOVW    R17:R16, R25:R24
   \   0000017E   5F09               SUBI    R16, 249
   \   00000180   4F1F               SBCI    R17, 255
   \   00000182   931A               ST      -Y, R17
   \   00000184   930A               ST      -Y, R16
   \   00000186   01BC               MOVW    R23:R22, R25:R24
   \   00000188   5F6B               SUBI    R22, 251
   \   0000018A   4F7F               SBCI    R23, 255
   \   0000018C   01AC               MOVW    R21:R20, R25:R24
   \   0000018E   5F4D               SUBI    R20, 253
   \   00000190   4F5F               SBCI    R21, 255
   \   00000192   9601               ADIW    R25:R24, 1
   \   00000194   019C               MOVW    R19:R18, R25:R24
   \   00000196   ....               LDI     R16, LOW(Appl_seq_buf)
   \   00000198   ....               LDI     R17, (Appl_seq_buf) >> 8
   \   0000019A   ........           CALL    write_to_buf
   \   0000019E   3001               CPI     R16, 1
   \   000001A0   F009               BREQ    $+2+2
   \   000001A2   CF4E               RJMP    ??monitor_rst_2
   \   000001A4   CF7E               RJMP    ??monitor_rst_3
   1467             {
   1468             fl_appl_seq1.over_buf=1;
   1469             }
   1470          }
   1471          
   1472          MCUSR=0;
   1473          } 
   1474          
   1475          
   1476          /*
   1477          void monitor_over_net(void)
   1478             {        
   1479               unsigned char buf[9];
   1480              
   1481               if (Appl_seq_des==1)return;// áëîęčđîâęŕ îďđîńŕ îőđŕíęč     
   1482               if(count_block_net!=0)return;//áëîęčđîâęŕ ěîíčňîđŕ   
   1483               if (((PINA & TCC2)&&(byte_state_net==YES_NET))|| (((PINA & TCC2)==0)&&(byte_state_net==NO_NET)))
   1484                    {
   1485                      if(byte_state_net==YES_NET) {byte_state_net=NO_NET;send_info(sizeof(evc_feed_akb),evc_feed_akb,0,0);}
   1486                      else {byte_state_net=YES_NET;send_info(sizeof(evc_feed_220),evc_feed_220,0,0);}
   1487                      count_block_net=3;
   1488                      buf[0]=AKB_SET;
   1489                      *(unsigned int*)&buf[1]=L_AKB_SET;
   1490                      *(unsigned long int*)&buf[3]=burst_ds_r();
   1491                      buf[7]=byte_state_net;
   1492                      buf[8]=0; 
   1493                      if(write_to_buf(&Appl_seq_buf[0],&Appl_seq.p_in,&Appl_seq.p_out,&Appl_seq.p_out_kv,&Appl_seq.crc,&buf[0],L_AKB_SET+3, sizeof(Appl_seq_buf))==1)
   1494                                   {
   1495                                   fl_appl_seq1.over_buf=1;
   1496                                   } 
   1497                     
   1498                    }
   1499             
   1500             }
   1501          
   1502          */
   1503          
   1504          
   1505           
   1506           

   \                                 In segment CODE, align 2, keep-with-next
   1507          void monitor_beg_state_seq(unsigned char zad)
   \                     monitor_beg_state_seq:
   1508          {
   \   00000000   ........           CALL    ?PROLOGUE4_L09
   \   00000004   972A               SBIW    R29:R28, 10
   1509             // çäĺńü äîëćíŕ áűňü ďŕóçŕ ÷ňîáű îďđĺäĺëčëčńü ňĺęóůčĺ ŇŃ
   1510           unsigned char buf[10];
   1511           unsigned char i=0;
   \   00000006   E0A0               LDI     R26, 0
   1512          
   1513           
   1514           if(zad==0)
   \   00000008   ....               LDI     R24, LOW(struct_tcc2)
   \   0000000A   ....               LDI     R25, (struct_tcc2) >> 8
   \   0000000C   2300               TST     R16
   \   0000000E   F4D1               BRNE    ??monitor_beg_state_seq_0
   \   00000010   C00A               RJMP    ??monitor_beg_state_seq_1
   1515           {
   1516             while(i<200) //400 ěńĺę
   1517             {
   1518             __watchdog_reset();
   \                     ??monitor_beg_state_seq_2:
   \   00000012   95A8               WDR
   1519             delay(16000);//1mcek
   \   00000014   E800               LDI     R16, 128
   \   00000016   E31E               LDI     R17, 62
   \   00000018   ........           CALL    delay
   1520             delay(16000);//1mcek
   \   0000001C   E800               LDI     R16, 128
   \   0000001E   E31E               LDI     R17, 62
   \   00000020   ........           CALL    delay
   1521             i++;
   \   00000024   95A3               INC     R26
   1522             }
   \                     ??monitor_beg_state_seq_1:
   \   00000026   3CA8               CPI     R26, 200
   \   00000028   F3A0               BRCS    ??monitor_beg_state_seq_2
   1523            struct_tcc1.real_tc=0x01 & (~struct_tcc1.tek_pin);
   \   0000002A   ....               LDI     R30, LOW(struct_tcc1)
   \   0000002C   ....               LDI     R31, (struct_tcc1) >> 8
   \   0000002E   8100               LD      R16, Z
   \   00000030   7001               ANDI    R16, 0x01
   \   00000032   9500               COM     R16
   \   00000034   7001               ANDI    R16, 0x01
   \   00000036   8301               STD     Z+1, R16
   1524            struct_tcc2.real_tc=0x01 & (~struct_tcc2.tek_pin);
   \   00000038   01FC               MOVW    R31:R30, R25:R24
   \   0000003A   8100               LD      R16, Z
   \   0000003C   7001               ANDI    R16, 0x01
   \   0000003E   9500               COM     R16
   \   00000040   7001               ANDI    R16, 0x01
   \   00000042   8301               STD     Z+1, R16
   1525           }
   1526           
   1527           
   1528                     
   1529                        sv1.tc=struct_tcc1.real_tc;
   \                     ??monitor_beg_state_seq_0:
   \   00000044   ....               LDI     R30, LOW(struct_tcc1)
   \   00000046   ....               LDI     R31, (struct_tcc1) >> 8
   \   00000048   8101               LDD     R16, Z+1
   \   0000004A   7001               ANDI    R16, 0x01
   \   0000004C   ....               LDI     R30, LOW(state_seq)
   \   0000004E   ....               LDI     R31, (state_seq) >> 8
   \   00000050   FB00               BST     R16, 0
   \   00000052   8101               LDD     R16, Z+1
   \   00000054   F900               BLD     R16, 0
   \   00000056   8301               STD     Z+1, R16
   1530                        sv1.tc_old=sv1.tc;
   \   00000058   8101               LDD     R16, Z+1
   \   0000005A   7001               ANDI    R16, 0x01
   \   0000005C   FB00               BST     R16, 0
   \   0000005E   8101               LDD     R16, Z+1
   \   00000060   F901               BLD     R16, 1
   \   00000062   8301               STD     Z+1, R16
   1531                        sv2.tc=struct_tcc2.real_tc;
   \   00000064   01FC               MOVW    R31:R30, R25:R24
   \   00000066   8101               LDD     R16, Z+1
   \   00000068   7001               ANDI    R16, 0x01
   \   0000006A   ....               LDI     R30, LOW(state_seq)
   \   0000006C   ....               LDI     R31, (state_seq) >> 8
   \   0000006E   FB00               BST     R16, 0
   \   00000070   8102               LDD     R16, Z+2
   \   00000072   F900               BLD     R16, 0
   \   00000074   8302               STD     Z+2, R16
   1532                        sv2.tc_old=sv2.tc;
   \   00000076   8102               LDD     R16, Z+2
   \   00000078   7001               ANDI    R16, 0x01
   \   0000007A   FB00               BST     R16, 0
   \   0000007C   8102               LDD     R16, Z+2
   \   0000007E   F901               BLD     R16, 1
   \   00000080   8302               STD     Z+2, R16
   1533                        
   1534                      
   1535          if (Appl_seq_des==1)return;// áëîęčđîâęŕ ńîîáůäĺíčé            
   \   00000082   ....               LDI     R26, LOW(Appl_seq)
   \   00000084   ....               LDI     R27, (Appl_seq) >> 8
   \   00000086   01FD               MOVW    R31:R30, R27:R26
   \   00000088   96FE               ADIW    R31:R30, 62
   \   0000008A   8100               LD      R16, Z
   \   0000008C   3001               CPI     R16, 1
   \   0000008E   F409               BRNE    $+2+2
   \   00000090   C070               RJMP    ??monitor_beg_state_seq_3
   1536          
   1537          
   1538          buf[0]=SEQ_STATE;
   \   00000092   E006               LDI     R16, 6
   \   00000094   8308               ST      Y, R16
   1539          *(unsigned int*)&buf[1]=L_STATE;
   \   00000096   E007               LDI     R16, 7
   \   00000098   E010               LDI     R17, 0
   \   0000009A   8309               STD     Y+1, R16
   \   0000009C   831A               STD     Y+2, R17
   1540          *(unsigned long int*)&buf[3]=burst_ds_r();
   \   0000009E   ........           CALL    burst_ds_r
   \   000000A2   830B               STD     Y+3, R16
   \   000000A4   831C               STD     Y+4, R17
   \   000000A6   832D               STD     Y+5, R18
   \   000000A8   833E               STD     Y+6, R19
   1541          
   1542          switch (struct_tcc1.type)
   \   000000AA   ....               LDI     R30, LOW(struct_tcc1)
   \   000000AC   ....               LDI     R31, (struct_tcc1) >> 8
   \   000000AE   8104               LDD     R16, Z+4
   \   000000B0   5001               SUBI    R16, 1
   \   000000B2   F019               BREQ    ??monitor_beg_state_seq_4
   \   000000B4   950A               DEC     R16
   \   000000B6   F029               BREQ    ??monitor_beg_state_seq_5
   \   000000B8   C021               RJMP    ??monitor_beg_state_seq_6
   1543          {
   1544          case TC_SUHOI:
   1545                      struct_tcc1.cnt_block_tc=VOL_BLOCK_TC;
   \                     ??monitor_beg_state_seq_4:
   \   000000BA   E003               LDI     R16, 3
   \   000000BC   8305               STD     Z+5, R16
   1546                      buf[7]=DES_SEQ;
   \   000000BE   EF0F               LDI     R16, 255
   \   000000C0   C017               RJMP    ??monitor_beg_state_seq_7
   1547                      buf[8]=sv1.tc & 0x01;
   1548                      break;
   1549          case TC_SHL:
   1550                      if(sv1.tc & 0x01)
   \                     ??monitor_beg_state_seq_5:
   \   000000C2   ....               LDI     R30, LOW(state_seq)
   \   000000C4   ....               LDI     R31, (state_seq) >> 8
   \   000000C6   8101               LDD     R16, Z+1
   \   000000C8   FF00               SBRS    R16, 0
   \   000000CA   C006               RJMP    ??monitor_beg_state_seq_8
   1551                          {
   1552                        //   send_info(sizeof(evc_taken),evc_taken,0,0);
   1553                           Appl_seq.event=EV_TC_NORMA;
   \   000000CC   E001               LDI     R16, 1
   \   000000CE   01FD               MOVW    R31:R30, R27:R26
   \   000000D0   8707               STD     Z+15, R16
   1554                           Appl_seq.state=ST_VZAT;
   \   000000D2   8706               STD     Z+14, R16
   1555                           state_seq=VZAT;
   \   000000D4   E005               LDI     R16, 5
   \   000000D6   C00A               RJMP    ??monitor_beg_state_seq_9
   1556                           buf[7]=VZAT;
   1557                          }
   1558                          else
   1559                          {
   1560                       //    send_info(sizeof(evc_alarm),evc_alarm,0,0);
   1561                           Appl_seq.event=EV_TC_ALARM;
   \                     ??monitor_beg_state_seq_8:
   \   000000D8   E000               LDI     R16, 0
   \   000000DA   01FD               MOVW    R31:R30, R27:R26
   \   000000DC   8707               STD     Z+15, R16
   1562                           Appl_seq.tm_vzat=Appl_seq.vol_tm_vzat;
   \   000000DE   8902               LDD     R16, Z+18
   \   000000E0   8913               LDD     R17, Z+19
   \   000000E2   8B00               STD     Z+16, R16
   \   000000E4   8B11               STD     Z+17, R17
   1563                           Appl_seq.state=ST_ALARM;
   \   000000E6   E000               LDI     R16, 0
   \   000000E8   8706               STD     Z+14, R16
   1564                           state_seq=ALARM;
   \   000000EA   E004               LDI     R16, 4
   \                     ??monitor_beg_state_seq_9:
   \   000000EC   9300....           STS     state_seq, R16
   1565                           buf[7]=ALARM;
   \                     ??monitor_beg_state_seq_7:
   \   000000F0   830F               STD     Y+7, R16
   1566                          }
   1567                      buf[8]=sv1.tc & 0x01;
   \   000000F2   ....               LDI     R30, LOW(state_seq)
   \   000000F4   ....               LDI     R31, (state_seq) >> 8
   \   000000F6   8101               LDD     R16, Z+1
   \   000000F8   7001               ANDI    R16, 0x01
   \   000000FA   C002               RJMP    ??monitor_beg_state_seq_10
   1568                      break;
   1569          default:    
   1570                      buf[7]=DES_SEQ;
   \                     ??monitor_beg_state_seq_6:
   \   000000FC   EF0F               LDI     R16, 255
   \   000000FE   830F               STD     Y+7, R16
   1571                      buf[8]=DES_SEQ;
   \                     ??monitor_beg_state_seq_10:
   \   00000100   8708               STD     Y+8, R16
   1572                      break;
   1573                
   1574          }    
   1575          
   1576          if(struct_tcc2.type==TC_SUHOI)
   \   00000102   01FC               MOVW    R31:R30, R25:R24
   \   00000104   8104               LDD     R16, Z+4
   \   00000106   3001               CPI     R16, 1
   \   00000108   F439               BRNE    ??monitor_beg_state_seq_11
   1577             {
   1578               struct_tcc2.cnt_block_tc=VOL_BLOCK_TC;
   \   0000010A   E003               LDI     R16, 3
   \   0000010C   8305               STD     Z+5, R16
   1579               buf[9]=sv2.tc & 0x01;
   \   0000010E   ....               LDI     R30, LOW(state_seq)
   \   00000110   ....               LDI     R31, (state_seq) >> 8
   \   00000112   8102               LDD     R16, Z+2
   \   00000114   7001               ANDI    R16, 0x01
   \   00000116   C001               RJMP    ??monitor_beg_state_seq_12
   1580             }else buf[9]=DES_SEQ;
   \                     ??monitor_beg_state_seq_11:
   \   00000118   EF0F               LDI     R16, 255
   \                     ??monitor_beg_state_seq_12:
   \   0000011A   8709               STD     Y+9, R16
   1581          
   1582          
   1583          send_info(sizeof(evc_state),evc_state,0,0);
   \   0000011C   E040               LDI     R20, 0
   \   0000011E   E010               LDI     R17, 0
   \   00000120   ....               LDI     R18, LOW(evc_state)
   \   00000122   ....               LDI     R19, (evc_state) >> 8
   \   00000124   E009               LDI     R16, 9
   \   00000126   ........           CALL    send_info
   1584          
   1585          if(write_to_buf(&Appl_seq_buf[0],&Appl_seq.p_in,&Appl_seq.p_out,&Appl_seq.p_out_kv,&Appl_seq.crc,&buf[0],L_STATE+3, sizeof(Appl_seq_buf))==1)
   \   0000012A   EC08               LDI     R16, 200
   \   0000012C   E010               LDI     R17, 0
   \   0000012E   931A               ST      -Y, R17
   \   00000130   930A               ST      -Y, R16
   \   00000132   E00A               LDI     R16, 10
   \   00000134   931A               ST      -Y, R17
   \   00000136   930A               ST      -Y, R16
   \   00000138   018E               MOVW    R17:R16, R29:R28
   \   0000013A   5F0C               SUBI    R16, 252
   \   0000013C   4F1F               SBCI    R17, 255
   \   0000013E   931A               ST      -Y, R17
   \   00000140   930A               ST      -Y, R16
   \   00000142   018D               MOVW    R17:R16, R27:R26
   \   00000144   5F09               SUBI    R16, 249
   \   00000146   4F1F               SBCI    R17, 255
   \   00000148   931A               ST      -Y, R17
   \   0000014A   930A               ST      -Y, R16
   \   0000014C   01BD               MOVW    R23:R22, R27:R26
   \   0000014E   5F6B               SUBI    R22, 251
   \   00000150   4F7F               SBCI    R23, 255
   \   00000152   01AD               MOVW    R21:R20, R27:R26
   \   00000154   5F4D               SUBI    R20, 253
   \   00000156   4F5F               SBCI    R21, 255
   \   00000158   9611               ADIW    R27:R26, 1
   \   0000015A   019D               MOVW    R19:R18, R27:R26
   \   0000015C   ....               LDI     R16, LOW(Appl_seq_buf)
   \   0000015E   ....               LDI     R17, (Appl_seq_buf) >> 8
   \   00000160   ........           CALL    write_to_buf
   \   00000164   3001               CPI     R16, 1
   \   00000166   F429               BRNE    ??monitor_beg_state_seq_3
   1586                             {
   1587                              fl_appl_seq1.over_buf=1;
   \   00000168   ....               LDI     R30, LOW((Appl_RS485_1 + 60))
   \   0000016A   ....               LDI     R31, HIGH((Appl_RS485_1 + 60))
   \   0000016C   8100               LD      R16, Z
   \   0000016E   6001               ORI     R16, 0x01
   \   00000170   8300               ST      Z, R16
   \                     ??monitor_beg_state_seq_3:
   \   00000172   962A               ADIW    R29:R28, 10
   \   00000174   E0E4               LDI     R30, 4
   \   00000176   ........           JMP     ?EPILOGUE_B4_L09
   1588                             }
   1589          
   1590          
   1591          
   1592          /*
   1593          
   1594                      if(sv1.tc & 0x01)
   1595                          {
   1596                           send_info(sizeof(evc_taken),evc_taken,0,0);
   1597                           
   1598                           Appl_seq.event=EV_TC_NORMA;
   1599                           Appl_seq.state=ST_VZAT;
   1600                           state_seq=VZAT;
   1601                           buf[0]=VZAT;
   1602                           *(unsigned int*)&buf[1]=L_VZAT;
   1603                           *(unsigned long int*)&buf[3]=burst_ds_r();
   1604                           buf[7]=sv1.tc & 0x01;
   1605                           buf[8]=0;
   1606                           if(write_to_buf(&Appl_seq_buf[0],&Appl_seq.p_in,&Appl_seq.p_out,&Appl_seq.p_out_kv,&Appl_seq.crc,&buf[0],L_VZAT+3, sizeof(Appl_seq_buf))==1)
   1607                              {
   1608                               fl_appl_seq1.over_buf=1;
   1609                              }
   1610                          }else 
   1611                           {
   1612                           send_info(sizeof(evc_alarm),evc_alarm,0,0);
   1613                           Appl_seq.event=EV_TC_ALARM;
   1614                           Appl_seq.tm_vzat=Appl_seq.vol_tm_vzat;
   1615                           Appl_seq.state=ST_ALARM;
   1616                           state_seq=ALARM;
   1617                           buf[0]=ALARM;
   1618                           *(unsigned int*)&buf[1]=L_ALARM;
   1619                           *(unsigned long int*)&buf[3]=burst_ds_r();
   1620                           buf[7]=sv1.tc & 0x01;
   1621                           buf[8]=0;
   1622                           if(write_to_buf(&Appl_seq_buf[0],&Appl_seq.p_in,&Appl_seq.p_out,&Appl_seq.p_out_kv,&Appl_seq.crc,&buf[0],L_ALARM+3, sizeof(Appl_seq_buf))==1)
   1623                             {
   1624                              fl_appl_seq1.over_buf=1;
   1625                             }
   1626                           }
   1627          
   1628                      if (PINA & TCC2) {byte_state_net=NO_NET;send_info(sizeof(evc_feed_akb),evc_feed_akb,0,0);}
   1629                      else {byte_state_net=YES_NET;send_info(sizeof(evc_feed_220),evc_feed_220,0,0);}
   1630                      
   1631                      count_block_net=3;
   1632                      buf[0]=AKB_SET;
   1633                      *(unsigned int*)&buf[1]=L_AKB_SET;
   1634                      *(unsigned long int*)&buf[3]=burst_ds_r();
   1635                      buf[7]=byte_state_net;
   1636                      buf[8]=0;
   1637                      if(write_to_buf(&Appl_seq_buf[0],&Appl_seq.p_in,&Appl_seq.p_out,&Appl_seq.p_out_kv,&Appl_seq.crc,&buf[0],L_AKB_SET+3, sizeof(Appl_seq_buf))==1)
   1638                                   {
   1639                                   fl_appl_seq1.over_buf=1;
   1640                                   }     
   1641          
   1642                      
   1643                 */     
   1644                      
   1645                      
   1646          } 
   1647          
   1648          

   \                                 In segment CODE, align 2, keep-with-next
   1649          void clr_cntr_nat(void)
   \                     clr_cntr_nat:
   1650           {
   1651           Control.nat=FALSE;
   \   00000000   ....               LDI     R30, LOW(Appl_seq)
   \   00000002   ....               LDI     R31, (Appl_seq) >> 8
   \   00000004   E000               LDI     R16, 0
   \   00000006   8F05               STD     Z+29, R16
   1652           //Control.cnt_nat=Control.vol_nat;
   1653           if(simka==SIM_RES)Control.cnt_nat=Control.vol_nat_r;else Control.cnt_nat=Control.vol_nat;
   \   00000008   9100....           LDS     R16, simka
   \   0000000C   3001               CPI     R16, 1
   \   0000000E   F419               BRNE    ??clr_cntr_nat_0
   \   00000010   A502               LDD     R16, Z+42
   \   00000012   A513               LDD     R17, Z+43
   \   00000014   C002               RJMP    ??clr_cntr_nat_1
   \                     ??clr_cntr_nat_0:
   \   00000016   A104               LDD     R16, Z+36
   \   00000018   A115               LDD     R17, Z+37
   \                     ??clr_cntr_nat_1:
   \   0000001A   A300               STD     Z+32, R16
   \   0000001C   A311               STD     Z+33, R17
   1654           } 
   \   0000001E   9508               RET
   1655          
   1656          

   \                                 In segment CODE, align 2, keep-with-next
   1657          void clr_var_ppp_rx(void)
   \                     clr_var_ppp_rx:
   1658          {
   1659           UCSR0B=UCSR0B & ~RXEN;
   \   00000000   910000C1           LDS     R16, 193
   \   00000004   7E0F               ANDI    R16, 0xEF
   \   00000006   930000C1           STS     193, R16
   1660           UCSR0B=UCSR0B & ~RXCIE;
   \   0000000A   910000C1           LDS     R16, 193
   \   0000000E   770F               ANDI    R16, 0x7F
   \   00000010   930000C1           STS     193, R16
   1661           fl_rx_ppp.switcher=0;
   1662           fl_rx_ppp.fl_7e=0;
   1663           fl_rx_ppp.fl_7d=0;
   \   00000014   ....               LDI     R30, LOW(fl_rx_ppp)
   \   00000016   ....               LDI     R31, (fl_rx_ppp) >> 8
   \   00000018   8100               LD      R16, Z
   \   0000001A   7F08               ANDI    R16, 0xF8
   \   0000001C   8300               ST      Z, R16
   1664           Buf1_rx_ppp.ln_data=0;
   \   0000001E   E000               LDI     R16, 0
   \   00000020   E010               LDI     R17, 0
   \   00000022   ....               LDI     R30, LOW((Buf1_rx_ppp + 330))
   \   00000024   ....               LDI     R31, HIGH((Buf1_rx_ppp + 330))
   \   00000026   8300               ST      Z, R16
   \   00000028   8301               STD     Z+1, R16
   1665           Buf1_rx_ppp.rec=FALSE;
   \   0000002A   9300....           STS     (Buf1_rx_ppp + 332), R16
   1666           Buf1_rx_ppp.busy=FALSE;
   \   0000002E   9300....           STS     (Buf1_rx_ppp + 333), R16
   1667           Buf2_rx_ppp.ln_data=0;
   \   00000032   ....               LDI     R30, LOW((Buf2_rx_ppp + 330))
   \   00000034   ....               LDI     R31, HIGH((Buf2_rx_ppp + 330))
   \   00000036   8300               ST      Z, R16
   \   00000038   8301               STD     Z+1, R16
   1668           Buf2_rx_ppp.rec=FALSE;
   \   0000003A   9300....           STS     (Buf2_rx_ppp + 332), R16
   1669           Buf2_rx_ppp.busy=FALSE;  
   \   0000003E   9300....           STS     (Buf2_rx_ppp + 333), R16
   1670           
   1671            fl_ip.ip_tm_cntr_en=0;   //21.01.2008
   1672            fl_ip.ip_tm_nat_en=0;    //21.01.2008
   \   00000042   ....               LDI     R30, LOW(fl_ip)
   \   00000044   ....               LDI     R31, (fl_ip) >> 8
   \   00000046   8100               LD      R16, Z
   \   00000048   7F09               ANDI    R16, 0xF9
   \   0000004A   8300               ST      Z, R16
   1673            Control.cnt_link=0;      //21.01.2008
   \   0000004C   ....               LDI     R30, LOW(Appl_seq)
   \   0000004E   ....               LDI     R31, (Appl_seq) >> 8
   \   00000050   8F16               STD     Z+30, R17
   \   00000052   8F17               STD     Z+31, R17
   1674            Control.link_waits=FALSE;//21.01.2008
   \   00000054   8F13               STD     Z+27, R17
   1675            Control.cnt_try=0;       //21.01.2008
   \   00000056   A710               STD     Z+40, R17
   1676          }  
   \   00000058   9508               RET
   1677          
   1678          

   \                                 In segment CODE, align 2, keep-with-next
   1679          void clr_var_ppp(void)
   \                     clr_var_ppp:
   1680          {
   \   00000000   01AD               MOVW    R21:R20, R27:R26
   1681          //UCSR0B=UCSR0B & ~TXEN; !!!!!!
   1682          //UCSR0B=UCSR0B & ~TXCIE; !!!!!
   1683          
   1684          count_tx_ppp=0;
   \   00000002   ....               LDI     R16, LOW(Appl_RS485_1)
   \   00000004   ....               LDI     R17, (Appl_RS485_1) >> 8
   \   00000006   E020               LDI     R18, 0
   \   00000008   E030               LDI     R19, 0
   \   0000000A   01F8               MOVW    R31:R30, R17:R16
   \   0000000C   A726               STD     Z+46, R18
   \   0000000E   A727               STD     Z+47, R18
   1685          
   1686          fl_reg3.add_byte=0;
   \   00000010   96FE               ADIW    R31:R30, 62
   \   00000012   8120               LD      R18, Z
   \   00000014   7F2E               ANDI    R18, 0xFE
   \   00000016   8320               ST      Z, R18
   1687          fl_lcp.act_lcp_end=1;
   \   00000018   ....               LDI     R30, LOW(fl_lcp)
   \   0000001A   ....               LDI     R31, (fl_lcp) >> 8
   \   0000001C   8120               LD      R18, Z
   \   0000001E   6021               ORI     R18, 0x01
   \   00000020   8320               ST      Z, R18
   1688          fl_pap.act_pap_end=1;
   \   00000022   ....               LDI     R30, LOW(fl_pap)
   \   00000024   ....               LDI     R31, (fl_pap) >> 8
   \   00000026   8120               LD      R18, Z
   \   00000028   6021               ORI     R18, 0x01
   \   0000002A   8320               ST      Z, R18
   1689          fl_ipcp.act_ipcp_end=1;
   \   0000002C   ....               LDI     R30, LOW(fl_ipcp)
   \   0000002E   ....               LDI     R31, (fl_ipcp) >> 8
   \   00000030   8120               LD      R18, Z
   \   00000032   6021               ORI     R18, 0x01
   \   00000034   8320               ST      Z, R18
   1690          fl_ip.act_ip_end=1;
   \   00000036   ....               LDI     R30, LOW(fl_ip)
   \   00000038   ....               LDI     R31, (fl_ip) >> 8
   \   0000003A   8120               LD      R18, Z
   \   0000003C   6021               ORI     R18, 0x01
   \   0000003E   8320               ST      Z, R18
   1691          
   1692          cnt_rst_lcp=0;
   \   00000040   9330....           STS     cnt_rst_lcp, R19
   1693          cnt_rst_ipcp=0;                      
   \   00000044   9330....           STS     cnt_rst_ipcp, R19
   1694          cnt_rst_pap=0;                     
   \   00000048   9330....           STS     cnt_rst_pap, R19
   1695                                  
   1696          cnt_lcp_tm_out=0;
   \   0000004C   ....               LDI     R30, LOW(cnt_lcp_tm_out)
   \   0000004E   ....               LDI     R31, (cnt_lcp_tm_out) >> 8
   \   00000050   8330               ST      Z, R19
   \   00000052   8331               STD     Z+1, R19
   1697          cnt_ipcp_tm_out=0;
   \   00000054   ....               LDI     R30, LOW(cnt_ipcp_tm_out)
   \   00000056   ....               LDI     R31, (cnt_ipcp_tm_out) >> 8
   \   00000058   8330               ST      Z, R19
   \   0000005A   8331               STD     Z+1, R19
   1698          cnt_pap_tm_out=0;
   \   0000005C   ....               LDI     R30, LOW(cnt_pap_tm_out)
   \   0000005E   ....               LDI     R31, (cnt_pap_tm_out) >> 8
   \   00000060   8330               ST      Z, R19
   \   00000062   8331               STD     Z+1, R19
   1699          cnt_ip_tm_cntr=0;
   \   00000064   ....               LDI     R30, LOW(cnt_ip_tm_cntr)
   \   00000066   ....               LDI     R31, (cnt_ip_tm_cntr) >> 8
   \   00000068   8330               ST      Z, R19
   \   0000006A   8331               STD     Z+1, R19
   \   0000006C   8332               STD     Z+2, R19
   \   0000006E   8333               STD     Z+3, R19
   1700          
   1701          rcvd_protokol=0;
   \   00000070   9330....           STS     rcvd_protokol, R19
   1702          
   1703            i_scr_lcp=0;
   \   00000074   9330....           STS     i_scr_lcp, R19
   1704            i_scan_lcp=0;
   \   00000078   9330....           STS     i_scan_lcp, R19
   1705            i_scj_lcp=0;
   \   0000007C   9330....           STS     i_scj_lcp, R19
   1706            i_str_lcp=0;
   \   00000080   9330....           STS     i_str_lcp, R19
   1707            i_sta_lcp=0;
   \   00000084   9330....           STS     i_sta_lcp, R19
   1708            
   1709            i_scr_ipcp=0;
   \   00000088   9330....           STS     i_scr_ipcp, R19
   1710            i_scan_ipcp=0;
   \   0000008C   9330....           STS     i_scan_ipcp, R19
   1711            i_scj_ipcp=0;
   \   00000090   9330....           STS     i_scj_ipcp, R19
   1712            i_str_ipcp=0;
   \   00000094   9330....           STS     i_str_ipcp, R19
   1713            i_sta_ipcp=0; 
   \   00000098   9330....           STS     i_sta_ipcp, R19
   1714            
   1715            i_scr_pap=0;
   \   0000009C   9330....           STS     i_scr_pap, R19
   1716            
   1717            ip_self[0]=0;
   \   000000A0   01F8               MOVW    R31:R30, R17:R16
   \   000000A2   A732               STD     Z+42, R19
   1718            ip_self[1]=0;
   \   000000A4   A733               STD     Z+43, R19
   1719            ip_self[2]=0;
   \   000000A6   A734               STD     Z+44, R19
   1720            ip_self[3]=0;
   \   000000A8   A735               STD     Z+45, R19
   1721           
   1722            fl_lcp.lcp_tm_out_en=0;
   1723            fl_lcp.t0_pl=0;
   1724            fl_lcp.t0_mi=0;
   \   000000AA   ....               LDI     R30, LOW(fl_lcp)
   \   000000AC   ....               LDI     R31, (fl_lcp) >> 8
   \   000000AE   8120               LD      R18, Z
   \   000000B0   7F21               ANDI    R18, 0xF1
   \   000000B2   8320               ST      Z, R18
   1725          
   1726            fl_ipcp.ipcp_tm_out_en=0;
   1727            fl_ipcp.t0_pl=0;
   1728            fl_ipcp.t0_mi=0;
   \   000000B4   ....               LDI     R30, LOW(fl_ipcp)
   \   000000B6   ....               LDI     R31, (fl_ipcp) >> 8
   \   000000B8   8120               LD      R18, Z
   \   000000BA   7F21               ANDI    R18, 0xF1
   \   000000BC   8320               ST      Z, R18
   1729            
   1730            fl_ip.ip_tm_cntr_en=0; 
   1731            fl_ip.ip_tm_nat_en=0;
   \   000000BE   ....               LDI     R30, LOW(fl_ip)
   \   000000C0   ....               LDI     R31, (fl_ip) >> 8
   \   000000C2   8120               LD      R18, Z
   \   000000C4   7F29               ANDI    R18, 0xF9
   \   000000C6   8320               ST      Z, R18
   1732            
   1733            fl_pap.pap_tm_out_en=0;
   1734            fl_pap.t0_pl=0;
   1735            fl_pap.t0_mi=0;
   1736            fl_pap.up=0;
   \   000000C8   ....               LDI     R30, LOW(fl_pap)
   \   000000CA   ....               LDI     R31, (fl_pap) >> 8
   \   000000CC   8120               LD      R18, Z
   \   000000CE   7E21               ANDI    R18, 0xE1
   \   000000D0   8320               ST      Z, R18
   1737            
   1738            fl_lcp1.up=0;
   1739            fl_lcp1.down=0;
   \   000000D2   ....               LDI     R30, LOW(fl_lcp1)
   \   000000D4   ....               LDI     R31, (fl_lcp1) >> 8
   \   000000D6   8120               LD      R18, Z
   \   000000D8   7F2C               ANDI    R18, 0xFC
   \   000000DA   8320               ST      Z, R18
   1740            
   1741            fl_ipcp1.up=0;
   1742            fl_ipcp1.down=0;
   \   000000DC   ....               LDI     R30, LOW(fl_ipcp1)
   \   000000DE   ....               LDI     R31, (fl_ipcp1) >> 8
   \   000000E0   8120               LD      R18, Z
   \   000000E2   7F2C               ANDI    R18, 0xFC
   \   000000E4   8320               ST      Z, R18
   1743            
   1744            fl_lcp2.nac_rej=0;
   \   000000E6   ....               LDI     R30, LOW(fl_lcp2)
   \   000000E8   ....               LDI     R31, (fl_lcp2) >> 8
   \   000000EA   8120               LD      R18, Z
   \   000000EC   7F2E               ANDI    R18, 0xFE
   \   000000EE   8320               ST      Z, R18
   1745            
   1746            fl_ipcp2.nac_rej=0;
   \   000000F0   ....               LDI     R30, LOW(fl_ipcp2)
   \   000000F2   ....               LDI     R31, (fl_ipcp2) >> 8
   \   000000F4   8120               LD      R18, Z
   \   000000F6   7F2E               ANDI    R18, 0xFE
   \   000000F8   8320               ST      Z, R18
   1747            fl_cts_232.on=0;
   \   000000FA   01F8               MOVW    R31:R30, R17:R16
   \   000000FC   AD21               LDD     R18, Z+57
   \   000000FE   7F2E               ANDI    R18, 0xFE
   \   00000100   AF21               STD     Z+57, R18
   1748            fl_cts_232_ignor=FALSE;
   \   00000102   AF30               STD     Z+56, R19
   1749            
   1750            Control.cnt_link=0;
   1751            Control.cnt_nat=0;
   1752            Control.link_no=FALSE;
   \   00000104   ....               LDI     R30, LOW(Appl_seq)
   \   00000106   ....               LDI     R31, (Appl_seq) >> 8
   \   00000108   8F32               STD     Z+26, R19
   1753            Control.link_waits=FALSE;
   \   0000010A   8F33               STD     Z+27, R19
   1754            Control.cnt_link=0;
   \   0000010C   8F36               STD     Z+30, R19
   \   0000010E   8F37               STD     Z+31, R19
   1755            Control.cnt_nat=0;
   \   00000110   A330               STD     Z+32, R19
   \   00000112   A331               STD     Z+33, R19
   1756            Control.cnt_try=0;
   \   00000114   A730               STD     Z+40, R19
   1757            
   1758            Appl_RS485_1.fl_data_buf=FALSE;
   \   00000116   01D8               MOVW    R27:R26, R17:R16
   \   00000118   933C               ST      X, R19
   1759            Appl_RS485_2.fl_data_buf=FALSE;
   \   0000011A   9653               ADIW    R27:R26, 19
   \   0000011C   933C               ST      X, R19
   1760            Appl_RS485_1.id_tek=0;
   \   0000011E   01D8               MOVW    R27:R26, R17:R16
   \   00000120   9650               ADIW    R27:R26, 16
   \   00000122   933C               ST      X, R19
   1761            Appl_RS485_2.id_tek=0;
   \   00000124   01D8               MOVW    R27:R26, R17:R16
   \   00000126   9693               ADIW    R27:R26, 35
   \   00000128   933C               ST      X, R19
   1762            fl_tx485.mon1=0;
   \   0000012A   01D8               MOVW    R27:R26, R17:R16
   \   0000012C   96DA               ADIW    R27:R26, 58
   \   0000012E   912C               LD      R18, X
   \   00000130   7F2E               ANDI    R18, 0xFE
   \   00000132   932C               ST      X, R18
   1763            
   1764            Appl_seq.cnt_waits=0;
   \   00000134   8731               STD     Z+9, R19
   \   00000136   8732               STD     Z+10, R19
   1765            Appl_seq.cnt_try=0;
   \   00000138   8733               STD     Z+11, R19
   1766            fl_appl_seq.en_tx=0;
   1767            fl_appl_seq.kv_waits=0;
   1768            fl_appl_seq.en_povtor=0;
   \   0000013A   01D8               MOVW    R27:R26, R17:R16
   \   0000013C   96DB               ADIW    R27:R26, 59
   \   0000013E   912C               LD      R18, X
   \   00000140   7F28               ANDI    R18, 0xF8
   \   00000142   932C               ST      X, R18
   1769            Appl_seq.l_data=0;
   \   00000144   8734               STD     Z+12, R19
   \   00000146   8735               STD     Z+13, R19
   1770            
   1771            fl_appl_seq1.enable=0; //21.01.2008
   \   00000148   01D8               MOVW    R27:R26, R17:R16
   \   0000014A   96DC               ADIW    R27:R26, 60
   \   0000014C   912C               LD      R18, X
   \   0000014E   7F2B               ANDI    R18, 0xFB
   \   00000150   932C               ST      X, R18
   1772            
   1773            Appl_seq.cntr_cl=FALSE;
   \   00000152   8B34               STD     Z+20, R19
   1774            Appl_seq.en_cntr_cl=FALSE;
   \   00000154   8B35               STD     Z+21, R19
   1775            Appl_seq.cnt_cntr_cl=0;
   \   00000156   8B36               STD     Z+22, R19
   \   00000158   8B37               STD     Z+23, R19
   1776            
   1777            cnt_cts_off=0;
   \   0000015A   01F8               MOVW    R31:R30, R17:R16
   \   0000015C   AB30               STD     Z+48, R19
   \   0000015E   AB31               STD     Z+49, R19
   1778          }
   \   00000160   01DA               MOVW    R27:R26, R21:R20
   \   00000162   9508               RET
   1779          
   1780          
   1781          
   1782          

   \                                 In segment CODE, align 2, keep-with-next
   1783           void monitor_cntr_ch(void)
   \                     monitor_cntr_ch:
   1784           {
   \   00000000   93BA               ST      -Y, R27
   \   00000002   93AA               ST      -Y, R26
   1785             
   1786             
   1787            if((fl_lcp.act_lcp_end!=1)&&(fl_pap.act_pap_end!=1)||(fl_ipcp.act_ipcp_end!=1)||(fl_ip.act_ip_end!=1))return;
   \   00000004   ....               LDI     R30, LOW(fl_lcp)
   \   00000006   ....               LDI     R31, (fl_lcp) >> 8
   \   00000008   8100               LD      R16, Z
   \   0000000A   7001               ANDI    R16, 0x01
   \   0000000C   ....               LDI     R30, LOW(fl_pap)
   \   0000000E   ....               LDI     R31, (fl_pap) >> 8
   \   00000010   8110               LD      R17, Z
   \   00000012   7011               ANDI    R17, 0x01
   \   00000014   2B10               OR      R17, R16
   \   00000016   ....               LDI     R30, LOW(fl_ipcp)
   \   00000018   ....               LDI     R31, (fl_ipcp) >> 8
   \   0000001A   8100               LD      R16, Z
   \   0000001C   7001               ANDI    R16, 0x01
   \   0000001E   2301               AND     R16, R17
   \   00000020   ....               LDI     R30, LOW(fl_ip)
   \   00000022   ....               LDI     R31, (fl_ip) >> 8
   \   00000024   8110               LD      R17, Z
   \   00000026   7011               ANDI    R17, 0x01
   \   00000028   2310               AND     R17, R16
   \   0000002A   F409               BRNE    $+2+2
   \   0000002C   C07E               RJMP    ??monitor_cntr_ch_0
   1788             
   1789            if(Control.link_waits==TRUE) return; 
   \   0000002E   ....               LDI     R26, LOW(Appl_seq)
   \   00000030   ....               LDI     R27, (Appl_seq) >> 8
   \   00000032   01FD               MOVW    R31:R30, R27:R26
   \   00000034   8D03               LDD     R16, Z+27
   \   00000036   3001               CPI     R16, 1
   \   00000038   F409               BRNE    $+2+2
   \   0000003A   C077               RJMP    ??monitor_cntr_ch_0
   1790            if(Control.link==FALSE) return;  
   \   0000003C   8D04               LDD     R16, Z+28
   \   0000003E   2300               TST     R16
   \   00000040   F409               BRNE    $+2+2
   \   00000042   C073               RJMP    ??monitor_cntr_ch_0
   1791            Control.link=FALSE;
   \   00000044   E000               LDI     R16, 0
   \   00000046   8F04               STD     Z+28, R16
   1792            
   1793            
   1794            
   1795            clr_cntr_nat();
   \   00000048   ....               RCALL   clr_cntr_nat
   1796            
   1797            fl_ip.act_ip_end=0;
   \   0000004A   ....               LDI     R30, LOW(fl_ip)
   \   0000004C   ....               LDI     R31, (fl_ip) >> 8
   \   0000004E   8100               LD      R16, Z
   \   00000050   7F0E               ANDI    R16, 0xFE
   \   00000052   8300               ST      Z, R16
   1798            
   1799            Obj_ppp_tx.prozr=FALSE;      //âĺđńč˙       
   \   00000054   ....               LDI     R18, LOW(Obj_ppp_tx)
   \   00000056   ....               LDI     R19, (Obj_ppp_tx) >> 8
   \   00000058   E000               LDI     R16, 0
   \   0000005A   01F9               MOVW    R31:R30, R19:R18
   \   0000005C   8300               ST      Z, R16
   1800            Obj_ppp_tx.version=VER2;      //âĺđńč˙ 
   \   0000005E   E002               LDI     R16, 2
   \   00000060   8301               STD     Z+1, R16
   1801            Obj_ppp_tx.type_pac=SOOB;     //ňčď ďŕęĺňŕ
   \   00000062   8302               STD     Z+2, R16
   1802            Obj_ppp_tx.num_src=num_self; // íîěĺđ îňďđŕâčňĺë˙
   \   00000064   01FD               MOVW    R31:R30, R27:R26
   \   00000066   AD00               LDD     R16, Z+56
   \   00000068   AD11               LDD     R17, Z+57
   \   0000006A   01F9               MOVW    R31:R30, R19:R18
   \   0000006C   8303               STD     Z+3, R16
   \   0000006E   8314               STD     Z+4, R17
   1803            Obj_ppp_tx.num_dst=NUM_SRV_LINK; // íîěĺđ ďîëó÷ŕňĺë˙
   \   00000070   E000               LDI     R16, 0
   \   00000072   8305               STD     Z+5, R16
   \   00000074   8306               STD     Z+6, R16
   1804            Obj_ppp_tx.id_pac=ID_CC; // čäĺíňčôčęŕňîđ ďŕęĺňŕ  
   \   00000076   8307               STD     Z+7, R16
   1805            Obj_ppp_tx.p_opt=&buf_opt_tr[0]; // //óęŕçŕňĺëü áóôĺđŕ îďöčé  
   \   00000078   ....               LDI     R16, LOW(Appl_RS232_2)
   \   0000007A   ....               LDI     R17, (Appl_RS232_2) >> 8
   \   0000007C   01A8               MOVW    R21:R20, R17:R16
   \   0000007E   5E4D               SUBI    R20, 237
   \   00000080   4F5F               SBCI    R21, 255
   \   00000082   8740               STD     Z+8, R20
   \   00000084   8751               STD     Z+9, R21
   1806            
   1807            Obj_ppp_tx.l_opt=0;// äëčíŕ áóôĺđŕ îďöčé   
   \   00000086   E040               LDI     R20, 0
   \   00000088   8742               STD     Z+10, R20
   1808            buf_opt_tr[0]=1;
   \   0000008A   E041               LDI     R20, 1
   \   0000008C   01F8               MOVW    R31:R30, R17:R16
   \   0000008E   8B43               STD     Z+19, R20
   1809            buf_opt_tr[1]=2;
   \   00000090   E042               LDI     R20, 2
   \   00000092   8B44               STD     Z+20, R20
   1810            buf_opt_tr[2]=3;  
   \   00000094   E043               LDI     R20, 3
   \   00000096   8B45               STD     Z+21, R20
   1811            buf_opt_tr[3]=4;
   \   00000098   E044               LDI     R20, 4
   \   0000009A   8B46               STD     Z+22, R20
   1812            buf_opt_tr[4]=5;
   \   0000009C   E045               LDI     R20, 5
   \   0000009E   8B47               STD     Z+23, R20
   1813            buf_opt_tr[5]=6;
   \   000000A0   E046               LDI     R20, 6
   \   000000A2   8F40               STD     Z+24, R20
   1814            buf_opt_tr[6]=7;
   \   000000A4   E047               LDI     R20, 7
   \   000000A6   8F41               STD     Z+25, R20
   1815            buf_opt_tr[7]=8;
   \   000000A8   E048               LDI     R20, 8
   \   000000AA   8F42               STD     Z+26, R20
   1816            buf_opt_tr[8]=9;  
   \   000000AC   E049               LDI     R20, 9
   \   000000AE   8F43               STD     Z+27, R20
   1817            buf_opt_tr[9]=10;   
   \   000000B0   E04A               LDI     R20, 10
   \   000000B2   8F44               STD     Z+28, R20
   1818            buf_opt_tr[10]=11;  
   \   000000B4   E04B               LDI     R20, 11
   \   000000B6   8F45               STD     Z+29, R20
   1819            
   1820            Obj_ppp_tx.kol_opt=0;// ęîëč÷ĺńňâî îďöčé   
   \   000000B8   E000               LDI     R16, 0
   \   000000BA   01F9               MOVW    R31:R30, R19:R18
   \   000000BC   8703               STD     Z+11, R16
   1821            
   1822            Obj_ppp_tx.l_data=0;   // äëčíŕ äŕííűő
   \   000000BE   8706               STD     Z+14, R16
   \   000000C0   8707               STD     Z+15, R16
   1823            Obj_ppp_tx.p_data=&buf_tx_232[TR_OP_DATA];  //óęŕçŕňĺëü áóôĺđŕ äŕííűő
   \   000000C2   ....               LDI     R16, LOW((buf_tx_232 + 42))
   \   000000C4   ....               LDI     R17, HIGH((buf_tx_232 + 42))
   \   000000C6   8704               STD     Z+12, R16
   \   000000C8   8715               STD     Z+13, R17
   1824            
   1825            
   1826            send_info(sizeof(msg_ctrl_ch),msg_ctrl_ch,1,Obj_ppp_tx.id_pac);
   \   000000CA   8147               LDD     R20, Z+7
   \   000000CC   E011               LDI     R17, 1
   \   000000CE   ....               LDI     R18, LOW(msg_ctrl_ch)
   \   000000D0   ....               LDI     R19, (msg_ctrl_ch) >> 8
   \   000000D2   E00B               LDI     R16, 11
   \   000000D4   ........           CALL    send_info
   1827           
   1828            form_buf_tx_ppp();                            
   \   000000D8   ....               RCALL   form_buf_tx_ppp
   1829          
   1830            Control.cnt_link=Control.vol_waits;
   \   000000DA   01FD               MOVW    R31:R30, R27:R26
   \   000000DC   A106               LDD     R16, Z+38
   \   000000DE   A117               LDD     R17, Z+39
   \   000000E0   8F06               STD     Z+30, R16
   \   000000E2   8F17               STD     Z+31, R17
   1831            Control.link_waits=TRUE;
   \   000000E4   E001               LDI     R16, 1
   \   000000E6   8F03               STD     Z+27, R16
   1832            UCSR0A=UCSR0A | TXC;                            
   \   000000E8   910000C0           LDS     R16, 192
   \   000000EC   6400               ORI     R16, 0x40
   \   000000EE   930000C0           STS     192, R16
   1833            UCSR0B=UCSR0B | TXEN;
   \   000000F2   910000C1           LDS     R16, 193
   \   000000F6   6008               ORI     R16, 0x08
   \   000000F8   930000C1           STS     193, R16
   1834            UCSR0B=UCSR0B | TXCIE;
   \   000000FC   910000C1           LDS     R16, 193
   \   00000100   6400               ORI     R16, 0x40
   \   00000102   930000C1           STS     193, R16
   1835            if(check_cts()==1) return;     
   \   00000106   ........           CALL    check_cts
   \   0000010A   3001               CPI     R16, 1
   \   0000010C   F071               BREQ    ??monitor_cntr_ch_0
   1836            S2_RD;          
   \   0000010E   9A40               SBI     0x08, 0x00
   \   00000110   9841               CBI     0x08, 0x01
   1837            UDR0=buf_tx_232[0];
   \   00000112   9100....           LDS     R16, buf_tx_232
   \   00000116   930000C6           STS     198, R16
   1838            if(Regim==RG_DEBAG) UDR3=buf_tx_232[0];
   \   0000011A   9100....           LDS     R16, Regim
   \   0000011E   3001               CPI     R16, 1
   \   00000120   F421               BRNE    ??monitor_cntr_ch_0
   \   00000122   9100....           LDS     R16, buf_tx_232
   \   00000126   93000136           STS     310, R16
   \                     ??monitor_cntr_ch_0:
   \   0000012A   91A9               LD      R26, Y+
   \   0000012C   91B9               LD      R27, Y+
   \   0000012E   9508               RET
   1839          
   1840            return;     
   1841           
   1842           }  
   1843            
   1844            
   1845           

   \                                 In segment CODE, align 2, keep-with-next
   1846           void monitor_cntr_nat(void)
   \                     monitor_cntr_nat:
   1847           {
   \   00000000   9721               SBIW    R29:R28, 1
   1848           unsigned char temp=NOPPER;
   \   00000002   E000               LDI     R16, 0
   \   00000004   8308               ST      Y, R16
   1849            if((fl_lcp.act_lcp_end!=1)&&(fl_pap.act_pap_end!=1)||(fl_ipcp.act_ipcp_end!=1)||(fl_ip.act_ip_end!=1))return; 
   \   00000006   ....               LDI     R30, LOW(fl_lcp)
   \   00000008   ....               LDI     R31, (fl_lcp) >> 8
   \   0000000A   8100               LD      R16, Z
   \   0000000C   7001               ANDI    R16, 0x01
   \   0000000E   ....               LDI     R30, LOW(fl_pap)
   \   00000010   ....               LDI     R31, (fl_pap) >> 8
   \   00000012   8110               LD      R17, Z
   \   00000014   7011               ANDI    R17, 0x01
   \   00000016   2B10               OR      R17, R16
   \   00000018   ....               LDI     R30, LOW(fl_ipcp)
   \   0000001A   ....               LDI     R31, (fl_ipcp) >> 8
   \   0000001C   8100               LD      R16, Z
   \   0000001E   7001               ANDI    R16, 0x01
   \   00000020   2301               AND     R16, R17
   \   00000022   ....               LDI     R30, LOW(fl_ip)
   \   00000024   ....               LDI     R31, (fl_ip) >> 8
   \   00000026   8110               LD      R17, Z
   \   00000028   7011               ANDI    R17, 0x01
   \   0000002A   2310               AND     R17, R16
   \   0000002C   F1E9               BREQ    ??monitor_cntr_nat_0
   1850             
   1851            if(Control.nat==FALSE) return;    
   \   0000002E   9100....           LDS     R16, (Appl_seq + 29)
   \   00000032   2300               TST     R16
   \   00000034   F1C9               BREQ    ??monitor_cntr_nat_0
   1852            clr_cntr_nat();
   \   00000036   ....               RCALL   clr_cntr_nat
   1853            fl_ip.act_ip_end=0;
   \   00000038   ....               LDI     R30, LOW(fl_ip)
   \   0000003A   ....               LDI     R31, (fl_ip) >> 8
   \   0000003C   8100               LD      R16, Z
   \   0000003E   7F0E               ANDI    R16, 0xFE
   \   00000040   8300               ST      Z, R16
   1854           
   1855            Obj_ppp_tx.prozr=TRUE;           
   \   00000042   ....               LDI     R30, LOW(Obj_ppp_tx)
   \   00000044   ....               LDI     R31, (Obj_ppp_tx) >> 8
   \   00000046   E001               LDI     R16, 1
   \   00000048   8300               ST      Z, R16
   1856            Obj_ppp_tx.l_data=1;   // äëčíŕ äŕííűő
   \   0000004A   E010               LDI     R17, 0
   \   0000004C   8706               STD     Z+14, R16
   \   0000004E   8717               STD     Z+15, R17
   1857            Obj_ppp_tx.p_data=&temp;  //óęŕçŕňĺëü áóôĺđŕ äŕííűő
   \   00000050   018E               MOVW    R17:R16, R29:R28
   \   00000052   8704               STD     Z+12, R16
   \   00000054   8715               STD     Z+13, R17
   1858            
   1859            send_info(sizeof(msg_ctrl_nat),msg_ctrl_nat,0,0);
   \   00000056   E040               LDI     R20, 0
   \   00000058   E010               LDI     R17, 0
   \   0000005A   ....               LDI     R18, LOW(msg_ctrl_nat)
   \   0000005C   ....               LDI     R19, (msg_ctrl_nat) >> 8
   \   0000005E   E00C               LDI     R16, 12
   \   00000060   ........           CALL    send_info
   1860            
   1861            form_buf_tx_ppp();                               
   \   00000064   ....               RCALL   form_buf_tx_ppp
   1862            UCSR0A=UCSR0A | TXC;                            
   \   00000066   910000C0           LDS     R16, 192
   \   0000006A   6400               ORI     R16, 0x40
   \   0000006C   930000C0           STS     192, R16
   1863            UCSR0B=UCSR0B | TXEN;
   \   00000070   910000C1           LDS     R16, 193
   \   00000074   6008               ORI     R16, 0x08
   \   00000076   930000C1           STS     193, R16
   1864            UCSR0B=UCSR0B | TXCIE;
   \   0000007A   910000C1           LDS     R16, 193
   \   0000007E   6400               ORI     R16, 0x40
   \   00000080   930000C1           STS     193, R16
   1865            if(check_cts()==1) return;                
   \   00000084   ........           CALL    check_cts
   \   00000088   3001               CPI     R16, 1
   \   0000008A   F071               BREQ    ??monitor_cntr_nat_0
   1866            S2_RD; 
   \   0000008C   9A40               SBI     0x08, 0x00
   \   0000008E   9841               CBI     0x08, 0x01
   1867            UDR0=buf_tx_232[0];
   \   00000090   9100....           LDS     R16, buf_tx_232
   \   00000094   930000C6           STS     198, R16
   1868            if(Regim==RG_DEBAG) UDR3=buf_tx_232[0];
   \   00000098   9100....           LDS     R16, Regim
   \   0000009C   3001               CPI     R16, 1
   \   0000009E   F421               BRNE    ??monitor_cntr_nat_0
   \   000000A0   9100....           LDS     R16, buf_tx_232
   \   000000A4   93000136           STS     310, R16
   \                     ??monitor_cntr_nat_0:
   \   000000A8   9621               ADIW    R29:R28, 1
   \   000000AA   9508               RET
   1869            return; 
   1870           }
   1871           
   1872           

   \                                 In segment CODE, align 2, keep-with-next
   1873            void monitor_cntr_cl_seq(void)
   \                     monitor_cntr_cl_seq:
   1874           {
   \   00000000   ........           CALL    ?PROLOGUE4_L09
   1875          
   1876            if((fl_lcp.act_lcp_end!=1)&&(fl_pap.act_pap_end!=1)||(fl_ipcp.act_ipcp_end!=1)||(fl_ip.act_ip_end!=1))return;
   \   00000004   ....               LDI     R30, LOW(fl_lcp)
   \   00000006   ....               LDI     R31, (fl_lcp) >> 8
   \   00000008   8100               LD      R16, Z
   \   0000000A   7001               ANDI    R16, 0x01
   \   0000000C   ....               LDI     R30, LOW(fl_pap)
   \   0000000E   ....               LDI     R31, (fl_pap) >> 8
   \   00000010   8110               LD      R17, Z
   \   00000012   7011               ANDI    R17, 0x01
   \   00000014   2B10               OR      R17, R16
   \   00000016   ....               LDI     R30, LOW(fl_ipcp)
   \   00000018   ....               LDI     R31, (fl_ipcp) >> 8
   \   0000001A   8100               LD      R16, Z
   \   0000001C   7001               ANDI    R16, 0x01
   \   0000001E   2301               AND     R16, R17
   \   00000020   ....               LDI     R30, LOW(fl_ip)
   \   00000022   ....               LDI     R31, (fl_ip) >> 8
   \   00000024   8110               LD      R17, Z
   \   00000026   7011               ANDI    R17, 0x01
   \   00000028   2310               AND     R17, R16
   \   0000002A   F409               BRNE    $+2+2
   \   0000002C   C082               RJMP    ??monitor_cntr_cl_seq_0
   1877            if(Appl_seq.cntr_cl==FALSE) return;  
   \   0000002E   ....               LDI     R24, LOW(Appl_seq)
   \   00000030   ....               LDI     R25, (Appl_seq) >> 8
   \   00000032   01FC               MOVW    R31:R30, R25:R24
   \   00000034   8904               LDD     R16, Z+20
   \   00000036   2300               TST     R16
   \   00000038   F409               BRNE    $+2+2
   \   0000003A   C07B               RJMP    ??monitor_cntr_cl_seq_0
   1878            if(Appl_seq.en_cntr_cl==FALSE) return; 
   \   0000003C   8905               LDD     R16, Z+21
   \   0000003E   2300               TST     R16
   \   00000040   F409               BRNE    $+2+2
   \   00000042   C077               RJMP    ??monitor_cntr_cl_seq_0
   1879            Appl_seq.cnt_cntr_cl=Appl_seq.vol_cntr_cl; 
   \   00000044   8D00               LDD     R16, Z+24
   \   00000046   8D11               LDD     R17, Z+25
   \   00000048   8B06               STD     Z+22, R16
   \   0000004A   8B17               STD     Z+23, R17
   1880            Appl_seq.en_cntr_cl=FALSE;
   \   0000004C   E000               LDI     R16, 0
   \   0000004E   8B05               STD     Z+21, R16
   1881          
   1882            if (Appl_seq_des==1)return;// áëîęčđîâęŕ 
   \   00000050   96FE               ADIW    R31:R30, 62
   \   00000052   8100               LD      R16, Z
   \   00000054   3001               CPI     R16, 1
   \   00000056   F409               BRNE    $+2+2
   \   00000058   C06C               RJMP    ??monitor_cntr_cl_seq_0
   1883            
   1884            clr_cntr_nat();
   \   0000005A   ....               RCALL   clr_cntr_nat
   1885            fl_ip.act_ip_end=0;
   \   0000005C   ....               LDI     R30, LOW(fl_ip)
   \   0000005E   ....               LDI     R31, (fl_ip) >> 8
   \   00000060   8100               LD      R16, Z
   \   00000062   7F0E               ANDI    R16, 0xFE
   \   00000064   8300               ST      Z, R16
   1886            Obj_ppp_tx.prozr=FALSE;      //âĺđńč˙       
   \   00000066   ....               LDI     R16, LOW(Obj_ppp_tx)
   \   00000068   ....               LDI     R17, (Obj_ppp_tx) >> 8
   \   0000006A   E020               LDI     R18, 0
   \   0000006C   01F8               MOVW    R31:R30, R17:R16
   \   0000006E   8320               ST      Z, R18
   1887            Obj_ppp_tx.version=VER2;      //âĺđńč˙ 
   \   00000070   E022               LDI     R18, 2
   \   00000072   8321               STD     Z+1, R18
   1888            Obj_ppp_tx.type_pac=ZAPR;     //ňčď ďŕęĺňŕ
   \   00000074   E020               LDI     R18, 0
   \   00000076   8322               STD     Z+2, R18
   1889            Obj_ppp_tx.num_src=num_self; // íîěĺđ îňďđŕâčňĺë˙
   \   00000078   01FC               MOVW    R31:R30, R25:R24
   \   0000007A   AD20               LDD     R18, Z+56
   \   0000007C   AD31               LDD     R19, Z+57
   \   0000007E   01F8               MOVW    R31:R30, R17:R16
   \   00000080   8323               STD     Z+3, R18
   \   00000082   8334               STD     Z+4, R19
   1890            Obj_ppp_tx.num_dst=NUM_SRV_LINK; // íîěĺđ ďîëó÷ŕňĺë˙
   \   00000084   E020               LDI     R18, 0
   \   00000086   8325               STD     Z+5, R18
   \   00000088   8326               STD     Z+6, R18
   1891            Obj_ppp_tx.id_pac=0; // čäĺíňčôčęŕňîđ ďŕęĺňŕ  
   \   0000008A   8327               STD     Z+7, R18
   1892            Obj_ppp_tx.p_opt=&buf_opt_tr[0]; // //óęŕçŕňĺëü áóôĺđŕ îďöčé  
   \   0000008C   ....               LDI     R30, LOW(Appl_RS232_2)
   \   0000008E   ....               LDI     R31, (Appl_RS232_2) >> 8
   \   00000090   019F               MOVW    R19:R18, R31:R30
   \   00000092   5E2D               SUBI    R18, 237
   \   00000094   4F3F               SBCI    R19, 255
   \   00000096   01D8               MOVW    R27:R26, R17:R16
   \   00000098   9618               ADIW    R27:R26, 8
   \   0000009A   932D               ST      X+, R18
   \   0000009C   933C               ST      X, R19
   1893            Obj_ppp_tx.l_opt=0;// äëčíŕ áóôĺđŕ îďöčé   
   \   0000009E   E020               LDI     R18, 0
   \   000000A0   01D8               MOVW    R27:R26, R17:R16
   \   000000A2   961A               ADIW    R27:R26, 10
   \   000000A4   932C               ST      X, R18
   1894            buf_opt_tr[0]=PROT_SL_LS;
   \   000000A6   E023               LDI     R18, 3
   \   000000A8   8B23               STD     Z+19, R18
   1895            buf_opt_tr[1]=COM_CNTR_CL;
   \   000000AA   E022               LDI     R18, 2
   \   000000AC   8B24               STD     Z+20, R18
   1896            *(unsigned int*)&buf_opt_tr[2]=L_COM_CNTR_CL;  
   \   000000AE   E030               LDI     R19, 0
   \   000000B0   8B25               STD     Z+21, R18
   \   000000B2   8B36               STD     Z+22, R19
   1897            *(unsigned int*)&buf_opt_tr[4]=num_seq_cl;
   \   000000B4   01DC               MOVW    R27:R26, R25:R24
   \   000000B6   96DA               ADIW    R27:R26, 58
   \   000000B8   912D               LD      R18, X+
   \   000000BA   913C               LD      R19, X
   \   000000BC   8B27               STD     Z+23, R18
   \   000000BE   8F30               STD     Z+24, R19
   1898            Obj_ppp_tx.kol_opt=0;// ęîëč÷ĺńňâî îďöčé     
   \   000000C0   E020               LDI     R18, 0
   \   000000C2   01D8               MOVW    R27:R26, R17:R16
   \   000000C4   961B               ADIW    R27:R26, 11
   \   000000C6   932C               ST      X, R18
   1899            Obj_ppp_tx.l_data=6;   // äëčíŕ äŕííűő
   \   000000C8   E026               LDI     R18, 6
   \   000000CA   E030               LDI     R19, 0
   \   000000CC   01D8               MOVW    R27:R26, R17:R16
   \   000000CE   961E               ADIW    R27:R26, 14
   \   000000D0   932D               ST      X+, R18
   \   000000D2   933C               ST      X, R19
   1900            Obj_ppp_tx.p_data=&buf_opt_tr[0];  //óęŕçŕňĺëü áóôĺđŕ äŕííűő    
   \   000000D4   9673               ADIW    R31:R30, 19
   \   000000D6   01D8               MOVW    R27:R26, R17:R16
   \   000000D8   961C               ADIW    R27:R26, 12
   \   000000DA   93ED               ST      X+, R30
   \   000000DC   93FC               ST      X, R31
   1901          
   1902             send_info(sizeof(req_out_ctrl_cl),req_out_ctrl_cl,1,Obj_ppp_tx.id_pac);
   \   000000DE   01F8               MOVW    R31:R30, R17:R16
   \   000000E0   8147               LDD     R20, Z+7
   \   000000E2   E011               LDI     R17, 1
   \   000000E4   ....               LDI     R18, LOW(req_out_ctrl_cl)
   \   000000E6   ....               LDI     R19, (req_out_ctrl_cl) >> 8
   \   000000E8   E00C               LDI     R16, 12
   \   000000EA   ........           CALL    send_info
   1903            
   1904            form_buf_tx_ppp();                            
   \   000000EE   ....               RCALL   form_buf_tx_ppp
   1905            UCSR0A=UCSR0A | TXC;                            
   \   000000F0   910000C0           LDS     R16, 192
   \   000000F4   6400               ORI     R16, 0x40
   \   000000F6   930000C0           STS     192, R16
   1906            UCSR0B=UCSR0B | TXEN;
   \   000000FA   910000C1           LDS     R16, 193
   \   000000FE   6008               ORI     R16, 0x08
   \   00000100   930000C1           STS     193, R16
   1907            UCSR0B=UCSR0B | TXCIE;
   \   00000104   910000C1           LDS     R16, 193
   \   00000108   6400               ORI     R16, 0x40
   \   0000010A   930000C1           STS     193, R16
   1908            if(check_cts()==1) return; 
   \   0000010E   ........           CALL    check_cts
   \   00000112   3001               CPI     R16, 1
   \   00000114   F071               BREQ    ??monitor_cntr_cl_seq_0
   1909            S2_RD;               
   \   00000116   9A40               SBI     0x08, 0x00
   \   00000118   9841               CBI     0x08, 0x01
   1910            UDR0=buf_tx_232[0];
   \   0000011A   9100....           LDS     R16, buf_tx_232
   \   0000011E   930000C6           STS     198, R16
   1911            if(Regim==RG_DEBAG) UDR3=buf_tx_232[0];
   \   00000122   9100....           LDS     R16, Regim
   \   00000126   3001               CPI     R16, 1
   \   00000128   F421               BRNE    ??monitor_cntr_cl_seq_0
   \   0000012A   9100....           LDS     R16, buf_tx_232
   \   0000012E   93000136           STS     310, R16
   \                     ??monitor_cntr_cl_seq_0:
   \   00000132   E0E4               LDI     R30, 4
   \   00000134   ........           JMP     ?EPILOGUE_B4_L09
   1912            return;      
   1913           }  
   1914          
   1915          /*
   1916          
   1917          void monitor_change_state(void)
   1918          {
   1919          
   1920          unsigned char buf[10];                                                                           
   1921          
   1922          sv1.tc=struct_tcc1.real_tc;
   1923          
   1924          if (Appl_seq_des==1)return;// áëîęčđîâęŕ îďđîńŕ îőđŕíęč
   1925          
   1926          
   1927          if(fl_appl_seq1.send_state==1)
   1928          {
   1929          fl_appl_seq1.send_state=0;
   1930          buf[0]=SEQ_STATE;
   1931          *(unsigned int*)&buf[1]=L_STATE;
   1932          *(unsigned long int*)&buf[3]=burst_ds_r();
   1933          buf[7]=state_seq;
   1934          buf[8]=sv1.tc & 0x01;
   1935          //buf[9]=0;
   1936          buf[9]=byte_state_net & 0x01;
   1937          if(write_to_buf(&Appl_seq_buf[0],&Appl_seq.p_in,&Appl_seq.p_out,&Appl_seq.p_out_kv,&Appl_seq.crc,&buf[0],L_STATE+3, sizeof(Appl_seq_buf))==1)
   1938            {
   1939             fl_appl_seq1.over_buf=1;
   1940            }
   1941          }
   1942          
   1943          
   1944          
   1945          
   1946          
   1947          if( (sv1.tc & 0x01)!=(sv1.tc_old & 0x01))
   1948            {
   1949            if(sv1.tc & 0x01)Appl_seq.event=EV_TC_NORMA; else Appl_seq.event=EV_TC_ALARM;
   1950            sv1.tc_old=sv1.tc;
   1951            }
   1952          
   1953          
   1954          switch(Appl_seq.state)
   1955          {
   1956          case ST_ALARM:
   1957                                  
   1958                       switch(Appl_seq.event)
   1959                       {
   1960                       case(EV_TC_NORMA):                   
   1961                                   Appl_seq.tm_vzat=Appl_seq.vol_tm_vzat;
   1962                                   Appl_seq.state=ST_VZATIE;
   1963                                   break;
   1964                       case(EV_TM_OUT):
   1965                                   Appl_seq.tm_vzat=Appl_seq.vol_tm_vzat;
   1966                                   break;            
   1967                       default: break;
   1968                       }
   1969               break;
   1970          case ST_VZAT:
   1971          
   1972          
   1973                       switch(Appl_seq.event)
   1974                       {
   1975                       case(EV_TC_ALARM):
   1976                                   send_info(sizeof(evc_alarm),evc_alarm,0,0);
   1977                                  
   1978                                   Appl_seq.tm_vzat=Appl_seq.vol_tm_vzat;
   1979                                   Appl_seq.state=ST_ALARM;
   1980                                   state_seq=ALARM;
   1981                                   buf[0]=ALARM;
   1982                                   *(unsigned int*)&buf[1]=L_ALARM;
   1983                                   *(unsigned long int*)&buf[3]=burst_ds_r();
   1984                                   buf[7]=sv1.tc & 0x01;
   1985                                   buf[8]=0;
   1986                                   if(write_to_buf(&Appl_seq_buf[0],&Appl_seq.p_in,&Appl_seq.p_out,&Appl_seq.p_out_kv,&Appl_seq.crc,&buf[0],L_ALARM+3, sizeof(Appl_seq_buf))==1)
   1987                                   {
   1988                                   fl_appl_seq1.over_buf=1;
   1989                                   }
   1990                                   break;
   1991                       default: break;
   1992                       }
   1993               break;     
   1994          case ST_VZATIE:
   1995                       switch(Appl_seq.event)
   1996                       {
   1997                       case(EV_TC_ALARM):
   1998                                   Appl_seq.tm_vzat=Appl_seq.vol_tm_vzat;
   1999                                   Appl_seq.state=ST_ALARM;
   2000                                   break;
   2001                       case(EV_TM_OUT):
   2002                                   
   2003                                   send_info(sizeof(evc_taken),evc_taken,0,0);
   2004                                   
   2005                                   Appl_seq.state=ST_VZAT;
   2006                                    state_seq=VZAT;
   2007                                    buf[0]=VZAT;
   2008                                   *(unsigned int*)&buf[1]=L_VZAT;
   2009                                   *(unsigned long int*)&buf[3]=burst_ds_r();
   2010                                   buf[7]=sv1.tc & 0x01;
   2011                                   buf[8]=0;
   2012                                   if(write_to_buf(&Appl_seq_buf[0],&Appl_seq.p_in,&Appl_seq.p_out,&Appl_seq.p_out_kv,&Appl_seq.crc,&buf[0],L_VZAT+3, sizeof(Appl_seq_buf))==1)
   2013                                   {
   2014                                   fl_appl_seq1.over_buf=1;
   2015                                   }
   2016                                   break;       
   2017                       default: break;
   2018                       }
   2019               break;          
   2020               
   2021          default: break;
   2022          }
   2023          
   2024          } 
   2025           
   2026           
   2027          */
   2028          
   2029          

   \                                 In segment CODE, align 2, keep-with-next
   2030          void monitor_change_state(void)
   \                     monitor_change_state:
   2031          {
   \   00000000   ........           CALL    ?PROLOGUE5_L09
   \   00000004                      REQUIRE ?Register_R4_is_cg_reg
   \   00000004   972A               SBIW    R29:R28, 10
   2032          
   2033          unsigned char buf[10]; 
   2034          unsigned char flag_msg=0;
   \   00000006   2444               CLR     R4
   2035          
   2036          
   2037          sv1.tc=struct_tcc1.real_tc;
   \   00000008   ....               LDI     R24, LOW(struct_tcc1)
   \   0000000A   ....               LDI     R25, (struct_tcc1) >> 8
   \   0000000C   01FC               MOVW    R31:R30, R25:R24
   \   0000000E   8101               LDD     R16, Z+1
   \   00000010   7001               ANDI    R16, 0x01
   \   00000012   ....               LDI     R30, LOW(state_seq)
   \   00000014   ....               LDI     R31, (state_seq) >> 8
   \   00000016   FB00               BST     R16, 0
   \   00000018   8101               LDD     R16, Z+1
   \   0000001A   F900               BLD     R16, 0
   \   0000001C   8301               STD     Z+1, R16
   2038          switch (struct_tcc1.type)
   \   0000001E   ....               LDI     R26, LOW(Appl_seq)
   \   00000020   ....               LDI     R27, (Appl_seq) >> 8
   \   00000022   01FC               MOVW    R31:R30, R25:R24
   \   00000024   8104               LDD     R16, Z+4
   \   00000026   5001               SUBI    R16, 1
   \   00000028   F019               BREQ    ??monitor_change_state_0
   \   0000002A   950A               DEC     R16
   \   0000002C   F121               BREQ    ??monitor_change_state_1
   \   0000002E   C043               RJMP    ??monitor_change_state_2
   2039          {
   2040          case TC_SUHOI:
   2041                 if(struct_tcc1.cnt_block_tc==0)       
   \                     ??monitor_change_state_0:
   \   00000030   8105               LDD     R16, Z+5
   \   00000032   2300               TST     R16
   \   00000034   F4E9               BRNE    ??monitor_change_state_3
   2042                 {
   2043                   if( (sv1.tc & 0x01)!=(sv1.tc_old & 0x01))
   \   00000036   ....               LDI     R30, LOW(state_seq)
   \   00000038   ....               LDI     R31, (state_seq) >> 8
   \   0000003A   8101               LDD     R16, Z+1
   \   0000003C   7001               ANDI    R16, 0x01
   \   0000003E   8111               LDD     R17, Z+1
   \   00000040   FB11               BST     R17, 1
   \   00000042   E010               LDI     R17, 0
   \   00000044   F910               BLD     R17, 0
   \   00000046   1701               CP      R16, R17
   \   00000048   F099               BREQ    ??monitor_change_state_3
   2044                   { 
   2045                   struct_tcc1.cnt_block_tc=VOL_BLOCK_TC;
   \   0000004A   E003               LDI     R16, 3
   \   0000004C   01FC               MOVW    R31:R30, R25:R24
   \   0000004E   8305               STD     Z+5, R16
   2046                   //óńňŕíîâčňü ôëŕă ĺńňü ńîáűňčĺ
   2047                   flag_msg=1;
   \   00000050   9443               INC     R4
   2048                   sv1.tc_old=sv1.tc;
   \   00000052   ....               LDI     R30, LOW(state_seq)
   \   00000054   ....               LDI     R31, (state_seq) >> 8
   \   00000056   8101               LDD     R16, Z+1
   \   00000058   7001               ANDI    R16, 0x01
   \   0000005A   FB00               BST     R16, 0
   \   0000005C   8101               LDD     R16, Z+1
   \   0000005E   F901               BLD     R16, 1
   \   00000060   8301               STD     Z+1, R16
   2049                   send_info(sizeof(evc_ts1),evc_ts1,0,0);
   \   00000062   E040               LDI     R20, 0
   \   00000064   E010               LDI     R17, 0
   \   00000066   ....               LDI     R18, LOW((evc_taken + 18))
   \   00000068   ....               LDI     R19, HIGH((evc_taken + 18))
   \   0000006A   E007               LDI     R16, 7
   \   0000006C   ........           CALL    send_info
   2050                   }
   2051                 }
   2052                 buf[7]=DES_SEQ;
   \                     ??monitor_change_state_3:
   \   00000070   EF0F               LDI     R16, 255
   \   00000072   830F               STD     Y+7, R16
   \   00000074   C01B               RJMP    ??monitor_change_state_4
   2053                 buf[8]=sv1.tc & 0x01;
   2054                 break;
   2055          case TC_SHL:
   2056                 if( (sv1.tc & 0x01)!=(sv1.tc_old & 0x01))
   \                     ??monitor_change_state_1:
   \   00000076   ....               LDI     R30, LOW(state_seq)
   \   00000078   ....               LDI     R31, (state_seq) >> 8
   \   0000007A   8101               LDD     R16, Z+1
   \   0000007C   7001               ANDI    R16, 0x01
   \   0000007E   8111               LDD     R17, Z+1
   \   00000080   FB11               BST     R17, 1
   \   00000082   E010               LDI     R17, 0
   \   00000084   F910               BLD     R17, 0
   \   00000086   1701               CP      R16, R17
   \   00000088   F089               BREQ    ??monitor_change_state_4
   2057                 {
   2058                   if(sv1.tc & 0x01)Appl_seq.event=EV_TC_NORMA; else Appl_seq.event=EV_TC_ALARM;
   \   0000008A   8101               LDD     R16, Z+1
   \   0000008C   FF00               SBRS    R16, 0
   \   0000008E   C004               RJMP    ??monitor_change_state_5
   \   00000090   E001               LDI     R16, 1
   \   00000092   01FD               MOVW    R31:R30, R27:R26
   \   00000094   8707               STD     Z+15, R16
   \   00000096   C002               RJMP    ??monitor_change_state_6
   \                     ??monitor_change_state_5:
   \   00000098   01FD               MOVW    R31:R30, R27:R26
   \   0000009A   8647               STD     Z+15, R4
   2059                   sv1.tc_old=sv1.tc;
   \                     ??monitor_change_state_6:
   \   0000009C   ....               LDI     R30, LOW(state_seq)
   \   0000009E   ....               LDI     R31, (state_seq) >> 8
   \   000000A0   8101               LDD     R16, Z+1
   \   000000A2   7001               ANDI    R16, 0x01
   \   000000A4   FB00               BST     R16, 0
   \   000000A6   8101               LDD     R16, Z+1
   \   000000A8   F901               BLD     R16, 1
   \   000000AA   8301               STD     Z+1, R16
   2060                 }
   2061                 buf[8]=sv1.tc & 0x01;
   \                     ??monitor_change_state_4:
   \   000000AC   ....               LDI     R30, LOW(state_seq)
   \   000000AE   ....               LDI     R31, (state_seq) >> 8
   \   000000B0   8101               LDD     R16, Z+1
   \   000000B2   7001               ANDI    R16, 0x01
   \   000000B4   C00B               RJMP    ??monitor_change_state_7
   2062                 break;
   2063          default:  
   2064                   buf[7]=DES_SEQ;
   \                     ??monitor_change_state_2:
   \   000000B6   EF0F               LDI     R16, 255
   \   000000B8   830F               STD     Y+7, R16
   2065                   sv1.tc_old=sv1.tc; 
   \   000000BA   ....               LDI     R30, LOW(state_seq)
   \   000000BC   ....               LDI     R31, (state_seq) >> 8
   \   000000BE   8101               LDD     R16, Z+1
   \   000000C0   7001               ANDI    R16, 0x01
   \   000000C2   FB00               BST     R16, 0
   \   000000C4   8101               LDD     R16, Z+1
   \   000000C6   F901               BLD     R16, 1
   \   000000C8   8301               STD     Z+1, R16
   2066                   buf[8]=DES_SEQ;
   \   000000CA   EF0F               LDI     R16, 255
   \                     ??monitor_change_state_7:
   \   000000CC   8708               STD     Y+8, R16
   2067          }
   2068             
   2069          
   2070          sv2.tc=struct_tcc2.real_tc;
   \   000000CE   ....               LDI     R16, LOW(struct_tcc2)
   \   000000D0   ....               LDI     R17, (struct_tcc2) >> 8
   \   000000D2   01F8               MOVW    R31:R30, R17:R16
   \   000000D4   8121               LDD     R18, Z+1
   \   000000D6   7021               ANDI    R18, 0x01
   \   000000D8   ....               LDI     R30, LOW(state_seq)
   \   000000DA   ....               LDI     R31, (state_seq) >> 8
   \   000000DC   FB20               BST     R18, 0
   \   000000DE   8122               LDD     R18, Z+2
   \   000000E0   F920               BLD     R18, 0
   \   000000E2   8322               STD     Z+2, R18
   2071          if(struct_tcc2.type==TC_SUHOI)
   \   000000E4   01F8               MOVW    R31:R30, R17:R16
   \   000000E6   8124               LDD     R18, Z+4
   \   000000E8   3021               CPI     R18, 1
   \   000000EA   F531               BRNE    ??monitor_change_state_8
   2072             {
   2073               if(struct_tcc2.cnt_block_tc==0)
   \   000000EC   8125               LDD     R18, Z+5
   \   000000EE   2322               TST     R18
   \   000000F0   F4F1               BRNE    ??monitor_change_state_9
   2074               {
   2075                 if( (sv2.tc & 0x01)!=(sv2.tc_old & 0x01))
   \   000000F2   ....               LDI     R30, LOW(state_seq)
   \   000000F4   ....               LDI     R31, (state_seq) >> 8
   \   000000F6   8122               LDD     R18, Z+2
   \   000000F8   7021               ANDI    R18, 0x01
   \   000000FA   8132               LDD     R19, Z+2
   \   000000FC   FB31               BST     R19, 1
   \   000000FE   E030               LDI     R19, 0
   \   00000100   F930               BLD     R19, 0
   \   00000102   1723               CP      R18, R19
   \   00000104   F0A1               BREQ    ??monitor_change_state_9
   2076                   {
   2077                     struct_tcc2.cnt_block_tc=VOL_BLOCK_TC;
   \   00000106   E023               LDI     R18, 3
   \   00000108   01F8               MOVW    R31:R30, R17:R16
   \   0000010A   8325               STD     Z+5, R18
   2078                     //óńňŕíîâčňü ôëŕă ĺńňü ńîáűňčĺ;
   2079                     send_info(sizeof(evc_ts2),evc_ts2,0,0);
   \   0000010C   E040               LDI     R20, 0
   \   0000010E   E010               LDI     R17, 0
   \   00000110   ....               LDI     R18, LOW((evc_taken + 25))
   \   00000112   ....               LDI     R19, HIGH((evc_taken + 25))
   \   00000114   E007               LDI     R16, 7
   \   00000116   ........           CALL    send_info
   2080                     flag_msg=1;
   \   0000011A   2444               CLR     R4
   \   0000011C   9443               INC     R4
   2081                     sv2.tc_old=sv2.tc;
   \   0000011E   ....               LDI     R30, LOW(state_seq)
   \   00000120   ....               LDI     R31, (state_seq) >> 8
   \   00000122   8102               LDD     R16, Z+2
   \   00000124   7001               ANDI    R16, 0x01
   \   00000126   FB00               BST     R16, 0
   \   00000128   8102               LDD     R16, Z+2
   \   0000012A   F901               BLD     R16, 1
   \   0000012C   8302               STD     Z+2, R16
   2082                    }
   2083                }
   2084               
   2085               buf[9]=sv2.tc & 0x01;
   \                     ??monitor_change_state_9:
   \   0000012E   ....               LDI     R30, LOW(state_seq)
   \   00000130   ....               LDI     R31, (state_seq) >> 8
   \   00000132   8102               LDD     R16, Z+2
   \   00000134   7001               ANDI    R16, 0x01
   \   00000136   C009               RJMP    ??monitor_change_state_10
   2086             }
   2087          else {sv2.tc_old=sv2.tc; buf[9]=DES_SEQ;}
   \                     ??monitor_change_state_8:
   \   00000138   ....               LDI     R30, LOW(state_seq)
   \   0000013A   ....               LDI     R31, (state_seq) >> 8
   \   0000013C   8102               LDD     R16, Z+2
   \   0000013E   7001               ANDI    R16, 0x01
   \   00000140   FB00               BST     R16, 0
   \   00000142   8102               LDD     R16, Z+2
   \   00000144   F901               BLD     R16, 1
   \   00000146   8302               STD     Z+2, R16
   \   00000148   EF0F               LDI     R16, 255
   \                     ??monitor_change_state_10:
   \   0000014A   8709               STD     Y+9, R16
   2088          
   2089          
   2090          
   2091          
   2092          if(struct_tcc1.type==TC_SHL)
   \   0000014C   01FC               MOVW    R31:R30, R25:R24
   \   0000014E   8104               LDD     R16, Z+4
   \   00000150   3002               CPI     R16, 2
   \   00000152   F009               BREQ    $+2+2
   \   00000154   C049               RJMP    ??monitor_change_state_11
   2093          {
   2094          switch(Appl_seq.state)
   \   00000156   01FD               MOVW    R31:R30, R27:R26
   \   00000158   8902               LDD     R16, Z+18
   \   0000015A   8913               LDD     R17, Z+19
   \   0000015C   8537               LDD     R19, Z+15
   \   0000015E   8526               LDD     R18, Z+14
   \   00000160   5020               SUBI    R18, 0
   \   00000162   F029               BREQ    ??monitor_change_state_12
   \   00000164   952A               DEC     R18
   \   00000166   F081               BREQ    ??monitor_change_state_13
   \   00000168   952A               DEC     R18
   \   0000016A   F101               BREQ    ??monitor_change_state_14
   \   0000016C   C03D               RJMP    ??monitor_change_state_11
   2095          {
   2096          case ST_ALARM:
   2097                                  
   2098                       switch(Appl_seq.event)
   \                     ??monitor_change_state_12:
   \   0000016E   5031               SUBI    R19, 1
   \   00000170   F019               BREQ    ??monitor_change_state_15
   \   00000172   953A               DEC     R19
   \   00000174   F031               BREQ    ??monitor_change_state_16
   \   00000176   C038               RJMP    ??monitor_change_state_11
   2099                       {
   2100                       case(EV_TC_NORMA):                   
   2101                                   Appl_seq.tm_vzat=Appl_seq.vol_tm_vzat;
   \                     ??monitor_change_state_15:
   \   00000178   8B00               STD     Z+16, R16
   \   0000017A   8B11               STD     Z+17, R17
   2102                                   Appl_seq.state=ST_VZATIE;
   \   0000017C   E002               LDI     R16, 2
   \                     ??monitor_change_state_17:
   \   0000017E   8706               STD     Z+14, R16
   \   00000180   C033               RJMP    ??monitor_change_state_11
   2103                                   break;
   2104                       case(EV_TM_OUT):
   2105                                   Appl_seq.tm_vzat=Appl_seq.vol_tm_vzat;
   \                     ??monitor_change_state_16:
   \   00000182   8B00               STD     Z+16, R16
   \   00000184   8B11               STD     Z+17, R17
   \   00000186   C030               RJMP    ??monitor_change_state_11
   2106                                   break;            
   2107                       default: break;
   2108                       }
   2109               break;
   2110          case ST_VZAT:
   2111          
   2112          
   2113                       switch(Appl_seq.event)
   \                     ??monitor_change_state_13:
   \   00000188   5030               SUBI    R19, 0
   \   0000018A   F571               BRNE    ??monitor_change_state_11
   2114                       {
   2115                       case(EV_TC_ALARM):
   2116                                   send_info(sizeof(evc_alarm),evc_alarm,0,0);
   \   0000018C   E040               LDI     R20, 0
   \   0000018E   E010               LDI     R17, 0
   \   00000190   ....               LDI     R18, LOW((evc_taken + 9))
   \   00000192   ....               LDI     R19, HIGH((evc_taken + 9))
   \   00000194   E009               LDI     R16, 9
   \   00000196   ........           CALL    send_info
   2117                                  
   2118                                   Appl_seq.tm_vzat=Appl_seq.vol_tm_vzat;
   \   0000019A   01FD               MOVW    R31:R30, R27:R26
   \   0000019C   8902               LDD     R16, Z+18
   \   0000019E   8913               LDD     R17, Z+19
   \   000001A0   8B00               STD     Z+16, R16
   \   000001A2   8B11               STD     Z+17, R17
   2119                                   Appl_seq.state=ST_ALARM;
   \   000001A4   E000               LDI     R16, 0
   \   000001A6   8706               STD     Z+14, R16
   2120                                   state_seq=ALARM;
   \   000001A8   E004               LDI     R16, 4
   \   000001AA   C014               RJMP    ??monitor_change_state_18
   2121                                   buf[7]=ALARM;
   2122                                   buf[8]=sv1.tc & 0x01;
   2123                                   //óńňŕíîâčňü ôëŕă ĺńňü ńîáűňčĺ;
   2124                                   flag_msg=1;
   2125                                   break;
   2126                       default: break;
   2127                       }
   2128               break;     
   2129          case ST_VZATIE:
   2130                       switch(Appl_seq.event)
   \                     ??monitor_change_state_14:
   \   000001AC   5030               SUBI    R19, 0
   \   000001AE   F019               BREQ    ??monitor_change_state_19
   \   000001B0   5032               SUBI    R19, 2
   \   000001B2   F029               BREQ    ??monitor_change_state_20
   \   000001B4   C019               RJMP    ??monitor_change_state_11
   2131                       {
   2132                       case(EV_TC_ALARM):
   2133                                   Appl_seq.tm_vzat=Appl_seq.vol_tm_vzat;
   \                     ??monitor_change_state_19:
   \   000001B6   8B00               STD     Z+16, R16
   \   000001B8   8B11               STD     Z+17, R17
   2134                                   Appl_seq.state=ST_ALARM;
   \   000001BA   E000               LDI     R16, 0
   \   000001BC   CFE0               RJMP    ??monitor_change_state_17
   2135                                   break;
   2136                       case(EV_TM_OUT):
   2137                                   
   2138                                   send_info(sizeof(evc_taken),evc_taken,0,0);
   \                     ??monitor_change_state_20:
   \   000001BE   E040               LDI     R20, 0
   \   000001C0   E010               LDI     R17, 0
   \   000001C2   ....               LDI     R18, LOW(evc_taken)
   \   000001C4   ....               LDI     R19, (evc_taken) >> 8
   \   000001C6   E009               LDI     R16, 9
   \   000001C8   ........           CALL    send_info
   2139                                   
   2140                                   Appl_seq.state=ST_VZAT;
   \   000001CC   E001               LDI     R16, 1
   \   000001CE   01FD               MOVW    R31:R30, R27:R26
   \   000001D0   8706               STD     Z+14, R16
   2141                                   state_seq=VZAT;
   \   000001D2   E005               LDI     R16, 5
   \                     ??monitor_change_state_18:
   \   000001D4   9300....           STS     state_seq, R16
   2142                                   buf[7]=VZAT;
   \   000001D8   830F               STD     Y+7, R16
   2143                                   buf[8]=sv1.tc & 0x01;
   \   000001DA   ....               LDI     R30, LOW(state_seq)
   \   000001DC   ....               LDI     R31, (state_seq) >> 8
   \   000001DE   8101               LDD     R16, Z+1
   \   000001E0   7001               ANDI    R16, 0x01
   \   000001E2   8708               STD     Y+8, R16
   2144                                   flag_msg=1;
   \   000001E4   2444               CLR     R4
   \   000001E6   9443               INC     R4
   2145                                   //óńňŕíîâčňü ôëŕă ĺńňü ńîáűňčĺ;
   2146                                   break;       
   2147                       default: break;
   2148                       }
   2149               break;          
   2150               
   2151          default: break;
   2152          }
   2153          
   2154          }
   2155          
   2156          
   2157          
   2158          
   2159          
   2160          if (Appl_seq_des==1)return;//áëîęčđîâęŕ ńîîáůĺíčé
   \                     ??monitor_change_state_11:
   \   000001E8   01FD               MOVW    R31:R30, R27:R26
   \   000001EA   96FE               ADIW    R31:R30, 62
   \   000001EC   8100               LD      R16, Z
   \   000001EE   3001               CPI     R16, 1
   \   000001F0   F409               BRNE    $+2+2
   \   000001F2   C040               RJMP    ??monitor_change_state_21
   2161          
   2162          
   2163          if ((flag_msg==1)||(fl_appl_seq1.send_state==1))
   \   000001F4   E001               LDI     R16, 1
   \   000001F6   1640               CP      R4, R16
   \   000001F8   F029               BREQ    ??monitor_change_state_22
   \   000001FA   ....               LDI     R30, LOW((Appl_RS485_1 + 60))
   \   000001FC   ....               LDI     R31, HIGH((Appl_RS485_1 + 60))
   \   000001FE   8100               LD      R16, Z
   \   00000200   FF01               SBRS    R16, 1
   \   00000202   C038               RJMP    ??monitor_change_state_21
   2164          {
   2165          if(fl_appl_seq1.send_state==1)fl_appl_seq1.send_state=0; 
   \                     ??monitor_change_state_22:
   \   00000204   ....               LDI     R30, LOW((Appl_RS485_1 + 60))
   \   00000206   ....               LDI     R31, HIGH((Appl_RS485_1 + 60))
   \   00000208   8100               LD      R16, Z
   \   0000020A   FF01               SBRS    R16, 1
   \   0000020C   C003               RJMP    ??monitor_change_state_23
   \   0000020E   8100               LD      R16, Z
   \   00000210   7F0D               ANDI    R16, 0xFD
   \   00000212   8300               ST      Z, R16
   2166          buf[0]=SEQ_STATE;
   \                     ??monitor_change_state_23:
   \   00000214   E006               LDI     R16, 6
   \   00000216   8308               ST      Y, R16
   2167          *(unsigned int*)&buf[1]=L_STATE;
   \   00000218   E007               LDI     R16, 7
   \   0000021A   E010               LDI     R17, 0
   \   0000021C   8309               STD     Y+1, R16
   \   0000021E   831A               STD     Y+2, R17
   2168          *(unsigned long int*)&buf[3]=burst_ds_r();
   \   00000220   ........           CALL    burst_ds_r
   \   00000224   830B               STD     Y+3, R16
   \   00000226   831C               STD     Y+4, R17
   \   00000228   832D               STD     Y+5, R18
   \   0000022A   833E               STD     Y+6, R19
   2169          if(write_to_buf(&Appl_seq_buf[0],&Appl_seq.p_in,&Appl_seq.p_out,&Appl_seq.p_out_kv,&Appl_seq.crc,&buf[0],L_STATE+3, sizeof(Appl_seq_buf))==1)
   \   0000022C   EC08               LDI     R16, 200
   \   0000022E   E010               LDI     R17, 0
   \   00000230   931A               ST      -Y, R17
   \   00000232   930A               ST      -Y, R16
   \   00000234   E00A               LDI     R16, 10
   \   00000236   931A               ST      -Y, R17
   \   00000238   930A               ST      -Y, R16
   \   0000023A   018E               MOVW    R17:R16, R29:R28
   \   0000023C   5F0C               SUBI    R16, 252
   \   0000023E   4F1F               SBCI    R17, 255
   \   00000240   931A               ST      -Y, R17
   \   00000242   930A               ST      -Y, R16
   \   00000244   018D               MOVW    R17:R16, R27:R26
   \   00000246   5F09               SUBI    R16, 249
   \   00000248   4F1F               SBCI    R17, 255
   \   0000024A   931A               ST      -Y, R17
   \   0000024C   930A               ST      -Y, R16
   \   0000024E   01BD               MOVW    R23:R22, R27:R26
   \   00000250   5F6B               SUBI    R22, 251
   \   00000252   4F7F               SBCI    R23, 255
   \   00000254   01AD               MOVW    R21:R20, R27:R26
   \   00000256   5F4D               SUBI    R20, 253
   \   00000258   4F5F               SBCI    R21, 255
   \   0000025A   9611               ADIW    R27:R26, 1
   \   0000025C   019D               MOVW    R19:R18, R27:R26
   \   0000025E   ....               LDI     R16, LOW(Appl_seq_buf)
   \   00000260   ....               LDI     R17, (Appl_seq_buf) >> 8
   \   00000262   ........           CALL    write_to_buf
   \   00000266   3001               CPI     R16, 1
   \   00000268   F429               BRNE    ??monitor_change_state_21
   2170                                   {
   2171                                   fl_appl_seq1.over_buf=1;
   \   0000026A   ....               LDI     R30, LOW((Appl_RS485_1 + 60))
   \   0000026C   ....               LDI     R31, HIGH((Appl_RS485_1 + 60))
   \   0000026E   8100               LD      R16, Z
   \   00000270   6001               ORI     R16, 0x01
   \   00000272   8300               ST      Z, R16
   \                     ??monitor_change_state_21:
   \   00000274   962A               ADIW    R29:R28, 10
   \   00000276   E0E5               LDI     R30, 5
   \   00000278   ........           JMP     ?EPILOGUE_B5_L09
   2172                                   }
   2173          
   2174          }
   2175          
   2176          
   2177          } 
   2178          
   2179          
   2180           

   \                                 In segment CODE, align 2, keep-with-next
   2181          void Application_SEQ_tx(void)
   \                     Application_SEQ_tx:
   2182          {
   \   00000000   ........           CALL    ?PROLOGUE4_L09
   2183           if(fl_appl_seq1.enable==0)return;
   \   00000004   ....               LDI     R30, LOW(Appl_RS485_1)
   \   00000006   ....               LDI     R31, (Appl_RS485_1) >> 8
   \   00000008   96FC               ADIW    R31:R30, 60
   \   0000000A   8100               LD      R16, Z
   \   0000000C   FF02               SBRS    R16, 2
   \   0000000E   C0C9               RJMP    ??Application_SEQ_tx_0
   2184            
   2185           if (Appl_seq_des==1)return;// áëîęčđîâęŕ ńîîáůĺíčé
   \   00000010   ....               LDI     R24, LOW(Appl_seq)
   \   00000012   ....               LDI     R25, (Appl_seq) >> 8
   \   00000014   01FC               MOVW    R31:R30, R25:R24
   \   00000016   96FE               ADIW    R31:R30, 62
   \   00000018   8100               LD      R16, Z
   \   0000001A   3001               CPI     R16, 1
   \   0000001C   F409               BRNE    $+2+2
   \   0000001E   C0C1               RJMP    ??Application_SEQ_tx_0
   2186           
   2187           if(Appl_seq.cntr_cl==TRUE) return;
   \   00000020   01FC               MOVW    R31:R30, R25:R24
   \   00000022   8904               LDD     R16, Z+20
   \   00000024   3001               CPI     R16, 1
   \   00000026   F409               BRNE    $+2+2
   \   00000028   C0BC               RJMP    ??Application_SEQ_tx_0
   2188           
   2189           if((fl_lcp.act_lcp_end!=1)&&(fl_pap.act_pap_end!=1)||(fl_ipcp.act_ipcp_end!=1)||(fl_ip.act_ip_end!=1))return;
   \   0000002A   ....               LDI     R30, LOW(fl_lcp)
   \   0000002C   ....               LDI     R31, (fl_lcp) >> 8
   \   0000002E   8100               LD      R16, Z
   \   00000030   7001               ANDI    R16, 0x01
   \   00000032   ....               LDI     R30, LOW(fl_pap)
   \   00000034   ....               LDI     R31, (fl_pap) >> 8
   \   00000036   8110               LD      R17, Z
   \   00000038   7011               ANDI    R17, 0x01
   \   0000003A   2B10               OR      R17, R16
   \   0000003C   ....               LDI     R30, LOW(fl_ipcp)
   \   0000003E   ....               LDI     R31, (fl_ipcp) >> 8
   \   00000040   8100               LD      R16, Z
   \   00000042   7001               ANDI    R16, 0x01
   \   00000044   2301               AND     R16, R17
   \   00000046   ....               LDI     R30, LOW(fl_ip)
   \   00000048   ....               LDI     R31, (fl_ip) >> 8
   \   0000004A   8110               LD      R17, Z
   \   0000004C   7011               ANDI    R17, 0x01
   \   0000004E   2310               AND     R17, R16
   \   00000050   F409               BRNE    $+2+2
   \   00000052   C0A7               RJMP    ??Application_SEQ_tx_0
   2190                //ďđîâĺđ˙ňü çäĺńü ăîňîâî ëč äë˙ îňďđŕâęč áóôĺđ PPP 
   2191                
   2192            
   2193                  Obj_ppp_tx.l_data=read_from_buf(&Appl_seq_buf[0],&Appl_seq.p_in,&Appl_seq.p_out,&Appl_seq.p_out_kv,&Appl_seq.crc,&buf_tx_232[TR_OP_DATA+C1_DATA],sizeof(Appl_seq_buf));  
   \   00000054   ....               LDI     R26, LOW(Obj_ppp_tx)
   \   00000056   ....               LDI     R27, (Obj_ppp_tx) >> 8
   \   00000058   EC08               LDI     R16, 200
   \   0000005A   E010               LDI     R17, 0
   \   0000005C   931A               ST      -Y, R17
   \   0000005E   930A               ST      -Y, R16
   \   00000060   ....               LDI     R16, LOW(buf_tx_232)
   \   00000062   ....               LDI     R17, (buf_tx_232) >> 8
   \   00000064   5D04               SUBI    R16, 212
   \   00000066   4F1F               SBCI    R17, 255
   \   00000068   931A               ST      -Y, R17
   \   0000006A   930A               ST      -Y, R16
   \   0000006C   018C               MOVW    R17:R16, R25:R24
   \   0000006E   5F09               SUBI    R16, 249
   \   00000070   4F1F               SBCI    R17, 255
   \   00000072   931A               ST      -Y, R17
   \   00000074   930A               ST      -Y, R16
   \   00000076   01BC               MOVW    R23:R22, R25:R24
   \   00000078   5F6B               SUBI    R22, 251
   \   0000007A   4F7F               SBCI    R23, 255
   \   0000007C   01AC               MOVW    R21:R20, R25:R24
   \   0000007E   5F4D               SUBI    R20, 253
   \   00000080   4F5F               SBCI    R21, 255
   \   00000082   019C               MOVW    R19:R18, R25:R24
   \   00000084   5F2F               SUBI    R18, 255
   \   00000086   4F3F               SBCI    R19, 255
   \   00000088   ....               LDI     R16, LOW(Appl_seq_buf)
   \   0000008A   ....               LDI     R17, (Appl_seq_buf) >> 8
   \   0000008C   ........           CALL    read_from_buf
   \   00000090   01FD               MOVW    R31:R30, R27:R26
   \   00000092   8706               STD     Z+14, R16
   \   00000094   8717               STD     Z+15, R17
   2194                    if(Obj_ppp_tx.l_data!=0)
   \   00000096   8506               LDD     R16, Z+14
   \   00000098   8517               LDD     R17, Z+15
   \   0000009A   2F20               MOV     R18, R16
   \   0000009C   2B21               OR      R18, R17
   \   0000009E   F409               BRNE    $+2+2
   \   000000A0   C080               RJMP    ??Application_SEQ_tx_0
   2195                     {
   2196                        // ďđčđŕůĺíčĺ čäĺíňčôčęŕňîđŕ
   2197                        if(Appl_seq.l_data!=Obj_ppp_tx.l_data)
   \   000000A2   01FC               MOVW    R31:R30, R25:R24
   \   000000A4   8524               LDD     R18, Z+12
   \   000000A6   8535               LDD     R19, Z+13
   \   000000A8   1720               CP      R18, R16
   \   000000AA   0731               CPC     R19, R17
   \   000000AC   F409               BRNE    $+2+2
   \   000000AE   C079               RJMP    ??Application_SEQ_tx_0
   2198                           {
   2199                           if(fl_appl_seq.en_povtor==0)Appl_seq.id++;
   \   000000B0   ....               LDI     R30, LOW(Appl_RS485_1)
   \   000000B2   ....               LDI     R31, (Appl_RS485_1) >> 8
   \   000000B4   AD03               LDD     R16, Z+59
   \   000000B6   FD02               SBRC    R16, 2
   \   000000B8   C004               RJMP    ??Application_SEQ_tx_1
   \   000000BA   01FC               MOVW    R31:R30, R25:R24
   \   000000BC   8100               LD      R16, Z
   \   000000BE   9503               INC     R16
   \   000000C0   8300               ST      Z, R16
   2200                           }else return;
   2201                         
   2202          
   2203                         
   2204                         Appl_seq.cnt_waits=Control.vol_waits;              
   \                     ??Application_SEQ_tx_1:
   \   000000C2   01FC               MOVW    R31:R30, R25:R24
   \   000000C4   A106               LDD     R16, Z+38
   \   000000C6   A117               LDD     R17, Z+39
   \   000000C8   8701               STD     Z+9, R16
   \   000000CA   8712               STD     Z+10, R17
   2205                         fl_appl_seq.kv_waits=1;      
   2206                         fl_appl_seq.en_povtor=0;  
   \   000000CC   ....               LDI     R30, LOW(Appl_RS485_1)
   \   000000CE   ....               LDI     R31, (Appl_RS485_1) >> 8
   \   000000D0   AD03               LDD     R16, Z+59
   \   000000D2   7F0B               ANDI    R16, 0xFB
   \   000000D4   6002               ORI     R16, 0x02
   \   000000D6   AF03               STD     Z+59, R16
   2207                         Appl_seq.l_data=Obj_ppp_tx.l_data;
   \   000000D8   01FD               MOVW    R31:R30, R27:R26
   \   000000DA   8506               LDD     R16, Z+14
   \   000000DC   8517               LDD     R17, Z+15
   \   000000DE   01FC               MOVW    R31:R30, R25:R24
   \   000000E0   8704               STD     Z+12, R16
   \   000000E2   8715               STD     Z+13, R17
   2208                       
   2209                       
   2210                       //ôîđěčđîâŕíčĺ íŕ ďĺđĺäŕ÷ó â áóôôĺđ
   2211                         clr_cntr_nat();
   \   000000E4   ....               RCALL   clr_cntr_nat
   2212                        
   2213                        // clr_cntr_link_2(); // proverka
   2214                         
   2215                         fl_ip.act_ip_end=0;
   \   000000E6   ....               LDI     R30, LOW(fl_ip)
   \   000000E8   ....               LDI     R31, (fl_ip) >> 8
   \   000000EA   8100               LD      R16, Z
   \   000000EC   7F0E               ANDI    R16, 0xFE
   \   000000EE   8300               ST      Z, R16
   2216            
   2217                         Obj_ppp_tx.prozr=FALSE;            
   \   000000F0   E000               LDI     R16, 0
   \   000000F2   930C               ST      X, R16
   2218                         Obj_ppp_tx.version=VER2;      //âĺđńč˙ 
   \   000000F4   E002               LDI     R16, 2
   \   000000F6   01FD               MOVW    R31:R30, R27:R26
   \   000000F8   8301               STD     Z+1, R16
   2219                         Obj_ppp_tx.type_pac=SOOB;     //ňčď ďŕęĺňŕ
   \   000000FA   8302               STD     Z+2, R16
   2220                         Obj_ppp_tx.num_src=num_self; // íîěĺđ îňďđŕâčňĺë˙
   \   000000FC   01FC               MOVW    R31:R30, R25:R24
   \   000000FE   AD00               LDD     R16, Z+56
   \   00000100   AD11               LDD     R17, Z+57
   \   00000102   01FD               MOVW    R31:R30, R27:R26
   \   00000104   8303               STD     Z+3, R16
   \   00000106   8314               STD     Z+4, R17
   2221                         Obj_ppp_tx.num_dst=num_seq_cl; // íîěĺđ ďîëó÷ŕňĺë˙ // ďîňîě óńňŕíîâčňü ďîäóěŕňü íĺ îňîřëĺňń˙ ëč ýňî äđóăčě ęîňíđîëëĺđŕě
   \   00000108   01FC               MOVW    R31:R30, R25:R24
   \   0000010A   AD02               LDD     R16, Z+58
   \   0000010C   AD13               LDD     R17, Z+59
   \   0000010E   01FD               MOVW    R31:R30, R27:R26
   \   00000110   8305               STD     Z+5, R16
   \   00000112   8316               STD     Z+6, R17
   2222                         Obj_ppp_tx.id_pac=Appl_seq.id; // čäĺíňčôčęŕňîđ ďŕęĺňŕ  
   \   00000114   01FC               MOVW    R31:R30, R25:R24
   \   00000116   8100               LD      R16, Z
   \   00000118   01FD               MOVW    R31:R30, R27:R26
   \   0000011A   8307               STD     Z+7, R16
   2223                         Obj_ppp_tx.p_opt=&buf_opt_tr[0]; // //óęŕçŕňĺëü áóôĺđŕ îďöčé  
   \   0000011C   ....               LDI     R16, LOW((Appl_RS232_2 + 19))
   \   0000011E   ....               LDI     R17, HIGH((Appl_RS232_2 + 19))
   \   00000120   8700               STD     Z+8, R16
   \   00000122   8711               STD     Z+9, R17
   2224                         Obj_ppp_tx.l_opt=0;// äëčíŕ áóôĺđŕ îďöčé   
   \   00000124   E000               LDI     R16, 0
   \   00000126   8702               STD     Z+10, R16
   2225                         Obj_ppp_tx.kol_opt=0;// ęîëč÷ĺńňâî îďöčé 
   \   00000128   8703               STD     Z+11, R16
   2226            
   2227          
   2228                         buf_tx_232[TR_OP_DATA+C1_PROT]=PROT_C1;
   \   0000012A   E001               LDI     R16, 1
   \   0000012C   ....               LDI     R30, LOW(buf_tx_232)
   \   0000012E   ....               LDI     R31, (buf_tx_232) >> 8
   \   00000130   A702               STD     Z+42, R16
   2229                         buf_tx_232[TR_OP_DATA+C1_PORT]=PORT_SEQ;
   \   00000132   E004               LDI     R16, 4
   \   00000134   A703               STD     Z+43, R16
   2230                         
   2231                         Obj_ppp_tx.l_data=2+Obj_ppp_tx.l_data;   // äëčíŕ äŕííűő
   \   00000136   01FD               MOVW    R31:R30, R27:R26
   \   00000138   8506               LDD     R16, Z+14
   \   0000013A   8517               LDD     R17, Z+15
   \   0000013C   5F0E               SUBI    R16, 254
   \   0000013E   4F1F               SBCI    R17, 255
   \   00000140   8706               STD     Z+14, R16
   \   00000142   8717               STD     Z+15, R17
   2232                         Obj_ppp_tx.p_data=&buf_tx_232[TR_OP_DATA+C1_PROT];  //óęŕçŕňĺëü áóôĺđŕ äŕííűő 
   \   00000144   ....               LDI     R16, LOW(buf_tx_232)
   \   00000146   ....               LDI     R17, (buf_tx_232) >> 8
   \   00000148   5D06               SUBI    R16, 214
   \   0000014A   4F1F               SBCI    R17, 255
   \   0000014C   8704               STD     Z+12, R16
   \   0000014E   8715               STD     Z+13, R17
   2233           
   2234                         send_info(sizeof(msg_evc),msg_evc,1,Obj_ppp_tx.id_pac);
   \   00000150   8147               LDD     R20, Z+7
   \   00000152   E011               LDI     R17, 1
   \   00000154   ....               LDI     R18, LOW(msg_evc)
   \   00000156   ....               LDI     R19, (msg_evc) >> 8
   \   00000158   E007               LDI     R16, 7
   \   0000015A   ........           CALL    send_info
   2235                         
   2236                         form_buf_tx_ppp();    
   \   0000015E   ....               RCALL   form_buf_tx_ppp
   2237                         
   2238                                          
   2239                         UCSR0A=UCSR0A | TXC;                            
   \   00000160   910000C0           LDS     R16, 192
   \   00000164   6400               ORI     R16, 0x40
   \   00000166   930000C0           STS     192, R16
   2240                         UCSR0B=UCSR0B | TXEN;
   \   0000016A   910000C1           LDS     R16, 193
   \   0000016E   6008               ORI     R16, 0x08
   \   00000170   930000C1           STS     193, R16
   2241                         UCSR0B=UCSR0B | TXCIE;
   \   00000174   910000C1           LDS     R16, 193
   \   00000178   6400               ORI     R16, 0x40
   \   0000017A   930000C1           STS     193, R16
   2242                         if(check_cts()==1) return;                
   \   0000017E   ........           CALL    check_cts
   \   00000182   3001               CPI     R16, 1
   \   00000184   F071               BREQ    ??Application_SEQ_tx_0
   2243                         S2_RD;
   \   00000186   9A40               SBI     0x08, 0x00
   \   00000188   9841               CBI     0x08, 0x01
   2244                         UDR0=buf_tx_232[0];
   \   0000018A   ....               LDI     R30, LOW(buf_tx_232)
   \   0000018C   ....               LDI     R31, (buf_tx_232) >> 8
   \   0000018E   8100               LD      R16, Z
   \   00000190   930000C6           STS     198, R16
   2245                         if(Regim==RG_DEBAG) UDR3=buf_tx_232[0];
   \   00000194   9100....           LDS     R16, Regim
   \   00000198   3001               CPI     R16, 1
   \   0000019A   F419               BRNE    ??Application_SEQ_tx_0
   \   0000019C   8100               LD      R16, Z
   \   0000019E   93000136           STS     310, R16
   \                     ??Application_SEQ_tx_0:
   \   000001A2   E0E4               LDI     R30, 4
   \   000001A4   ........           JMP     ?EPILOGUE_B4_L09
   2246          
   2247                          return;     
   2248                     }    
   2249          
   2250           
   2251           }
   2252          
   2253          

   \                                 In segment CODE, align 2, keep-with-next
   2254           void check_wdt(void)
   \                     check_wdt:
   2255           {
   \   00000000   ........           CALL    ?PROLOGUE4_L09
   2256           fl_wdt.clr_wdt=0;  
   \   00000004   ....               LDI     R26, LOW(Appl_RS485_1)
   \   00000006   ....               LDI     R27, (Appl_RS485_1) >> 8
   \   00000008   01FD               MOVW    R31:R30, R27:R26
   \   0000000A   A907               LDD     R16, Z+55
   \   0000000C   7F0E               ANDI    R16, 0xFE
   \   0000000E   AB07               STD     Z+55, R16
   2257            
   2258           if (fl_wdt.fl_out==1)
   \   00000010   A907               LDD     R16, Z+55
   \   00000012   FF01               SBRS    R16, 1
   \   00000014   C031               RJMP    ??check_wdt_0
   2259               {                 
   2260               
   2261                           
   2262               if((fl_wdt.from_timer0!=1)||(fl_wdt.fl_main!=1)||
   2263                  (fl_wdt.from_timer3!=1)||
   2264                  (fl_wdt.from_timer2!=1)||
   2265                  (fl_wdt.from_adc!=1))
   \   00000016   A907               LDD     R16, Z+55
   \   00000018   770C               ANDI    R16, 0x7C
   \   0000001A   370C               CPI     R16, 124
   \   0000001C   F031               BREQ    ??check_wdt_1
   2266                  {
   2267                  write_log_info(ST_ERROR,ERR1);
   \   0000001E   E011               LDI     R17, 1
   \   00000020   E002               LDI     R16, 2
   \   00000022   ........           CALL    write_log_info
   2268                  lock_it();
   \   00000026   ........           CALL    lock_it
   2269                  }
   2270          
   2271               if (prov_ozu!=crc_ozu())
   \                     ??check_wdt_1:
   \   0000002A   ....               LDI     R30, LOW(prov_ozu)
   \   0000002C   ....               LDI     R31, (prov_ozu) >> 8
   \   0000002E   8180               LD      R24, Z
   \   00000030   8191               LDD     R25, Z+1
   \   00000032   ........           CALL    crc_ozu
   \   00000036   1780               CP      R24, R16
   \   00000038   0791               CPC     R25, R17
   \   0000003A   F031               BREQ    ??check_wdt_2
   2272                   {
   2273                   write_log_info(ST_ERROR,ERR2);
   \   0000003C   E012               LDI     R17, 2
   \   0000003E   E002               LDI     R16, 2
   \   00000040   ........           CALL    write_log_info
   2274                   lock_it();
   \   00000044   ........           CALL    lock_it
   2275                   }
   2276               
   2277               if(*(unsigned int*)&keys[L_KEYS-2]!=crc_m1(&keys[0],L_KEYS-2,0xffff))
   \                     ??check_wdt_2:
   \   00000048   ....               LDI     R16, LOW(keys)
   \   0000004A   ....               LDI     R17, (keys) >> 8
   \   0000004C   01F8               MOVW    R31:R30, R17:R16
   \   0000004E   8580               LDD     R24, Z+8
   \   00000050   8591               LDD     R25, Z+9
   \   00000052   EF4F               LDI     R20, 255
   \   00000054   EF5F               LDI     R21, 255
   \   00000056   E028               LDI     R18, 8
   \   00000058   E030               LDI     R19, 0
   \   0000005A   ........           CALL    crc_m1
   \   0000005E   1780               CP      R24, R16
   \   00000060   0791               CPC     R25, R17
   \   00000062   F031               BREQ    ??check_wdt_3
   2278               {
   2279                 write_log_info(ST_ERROR,ERR3);
   \   00000064   E013               LDI     R17, 3
   \   00000066   E002               LDI     R16, 2
   \   00000068   ........           CALL    write_log_info
   2280                 lock_it();
   \   0000006C   ........           CALL    lock_it
   2281               }
   2282               
   2283               
   2284               fl_wdt.from_timer0=0; 
   2285               fl_wdt.from_timer3=0; 
   2286               fl_wdt.from_timer2=0;
   2287               fl_wdt.fl_main=0;    
   2288               fl_wdt.fl_out=0;  
   \                     ??check_wdt_3:
   \   00000070   01FD               MOVW    R31:R30, R27:R26
   \   00000072   A907               LDD     R16, Z+55
   \   00000074   7C01               ANDI    R16, 0xC1
   \   00000076   AB07               STD     Z+55, R16
   2289               }  
   2290            __watchdog_reset();   
   \                     ??check_wdt_0:
   \   00000078   95A8               WDR
   2291           }  
   \   0000007A   E0E4               LDI     R30, 4
   \   0000007C   ........           JMP     ?EPILOGUE_B4_L09
   2292          
   2293          
   2294          
   2295          
   2296          

   \                                 In segment CODE, align 2, keep-with-next
   2297          void modem_engine(void)  
   \                     modem_engine:
   2298          {
   \   00000000   93BA               ST      -Y, R27
   \   00000002   93AA               ST      -Y, R26
   2299            start_func_stm_on();//ďîäŕ÷ŕ ďčňŕíč˙-âęëţ÷ĺíčĺ ěîäĺěŕ â đŕáî÷ĺě đĺćčěĺ
   \   00000004   ........           CALL    start_func_stm_on
   \   00000008   C006               RJMP    ??modem_engine_0
   2300            //fl_wdt.fl_main=1;
   2301            
   2302            while(1){
   2303                      
   2304                      
   2305                      
   2306                     if(fl_wdt.clr_wdt==1) check_wdt();
   2307                     fl_wdt.fl_main=1; 
   2308                     
   2309                     
   2310                     supervisorwdt();
   2311                      
   2312                      
   2313                      monitor_change_state(); // çŕďčńč ńîńňî˙íčč îőđŕíű
   2314          
   2315                      control_temperatura();
   2316                      
   2317                      switch(state_modem)
   2318                         {
   2319                           case STM_ON: 
   2320                                        
   2321                                        switch(event_modem)
   2322                                               {
   2323                                               case EVM_TM1:
   2324                                                            
   2325                                                            start_func_stm_kon();
   2326                                                            break;  
   2327                                              
   2328                                               case EVM_NONE: break;
   2329                                               
   2330                                                               
   2331                                               default:            
   2332                                                               write_log_info(ST_ERROR,ERR8);
   2333                                                               lock_it();        
   2334                                                               break;
   2335                                               }
   2336                            break;
   2337                            
   2338                           case STM_KON: 
   2339                                        
   2340                                        switch(event_modem)
   2341                                               {
   2342                                               case EVM_TM1:
   2343                                                            start_func_stm_pwk();
   2344                                                            break;
   2345                                                            
   2346                                               case EVM_NONE: break;
   2347                                               
   2348                                                               
   2349                                              default:            
   2350                                                               write_log_info(ST_ERROR,ERR8);
   2351                                                              lock_it();        
   2352                                                               break;
   2353                                               }
   2354                            break;  
   2355                         
   2356                          case STM_PWK: 
   2357                                        
   2358                                        switch(event_modem)
   2359                                               {
   2360                                               case EVM_TM1:
   2361                                                            send_info(sizeof(stm_si),stm_si,0,0);
   2362                                                            state_modem=STM_SI;
   2363                                                            init_scen_stm_si();
   2364                                                            event_modem=EVM_NONE;
   2365                                                            command_AT=TRUE;// âęëţ÷ĺí ęîěěŕíäíűé đĺćčě
   2366                                               break;
   2367                                               
   2368                                                            
   2369                                               case EVM_NONE: break;
   2370                                                               
   2371                                                default: 
   2372                                                          write_log_info(ST_ERROR,ERR8);
   2373                                                          lock_it();
   2374                                                         break; 
   2375                                               
   2376                                               }
   2377                            break; 
   2378                         
   2379                         case STM_SI:
   2380                                       // âűďîëíĺíčĺ ďđîöĺäóđ - ńöĺíŕđčé
   2381                                        at_com_tx(cnt_com);
   2382                                        at_com_rx(cnt_com);
   2383                                        at_com_scen_init(&cnt_com,&rep);
   2384               
   2385                                        switch(event_modem)
   2386                                               {
   2387                                               case EVM_AT_OK:
   2388                                                             send_info(sizeof(stm_sc),stm_sc,0,0);
   2389                                                             write_log_info(ST_MODEM,MDM_INIT); 
   2390                                                             state_modem=STM_SC;
   2391                                                             init_scen_stm_sc();
   2392                                                             event_modem=EVM_NONE;
   2393                                                             command_AT=TRUE;// âęëţ÷ĺí ęîěěŕíäíűé đĺćčě
   2394                                               break;
   2395                                               case EVM_AT_ERR:
   2396                                                              send_info(sizeof(evm_at_err),evm_at_err,0,0); 
   2397                                                              start_func_stm_off();
   2398          
   2399                                               break;
   2400                                               
   2401                                               
   2402                                                            
   2403                                              case EVM_NONE:
   2404                                                               if(Fl_ch_sim==1)
   2405                                                                  {
   2406                                                                   send_info(sizeof(evm_ch_sim),evm_ch_sim,0,0); 
   2407                                                                  //âűęëţ÷ŕĺě ěîäĺě ńđŕçó!!!!
   2408                                                                   state_modem=STM_OFF;
   2409                                                                   start_func_stm_off();
   2410                                                                   event_modem=EVM_NONE;
   2411                                                                   command_AT=TRUE;// âęëţ÷ĺí ęîěěŕíäíűé đĺćčě
   2412                                                            /////////////////////////////////////////////     
   2413                                                                  }break;
   2414                                                               
   2415                                                default: 
   2416                                                         write_log_info(ST_ERROR,ERR8);
   2417                                                         lock_it();
   2418                                                         break; 
   2419                                               
   2420                                               }
   2421                            break;
   2422                            
   2423                         
   2424                         case STM_SC:
   2425                                             // âűďîëíĺíčĺ ďđîöĺäóđ - ńöĺíŕđčé
   2426                                             
   2427                                        at_com_tx(cnt_com);
   2428                                        at_com_rx(cnt_com);
   2429                                        at_com_scen_stm_sc(&cnt_com,&rep);                                   
   2430                                        switch(event_modem)
   2431                                               {
   2432                                               case EVM_AT_OK:
   2433                                                             send_info(sizeof(stm_scp),stm_scp,0,0);
   2434                                                             write_log_info(ST_MODEM,MDM_CON); 
   2435                                                             state_modem=STM_SCP;
   2436                                                             start_func_stm_scp();
   2437                                                             event_modem=EVM_NONE;
   2438           
   2439                                               break;
   2440                                               case EVM_AT_ERR:
   2441                                                             send_info(sizeof(evm_at_err),evm_at_err,0,0);
   2442                                                             start_func_stm_off();
   2443                                               break;
   2444                                               
   2445                                               
   2446                                                            
   2447                                               case EVM_NONE: break;
   2448                                                               
   2449                                                default: write_log_info(ST_ERROR,ERR8);
   2450                                                         lock_it();
   2451                                                         break; 
   2452                                               
   2453                                               }
   2454                            break;
   2455                            
   2456                        
   2457                         case STM_SCP:
   2458                                             
   2459                           
   2460                                                // âűďîëíĺíčĺ ďđîöĺäóđ - ńöĺíŕđčé
   2461                                      analiz_ppp_rx();          
   2462                                    
   2463                                   
   2464                                       if (layer_PPP!=LAYER_HW) 
   2465                                                       {
   2466                                                        monitor_event_LCP();   
   2467                                                        monitor_act_LCP();  
   2468                                                        }  
   2469                                       
   2470                                    
   2471                                                  if (layer_PPP==LAYER_PAP) 
   2472                                                       {
   2473              
   2474                                                         monitor_event_PAP();   
   2475                                                         monitor_act_PAP();  
   2476                                                       }  
   2477          
   2478                                             
   2479                          
   2480                                                  if ((layer_PPP!=LAYER_HW)&&(layer_PPP!=LAYER_PAP)) 
   2481                                                       {
   2482                                                          
   2483                                                          monitor_event_IPCP();   
   2484                                                          monitor_act_IPCP();  
   2485                                                       } 
   2486                                                  
   2487                                                 
   2488                    
   2489                             
   2490                                                    
   2491                                                  
   2492                                                   if(PINE & DCD0==0)event_modem=EVM_DCD_ERR;
   2493          
   2494                                                  
   2495                                          
   2496                                                  
   2497                            
   2498                                         switch(event_modem)
   2499                                               {                                  
   2500                                               case EVM_NONE: break;
   2501                                               case EVM_PPP_OK:
   2502                                                             send_info(sizeof(stm_ppp),stm_ppp,0,0);
   2503                                                             write_log_info(ST_SET_PPP,SET_PPP_OK); 
   2504                                                             
   2505                                                             S5_OFF;
   2506                                                             
   2507                                                             state_led_md=LED_MD_PPP;
   2508                                                             cnt_stm_tm1=0;
   2509                                                             state_modem=STM_PPP;
   2510                                                             event_modem=EVM_NONE;
   2511                                                             command_AT=FALSE;// âűęëţ÷ĺí ęîěěŕíäíűé đĺćčě
   2512                                                             
   2513                                                             //!!!!!! dobavka
   2514                                                             if((simka==SIM_RES)&&(cnt_link_res==0))cnt_link_res=vol_cnt_link_res;
   2515                                                             //EEEEEEEEE dobavka
   2516                                                             
   2517                                                             break;
   2518                                               case EVM_TM1: 
   2519                                                            send_info(sizeof(evm_tm),evm_tm,0,0);
   2520                                                            write_log_info(ST_SET_PPP,SET_PPP_TM); 
   2521                                                            goto err_set_ppp;
   2522                                               case EVM_PPP_ERR: 
   2523                                                            send_info(sizeof(evm_ppp_err),evm_ppp_err,0,0);
   2524                                                            write_log_info(ST_SET_PPP,SET_PPP_RJ);
   2525                                                            goto err_set_ppp;   
   2526                                               case EVM_DCD_ERR:
   2527                                                             send_info(sizeof(evm_dcd_err),evm_dcd_err,0,0);
   2528                                                             write_log_info(ST_SET_PPP,SET_PPP_DCD);
   2529                                                             goto err_set_ppp;
   2530                                               case EVM_CTS_ERR:
   2531                                                             send_info(sizeof(evm_cts_err),evm_cts_err,0,0);
   2532                                                             write_log_info(ST_SET_PPP,SET_PPP_CTS); 
   2533                                                 err_set_ppp:  
   2534                                                      
   2535                                                             
   2536                                                                //  st_gprs_att();
   2537                                                                cnt_cts_off=0;             
   2538                                                                fl_cts_232_ignor=TRUE;
   2539                                                                state_modem=STM_RDC; 
   2540                                                                clr_var_ppp_rx();//îáíóëčňü âńĺ ÷ňî ęŕńŕĺňń˙ ďđčĺěó ďî GPRS č çŕďđĺňčňü ďđčĺě
   2541                                                                event_modem=EVM_NONE;
   2542                                                                command_AT=FALSE;// âűęëţ÷ĺí ęîěěŕíäíűé đĺćčě
   2543                                               break;
   2544                                               
   2545                                               
   2546                                               default:  write_log_info(ST_ERROR,ERR8);
   2547                                                         lock_it();
   2548                                                         break; 
   2549                                               
   2550                                               }
   2551                                               
   2552                                               
   2553                                               
   2554                            break;
   2555                            
   2556                            case STM_PPP:
   2557                                                        
   2558                                                          
   2559                                                          analiz_ppp_rx();  
   2560                                                         
   2561                                                          
   2562                                                          monitor_event_IPCP();   
   2563                                                          monitor_act_IPCP();  
   2564                                                         
   2565                                                          
   2566                                                           monitor1_tx_rs485_1();   //GPRS-řňŕňíűé RS485_1
   2567                                                           monitor1_rec_rs485_1();
   2568                                                           monitor1_tm_rs485_1();
   2569                         
   2570                         
   2571                                                           monitor1_tx_rs485_2();   //GPRS-řňŕňíűé RS485_2
   2572                                                           monitor1_rec_rs485_2();
   2573                                                           monitor1_tm_rs485_2();
   2574                            
   2575                                                           monitor1_tx_rs232_2();   //GPRS-řňŕňíűé RS232_2
   2576                                                           monitor1_rec_rs232_2();
   2577                                                           monitor1_tm_rs232_2();
   2578                                                           
   2579          
   2580                                                          Application_SEQ_tx();// ěîíčňîđ ďĺđĺäŕ÷č ńîîáůĺíčé îőđŕíű              
   2581                                                       
   2582                                                          monitor_cntr_ch();
   2583                                                          monitor_cntr_cl_seq();
   2584                                                          monitor_cntr_nat(); 
   2585                                                
   2586                                                         
   2587                                        
   2588                                        
   2589                                        
   2590                                        if(((PINE & DCD0)==0) || (Fl_ch_sim==1))  //dobavka
   2591                                        {
   2592                                        if((fl_tx485.mon1==0)&&(fl_tx485.mon2==0)&&(fl_tx485.mon232_2==0)&&(fl_ip.act_ip_end==1)) 
   2593                                         {
   2594                                             //!!!!!! dobavka
   2595                                          if(Fl_ch_sim==1)
   2596                                          {
   2597                                          send_info(sizeof(evm_ch_sim),evm_ch_sim,0,0);
   2598                                          write_log_info(ST_PPP,PPP_CH_SIM);  
   2599                                          }
   2600                                          else
   2601                                          {
   2602                                          send_info(sizeof(evm_dcd_err),evm_dcd_err,0,0);
   2603                                          write_log_info(ST_PPP,PPP_DCD);
   2604                                          }
   2605                                          //EEEEEEEEEEE dobavka
   2606                                        //  st_gprs_att(); !!!!!!!!!!!!!!!!!!!!!11
   2607                                          cnt_cts_off=0;
   2608                                          state_modem=STM_RDC; 
   2609                                          clr_var_ppp_rx();//îáíóëčňü âńĺ ÷ňî ęŕńŕĺňń˙ ďđčĺěó ďî GPRS č çŕďđĺňčňü ďđčĺě
   2610                                          command_AT=FALSE;// âűęëţ÷ĺí ęîěěŕíäíűé đĺćčě
   2611                                          //event_modem=EVM_RDC; //21.01.2008
   2612                                          event_modem=EVM_NONE;
   2613                                         }
   2614                                        }
   2615                                        
   2616                                        
   2617          
   2618          
   2619          
   2620          
   2621                            
   2622                                         switch(event_modem)
   2623                                               {                                  
   2624          
   2625                                               case EVM_PPP_ERR:
   2626                                                                send_info(sizeof(evm_ppp_err),evm_ppp_err,0,0);
   2627                                                                write_log_info(ST_PPP,PPP_RJ);
   2628                                                                goto err_ppp;
   2629                                                                                                            
   2630                                               case EVM_MS_LMT:
   2631                                                                send_info(sizeof(evm_no_rec),evm_no_rec,0,0);
   2632                                                                write_log_info(ST_PPP,PPP_LS); 
   2633                                                                goto err_ppp; 
   2634                                               case EVM_CTS_ERR:
   2635                                                                send_info(sizeof(evm_cts_err),evm_cts_err,0,0);
   2636                                                                write_log_info(ST_PPP,PPP_CTS);
   2637                                                         err_ppp:      
   2638                                                  //              st_gprs_att();
   2639                                                                cnt_cts_off=0;
   2640                                                                fl_cts_232_ignor=TRUE;
   2641                                                                state_modem=STM_RDC; 
   2642                                                                clr_var_ppp_rx();//îáíóëčňü âńĺ ÷ňî ęŕńŕĺňń˙ ďđčĺěó ďî GPRS č çŕďđĺňčňü ďđčĺě
   2643                                                                event_modem=EVM_NONE;
   2644                                                                command_AT=FALSE;// âűęëţ÷ĺí ęîěěŕíäíűé đĺćčě
   2645                                               break;
   2646                                           
   2647                                               }
   2648                            break;
   2649                            
   2650                            case STM_RDC:
   2651                                                          //GPRS-řňŕňíűé RS485 
   2652                                                          monitor1_rec_rs485_1();
   2653                                                          monitor1_tm_rs485_1();
   2654                         
   2655                                                        //GPRS-řňŕňíűé RS485 
   2656                                                          monitor1_rec_rs485_2();
   2657                                                          monitor1_tm_rs485_2();  
   2658                                                          
   2659                                                          //GPRS-řňŕňíűé RS232 
   2660                                                          monitor1_rec_rs232_2();
   2661                                                          monitor1_tm_rs232_2();  
   2662                                                          
   2663                                                          
   2664                                                          if((fl_tx485.mon1==0)&&(fl_tx485.mon2==0)&&(fl_tx485.mon232_2==0)&&(fl_ip.act_ip_end==1))//!!!!!!!!!!!!!!!!!!!!!!!!!!!!!!!!!
   2665                                                             {
   2666                                                             fl_cts_232_ignor=FALSE;
   2667                                                             event_modem=EVM_RDC;
   2668                                                             }
   2669                                                            
   2670          
   2671                                         
   2672                                         switch(event_modem)
   2673                                               {
   2674                                               case EVM_RDC:
   2675                                                            /*
   2676                                                            write_log_info(ST_CLR_PPP,CLR_PPP_RDY); 
   2677                                                           
   2678                                                             state_modem=STM_DC;
   2679                                                                 //îáíóëĺíčĺ ppp ďĺđĺěĺííűő
   2680                                                                 //č çŕďđňčňü ďĺđĺäŕ÷ó ďî GPRS
   2681                                                             UCSR0B=UCSR0B & ~TXEN;
   2682                                                             UCSR0B=UCSR0B & ~TXCIE;
   2683                                                             clr_var_ppp();   
   2684                                                             init_scen_stm_dc_1();
   2685                                                             event_modem=EVM_NONE;
   2686                                                             command_AT=TRUE;// âęëţ÷ĺí ęîěěŕíäíűé đĺćčě
   2687                                                             //SVD2_1_OFF;!!!!!
   2688                                                             //SVD2_2_OFF;!!!!!!!!!
   2689                                                             */
   2690                                                            
   2691                                                            //âűęëţ÷ŕĺě ěîäĺě ńđŕçó!!!!
   2692                                                             write_log_info(ST_CLR_PPP,CLR_PPP_RDY); 
   2693                                                             state_modem=STM_OFF;
   2694                                                             start_func_stm_off();
   2695                                                             event_modem=EVM_NONE;
   2696                                                             command_AT=TRUE;// âęëţ÷ĺí ęîěěŕíäíűé đĺćčě
   2697                                                            ///////////////////////////////////////////// 
   2698                                                             
   2699                                               break;
   2700                                               }
   2701                            
   2702                            break;
   2703                            
   2704                            case STM_DC:
   2705                                        
   2706                                        at_com_tx(cnt_com);
   2707                                        at_com_rx(cnt_com);
   2708                                        at_com_scen_stm_dc_1(&cnt_com,&rep);  
   2709                                         
   2710                                         
   2711                                         switch(event_modem)
   2712                                               {
   2713                                               case EVM_AT_OK:
   2714                                                             write_log_info(ST_CLR_PPP,CLR_PPP_OK);
   2715                                                             state_modem=STM_SC;
   2716                                                             init_scen_stm_sc();
   2717                                                             event_modem=EVM_NONE;
   2718                                                             command_AT=TRUE;// âęëţ÷ĺí ęîěěŕíäíűé đĺćčě
   2719                                                             
   2720                                               break;
   2721                                               case EVM_AT_ERR:
   2722                                                             write_log_info(ST_CLR_PPP,CLR_PPP_ERR);
   2723                                                             state_modem=STM_OFF;
   2724                                                             start_func_stm_off();
   2725                                                             event_modem=EVM_NONE;
   2726                                                             command_AT=TRUE;// âęëţ÷ĺí ęîěěŕíäíűé đĺćčě
   2727                                                             
   2728                                               break;
   2729                                               }
   2730                            break;
   2731                            
   2732                            
   2733                            case STM_OFF:
   2734                                         switch(event_modem)
   2735                                               {
   2736                                               case EVM_TM1:
   2737                                                           
   2738                                                            start_func_stm_on();
   2739                                                            event_modem=EVM_NONE;
   2740                                                            break;
   2741                                               
   2742                                               case EVM_NONE: break;
   2743                                                               
   2744                                                default: 
   2745                                                         write_log_info(ST_ERROR,ERR8);
   2746                                                         lock_it();
   2747                                                         break;              
   2748                                               }
   2749                            break;
   2750                   
   2751                            
   2752                           default: 
   2753                             write_log_info(ST_ERROR,ERR9);    
   \                     ??modem_engine_1:
   \   0000000A   E019               LDI     R17, 9
   \                     ??modem_engine_2:
   \   0000000C   E002               LDI     R16, 2
   \   0000000E   ........           CALL    write_log_info
   2754                             lock_it();
   \   00000012   ........           CALL    lock_it
   \                     ??modem_engine_0:
   \   00000016   ....               LDI     R26, LOW(Appl_RS485_1)
   \   00000018   ....               LDI     R27, (Appl_RS485_1) >> 8
   \   0000001A   01FD               MOVW    R31:R30, R27:R26
   \   0000001C   A907               LDD     R16, Z+55
   \   0000001E   FD00               SBRC    R16, 0
   \   00000020   ....               RCALL   check_wdt
   \                     ??modem_engine_3:
   \   00000022   01FD               MOVW    R31:R30, R27:R26
   \   00000024   A907               LDD     R16, Z+55
   \   00000026   6008               ORI     R16, 0x08
   \   00000028   AB07               STD     Z+55, R16
   \   0000002A   ........           CALL    supervisorwdt
   \   0000002E   ....               RCALL   monitor_change_state
   \   00000030   ........           CALL    control_temperatura
   \   00000034   01FD               MOVW    R31:R30, R27:R26
   \   00000036   A902               LDD     R16, Z+50
   \   00000038   ....               LDI     R30, LOW(`?<Jumptable for modem_engine>_0`)
   \   0000003A   ....               LDI     R31, (`?<Jumptable for modem_engine>_0`) >> 16
   \   0000003C   BFFB               OUT     0x3B, R31
   \   0000003E   ....               LDI     R31, HIGH(`?<Jumptable for modem_engine>_0`)
   \   00000040   ........           JMP     ?CV_SWITCH_L06
   \                     ??modem_engine_4:
   \   00000044   01FD               MOVW    R31:R30, R27:R26
   \   00000046   A903               LDD     R16, Z+51
   \   00000048   5000               SUBI    R16, 0
   \   0000004A   F329               BREQ    ??modem_engine_0
   \   0000004C   950A               DEC     R16
   \   0000004E   F419               BRNE    ??modem_engine_5
   \   00000050   ........           CALL    start_func_stm_kon
   \   00000054   CFE0               RJMP    ??modem_engine_0
   \                     ??modem_engine_5:
   \   00000056   E018               LDI     R17, 8
   \   00000058   CFD9               RJMP    ??modem_engine_2
   \                     ??modem_engine_6:
   \   0000005A   01FD               MOVW    R31:R30, R27:R26
   \   0000005C   A903               LDD     R16, Z+51
   \   0000005E   5000               SUBI    R16, 0
   \   00000060   F2D1               BREQ    ??modem_engine_0
   \   00000062   950A               DEC     R16
   \   00000064   F7C1               BRNE    ??modem_engine_5
   \   00000066   ........           CALL    start_func_stm_pwk
   \   0000006A   CFD5               RJMP    ??modem_engine_0
   \                     ??modem_engine_7:
   \   0000006C   01FD               MOVW    R31:R30, R27:R26
   \   0000006E   A903               LDD     R16, Z+51
   \   00000070   5000               SUBI    R16, 0
   \   00000072   F289               BREQ    ??modem_engine_0
   \   00000074   950A               DEC     R16
   \   00000076   F779               BRNE    ??modem_engine_5
   \   00000078   E040               LDI     R20, 0
   \   0000007A   E010               LDI     R17, 0
   \   0000007C   ....               LDI     R18, LOW(stm_si)
   \   0000007E   ....               LDI     R19, (stm_si) >> 8
   \   00000080   E006               LDI     R16, 6
   \   00000082   ........           CALL    send_info
   \   00000086   E004               LDI     R16, 4
   \   00000088   01FD               MOVW    R31:R30, R27:R26
   \   0000008A   AB02               STD     Z+50, R16
   \   0000008C   ........           CALL    init_scen_stm_si
   \                     ??modem_engine_8:
   \   00000090   E000               LDI     R16, 0
   \   00000092   01FD               MOVW    R31:R30, R27:R26
   \   00000094   AB03               STD     Z+51, R16
   \   00000096   E001               LDI     R16, 1
   \                     ??modem_engine_9:
   \   00000098   AB04               STD     Z+52, R16
   \   0000009A   CFBD               RJMP    ??modem_engine_0
   \                     ??modem_engine_10:
   \   0000009C   9100....           LDS     R16, cnt_com
   \   000000A0   ........           CALL    at_com_tx
   \   000000A4   9100....           LDS     R16, cnt_com
   \   000000A8   ........           CALL    at_com_rx
   \   000000AC   ....               LDI     R18, LOW(rep)
   \   000000AE   ....               LDI     R19, (rep) >> 8
   \   000000B0   ....               LDI     R16, LOW(cnt_com)
   \   000000B2   ....               LDI     R17, (cnt_com) >> 8
   \   000000B4   ........           CALL    at_com_scen_init
   \   000000B8   01FD               MOVW    R31:R30, R27:R26
   \   000000BA   A903               LDD     R16, Z+51
   \   000000BC   5000               SUBI    R16, 0
   \   000000BE   F101               BREQ    ??modem_engine_11
   \   000000C0   5002               SUBI    R16, 2
   \   000000C2   F019               BREQ    ??modem_engine_12
   \                     ??modem_engine_13:
   \   000000C4   950A               DEC     R16
   \   000000C6   F091               BREQ    ??modem_engine_14
   \   000000C8   CFC6               RJMP    ??modem_engine_5
   \                     ??modem_engine_12:
   \   000000CA   E040               LDI     R20, 0
   \   000000CC   E010               LDI     R17, 0
   \   000000CE   ....               LDI     R18, LOW((stm_si + 6))
   \   000000D0   ....               LDI     R19, HIGH((stm_si + 6))
   \   000000D2   E006               LDI     R16, 6
   \   000000D4   ........           CALL    send_info
   \   000000D8   E013               LDI     R17, 3
   \   000000DA   E003               LDI     R16, 3
   \                     ??modem_engine_15:
   \   000000DC   ........           CALL    write_log_info
   \   000000E0   E005               LDI     R16, 5
   \   000000E2   01FD               MOVW    R31:R30, R27:R26
   \   000000E4   AB02               STD     Z+50, R16
   \   000000E6   ........           CALL    init_scen_stm_sc
   \   000000EA   CFD2               RJMP    ??modem_engine_8
   \                     ??modem_engine_14:
   \   000000EC   E040               LDI     R20, 0
   \   000000EE   E010               LDI     R17, 0
   \   000000F0   ....               LDI     R18, LOW((stm_si + 32))
   \   000000F2   ....               LDI     R19, HIGH((stm_si + 32))
   \   000000F4   E00A               LDI     R16, 10
   \   000000F6   ........           CALL    send_info
   \   000000FA   ........           CALL    start_func_stm_off
   \   000000FE   CF8B               RJMP    ??modem_engine_0
   \                     ??modem_engine_11:
   \   00000100   A906               LDD     R16, Z+54
   \   00000102   3001               CPI     R16, 1
   \   00000104   F009               BREQ    $+2+2
   \   00000106   CF87               RJMP    ??modem_engine_0
   \   00000108   E040               LDI     R20, 0
   \   0000010A   E010               LDI     R17, 0
   \   0000010C   ....               LDI     R18, LOW((stm_si + 85))
   \   0000010E   ....               LDI     R19, HIGH((stm_si + 85))
   \   00000110   E00A               LDI     R16, 10
   \   00000112   ........           CALL    send_info
   \                     ??modem_engine_16:
   \   00000116   E00A               LDI     R16, 10
   \   00000118   01FD               MOVW    R31:R30, R27:R26
   \   0000011A   AB02               STD     Z+50, R16
   \   0000011C   ........           CALL    start_func_stm_off
   \   00000120   CFB7               RJMP    ??modem_engine_8
   \                     ??modem_engine_17:
   \   00000122   9100....           LDS     R16, cnt_com
   \   00000126   ........           CALL    at_com_tx
   \   0000012A   9100....           LDS     R16, cnt_com
   \   0000012E   ........           CALL    at_com_rx
   \   00000132   ....               LDI     R18, LOW(rep)
   \   00000134   ....               LDI     R19, (rep) >> 8
   \   00000136   ....               LDI     R16, LOW(cnt_com)
   \   00000138   ....               LDI     R17, (cnt_com) >> 8
   \   0000013A   ........           CALL    at_com_scen_stm_sc
   \   0000013E   01FD               MOVW    R31:R30, R27:R26
   \   00000140   A903               LDD     R16, Z+51
   \   00000142   5000               SUBI    R16, 0
   \   00000144   F409               BRNE    $+2+2
   \   00000146   CF67               RJMP    ??modem_engine_0
   \   00000148   5002               SUBI    R16, 2
   \   0000014A   F009               BREQ    $+2+2
   \   0000014C   CFBB               RJMP    ??modem_engine_13
   \   0000014E   E040               LDI     R20, 0
   \   00000150   E010               LDI     R17, 0
   \   00000152   ....               LDI     R18, LOW((stm_si + 12))
   \   00000154   ....               LDI     R19, HIGH((stm_si + 12))
   \   00000156   E007               LDI     R16, 7
   \   00000158   ........           CALL    send_info
   \   0000015C   E014               LDI     R17, 4
   \   0000015E   E003               LDI     R16, 3
   \   00000160   ........           CALL    write_log_info
   \   00000164   E006               LDI     R16, 6
   \   00000166   01FD               MOVW    R31:R30, R27:R26
   \   00000168   AB02               STD     Z+50, R16
   \   0000016A   ........           CALL    start_func_stm_scp
   \                     ??modem_engine_18:
   \   0000016E   E000               LDI     R16, 0
   \   00000170   01FD               MOVW    R31:R30, R27:R26
   \   00000172   AB03               STD     Z+51, R16
   \   00000174   CF50               RJMP    ??modem_engine_0
   \                     ??modem_engine_19:
   \   00000176   ........           CALL    analiz_ppp_rx
   \   0000017A   01FD               MOVW    R31:R30, R27:R26
   \   0000017C   96FD               ADIW    R31:R30, 61
   \   0000017E   8100               LD      R16, Z
   \   00000180   2300               TST     R16
   \   00000182   F021               BREQ    ??modem_engine_20
   \   00000184   ........           CALL    monitor_event_LCP
   \   00000188   ........           CALL    monitor_act_LCP
   \                     ??modem_engine_20:
   \   0000018C   01FD               MOVW    R31:R30, R27:R26
   \   0000018E   96FD               ADIW    R31:R30, 61
   \   00000190   8100               LD      R16, Z
   \   00000192   3002               CPI     R16, 2
   \   00000194   F421               BRNE    ??modem_engine_21
   \   00000196   ........           CALL    monitor_event_PAP
   \   0000019A   ........           CALL    monitor_act_PAP
   \                     ??modem_engine_21:
   \   0000019E   01FD               MOVW    R31:R30, R27:R26
   \   000001A0   96FD               ADIW    R31:R30, 61
   \   000001A2   8100               LD      R16, Z
   \   000001A4   2300               TST     R16
   \   000001A6   F031               BREQ    ??modem_engine_22
   \   000001A8   3002               CPI     R16, 2
   \   000001AA   F021               BREQ    ??modem_engine_22
   \   000001AC   ........           CALL    monitor_event_IPCP
   \   000001B0   ........           CALL    monitor_act_IPCP
   \                     ??modem_engine_22:
   \   000001B4   B10C               IN      R16, 0x0C
   \   000001B6   01FD               MOVW    R31:R30, R27:R26
   \   000001B8   A903               LDD     R16, Z+51
   \   000001BA   5000               SUBI    R16, 0
   \   000001BC   F409               BRNE    $+2+2
   \   000001BE   CF2B               RJMP    ??modem_engine_0
   \   000001C0   950A               DEC     R16
   \   000001C2   F1F1               BREQ    ??modem_engine_23
   \   000001C4   5003               SUBI    R16, 3
   \   000001C6   F051               BREQ    ??modem_engine_24
   \   000001C8   950A               DEC     R16
   \   000001CA   F409               BRNE    $+2+2
   \   000001CC   C042               RJMP    ??modem_engine_25
   \   000001CE   950A               DEC     R16
   \   000001D0   F409               BRNE    $+2+2
   \   000001D2   C048               RJMP    ??modem_engine_26
   \   000001D4   5003               SUBI    R16, 3
   \   000001D6   F409               BRNE    $+2+2
   \   000001D8   C04E               RJMP    ??modem_engine_27
   \   000001DA   CF3D               RJMP    ??modem_engine_5
   \                     ??modem_engine_24:
   \   000001DC   E040               LDI     R20, 0
   \   000001DE   E010               LDI     R17, 0
   \   000001E0   ....               LDI     R18, LOW((stm_si + 19))
   \   000001E2   ....               LDI     R19, HIGH((stm_si + 19))
   \   000001E4   E007               LDI     R16, 7
   \   000001E6   ........           CALL    send_info
   \   000001EA   E012               LDI     R17, 2
   \   000001EC   E004               LDI     R16, 4
   \   000001EE   ........           CALL    write_log_info
   \   000001F2   9846               CBI     0x08, 0x06
   \   000001F4   9847               CBI     0x08, 0x07
   \   000001F6   E005               LDI     R16, 5
   \   000001F8   9300....           STS     state_led_md, R16
   \   000001FC   E000               LDI     R16, 0
   \   000001FE   01FD               MOVW    R31:R30, R27:R26
   \   00000200   AB05               STD     Z+53, R16
   \   00000202   E007               LDI     R16, 7
   \   00000204   AB02               STD     Z+50, R16
   \   00000206   E000               LDI     R16, 0
   \   00000208   AB03               STD     Z+51, R16
   \   0000020A   AB04               STD     Z+52, R16
   \   0000020C   9100....           LDS     R16, simka
   \   00000210   3001               CPI     R16, 1
   \   00000212   F009               BREQ    $+2+2
   \   00000214   CF00               RJMP    ??modem_engine_0
   \   00000216   A106               LDD     R16, Z+38
   \   00000218   A117               LDD     R17, Z+39
   \   0000021A   A520               LDD     R18, Z+40
   \   0000021C   A531               LDD     R19, Z+41
   \   0000021E   2B01               OR      R16, R17
   \   00000220   2B02               OR      R16, R18
   \   00000222   2B03               OR      R16, R19
   \   00000224   F009               BREQ    $+2+2
   \   00000226   CEF7               RJMP    ??modem_engine_0
   \   00000228   ....               LDI     R30, LOW(Appl_seq)
   \   0000022A   ....               LDI     R31, (Appl_seq) >> 8
   \   0000022C   A904               LDD     R16, Z+52
   \   0000022E   A915               LDD     R17, Z+53
   \   00000230   A926               LDD     R18, Z+54
   \   00000232   A937               LDD     R19, Z+55
   \   00000234   01FD               MOVW    R31:R30, R27:R26
   \   00000236   A306               STD     Z+38, R16
   \   00000238   A317               STD     Z+39, R17
   \   0000023A   A720               STD     Z+40, R18
   \   0000023C   A731               STD     Z+41, R19
   \   0000023E   CEEB               RJMP    ??modem_engine_0
   \                     ??modem_engine_23:
   \   00000240   E040               LDI     R20, 0
   \   00000242   E010               LDI     R17, 0
   \   00000244   ....               LDI     R18, LOW((stm_si + 26))
   \   00000246   ....               LDI     R19, HIGH((stm_si + 26))
   \   00000248   E006               LDI     R16, 6
   \   0000024A   ........           CALL    send_info
   \   0000024E   E011               LDI     R17, 1
   \   00000250   C01A               RJMP    ??modem_engine_28
   \                     ??modem_engine_25:
   \   00000252   E040               LDI     R20, 0
   \   00000254   E010               LDI     R17, 0
   \   00000256   ....               LDI     R18, LOW((stm_si + 42))
   \   00000258   ....               LDI     R19, HIGH((stm_si + 42))
   \   0000025A   E00B               LDI     R16, 11
   \   0000025C   ........           CALL    send_info
   \   00000260   E013               LDI     R17, 3
   \   00000262   C011               RJMP    ??modem_engine_28
   \                     ??modem_engine_26:
   \   00000264   E040               LDI     R20, 0
   \   00000266   E010               LDI     R17, 0
   \   00000268   ....               LDI     R18, LOW((stm_si + 53))
   \   0000026A   ....               LDI     R19, HIGH((stm_si + 53))
   \   0000026C   E00B               LDI     R16, 11
   \   0000026E   ........           CALL    send_info
   \   00000272   E014               LDI     R17, 4
   \   00000274   C008               RJMP    ??modem_engine_28
   \                     ??modem_engine_27:
   \   00000276   E040               LDI     R20, 0
   \   00000278   E010               LDI     R17, 0
   \   0000027A   ....               LDI     R18, LOW((stm_si + 74))
   \   0000027C   ....               LDI     R19, HIGH((stm_si + 74))
   \   0000027E   E00B               LDI     R16, 11
   \   00000280   ........           CALL    send_info
   \   00000284   E015               LDI     R17, 5
   \                     ??modem_engine_28:
   \   00000286   E004               LDI     R16, 4
   \                     ??modem_engine_29:
   \   00000288   ........           CALL    write_log_info
   \   0000028C   E000               LDI     R16, 0
   \   0000028E   01FD               MOVW    R31:R30, R27:R26
   \   00000290   AB00               STD     Z+48, R16
   \   00000292   AB01               STD     Z+49, R16
   \   00000294   E001               LDI     R16, 1
   \   00000296   AF00               STD     Z+56, R16
   \   00000298   E008               LDI     R16, 8
   \   0000029A   AB02               STD     Z+50, R16
   \   0000029C   ....               RCALL   clr_var_ppp_rx
   \   0000029E   E000               LDI     R16, 0
   \   000002A0   01FD               MOVW    R31:R30, R27:R26
   \   000002A2   AB03               STD     Z+51, R16
   \   000002A4   CEF9               RJMP    ??modem_engine_9
   \                     ??modem_engine_30:
   \   000002A6   ........           CALL    analiz_ppp_rx
   \   000002AA   ........           CALL    monitor_event_IPCP
   \   000002AE   ........           CALL    monitor_act_IPCP
   \   000002B2   ........           CALL    monitor1_tx_rs485_1
   \   000002B6   ........           CALL    monitor1_rec_rs485_1
   \   000002BA   ........           CALL    monitor1_tm_rs485_1
   \   000002BE   ........           CALL    monitor1_tx_rs485_2
   \   000002C2   ........           CALL    monitor1_rec_rs485_2
   \   000002C6   ........           CALL    monitor1_tm_rs485_2
   \   000002CA   ........           CALL    monitor1_tx_rs232_2
   \   000002CE   ........           CALL    monitor1_rec_rs232_2
   \   000002D2   ........           CALL    monitor1_tm_rs232_2
   \   000002D6   ....               RCALL   Application_SEQ_tx
   \   000002D8   ....               RCALL   monitor_cntr_ch
   \   000002DA   ....               RCALL   monitor_cntr_cl_seq
   \   000002DC   ....               RCALL   monitor_cntr_nat
   \   000002DE   9B66               SBIS    0x0C, 0x06
   \   000002E0   C004               RJMP    ??modem_engine_31
   \   000002E2   01FD               MOVW    R31:R30, R27:R26
   \   000002E4   A906               LDD     R16, Z+54
   \   000002E6   3001               CPI     R16, 1
   \   000002E8   F551               BRNE    ??modem_engine_32
   \                     ??modem_engine_31:
   \   000002EA   01FD               MOVW    R31:R30, R27:R26
   \   000002EC   AD02               LDD     R16, Z+58
   \   000002EE   7007               ANDI    R16, 0x07
   \   000002F0   F531               BRNE    ??modem_engine_32
   \   000002F2   ....               LDI     R30, LOW(fl_ip)
   \   000002F4   ....               LDI     R31, (fl_ip) >> 8
   \   000002F6   8100               LD      R16, Z
   \   000002F8   FF00               SBRS    R16, 0
   \   000002FA   C021               RJMP    ??modem_engine_32
   \   000002FC   01FD               MOVW    R31:R30, R27:R26
   \   000002FE   A906               LDD     R16, Z+54
   \   00000300   3001               CPI     R16, 1
   \   00000302   E040               LDI     R20, 0
   \   00000304   E010               LDI     R17, 0
   \   00000306   F439               BRNE    ??modem_engine_33
   \   00000308   ....               LDI     R18, LOW((stm_si + 85))
   \   0000030A   ....               LDI     R19, HIGH((stm_si + 85))
   \   0000030C   E00A               LDI     R16, 10
   \   0000030E   ........           CALL    send_info
   \   00000312   E015               LDI     R17, 5
   \   00000314   C006               RJMP    ??modem_engine_34
   \                     ??modem_engine_33:
   \   00000316   ....               LDI     R18, LOW((stm_si + 53))
   \   00000318   ....               LDI     R19, HIGH((stm_si + 53))
   \   0000031A   E00B               LDI     R16, 11
   \   0000031C   ........           CALL    send_info
   \   00000320   E012               LDI     R17, 2
   \                     ??modem_engine_34:
   \   00000322   E005               LDI     R16, 5
   \   00000324   ........           CALL    write_log_info
   \   00000328   E000               LDI     R16, 0
   \   0000032A   01FD               MOVW    R31:R30, R27:R26
   \   0000032C   AB00               STD     Z+48, R16
   \   0000032E   AB01               STD     Z+49, R16
   \   00000330   E008               LDI     R16, 8
   \   00000332   AB02               STD     Z+50, R16
   \   00000334   ....               RCALL   clr_var_ppp_rx
   \   00000336   E000               LDI     R16, 0
   \   00000338   01FD               MOVW    R31:R30, R27:R26
   \   0000033A   AB04               STD     Z+52, R16
   \   0000033C   AB03               STD     Z+51, R16
   \                     ??modem_engine_32:
   \   0000033E   01FD               MOVW    R31:R30, R27:R26
   \   00000340   A903               LDD     R16, Z+51
   \   00000342   5005               SUBI    R16, 5
   \   00000344   F029               BREQ    ??modem_engine_35
   \   00000346   5002               SUBI    R16, 2
   \   00000348   F069               BREQ    ??modem_engine_36
   \   0000034A   5002               SUBI    R16, 2
   \   0000034C   F0A1               BREQ    ??modem_engine_37
   \   0000034E   CE63               RJMP    ??modem_engine_0
   \                     ??modem_engine_35:
   \   00000350   E040               LDI     R20, 0
   \   00000352   E010               LDI     R17, 0
   \   00000354   ....               LDI     R18, LOW((stm_si + 42))
   \   00000356   ....               LDI     R19, HIGH((stm_si + 42))
   \   00000358   E00B               LDI     R16, 11
   \   0000035A   ........           CALL    send_info
   \   0000035E   E011               LDI     R17, 1
   \                     ??modem_engine_38:
   \   00000360   E005               LDI     R16, 5
   \   00000362   CF92               RJMP    ??modem_engine_29
   \                     ??modem_engine_36:
   \   00000364   E040               LDI     R20, 0
   \   00000366   E010               LDI     R17, 0
   \   00000368   ....               LDI     R18, LOW((stm_si + 64))
   \   0000036A   ....               LDI     R19, HIGH((stm_si + 64))
   \   0000036C   E00A               LDI     R16, 10
   \   0000036E   ........           CALL    send_info
   \   00000372   E014               LDI     R17, 4
   \   00000374   CFF5               RJMP    ??modem_engine_38
   \                     ??modem_engine_37:
   \   00000376   E040               LDI     R20, 0
   \   00000378   E010               LDI     R17, 0
   \   0000037A   ....               LDI     R18, LOW((stm_si + 74))
   \   0000037C   ....               LDI     R19, HIGH((stm_si + 74))
   \   0000037E   E00B               LDI     R16, 11
   \   00000380   ........           CALL    send_info
   \   00000384   E013               LDI     R17, 3
   \   00000386   CFEC               RJMP    ??modem_engine_38
   \                     ??modem_engine_39:
   \   00000388   ........           CALL    monitor1_rec_rs485_1
   \   0000038C   ........           CALL    monitor1_tm_rs485_1
   \   00000390   ........           CALL    monitor1_rec_rs485_2
   \   00000394   ........           CALL    monitor1_tm_rs485_2
   \   00000398   ........           CALL    monitor1_rec_rs232_2
   \   0000039C   ........           CALL    monitor1_tm_rs232_2
   \   000003A0   01FD               MOVW    R31:R30, R27:R26
   \   000003A2   AD02               LDD     R16, Z+58
   \   000003A4   7007               ANDI    R16, 0x07
   \   000003A6   F451               BRNE    ??modem_engine_40
   \   000003A8   ....               LDI     R30, LOW(fl_ip)
   \   000003AA   ....               LDI     R31, (fl_ip) >> 8
   \   000003AC   8100               LD      R16, Z
   \   000003AE   FF00               SBRS    R16, 0
   \   000003B0   C005               RJMP    ??modem_engine_40
   \   000003B2   E000               LDI     R16, 0
   \   000003B4   01FD               MOVW    R31:R30, R27:R26
   \   000003B6   AF00               STD     Z+56, R16
   \   000003B8   E008               LDI     R16, 8
   \   000003BA   AB03               STD     Z+51, R16
   \                     ??modem_engine_40:
   \   000003BC   01FD               MOVW    R31:R30, R27:R26
   \   000003BE   A903               LDD     R16, Z+51
   \   000003C0   5008               SUBI    R16, 8
   \   000003C2   F009               BREQ    $+2+2
   \   000003C4   CE28               RJMP    ??modem_engine_0
   \   000003C6   E011               LDI     R17, 1
   \                     ??modem_engine_41:
   \   000003C8   E006               LDI     R16, 6
   \   000003CA   ........           CALL    write_log_info
   \   000003CE   CEA3               RJMP    ??modem_engine_16
   \                     ??modem_engine_42:
   \   000003D0   9100....           LDS     R16, cnt_com
   \   000003D4   ........           CALL    at_com_tx
   \   000003D8   9100....           LDS     R16, cnt_com
   \   000003DC   ........           CALL    at_com_rx
   \   000003E0   ....               LDI     R18, LOW(rep)
   \   000003E2   ....               LDI     R19, (rep) >> 8
   \   000003E4   ....               LDI     R16, LOW(cnt_com)
   \   000003E6   ....               LDI     R17, (cnt_com) >> 8
   \   000003E8   ........           CALL    at_com_scen_stm_dc_1
   \   000003EC   01FD               MOVW    R31:R30, R27:R26
   \   000003EE   A903               LDD     R16, Z+51
   \   000003F0   5002               SUBI    R16, 2
   \   000003F2   F019               BREQ    ??modem_engine_43
   \   000003F4   950A               DEC     R16
   \   000003F6   F021               BREQ    ??modem_engine_44
   \   000003F8   CE0E               RJMP    ??modem_engine_0
   \                     ??modem_engine_43:
   \   000003FA   E012               LDI     R17, 2
   \   000003FC   E006               LDI     R16, 6
   \   000003FE   CE6E               RJMP    ??modem_engine_15
   \                     ??modem_engine_44:
   \   00000400   E013               LDI     R17, 3
   \   00000402   CFE2               RJMP    ??modem_engine_41
   \                     ??modem_engine_45:
   \   00000404   01FD               MOVW    R31:R30, R27:R26
   \   00000406   A903               LDD     R16, Z+51
   \   00000408   5000               SUBI    R16, 0
   \   0000040A   F409               BRNE    $+2+2
   \   0000040C   CE04               RJMP    ??modem_engine_0
   \   0000040E   950A               DEC     R16
   \   00000410   F009               BREQ    $+2+2
   \   00000412   CE21               RJMP    ??modem_engine_5
   \   00000414   ........           CALL    start_func_stm_on
   \   00000418   CEAA               RJMP    ??modem_engine_18
   2755                            
   2756                         }
   2757                    } 
   2758            
   2759          }
   2760          
   2761          
   2762          

   \                                 In segment CODE, align 2, keep-with-next
   2763          void send_err485(unsigned char port,unsigned char err,unsigned char id,unsigned int dst)
   \                     send_err485:
   2764              {
   \   00000000   ........           CALL    ?PROLOGUE5_L09
   \   00000004                      REQUIRE ?Register_R4_is_cg_reg
   \   00000004   2E40               MOV     R4, R16
   \   00000006   2FB1               MOV     R27, R17
   \   00000008   2FA2               MOV     R26, R18
   \   0000000A   01CA               MOVW    R25:R24, R21:R20
   2765                 if(fl_ip.act_ip_end!=1)return;
   \   0000000C   ....               LDI     R30, LOW(fl_ip)
   \   0000000E   ....               LDI     R31, (fl_ip) >> 8
   \   00000010   8100               LD      R16, Z
   \   00000012   FF00               SBRS    R16, 0
   \   00000014   C05A               RJMP    ??send_err485_0
   2766                    fl_ip.act_ip_end=0;      
   \   00000016   8100               LD      R16, Z
   \   00000018   7F0E               ANDI    R16, 0xFE
   \   0000001A   8300               ST      Z, R16
   2767                    clr_cntr_nat();
   \   0000001C   ....               RCALL   clr_cntr_nat
   2768                    clr_cntr_link();
   \   0000001E   ........           CALL    clr_cntr_link
   2769                    Obj_ppp_tx.prozr=FALSE;            
   \   00000022   ....               LDI     R16, LOW(Obj_ppp_tx)
   \   00000024   ....               LDI     R17, (Obj_ppp_tx) >> 8
   \   00000026   E020               LDI     R18, 0
   \   00000028   01F8               MOVW    R31:R30, R17:R16
   \   0000002A   8320               ST      Z, R18
   2770                    Obj_ppp_tx.version=VER2;      //âĺđńč˙ 
   \   0000002C   E022               LDI     R18, 2
   \   0000002E   8321               STD     Z+1, R18
   2771                    Obj_ppp_tx.type_pac=OTV;     //ňčď ďŕęĺňŕ
   \   00000030   E021               LDI     R18, 1
   \   00000032   8322               STD     Z+2, R18
   2772                    Obj_ppp_tx.num_src=num_self; // íîěĺđ îňďđŕâčňĺë˙
   \   00000034   ....               LDI     R30, LOW(Appl_seq)
   \   00000036   ....               LDI     R31, (Appl_seq) >> 8
   \   00000038   AD20               LDD     R18, Z+56
   \   0000003A   AD31               LDD     R19, Z+57
   \   0000003C   01F8               MOVW    R31:R30, R17:R16
   \   0000003E   8323               STD     Z+3, R18
   \   00000040   8334               STD     Z+4, R19
   2773                    Obj_ppp_tx.num_dst=dst; // íîěĺđ ďîëó÷ŕňĺë˙
   \   00000042   8385               STD     Z+5, R24
   \   00000044   8396               STD     Z+6, R25
   2774                    Obj_ppp_tx.id_pac=id; // čäĺíňčôčęŕňîđ ďŕęĺňŕ  
   \   00000046   83A7               STD     Z+7, R26
   2775                    Obj_ppp_tx.p_opt=&buf_opt_tr[0]; // //óęŕçŕňĺëü áóôĺđŕ îďöčé  
   \   00000048   ....               LDI     R18, LOW((Appl_RS232_2 + 19))
   \   0000004A   ....               LDI     R19, HIGH((Appl_RS232_2 + 19))
   \   0000004C   8720               STD     Z+8, R18
   \   0000004E   8731               STD     Z+9, R19
   2776                    Obj_ppp_tx.l_opt=0;// äëčíŕ áóôĺđŕ îďöčé   
   \   00000050   E020               LDI     R18, 0
   \   00000052   8722               STD     Z+10, R18
   2777                    Obj_ppp_tx.kol_opt=0;// ęîëč÷ĺńňâî îďöčé   
   \   00000054   8723               STD     Z+11, R18
   2778                   
   2779                   buf_tx_232[TR_OP_DATA+C1_PROT]=PROT_C1;
   \   00000056   ....               LDI     R24, LOW(buf_tx_232)
   \   00000058   ....               LDI     R25, (buf_tx_232) >> 8
   \   0000005A   E021               LDI     R18, 1
   \   0000005C   01FC               MOVW    R31:R30, R25:R24
   \   0000005E   A722               STD     Z+42, R18
   2780                   buf_tx_232[TR_OP_DATA+C1_PORT]=PORT_SYS;
   \   00000060   E025               LDI     R18, 5
   \   00000062   A723               STD     Z+43, R18
   2781          
   2782                   buf_tx_232[TR_OP_DATA+C1_DATA]=RS485_ERR;
   \   00000064   E021               LDI     R18, 1
   \   00000066   A724               STD     Z+44, R18
   2783                   *(unsigned int*)&buf_tx_232[TR_OP_DATA+C1_DATA+1]=LN_RS485_ERR;
   \   00000068   E022               LDI     R18, 2
   \   0000006A   E030               LDI     R19, 0
   \   0000006C   A725               STD     Z+45, R18
   \   0000006E   A736               STD     Z+46, R19
   2784                   buf_tx_232[TR_OP_DATA+C1_DATA+3]=port;
   \   00000070   A647               STD     Z+47, R4
   2785                   buf_tx_232[TR_OP_DATA+C1_DATA+4]=err;
   \   00000072   ABB0               STD     Z+48, R27
   2786                   Obj_ppp_tx.l_data=5+LN_RS485_ERR;   // äëčíŕ äŕííűő
   \   00000074   E027               LDI     R18, 7
   \   00000076   01F8               MOVW    R31:R30, R17:R16
   \   00000078   8726               STD     Z+14, R18
   \   0000007A   8737               STD     Z+15, R19
   2787                   Obj_ppp_tx.p_data=&buf_tx_232[TR_OP_DATA+C1_PROT];  //óęŕçŕňĺëü áóôĺđŕ äŕííűő
   \   0000007C   019C               MOVW    R19:R18, R25:R24
   \   0000007E   5D26               SUBI    R18, 214
   \   00000080   4F3F               SBCI    R19, 255
   \   00000082   8724               STD     Z+12, R18
   \   00000084   8735               STD     Z+13, R19
   2788                  
   2789                   form_buf_tx_ppp();                            
   \   00000086   ........           CALL    form_buf_tx_ppp
   2790                   UCSR0A=UCSR0A | TXC;                            
   \   0000008A   910000C0           LDS     R16, 192
   \   0000008E   6400               ORI     R16, 0x40
   \   00000090   930000C0           STS     192, R16
   2791                   UCSR0B=UCSR0B | TXEN;
   \   00000094   910000C1           LDS     R16, 193
   \   00000098   6008               ORI     R16, 0x08
   \   0000009A   930000C1           STS     193, R16
   2792                   UCSR0B=UCSR0B | TXCIE;
   \   0000009E   910000C1           LDS     R16, 193
   \   000000A2   6400               ORI     R16, 0x40
   \   000000A4   930000C1           STS     193, R16
   2793                   if(check_cts()==1) return;                
   \   000000A8   ........           CALL    check_cts
   \   000000AC   3001               CPI     R16, 1
   \   000000AE   F069               BREQ    ??send_err485_0
   2794                   S2_RD;
   \   000000B0   9A40               SBI     0x08, 0x00
   \   000000B2   9841               CBI     0x08, 0x01
   2795                   UDR0=buf_tx_232[0];
   \   000000B4   01FC               MOVW    R31:R30, R25:R24
   \   000000B6   8100               LD      R16, Z
   \   000000B8   930000C6           STS     198, R16
   2796                   if(Regim==RG_DEBAG) UDR3=buf_tx_232[0];
   \   000000BC   9100....           LDS     R16, Regim
   \   000000C0   3001               CPI     R16, 1
   \   000000C2   F419               BRNE    ??send_err485_0
   \   000000C4   8100               LD      R16, Z
   \   000000C6   93000136           STS     310, R16
   \                     ??send_err485_0:
   \   000000CA   E0E5               LDI     R30, 5
   \   000000CC   ........           JMP     ?EPILOGUE_B5_L09
   2797                   return;     
   2798              }
   2799          
   2800          
   2801          
   2802          
   2803          

   \                                 In segment CODE, align 2, keep-with-next
   2804          unsigned char check_cont_485_1 (unsigned char *pointer)
   \                     check_cont_485_1:
   2805          {
   \   00000000   2F59               MOV     R21, R25
   \   00000002   2F68               MOV     R22, R24
   2806             
   2807                   
   2808                              switch (*pointer)
   \   00000004   01F8               MOVW    R31:R30, R17:R16
   \   00000006   8120               LD      R18, Z
   \   00000008   5024               SUBI    R18, 4
   \   0000000A   5023               SUBI    R18, 3
   \   0000000C   F010               BRCS    ??check_cont_485_1_0
   \   0000000E   952A               DEC     R18
   \   00000010   F421               BRNE    ??check_cont_485_1_1
   2809                                      {
   2810                                        case B2400:
   2811                                        case B4800:
   2812                                        case B9600:
   2813                                        case B19200:break;
   2814                                        default: return(1);
   2815                                      }
   2816                   
   2817                   
   2818                          switch ((*(pointer+1)) & 0x07)
   \                     ??check_cont_485_1_0:
   \   00000012   8121               LDD     R18, Z+1
   \   00000014   7027               ANDI    R18, 0x07
   \   00000016   5023               SUBI    R18, 3
   \   00000018   F010               BRCS    ??check_cont_485_1_2
   \                     ??check_cont_485_1_1:
   \   0000001A   E001               LDI     R16, 1
   \   0000001C   C026               RJMP    ??check_cont_485_1_3
   2819                                     {
   2820                                     case NON:
   2821                                     case ODD:
   2822                                     case EVEN: break;
   2823                                     default: return(1);
   2824                                     }
   2825                   
   2826          
   2827                              switch (((*(pointer+1))>>3)& 0x03)
   \                     ??check_cont_485_1_2:
   \   0000001E   8121               LDD     R18, Z+1
   \   00000020   9526               LSR     R18
   \   00000022   9526               LSR     R18
   \   00000024   9526               LSR     R18
   \   00000026   7023               ANDI    R18, 0x03
   \   00000028   F011               BREQ    ??check_cont_485_1_4
   \   0000002A   5022               SUBI    R18, 2
   \   0000002C   F7B1               BRNE    ??check_cont_485_1_1
   2828                                     {
   2829                                     case STOP1:
   2830                                     case STOP2:break;
   2831                                     default: return(1);
   2832                                     }
   2833                      
   2834                              
   2835                              switch (((*(pointer+1))>>5)& 0x03)
   \                     ??check_cont_485_1_4:
   \   0000002E   8121               LDD     R18, Z+1
   \   00000030   9522               SWAP    R18
   \   00000032   702F               ANDI    R18, 0x0F
   \   00000034   9526               LSR     R18
   \   00000036   7023               ANDI    R18, 0x03
   \   00000038   5022               SUBI    R18, 2
   \   0000003A   F011               BREQ    ??check_cont_485_1_5
   \   0000003C   952A               DEC     R18
   \   0000003E   F769               BRNE    ??check_cont_485_1_1
   2836                                     {
   2837                                     case INF7:
   2838                                     case INF8:break;
   2839                                     default: return(1);
   2840                                     }
   2841          
   2842          
   2843          
   2844                            if((*(unsigned int*)(pointer+2))>10000)return(1);
   \                     ??check_cont_485_1_5:
   \   00000040   8122               LDD     R18, Z+2
   \   00000042   8133               LDD     R19, Z+3
   \   00000044   3121               CPI     R18, 17
   \   00000046   E247               LDI     R20, 39
   \   00000048   0734               CPC     R19, R20
   \   0000004A   F738               BRCC    ??check_cont_485_1_1
   2845                            
   2846                            if((*(unsigned int*)(pointer+4))==0)return(1);
   \   0000004C   8124               LDD     R18, Z+4
   \   0000004E   8135               LDD     R19, Z+5
   \   00000050   2B23               OR      R18, R19
   \   00000052   F319               BREQ    ??check_cont_485_1_1
   2847                            if((*(unsigned int*)(pointer+4))>10000)return(1);
   \   00000054   8124               LDD     R18, Z+4
   \   00000056   8135               LDD     R19, Z+5
   \   00000058   3121               CPI     R18, 17
   \   0000005A   0734               CPC     R19, R20
   \   0000005C   F6F0               BRCC    ??check_cont_485_1_1
   2848                            
   2849                            if((*(unsigned int*)(pointer+6))<3)return(1);
   \   0000005E   8186               LDD     R24, Z+6
   \   00000060   8197               LDD     R25, Z+7
   \   00000062   3083               CPI     R24, 3
   \   00000064   4090               SBCI    R25, 0
   \   00000066   F2C8               BRCS    ??check_cont_485_1_1
   2850                            
   2851                            return(0);
   \   00000068   E000               LDI     R16, 0
   \                     ??check_cont_485_1_3:
   \   0000006A   2F86               MOV     R24, R22
   \   0000006C   2F95               MOV     R25, R21
   \   0000006E   9508               RET
   2852          }
   2853          
   2854          
   2855          
   2856          

   \                                 In segment CODE, align 2, keep-with-next
   2857          unsigned char run_cont_485_1 (unsigned char *pointer)
   \                     run_cont_485_1:
   2858          {
   \   00000000   ........           CALL    ?PROLOGUE4_L09
   \   00000004   01D8               MOVW    R27:R26, R17:R16
   2859              
   2860             
   2861                          switch ((*(pointer+1)) & 0x07)
   \   00000006   01FD               MOVW    R31:R30, R27:R26
   \   00000008   8101               LDD     R16, Z+1
   \   0000000A   7007               ANDI    R16, 0x07
   \   0000000C   F029               BREQ    ??run_cont_485_1_0
   \   0000000E   950A               DEC     R16
   \   00000010   F0A9               BREQ    ??run_cont_485_1_1
   \   00000012   950A               DEC     R16
   \   00000014   F0B9               BREQ    ??run_cont_485_1_2
   \   00000016   C01F               RJMP    ??run_cont_485_1_3
   2862                                     {
   2863                                     case NON:  UCSR3C=UCSR3C & ~0x30;
   \                     ??run_cont_485_1_0:
   \   00000018   91000132           LDS     R16, 306
   \   0000001C   7C0F               ANDI    R16, 0xCF
   \                     ??run_cont_485_1_4:
   \   0000001E   93000132           STS     306, R16
   2864                                           break;
   2865                                     case ODD:  UCSR3C=UCSR3C | 0x30;
   2866                                           break;
   2867                                     case EVEN: UCSR3C=UCSR3C & ~0x30;
   2868                                           UCSR3C=UCSR3C | 0x20;
   2869                                           break;
   2870                                     default: return(1);
   2871                                     }
   2872                   
   2873          
   2874                              switch (((*(pointer+1))>>3)& 0x03)
   \   00000022   8101               LDD     R16, Z+1
   \   00000024   9506               LSR     R16
   \   00000026   9506               LSR     R16
   \   00000028   9506               LSR     R16
   \   0000002A   7003               ANDI    R16, 0x03
   \   0000002C   F019               BREQ    ??run_cont_485_1_5
   \   0000002E   5002               SUBI    R16, 2
   \   00000030   F0A1               BREQ    ??run_cont_485_1_6
   \   00000032   C011               RJMP    ??run_cont_485_1_3
   2875                                     {
   2876                                     case STOP1:UCSR3C=UCSR3C & ~0x08; 
   \                     ??run_cont_485_1_5:
   \   00000034   91000132           LDS     R16, 306
   \   00000038   7F07               ANDI    R16, 0xF7
   \   0000003A   C012               RJMP    ??run_cont_485_1_7
   \                     ??run_cont_485_1_1:
   \   0000003C   91000132           LDS     R16, 306
   \   00000040   6300               ORI     R16, 0x30
   \   00000042   CFED               RJMP    ??run_cont_485_1_4
   \                     ??run_cont_485_1_2:
   \   00000044   91000132           LDS     R16, 306
   \   00000048   7C0F               ANDI    R16, 0xCF
   \   0000004A   93000132           STS     306, R16
   \   0000004E   91000132           LDS     R16, 306
   \   00000052   6200               ORI     R16, 0x20
   \   00000054   CFE4               RJMP    ??run_cont_485_1_4
   \                     ??run_cont_485_1_3:
   \   00000056   E001               LDI     R16, 1
   \   00000058   C0A6               RJMP    ??run_cont_485_1_8
   2877                                           break;
   2878                                     case STOP2:
   2879                                           UCSR3C=UCSR3C | 0x08; 
   \                     ??run_cont_485_1_6:
   \   0000005A   91000132           LDS     R16, 306
   \   0000005E   6008               ORI     R16, 0x08
   \                     ??run_cont_485_1_7:
   \   00000060   93000132           STS     306, R16
   2880                                           break;
   2881                                     default: return(1);
   2882                                     }
   2883                      
   2884                      
   2885                              switch (((*(pointer+1))>>5)& 0x03)
   \   00000064   8101               LDD     R16, Z+1
   \   00000066   9502               SWAP    R16
   \   00000068   700F               ANDI    R16, 0x0F
   \   0000006A   9506               LSR     R16
   \   0000006C   7003               ANDI    R16, 0x03
   \   0000006E   5002               SUBI    R16, 2
   \   00000070   F019               BREQ    ??run_cont_485_1_9
   \   00000072   950A               DEC     R16
   \   00000074   F051               BREQ    ??run_cont_485_1_10
   \   00000076   CFEF               RJMP    ??run_cont_485_1_3
   2886                                     {
   2887                                     case INF7:
   2888                                          UCSR3C=UCSR3C & ~0x06;
   \                     ??run_cont_485_1_9:
   \   00000078   91000132           LDS     R16, 306
   \   0000007C   7F09               ANDI    R16, 0xF9
   \   0000007E   93000132           STS     306, R16
   2889                                          UCSR3C=UCSR3C | 0x04;
   \   00000082   91000132           LDS     R16, 306
   \   00000086   6004               ORI     R16, 0x04
   \   00000088   C003               RJMP    ??run_cont_485_1_11
   2890                                          break;
   2891                                     case INF8:
   2892                                          UCSR3C=UCSR3C | 0x06;
   \                     ??run_cont_485_1_10:
   \   0000008A   91000132           LDS     R16, 306
   \   0000008E   6006               ORI     R16, 0x06
   \                     ??run_cont_485_1_11:
   \   00000090   93000132           STS     306, R16
   2893                                          break;
   2894                                     default: return(1);
   2895                                     }
   2896          
   2897          
   2898                            if((*(unsigned int*)(pointer+2))>10000)return(1);
   \   00000094   8102               LDD     R16, Z+2
   \   00000096   8113               LDD     R17, Z+3
   \   00000098   3101               CPI     R16, 17
   \   0000009A   E227               LDI     R18, 39
   \   0000009C   0712               CPC     R17, R18
   \   0000009E   F6D8               BRCC    ??run_cont_485_1_3
   2899                            Rs485_1.cnt_tm_tx_out=0;
   \   000000A0   ....               LDI     R30, LOW(Rs485_1)
   \   000000A2   ....               LDI     R31, (Rs485_1) >> 8
   \   000000A4   E000               LDI     R16, 0
   \   000000A6   8302               STD     Z+2, R16
   \   000000A8   8303               STD     Z+3, R16
   2900                            Rs485_1.vol_tm_tx_out=*(unsigned int*)(pointer+2);
   \   000000AA   9612               ADIW    R27:R26, 2
   \   000000AC   910D               LD      R16, X+
   \   000000AE   911C               LD      R17, X
   \   000000B0   9713               SBIW    R27:R26, 3
   \   000000B2   8306               STD     Z+6, R16
   \   000000B4   8317               STD     Z+7, R17
   2901                            
   2902                            if((*(unsigned int*)(pointer+4))==0)return(1);
   \   000000B6   9614               ADIW    R27:R26, 4
   \   000000B8   910D               LD      R16, X+
   \   000000BA   911C               LD      R17, X
   \   000000BC   9715               SBIW    R27:R26, 5
   \   000000BE   2B01               OR      R16, R17
   \   000000C0   F251               BREQ    ??run_cont_485_1_3
   2903                            if((*(unsigned int*)(pointer+4))>10000)return(1);
   \   000000C2   9614               ADIW    R27:R26, 4
   \   000000C4   910D               LD      R16, X+
   \   000000C6   911C               LD      R17, X
   \   000000C8   9715               SBIW    R27:R26, 5
   \   000000CA   3101               CPI     R16, 17
   \   000000CC   0712               CPC     R17, R18
   \   000000CE   F618               BRCC    ??run_cont_485_1_3
   2904                            Rs485_1.cnt_tm_rx_out=0;
   \   000000D0   E000               LDI     R16, 0
   \   000000D2   8700               STD     Z+8, R16
   \   000000D4   8701               STD     Z+9, R16
   2905                            Rs485_1.vol_tm_rx_out=*(unsigned int*)(pointer+4);
   \   000000D6   9614               ADIW    R27:R26, 4
   \   000000D8   910D               LD      R16, X+
   \   000000DA   911C               LD      R17, X
   \   000000DC   9715               SBIW    R27:R26, 5
   \   000000DE   8702               STD     Z+10, R16
   \   000000E0   8713               STD     Z+11, R17
   2906                            
   2907                            
   2908                            if((*(unsigned int*)(pointer+6))<3)return(1);
   \   000000E2   9616               ADIW    R27:R26, 6
   \   000000E4   918D               LD      R24, X+
   \   000000E6   919C               LD      R25, X
   \   000000E8   9717               SBIW    R27:R26, 7
   \   000000EA   3083               CPI     R24, 3
   \   000000EC   4090               SBCI    R25, 0
   \   000000EE   F408               BRCC    $+2+2
   \   000000F0   CFB2               RJMP    ??run_cont_485_1_3
   2909                            Rs485_1.cnt_tm_out=0;
   \   000000F2   E000               LDI     R16, 0
   \   000000F4   8704               STD     Z+12, R16
   \   000000F6   8705               STD     Z+13, R16
   2910                            Rs485_1.vol_tm_out=*(unsigned int*)(pointer+6); // 1000 ěčëëčńĺęóíä
   \   000000F8   9616               ADIW    R27:R26, 6
   \   000000FA   910D               LD      R16, X+
   \   000000FC   911C               LD      R17, X
   \   000000FE   9717               SBIW    R27:R26, 7
   \   00000100   8706               STD     Z+14, R16
   \   00000102   8717               STD     Z+15, R17
   2911                             
   2912                             
   2913                             
   2914                           switch (*pointer)
   \   00000104   ....               LDI     R16, LOW(Appl_RS485_1)
   \   00000106   ....               LDI     R17, (Appl_RS485_1) >> 8
   \   00000108   912C               LD      R18, X
   \   0000010A   5024               SUBI    R18, 4
   \   0000010C   F039               BREQ    ??run_cont_485_1_12
   \   0000010E   952A               DEC     R18
   \   00000110   F0E9               BREQ    ??run_cont_485_1_13
   \   00000112   952A               DEC     R18
   \   00000114   F149               BREQ    ??run_cont_485_1_14
   \   00000116   5022               SUBI    R18, 2
   \   00000118   F1A9               BREQ    ??run_cont_485_1_15
   \   0000011A   CF9D               RJMP    ??run_cont_485_1_3
   2915                                      {
   2916                                        case B2400:
   2917                                               UBRR3H=R2400_H;
   \                     ??run_cont_485_1_12:
   \   0000011C   E021               LDI     R18, 1
   \   0000011E   93200135           STS     309, R18
   2918                                               UBRR3L=R2400_L;
   \   00000122   E92F               LDI     R18, 159
   \   00000124   93200134           STS     308, R18
   2919                                               
   2920                                               
   2921                                               if(Appl_RS485_1.pre_tx!=0)
   \   00000128   01D8               MOVW    R27:R26, R17:R16
   \   0000012A   9651               ADIW    R27:R26, 17
   \   0000012C   912D               LD      R18, X+
   \   0000012E   913C               LD      R19, X
   \   00000130   2B23               OR      R18, R19
   \   00000132   F051               BREQ    ??run_cont_485_1_16
   2922                                                    {
   2923                                                    // ďĺđĺőâŕň ďîđňŕ äë˙ ëŕôęčíŕ
   2924                                                    
   2925                                                  //  __disable_interrupt();
   2926                                                    SET_RTS1;
   \                     ??run_cont_485_1_17:
   \   00000134   91200105           LDS     R18, 261
   \   00000138   6024               ORI     R18, 0x04
   \   0000013A   93200105           STS     261, R18
   2927                                                  //  __enable_interrupt();
   2928                                                    
   2929                                                    
   2930                                                    Rs485_1.cnt_tm_pre_tx=Appl_RS485_1.pre_tx;//çŕäĺđćęŕ ďĺđĺä ďĺđĺäŕ÷ĺé
   \   0000013E   01D8               MOVW    R27:R26, R17:R16
   \   00000140   9651               ADIW    R27:R26, 17
   \   00000142   910D               LD      R16, X+
   \   00000144   911C               LD      R17, X
   \   00000146   C02C               RJMP    ??run_cont_485_1_18
   2931                                                    }
   2932                                                  else Rs485_1.cnt_tm_pre_tx=17;// 17 ěčëëčńĺęóíä
   \                     ??run_cont_485_1_16:
   \   00000148   E101               LDI     R16, 17
   \   0000014A   C029               RJMP    ??run_cont_485_1_19
   2933                                              
   2934                                            //   Rs485_1.vol_tm_tx_out=Rs485_1.vol_tm_tx_out+5;
   2935                                               break;
   2936                                        case B4800:
   2937                                               UBRR3H=R4800_H;
   \                     ??run_cont_485_1_13:
   \   0000014C   E020               LDI     R18, 0
   \   0000014E   93200135           STS     309, R18
   2938                                               UBRR3L=R4800_L;
   \   00000152   EC2F               LDI     R18, 207
   \   00000154   93200134           STS     308, R18
   2939                                               
   2940                                               if(Appl_RS485_1.pre_tx!=0)
   \   00000158   01D8               MOVW    R27:R26, R17:R16
   \   0000015A   9651               ADIW    R27:R26, 17
   \   0000015C   912D               LD      R18, X+
   \   0000015E   913C               LD      R19, X
   \   00000160   2B23               OR      R18, R19
   \   00000162   F741               BRNE    ??run_cont_485_1_17
   2941                                                    {
   2942                                                    // ďĺđĺőâŕň ďîđňŕ äë˙ ëŕôęčíŕ
   2943                                                  //  __disable_interrupt();
   2944                                                   SET_RTS1;
   2945                                                 //   __enable_interrupt();
   2946                                                    
   2947                                                    Rs485_1.cnt_tm_pre_tx=Appl_RS485_1.pre_tx;//çŕäĺđćęŕ ďĺđĺä ďĺđĺäŕ÷ĺé
   2948                                                    }
   2949                                                  else Rs485_1.cnt_tm_pre_tx=9;// 9 ěčëëčńĺęóíä
   \   00000164   E009               LDI     R16, 9
   \   00000166   C01B               RJMP    ??run_cont_485_1_19
   2950                                                  
   2951                                         //      Rs485_1.vol_tm_tx_out=Rs485_1.vol_tm_tx_out+3;
   2952                                               break;
   2953                                        case B9600:
   2954                                               UBRR3H=R9600_H;
   \                     ??run_cont_485_1_14:
   \   00000168   E020               LDI     R18, 0
   \   0000016A   93200135           STS     309, R18
   2955                                               UBRR3L=R9600_L;
   \   0000016E   E627               LDI     R18, 103
   \   00000170   93200134           STS     308, R18
   2956                                                                                    
   2957                                               if(Appl_RS485_1.pre_tx!=0)
   \   00000174   01D8               MOVW    R27:R26, R17:R16
   \   00000176   9651               ADIW    R27:R26, 17
   \   00000178   912D               LD      R18, X+
   \   0000017A   913C               LD      R19, X
   \   0000017C   2B23               OR      R18, R19
   \   0000017E   F6D1               BRNE    ??run_cont_485_1_17
   2958                                                    {
   2959                                                    // ďĺđĺőâŕň ďîđňŕ äë˙ ëŕôęčíŕ
   2960                                                   // __disable_interrupt();
   2961                                                    SET_RTS1;
   2962                                                  //  __enable_interrupt();
   2963                                                    
   2964                                                    Rs485_1.cnt_tm_pre_tx=Appl_RS485_1.pre_tx;//çŕäĺđćęŕ ďĺđĺä ďĺđĺäŕ÷ĺé
   2965                                                    }
   2966                                                  else Rs485_1.cnt_tm_pre_tx=4;// 4 ěčëëčńĺęóíä
   \   00000180   E004               LDI     R16, 4
   \   00000182   C00D               RJMP    ??run_cont_485_1_19
   2967                                                  
   2968                                         //      Rs485_1.vol_tm_tx_out=Rs485_1.vol_tm_tx_out+2;
   2969                                               break;
   2970                                        case B19200:
   2971                                               UBRR3H=R19200_H;
   \                     ??run_cont_485_1_15:
   \   00000184   E020               LDI     R18, 0
   \   00000186   93200135           STS     309, R18
   2972                                               UBRR3L=R19200_L;
   \   0000018A   E323               LDI     R18, 51
   \   0000018C   93200134           STS     308, R18
   2973                                                                                    
   2974                                               if(Appl_RS485_1.pre_tx!=0)
   \   00000190   01D8               MOVW    R27:R26, R17:R16
   \   00000192   9651               ADIW    R27:R26, 17
   \   00000194   912D               LD      R18, X+
   \   00000196   913C               LD      R19, X
   \   00000198   2B23               OR      R18, R19
   \   0000019A   F661               BRNE    ??run_cont_485_1_17
   2975                                                    {
   2976                                                    // ďĺđĺőâŕň ďîđňŕ äë˙ ëŕôęčíŕ
   2977                                                     
   2978                                                    // __disable_interrupt();
   2979                                                    SET_RTS1;
   2980                                                   // __enable_interrupt();
   2981                                                    
   2982                                                    Rs485_1.cnt_tm_pre_tx=Appl_RS485_1.pre_tx;//çŕäĺđćęŕ ďĺđĺä ďĺđĺäŕ÷ĺé
   2983                                                    }
   2984                                                  else Rs485_1.cnt_tm_pre_tx=2;// 2 ěčëëčńĺęóíä
   \   0000019C   E002               LDI     R16, 2
   \                     ??run_cont_485_1_19:
   \   0000019E   E010               LDI     R17, 0
   \                     ??run_cont_485_1_18:
   \   000001A0   8304               STD     Z+4, R16
   \   000001A2   8315               STD     Z+5, R17
   2985                                                  
   2986                                         //      Rs485_1.vol_tm_tx_out=Rs485_1.vol_tm_tx_out+1;
   2987                                               break;
   2988                                        default: return(1);
   2989                                      }  
   2990                             
   2991                             
   2992                             
   2993                             
   2994          return(0);
   \   000001A4   E000               LDI     R16, 0
   \                     ??run_cont_485_1_8:
   \   000001A6   E0E4               LDI     R30, 4
   \   000001A8   ........           JMP     ?EPILOGUE_B4_L09
   2995          }
   2996          
   2997          
   2998          

   \                                 In segment CODE, align 2, keep-with-next
   2999          unsigned char run_cont_485_2 (unsigned char *pointer)
   \                     run_cont_485_2:
   3000          {
   \   00000000   ........           CALL    ?PROLOGUE4_L09
   \   00000004   01D8               MOVW    R27:R26, R17:R16
   3001              
   3002             
   3003                          switch ((*(pointer+1)) & 0x07)
   \   00000006   01FD               MOVW    R31:R30, R27:R26
   \   00000008   8101               LDD     R16, Z+1
   \   0000000A   7007               ANDI    R16, 0x07
   \   0000000C   F029               BREQ    ??run_cont_485_2_0
   \   0000000E   950A               DEC     R16
   \   00000010   F0A9               BREQ    ??run_cont_485_2_1
   \   00000012   950A               DEC     R16
   \   00000014   F0B9               BREQ    ??run_cont_485_2_2
   \   00000016   C01F               RJMP    ??run_cont_485_2_3
   3004                                     {
   3005                                     case NON:  UCSR1C=UCSR1C & ~0x30;
   \                     ??run_cont_485_2_0:
   \   00000018   910000CA           LDS     R16, 202
   \   0000001C   7C0F               ANDI    R16, 0xCF
   \                     ??run_cont_485_2_4:
   \   0000001E   930000CA           STS     202, R16
   3006                                           break;
   3007                                     case ODD:  UCSR1C=UCSR1C | 0x30;
   3008                                           break;
   3009                                     case EVEN: UCSR1C=UCSR1C & ~0x30;
   3010                                           UCSR1C=UCSR1C | 0x20;
   3011                                           break;
   3012                                     default: return(1);
   3013                                     }
   3014                   
   3015          
   3016                              switch (((*(pointer+1))>>3)& 0x03)
   \   00000022   8101               LDD     R16, Z+1
   \   00000024   9506               LSR     R16
   \   00000026   9506               LSR     R16
   \   00000028   9506               LSR     R16
   \   0000002A   7003               ANDI    R16, 0x03
   \   0000002C   F019               BREQ    ??run_cont_485_2_5
   \   0000002E   5002               SUBI    R16, 2
   \   00000030   F0A1               BREQ    ??run_cont_485_2_6
   \   00000032   C011               RJMP    ??run_cont_485_2_3
   3017                                     {
   3018                                     case STOP1:UCSR1C=UCSR1C & ~0x08; 
   \                     ??run_cont_485_2_5:
   \   00000034   910000CA           LDS     R16, 202
   \   00000038   7F07               ANDI    R16, 0xF7
   \   0000003A   C012               RJMP    ??run_cont_485_2_7
   \                     ??run_cont_485_2_1:
   \   0000003C   910000CA           LDS     R16, 202
   \   00000040   6300               ORI     R16, 0x30
   \   00000042   CFED               RJMP    ??run_cont_485_2_4
   \                     ??run_cont_485_2_2:
   \   00000044   910000CA           LDS     R16, 202
   \   00000048   7C0F               ANDI    R16, 0xCF
   \   0000004A   930000CA           STS     202, R16
   \   0000004E   910000CA           LDS     R16, 202
   \   00000052   6200               ORI     R16, 0x20
   \   00000054   CFE4               RJMP    ??run_cont_485_2_4
   \                     ??run_cont_485_2_3:
   \   00000056   E001               LDI     R16, 1
   \   00000058   C0A2               RJMP    ??run_cont_485_2_8
   3019                                           break;
   3020                                     case STOP2:
   3021                                           UCSR1C=UCSR1C | 0x08; 
   \                     ??run_cont_485_2_6:
   \   0000005A   910000CA           LDS     R16, 202
   \   0000005E   6008               ORI     R16, 0x08
   \                     ??run_cont_485_2_7:
   \   00000060   930000CA           STS     202, R16
   3022                                           break;
   3023                                     default: return(1);
   3024                                     }
   3025                      
   3026                      
   3027                              switch (((*(pointer+1))>>5)& 0x03)
   \   00000064   8101               LDD     R16, Z+1
   \   00000066   9502               SWAP    R16
   \   00000068   700F               ANDI    R16, 0x0F
   \   0000006A   9506               LSR     R16
   \   0000006C   7003               ANDI    R16, 0x03
   \   0000006E   5002               SUBI    R16, 2
   \   00000070   F019               BREQ    ??run_cont_485_2_9
   \   00000072   950A               DEC     R16
   \   00000074   F051               BREQ    ??run_cont_485_2_10
   \   00000076   CFEF               RJMP    ??run_cont_485_2_3
   3028                                     {
   3029                                     case INF7:
   3030                                          UCSR1C=UCSR1C & ~0x06;
   \                     ??run_cont_485_2_9:
   \   00000078   910000CA           LDS     R16, 202
   \   0000007C   7F09               ANDI    R16, 0xF9
   \   0000007E   930000CA           STS     202, R16
   3031                                          UCSR1C=UCSR1C | 0x04;
   \   00000082   910000CA           LDS     R16, 202
   \   00000086   6004               ORI     R16, 0x04
   \   00000088   C003               RJMP    ??run_cont_485_2_11
   3032                                          break;
   3033                                     case INF8:
   3034                                          UCSR1C=UCSR1C | 0x06;
   \                     ??run_cont_485_2_10:
   \   0000008A   910000CA           LDS     R16, 202
   \   0000008E   6006               ORI     R16, 0x06
   \                     ??run_cont_485_2_11:
   \   00000090   930000CA           STS     202, R16
   3035                                          break;
   3036                                     default: return(1);
   3037                                     }
   3038          
   3039          
   3040                            if((*(unsigned int*)(pointer+2))>10000)return(1);
   \   00000094   8102               LDD     R16, Z+2
   \   00000096   8113               LDD     R17, Z+3
   \   00000098   3101               CPI     R16, 17
   \   0000009A   E227               LDI     R18, 39
   \   0000009C   0712               CPC     R17, R18
   \   0000009E   F6D8               BRCC    ??run_cont_485_2_3
   3041                            Rs485_2.cnt_tm_tx_out=0;
   \   000000A0   ....               LDI     R30, LOW(Rs485_2)
   \   000000A2   ....               LDI     R31, (Rs485_2) >> 8
   \   000000A4   E000               LDI     R16, 0
   \   000000A6   8302               STD     Z+2, R16
   \   000000A8   8303               STD     Z+3, R16
   3042                            Rs485_2.vol_tm_tx_out=*(unsigned int*)(pointer+2);
   \   000000AA   9612               ADIW    R27:R26, 2
   \   000000AC   910D               LD      R16, X+
   \   000000AE   911C               LD      R17, X
   \   000000B0   9713               SBIW    R27:R26, 3
   \   000000B2   8306               STD     Z+6, R16
   \   000000B4   8317               STD     Z+7, R17
   3043                            
   3044                            if((*(unsigned int*)(pointer+4))==0)return(1);
   \   000000B6   9614               ADIW    R27:R26, 4
   \   000000B8   910D               LD      R16, X+
   \   000000BA   911C               LD      R17, X
   \   000000BC   9715               SBIW    R27:R26, 5
   \   000000BE   2B01               OR      R16, R17
   \   000000C0   F251               BREQ    ??run_cont_485_2_3
   3045                            if((*(unsigned int*)(pointer+4))>10000)return(1);
   \   000000C2   9614               ADIW    R27:R26, 4
   \   000000C4   910D               LD      R16, X+
   \   000000C6   911C               LD      R17, X
   \   000000C8   9715               SBIW    R27:R26, 5
   \   000000CA   3101               CPI     R16, 17
   \   000000CC   0712               CPC     R17, R18
   \   000000CE   F618               BRCC    ??run_cont_485_2_3
   3046                            Rs485_2.cnt_tm_rx_out=0;
   \   000000D0   E000               LDI     R16, 0
   \   000000D2   8700               STD     Z+8, R16
   \   000000D4   8701               STD     Z+9, R16
   3047                            Rs485_2.vol_tm_rx_out=*(unsigned int*)(pointer+4);
   \   000000D6   9614               ADIW    R27:R26, 4
   \   000000D8   910D               LD      R16, X+
   \   000000DA   911C               LD      R17, X
   \   000000DC   9715               SBIW    R27:R26, 5
   \   000000DE   8702               STD     Z+10, R16
   \   000000E0   8713               STD     Z+11, R17
   3048                            
   3049                            
   3050                            if((*(unsigned int*)(pointer+6))<3)return(1);
   \   000000E2   9616               ADIW    R27:R26, 6
   \   000000E4   918D               LD      R24, X+
   \   000000E6   919C               LD      R25, X
   \   000000E8   9717               SBIW    R27:R26, 7
   \   000000EA   3083               CPI     R24, 3
   \   000000EC   4090               SBCI    R25, 0
   \   000000EE   F408               BRCC    $+2+2
   \   000000F0   CFB2               RJMP    ??run_cont_485_2_3
   3051                            Rs485_2.cnt_tm_out=0;
   \   000000F2   E000               LDI     R16, 0
   \   000000F4   8704               STD     Z+12, R16
   \   000000F6   8705               STD     Z+13, R16
   3052                            Rs485_2.vol_tm_out=*(unsigned int*)(pointer+6); // 1000 ěčëëčńĺęóíä
   \   000000F8   9616               ADIW    R27:R26, 6
   \   000000FA   910D               LD      R16, X+
   \   000000FC   911C               LD      R17, X
   \   000000FE   9717               SBIW    R27:R26, 7
   \   00000100   8706               STD     Z+14, R16
   \   00000102   8717               STD     Z+15, R17
   3053                             
   3054                             
   3055                             
   3056                           switch (*pointer)
   \   00000104   ....               LDI     R16, LOW(Appl_RS485_1)
   \   00000106   ....               LDI     R17, (Appl_RS485_1) >> 8
   \   00000108   912C               LD      R18, X
   \   0000010A   5024               SUBI    R18, 4
   \   0000010C   F039               BREQ    ??run_cont_485_2_12
   \   0000010E   952A               DEC     R18
   \   00000110   F0C9               BREQ    ??run_cont_485_2_13
   \   00000112   952A               DEC     R18
   \   00000114   F129               BREQ    ??run_cont_485_2_14
   \   00000116   5022               SUBI    R18, 2
   \   00000118   F189               BREQ    ??run_cont_485_2_15
   \   0000011A   CF9D               RJMP    ??run_cont_485_2_3
   3057                                      {
   3058                                        case B2400:
   3059                                               UBRR1H=R2400_H;
   \                     ??run_cont_485_2_12:
   \   0000011C   E021               LDI     R18, 1
   \   0000011E   932000CD           STS     205, R18
   3060                                               UBRR1L=R2400_L;
   \   00000122   E92F               LDI     R18, 159
   \   00000124   932000CC           STS     204, R18
   3061                                               
   3062                                               
   3063                                               if(Appl_RS485_2.pre_tx!=0)
   \   00000128   01D8               MOVW    R27:R26, R17:R16
   \   0000012A   9694               ADIW    R27:R26, 36
   \   0000012C   912D               LD      R18, X+
   \   0000012E   913C               LD      R19, X
   \   00000130   2B23               OR      R18, R19
   \   00000132   F031               BREQ    ??run_cont_485_2_16
   3064                                                    {
   3065                                                    // ďĺđĺőâŕň ďîđňŕ äë˙ ëŕôęčíŕ
   3066                                                    
   3067                                                  //  __disable_interrupt();
   3068                                                    SET_RTS3;
   \                     ??run_cont_485_2_17:
   \   00000134   9A5C               SBI     0x0B, 0x04
   3069                                                  //  __enable_interrupt();
   3070                                                    
   3071                                                    
   3072                                                    Rs485_2.cnt_tm_pre_tx=Appl_RS485_2.pre_tx;//çŕäĺđćęŕ ďĺđĺä ďĺđĺäŕ÷ĺé
   \   00000136   01D8               MOVW    R27:R26, R17:R16
   \   00000138   9694               ADIW    R27:R26, 36
   \   0000013A   910D               LD      R16, X+
   \   0000013C   911C               LD      R17, X
   \   0000013E   C02C               RJMP    ??run_cont_485_2_18
   3073                                                    }
   3074                                                  else Rs485_2.cnt_tm_pre_tx=17;// 17 ěčëëčńĺęóíä
   \                     ??run_cont_485_2_16:
   \   00000140   E101               LDI     R16, 17
   \   00000142   C029               RJMP    ??run_cont_485_2_19
   3075                                              
   3076                                          //     Rs485_2.vol_tm_tx_out=Rs485_2.vol_tm_tx_out+5;
   3077                                               break;
   3078                                        case B4800:
   3079                                               UBRR1H=R4800_H;
   \                     ??run_cont_485_2_13:
   \   00000144   E020               LDI     R18, 0
   \   00000146   932000CD           STS     205, R18
   3080                                               UBRR1L=R4800_L;
   \   0000014A   EC2F               LDI     R18, 207
   \   0000014C   932000CC           STS     204, R18
   3081                                               
   3082                                               if(Appl_RS485_2.pre_tx!=0)
   \   00000150   01D8               MOVW    R27:R26, R17:R16
   \   00000152   9694               ADIW    R27:R26, 36
   \   00000154   912D               LD      R18, X+
   \   00000156   913C               LD      R19, X
   \   00000158   2B23               OR      R18, R19
   \   0000015A   F761               BRNE    ??run_cont_485_2_17
   3083                                                    {
   3084                                                    // ďĺđĺőâŕň ďîđňŕ äë˙ ëŕôęčíŕ
   3085                                                  //  __disable_interrupt();
   3086                                                   SET_RTS3;
   3087                                                 //   __enable_interrupt();
   3088                                                    
   3089                                                    Rs485_2.cnt_tm_pre_tx=Appl_RS485_2.pre_tx;//çŕäĺđćęŕ ďĺđĺä ďĺđĺäŕ÷ĺé
   3090                                                    }
   3091                                                  else Rs485_2.cnt_tm_pre_tx=9;// 9 ěčëëčńĺęóíä
   \   0000015C   E009               LDI     R16, 9
   \   0000015E   C01B               RJMP    ??run_cont_485_2_19
   3092                                                  
   3093                                           //    Rs485_2.vol_tm_tx_out=Rs485_2.vol_tm_tx_out+3;
   3094                                               break;
   3095                                        case B9600:
   3096                                               UBRR1H=R9600_H;
   \                     ??run_cont_485_2_14:
   \   00000160   E020               LDI     R18, 0
   \   00000162   932000CD           STS     205, R18
   3097                                               UBRR1L=R9600_L;
   \   00000166   E627               LDI     R18, 103
   \   00000168   932000CC           STS     204, R18
   3098                                                                                    
   3099                                               if(Appl_RS485_2.pre_tx!=0)
   \   0000016C   01D8               MOVW    R27:R26, R17:R16
   \   0000016E   9694               ADIW    R27:R26, 36
   \   00000170   912D               LD      R18, X+
   \   00000172   913C               LD      R19, X
   \   00000174   2B23               OR      R18, R19
   \   00000176   F6F1               BRNE    ??run_cont_485_2_17
   3100                                                    {
   3101                                                    // ďĺđĺőâŕň ďîđňŕ äë˙ ëŕôęčíŕ
   3102                                                   // __disable_interrupt();
   3103                                                    SET_RTS3;
   3104                                                  //  __enable_interrupt();
   3105                                                    
   3106                                                    Rs485_2.cnt_tm_pre_tx=Appl_RS485_2.pre_tx;//çŕäĺđćęŕ ďĺđĺä ďĺđĺäŕ÷ĺé
   3107                                                    }
   3108                                                  else Rs485_2.cnt_tm_pre_tx=4;// 4 ěčëëčńĺęóíä
   \   00000178   E004               LDI     R16, 4
   \   0000017A   C00D               RJMP    ??run_cont_485_2_19
   3109                                                  
   3110                                          //     Rs485_2.vol_tm_tx_out=Rs485_2.vol_tm_tx_out+2;
   3111                                               break;
   3112                                        case B19200:
   3113                                               UBRR1H=R19200_H;
   \                     ??run_cont_485_2_15:
   \   0000017C   E020               LDI     R18, 0
   \   0000017E   932000CD           STS     205, R18
   3114                                               UBRR1L=R19200_L;
   \   00000182   E323               LDI     R18, 51
   \   00000184   932000CC           STS     204, R18
   3115                                                                                    
   3116                                               if(Appl_RS485_2.pre_tx!=0)
   \   00000188   01D8               MOVW    R27:R26, R17:R16
   \   0000018A   9694               ADIW    R27:R26, 36
   \   0000018C   912D               LD      R18, X+
   \   0000018E   913C               LD      R19, X
   \   00000190   2B23               OR      R18, R19
   \   00000192   F681               BRNE    ??run_cont_485_2_17
   3117                                                    {
   3118                                                    // ďĺđĺőâŕň ďîđňŕ äë˙ ëŕôęčíŕ
   3119                                                     
   3120                                                    // __disable_interrupt();
   3121                                                    SET_RTS3;
   3122                                                   // __enable_interrupt();
   3123                                                    
   3124                                                    Rs485_2.cnt_tm_pre_tx=Appl_RS485_2.pre_tx;//çŕäĺđćęŕ ďĺđĺä ďĺđĺäŕ÷ĺé
   3125                                                    }
   3126                                                  else Rs485_2.cnt_tm_pre_tx=2;// 2 ěčëëčńĺęóíä
   \   00000194   E002               LDI     R16, 2
   \                     ??run_cont_485_2_19:
   \   00000196   E010               LDI     R17, 0
   \                     ??run_cont_485_2_18:
   \   00000198   8304               STD     Z+4, R16
   \   0000019A   8315               STD     Z+5, R17
   3127                                                  
   3128                                          //     Rs485_2.vol_tm_tx_out=Rs485_2.vol_tm_tx_out+1;
   3129                                               break;
   3130                                        default: return(1);
   3131                                      }  
   3132                             
   3133                             
   3134                             
   3135                             
   3136          return(0);
   \   0000019C   E000               LDI     R16, 0
   \                     ??run_cont_485_2_8:
   \   0000019E   E0E4               LDI     R30, 4
   \   000001A0   ........           JMP     ?EPILOGUE_B4_L09
   3137          }
   3138          
   3139          
   3140          
   3141          

   \                                 In segment CODE, align 2, keep-with-next
   3142          unsigned char run_cont_232_2 (unsigned char *pointer)
   \                     run_cont_232_2:
   3143          {
   \   00000000   ........           CALL    ?PROLOGUE4_L09
   \   00000004   01D8               MOVW    R27:R26, R17:R16
   3144              
   3145             
   3146                          switch ((*(pointer+1)) & 0x07)
   \   00000006   01FD               MOVW    R31:R30, R27:R26
   \   00000008   8101               LDD     R16, Z+1
   \   0000000A   7007               ANDI    R16, 0x07
   \   0000000C   F029               BREQ    ??run_cont_232_2_0
   \   0000000E   950A               DEC     R16
   \   00000010   F0A9               BREQ    ??run_cont_232_2_1
   \   00000012   950A               DEC     R16
   \   00000014   F0B9               BREQ    ??run_cont_232_2_2
   \   00000016   C01F               RJMP    ??run_cont_232_2_3
   3147                                     {
   3148                                     case NON:  UCSR2C=UCSR2C & ~0x30;
   \                     ??run_cont_232_2_0:
   \   00000018   910000D2           LDS     R16, 210
   \   0000001C   7C0F               ANDI    R16, 0xCF
   \                     ??run_cont_232_2_4:
   \   0000001E   930000D2           STS     210, R16
   3149                                           break;
   3150                                     case ODD:  UCSR2C=UCSR2C | 0x30;
   3151                                           break;
   3152                                     case EVEN: UCSR2C=UCSR2C & ~0x30;
   3153                                           UCSR2C=UCSR2C | 0x20;
   3154                                           break;
   3155                                     default: return(1);
   3156                                     }
   3157                   
   3158          
   3159                              switch (((*(pointer+1))>>3)& 0x03)
   \   00000022   8101               LDD     R16, Z+1
   \   00000024   9506               LSR     R16
   \   00000026   9506               LSR     R16
   \   00000028   9506               LSR     R16
   \   0000002A   7003               ANDI    R16, 0x03
   \   0000002C   F019               BREQ    ??run_cont_232_2_5
   \   0000002E   5002               SUBI    R16, 2
   \   00000030   F0A1               BREQ    ??run_cont_232_2_6
   \   00000032   C011               RJMP    ??run_cont_232_2_3
   3160                                     {
   3161                                     case STOP1:UCSR2C=UCSR2C & ~0x08; 
   \                     ??run_cont_232_2_5:
   \   00000034   910000D2           LDS     R16, 210
   \   00000038   7F07               ANDI    R16, 0xF7
   \   0000003A   C012               RJMP    ??run_cont_232_2_7
   \                     ??run_cont_232_2_1:
   \   0000003C   910000D2           LDS     R16, 210
   \   00000040   6300               ORI     R16, 0x30
   \   00000042   CFED               RJMP    ??run_cont_232_2_4
   \                     ??run_cont_232_2_2:
   \   00000044   910000D2           LDS     R16, 210
   \   00000048   7C0F               ANDI    R16, 0xCF
   \   0000004A   930000D2           STS     210, R16
   \   0000004E   910000D2           LDS     R16, 210
   \   00000052   6200               ORI     R16, 0x20
   \   00000054   CFE4               RJMP    ??run_cont_232_2_4
   \                     ??run_cont_232_2_3:
   \   00000056   E001               LDI     R16, 1
   \   00000058   C0A6               RJMP    ??run_cont_232_2_8
   3162                                           break;
   3163                                     case STOP2:
   3164                                           UCSR2C=UCSR2C | 0x08; 
   \                     ??run_cont_232_2_6:
   \   0000005A   910000D2           LDS     R16, 210
   \   0000005E   6008               ORI     R16, 0x08
   \                     ??run_cont_232_2_7:
   \   00000060   930000D2           STS     210, R16
   3165                                           break;
   3166                                     default: return(1);
   3167                                     }
   3168                      
   3169                      
   3170                              switch (((*(pointer+1))>>5)& 0x03)
   \   00000064   8101               LDD     R16, Z+1
   \   00000066   9502               SWAP    R16
   \   00000068   700F               ANDI    R16, 0x0F
   \   0000006A   9506               LSR     R16
   \   0000006C   7003               ANDI    R16, 0x03
   \   0000006E   5002               SUBI    R16, 2
   \   00000070   F019               BREQ    ??run_cont_232_2_9
   \   00000072   950A               DEC     R16
   \   00000074   F051               BREQ    ??run_cont_232_2_10
   \   00000076   CFEF               RJMP    ??run_cont_232_2_3
   3171                                     {
   3172                                     case INF7:
   3173                                          UCSR2C=UCSR2C & ~0x06;
   \                     ??run_cont_232_2_9:
   \   00000078   910000D2           LDS     R16, 210
   \   0000007C   7F09               ANDI    R16, 0xF9
   \   0000007E   930000D2           STS     210, R16
   3174                                          UCSR2C=UCSR2C | 0x04;
   \   00000082   910000D2           LDS     R16, 210
   \   00000086   6004               ORI     R16, 0x04
   \   00000088   C003               RJMP    ??run_cont_232_2_11
   3175                                          break;
   3176                                     case INF8:
   3177                                          UCSR2C=UCSR2C | 0x06;
   \                     ??run_cont_232_2_10:
   \   0000008A   910000D2           LDS     R16, 210
   \   0000008E   6006               ORI     R16, 0x06
   \                     ??run_cont_232_2_11:
   \   00000090   930000D2           STS     210, R16
   3178                                          break;
   3179                                     default: return(1);
   3180                                     }
   3181          
   3182          
   3183                            if((*(unsigned int*)(pointer+2))>10000)return(1);
   \   00000094   8102               LDD     R16, Z+2
   \   00000096   8113               LDD     R17, Z+3
   \   00000098   3101               CPI     R16, 17
   \   0000009A   E227               LDI     R18, 39
   \   0000009C   0712               CPC     R17, R18
   \   0000009E   F6D8               BRCC    ??run_cont_232_2_3
   3184                            Rs232_2.cnt_tm_tx_out=0;
   \   000000A0   ....               LDI     R30, LOW(Rs232_2)
   \   000000A2   ....               LDI     R31, (Rs232_2) >> 8
   \   000000A4   E000               LDI     R16, 0
   \   000000A6   8302               STD     Z+2, R16
   \   000000A8   8303               STD     Z+3, R16
   3185                            Rs232_2.vol_tm_tx_out=*(unsigned int*)(pointer+2);
   \   000000AA   9612               ADIW    R27:R26, 2
   \   000000AC   910D               LD      R16, X+
   \   000000AE   911C               LD      R17, X
   \   000000B0   9713               SBIW    R27:R26, 3
   \   000000B2   8306               STD     Z+6, R16
   \   000000B4   8317               STD     Z+7, R17
   3186                            
   3187                            if((*(unsigned int*)(pointer+4))==0)return(1);
   \   000000B6   9614               ADIW    R27:R26, 4
   \   000000B8   910D               LD      R16, X+
   \   000000BA   911C               LD      R17, X
   \   000000BC   9715               SBIW    R27:R26, 5
   \   000000BE   2B01               OR      R16, R17
   \   000000C0   F251               BREQ    ??run_cont_232_2_3
   3188                            if((*(unsigned int*)(pointer+4))>10000)return(1);
   \   000000C2   9614               ADIW    R27:R26, 4
   \   000000C4   910D               LD      R16, X+
   \   000000C6   911C               LD      R17, X
   \   000000C8   9715               SBIW    R27:R26, 5
   \   000000CA   3101               CPI     R16, 17
   \   000000CC   0712               CPC     R17, R18
   \   000000CE   F618               BRCC    ??run_cont_232_2_3
   3189                            Rs232_2.cnt_tm_rx_out=0;
   \   000000D0   E000               LDI     R16, 0
   \   000000D2   8700               STD     Z+8, R16
   \   000000D4   8701               STD     Z+9, R16
   3190                            Rs232_2.vol_tm_rx_out=*(unsigned int*)(pointer+4);
   \   000000D6   9614               ADIW    R27:R26, 4
   \   000000D8   910D               LD      R16, X+
   \   000000DA   911C               LD      R17, X
   \   000000DC   9715               SBIW    R27:R26, 5
   \   000000DE   8702               STD     Z+10, R16
   \   000000E0   8713               STD     Z+11, R17
   3191                            
   3192                            
   3193                            if((*(unsigned int*)(pointer+6))<3)return(1);
   \   000000E2   9616               ADIW    R27:R26, 6
   \   000000E4   918D               LD      R24, X+
   \   000000E6   919C               LD      R25, X
   \   000000E8   9717               SBIW    R27:R26, 7
   \   000000EA   3083               CPI     R24, 3
   \   000000EC   4090               SBCI    R25, 0
   \   000000EE   F408               BRCC    $+2+2
   \   000000F0   CFB2               RJMP    ??run_cont_232_2_3
   3194                            Rs232_2.cnt_tm_out=0;
   \   000000F2   E000               LDI     R16, 0
   \   000000F4   8704               STD     Z+12, R16
   \   000000F6   8705               STD     Z+13, R16
   3195                            Rs232_2.vol_tm_out=*(unsigned int*)(pointer+6); // 1000 ěčëëčńĺęóíä
   \   000000F8   9616               ADIW    R27:R26, 6
   \   000000FA   910D               LD      R16, X+
   \   000000FC   911C               LD      R17, X
   \   000000FE   9717               SBIW    R27:R26, 7
   \   00000100   8706               STD     Z+14, R16
   \   00000102   8717               STD     Z+15, R17
   3196                             
   3197                             
   3198                             
   3199                           switch (*pointer)
   \   00000104   ....               LDI     R16, LOW(Appl_RS232_2)
   \   00000106   ....               LDI     R17, (Appl_RS232_2) >> 8
   \   00000108   912C               LD      R18, X
   \   0000010A   5024               SUBI    R18, 4
   \   0000010C   F039               BREQ    ??run_cont_232_2_12
   \   0000010E   952A               DEC     R18
   \   00000110   F0E9               BREQ    ??run_cont_232_2_13
   \   00000112   952A               DEC     R18
   \   00000114   F149               BREQ    ??run_cont_232_2_14
   \   00000116   5022               SUBI    R18, 2
   \   00000118   F1A9               BREQ    ??run_cont_232_2_15
   \   0000011A   CF9D               RJMP    ??run_cont_232_2_3
   3200                                      {
   3201                                        case B2400:
   3202                                               UBRR2H=R2400_H;
   \                     ??run_cont_232_2_12:
   \   0000011C   E021               LDI     R18, 1
   \   0000011E   932000D5           STS     213, R18
   3203                                               UBRR2L=R2400_L;
   \   00000122   E92F               LDI     R18, 159
   \   00000124   932000D4           STS     212, R18
   3204                                               
   3205                                               
   3206                                               if(Appl_RS232_2.pre_tx!=0)
   \   00000128   01D8               MOVW    R27:R26, R17:R16
   \   0000012A   9651               ADIW    R27:R26, 17
   \   0000012C   912D               LD      R18, X+
   \   0000012E   913C               LD      R19, X
   \   00000130   2B23               OR      R18, R19
   \   00000132   F051               BREQ    ??run_cont_232_2_16
   3207                                                    {
   3208                                                    // ďĺđĺőâŕň ďîđňŕ äë˙ ëŕôęčíŕ
   3209                                                    
   3210                                                  //  __disable_interrupt();
   3211                                                    SET_RTS2;
   \                     ??run_cont_232_2_17:
   \   00000134   91200102           LDS     R18, 258
   \   00000138   7F2B               ANDI    R18, 0xFB
   \   0000013A   93200102           STS     258, R18
   3212                                                  //  __enable_interrupt();
   3213                                                    
   3214                                                    
   3215                                                    Rs232_2.cnt_tm_pre_tx=Appl_RS232_2.pre_tx;//çŕäĺđćęŕ ďĺđĺä ďĺđĺäŕ÷ĺé
   \   0000013E   01D8               MOVW    R27:R26, R17:R16
   \   00000140   9651               ADIW    R27:R26, 17
   \   00000142   910D               LD      R16, X+
   \   00000144   911C               LD      R17, X
   \   00000146   C02C               RJMP    ??run_cont_232_2_18
   3216                                                    }
   3217                                                  else Rs232_2.cnt_tm_pre_tx=17;// 17 ěčëëčńĺęóíä
   \                     ??run_cont_232_2_16:
   \   00000148   E101               LDI     R16, 17
   \   0000014A   C029               RJMP    ??run_cont_232_2_19
   3218                                              
   3219                                            //   Rs232_2.vol_tm_tx_out=Rs232_2.vol_tm_tx_out+5;
   3220                                               break;
   3221                                        case B4800:
   3222                                               UBRR2H=R4800_H;
   \                     ??run_cont_232_2_13:
   \   0000014C   E020               LDI     R18, 0
   \   0000014E   932000D5           STS     213, R18
   3223                                               UBRR2L=R4800_L;
   \   00000152   EC2F               LDI     R18, 207
   \   00000154   932000D4           STS     212, R18
   3224                                               
   3225                                               if(Appl_RS232_2.pre_tx!=0)
   \   00000158   01D8               MOVW    R27:R26, R17:R16
   \   0000015A   9651               ADIW    R27:R26, 17
   \   0000015C   912D               LD      R18, X+
   \   0000015E   913C               LD      R19, X
   \   00000160   2B23               OR      R18, R19
   \   00000162   F741               BRNE    ??run_cont_232_2_17
   3226                                                    {
   3227                                                    // ďĺđĺőâŕň ďîđňŕ äë˙ ëŕôęčíŕ
   3228                                                  //  __disable_interrupt();
   3229                                                   SET_RTS2;
   3230                                                 //   __enable_interrupt();
   3231                                                    
   3232                                                    Rs232_2.cnt_tm_pre_tx=Appl_RS232_2.pre_tx;//çŕäĺđćęŕ ďĺđĺä ďĺđĺäŕ÷ĺé
   3233                                                    }
   3234                                                  else Rs232_2.cnt_tm_pre_tx=9;// 9 ěčëëčńĺęóíä
   \   00000164   E009               LDI     R16, 9
   \   00000166   C01B               RJMP    ??run_cont_232_2_19
   3235                                                  
   3236                                           //    Rs232_2.vol_tm_tx_out=Rs232_2.vol_tm_tx_out+3;
   3237                                               break;
   3238                                        case B9600:
   3239                                               UBRR2H=R9600_H;
   \                     ??run_cont_232_2_14:
   \   00000168   E020               LDI     R18, 0
   \   0000016A   932000D5           STS     213, R18
   3240                                               UBRR2L=R9600_L;
   \   0000016E   E627               LDI     R18, 103
   \   00000170   932000D4           STS     212, R18
   3241                                                                                    
   3242                                               if(Appl_RS232_2.pre_tx!=0)
   \   00000174   01D8               MOVW    R27:R26, R17:R16
   \   00000176   9651               ADIW    R27:R26, 17
   \   00000178   912D               LD      R18, X+
   \   0000017A   913C               LD      R19, X
   \   0000017C   2B23               OR      R18, R19
   \   0000017E   F6D1               BRNE    ??run_cont_232_2_17
   3243                                                    {
   3244                                                    // ďĺđĺőâŕň ďîđňŕ äë˙ ëŕôęčíŕ
   3245                                                   // __disable_interrupt();
   3246                                                    SET_RTS2;
   3247                                                  //  __enable_interrupt();
   3248                                                    
   3249                                                    Rs232_2.cnt_tm_pre_tx=Appl_RS232_2.pre_tx;//çŕäĺđćęŕ ďĺđĺä ďĺđĺäŕ÷ĺé
   3250                                                    }
   3251                                                  else Rs232_2.cnt_tm_pre_tx=4;// 4 ěčëëčńĺęóíä
   \   00000180   E004               LDI     R16, 4
   \   00000182   C00D               RJMP    ??run_cont_232_2_19
   3252                                                  
   3253                                         //      Rs232_2.vol_tm_tx_out=Rs232_2.vol_tm_tx_out+2;
   3254                                               break;
   3255                                        case B19200:
   3256                                               UBRR2H=R19200_H;
   \                     ??run_cont_232_2_15:
   \   00000184   E020               LDI     R18, 0
   \   00000186   932000D5           STS     213, R18
   3257                                               UBRR2L=R19200_L;
   \   0000018A   E323               LDI     R18, 51
   \   0000018C   932000D4           STS     212, R18
   3258                                                                                    
   3259                                               if(Appl_RS232_2.pre_tx!=0)
   \   00000190   01D8               MOVW    R27:R26, R17:R16
   \   00000192   9651               ADIW    R27:R26, 17
   \   00000194   912D               LD      R18, X+
   \   00000196   913C               LD      R19, X
   \   00000198   2B23               OR      R18, R19
   \   0000019A   F661               BRNE    ??run_cont_232_2_17
   3260                                                    {
   3261                                                    // ďĺđĺőâŕň ďîđňŕ äë˙ ëŕôęčíŕ
   3262                                                     
   3263                                                    // __disable_interrupt();
   3264                                                    SET_RTS2;
   3265                                                   // __enable_interrupt();
   3266                                                    
   3267                                                    Rs232_2.cnt_tm_pre_tx=Appl_RS232_2.pre_tx;//çŕäĺđćęŕ ďĺđĺä ďĺđĺäŕ÷ĺé
   3268                                                    }
   3269                                                  else Rs232_2.cnt_tm_pre_tx=2;// 2 ěčëëčńĺęóíä
   \   0000019C   E002               LDI     R16, 2
   \                     ??run_cont_232_2_19:
   \   0000019E   E010               LDI     R17, 0
   \                     ??run_cont_232_2_18:
   \   000001A0   8304               STD     Z+4, R16
   \   000001A2   8315               STD     Z+5, R17
   3270                                                  
   3271                                         //      Rs232_2.vol_tm_tx_out=Rs232_2.vol_tm_tx_out+1;
   3272                                               break;
   3273                                        default: return(1);
   3274                                      }  
   3275                             
   3276                             
   3277                             
   3278                             
   3279          return(0);
   \   000001A4   E000               LDI     R16, 0
   \                     ??run_cont_232_2_8:
   \   000001A6   E0E4               LDI     R30, 4
   \   000001A8   ........           JMP     ?EPILOGUE_B4_L09
   3280          }
   3281          
   3282          
   3283          
   3284          
   3285          
   3286          
   3287          
   3288          
   3289          

   \                                 In segment CODE, align 2, keep-with-next
   3290           unsigned char check_ln_conf(unsigned char *buf_rx_ppp,unsigned char offset,unsigned int count_rx_ppp)
   \                     check_ln_conf:
   3291           {
   \   00000000   ........           CALL    ?PROLOGUE4_L09
   3292           unsigned int ind;
   3293          
   3294           ind=offset+C1_DATA;
   \   00000004   2F82               MOV     R24, R18
   \   00000006   E090               LDI     R25, 0
   \   00000008   9602               ADIW    R25:R24, 2
   3295           next_check_ln: 
   3296                         ind=ind+3+*(unsigned int*)&buf_rx_ppp[ind+1]; 
   \                     ??check_ln_conf_0:
   \   0000000A   01F8               MOVW    R31:R30, R17:R16
   \   0000000C   0FE8               ADD     R30, R24
   \   0000000E   1FF9               ADC     R31, R25
   \   00000010   81A1               LDD     R26, Z+1
   \   00000012   81B2               LDD     R27, Z+2
   \   00000014   9613               ADIW    R27:R26, 3
   \   00000016   0F8A               ADD     R24, R26
   \   00000018   1F9B               ADC     R25, R27
   3297                         if(ind>count_rx_ppp-3)return(1);
   \   0000001A   01FA               MOVW    R31:R30, R21:R20
   \   0000001C   9733               SBIW    R31:R30, 3
   \   0000001E   17E8               CP      R30, R24
   \   00000020   07F9               CPC     R31, R25
   \   00000022   F410               BRCC    ??check_ln_conf_1
   \   00000024   E001               LDI     R16, 1
   \   00000026   C004               RJMP    ??check_ln_conf_2
   3298                         if(ind==count_rx_ppp-3)return(0);
   \                     ??check_ln_conf_1:
   \   00000028   178E               CP      R24, R30
   \   0000002A   079F               CPC     R25, R31
   \   0000002C   F771               BRNE    ??check_ln_conf_0
   \   0000002E   E000               LDI     R16, 0
   \                     ??check_ln_conf_2:
   \   00000030   E0E4               LDI     R30, 4
   \   00000032   ........           JMP     ?EPILOGUE_B4_L09
   3299                         goto next_check_ln;
   3300           } 
   3301          
   3302          
   3303          

   \                                 In segment CODE, align 2, keep-with-next
   3304          unsigned int proc_config(unsigned char *buf_rx_ppp,unsigned char offset,unsigned int count_rx_ppp)
   \                     proc_config:
   3305           {
   \   00000000   ........           CALL    ?PROLOGUE16_L09
   \   00000004                      REQUIRE ?Register_R4_is_cg_reg
   \   00000004                      REQUIRE ?Register_R5_is_cg_reg
   \   00000004                      REQUIRE ?Register_R6_is_cg_reg
   \   00000004                      REQUIRE ?Register_R7_is_cg_reg
   \   00000004                      REQUIRE ?Register_R10_is_cg_reg
   \   00000004                      REQUIRE ?Register_R11_is_cg_reg
   \   00000004                      REQUIRE ?Register_R12_is_cg_reg
   \   00000004                      REQUIRE ?Register_R13_is_cg_reg
   \   00000004                      REQUIRE ?Register_R14_is_cg_reg
   \   00000004                      REQUIRE ?Register_R15_is_cg_reg
   \   00000004   9768               SBIW    R29:R28, 24
   \   00000006   8B4E               STD     Y+22, R20
   \   00000008   8B5F               STD     Y+23, R21
   \   0000000A   0168               MOVW    R13:R12, R17:R16
   3306          
   3307           //unsigned char flag_monitor_beg=0;
   3308           unsigned int ind,temp,ofs,i;
   3309           unsigned int cnt_bt;
   3310           unsigned char buf[20];
   3311           cnt_bt=0;
   \   0000000C   24AA               CLR     R10
   \   0000000E   24BB               CLR     R11
   3312           ind=offset+C1_DATA;
   \   00000010   2EE2               MOV     R14, R18
   \   00000012   24FF               CLR     R15
   \   00000014   01C7               MOVW    R25:R24, R15:R14
   \   00000016   9602               ADIW    R25:R24, 2
   \   00000018   8B8C               STD     Y+20, R24
   \   0000001A   8B9D               STD     Y+21, R25
   3313           next_parametr: 
   3314                         
   3315                         switch(buf_rx_ppp[ind]&0x7f)
   \                     ??proc_config_0:
   \   0000001C   ....               LDI     R26, LOW(buf_tx_232)
   \   0000001E   ....               LDI     R27, (buf_tx_232) >> 8
   \   00000020   0DAA               ADD     R26, R10
   \   00000022   1DBB               ADC     R27, R11
   \   00000024   0126               MOVW    R5:R4, R13:R12
   \   00000026   0C4E               ADD     R4, R14
   \   00000028   1C5F               ADC     R5, R15
   \   0000002A   890C               LDD     R16, Y+20
   \   0000002C   891D               LDD     R17, Y+21
   \   0000002E   01C6               MOVW    R25:R24, R13:R12
   \   00000030   0F80               ADD     R24, R16
   \   00000032   1F91               ADC     R25, R17
   \   00000034   ....               LDI     R16, LOW(Appl_seq)
   \   00000036   2E60               MOV     R6, R16
   \   00000038   ....               LDI     R16, (Appl_seq) >> 8
   \   0000003A   2E70               MOV     R7, R16
   \   0000003C   01FC               MOVW    R31:R30, R25:R24
   \   0000003E   8100               LD      R16, Z
   \   00000040   770F               ANDI    R16, 0x7F
   \   00000042   ....               LDI     R30, LOW(`?<Jumptable for proc_config>_0`)
   \   00000044   ....               LDI     R31, (`?<Jumptable for proc_config>_0`) >> 16
   \   00000046   BFFB               OUT     0x3B, R31
   \   00000048   ....               LDI     R31, HIGH(`?<Jumptable for proc_config>_0`)
   \   0000004A   ........           JMP     ?CV_SWITCH_L06
   3316                           {
   3317                           case CONF_VERS:  if((buf_rx_ppp[ind] & 0x80)==0x80)goto bad_com;
   \                     ??proc_config_1:
   \   0000004E   01FC               MOVW    R31:R30, R25:R24
   \   00000050   8100               LD      R16, Z
   \   00000052   FD07               SBRC    R16, 7
   \   00000054   C670               RJMP    ??proc_config_2
   3318                                              else
   3319                                              {
   3320                                              if(*(unsigned int*)&buf_rx_ppp[ind+1]!=L_RD_CONF_VERS)goto bad_com;   
   \   00000056   8101               LDD     R16, Z+1
   \   00000058   8112               LDD     R17, Z+2
   \   0000005A   2B01               OR      R16, R17
   \   0000005C   F009               BREQ    $+2+2
   \   0000005E   C66B               RJMP    ??proc_config_2
   3321                                              }
   3322                                             buf_tx_232[TR_OP_DATA+C1_DATA+cnt_bt]=buf_rx_ppp[ind];  
   \   00000060   8100               LD      R16, Z
   \   00000062   01FD               MOVW    R31:R30, R27:R26
   \   00000064   A704               STD     Z+44, R16
   3323                                             buf_tx_232[TR_OP_DATA+C1_DATA+3+cnt_bt]=0x00; //OK  
   \   00000066   E000               LDI     R16, 0
   \   00000068   A707               STD     Z+47, R16
   3324                                             buf[0]=ret_version(0,&buf_tx_232[TR_OP_DATA+C1_DATA+4+cnt_bt]);
   \   0000006A   019D               MOVW    R19:R18, R27:R26
   \   0000006C   5D20               SUBI    R18, 208
   \   0000006E   4F3F               SBCI    R19, 255
   \                     ??proc_config_3:
   \   00000070   ........           CALL    ret_version
   \   00000074   8308               ST      Y, R16
   3325                                             *(unsigned int*)&buf_tx_232[TR_OP_DATA+C1_DATA+1+cnt_bt]=buf[0]+1;
   \   00000076   8108               LD      R16, Y
   \   00000078   E010               LDI     R17, 0
   \   0000007A   5F0F               SUBI    R16, 255
   \   0000007C   4F1F               SBCI    R17, 255
   \   0000007E   01FD               MOVW    R31:R30, R27:R26
   \   00000080   A705               STD     Z+45, R16
   \   00000082   A716               STD     Z+46, R17
   3326                                            cnt_bt=cnt_bt+buf[0]+1+3;
   \   00000084   8108               LD      R16, Y
   \   00000086   2FE0               MOV     R30, R16
   \   00000088   E0F0               LDI     R31, 0
   \   0000008A   9634               ADIW    R31:R30, 4
   \   0000008C   0EAE               ADD     R10, R30
   \   0000008E   1EBF               ADC     R11, R31
   \   00000090   C65F               RJMP    ??proc_config_4
   3327                                            break;
   3328                           
   3329                           case CONF_MAP:  if((buf_rx_ppp[ind] & 0x80)==0x80)goto bad_com;
   \                     ??proc_config_5:
   \   00000092   01FC               MOVW    R31:R30, R25:R24
   \   00000094   8100               LD      R16, Z
   \   00000096   FD07               SBRC    R16, 7
   \   00000098   C64E               RJMP    ??proc_config_2
   3330                                              else
   3331                                              {
   3332                                              if(*(unsigned int*)&buf_rx_ppp[ind+1]!=L_RD_CONF_MAP)goto bad_com;   
   \   0000009A   8101               LDD     R16, Z+1
   \   0000009C   8112               LDD     R17, Z+2
   \   0000009E   2B01               OR      R16, R17
   \   000000A0   F009               BREQ    $+2+2
   \   000000A2   C649               RJMP    ??proc_config_2
   3333                                              }
   3334                                             buf_tx_232[TR_OP_DATA+C1_DATA+cnt_bt]=buf_rx_ppp[ind];  
   \   000000A4   8100               LD      R16, Z
   \   000000A6   01FD               MOVW    R31:R30, R27:R26
   \   000000A8   A704               STD     Z+44, R16
   3335                                             buf_tx_232[TR_OP_DATA+C1_DATA+3+cnt_bt]=0x00; //OK  
   \   000000AA   A6F7               STD     Z+47, R15
   3336                                             buf[0]=ret_version(1,&buf_tx_232[TR_OP_DATA+C1_DATA+4+cnt_bt]);
   \   000000AC   019D               MOVW    R19:R18, R27:R26
   \   000000AE   5D20               SUBI    R18, 208
   \   000000B0   4F3F               SBCI    R19, 255
   \   000000B2   E001               LDI     R16, 1
   \   000000B4   CFDD               RJMP    ??proc_config_3
   3337                                             *(unsigned int*)&buf_tx_232[TR_OP_DATA+C1_DATA+1+cnt_bt]=buf[0]+1;
   3338                                            cnt_bt=cnt_bt+buf[0]+1+3;
   3339                                            break;
   3340                           
   3341                           
   3342                          case CONF_OZU:  if((buf_rx_ppp[ind] & 0x80)==0x80)goto bad_com;
   \                     ??proc_config_6:
   \   000000B6   01FC               MOVW    R31:R30, R25:R24
   \   000000B8   8100               LD      R16, Z
   \   000000BA   FD07               SBRC    R16, 7
   \   000000BC   C63C               RJMP    ??proc_config_2
   3343                                              else
   3344                                              {
   3345                                              if(*(unsigned int*)&buf_rx_ppp[ind+1]!=L_RD_CONF_OZU)goto bad_com;   
   \   000000BE   8101               LDD     R16, Z+1
   \   000000C0   8112               LDD     R17, Z+2
   \   000000C2   2B01               OR      R16, R17
   \   000000C4   F009               BREQ    $+2+2
   \   000000C6   C637               RJMP    ??proc_config_2
   3346                                              }
   3347                                             buf_tx_232[TR_OP_DATA+C1_DATA+cnt_bt]=buf_rx_ppp[ind];  
   \   000000C8   8100               LD      R16, Z
   \   000000CA   01FD               MOVW    R31:R30, R27:R26
   \   000000CC   A704               STD     Z+44, R16
   3348                                             buf_tx_232[TR_OP_DATA+C1_DATA+3+cnt_bt]=0x00; //OK  
   \   000000CE   A6F7               STD     Z+47, R15
   3349                                             buf[0]=ret_version(2,&buf_tx_232[TR_OP_DATA+C1_DATA+4+cnt_bt]);
   \   000000D0   019D               MOVW    R19:R18, R27:R26
   \   000000D2   5D20               SUBI    R18, 208
   \   000000D4   4F3F               SBCI    R19, 255
   \   000000D6   E002               LDI     R16, 2
   \   000000D8   CFCB               RJMP    ??proc_config_3
   3350                                             *(unsigned int*)&buf_tx_232[TR_OP_DATA+C1_DATA+1+cnt_bt]=buf[0]+1;
   3351                                            cnt_bt=cnt_bt+buf[0]+1+3;
   3352                                            break;
   3353                          
   3354                           case CONF_TM_NAT:  
   3355                           
   3356                                            
   3357                                            if((buf_rx_ppp[offset+C1_DATA] & 0x80)==0x80)
   \                     ??proc_config_7:
   \   000000DA   01F2               MOVW    R31:R30, R5:R4
   \   000000DC   8102               LDD     R16, Z+2
   \   000000DE   01FC               MOVW    R31:R30, R25:R24
   \   000000E0   FF07               SBRS    R16, 7
   \   000000E2   C034               RJMP    ??proc_config_8
   3358                                              {
   3359                                              if(*(unsigned int*)&buf_rx_ppp[ind+1]!=L_CONF_TM_NAT)goto bad_com;
   \   000000E4   8121               LDD     R18, Z+1
   \   000000E6   8132               LDD     R19, Z+2
   \   000000E8   3022               CPI     R18, 2
   \   000000EA   053F               CPC     R19, R15
   \   000000EC   F009               BREQ    $+2+2
   \   000000EE   C623               RJMP    ??proc_config_2
   3360                                              //çŕďčńü
   3361                                              temp=*(unsigned int*)&buf_rx_ppp[ind+3];
   \   000000F0   8043               LDD     R4, Z+3
   \   000000F2   8054               LDD     R5, Z+4
   3362                                              
   3363                                              if (temp<10){buf_tx_232[TR_OP_DATA+C1_DATA+3+cnt_bt]=0x01;goto nocorr_com;}
   \   000000F4   E00A               LDI     R16, 10
   \   000000F6   1640               CP      R4, R16
   \   000000F8   045F               CPC     R5, R15
   \   000000FA   F410               BRCC    ??proc_config_9
   \                     ??proc_config_10:
   \   000000FC   E001               LDI     R16, 1
   \   000000FE   C61C               RJMP    ??proc_config_11
   3364                                              
   3365                                              
   3366                                              Control.vol_nat=temp;
   \                     ??proc_config_9:
   \   00000100   ....               LDI     R30, LOW(Appl_seq)
   \   00000102   ....               LDI     R31, (Appl_seq) >> 8
   \   00000104   A244               STD     Z+36, R4
   \   00000106   A255               STD     Z+37, R5
   3367                                              RdFromFleshToArr(A_C_PAR,&buf[0],L_C_PAR); 
   \   00000108   E04E               LDI     R20, 14
   \   0000010A   E050               LDI     R21, 0
   \   0000010C   019E               MOVW    R19:R18, R29:R28
   \   0000010E   E906               LDI     R16, 150
   \   00000110   E010               LDI     R17, 0
   \   00000112   ........           CALL    RdFromFleshToArr
   3368                                              *(unsigned int*)&buf[OFS_NAT]=temp;
   \   00000116   8248               ST      Y, R4
   \   00000118   8259               STD     Y+1, R5
   3369                                              *(unsigned int*)&buf[OFS_C_PAR_CRC]=crc_m1(&buf[0],L_C_PAR-2,0xffff);
   \   0000011A   EF4F               LDI     R20, 255
   \   0000011C   EF5F               LDI     R21, 255
   \   0000011E   E02C               LDI     R18, 12
   \   00000120   E030               LDI     R19, 0
   \   00000122   018E               MOVW    R17:R16, R29:R28
   \   00000124   ........           CALL    crc_m1
   \   00000128   870C               STD     Y+12, R16
   \   0000012A   871D               STD     Y+13, R17
   3370                                              WrArrayToFlesh(A_C_PAR, &buf[0],L_C_PAR,0,0);
   \   0000012C   E070               LDI     R23, 0
   \   0000012E   E060               LDI     R22, 0
   \   00000130   E04E               LDI     R20, 14
   \   00000132   E050               LDI     R21, 0
   \   00000134   019E               MOVW    R19:R18, R29:R28
   \   00000136   E906               LDI     R16, 150
   \   00000138   E010               LDI     R17, 0
   \   0000013A   ........           CALL    WrArrayToFlesh
   3371                                              prov_ozu=crc_ozu();
   \   0000013E   ........           CALL    crc_ozu
   \   00000142   ....               LDI     R30, LOW(prov_ozu)
   \   00000144   ....               LDI     R31, (prov_ozu) >> 8
   \   00000146   8300               ST      Z, R16
   \   00000148   8311               STD     Z+1, R17
   \   0000014A   C005               RJMP    ??proc_config_12
   3372                                              }
   3373                                              else {if(*(unsigned int*)&buf_rx_ppp[ind+1]!=(L_CONF_TM_NAT-2))goto bad_com;}
   \                     ??proc_config_8:
   \   0000014C   8101               LDD     R16, Z+1
   \   0000014E   8112               LDD     R17, Z+2
   \   00000150   2B01               OR      R16, R17
   \   00000152   F009               BREQ    $+2+2
   \   00000154   C5F0               RJMP    ??proc_config_2
   3374                                               
   3375          
   3376                                              buf_tx_232[TR_OP_DATA+C1_DATA+cnt_bt]=buf_rx_ppp[ind];  //÷ňĺíčĺ
   \                     ??proc_config_12:
   \   00000156   01FC               MOVW    R31:R30, R25:R24
   \   00000158   8100               LD      R16, Z
   \   0000015A   01FD               MOVW    R31:R30, R27:R26
   \   0000015C   A704               STD     Z+44, R16
   3377                                              *(unsigned int*)&buf_tx_232[TR_OP_DATA+C1_DATA+1+cnt_bt]=L_CONF_TM_NAT+1;   
   \   0000015E   E003               LDI     R16, 3
   \   00000160   E010               LDI     R17, 0
   \   00000162   A705               STD     Z+45, R16
   \   00000164   A716               STD     Z+46, R17
   3378                                              buf_tx_232[TR_OP_DATA+C1_DATA+3+cnt_bt]=0x00; //OK  
   \   00000166   A717               STD     Z+47, R17
   3379                                              RdFromFleshToArr(A_C_PAR+OFS_NAT,&buf_tx_232[TR_OP_DATA+C1_DATA+4+cnt_bt],2);
   \   00000168   E042               LDI     R20, 2
   \   0000016A   E050               LDI     R21, 0
   \   0000016C   96D0               ADIW    R27:R26, 48
   \   0000016E   019D               MOVW    R19:R18, R27:R26
   \   00000170   E906               LDI     R16, 150
   \                     ??proc_config_13:
   \   00000172   ........           CALL    RdFromFleshToArr
   3380                                              
   3381                                              cnt_bt=cnt_bt+L_CONF_TM_NAT+1+3;
   \                     ??proc_config_14:
   \   00000176   E006               LDI     R16, 6
   \   00000178   C5E9               RJMP    ??proc_config_15
   3382                                            break;
   3383                             
   3384                             case CONF_TM_CC:  
   3385                           
   3386                                            
   3387                                            if((buf_rx_ppp[offset+C1_DATA] & 0x80)==0x80)
   \                     ??proc_config_16:
   \   0000017A   01F2               MOVW    R31:R30, R5:R4
   \   0000017C   8102               LDD     R16, Z+2
   \   0000017E   01FC               MOVW    R31:R30, R25:R24
   \   00000180   FF07               SBRS    R16, 7
   \   00000182   C033               RJMP    ??proc_config_17
   3388                                              {
   3389                                              if(*(unsigned int*)&buf_rx_ppp[ind+1]!=L_CONF_TM_CC)goto bad_com;
   \   00000184   8121               LDD     R18, Z+1
   \   00000186   8132               LDD     R19, Z+2
   \   00000188   3022               CPI     R18, 2
   \   0000018A   053F               CPC     R19, R15
   \   0000018C   F009               BREQ    $+2+2
   \   0000018E   C5D3               RJMP    ??proc_config_2
   3390                                              //çŕďčńü
   3391                                              temp=*(unsigned int*)&buf_rx_ppp[ind+3];
   \   00000190   8043               LDD     R4, Z+3
   \   00000192   8054               LDD     R5, Z+4
   3392                                              
   3393                                              if (temp<10){buf_tx_232[TR_OP_DATA+C1_DATA+3+cnt_bt]=0x01;goto nocorr_com;}
   \   00000194   E00A               LDI     R16, 10
   \   00000196   1640               CP      R4, R16
   \   00000198   045F               CPC     R5, R15
   \   0000019A   F408               BRCC    $+2+2
   \   0000019C   CFAF               RJMP    ??proc_config_10
   3394                                              
   3395                                              Control.vol_link=temp;
   \   0000019E   ....               LDI     R30, LOW(Appl_seq)
   \   000001A0   ....               LDI     R31, (Appl_seq) >> 8
   \   000001A2   A242               STD     Z+34, R4
   \   000001A4   A253               STD     Z+35, R5
   3396                                              RdFromFleshToArr(A_C_PAR,&buf[0],L_C_PAR); 
   \   000001A6   E04E               LDI     R20, 14
   \   000001A8   E050               LDI     R21, 0
   \   000001AA   019E               MOVW    R19:R18, R29:R28
   \   000001AC   E906               LDI     R16, 150
   \   000001AE   E010               LDI     R17, 0
   \   000001B0   ........           CALL    RdFromFleshToArr
   3397                                              *(unsigned int*)&buf[OFS_CCH]=temp;
   \   000001B4   824A               STD     Y+2, R4
   \   000001B6   825B               STD     Y+3, R5
   3398                                              *(unsigned int*)&buf[OFS_C_PAR_CRC]=crc_m1(&buf[0],L_C_PAR-2,0xffff);
   \   000001B8   EF4F               LDI     R20, 255
   \   000001BA   EF5F               LDI     R21, 255
   \   000001BC   E02C               LDI     R18, 12
   \   000001BE   E030               LDI     R19, 0
   \   000001C0   018E               MOVW    R17:R16, R29:R28
   \   000001C2   ........           CALL    crc_m1
   \   000001C6   870C               STD     Y+12, R16
   \   000001C8   871D               STD     Y+13, R17
   3399                                              WrArrayToFlesh(A_C_PAR, &buf[0],L_C_PAR,0,0);
   \   000001CA   E070               LDI     R23, 0
   \   000001CC   E060               LDI     R22, 0
   \   000001CE   E04E               LDI     R20, 14
   \   000001D0   E050               LDI     R21, 0
   \   000001D2   019E               MOVW    R19:R18, R29:R28
   \   000001D4   E906               LDI     R16, 150
   \   000001D6   E010               LDI     R17, 0
   \   000001D8   ........           CALL    WrArrayToFlesh
   3400                                              prov_ozu=crc_ozu();
   \   000001DC   ........           CALL    crc_ozu
   \   000001E0   ....               LDI     R30, LOW(prov_ozu)
   \   000001E2   ....               LDI     R31, (prov_ozu) >> 8
   \   000001E4   8300               ST      Z, R16
   \   000001E6   8311               STD     Z+1, R17
   \   000001E8   C005               RJMP    ??proc_config_18
   3401                                              }
   3402                                              else {if(*(unsigned int*)&buf_rx_ppp[ind+1]!=(L_CONF_TM_CC-2))goto bad_com;}
   \                     ??proc_config_17:
   \   000001EA   8101               LDD     R16, Z+1
   \   000001EC   8112               LDD     R17, Z+2
   \   000001EE   2B01               OR      R16, R17
   \   000001F0   F009               BREQ    $+2+2
   \   000001F2   C5A1               RJMP    ??proc_config_2
   3403                                               
   3404          
   3405                                              buf_tx_232[TR_OP_DATA+C1_DATA+cnt_bt]=buf_rx_ppp[ind];  //÷ňĺíčĺ
   \                     ??proc_config_18:
   \   000001F4   01FC               MOVW    R31:R30, R25:R24
   \   000001F6   8100               LD      R16, Z
   \   000001F8   01FD               MOVW    R31:R30, R27:R26
   \   000001FA   A704               STD     Z+44, R16
   3406                                              *(unsigned int*)&buf_tx_232[TR_OP_DATA+C1_DATA+1+cnt_bt]=L_CONF_TM_CC+1;   
   \   000001FC   E003               LDI     R16, 3
   \   000001FE   E010               LDI     R17, 0
   \   00000200   A705               STD     Z+45, R16
   \   00000202   A716               STD     Z+46, R17
   3407                                              buf_tx_232[TR_OP_DATA+C1_DATA+3+cnt_bt]=0x00; //OK  
   \   00000204   A717               STD     Z+47, R17
   3408                                              RdFromFleshToArr(A_C_PAR+OFS_CCH,&buf_tx_232[TR_OP_DATA+C1_DATA+4+cnt_bt],2);
   \   00000206   E042               LDI     R20, 2
   \   00000208   E050               LDI     R21, 0
   \   0000020A   96D0               ADIW    R27:R26, 48
   \   0000020C   019D               MOVW    R19:R18, R27:R26
   \   0000020E   E908               LDI     R16, 152
   \   00000210   CFB0               RJMP    ??proc_config_13
   3409                                              
   3410                                              cnt_bt=cnt_bt+L_CONF_TM_CC+1+3;
   3411                                            break;
   3412                                            
   3413                                            
   3414                              case CONF_TM_WT :  
   3415                           
   3416                                            
   3417                                            if((buf_rx_ppp[offset+C1_DATA] & 0x80)==0x80)
   \                     ??proc_config_19:
   \   00000212   01F2               MOVW    R31:R30, R5:R4
   \   00000214   8102               LDD     R16, Z+2
   \   00000216   01FC               MOVW    R31:R30, R25:R24
   \   00000218   FF07               SBRS    R16, 7
   \   0000021A   C038               RJMP    ??proc_config_20
   3418                                              {
   3419                                              if(*(unsigned int*)&buf_rx_ppp[ind+1]!=L_CONF_TM_WT)goto bad_com;
   \   0000021C   8121               LDD     R18, Z+1
   \   0000021E   8132               LDD     R19, Z+2
   \   00000220   3022               CPI     R18, 2
   \   00000222   053F               CPC     R19, R15
   \   00000224   F009               BREQ    $+2+2
   \   00000226   C587               RJMP    ??proc_config_2
   3420                                              //çŕďčńü
   3421                                              temp=*(unsigned int*)&buf_rx_ppp[ind+3];
   \   00000228   8043               LDD     R4, Z+3
   \   0000022A   8054               LDD     R5, Z+4
   3422                                               
   3423                                              if (temp<5){buf_tx_232[TR_OP_DATA+C1_DATA+3+cnt_bt]=0x01;goto nocorr_com;}
   \   0000022C   E005               LDI     R16, 5
   \   0000022E   1640               CP      R4, R16
   \   00000230   045F               CPC     R5, R15
   \   00000232   F408               BRCC    $+2+2
   \   00000234   CF63               RJMP    ??proc_config_10
   3424          
   3425                                              Control.vol_try=temp/Control.vol_waits;
   \   00000236   0182               MOVW    R17:R16, R5:R4
   \   00000238   ....               LDI     R30, LOW(Appl_seq)
   \   0000023A   ....               LDI     R31, (Appl_seq) >> 8
   \   0000023C   A146               LDD     R20, Z+38
   \   0000023E   A157               LDD     R21, Z+39
   \   00000240   ........           CALL    ?US_DIVMOD_L02
   \   00000244   ....               LDI     R30, LOW(Appl_seq)
   \   00000246   A701               STD     Z+41, R16
   3426                                             
   3427                                              RdFromFleshToArr(A_C_PAR,&buf[0],L_C_PAR); 
   \   00000248   E04E               LDI     R20, 14
   \   0000024A   E050               LDI     R21, 0
   \   0000024C   019E               MOVW    R19:R18, R29:R28
   \   0000024E   E906               LDI     R16, 150
   \   00000250   E010               LDI     R17, 0
   \   00000252   ........           CALL    RdFromFleshToArr
   3428                                              *(unsigned int*)&buf[OFS_TM_CH]=temp;
   \   00000256   824C               STD     Y+4, R4
   \   00000258   825D               STD     Y+5, R5
   3429                                              *(unsigned int*)&buf[OFS_C_PAR_CRC]=crc_m1(&buf[0],L_C_PAR-2,0xffff);
   \   0000025A   EF4F               LDI     R20, 255
   \   0000025C   EF5F               LDI     R21, 255
   \   0000025E   E02C               LDI     R18, 12
   \   00000260   E030               LDI     R19, 0
   \   00000262   018E               MOVW    R17:R16, R29:R28
   \   00000264   ........           CALL    crc_m1
   \   00000268   870C               STD     Y+12, R16
   \   0000026A   871D               STD     Y+13, R17
   3430                                              WrArrayToFlesh(A_C_PAR, &buf[0],L_C_PAR,0,0);
   \   0000026C   E070               LDI     R23, 0
   \   0000026E   E060               LDI     R22, 0
   \   00000270   E04E               LDI     R20, 14
   \   00000272   E050               LDI     R21, 0
   \   00000274   019E               MOVW    R19:R18, R29:R28
   \   00000276   E906               LDI     R16, 150
   \   00000278   E010               LDI     R17, 0
   \   0000027A   ........           CALL    WrArrayToFlesh
   3431                                              prov_ozu=crc_ozu();
   \   0000027E   ........           CALL    crc_ozu
   \   00000282   ....               LDI     R30, LOW(prov_ozu)
   \   00000284   ....               LDI     R31, (prov_ozu) >> 8
   \   00000286   8300               ST      Z, R16
   \   00000288   8311               STD     Z+1, R17
   \   0000028A   C005               RJMP    ??proc_config_21
   3432                                              }
   3433                                              else {if(*(unsigned int*)&buf_rx_ppp[ind+1]!=(L_CONF_TM_WT-2))goto bad_com;}
   \                     ??proc_config_20:
   \   0000028C   8101               LDD     R16, Z+1
   \   0000028E   8112               LDD     R17, Z+2
   \   00000290   2B01               OR      R16, R17
   \   00000292   F009               BREQ    $+2+2
   \   00000294   C550               RJMP    ??proc_config_2
   3434                                               
   3435          
   3436                                              buf_tx_232[TR_OP_DATA+C1_DATA+cnt_bt]=buf_rx_ppp[ind];  //÷ňĺíčĺ
   \                     ??proc_config_21:
   \   00000296   01FC               MOVW    R31:R30, R25:R24
   \   00000298   8100               LD      R16, Z
   \   0000029A   01FD               MOVW    R31:R30, R27:R26
   \   0000029C   A704               STD     Z+44, R16
   3437                                              *(unsigned int*)&buf_tx_232[TR_OP_DATA+C1_DATA+1+cnt_bt]=L_CONF_TM_WT+1;   
   \   0000029E   E003               LDI     R16, 3
   \   000002A0   E010               LDI     R17, 0
   \   000002A2   A705               STD     Z+45, R16
   \   000002A4   A716               STD     Z+46, R17
   3438                                              buf_tx_232[TR_OP_DATA+C1_DATA+3+cnt_bt]=0x00; //OK  
   \   000002A6   A717               STD     Z+47, R17
   3439                                              RdFromFleshToArr(A_C_PAR+OFS_TM_CH,&buf_tx_232[TR_OP_DATA+C1_DATA+4+cnt_bt],2);
   \   000002A8   E042               LDI     R20, 2
   \   000002AA   E050               LDI     R21, 0
   \   000002AC   96D0               ADIW    R27:R26, 48
   \   000002AE   019D               MOVW    R19:R18, R27:R26
   \   000002B0   E90A               LDI     R16, 154
   \   000002B2   CF5F               RJMP    ??proc_config_13
   3440                                              
   3441                                              cnt_bt=cnt_bt+L_CONF_TM_WT+1+3;
   3442                                            break;              
   3443          
   3444          
   3445                         case CONF_NUM_CL :  
   3446                           
   3447                                            
   3448                                            if((buf_rx_ppp[offset+C1_DATA] & 0x80)==0x80)
   \                     ??proc_config_22:
   \   000002B4   01F2               MOVW    R31:R30, R5:R4
   \   000002B6   8102               LDD     R16, Z+2
   \   000002B8   01FC               MOVW    R31:R30, R25:R24
   \   000002BA   FF07               SBRS    R16, 7
   \   000002BC   C033               RJMP    ??proc_config_23
   3449                                              {
   3450                                              if(*(unsigned int*)&buf_rx_ppp[ind+1]!=L_CONF_NUM_CL)goto bad_com;
   \   000002BE   8121               LDD     R18, Z+1
   \   000002C0   8132               LDD     R19, Z+2
   \   000002C2   3022               CPI     R18, 2
   \   000002C4   053F               CPC     R19, R15
   \   000002C6   F009               BREQ    $+2+2
   \   000002C8   C536               RJMP    ??proc_config_2
   3451                                              //çŕďčńü
   3452                                              temp=*(unsigned int*)&buf_rx_ppp[ind+3];
   \   000002CA   8043               LDD     R4, Z+3
   \   000002CC   8054               LDD     R5, Z+4
   3453                                               
   3454                                              if (temp<3){buf_tx_232[TR_OP_DATA+C1_DATA+3+cnt_bt]=0x01;goto nocorr_com;}
   \   000002CE   E003               LDI     R16, 3
   \   000002D0   1640               CP      R4, R16
   \   000002D2   045F               CPC     R5, R15
   \   000002D4   F408               BRCC    $+2+2
   \   000002D6   CF12               RJMP    ??proc_config_10
   3455          
   3456                                              num_seq_cl=temp;
   \   000002D8   ....               LDI     R30, LOW(Appl_seq)
   \   000002DA   ....               LDI     R31, (Appl_seq) >> 8
   \   000002DC   AE42               STD     Z+58, R4
   \   000002DE   AE53               STD     Z+59, R5
   3457                                              
   3458                                              RdFromFleshToArr(A_SEQ_PAR,&buf[0],L_SEQ_PAR); 
   \   000002E0   E04B               LDI     R20, 11
   \   000002E2   E050               LDI     R21, 0
   \   000002E4   019E               MOVW    R19:R18, R29:R28
   \   000002E6   EA04               LDI     R16, 164
   \   000002E8   E010               LDI     R17, 0
   \   000002EA   ........           CALL    RdFromFleshToArr
   3459                                              *(unsigned int*)&buf[OFS_NUM_CL]=temp;
   \   000002EE   8249               STD     Y+1, R4
   \   000002F0   825A               STD     Y+2, R5
   3460                                              *(unsigned int*)&buf[OFS_SEQ_PAR_CRC]=crc_m1(&buf[0],L_SEQ_PAR-2,0xffff);
   \   000002F2   EF4F               LDI     R20, 255
   \   000002F4   EF5F               LDI     R21, 255
   \   000002F6   E029               LDI     R18, 9
   \   000002F8   E030               LDI     R19, 0
   \   000002FA   018E               MOVW    R17:R16, R29:R28
   \   000002FC   ........           CALL    crc_m1
   \   00000300   8709               STD     Y+9, R16
   \   00000302   871A               STD     Y+10, R17
   3461                                              WrArrayToFlesh(A_SEQ_PAR, &buf[0],L_SEQ_PAR,0,0);
   \   00000304   E070               LDI     R23, 0
   \   00000306   E060               LDI     R22, 0
   \   00000308   E04B               LDI     R20, 11
   \   0000030A   E050               LDI     R21, 0
   \   0000030C   019E               MOVW    R19:R18, R29:R28
   \   0000030E   EA04               LDI     R16, 164
   \   00000310   E010               LDI     R17, 0
   \   00000312   ........           CALL    WrArrayToFlesh
   3462                                              prov_ozu=crc_ozu();
   \   00000316   ........           CALL    crc_ozu
   \   0000031A   ....               LDI     R30, LOW(prov_ozu)
   \   0000031C   ....               LDI     R31, (prov_ozu) >> 8
   \   0000031E   8300               ST      Z, R16
   \   00000320   8311               STD     Z+1, R17
   \   00000322   C005               RJMP    ??proc_config_24
   3463                                              }
   3464                                              else {if(*(unsigned int*)&buf_rx_ppp[ind+1]!=(L_CONF_NUM_CL-2))goto bad_com;}
   \                     ??proc_config_23:
   \   00000324   8101               LDD     R16, Z+1
   \   00000326   8112               LDD     R17, Z+2
   \   00000328   2B01               OR      R16, R17
   \   0000032A   F009               BREQ    $+2+2
   \   0000032C   C504               RJMP    ??proc_config_2
   3465                                               
   3466          
   3467                                              buf_tx_232[TR_OP_DATA+C1_DATA+cnt_bt]=buf_rx_ppp[ind];  //÷ňĺíčĺ
   \                     ??proc_config_24:
   \   0000032E   01FC               MOVW    R31:R30, R25:R24
   \   00000330   8100               LD      R16, Z
   \   00000332   01FD               MOVW    R31:R30, R27:R26
   \   00000334   A704               STD     Z+44, R16
   3468                                              *(unsigned int*)&buf_tx_232[TR_OP_DATA+C1_DATA+1+cnt_bt]=L_CONF_NUM_CL+1;   
   \   00000336   E003               LDI     R16, 3
   \   00000338   E010               LDI     R17, 0
   \   0000033A   A705               STD     Z+45, R16
   \   0000033C   A716               STD     Z+46, R17
   3469                                              buf_tx_232[TR_OP_DATA+C1_DATA+3+cnt_bt]=0x00; //OK  
   \   0000033E   A717               STD     Z+47, R17
   3470                                              RdFromFleshToArr(A_SEQ_PAR+OFS_NUM_CL,&buf_tx_232[TR_OP_DATA+C1_DATA+4+cnt_bt],2);
   \   00000340   E042               LDI     R20, 2
   \   00000342   E050               LDI     R21, 0
   \   00000344   96D0               ADIW    R27:R26, 48
   \   00000346   019D               MOVW    R19:R18, R27:R26
   \   00000348   EA05               LDI     R16, 165
   \   0000034A   CF13               RJMP    ??proc_config_13
   3471                                              
   3472                                              cnt_bt=cnt_bt+L_CONF_NUM_CL+1+3;
   3473                                            break;   
   3474                         case CONF_TM_VZ :  
   3475                           
   3476                                            
   3477                                            if((buf_rx_ppp[offset+C1_DATA] & 0x80)==0x80)
   \                     ??proc_config_25:
   \   0000034C   01F2               MOVW    R31:R30, R5:R4
   \   0000034E   8102               LDD     R16, Z+2
   \   00000350   01FC               MOVW    R31:R30, R25:R24
   \   00000352   FF07               SBRS    R16, 7
   \   00000354   C032               RJMP    ??proc_config_26
   3478                                              {
   3479                                              if(*(unsigned int*)&buf_rx_ppp[ind+1]!=L_CONF_TM_VZ)goto bad_com;
   \   00000356   8121               LDD     R18, Z+1
   \   00000358   8132               LDD     R19, Z+2
   \   0000035A   3022               CPI     R18, 2
   \   0000035C   053F               CPC     R19, R15
   \   0000035E   F009               BREQ    $+2+2
   \   00000360   C4EA               RJMP    ??proc_config_2
   3480                                              //çŕďčńü
   3481                                              temp=*(unsigned int*)&buf_rx_ppp[ind+3];
   \   00000362   8043               LDD     R4, Z+3
   \   00000364   8054               LDD     R5, Z+4
   3482                                               
   3483                                              if (temp<1){buf_tx_232[TR_OP_DATA+C1_DATA+3+cnt_bt]=0x01;goto nocorr_com;}
   \   00000366   2D04               MOV     R16, R4
   \   00000368   2905               OR      R16, R5
   \   0000036A   F409               BRNE    $+2+2
   \   0000036C   CEC7               RJMP    ??proc_config_10
   3484          
   3485                                              Appl_seq.vol_tm_vzat=temp;
   \   0000036E   ....               LDI     R30, LOW(Appl_seq)
   \   00000370   ....               LDI     R31, (Appl_seq) >> 8
   \   00000372   8A42               STD     Z+18, R4
   \   00000374   8A53               STD     Z+19, R5
   3486                                              
   3487                                              RdFromFleshToArr(A_SEQ_PAR,&buf[0],L_SEQ_PAR); 
   \   00000376   E04B               LDI     R20, 11
   \   00000378   E050               LDI     R21, 0
   \   0000037A   019E               MOVW    R19:R18, R29:R28
   \   0000037C   EA04               LDI     R16, 164
   \   0000037E   E010               LDI     R17, 0
   \   00000380   ........           CALL    RdFromFleshToArr
   3488                                              *(unsigned int*)&buf[OFS_TM_VZ]=temp;
   \   00000384   824B               STD     Y+3, R4
   \   00000386   825C               STD     Y+4, R5
   3489                                              *(unsigned int*)&buf[OFS_SEQ_PAR_CRC]=crc_m1(&buf[0],L_SEQ_PAR-2,0xffff);
   \   00000388   EF4F               LDI     R20, 255
   \   0000038A   EF5F               LDI     R21, 255
   \   0000038C   E029               LDI     R18, 9
   \   0000038E   E030               LDI     R19, 0
   \   00000390   018E               MOVW    R17:R16, R29:R28
   \   00000392   ........           CALL    crc_m1
   \   00000396   8709               STD     Y+9, R16
   \   00000398   871A               STD     Y+10, R17
   3490                                              WrArrayToFlesh(A_SEQ_PAR, &buf[0],L_SEQ_PAR,0,0);
   \   0000039A   E070               LDI     R23, 0
   \   0000039C   E060               LDI     R22, 0
   \   0000039E   E04B               LDI     R20, 11
   \   000003A0   E050               LDI     R21, 0
   \   000003A2   019E               MOVW    R19:R18, R29:R28
   \   000003A4   EA04               LDI     R16, 164
   \   000003A6   E010               LDI     R17, 0
   \   000003A8   ........           CALL    WrArrayToFlesh
   3491                                              prov_ozu=crc_ozu();
   \   000003AC   ........           CALL    crc_ozu
   \   000003B0   ....               LDI     R30, LOW(prov_ozu)
   \   000003B2   ....               LDI     R31, (prov_ozu) >> 8
   \   000003B4   8300               ST      Z, R16
   \   000003B6   8311               STD     Z+1, R17
   \   000003B8   C005               RJMP    ??proc_config_27
   3492                                              }
   3493                                              else {if(*(unsigned int*)&buf_rx_ppp[ind+1]!=(L_CONF_TM_VZ-2))goto bad_com;}
   \                     ??proc_config_26:
   \   000003BA   8101               LDD     R16, Z+1
   \   000003BC   8112               LDD     R17, Z+2
   \   000003BE   2B01               OR      R16, R17
   \   000003C0   F009               BREQ    $+2+2
   \   000003C2   C4B9               RJMP    ??proc_config_2
   3494                                               
   3495          
   3496                                              buf_tx_232[TR_OP_DATA+C1_DATA+cnt_bt]=buf_rx_ppp[ind];  //÷ňĺíčĺ
   \                     ??proc_config_27:
   \   000003C4   01FC               MOVW    R31:R30, R25:R24
   \   000003C6   8100               LD      R16, Z
   \   000003C8   01FD               MOVW    R31:R30, R27:R26
   \   000003CA   A704               STD     Z+44, R16
   3497                                              *(unsigned int*)&buf_tx_232[TR_OP_DATA+C1_DATA+1+cnt_bt]=L_CONF_TM_VZ+1;   
   \   000003CC   E003               LDI     R16, 3
   \   000003CE   E010               LDI     R17, 0
   \   000003D0   A705               STD     Z+45, R16
   \   000003D2   A716               STD     Z+46, R17
   3498                                              buf_tx_232[TR_OP_DATA+C1_DATA+3+cnt_bt]=0x00; //OK  
   \   000003D4   A717               STD     Z+47, R17
   3499                                              RdFromFleshToArr(A_SEQ_PAR+OFS_TM_VZ,&buf_tx_232[TR_OP_DATA+C1_DATA+4+cnt_bt],2);
   \   000003D6   E042               LDI     R20, 2
   \   000003D8   E050               LDI     R21, 0
   \   000003DA   96D0               ADIW    R27:R26, 48
   \   000003DC   019D               MOVW    R19:R18, R27:R26
   \   000003DE   EA07               LDI     R16, 167
   \   000003E0   CEC8               RJMP    ??proc_config_13
   3500                                              
   3501                                              cnt_bt=cnt_bt+L_CONF_TM_VZ+1+3;
   3502                                            break;   
   3503          
   3504                         case CONF_TM_CL :  
   3505                           
   3506                                            
   3507                                            if((buf_rx_ppp[offset+C1_DATA] & 0x80)==0x80)
   \                     ??proc_config_28:
   \   000003E2   01F2               MOVW    R31:R30, R5:R4
   \   000003E4   8102               LDD     R16, Z+2
   \   000003E6   01FC               MOVW    R31:R30, R25:R24
   \   000003E8   FF07               SBRS    R16, 7
   \   000003EA   C033               RJMP    ??proc_config_29
   3508                                              {
   3509                                              if(*(unsigned int*)&buf_rx_ppp[ind+1]!=L_CONF_TM_CL)goto bad_com;
   \   000003EC   8121               LDD     R18, Z+1
   \   000003EE   8132               LDD     R19, Z+2
   \   000003F0   3022               CPI     R18, 2
   \   000003F2   053F               CPC     R19, R15
   \   000003F4   F009               BREQ    $+2+2
   \   000003F6   C49F               RJMP    ??proc_config_2
   3510                                              //çŕďčńü
   3511                                              temp=*(unsigned int*)&buf_rx_ppp[ind+3];
   \   000003F8   8043               LDD     R4, Z+3
   \   000003FA   8054               LDD     R5, Z+4
   3512                                               
   3513                                              if (temp<5){buf_tx_232[TR_OP_DATA+C1_DATA+3+cnt_bt]=0x01;goto nocorr_com;}
   \   000003FC   E005               LDI     R16, 5
   \   000003FE   1640               CP      R4, R16
   \   00000400   045F               CPC     R5, R15
   \   00000402   F408               BRCC    $+2+2
   \   00000404   CE7B               RJMP    ??proc_config_10
   3514          
   3515                                              Appl_seq.vol_cntr_cl=temp;
   \   00000406   ....               LDI     R30, LOW(Appl_seq)
   \   00000408   ....               LDI     R31, (Appl_seq) >> 8
   \   0000040A   8E40               STD     Z+24, R4
   \   0000040C   8E51               STD     Z+25, R5
   3516                                              
   3517                                              RdFromFleshToArr(A_SEQ_PAR,&buf[0],L_SEQ_PAR); 
   \   0000040E   E04B               LDI     R20, 11
   \   00000410   E050               LDI     R21, 0
   \   00000412   019E               MOVW    R19:R18, R29:R28
   \   00000414   EA04               LDI     R16, 164
   \   00000416   E010               LDI     R17, 0
   \   00000418   ........           CALL    RdFromFleshToArr
   3518                                              *(unsigned int*)&buf[OFS_TM_CL]=temp;
   \   0000041C   824D               STD     Y+5, R4
   \   0000041E   825E               STD     Y+6, R5
   3519                                              *(unsigned int*)&buf[OFS_SEQ_PAR_CRC]=crc_m1(&buf[0],L_SEQ_PAR-2,0xffff);
   \   00000420   EF4F               LDI     R20, 255
   \   00000422   EF5F               LDI     R21, 255
   \   00000424   E029               LDI     R18, 9
   \   00000426   E030               LDI     R19, 0
   \   00000428   018E               MOVW    R17:R16, R29:R28
   \   0000042A   ........           CALL    crc_m1
   \   0000042E   8709               STD     Y+9, R16
   \   00000430   871A               STD     Y+10, R17
   3520                                              WrArrayToFlesh(A_SEQ_PAR, &buf[0],L_SEQ_PAR,0,0);
   \   00000432   E070               LDI     R23, 0
   \   00000434   E060               LDI     R22, 0
   \   00000436   E04B               LDI     R20, 11
   \   00000438   E050               LDI     R21, 0
   \   0000043A   019E               MOVW    R19:R18, R29:R28
   \   0000043C   EA04               LDI     R16, 164
   \   0000043E   E010               LDI     R17, 0
   \   00000440   ........           CALL    WrArrayToFlesh
   3521                                              prov_ozu=crc_ozu();
   \   00000444   ........           CALL    crc_ozu
   \   00000448   ....               LDI     R30, LOW(prov_ozu)
   \   0000044A   ....               LDI     R31, (prov_ozu) >> 8
   \   0000044C   8300               ST      Z, R16
   \   0000044E   8311               STD     Z+1, R17
   \   00000450   C005               RJMP    ??proc_config_30
   3522                                              }
   3523                                              else {if(*(unsigned int*)&buf_rx_ppp[ind+1]!=(L_CONF_TM_CL-2))goto bad_com;}
   \                     ??proc_config_29:
   \   00000452   8101               LDD     R16, Z+1
   \   00000454   8112               LDD     R17, Z+2
   \   00000456   2B01               OR      R16, R17
   \   00000458   F009               BREQ    $+2+2
   \   0000045A   C46D               RJMP    ??proc_config_2
   3524                                               
   3525          
   3526                                              buf_tx_232[TR_OP_DATA+C1_DATA+cnt_bt]=buf_rx_ppp[ind];  //÷ňĺíčĺ
   \                     ??proc_config_30:
   \   0000045C   01FC               MOVW    R31:R30, R25:R24
   \   0000045E   8100               LD      R16, Z
   \   00000460   01FD               MOVW    R31:R30, R27:R26
   \   00000462   A704               STD     Z+44, R16
   3527                                              *(unsigned int*)&buf_tx_232[TR_OP_DATA+C1_DATA+1+cnt_bt]=L_CONF_TM_CL+1;   
   \   00000464   E003               LDI     R16, 3
   \   00000466   E010               LDI     R17, 0
   \   00000468   A705               STD     Z+45, R16
   \   0000046A   A716               STD     Z+46, R17
   3528                                              buf_tx_232[TR_OP_DATA+C1_DATA+3+cnt_bt]=0x00; //OK  
   \   0000046C   A717               STD     Z+47, R17
   3529                                              RdFromFleshToArr(A_SEQ_PAR+OFS_TM_CL,&buf_tx_232[TR_OP_DATA+C1_DATA+4+cnt_bt],2);
   \   0000046E   E042               LDI     R20, 2
   \   00000470   E050               LDI     R21, 0
   \   00000472   96D0               ADIW    R27:R26, 48
   \   00000474   019D               MOVW    R19:R18, R27:R26
   \   00000476   EA09               LDI     R16, 169
   \   00000478   CE7C               RJMP    ??proc_config_13
   3530                                              
   3531                                              cnt_bt=cnt_bt+L_CONF_TM_CL+1+3;
   3532                                            break;   
   3533                       
   3534                       case CONF_DES_OHR :  
   3535                           
   3536                                            
   3537                                            if((buf_rx_ppp[offset+C1_DATA] & 0x80)==0x80)
   \                     ??proc_config_31:
   \   0000047A   01F2               MOVW    R31:R30, R5:R4
   \   0000047C   8102               LDD     R16, Z+2
   \   0000047E   01FC               MOVW    R31:R30, R25:R24
   \   00000480   FF07               SBRS    R16, 7
   \   00000482   C036               RJMP    ??proc_config_32
   3538                                              {
   3539                                              if(*(unsigned int*)&buf_rx_ppp[ind+1]!=L_CONF_DES_OHR)goto bad_com;
   \   00000484   8121               LDD     R18, Z+1
   \   00000486   8132               LDD     R19, Z+2
   \   00000488   3021               CPI     R18, 1
   \   0000048A   053F               CPC     R19, R15
   \   0000048C   F009               BREQ    $+2+2
   \   0000048E   C453               RJMP    ??proc_config_2
   3540                                              //çŕďčńü
   3541                                              temp=buf_rx_ppp[ind+3];
   \   00000490   8043               LDD     R4, Z+3
   \   00000492   2455               CLR     R5
   3542                                               
   3543                                              if (temp>2){buf_tx_232[TR_OP_DATA+C1_DATA+3+cnt_bt]=0x01;goto nocorr_com;}
   \   00000494   E003               LDI     R16, 3
   \   00000496   1640               CP      R4, R16
   \   00000498   045F               CPC     R5, R15
   \   0000049A   F008               BRCS    $+2+2
   \   0000049C   CE2F               RJMP    ??proc_config_10
   3544          
   3545                                              Appl_seq_des=temp;
   \   0000049E   E31E               LDI     R17, 62
   \   000004A0   0E61               ADD     R6, R17
   \   000004A2   E010               LDI     R17, 0
   \   000004A4   1E71               ADC     R7, R17
   \   000004A6   01F3               MOVW    R31:R30, R7:R6
   \   000004A8   8240               ST      Z, R4
   3546                                              
   3547                                              RdFromFleshToArr(A_SEQ_PAR,&buf[0],L_SEQ_PAR); 
   \   000004AA   E04B               LDI     R20, 11
   \   000004AC   E050               LDI     R21, 0
   \   000004AE   019E               MOVW    R19:R18, R29:R28
   \   000004B0   EA04               LDI     R16, 164
   \   000004B2   ........           CALL    RdFromFleshToArr
   3548                                              buf[OFS_DES_SEQ]=temp;
   \   000004B6   8248               ST      Y, R4
   3549                                              *(unsigned int*)&buf[OFS_SEQ_PAR_CRC]=crc_m1(&buf[0],L_SEQ_PAR-2,0xffff);
   \   000004B8   EF4F               LDI     R20, 255
   \   000004BA   EF5F               LDI     R21, 255
   \   000004BC   E029               LDI     R18, 9
   \   000004BE   E030               LDI     R19, 0
   \   000004C0   018E               MOVW    R17:R16, R29:R28
   \   000004C2   ........           CALL    crc_m1
   \   000004C6   8709               STD     Y+9, R16
   \   000004C8   871A               STD     Y+10, R17
   3550                                              WrArrayToFlesh(A_SEQ_PAR, &buf[0],L_SEQ_PAR,0,0);
   \   000004CA   E070               LDI     R23, 0
   \   000004CC   E060               LDI     R22, 0
   \   000004CE   E04B               LDI     R20, 11
   \   000004D0   E050               LDI     R21, 0
   \   000004D2   019E               MOVW    R19:R18, R29:R28
   \   000004D4   EA04               LDI     R16, 164
   \   000004D6   E010               LDI     R17, 0
   \   000004D8   ........           CALL    WrArrayToFlesh
   3551                                              prov_ozu=crc_ozu();
   \   000004DC   ........           CALL    crc_ozu
   \   000004E0   ....               LDI     R30, LOW(prov_ozu)
   \   000004E2   ....               LDI     R31, (prov_ozu) >> 8
   \   000004E4   8300               ST      Z, R16
   \   000004E6   8311               STD     Z+1, R17
   3552                                              
   3553                                              monitor_beg_state_seq(1);
   \   000004E8   E001               LDI     R16, 1
   \   000004EA   ........           CALL    monitor_beg_state_seq
   \   000004EE   C005               RJMP    ??proc_config_33
   3554                                              /*
   3555                                              if(Appl_seq_des!=1)
   3556                                              { 
   3557                                                if(flag_monitor_beg==0)
   3558                                                 {
   3559                                                  flag_monitor_beg=1; 
   3560                                                  monitor_beg_state_seq(1);
   3561                                                 }
   3562                                              }
   3563                                              */
   3564                                                
   3565                                              }
   3566                                              else {if(*(unsigned int*)&buf_rx_ppp[ind+1]!=(L_CONF_DES_OHR-1))goto bad_com;}
   \                     ??proc_config_32:
   \   000004F0   8101               LDD     R16, Z+1
   \   000004F2   8112               LDD     R17, Z+2
   \   000004F4   2B01               OR      R16, R17
   \   000004F6   F009               BREQ    $+2+2
   \   000004F8   C41E               RJMP    ??proc_config_2
   3567                                               
   3568          
   3569                                              buf_tx_232[TR_OP_DATA+C1_DATA+cnt_bt]=buf_rx_ppp[ind];  //÷ňĺíčĺ
   \                     ??proc_config_33:
   \   000004FA   01FC               MOVW    R31:R30, R25:R24
   \   000004FC   8100               LD      R16, Z
   \   000004FE   01FD               MOVW    R31:R30, R27:R26
   \   00000500   A704               STD     Z+44, R16
   3570                                              *(unsigned int*)&buf_tx_232[TR_OP_DATA+C1_DATA+1+cnt_bt]=L_CONF_DES_OHR+1;   
   \   00000502   E002               LDI     R16, 2
   \   00000504   E010               LDI     R17, 0
   \   00000506   A705               STD     Z+45, R16
   \   00000508   A716               STD     Z+46, R17
   3571                                              buf_tx_232[TR_OP_DATA+C1_DATA+3+cnt_bt]=0x00; //OK  
   \   0000050A   A717               STD     Z+47, R17
   3572                                              RdFromFleshToArr(A_SEQ_PAR+OFS_DES_SEQ,&buf_tx_232[TR_OP_DATA+C1_DATA+4+cnt_bt],1);
   \   0000050C   E041               LDI     R20, 1
   \   0000050E   E050               LDI     R21, 0
   \   00000510   96D0               ADIW    R27:R26, 48
   \   00000512   019D               MOVW    R19:R18, R27:R26
   \   00000514   EA04               LDI     R16, 164
   \   00000516   ........           CALL    RdFromFleshToArr
   3573                                              
   3574                                              cnt_bt=cnt_bt+L_CONF_DES_OHR+1+3;
   \   0000051A   E005               LDI     R16, 5
   \   0000051C   C417               RJMP    ??proc_config_15
   3575                                            break;  
   3576          
   3577          
   3578                           case CONF_NUM_SELF :  
   3579                           
   3580                                            
   3581                                            if((buf_rx_ppp[offset+C1_DATA] & 0x80)==0x80)
   \                     ??proc_config_34:
   \   0000051E   01F2               MOVW    R31:R30, R5:R4
   \   00000520   8102               LDD     R16, Z+2
   \   00000522   01FC               MOVW    R31:R30, R25:R24
   \   00000524   FF07               SBRS    R16, 7
   \   00000526   C02E               RJMP    ??proc_config_35
   3582                                              {
   3583                                              if(*(unsigned int*)&buf_rx_ppp[ind+1]!=L_CONF_NUM_SELF)goto bad_com;
   \   00000528   8121               LDD     R18, Z+1
   \   0000052A   8132               LDD     R19, Z+2
   \   0000052C   3022               CPI     R18, 2
   \   0000052E   053F               CPC     R19, R15
   \   00000530   F009               BREQ    $+2+2
   \   00000532   C401               RJMP    ??proc_config_2
   3584                                              //çŕďčńü
   3585                                              temp=*(unsigned int*)&buf_rx_ppp[ind+3];
   \   00000534   8043               LDD     R4, Z+3
   \   00000536   8054               LDD     R5, Z+4
   3586                                               
   3587                                              if (temp<3){buf_tx_232[TR_OP_DATA+C1_DATA+3+cnt_bt]=0x01;goto nocorr_com;}
   \   00000538   E003               LDI     R16, 3
   \   0000053A   1640               CP      R4, R16
   \   0000053C   045F               CPC     R5, R15
   \   0000053E   F408               BRCC    $+2+2
   \   00000540   CDDD               RJMP    ??proc_config_10
   3588                                               
   3589                                              fl_rewrite.num_self=1;  
   \   00000542   ....               LDI     R30, LOW(fl_rewrite)
   \   00000544   ....               LDI     R31, (fl_rewrite) >> 8
   \   00000546   8100               LD      R16, Z
   \   00000548   6004               ORI     R16, 0x04
   \   0000054A   8300               ST      Z, R16
   3590                                              
   3591                                              //WrArrayToFlesh(ABUF_NUM,&buf_rx_ppp[ind+3],L_CONF_NUM_SELF,0,0);                                  
   3592                                             // RdFromFleshToArr(ABUF_NUM,&buf_tx_232[TR_OP_DATA+C1_DATA+4+cnt_bt],2);
   3593                                                                                                        
   3594                                              RdFromFleshToArr(A_IP_PAR,&buf[0],L_IP_PAR); 
   \   0000054C   E04A               LDI     R20, 10
   \   0000054E   E050               LDI     R21, 0
   \   00000550   019E               MOVW    R19:R18, R29:R28
   \   00000552   E80C               LDI     R16, 140
   \   00000554   E010               LDI     R17, 0
   \   00000556   ........           CALL    RdFromFleshToArr
   3595                                              *(unsigned int*)&buf[OFS_NUM]=temp;
   \   0000055A   824E               STD     Y+6, R4
   \   0000055C   825F               STD     Y+7, R5
   3596                                              *(unsigned int*)&buf[OFS_IP_PAR_CRC]=crc_m1(&buf[0],L_IP_PAR-2,0xffff);
   \   0000055E   EF4F               LDI     R20, 255
   \   00000560   EF5F               LDI     R21, 255
   \   00000562   E028               LDI     R18, 8
   \   00000564   E030               LDI     R19, 0
   \   00000566   018E               MOVW    R17:R16, R29:R28
   \   00000568   ........           CALL    crc_m1
   \   0000056C   8708               STD     Y+8, R16
   \   0000056E   8719               STD     Y+9, R17
   3597                                              WrArrayToFlesh(A_IP_PAR, &buf[0],L_IP_PAR,0,0);
   \   00000570   E070               LDI     R23, 0
   \   00000572   E060               LDI     R22, 0
   \   00000574   E04A               LDI     R20, 10
   \   00000576   E050               LDI     R21, 0
   \   00000578   019E               MOVW    R19:R18, R29:R28
   \   0000057A   E80C               LDI     R16, 140
   \   0000057C   E010               LDI     R17, 0
   \   0000057E   ........           CALL    WrArrayToFlesh
   \   00000582   C005               RJMP    ??proc_config_36
   3598                                            //  prov_ozu=crc_ozu();
   3599                                              
   3600                                              }
   3601                                              else if(*(unsigned int*)&buf_rx_ppp[ind+1]!=(L_CONF_NUM_SELF-2))goto bad_com;
   \                     ??proc_config_35:
   \   00000584   8101               LDD     R16, Z+1
   \   00000586   8112               LDD     R17, Z+2
   \   00000588   2B01               OR      R16, R17
   \   0000058A   F009               BREQ    $+2+2
   \   0000058C   C3D4               RJMP    ??proc_config_2
   3602                                                   
   3603          
   3604                                              RdFromFleshToArr(A_IP_PAR+OFS_NUM,&buf_tx_232[TR_OP_DATA+C1_DATA+4+cnt_bt],2);
   \                     ??proc_config_36:
   \   0000058E   E042               LDI     R20, 2
   \   00000590   E050               LDI     R21, 0
   \   00000592   019D               MOVW    R19:R18, R27:R26
   \   00000594   5D20               SUBI    R18, 208
   \   00000596   4F3F               SBCI    R19, 255
   \   00000598   E902               LDI     R16, 146
   \                     ??proc_config_37:
   \   0000059A   E010               LDI     R17, 0
   \   0000059C   ........           CALL    RdFromFleshToArr
   3605                                              buf_tx_232[TR_OP_DATA+C1_DATA+cnt_bt]=buf_rx_ppp[ind];  //÷ňĺíčĺ
   \   000005A0   01FC               MOVW    R31:R30, R25:R24
   \   000005A2   8100               LD      R16, Z
   \   000005A4   01FD               MOVW    R31:R30, R27:R26
   \   000005A6   A704               STD     Z+44, R16
   3606                                              *(unsigned int*)&buf_tx_232[TR_OP_DATA+C1_DATA+1+cnt_bt]=L_CONF_NUM_SELF+1;   
   \   000005A8   E003               LDI     R16, 3
   \   000005AA   A705               STD     Z+45, R16
   \   000005AC   A6F6               STD     Z+46, R15
   3607                                              buf_tx_232[TR_OP_DATA+C1_DATA+3+cnt_bt]=0x00; //OK  
   \   000005AE   A6F7               STD     Z+47, R15
   3608                                              
   3609                                              
   3610                                              cnt_bt=cnt_bt+L_CONF_NUM_SELF+1+3;
   \   000005B0   CDE2               RJMP    ??proc_config_14
   3611                                            break;   
   3612          
   3613                            case CONF_UDP :  
   3614                           
   3615                                            
   3616                                            if((buf_rx_ppp[offset+C1_DATA] & 0x80)==0x80)
   \                     ??proc_config_38:
   \   000005B2   01F2               MOVW    R31:R30, R5:R4
   \   000005B4   8102               LDD     R16, Z+2
   \   000005B6   01FC               MOVW    R31:R30, R25:R24
   \   000005B8   FF07               SBRS    R16, 7
   \   000005BA   C02A               RJMP    ??proc_config_39
   3617                                              {
   3618                                              if(*(unsigned int*)&buf_rx_ppp[ind+1]!=L_CONF_UDP)goto bad_com;
   \   000005BC   8121               LDD     R18, Z+1
   \   000005BE   8132               LDD     R19, Z+2
   \   000005C0   3022               CPI     R18, 2
   \   000005C2   053F               CPC     R19, R15
   \   000005C4   F009               BREQ    $+2+2
   \   000005C6   C3B7               RJMP    ??proc_config_2
   3619                                             
   3620                                             
   3621                                              //çŕďčńü
   3622                                              fl_rewrite.udp=1;
   \   000005C8   ....               LDI     R30, LOW(fl_rewrite)
   \   000005CA   ....               LDI     R31, (fl_rewrite) >> 8
   \   000005CC   8100               LD      R16, Z
   \   000005CE   6002               ORI     R16, 0x02
   \   000005D0   8300               ST      Z, R16
   3623                                              temp=*(unsigned int*)&buf_rx_ppp[ind+3];
   \   000005D2   01FC               MOVW    R31:R30, R25:R24
   \   000005D4   8043               LDD     R4, Z+3
   \   000005D6   8054               LDD     R5, Z+4
   3624                                             // WrArrayToFlesh(ABUF_PORT, &buf_rx_ppp[ind+3],L_CONF_UDP,0,0);
   3625                                             // RdFromFleshToArr(ABUF_PORT,&buf_tx_232[TR_OP_DATA+C1_DATA+4+cnt_bt],2);
   3626                                              
   3627                                              RdFromFleshToArr(A_IP_PAR,&buf[0],L_IP_PAR); 
   \   000005D8   E04A               LDI     R20, 10
   \   000005DA   E050               LDI     R21, 0
   \   000005DC   019E               MOVW    R19:R18, R29:R28
   \   000005DE   E80C               LDI     R16, 140
   \   000005E0   E010               LDI     R17, 0
   \   000005E2   ........           CALL    RdFromFleshToArr
   3628                                              *(unsigned int*)&buf[OFS_PORT]=temp;
   \   000005E6   824C               STD     Y+4, R4
   \   000005E8   825D               STD     Y+5, R5
   3629                                              *(unsigned int*)&buf[OFS_IP_PAR_CRC]=crc_m1(&buf[0],L_IP_PAR-2,0xffff);
   \   000005EA   EF4F               LDI     R20, 255
   \   000005EC   EF5F               LDI     R21, 255
   \   000005EE   E028               LDI     R18, 8
   \   000005F0   E030               LDI     R19, 0
   \   000005F2   018E               MOVW    R17:R16, R29:R28
   \   000005F4   ........           CALL    crc_m1
   \   000005F8   8708               STD     Y+8, R16
   \   000005FA   8719               STD     Y+9, R17
   3630                                              WrArrayToFlesh(A_IP_PAR, &buf[0],L_IP_PAR,0,0);
   \   000005FC   E070               LDI     R23, 0
   \   000005FE   E060               LDI     R22, 0
   \   00000600   E04A               LDI     R20, 10
   \   00000602   E050               LDI     R21, 0
   \   00000604   019E               MOVW    R19:R18, R29:R28
   \   00000606   E80C               LDI     R16, 140
   \   00000608   E010               LDI     R17, 0
   \   0000060A   ........           CALL    WrArrayToFlesh
   \   0000060E   C005               RJMP    ??proc_config_40
   3631                                              
   3632                                              }
   3633                                              else if(*(unsigned int*)&buf_rx_ppp[ind+1]!=(L_CONF_UDP-2))goto bad_com;
   \                     ??proc_config_39:
   \   00000610   8101               LDD     R16, Z+1
   \   00000612   8112               LDD     R17, Z+2
   \   00000614   2B01               OR      R16, R17
   \   00000616   F009               BREQ    $+2+2
   \   00000618   C38E               RJMP    ??proc_config_2
   3634                                                
   3635          
   3636                                               
   3637                                              RdFromFleshToArr(A_IP_PAR+OFS_PORT,&buf_tx_232[TR_OP_DATA+C1_DATA+4+cnt_bt],2);
   \                     ??proc_config_40:
   \   0000061A   E042               LDI     R20, 2
   \   0000061C   E050               LDI     R21, 0
   \   0000061E   019D               MOVW    R19:R18, R27:R26
   \   00000620   5D20               SUBI    R18, 208
   \   00000622   4F3F               SBCI    R19, 255
   \   00000624   E900               LDI     R16, 144
   \   00000626   CFB9               RJMP    ??proc_config_37
   3638                                              buf_tx_232[TR_OP_DATA+C1_DATA+cnt_bt]=buf_rx_ppp[ind];  //÷ňĺíčĺ
   3639                                              *(unsigned int*)&buf_tx_232[TR_OP_DATA+C1_DATA+1+cnt_bt]=L_CONF_UDP+1;   
   3640                                              buf_tx_232[TR_OP_DATA+C1_DATA+3+cnt_bt]=0x00; //OK  
   3641                                              
   3642                                              
   3643                                              cnt_bt=cnt_bt+L_CONF_UDP+1+3;
   3644                                            break;   
   3645                             
   3646                             case CONF_IP :  
   3647                                                             
   3648                                            if((buf_rx_ppp[offset+C1_DATA] & 0x80)==0x80)
   \                     ??proc_config_41:
   \   00000628   01F2               MOVW    R31:R30, R5:R4
   \   0000062A   8102               LDD     R16, Z+2
   \   0000062C   01FC               MOVW    R31:R30, R25:R24
   \   0000062E   FF07               SBRS    R16, 7
   \   00000630   C02E               RJMP    ??proc_config_42
   3649                                              {
   3650                                              if(*(unsigned int*)&buf_rx_ppp[ind+1]!=L_CONF_IP)goto bad_com;
   \   00000632   8121               LDD     R18, Z+1
   \   00000634   8132               LDD     R19, Z+2
   \   00000636   3024               CPI     R18, 4
   \   00000638   053F               CPC     R19, R15
   \   0000063A   F009               BREQ    $+2+2
   \   0000063C   C37C               RJMP    ??proc_config_2
   3651                                                
   3652                                              fl_rewrite.ip=1;
   \   0000063E   ....               LDI     R30, LOW(fl_rewrite)
   \   00000640   ....               LDI     R31, (fl_rewrite) >> 8
   \   00000642   8100               LD      R16, Z
   \   00000644   6001               ORI     R16, 0x01
   \   00000646   8300               ST      Z, R16
   3653                                              
   3654                                              //çŕďčńü
   3655                                             // WrArrayToFlesh(ABUF_IP, &buf_rx_ppp[ind+3],L_CONF_IP,0,0);
   3656                                             // RdFromFleshToArr(ABUF_IP,&buf_tx_232[TR_OP_DATA+C1_DATA+4+cnt_bt],4);
   3657                                              
   3658                                        
   3659                                              RdFromFleshToArr(A_IP_PAR,&buf[0],L_IP_PAR); 
   \   00000648   E04A               LDI     R20, 10
   \   0000064A   E050               LDI     R21, 0
   \   0000064C   019E               MOVW    R19:R18, R29:R28
   \   0000064E   E80C               LDI     R16, 140
   \   00000650   E010               LDI     R17, 0
   \   00000652   ........           CALL    RdFromFleshToArr
   3660                                              buf[OFS_IP]=buf_rx_ppp[ind+3];
   \   00000656   01FC               MOVW    R31:R30, R25:R24
   \   00000658   8103               LDD     R16, Z+3
   \   0000065A   8308               ST      Y, R16
   3661                                              buf[OFS_IP+1]=buf_rx_ppp[ind+4];
   \   0000065C   8104               LDD     R16, Z+4
   \   0000065E   8309               STD     Y+1, R16
   3662                                              buf[OFS_IP+2]=buf_rx_ppp[ind+5];
   \   00000660   8105               LDD     R16, Z+5
   \   00000662   830A               STD     Y+2, R16
   3663                                              buf[OFS_IP+3]=buf_rx_ppp[ind+6];
   \   00000664   8106               LDD     R16, Z+6
   \   00000666   830B               STD     Y+3, R16
   3664                                              *(unsigned int*)&buf[OFS_IP_PAR_CRC]=crc_m1(&buf[0],L_IP_PAR-2,0xffff);
   \   00000668   EF4F               LDI     R20, 255
   \   0000066A   EF5F               LDI     R21, 255
   \   0000066C   E028               LDI     R18, 8
   \   0000066E   E030               LDI     R19, 0
   \   00000670   018E               MOVW    R17:R16, R29:R28
   \   00000672   ........           CALL    crc_m1
   \   00000676   8708               STD     Y+8, R16
   \   00000678   8719               STD     Y+9, R17
   3665                                              WrArrayToFlesh(A_IP_PAR, &buf[0],L_IP_PAR,0,0);
   \   0000067A   E070               LDI     R23, 0
   \   0000067C   E060               LDI     R22, 0
   \   0000067E   E04A               LDI     R20, 10
   \   00000680   E050               LDI     R21, 0
   \   00000682   019E               MOVW    R19:R18, R29:R28
   \   00000684   E80C               LDI     R16, 140
   \   00000686   E010               LDI     R17, 0
   \   00000688   ........           CALL    WrArrayToFlesh
   \   0000068C   C005               RJMP    ??proc_config_43
   3666                                              //prov_ozu=crc_ozu();
   3667                                              
   3668                                              }
   3669                                              else if(*(unsigned int*)&buf_rx_ppp[ind+1]!=(L_CONF_IP-4))goto bad_com;
   \                     ??proc_config_42:
   \   0000068E   8101               LDD     R16, Z+1
   \   00000690   8112               LDD     R17, Z+2
   \   00000692   2B01               OR      R16, R17
   \   00000694   F009               BREQ    $+2+2
   \   00000696   C34F               RJMP    ??proc_config_2
   3670                                                  
   3671                                              RdFromFleshToArr(A_IP_PAR+OFS_IP,&buf_tx_232[TR_OP_DATA+C1_DATA+4+cnt_bt],4);  
   \                     ??proc_config_43:
   \   00000698   E044               LDI     R20, 4
   \   0000069A   E050               LDI     R21, 0
   \   0000069C   019D               MOVW    R19:R18, R27:R26
   \   0000069E   5D20               SUBI    R18, 208
   \   000006A0   4F3F               SBCI    R19, 255
   \   000006A2   E80C               LDI     R16, 140
   \   000006A4   E010               LDI     R17, 0
   \   000006A6   ........           CALL    RdFromFleshToArr
   3672                                              buf_tx_232[TR_OP_DATA+C1_DATA+cnt_bt]=buf_rx_ppp[ind];  //÷ňĺíčĺ
   \   000006AA   01FC               MOVW    R31:R30, R25:R24
   \   000006AC   8100               LD      R16, Z
   \   000006AE   01FD               MOVW    R31:R30, R27:R26
   \   000006B0   A704               STD     Z+44, R16
   3673                                              *(unsigned int*)&buf_tx_232[TR_OP_DATA+C1_DATA+1+cnt_bt]=L_CONF_IP+1;   
   \   000006B2   E005               LDI     R16, 5
   \   000006B4   A705               STD     Z+45, R16
   \   000006B6   A6F6               STD     Z+46, R15
   3674                                              buf_tx_232[TR_OP_DATA+C1_DATA+3+cnt_bt]=0x00; //OK  
   \   000006B8   A6F7               STD     Z+47, R15
   3675          
   3676                                              cnt_bt=cnt_bt+L_CONF_IP+1+3;
   \   000006BA   E008               LDI     R16, 8
   \   000006BC   C347               RJMP    ??proc_config_15
   3677                                            break;   
   3678          
   3679          
   3680                             case CONF_PDP :                                                  
   3681                                            if((buf_rx_ppp[offset+C1_DATA] & 0x80)==0x80)
   \                     ??proc_config_44:
   \   000006BE   01F2               MOVW    R31:R30, R5:R4
   \   000006C0   8102               LDD     R16, Z+2
   \   000006C2   FD07               SBRC    R16, 7
   \   000006C4   C338               RJMP    ??proc_config_2
   3682                                              {
   3683                                              goto bad_com;
   3684                                              }
   3685                                              else {if(*(unsigned int*)&buf_rx_ppp[ind+1]!=0)goto bad_com;}
   \   000006C6   01FC               MOVW    R31:R30, R25:R24
   \   000006C8   8101               LDD     R16, Z+1
   \   000006CA   8112               LDD     R17, Z+2
   \   000006CC   2B01               OR      R16, R17
   \   000006CE   F009               BREQ    $+2+2
   \   000006D0   C332               RJMP    ??proc_config_2
   3686                                               
   3687          
   3688                                              buf_tx_232[TR_OP_DATA+C1_DATA+cnt_bt]=buf_rx_ppp[ind];  //÷ňĺíčĺ                                    
   \   000006D2   8100               LD      R16, Z
   \   000006D4   01FD               MOVW    R31:R30, R27:R26
   \   000006D6   A704               STD     Z+44, R16
   3689                                              buf_tx_232[TR_OP_DATA+C1_DATA+3+cnt_bt]=0x00; //OK  
   \   000006D8   A6F7               STD     Z+47, R15
   3690                                            
   3691                                              RdFromFleshToArr(A_C_GPRS,&buf_tx_232[TR_OP_DATA+C1_DATA+4+cnt_bt],L_C_GPRS_MAX);
   \   000006DA   E34C               LDI     R20, 60
   \   000006DC   E050               LDI     R21, 0
   \   000006DE   019D               MOVW    R19:R18, R27:R26
   \   000006E0   5D20               SUBI    R18, 208
   \   000006E2   4F3F               SBCI    R19, 255
   \   000006E4   E104               LDI     R16, 20
   \                     ??proc_config_45:
   \   000006E6   E010               LDI     R17, 0
   \   000006E8   ........           CALL    RdFromFleshToArr
   3692                                              
   3693                           same_1:            ofs=TR_OP_DATA+C1_DATA+4+cnt_bt;
   \   000006EC   0185               MOVW    R17:R16, R11:R10
   \   000006EE   5D00               SUBI    R16, 208
   \   000006F0   4F1F               SBCI    R17, 255
   3694                                              temp=buf_tx_232[ofs];
   \   000006F2   01F8               MOVW    R31:R30, R17:R16
   \   000006F4   ....               SUBI    R30, LOW((-(buf_tx_232) & 0xFFFF))
   \   000006F6   ....               SBCI    R31, (-(buf_tx_232) & 0xFFFF) >> 8
   \   000006F8   8040               LD      R4, Z
   \   000006FA   2455               CLR     R5
   3695                                              for(i=0;i<temp;i++)buf_tx_232[ofs+i]=buf_tx_232[ofs+i+1];
   \   000006FC   E020               LDI     R18, 0
   \   000006FE   E030               LDI     R19, 0
   \   00000700   C004               RJMP    ??proc_config_46
   \                     ??proc_config_47:
   \   00000702   8141               LDD     R20, Z+1
   \   00000704   8340               ST      Z, R20
   \   00000706   5F2F               SUBI    R18, 255
   \   00000708   4F3F               SBCI    R19, 255
   \                     ??proc_config_46:
   \   0000070A   ....               LDI     R30, LOW(buf_tx_232)
   \   0000070C   ....               LDI     R31, (buf_tx_232) >> 8
   \   0000070E   01A9               MOVW    R21:R20, R19:R18
   \   00000710   0F40               ADD     R20, R16
   \   00000712   1F51               ADC     R21, R17
   \   00000714   0FE4               ADD     R30, R20
   \   00000716   1FF5               ADC     R31, R21
   \   00000718   1524               CP      R18, R4
   \   0000071A   053F               CPC     R19, R15
   \   0000071C   F390               BRCS    ??proc_config_47
   3696                                              buf_tx_232[ofs+i]=0;
   \   0000071E   82F0               ST      Z, R15
   3697                                        
   3698                                              
   3699                                              ofs=ofs+temp+1;
   \   00000720   E021               LDI     R18, 1
   \   00000722   0E42               ADD     R4, R18
   \   00000724   E020               LDI     R18, 0
   \   00000726   1C5F               ADC     R5, R15
   \   00000728   0D04               ADD     R16, R4
   \   0000072A   1D15               ADC     R17, R5
   3700                                              temp=buf_tx_232[ofs];
   \   0000072C   01F8               MOVW    R31:R30, R17:R16
   \   0000072E   ....               SUBI    R30, LOW((-(buf_tx_232) & 0xFFFF))
   \   00000730   ....               SBCI    R31, (-(buf_tx_232) & 0xFFFF) >> 8
   \   00000732   8040               LD      R4, Z
   \   00000734   2455               CLR     R5
   3701                                              for(i=0;i<temp;i++)buf_tx_232[ofs+i]=buf_tx_232[ofs+i+1];
   \   00000736   E030               LDI     R19, 0
   \   00000738   C004               RJMP    ??proc_config_48
   \                     ??proc_config_49:
   \   0000073A   8141               LDD     R20, Z+1
   \   0000073C   8340               ST      Z, R20
   \   0000073E   5F2F               SUBI    R18, 255
   \   00000740   4F3F               SBCI    R19, 255
   \                     ??proc_config_48:
   \   00000742   ....               LDI     R30, LOW(buf_tx_232)
   \   00000744   ....               LDI     R31, (buf_tx_232) >> 8
   \   00000746   01A9               MOVW    R21:R20, R19:R18
   \   00000748   0F40               ADD     R20, R16
   \   0000074A   1F51               ADC     R21, R17
   \   0000074C   0FE4               ADD     R30, R20
   \   0000074E   1FF5               ADC     R31, R21
   \   00000750   1524               CP      R18, R4
   \   00000752   053F               CPC     R19, R15
   \   00000754   F390               BRCS    ??proc_config_49
   3702                                              buf_tx_232[ofs+i]=0;
   \   00000756   82F0               ST      Z, R15
   3703          
   3704                                           
   3705                                              ofs=ofs+temp+1;
   \   00000758   E021               LDI     R18, 1
   \   0000075A   0E42               ADD     R4, R18
   \   0000075C   E020               LDI     R18, 0
   \   0000075E   1C5F               ADC     R5, R15
   \   00000760   0D04               ADD     R16, R4
   \   00000762   1D15               ADC     R17, R5
   3706                                              temp=buf_tx_232[ofs];
   \   00000764   01F8               MOVW    R31:R30, R17:R16
   \   00000766   ....               SUBI    R30, LOW((-(buf_tx_232) & 0xFFFF))
   \   00000768   ....               SBCI    R31, (-(buf_tx_232) & 0xFFFF) >> 8
   \   0000076A   8040               LD      R4, Z
   \   0000076C   2455               CLR     R5
   3707                                              for(i=0;i<temp;i++)buf_tx_232[ofs+i]=buf_tx_232[ofs+i+1];
   \   0000076E   E030               LDI     R19, 0
   \   00000770   C004               RJMP    ??proc_config_50
   \                     ??proc_config_51:
   \   00000772   8141               LDD     R20, Z+1
   \   00000774   8340               ST      Z, R20
   \   00000776   5F2F               SUBI    R18, 255
   \   00000778   4F3F               SBCI    R19, 255
   \                     ??proc_config_50:
   \   0000077A   ....               LDI     R30, LOW(buf_tx_232)
   \   0000077C   ....               LDI     R31, (buf_tx_232) >> 8
   \   0000077E   01A9               MOVW    R21:R20, R19:R18
   \   00000780   0F40               ADD     R20, R16
   \   00000782   1F51               ADC     R21, R17
   \   00000784   0FE4               ADD     R30, R20
   \   00000786   1FF5               ADC     R31, R21
   \   00000788   1524               CP      R18, R4
   \   0000078A   053F               CPC     R19, R15
   \   0000078C   F390               BRCS    ??proc_config_51
   3708                                              buf_tx_232[ofs+i]=0;
   \   0000078E   82F0               ST      Z, R15
   3709                                              
   3710                                              ofs=ofs+temp+1;
   3711                                              ofs=ofs-(TR_OP_DATA+C1_DATA+4+cnt_bt);
   \   00000790   0E40               ADD     R4, R16
   \   00000792   1E51               ADC     R5, R17
   \   00000794   E001               LDI     R16, 1
   \   00000796   0E40               ADD     R4, R16
   \   00000798   1C5F               ADC     R5, R15
   \   0000079A   184A               SUB     R4, R10
   \   0000079C   085B               SBC     R5, R11
   \   0000079E   ED00               LDI     R16, 208
   \   000007A0   0E40               ADD     R4, R16
   \   000007A2   EF0F               LDI     R16, 255
   \   000007A4   1E50               ADC     R5, R16
   \   000007A6   0182               MOVW    R17:R16, R5:R4
   3712                                           
   3713           
   3714                                              *(unsigned int*)&buf_tx_232[TR_OP_DATA+C1_DATA+1+cnt_bt]=ofs+1;   
   \   000007A8   0198               MOVW    R19:R18, R17:R16
   \   000007AA   5F2F               SUBI    R18, 255
   \   000007AC   4F3F               SBCI    R19, 255
   \   000007AE   01FD               MOVW    R31:R30, R27:R26
   \   000007B0   A725               STD     Z+45, R18
   \   000007B2   A736               STD     Z+46, R19
   3715                                              cnt_bt=cnt_bt+ofs+1+3;
   \   000007B4   5F0C               SUBI    R16, 252
   \   000007B6   4F1F               SBCI    R17, 255
   \   000007B8   0EA0               ADD     R10, R16
   \   000007BA   1EB1               ADC     R11, R17
   \   000007BC   C2C9               RJMP    ??proc_config_4
   3716                                            
   3717                                            break;   
   3718                           
   3719                           
   3720                         case CONF_RESET:          
   3721                                           if((buf_rx_ppp[offset+C1_DATA] & 0x80)==0x80)
   \                     ??proc_config_52:
   \   000007BE   01F2               MOVW    R31:R30, R5:R4
   \   000007C0   8102               LDD     R16, Z+2
   \   000007C2   FF07               SBRS    R16, 7
   \   000007C4   C2B8               RJMP    ??proc_config_2
   3722                                              {
   3723                                              if(*(unsigned int*)&buf_rx_ppp[ind+1]!=0)goto bad_com;
   \   000007C6   01FC               MOVW    R31:R30, R25:R24
   \   000007C8   8101               LDD     R16, Z+1
   \   000007CA   8112               LDD     R17, Z+2
   \   000007CC   2B01               OR      R16, R17
   \   000007CE   F009               BREQ    $+2+2
   \   000007D0   C2B2               RJMP    ??proc_config_2
   3724                                              buf_tx_232[TR_OP_DATA+C1_DATA+cnt_bt]=buf_rx_ppp[ind];
   \   000007D2   8100               LD      R16, Z
   \   000007D4   01FD               MOVW    R31:R30, R27:R26
   \   000007D6   A704               STD     Z+44, R16
   3725                                              *(unsigned int*)&buf_tx_232[TR_OP_DATA+C1_DATA+1+cnt_bt]=1;   
   \   000007D8   E001               LDI     R16, 1
   \   000007DA   A705               STD     Z+45, R16
   \   000007DC   A6F6               STD     Z+46, R15
   3726                                              buf_tx_232[TR_OP_DATA+C1_DATA+3+cnt_bt]=0x00; //OK  
   \   000007DE   A6F7               STD     Z+47, R15
   3727                                              cnt_bt=cnt_bt+1+3;
   \   000007E0   E004               LDI     R16, 4
   \   000007E2   0EA0               ADD     R10, R16
   \   000007E4   1CBF               ADC     R11, R15
   3728                                              fl_rewrite.cnt_reset=4;
   \   000007E6   ....               LDI     R30, LOW(fl_rewrite)
   \   000007E8   ....               LDI     R31, (fl_rewrite) >> 8
   \   000007EA   8301               STD     Z+1, R16
   3729                                              break;
   \   000007EC   C2B1               RJMP    ??proc_config_4
   3730                                              }
   3731                                              else goto bad_com;
   3732                           
   3733                           
   3734                           case CONF_PDP_DOP :                                                  
   3735                                            if((buf_rx_ppp[offset+C1_DATA] & 0x80)==0x80)
   \                     ??proc_config_53:
   \   000007EE   01F2               MOVW    R31:R30, R5:R4
   \   000007F0   8102               LDD     R16, Z+2
   \   000007F2   01FC               MOVW    R31:R30, R25:R24
   \   000007F4   FF07               SBRS    R16, 7
   \   000007F6   C037               RJMP    ??proc_config_54
   3736                                              {
   3737                                              temp=*(unsigned int*)&buf_rx_ppp[ind+1];
   \   000007F8   8041               LDD     R4, Z+1
   \   000007FA   8052               LDD     R5, Z+2
   3738                                              
   3739                                              
   3740                                              
   3741                                              if((temp==1)||(temp==2))goto bad_com;
   \   000007FC   E001               LDI     R16, 1
   \   000007FE   1640               CP      R4, R16
   \   00000800   045F               CPC     R5, R15
   \   00000802   F409               BRNE    $+2+2
   \   00000804   C298               RJMP    ??proc_config_2
   \   00000806   E002               LDI     R16, 2
   \   00000808   1640               CP      R4, R16
   \   0000080A   045F               CPC     R5, R15
   \   0000080C   F409               BRNE    $+2+2
   \   0000080E   C293               RJMP    ??proc_config_2
   3742                                              if(temp>L_CONF_PDP)goto bad_com;
   \   00000810   E30B               LDI     R16, 59
   \   00000812   1640               CP      R4, R16
   \   00000814   045F               CPC     R5, R15
   \   00000816   F008               BRCS    $+2+2
   \   00000818   C28E               RJMP    ??proc_config_2
   3743                                             
   3744                                              if(temp==0)
   \   0000081A   2D04               MOV     R16, R4
   \   0000081C   2905               OR      R16, R5
   \   0000081E   F499               BRNE    ??proc_config_55
   3745                                                 {
   3746                                                   e_rw_pdp=0xff;
   \   00000820   EF0F               LDI     R16, 255
   \   00000822   E021               LDI     R18, 1
   \   00000824   E030               LDI     R19, 0
   \   00000826   01A9               MOVW    R21:R20, R19:R18
   \   00000828   ........           CALL    __eeput8_16
   3747                                                   temp=L_CONF_PDP;                                
   \   0000082C   E30A               LDI     R16, 58
   \   0000082E   2E40               MOV     R4, R16
   \   00000830   2455               CLR     R5
   3748                                                   WrArrayToFlesh(ABUF_C_GPRS,0,temp,0x01,0xff);   
   \   00000832   EF7F               LDI     R23, 255
   \   00000834   E061               LDI     R22, 1
   \   00000836   E34A               LDI     R20, 58
   \   00000838   E050               LDI     R21, 0
   \   0000083A   E020               LDI     R18, 0
   \   0000083C   E100               LDI     R16, 16
   \   0000083E   E217               LDI     R17, 39
   \   00000840   ........           CALL    WrArrayToFlesh
   \   00000844   C018               RJMP    ??proc_config_56
   3749                                                  //çŕďčńŕňü âî ôëĺřü ďđčçíŕę ďĺđĺçŕďčńč ęîíňĺęńňŕ
   3750                                                 }
   3751                                                 
   3752                                                 else
   3753                                                   { 
   3754                                                  //çŕďčńü
   3755                                                  WrArrayToFlesh(ABUF_C_GPRS,&buf_rx_ppp[ind+3],temp,0,0);                                  
   \                     ??proc_config_55:
   \   00000846   E070               LDI     R23, 0
   \   00000848   E060               LDI     R22, 0
   \   0000084A   01A2               MOVW    R21:R20, R5:R4
   \   0000084C   019C               MOVW    R19:R18, R25:R24
   \   0000084E   5F2D               SUBI    R18, 253
   \   00000850   4F3F               SBCI    R19, 255
   \   00000852   E100               LDI     R16, 16
   \   00000854   E217               LDI     R17, 39
   \   00000856   ........           CALL    WrArrayToFlesh
   3756                                                  //çŕďčńŕňü âî ôëĺřü ďđčçíŕę ďĺđĺçŕďčńč ęîíňĺęńňŕ
   3757                                                   e_rw_pdp=0;
   \   0000085A   E000               LDI     R16, 0
   \   0000085C   E041               LDI     R20, 1
   \   0000085E   E050               LDI     R21, 0
   \   00000860   ........           CALL    __eeput8_16
   \   00000864   C008               RJMP    ??proc_config_56
   3758                                                   }
   3759                                              }
   3760                                              else {
   3761                                                      if(*(unsigned int*)&buf_rx_ppp[ind+1]!=0)goto bad_com;
   \                     ??proc_config_54:
   \   00000866   8101               LDD     R16, Z+1
   \   00000868   8112               LDD     R17, Z+2
   \   0000086A   2B01               OR      R16, R17
   \   0000086C   F009               BREQ    $+2+2
   \   0000086E   C263               RJMP    ??proc_config_2
   3762                                                      temp=L_CONF_PDP;
   \   00000870   E30A               LDI     R16, 58
   \   00000872   2E40               MOV     R4, R16
   \   00000874   2455               CLR     R5
   3763                                                    }
   3764                                               
   3765                                              RdFromFleshToArr(ABUF_C_GPRS,&buf_tx_232[TR_OP_DATA+C1_DATA+4+cnt_bt],temp); 
   \                     ??proc_config_56:
   \   00000876   01A2               MOVW    R21:R20, R5:R4
   \   00000878   019D               MOVW    R19:R18, R27:R26
   \   0000087A   5D20               SUBI    R18, 208
   \   0000087C   4F3F               SBCI    R19, 255
   \   0000087E   E100               LDI     R16, 16
   \   00000880   E217               LDI     R17, 39
   \                     ??proc_config_57:
   \   00000882   ........           CALL    RdFromFleshToArr
   3766                                              buf_tx_232[TR_OP_DATA+C1_DATA+cnt_bt]=buf_rx_ppp[ind]; 
   \   00000886   01FC               MOVW    R31:R30, R25:R24
   \   00000888   8100               LD      R16, Z
   \   0000088A   01FD               MOVW    R31:R30, R27:R26
   \   0000088C   A704               STD     Z+44, R16
   3767                                              *(unsigned int*)&buf_tx_232[TR_OP_DATA+C1_DATA+1+cnt_bt]=temp+1;                                  
   \   0000088E   0182               MOVW    R17:R16, R5:R4
   \   00000890   5F0F               SUBI    R16, 255
   \   00000892   4F1F               SBCI    R17, 255
   \   00000894   A705               STD     Z+45, R16
   \   00000896   A716               STD     Z+46, R17
   3768                                              buf_tx_232[TR_OP_DATA+C1_DATA+3+cnt_bt]=0x00; //OK 
   \   00000898   A6F7               STD     Z+47, R15
   3769                                               
   3770          
   3771                                              cnt_bt=cnt_bt+temp+1+3;
   \   0000089A   E004               LDI     R16, 4
   \   0000089C   0E40               ADD     R4, R16
   \   0000089E   1C5F               ADC     R5, R15
   \   000008A0   0CA4               ADD     R10, R4
   \   000008A2   1CB5               ADC     R11, R5
   \   000008A4   C255               RJMP    ??proc_config_4
   3772                                               
   3773                                            break;   
   3774           
   3775                                           
   3776                         
   3777                                              
   3778          
   3779                           case CONF_TIME:
   3780                                           if((buf_rx_ppp[ind] & 0x80)==0x80)
   \                     ??proc_config_58:
   \   000008A6   01FC               MOVW    R31:R30, R25:R24
   \   000008A8   8100               LD      R16, Z
   \   000008AA   FF07               SBRS    R16, 7
   \   000008AC   C00D               RJMP    ??proc_config_59
   3781                                              {
   3782                                              if(*(unsigned int*)&buf_rx_ppp[ind+1]!=L_WR_CONF_TIME)goto bad_com;
   \   000008AE   8101               LDD     R16, Z+1
   \   000008B0   8112               LDD     R17, Z+2
   \   000008B2   3006               CPI     R16, 6
   \   000008B4   051F               CPC     R17, R15
   \   000008B6   F009               BREQ    $+2+2
   \   000008B8   C23E               RJMP    ??proc_config_2
   3783                                              //çŕďčńü âđĺěĺíč           
   3784                                              set_rlt(2,&buf_rx_ppp[ind+3]);
   \   000008BA   019C               MOVW    R19:R18, R25:R24
   \   000008BC   5F2D               SUBI    R18, 253
   \   000008BE   4F3F               SBCI    R19, 255
   \   000008C0   E002               LDI     R16, 2
   \   000008C2   ........           CALL    set_rlt
   \   000008C6   C005               RJMP    ??proc_config_60
   3785                                              }
   3786                                              else
   3787                                              {
   3788                                              if(*(unsigned int*)&buf_rx_ppp[ind+1]!=L_RD_CONF_TIME)goto bad_com;   
   \                     ??proc_config_59:
   \   000008C8   8101               LDD     R16, Z+1
   \   000008CA   8112               LDD     R17, Z+2
   \   000008CC   2B01               OR      R16, R17
   \   000008CE   F009               BREQ    $+2+2
   \   000008D0   C232               RJMP    ??proc_config_2
   3789                                              }
   3790                                              
   3791                                            buf_tx_232[TR_OP_DATA+C1_DATA+cnt_bt]=buf_rx_ppp[ind];
   \                     ??proc_config_60:
   \   000008D2   01FC               MOVW    R31:R30, R25:R24
   \   000008D4   8100               LD      R16, Z
   \   000008D6   01FD               MOVW    R31:R30, R27:R26
   \   000008D8   A704               STD     Z+44, R16
   3792                                            *(unsigned int*)&buf_tx_232[TR_OP_DATA+C1_DATA+1+cnt_bt]=L_WR_CONF_TIME+1;
   \   000008DA   E007               LDI     R16, 7
   \   000008DC   A705               STD     Z+45, R16
   \   000008DE   A6F6               STD     Z+46, R15
   3793                                            
   3794                                            buf_tx_232[TR_OP_DATA+C1_DATA+3+cnt_bt]=0x00; //OK                                  
   \   000008E0   A6F7               STD     Z+47, R15
   3795                                            burst_ds_r();                                
   \   000008E2   ........           CALL    burst_ds_r
   3796                                            buf_tx_232[TR_OP_DATA+C1_DATA+4+cnt_bt]=real_time.r_sec;
   \   000008E6   ....               LDI     R16, LOW(real_time)
   \   000008E8   ....               LDI     R17, (real_time) >> 8
   \   000008EA   01F8               MOVW    R31:R30, R17:R16
   \   000008EC   8120               LD      R18, Z
   \   000008EE   01FD               MOVW    R31:R30, R27:R26
   \   000008F0   AB20               STD     Z+48, R18
   3797                                            buf_tx_232[TR_OP_DATA+C1_DATA+5+cnt_bt]=real_time.r_min;
   \   000008F2   01F8               MOVW    R31:R30, R17:R16
   \   000008F4   8121               LDD     R18, Z+1
   \   000008F6   01FD               MOVW    R31:R30, R27:R26
   \   000008F8   AB21               STD     Z+49, R18
   3798                                            buf_tx_232[TR_OP_DATA+C1_DATA+6+cnt_bt]=real_time.r_hor;
   \   000008FA   01F8               MOVW    R31:R30, R17:R16
   \   000008FC   8122               LDD     R18, Z+2
   \   000008FE   01FD               MOVW    R31:R30, R27:R26
   \   00000900   AB22               STD     Z+50, R18
   3799                                            buf_tx_232[TR_OP_DATA+C1_DATA+7+cnt_bt]=real_time.r_date;
   \   00000902   01F8               MOVW    R31:R30, R17:R16
   \   00000904   8124               LDD     R18, Z+4
   \   00000906   01FD               MOVW    R31:R30, R27:R26
   \   00000908   AB23               STD     Z+51, R18
   3800                                            buf_tx_232[TR_OP_DATA+C1_DATA+8+cnt_bt]=real_time.r_month;
   \   0000090A   01F8               MOVW    R31:R30, R17:R16
   \   0000090C   8125               LDD     R18, Z+5
   \   0000090E   01FD               MOVW    R31:R30, R27:R26
   \   00000910   AB24               STD     Z+52, R18
   3801                                            buf_tx_232[TR_OP_DATA+C1_DATA+9+cnt_bt]=real_time.r_year;
   \   00000912   01F8               MOVW    R31:R30, R17:R16
   \   00000914   8106               LDD     R16, Z+6
   \   00000916   01FD               MOVW    R31:R30, R27:R26
   \   00000918   AB05               STD     Z+53, R16
   3802                                            cnt_bt=cnt_bt+L_WR_CONF_TIME+1+3;
   \   0000091A   E00A               LDI     R16, 10
   \   0000091C   C217               RJMP    ??proc_config_15
   3803                           
   3804                                break;
   3805           
   3806                                
   3807                           case CONF_PDP_R :                                                  
   3808                                            if((buf_rx_ppp[offset+C1_DATA] & 0x80)==0x80)
   \                     ??proc_config_61:
   \   0000091E   01F2               MOVW    R31:R30, R5:R4
   \   00000920   8102               LDD     R16, Z+2
   \   00000922   FD07               SBRC    R16, 7
   \   00000924   C208               RJMP    ??proc_config_2
   3809                                              {
   3810                                              goto bad_com;
   3811                                              }
   3812                                              else {if(*(unsigned int*)&buf_rx_ppp[ind+1]!=0)goto bad_com;}
   \   00000926   01FC               MOVW    R31:R30, R25:R24
   \   00000928   8101               LDD     R16, Z+1
   \   0000092A   8112               LDD     R17, Z+2
   \   0000092C   2B01               OR      R16, R17
   \   0000092E   F009               BREQ    $+2+2
   \   00000930   C202               RJMP    ??proc_config_2
   3813                                               
   3814          
   3815                                              buf_tx_232[TR_OP_DATA+C1_DATA+cnt_bt]=buf_rx_ppp[ind];  //÷ňĺíčĺ                                    
   \   00000932   8100               LD      R16, Z
   \   00000934   01FD               MOVW    R31:R30, R27:R26
   \   00000936   A704               STD     Z+44, R16
   3816                                              buf_tx_232[TR_OP_DATA+C1_DATA+3+cnt_bt]=0x00; //OK  
   \   00000938   A6F7               STD     Z+47, R15
   3817                                            
   3818                                              RdFromFleshToArr(A_CR_GPRS,&buf_tx_232[TR_OP_DATA+C1_DATA+4+cnt_bt],L_CR_GPRS_MAX);
   \   0000093A   E34C               LDI     R20, 60
   \   0000093C   E050               LDI     R21, 0
   \   0000093E   019D               MOVW    R19:R18, R27:R26
   \   00000940   5D20               SUBI    R18, 208
   \   00000942   4F3F               SBCI    R19, 255
   \   00000944   E500               LDI     R16, 80
   \   00000946   CECF               RJMP    ??proc_config_45
   3819                                              
   3820                                              goto same_1;
   3821                                              
   3822                                            
   3823                                            //  break;                
   3824                           
   3825                                              
   3826                           case CONF_PDP_DOP_R :                                                  
   3827                                            if((buf_rx_ppp[offset+C1_DATA] & 0x80)==0x80)
   \                     ??proc_config_62:
   \   00000948   01F2               MOVW    R31:R30, R5:R4
   \   0000094A   8102               LDD     R16, Z+2
   \   0000094C   01FC               MOVW    R31:R30, R25:R24
   \   0000094E   FF07               SBRS    R16, 7
   \   00000950   C037               RJMP    ??proc_config_63
   3828                                              {
   3829                                              temp=*(unsigned int*)&buf_rx_ppp[ind+1];
   \   00000952   8041               LDD     R4, Z+1
   \   00000954   8052               LDD     R5, Z+2
   3830                                              
   3831                                              
   3832                                              
   3833                                              if((temp==1)||(temp==2))goto bad_com;
   \   00000956   E001               LDI     R16, 1
   \   00000958   1640               CP      R4, R16
   \   0000095A   045F               CPC     R5, R15
   \   0000095C   F409               BRNE    $+2+2
   \   0000095E   C1EB               RJMP    ??proc_config_2
   \   00000960   E002               LDI     R16, 2
   \   00000962   1640               CP      R4, R16
   \   00000964   045F               CPC     R5, R15
   \   00000966   F409               BRNE    $+2+2
   \   00000968   C1E6               RJMP    ??proc_config_2
   3834                                              if(temp>L_CONF_PDP_R)goto bad_com;
   \   0000096A   E30B               LDI     R16, 59
   \   0000096C   1640               CP      R4, R16
   \   0000096E   045F               CPC     R5, R15
   \   00000970   F008               BRCS    $+2+2
   \   00000972   C1E1               RJMP    ??proc_config_2
   3835                                             
   3836                                              if(temp==0)
   \   00000974   2D04               MOV     R16, R4
   \   00000976   2905               OR      R16, R5
   \   00000978   F499               BRNE    ??proc_config_64
   3837                                                 {
   3838                                                   e_rw_pdp_r=0xff;
   \   0000097A   EF0F               LDI     R16, 255
   \   0000097C   E022               LDI     R18, 2
   \   0000097E   E030               LDI     R19, 0
   \   00000980   01A9               MOVW    R21:R20, R19:R18
   \   00000982   ........           CALL    __eeput8_16
   3839                                                   temp=L_CONF_PDP_R;                                
   \   00000986   E30A               LDI     R16, 58
   \   00000988   2E40               MOV     R4, R16
   \   0000098A   2455               CLR     R5
   3840                                                   WrArrayToFlesh(ABUF_CR_GPRS,0,temp,0x01,0xff);   
   \   0000098C   EF7F               LDI     R23, 255
   \   0000098E   E061               LDI     R22, 1
   \   00000990   E34A               LDI     R20, 58
   \   00000992   E050               LDI     R21, 0
   \   00000994   E020               LDI     R18, 0
   \   00000996   E408               LDI     R16, 72
   \   00000998   E216               LDI     R17, 38
   \   0000099A   ........           CALL    WrArrayToFlesh
   \   0000099E   C018               RJMP    ??proc_config_65
   3841                                                  //çŕďčńŕňü âî ôëĺřü ďđčçíŕę ďĺđĺçŕďčńč ęîíňĺęńňŕ
   3842                                                 }
   3843                                                 
   3844                                                 else
   3845                                                   { 
   3846                                                  //çŕďčńü
   3847                                                  WrArrayToFlesh(ABUF_CR_GPRS,&buf_rx_ppp[ind+3],temp,0,0);                                  
   \                     ??proc_config_64:
   \   000009A0   E070               LDI     R23, 0
   \   000009A2   E060               LDI     R22, 0
   \   000009A4   01A2               MOVW    R21:R20, R5:R4
   \   000009A6   019C               MOVW    R19:R18, R25:R24
   \   000009A8   5F2D               SUBI    R18, 253
   \   000009AA   4F3F               SBCI    R19, 255
   \   000009AC   E408               LDI     R16, 72
   \   000009AE   E216               LDI     R17, 38
   \   000009B0   ........           CALL    WrArrayToFlesh
   3848                                                  //çŕďčńŕňü âî ôëĺřü ďđčçíŕę ďĺđĺçŕďčńč ęîíňĺęńňŕ
   3849                                                   e_rw_pdp_r=0;
   \   000009B4   E000               LDI     R16, 0
   \   000009B6   E042               LDI     R20, 2
   \   000009B8   E050               LDI     R21, 0
   \   000009BA   ........           CALL    __eeput8_16
   \   000009BE   C008               RJMP    ??proc_config_65
   3850                                                   }
   3851                                              }
   3852                                              else {
   3853                                                      if(*(unsigned int*)&buf_rx_ppp[ind+1]!=0)goto bad_com;
   \                     ??proc_config_63:
   \   000009C0   8101               LDD     R16, Z+1
   \   000009C2   8112               LDD     R17, Z+2
   \   000009C4   2B01               OR      R16, R17
   \   000009C6   F009               BREQ    $+2+2
   \   000009C8   C1B6               RJMP    ??proc_config_2
   3854                                                      temp=L_CONF_PDP_R;
   \   000009CA   E30A               LDI     R16, 58
   \   000009CC   2E40               MOV     R4, R16
   \   000009CE   2455               CLR     R5
   3855                                                    }
   3856                                               
   3857                                              RdFromFleshToArr(ABUF_CR_GPRS,&buf_tx_232[TR_OP_DATA+C1_DATA+4+cnt_bt],temp); 
   \                     ??proc_config_65:
   \   000009D0   01A2               MOVW    R21:R20, R5:R4
   \   000009D2   019D               MOVW    R19:R18, R27:R26
   \   000009D4   5D20               SUBI    R18, 208
   \   000009D6   4F3F               SBCI    R19, 255
   \   000009D8   E408               LDI     R16, 72
   \   000009DA   E216               LDI     R17, 38
   \   000009DC   CF52               RJMP    ??proc_config_57
   3858                                              buf_tx_232[TR_OP_DATA+C1_DATA+cnt_bt]=buf_rx_ppp[ind]; 
   3859                                              *(unsigned int*)&buf_tx_232[TR_OP_DATA+C1_DATA+1+cnt_bt]=temp+1;                                  
   3860                                              buf_tx_232[TR_OP_DATA+C1_DATA+3+cnt_bt]=0x00; //OK 
   3861               
   3862                                              cnt_bt=cnt_bt+temp+1+3;
   3863                                               
   3864                                            break;                       
   3865                                
   3866                                
   3867                           case CONF_KEYS:
   3868                                         
   3869                                          
   3870                                          if((buf_rx_ppp[ind] & 0x80)!=0x80)goto bad_com;
   \                     ??proc_config_66:
   \   000009DE   01FC               MOVW    R31:R30, R25:R24
   \   000009E0   8100               LD      R16, Z
   \   000009E2   FF07               SBRS    R16, 7
   \   000009E4   C1A8               RJMP    ??proc_config_2
   3871                                          if(*(unsigned int*)&buf_rx_ppp[ind+1]!=L_WR_CONF_KEYS)goto bad_com;   
   \   000009E6   8101               LDD     R16, Z+1
   \   000009E8   8112               LDD     R17, Z+2
   \   000009EA   3008               CPI     R16, 8
   \   000009EC   E020               LDI     R18, 0
   \   000009EE   051F               CPC     R17, R15
   \   000009F0   F009               BREQ    $+2+2
   \   000009F2   C1A1               RJMP    ??proc_config_2
   3872                                          
   3873                                         
   3874                                          for(i=0;i<L_KEYS-2;i++)buf[i]=buf_rx_ppp[ind+3+i];
   \   000009F4   E030               LDI     R19, 0
   \   000009F6   C00E               RJMP    ??proc_config_67
   \                     ??proc_config_68:
   \   000009F8   890C               LDD     R16, Y+20
   \   000009FA   891D               LDD     R17, Y+21
   \   000009FC   0F02               ADD     R16, R18
   \   000009FE   1F13               ADC     R17, R19
   \   00000A00   01F6               MOVW    R31:R30, R13:R12
   \   00000A02   0FE0               ADD     R30, R16
   \   00000A04   1FF1               ADC     R31, R17
   \   00000A06   8103               LDD     R16, Z+3
   \   00000A08   01FE               MOVW    R31:R30, R29:R28
   \   00000A0A   0FE2               ADD     R30, R18
   \   00000A0C   1FF3               ADC     R31, R19
   \   00000A0E   8300               ST      Z, R16
   \   00000A10   5F2F               SUBI    R18, 255
   \   00000A12   4F3F               SBCI    R19, 255
   \                     ??proc_config_67:
   \   00000A14   3028               CPI     R18, 8
   \   00000A16   053F               CPC     R19, R15
   \   00000A18   F378               BRCS    ??proc_config_68
   3875                                          *(unsigned int*)&buf[L_KEYS-2]=crc_m1(&buf[0],L_KEYS-2,0xffff);
   \   00000A1A   EF4F               LDI     R20, 255
   \   00000A1C   EF5F               LDI     R21, 255
   \   00000A1E   E028               LDI     R18, 8
   \   00000A20   E030               LDI     R19, 0
   \   00000A22   018E               MOVW    R17:R16, R29:R28
   \   00000A24   ........           CALL    crc_m1
   \   00000A28   8708               STD     Y+8, R16
   \   00000A2A   8719               STD     Y+9, R17
   3876                                          
   3877                                          WrArrayToFlesh(A_KEYS,&buf[0],L_KEYS,0,0);
   \   00000A2C   E070               LDI     R23, 0
   \   00000A2E   E060               LDI     R22, 0
   \   00000A30   E04A               LDI     R20, 10
   \   00000A32   E050               LDI     R21, 0
   \   00000A34   019E               MOVW    R19:R18, R29:R28
   \   00000A36   E300               LDI     R16, 48
   \   00000A38   E715               LDI     R17, 117
   \   00000A3A   ........           CALL    WrArrayToFlesh
   3878                                          
   3879                     
   3880                                          
   3881                                           buf_tx_232[TR_OP_DATA+C1_DATA+cnt_bt]=buf_rx_ppp[ind]; 
   \   00000A3E   01FC               MOVW    R31:R30, R25:R24
   \   00000A40   8100               LD      R16, Z
   \   00000A42   01FD               MOVW    R31:R30, R27:R26
   \   00000A44   A704               STD     Z+44, R16
   3882                                           *(unsigned int*)&buf_tx_232[TR_OP_DATA+C1_DATA+1+cnt_bt]=1;                                  
   \   00000A46   E001               LDI     R16, 1
   \   00000A48   A705               STD     Z+45, R16
   \   00000A4A   A6F6               STD     Z+46, R15
   3883                                           buf_tx_232[TR_OP_DATA+C1_DATA+3+cnt_bt]=0x00; //OK 
   \   00000A4C   A6F7               STD     Z+47, R15
   3884                                           cnt_bt=cnt_bt+1+3;
   \   00000A4E   E004               LDI     R16, 4
   \   00000A50   0EA0               ADD     R10, R16
   \   00000A52   1CBF               ADC     R11, R15
   3885                                           
   3886                                           RdFromFleshToArr(A_KEYS,&keys[0],L_KEYS); // íîâűé ęëţ÷
   \   00000A54   E04A               LDI     R20, 10
   \   00000A56   E050               LDI     R21, 0
   \   00000A58   ....               LDI     R18, LOW(keys)
   \   00000A5A   ....               LDI     R19, (keys) >> 8
   \   00000A5C   E300               LDI     R16, 48
   \   00000A5E   E715               LDI     R17, 117
   \   00000A60   ........           CALL    RdFromFleshToArr
   \   00000A64   C175               RJMP    ??proc_config_4
   3887                                           
   3888          
   3889                                break;
   3890           
   3891                                 //!!!!!!!!!!dobavka
   3892                                case CONF_TM_NO_LINK:
   3893                                      
   3894                                  if((buf_rx_ppp[offset+C1_DATA] & 0x80)==0x80)
   \                     ??proc_config_69:
   \   00000A66   01F2               MOVW    R31:R30, R5:R4
   \   00000A68   8102               LDD     R16, Z+2
   \   00000A6A   01FC               MOVW    R31:R30, R25:R24
   \   00000A6C   FF07               SBRS    R16, 7
   \   00000A6E   C048               RJMP    ??proc_config_70
   3895                                              {
   3896                                              if(*(unsigned int*)&buf_rx_ppp[ind+1]!=L_CONF_TM_NO_LINK)goto bad_com;
   \   00000A70   8121               LDD     R18, Z+1
   \   00000A72   8132               LDD     R19, Z+2
   \   00000A74   3022               CPI     R18, 2
   \   00000A76   053F               CPC     R19, R15
   \   00000A78   F009               BREQ    $+2+2
   \   00000A7A   C15D               RJMP    ??proc_config_2
   3897                                              //çŕďčńü
   3898                                              temp=*(unsigned int*)&buf_rx_ppp[ind+3];
   \   00000A7C   8043               LDD     R4, Z+3
   \   00000A7E   8054               LDD     R5, Z+4
   3899                                              
   3900                                              if(temp!=0)
   \   00000A80   2D04               MOV     R16, R4
   \   00000A82   2905               OR      R16, R5
   \   00000A84   F061               BREQ    ??proc_config_71
   3901                                                if(temp <= (Control.vol_link/60)){buf_tx_232[TR_OP_DATA+C1_DATA+3+cnt_bt]=0x01;goto nocorr_com;}
   \   00000A86   ....               LDI     R30, LOW(Appl_seq)
   \   00000A88   ....               LDI     R31, (Appl_seq) >> 8
   \   00000A8A   A102               LDD     R16, Z+34
   \   00000A8C   A113               LDD     R17, Z+35
   \   00000A8E   E34C               LDI     R20, 60
   \   00000A90   E050               LDI     R21, 0
   \   00000A92   ........           CALL    ?US_DIVMOD_L02
   \   00000A96   1504               CP      R16, R4
   \   00000A98   0515               CPC     R17, R5
   \   00000A9A   F008               BRCS    $+2+2
   \   00000A9C   CB2F               RJMP    ??proc_config_10
   3902                                              
   3903                                              
   3904                                              vol_cnt_no_link=temp;
   3905                                              vol_cnt_no_link=vol_cnt_no_link*60;
   \                     ??proc_config_71:
   \   00000A9E   01A2               MOVW    R21:R20, R5:R4
   \   00000AA0   E060               LDI     R22, 0
   \   00000AA2   E070               LDI     R23, 0
   \   00000AA4   E30C               LDI     R16, 60
   \   00000AA6   E010               LDI     R17, 0
   \   00000AA8   E020               LDI     R18, 0
   \   00000AAA   E030               LDI     R19, 0
   \   00000AAC   ........           CALL    ?L_EC_MUL_L03
   \   00000AB0   ....               LDI     R30, LOW(Appl_seq)
   \   00000AB2   ....               LDI     R31, (Appl_seq) >> 8
   \   00000AB4   AB00               STD     Z+48, R16
   \   00000AB6   AB11               STD     Z+49, R17
   \   00000AB8   AB22               STD     Z+50, R18
   \   00000ABA   AB33               STD     Z+51, R19
   3906                                              
   3907                                              RdFromFleshToArr(A_C_PAR,&buf[0],L_C_PAR); 
   \   00000ABC   E04E               LDI     R20, 14
   \   00000ABE   E050               LDI     R21, 0
   \   00000AC0   019E               MOVW    R19:R18, R29:R28
   \   00000AC2   E906               LDI     R16, 150
   \   00000AC4   E010               LDI     R17, 0
   \   00000AC6   ........           CALL    RdFromFleshToArr
   3908                                              *(unsigned int*)&buf[OFS_TM_NO_LINK]=temp;
   \   00000ACA   824E               STD     Y+6, R4
   \   00000ACC   825F               STD     Y+7, R5
   3909                                              *(unsigned int*)&buf[OFS_C_PAR_CRC]=crc_m1(&buf[0],L_C_PAR-2,0xffff);
   \   00000ACE   EF4F               LDI     R20, 255
   \   00000AD0   EF5F               LDI     R21, 255
   \   00000AD2   E02C               LDI     R18, 12
   \   00000AD4   E030               LDI     R19, 0
   \   00000AD6   018E               MOVW    R17:R16, R29:R28
   \   00000AD8   ........           CALL    crc_m1
   \   00000ADC   870C               STD     Y+12, R16
   \   00000ADE   871D               STD     Y+13, R17
   3910                                              WrArrayToFlesh(A_C_PAR, &buf[0],L_C_PAR,0,0);
   \   00000AE0   E070               LDI     R23, 0
   \   00000AE2   E060               LDI     R22, 0
   \   00000AE4   E04E               LDI     R20, 14
   \   00000AE6   E050               LDI     R21, 0
   \   00000AE8   019E               MOVW    R19:R18, R29:R28
   \   00000AEA   E906               LDI     R16, 150
   \   00000AEC   E010               LDI     R17, 0
   \   00000AEE   ........           CALL    WrArrayToFlesh
   3911                                              prov_ozu=crc_ozu();
   \   00000AF2   ........           CALL    crc_ozu
   \   00000AF6   ....               LDI     R30, LOW(prov_ozu)
   \   00000AF8   ....               LDI     R31, (prov_ozu) >> 8
   \   00000AFA   8300               ST      Z, R16
   \   00000AFC   8311               STD     Z+1, R17
   \   00000AFE   C005               RJMP    ??proc_config_72
   3912                                              }
   3913                                              else {if(*(unsigned int*)&buf_rx_ppp[ind+1]!=(L_CONF_TM_NO_LINK-2))goto bad_com;}
   \                     ??proc_config_70:
   \   00000B00   8101               LDD     R16, Z+1
   \   00000B02   8112               LDD     R17, Z+2
   \   00000B04   2B01               OR      R16, R17
   \   00000B06   F009               BREQ    $+2+2
   \   00000B08   C116               RJMP    ??proc_config_2
   3914                                               
   3915          
   3916                                              buf_tx_232[TR_OP_DATA+C1_DATA+cnt_bt]=buf_rx_ppp[ind];  //÷ňĺíčĺ
   \                     ??proc_config_72:
   \   00000B0A   01FC               MOVW    R31:R30, R25:R24
   \   00000B0C   8100               LD      R16, Z
   \   00000B0E   01FD               MOVW    R31:R30, R27:R26
   \   00000B10   A704               STD     Z+44, R16
   3917                                              *(unsigned int*)&buf_tx_232[TR_OP_DATA+C1_DATA+1+cnt_bt]=L_CONF_TM_NO_LINK+1;   
   \   00000B12   E003               LDI     R16, 3
   \   00000B14   E010               LDI     R17, 0
   \   00000B16   A705               STD     Z+45, R16
   \   00000B18   A716               STD     Z+46, R17
   3918                                              buf_tx_232[TR_OP_DATA+C1_DATA+3+cnt_bt]=0x00; //OK  
   \   00000B1A   A717               STD     Z+47, R17
   3919                                              RdFromFleshToArr(A_C_PAR+OFS_TM_NO_LINK,&buf_tx_232[TR_OP_DATA+C1_DATA+4+cnt_bt],2);
   \   00000B1C   E042               LDI     R20, 2
   \   00000B1E   E050               LDI     R21, 0
   \   00000B20   96D0               ADIW    R27:R26, 48
   \   00000B22   019D               MOVW    R19:R18, R27:R26
   \   00000B24   E90C               LDI     R16, 156
   \   00000B26   CB25               RJMP    ??proc_config_13
   3920                                              
   3921                                              cnt_bt=cnt_bt+L_CONF_TM_NO_LINK+1+3;
   3922                                   break;
   3923                                  
   3924                                 case CONF_TM_LINK_RES:
   3925                                      
   3926                                  if((buf_rx_ppp[offset+C1_DATA] & 0x80)==0x80)
   \                     ??proc_config_73:
   \   00000B28   01F2               MOVW    R31:R30, R5:R4
   \   00000B2A   8102               LDD     R16, Z+2
   \   00000B2C   01FC               MOVW    R31:R30, R25:R24
   \   00000B2E   FF07               SBRS    R16, 7
   \   00000B30   C03E               RJMP    ??proc_config_74
   3927                                              {
   3928                                              if(*(unsigned int*)&buf_rx_ppp[ind+1]!=L_CONF_TM_LINK_RES)goto bad_com;
   \   00000B32   8121               LDD     R18, Z+1
   \   00000B34   8132               LDD     R19, Z+2
   \   00000B36   3022               CPI     R18, 2
   \   00000B38   053F               CPC     R19, R15
   \   00000B3A   F009               BREQ    $+2+2
   \   00000B3C   C0FC               RJMP    ??proc_config_2
   3929                                              //çŕďčńü
   3930                                              temp=*(unsigned int*)&buf_rx_ppp[ind+3];
   \   00000B3E   8043               LDD     R4, Z+3
   \   00000B40   8054               LDD     R5, Z+4
   3931                                              
   3932                                              if(temp < MIN_TM_LINK_RES){buf_tx_232[TR_OP_DATA+C1_DATA+3+cnt_bt]=0x01;goto nocorr_com;}
   \   00000B42   E10E               LDI     R16, 30
   \   00000B44   1640               CP      R4, R16
   \   00000B46   045F               CPC     R5, R15
   \   00000B48   F408               BRCC    $+2+2
   \   00000B4A   CAD8               RJMP    ??proc_config_10
   3933                                              
   3934                                              
   3935                                              vol_cnt_link_res=temp;
   3936                                              vol_cnt_link_res=vol_cnt_link_res*60;
   \   00000B4C   01A2               MOVW    R21:R20, R5:R4
   \   00000B4E   E060               LDI     R22, 0
   \   00000B50   E070               LDI     R23, 0
   \   00000B52   E30C               LDI     R16, 60
   \   00000B54   E010               LDI     R17, 0
   \   00000B56   E020               LDI     R18, 0
   \   00000B58   E030               LDI     R19, 0
   \   00000B5A   ........           CALL    ?L_EC_MUL_L03
   \   00000B5E   ....               LDI     R30, LOW(Appl_seq)
   \   00000B60   ....               LDI     R31, (Appl_seq) >> 8
   \   00000B62   AB04               STD     Z+52, R16
   \   00000B64   AB15               STD     Z+53, R17
   \   00000B66   AB26               STD     Z+54, R18
   \   00000B68   AB37               STD     Z+55, R19
   3937                                              
   3938                                              RdFromFleshToArr(A_C_PAR,&buf[0],L_C_PAR); 
   \   00000B6A   E04E               LDI     R20, 14
   \   00000B6C   E050               LDI     R21, 0
   \   00000B6E   019E               MOVW    R19:R18, R29:R28
   \   00000B70   E906               LDI     R16, 150
   \   00000B72   E010               LDI     R17, 0
   \   00000B74   ........           CALL    RdFromFleshToArr
   3939                                              *(unsigned int*)&buf[OFS_TM_LINK_RES]=temp;
   \   00000B78   8648               STD     Y+8, R4
   \   00000B7A   8659               STD     Y+9, R5
   3940                                              *(unsigned int*)&buf[OFS_C_PAR_CRC]=crc_m1(&buf[0],L_C_PAR-2,0xffff);
   \   00000B7C   EF4F               LDI     R20, 255
   \   00000B7E   EF5F               LDI     R21, 255
   \   00000B80   E02C               LDI     R18, 12
   \   00000B82   E030               LDI     R19, 0
   \   00000B84   018E               MOVW    R17:R16, R29:R28
   \   00000B86   ........           CALL    crc_m1
   \   00000B8A   870C               STD     Y+12, R16
   \   00000B8C   871D               STD     Y+13, R17
   3941                                              WrArrayToFlesh(A_C_PAR, &buf[0],L_C_PAR,0,0);
   \   00000B8E   E070               LDI     R23, 0
   \   00000B90   E060               LDI     R22, 0
   \   00000B92   E04E               LDI     R20, 14
   \   00000B94   E050               LDI     R21, 0
   \   00000B96   019E               MOVW    R19:R18, R29:R28
   \   00000B98   E906               LDI     R16, 150
   \   00000B9A   E010               LDI     R17, 0
   \   00000B9C   ........           CALL    WrArrayToFlesh
   3942                                              prov_ozu=crc_ozu();
   \   00000BA0   ........           CALL    crc_ozu
   \   00000BA4   ....               LDI     R30, LOW(prov_ozu)
   \   00000BA6   ....               LDI     R31, (prov_ozu) >> 8
   \   00000BA8   8300               ST      Z, R16
   \   00000BAA   8311               STD     Z+1, R17
   \   00000BAC   C005               RJMP    ??proc_config_75
   3943                                              }
   3944                                              else {if(*(unsigned int*)&buf_rx_ppp[ind+1]!=(L_CONF_TM_LINK_RES-2))goto bad_com;}
   \                     ??proc_config_74:
   \   00000BAE   8101               LDD     R16, Z+1
   \   00000BB0   8112               LDD     R17, Z+2
   \   00000BB2   2B01               OR      R16, R17
   \   00000BB4   F009               BREQ    $+2+2
   \   00000BB6   C0BF               RJMP    ??proc_config_2
   3945                                               
   3946          
   3947                                              buf_tx_232[TR_OP_DATA+C1_DATA+cnt_bt]=buf_rx_ppp[ind];  //÷ňĺíčĺ
   \                     ??proc_config_75:
   \   00000BB8   01FC               MOVW    R31:R30, R25:R24
   \   00000BBA   8100               LD      R16, Z
   \   00000BBC   01FD               MOVW    R31:R30, R27:R26
   \   00000BBE   A704               STD     Z+44, R16
   3948                                              *(unsigned int*)&buf_tx_232[TR_OP_DATA+C1_DATA+1+cnt_bt]=L_CONF_TM_LINK_RES+1;   
   \   00000BC0   E003               LDI     R16, 3
   \   00000BC2   E010               LDI     R17, 0
   \   00000BC4   A705               STD     Z+45, R16
   \   00000BC6   A716               STD     Z+46, R17
   3949                                              buf_tx_232[TR_OP_DATA+C1_DATA+3+cnt_bt]=0x00; //OK  
   \   00000BC8   A717               STD     Z+47, R17
   3950                                              RdFromFleshToArr(A_C_PAR+OFS_TM_LINK_RES,&buf_tx_232[TR_OP_DATA+C1_DATA+4+cnt_bt],2);
   \   00000BCA   E042               LDI     R20, 2
   \   00000BCC   E050               LDI     R21, 0
   \   00000BCE   96D0               ADIW    R27:R26, 48
   \   00000BD0   019D               MOVW    R19:R18, R27:R26
   \   00000BD2   E90E               LDI     R16, 158
   \   00000BD4   CACE               RJMP    ??proc_config_13
   3951                                              
   3952                                              cnt_bt=cnt_bt+L_CONF_TM_LINK_RES+1+3;
   3953                                   break;    
   3954                           
   3955                                   
   3956                          case CONF_TP_TS:   
   3957                                      if((buf_rx_ppp[offset+C1_DATA] & 0x80)==0x80)
   \                     ??proc_config_76:
   \   00000BD6   01F2               MOVW    R31:R30, R5:R4
   \   00000BD8   8102               LDD     R16, Z+2
   \   00000BDA   01FC               MOVW    R31:R30, R25:R24
   \   00000BDC   FF07               SBRS    R16, 7
   \   00000BDE   C04C               RJMP    ??proc_config_77
   3958                                              {
   3959                                              if(*(unsigned int*)&buf_rx_ppp[ind+1]!=L_CONF_TP_TS)goto bad_com;
   \   00000BE0   8101               LDD     R16, Z+1
   \   00000BE2   8112               LDD     R17, Z+2
   \   00000BE4   3002               CPI     R16, 2
   \   00000BE6   051F               CPC     R17, R15
   \   00000BE8   F009               BREQ    $+2+2
   \   00000BEA   C0A5               RJMP    ??proc_config_2
   3960                                              //çŕďčńü
   3961                                              
   3962                                              RdFromFleshToArr(A_SEQ_PAR,&buf[0],L_SEQ_PAR);
   \   00000BEC   E04B               LDI     R20, 11
   \   00000BEE   E050               LDI     R21, 0
   \   00000BF0   019E               MOVW    R19:R18, R29:R28
   \   00000BF2   EA04               LDI     R16, 164
   \   00000BF4   E010               LDI     R17, 0
   \   00000BF6   ........           CALL    RdFromFleshToArr
   3963                                              
   3964                                              temp=buf_rx_ppp[ind+3];
   \   00000BFA   01FC               MOVW    R31:R30, R25:R24
   \   00000BFC   8043               LDD     R4, Z+3
   \   00000BFE   2455               CLR     R5
   3965                                              if((temp!=0xff)&&(temp>2)){buf_tx_232[TR_OP_DATA+C1_DATA+3+cnt_bt]=0x01;goto nocorr_com;}
   \   00000C00   EF0F               LDI     R16, 255
   \   00000C02   1640               CP      R4, R16
   \   00000C04   045F               CPC     R5, R15
   \   00000C06   F029               BREQ    ??proc_config_78
   \   00000C08   E003               LDI     R16, 3
   \   00000C0A   1640               CP      R4, R16
   \   00000C0C   045F               CPC     R5, R15
   \   00000C0E   F008               BRCS    $+2+2
   \   00000C10   CA75               RJMP    ??proc_config_10
   3966                                              if(temp!=0xff)
   \                     ??proc_config_78:
   \   00000C12   EF0F               LDI     R16, 255
   \   00000C14   1640               CP      R4, R16
   \   00000C16   045F               CPC     R5, R15
   \   00000C18   F019               BREQ    ??proc_config_79
   3967                                               {
   3968                                                buf[OFS_TP_TS]=temp; 
   \   00000C1A   824F               STD     Y+7, R4
   3969                                                struct_tcc1.type=temp;
   \   00000C1C   9240....           STS     (struct_tcc1 + 4), R4
   3970                                                }
   3971                                              
   3972                                              temp=buf_rx_ppp[ind+4];
   \                     ??proc_config_79:
   \   00000C20   8044               LDD     R4, Z+4
   3973                                              if ((temp!=0xff)&&(temp>1)){buf_tx_232[TR_OP_DATA+C1_DATA+3+cnt_bt]=0x01;goto nocorr_com;}
   \   00000C22   1640               CP      R4, R16
   \   00000C24   045F               CPC     R5, R15
   \   00000C26   F029               BREQ    ??proc_config_80
   \   00000C28   E002               LDI     R16, 2
   \   00000C2A   1640               CP      R4, R16
   \   00000C2C   045F               CPC     R5, R15
   \   00000C2E   F008               BRCS    $+2+2
   \   00000C30   CA65               RJMP    ??proc_config_10
   3974                                              if(temp!=0xff)
   \                     ??proc_config_80:
   \   00000C32   EF0F               LDI     R16, 255
   \   00000C34   1640               CP      R4, R16
   \   00000C36   045F               CPC     R5, R15
   \   00000C38   F019               BREQ    ??proc_config_81
   3975                                                {
   3976                                                buf[OFS_TP_TS+1]=temp; 
   \   00000C3A   8648               STD     Y+8, R4
   3977                                                struct_tcc2.type=temp;
   \   00000C3C   9240....           STS     (struct_tcc2 + 4), R4
   3978                                                }
   3979           
   3980                                              
   3981                                              *(unsigned int*)&buf[OFS_SEQ_PAR_CRC]=crc_m1(&buf[0],L_SEQ_PAR-2,0xffff);
   \                     ??proc_config_81:
   \   00000C40   EF4F               LDI     R20, 255
   \   00000C42   EF5F               LDI     R21, 255
   \   00000C44   E029               LDI     R18, 9
   \   00000C46   E030               LDI     R19, 0
   \   00000C48   018E               MOVW    R17:R16, R29:R28
   \   00000C4A   ........           CALL    crc_m1
   \   00000C4E   8709               STD     Y+9, R16
   \   00000C50   871A               STD     Y+10, R17
   3982                                              WrArrayToFlesh(A_SEQ_PAR, &buf[0],L_SEQ_PAR,0,0);
   \   00000C52   E070               LDI     R23, 0
   \   00000C54   E060               LDI     R22, 0
   \   00000C56   E04B               LDI     R20, 11
   \   00000C58   E050               LDI     R21, 0
   \   00000C5A   019E               MOVW    R19:R18, R29:R28
   \   00000C5C   EA04               LDI     R16, 164
   \   00000C5E   E010               LDI     R17, 0
   \   00000C60   ........           CALL    WrArrayToFlesh
   3983                                              prov_ozu=crc_ozu();
   \   00000C64   ........           CALL    crc_ozu
   \   00000C68   ....               LDI     R30, LOW(prov_ozu)
   \   00000C6A   ....               LDI     R31, (prov_ozu) >> 8
   \   00000C6C   8300               ST      Z, R16
   \   00000C6E   8311               STD     Z+1, R17
   3984                                              
   3985                                             
   3986                                              
   3987                                              monitor_beg_state_seq(1);
   \   00000C70   E001               LDI     R16, 1
   \   00000C72   ........           CALL    monitor_beg_state_seq
   \   00000C76   C005               RJMP    ??proc_config_82
   3988                                              
   3989                                              /*
   3990                                              if(Appl_seq_des!=1)
   3991                                              { 
   3992                                                if(flag_monitor_beg==0)
   3993                                                 {
   3994                                                  flag_monitor_beg=1; 
   3995                                                  monitor_beg_state_seq(1);
   3996                                                 }
   3997                                               }
   3998                                              */
   3999                                              
   4000                                              }
   4001                                      
   4002                                              else {if(*(unsigned int*)&buf_rx_ppp[ind+1]!=(L_CONF_TP_TS-2))goto bad_com;}
   \                     ??proc_config_77:
   \   00000C78   8101               LDD     R16, Z+1
   \   00000C7A   8112               LDD     R17, Z+2
   \   00000C7C   2B01               OR      R16, R17
   \   00000C7E   F009               BREQ    $+2+2
   \   00000C80   C05A               RJMP    ??proc_config_2
   4003                                               
   4004          
   4005                                              buf_tx_232[TR_OP_DATA+C1_DATA+cnt_bt]=buf_rx_ppp[ind];  //÷ňĺíčĺ
   \                     ??proc_config_82:
   \   00000C82   01FC               MOVW    R31:R30, R25:R24
   \   00000C84   8100               LD      R16, Z
   \   00000C86   01FD               MOVW    R31:R30, R27:R26
   \   00000C88   A704               STD     Z+44, R16
   4006                                              *(unsigned int*)&buf_tx_232[TR_OP_DATA+C1_DATA+1+cnt_bt]=L_CONF_TP_TS+1;   
   \   00000C8A   E003               LDI     R16, 3
   \   00000C8C   E010               LDI     R17, 0
   \   00000C8E   A705               STD     Z+45, R16
   \   00000C90   A716               STD     Z+46, R17
   4007                                              buf_tx_232[TR_OP_DATA+C1_DATA+3+cnt_bt]=0x00; //OK  
   \   00000C92   A717               STD     Z+47, R17
   4008                                              RdFromFleshToArr(A_SEQ_PAR+OFS_TP_TS,&buf_tx_232[TR_OP_DATA+C1_DATA+4+cnt_bt],2);
   \   00000C94   E042               LDI     R20, 2
   \   00000C96   E050               LDI     R21, 0
   \   00000C98   96D0               ADIW    R27:R26, 48
   \   00000C9A   019D               MOVW    R19:R18, R27:R26
   \   00000C9C   EA0B               LDI     R16, 171
   \   00000C9E   CA69               RJMP    ??proc_config_13
   4009                                              
   4010                                              cnt_bt=cnt_bt+L_CONF_TP_TS+1+3;
   4011                                        
   4012                                     break;
   4013                                   
   4014                           case CONF_TM_NAT_R:  
   4015                           
   4016                                            
   4017                                            if((buf_rx_ppp[offset+C1_DATA] & 0x80)==0x80)
   \                     ??proc_config_83:
   \   00000CA0   01F2               MOVW    R31:R30, R5:R4
   \   00000CA2   8102               LDD     R16, Z+2
   \   00000CA4   01FC               MOVW    R31:R30, R25:R24
   \   00000CA6   FF07               SBRS    R16, 7
   \   00000CA8   C033               RJMP    ??proc_config_84
   4018                                              {
   4019                                              if(*(unsigned int*)&buf_rx_ppp[ind+1]!=L_CONF_TM_NAT_R)goto bad_com;
   \   00000CAA   8121               LDD     R18, Z+1
   \   00000CAC   8132               LDD     R19, Z+2
   \   00000CAE   3022               CPI     R18, 2
   \   00000CB0   053F               CPC     R19, R15
   \   00000CB2   F009               BREQ    $+2+2
   \   00000CB4   C040               RJMP    ??proc_config_2
   4020                                              //çŕďčńü
   4021                                              temp=*(unsigned int*)&buf_rx_ppp[ind+3];
   \   00000CB6   8043               LDD     R4, Z+3
   \   00000CB8   8054               LDD     R5, Z+4
   4022                                              
   4023                                              if (temp<10){buf_tx_232[TR_OP_DATA+C1_DATA+3+cnt_bt]=0x01;goto nocorr_com;}
   \   00000CBA   E00A               LDI     R16, 10
   \   00000CBC   1640               CP      R4, R16
   \   00000CBE   045F               CPC     R5, R15
   \   00000CC0   F408               BRCC    $+2+2
   \   00000CC2   CA1C               RJMP    ??proc_config_10
   4024                                              
   4025                                              
   4026                                              Control.vol_nat_r=temp;
   \   00000CC4   ....               LDI     R30, LOW(Appl_seq)
   \   00000CC6   ....               LDI     R31, (Appl_seq) >> 8
   \   00000CC8   A642               STD     Z+42, R4
   \   00000CCA   A653               STD     Z+43, R5
   4027                                              RdFromFleshToArr(A_C_PAR,&buf[0],L_C_PAR); 
   \   00000CCC   E04E               LDI     R20, 14
   \   00000CCE   E050               LDI     R21, 0
   \   00000CD0   019E               MOVW    R19:R18, R29:R28
   \   00000CD2   E906               LDI     R16, 150
   \   00000CD4   E010               LDI     R17, 0
   \   00000CD6   ........           CALL    RdFromFleshToArr
   4028                                              *(unsigned int*)&buf[OFS_NAT_R]=temp;
   \   00000CDA   864A               STD     Y+10, R4
   \   00000CDC   865B               STD     Y+11, R5
   4029                                              *(unsigned int*)&buf[OFS_C_PAR_CRC]=crc_m1(&buf[0],L_C_PAR-2,0xffff);
   \   00000CDE   EF4F               LDI     R20, 255
   \   00000CE0   EF5F               LDI     R21, 255
   \   00000CE2   E02C               LDI     R18, 12
   \   00000CE4   E030               LDI     R19, 0
   \   00000CE6   018E               MOVW    R17:R16, R29:R28
   \   00000CE8   ........           CALL    crc_m1
   \   00000CEC   870C               STD     Y+12, R16
   \   00000CEE   871D               STD     Y+13, R17
   4030                                              WrArrayToFlesh(A_C_PAR, &buf[0],L_C_PAR,0,0);
   \   00000CF0   E070               LDI     R23, 0
   \   00000CF2   E060               LDI     R22, 0
   \   00000CF4   E04E               LDI     R20, 14
   \   00000CF6   E050               LDI     R21, 0
   \   00000CF8   019E               MOVW    R19:R18, R29:R28
   \   00000CFA   E906               LDI     R16, 150
   \   00000CFC   E010               LDI     R17, 0
   \   00000CFE   ........           CALL    WrArrayToFlesh
   4031                                              prov_ozu=crc_ozu();
   \   00000D02   ........           CALL    crc_ozu
   \   00000D06   ....               LDI     R30, LOW(prov_ozu)
   \   00000D08   ....               LDI     R31, (prov_ozu) >> 8
   \   00000D0A   8300               ST      Z, R16
   \   00000D0C   8311               STD     Z+1, R17
   \   00000D0E   C004               RJMP    ??proc_config_85
   4032                                              }
   4033                                              else {if(*(unsigned int*)&buf_rx_ppp[ind+1]!=(L_CONF_TM_NAT_R-2))goto bad_com;}
   \                     ??proc_config_84:
   \   00000D10   8101               LDD     R16, Z+1
   \   00000D12   8112               LDD     R17, Z+2
   \   00000D14   2B01               OR      R16, R17
   \   00000D16   F479               BRNE    ??proc_config_2
   4034                                               
   4035          
   4036                                              buf_tx_232[TR_OP_DATA+C1_DATA+cnt_bt]=buf_rx_ppp[ind];  //÷ňĺíčĺ
   \                     ??proc_config_85:
   \   00000D18   01FC               MOVW    R31:R30, R25:R24
   \   00000D1A   8100               LD      R16, Z
   \   00000D1C   01FD               MOVW    R31:R30, R27:R26
   \   00000D1E   A704               STD     Z+44, R16
   4037                                              *(unsigned int*)&buf_tx_232[TR_OP_DATA+C1_DATA+1+cnt_bt]=L_CONF_TM_NAT_R+1;   
   \   00000D20   E003               LDI     R16, 3
   \   00000D22   E010               LDI     R17, 0
   \   00000D24   A705               STD     Z+45, R16
   \   00000D26   A716               STD     Z+46, R17
   4038                                              buf_tx_232[TR_OP_DATA+C1_DATA+3+cnt_bt]=0x00; //OK  
   \   00000D28   A717               STD     Z+47, R17
   4039                                              RdFromFleshToArr(A_C_PAR+OFS_NAT_R,&buf_tx_232[TR_OP_DATA+C1_DATA+4+cnt_bt],2);
   \   00000D2A   E042               LDI     R20, 2
   \   00000D2C   E050               LDI     R21, 0
   \   00000D2E   96D0               ADIW    R27:R26, 48
   \   00000D30   019D               MOVW    R19:R18, R27:R26
   \   00000D32   EA00               LDI     R16, 160
   \   00000D34   CA1E               RJMP    ??proc_config_13
   4040                                              
   4041                                              cnt_bt=cnt_bt+L_CONF_TM_NAT_R+1+3;
   4042                                            break;        
   4043                                   
   4044                           default:     
   4045                            bad_com:buf_tx_232[TR_OP_DATA+C1_DATA+3+cnt_bt]=0x02; //íĺ ďîääĺđćčâŕĺňń˙   
   \                     ??proc_config_2:
   \   00000D36   E002               LDI     R16, 2
   \                     ??proc_config_11:
   \   00000D38   01FD               MOVW    R31:R30, R27:R26
   \   00000D3A   A707               STD     Z+47, R16
   4046                            nocorr_com: 
   4047                                   buf_tx_232[TR_OP_DATA+C1_DATA+cnt_bt]=buf_rx_ppp[ind];
   \   00000D3C   01FC               MOVW    R31:R30, R25:R24
   \   00000D3E   8100               LD      R16, Z
   \   00000D40   01FD               MOVW    R31:R30, R27:R26
   \   00000D42   A704               STD     Z+44, R16
   4048                                   *(unsigned int*)&buf_tx_232[TR_OP_DATA+C1_DATA+1+cnt_bt]=1;                        
   \   00000D44   E001               LDI     R16, 1
   \   00000D46   A705               STD     Z+45, R16
   \   00000D48   A6F6               STD     Z+46, R15
   4049                                   cnt_bt=cnt_bt+4;  
   \   00000D4A   E004               LDI     R16, 4
   \                     ??proc_config_15:
   \   00000D4C   0EA0               ADD     R10, R16
   \   00000D4E   1CBF               ADC     R11, R15
   4050                                break;                  
   4051                           }
   4052                         
   4053                         
   4054           ind=ind+3+*(unsigned int*)&buf_rx_ppp[ind+1]; 
   \                     ??proc_config_4:
   \   00000D50   01FC               MOVW    R31:R30, R25:R24
   \   00000D52   8181               LDD     R24, Z+1
   \   00000D54   8192               LDD     R25, Z+2
   \   00000D56   9603               ADIW    R25:R24, 3
   \   00000D58   890C               LDD     R16, Y+20
   \   00000D5A   891D               LDD     R17, Y+21
   \   00000D5C   0F08               ADD     R16, R24
   \   00000D5E   1F19               ADC     R17, R25
   \   00000D60   8B0C               STD     Y+20, R16
   \   00000D62   8B1D               STD     Y+21, R17
   4055           if(ind>=count_rx_ppp-3)return(cnt_bt);
   \   00000D64   890C               LDD     R16, Y+20
   \   00000D66   891D               LDD     R17, Y+21
   \   00000D68   898E               LDD     R24, Y+22
   \   00000D6A   899F               LDD     R25, Y+23
   \   00000D6C   9703               SBIW    R25:R24, 3
   \   00000D6E   1708               CP      R16, R24
   \   00000D70   0719               CPC     R17, R25
   \   00000D72   F408               BRCC    $+2+2
   \   00000D74   C953               RJMP    ??proc_config_0
   \   00000D76   0185               MOVW    R17:R16, R11:R10
   \   00000D78   9668               ADIW    R29:R28, 24
   \   00000D7A   E1E0               LDI     R30, 16
   \   00000D7C   ........           JMP     ?EPILOGUE_B16_L09
   4056           goto next_parametr;
   4057           } 
   4058          
   4059          
   4060          
   4061          ///!!!!!!!!!!!!!!!!!!!!!!!!!!!!!!!!!!!!!!!!!!!!!!!!!!Đŕáîňŕ ń ďîđňîě RS485-1
   4062          

   \                                 In segment CODE, align 2, keep-with-next
   4063          void monitor1_tx_rs485_1(void)
   \                     monitor1_tx_rs485_1:
   4064          {
   \   00000000   ........           CALL    ?PROLOGUE4_L09
   4065            unsigned int i;
   4066            if(fl_485_1.busy==1)return;
   \   00000004   ....               LDI     R30, LOW(fl_485_1)
   \   00000006   ....               LDI     R31, (fl_485_1) >> 8
   \   00000008   8100               LD      R16, Z
   \   0000000A   FD00               SBRC    R16, 0
   \   0000000C   C05B               RJMP    ??monitor1_tx_rs485_1_0
   4067            if((fl_485_1.tx==1)||(Appl_RS485_1.fl_data_buf==TRUE))
   \   0000000E   ....               LDI     R26, LOW(Appl_RS485_1)
   \   00000010   ....               LDI     R27, (Appl_RS485_1) >> 8
   \   00000012   8100               LD      R16, Z
   \   00000014   FD03               SBRC    R16, 3
   \   00000016   C004               RJMP    ??monitor1_tx_rs485_1_1
   \   00000018   910C               LD      R16, X
   \   0000001A   3001               CPI     R16, 1
   \   0000001C   F009               BREQ    $+2+2
   \   0000001E   C052               RJMP    ??monitor1_tx_rs485_1_0
   4068              {
   4069              if(fl_485_1.tx==1)fl_485_1.tx=0;
   \                     ??monitor1_tx_rs485_1_1:
   \   00000020   8100               LD      R16, Z
   \   00000022   FF03               SBRS    R16, 3
   \   00000024   C003               RJMP    ??monitor1_tx_rs485_1_2
   \   00000026   8100               LD      R16, Z
   \   00000028   7F07               ANDI    R16, 0xF7
   \   0000002A   8300               ST      Z, R16
   4070              if(Appl_RS485_1.fl_data_buf==TRUE)Appl_RS485_1.fl_data_buf=FALSE;
   \                     ??monitor1_tx_rs485_1_2:
   \   0000002C   910C               LD      R16, X
   \   0000002E   3001               CPI     R16, 1
   \   00000030   F411               BRNE    ??monitor1_tx_rs485_1_3
   \   00000032   E000               LDI     R16, 0
   \   00000034   930C               ST      X, R16
   4071              fl_485_1.busy=1;
   \                     ??monitor1_tx_rs485_1_3:
   \   00000036   8100               LD      R16, Z
   \   00000038   6001               ORI     R16, 0x01
   \   0000003A   8300               ST      Z, R16
   4072              fl_tx485.mon1=1;
   \   0000003C   01FD               MOVW    R31:R30, R27:R26
   \   0000003E   AD02               LDD     R16, Z+58
   \   00000040   6001               ORI     R16, 0x01
   \   00000042   AF02               STD     Z+58, R16
   4073              Appl_RS485_1.dst_tek=Appl_RS485_1.dst_buf;
   \   00000044   8103               LDD     R16, Z+3
   \   00000046   8114               LDD     R17, Z+4
   \   00000048   8706               STD     Z+14, R16
   \   0000004A   8717               STD     Z+15, R17
   4074              Appl_RS485_1.id_tek=Appl_RS485_1.id_buf;
   \   0000004C   8505               LDD     R16, Z+13
   \   0000004E   8B00               STD     Z+16, R16
   4075              Rs485_1.cnt_bt_rx_tx=Appl_RS485_1.ln_data_buf;
   \   00000050   ....               LDI     R16, LOW(Rs485_1)
   \   00000052   ....               LDI     R17, (Rs485_1) >> 8
   \   00000054   8121               LDD     R18, Z+1
   \   00000056   8132               LDD     R19, Z+2
   \   00000058   01F8               MOVW    R31:R30, R17:R16
   \   0000005A   8320               ST      Z, R18
   \   0000005C   8331               STD     Z+1, R19
   4076              for(i=0;i<Rs485_1.cnt_bt_rx_tx;i++)Rs485_1_buf_rx_tx[i]=Appl_RS485_1_data_buf[i];
   \   0000005E   E080               LDI     R24, 0
   \   00000060   E090               LDI     R25, 0
   \   00000062   C009               RJMP    ??monitor1_tx_rs485_1_4
   \                     ??monitor1_tx_rs485_1_5:
   \   00000064   01FC               MOVW    R31:R30, R25:R24
   \   00000066   ....               SUBI    R30, LOW((-(Appl_RS485_1_data_buf) & 0xFFFF))
   \   00000068   ....               SBCI    R31, (-(Appl_RS485_1_data_buf) & 0xFFFF) >> 8
   \   0000006A   8120               LD      R18, Z
   \   0000006C   01FC               MOVW    R31:R30, R25:R24
   \   0000006E   ....               SUBI    R30, LOW((-(Rs485_1_buf_rx_tx) & 0xFFFF))
   \   00000070   ....               SBCI    R31, (-(Rs485_1_buf_rx_tx) & 0xFFFF) >> 8
   \   00000072   8320               ST      Z, R18
   \   00000074   9601               ADIW    R25:R24, 1
   \                     ??monitor1_tx_rs485_1_4:
   \   00000076   01F8               MOVW    R31:R30, R17:R16
   \   00000078   8120               LD      R18, Z
   \   0000007A   8131               LDD     R19, Z+1
   \   0000007C   1782               CP      R24, R18
   \   0000007E   0793               CPC     R25, R19
   \   00000080   F388               BRCS    ??monitor1_tx_rs485_1_5
   4077              Rs485_1.p_data485=&Rs485_1_buf_rx_tx[0];
   \   00000082   ....               LDI     R18, LOW(Rs485_1_buf_rx_tx)
   \   00000084   ....               LDI     R19, (Rs485_1_buf_rx_tx) >> 8
   \   00000086   8B20               STD     Z+16, R18
   \   00000088   8B31               STD     Z+17, R19
   4078              //çäĺńü äîëćíŕ áűňü ôóíęöč˙ íŕńňđîéęč ďîđňŕ ďî ęîíňĺęńňó.
   4079              
   4080              if (run_cont_485_1(&Appl_RS485_1.cont_buf[0])==1)
   \   0000008A   018D               MOVW    R17:R16, R27:R26
   \   0000008C   5F0B               SUBI    R16, 251
   \   0000008E   4F1F               SBCI    R17, 255
   \   00000090   ........           CALL    run_cont_485_1
   \   00000094   3001               CPI     R16, 1
   \   00000096   F451               BRNE    ??monitor1_tx_rs485_1_6
   4081                 {
   4082                 fl_485_1.busy=0;
   \   00000098   ....               LDI     R30, LOW(fl_485_1)
   \   0000009A   ....               LDI     R31, (fl_485_1) >> 8
   \   0000009C   8100               LD      R16, Z
   \   0000009E   7F0E               ANDI    R16, 0xFE
   \   000000A0   8300               ST      Z, R16
   4083                 fl_tx485.mon1=0;
   \   000000A2   01FD               MOVW    R31:R30, R27:R26
   \   000000A4   AD02               LDD     R16, Z+58
   \   000000A6   7F0E               ANDI    R16, 0xFE
   \   000000A8   AF02               STD     Z+58, R16
   4084                 return;
   \   000000AA   C00C               RJMP    ??monitor1_tx_rs485_1_0
   4085                 }
   4086              
   4087              /*
   4088              //UBRR1H=R9600_H;
   4089              //UBRR1L=R9600_L;  
   4090              UBRR1H=R4800_H;
   4091              UBRR1L=R4800_L;   
   4092              UCSR1B=UCSR1B & ~(RXCIE | RXEN);      
   4093              Rs485_1.cnt_tm_tx_out=0;
   4094              Rs485_1.vol_tm_tx_out=5; // 5 ěčëëčńĺęóíä
   4095              Rs485_1.cnt_tm_pre_tx=20;// 20 ěčëëčńĺęóíä    
   4096              Rs485_1.cnt_tm_rx_out=0;
   4097              Rs485_1.vol_tm_rx_out=5;// 5 ěčëëčńĺęóíä   
   4098              Rs485_1.cnt_tm_out=0;
   4099              Rs485_1.vol_tm_out=1000; // 1000 ěčëëčńĺęóíä
   4100              */
   4101              S3_RD;   
   \                     ??monitor1_tx_rs485_1_6:
   \   000000AC   9A44               SBI     0x08, 0x04
   \   000000AE   9845               CBI     0x08, 0x05
   4102              UCSR3B=UCSR3B & ~(RXCIE | RXEN); 
   \   000000B0   91000131           LDS     R16, 305
   \   000000B4   760F               ANDI    R16, 0x6F
   \   000000B6   93000131           STS     305, R16
   4103              SET_RTS1;  //rts íŕ ďĺđĺäŕ÷ó
   \   000000BA   91000105           LDS     R16, 261
   \   000000BE   6004               ORI     R16, 0x04
   \   000000C0   93000105           STS     261, R16
   \                     ??monitor1_tx_rs485_1_0:
   \   000000C4   E0E4               LDI     R30, 4
   \   000000C6   ........           JMP     ?EPILOGUE_B4_L09
   4104               
   4105              }
   4106          }
   4107          
   4108          

   \                                 In segment CODE, align 2, keep-with-next
   4109          void monitor1_tm_rs485_1(void)
   \                     monitor1_tm_rs485_1:
   4110            {
   \   00000000   93BA               ST      -Y, R27
   \   00000002   93AA               ST      -Y, R26
   4111            if(fl_tx485.mon1==0)return;
   4112            if(fl_ip.act_ip_end!=1)return; 
   4113            if(fl_485_1.tm_out==0)return;
   \   00000004   ....               LDI     R26, LOW(Appl_RS485_1)
   \   00000006   ....               LDI     R27, (Appl_RS485_1) >> 8
   \   00000008   01FD               MOVW    R31:R30, R27:R26
   \   0000000A   AD02               LDD     R16, Z+58
   \   0000000C   7001               ANDI    R16, 0x01
   \   0000000E   ....               LDI     R30, LOW(fl_ip)
   \   00000010   ....               LDI     R31, (fl_ip) >> 8
   \   00000012   8110               LD      R17, Z
   \   00000014   7011               ANDI    R17, 0x01
   \   00000016   2310               AND     R17, R16
   \   00000018   F131               BREQ    ??monitor1_tm_rs485_1_0
   \   0000001A   ....               LDI     R30, LOW(fl_485_1)
   \   0000001C   ....               LDI     R31, (fl_485_1) >> 8
   \   0000001E   8100               LD      R16, Z
   \   00000020   FF02               SBRS    R16, 2
   \   00000022   C021               RJMP    ??monitor1_tm_rs485_1_0
   4114             
   4115            // __disable_interrupt();
   4116            CLR_RTS1;
   \   00000024   91000105           LDS     R16, 261
   \   00000028   7F0B               ANDI    R16, 0xFB
   \   0000002A   93000105           STS     261, R16
   4117            //__enable_interrupt();
   4118            
   4119            clr_cntr_nat();
   \   0000002E   ........           CALL    clr_cntr_nat
   4120            clr_cntr_link();
   \   00000032   ........           CALL    clr_cntr_link
   4121            
   4122            fl_485_1.tm_out=0; 
   \   00000036   ....               LDI     R30, LOW(fl_485_1)
   \   00000038   ....               LDI     R31, (fl_485_1) >> 8
   \   0000003A   8100               LD      R16, Z
   \   0000003C   7F0B               ANDI    R16, 0xFB
   \   0000003E   8300               ST      Z, R16
   4123            if(PINE & DCD0) send_err485(NUM_RS485_1,RS_NO_LINK,Appl_RS485_1.id_tek,Appl_RS485_1.dst_tek);// čăíîđčđîâŕňü ďĺđĺäŕ÷ó ĺńëč íĺň GPRS ęŕíŕëŕ
   \   00000040   9B66               SBIS    0x0C, 0x06
   \   00000042   C008               RJMP    ??monitor1_tm_rs485_1_1
   \   00000044   01FD               MOVW    R31:R30, R27:R26
   \   00000046   8546               LDD     R20, Z+14
   \   00000048   8557               LDD     R21, Z+15
   \   0000004A   8920               LDD     R18, Z+16
   \   0000004C   E011               LDI     R17, 1
   \   0000004E   E001               LDI     R16, 1
   \   00000050   ........           CALL    send_err485
   4124            fl_485_1.busy=0; 
   \                     ??monitor1_tm_rs485_1_1:
   \   00000054   ....               LDI     R30, LOW(fl_485_1)
   \   00000056   ....               LDI     R31, (fl_485_1) >> 8
   \   00000058   8100               LD      R16, Z
   \   0000005A   7F0E               ANDI    R16, 0xFE
   \   0000005C   8300               ST      Z, R16
   4125            fl_tx485.mon1=0;
   \   0000005E   01FD               MOVW    R31:R30, R27:R26
   \   00000060   AD02               LDD     R16, Z+58
   \   00000062   7F0E               ANDI    R16, 0xFE
   \   00000064   AF02               STD     Z+58, R16
   4126            }
   \                     ??monitor1_tm_rs485_1_0:
   \   00000066   91A9               LD      R26, Y+
   \   00000068   91B9               LD      R27, Y+
   \   0000006A   9508               RET
   4127          
   4128          
   4129          

   \                                 In segment CODE, align 2, keep-with-next
   4130          void monitor1_rec_rs485_1(void)
   \                     monitor1_rec_rs485_1:
   4131            {
   \   00000000   ........           CALL    ?PROLOGUE4_L09
   4132            unsigned int i;
   4133            if(fl_tx485.mon1==0)return;
   4134            if(fl_ip.act_ip_end!=1)return; 
   4135            if(fl_485_1.rec==0)return;
   \   00000004   ....               LDI     R26, LOW(Appl_RS485_1)
   \   00000006   ....               LDI     R27, (Appl_RS485_1) >> 8
   \   00000008   01FD               MOVW    R31:R30, R27:R26
   \   0000000A   AD02               LDD     R16, Z+58
   \   0000000C   7001               ANDI    R16, 0x01
   \   0000000E   ....               LDI     R30, LOW(fl_ip)
   \   00000010   ....               LDI     R31, (fl_ip) >> 8
   \   00000012   8110               LD      R17, Z
   \   00000014   7011               ANDI    R17, 0x01
   \   00000016   2310               AND     R17, R16
   \   00000018   F409               BRNE    $+2+2
   \   0000001A   C0D2               RJMP    ??monitor1_rec_rs485_1_0
   \   0000001C   ....               LDI     R30, LOW(fl_485_1)
   \   0000001E   ....               LDI     R31, (fl_485_1) >> 8
   \   00000020   8100               LD      R16, Z
   \   00000022   FF01               SBRS    R16, 1
   \   00000024   C0CD               RJMP    ??monitor1_rec_rs485_1_0
   4136          
   4137            fl_485_1.rec=0;
   \   00000026   8100               LD      R16, Z
   \   00000028   7F0D               ANDI    R16, 0xFD
   \   0000002A   8300               ST      Z, R16
   4138            
   4139           // __disable_interrupt();
   4140            CLR_RTS1;
   \   0000002C   91000105           LDS     R16, 261
   \   00000030   7F0B               ANDI    R16, 0xFB
   \   00000032   93000105           STS     261, R16
   4141           // __enable_interrupt();
   4142            
   4143            clr_cntr_nat();
   \   00000036   ........           CALL    clr_cntr_nat
   4144            clr_cntr_link();
   \   0000003A   ........           CALL    clr_cntr_link
   4145            
   4146            
   4147            if((PINE & DCD0)==0)
   \   0000003E   ....               LDI     R30, LOW(fl_485_1)
   \   00000040   ....               LDI     R31, (fl_485_1) >> 8
   \   00000042   8100               LD      R16, Z
   \   00000044   9966               SBIC    0x0C, 0x06
   \   00000046   C011               RJMP    ??monitor1_rec_rs485_1_1
   4148            {
   4149               fl_485_1.over=0;         // čăíîđčđîâŕňü ďĺđĺäŕ÷ó ĺńëč íĺň GPRS ęŕíŕëŕ
   \   00000048   7E0F               ANDI    R16, 0xEF
   \   0000004A   8300               ST      Z, R16
   4150               Rs485_1.cnt_bt_rx_tx=0;
   \                     ??monitor1_rec_rs485_1_2:
   \   0000004C   E000               LDI     R16, 0
   \   0000004E   ....               LDI     R30, LOW(Rs485_1)
   \   00000050   ....               LDI     R31, (Rs485_1) >> 8
   \   00000052   8300               ST      Z, R16
   \   00000054   8301               STD     Z+1, R16
   4151               fl_485_1.busy=0;
   \   00000056   ....               LDI     R30, LOW(fl_485_1)
   \   00000058   ....               LDI     R31, (fl_485_1) >> 8
   \   0000005A   8100               LD      R16, Z
   \   0000005C   7F0E               ANDI    R16, 0xFE
   \   0000005E   8300               ST      Z, R16
   4152               fl_tx485.mon1=0; 
   \   00000060   01FD               MOVW    R31:R30, R27:R26
   \   00000062   AD02               LDD     R16, Z+58
   \   00000064   7F0E               ANDI    R16, 0xFE
   \   00000066   AF02               STD     Z+58, R16
   4153               return; 
   \   00000068   C0AB               RJMP    ??monitor1_rec_rs485_1_0
   4154            }
   4155            
   4156            
   4157            
   4158            if(fl_485_1.over==1)
   \                     ??monitor1_rec_rs485_1_1:
   \   0000006A   FF04               SBRS    R16, 4
   \   0000006C   C00C               RJMP    ??monitor1_rec_rs485_1_3
   4159               {
   4160               fl_485_1.over=0;
   \   0000006E   8100               LD      R16, Z
   \   00000070   7E0F               ANDI    R16, 0xEF
   \   00000072   8300               ST      Z, R16
   4161               send_err485(NUM_RS485_1,RS_OVER_BUF_RX,Appl_RS485_1.id_tek,Appl_RS485_1.dst_tek);
   \   00000074   01FD               MOVW    R31:R30, R27:R26
   \   00000076   8546               LDD     R20, Z+14
   \   00000078   8557               LDD     R21, Z+15
   \   0000007A   8920               LDD     R18, Z+16
   \   0000007C   E014               LDI     R17, 4
   \   0000007E   E001               LDI     R16, 1
   \   00000080   ........           CALL    send_err485
   4162               Rs485_1.cnt_bt_rx_tx=0;
   \   00000084   CFE3               RJMP    ??monitor1_rec_rs485_1_2
   4163               fl_485_1.busy=0;
   4164               fl_tx485.mon1=0; 
   4165               return; 
   4166               }
   4167              
   4168              //!!!!!!!!!!!!!! çäĺńü áű íŕäî ďđîâĺđę íŕ äëčíó áóôĺđŕ äë˙ PPP
   4169             if(Rs485_1.cnt_bt_rx_tx+100>VOL_TX_PPP)
   \                     ??monitor1_rec_rs485_1_3:
   \   00000086   ....               LDI     R30, LOW(Rs485_1)
   \   00000088   ....               LDI     R31, (Rs485_1) >> 8
   \   0000008A   8100               LD      R16, Z
   \   0000008C   8111               LDD     R17, Z+1
   \   0000008E   590C               SUBI    R16, 156
   \   00000090   4F1F               SBCI    R17, 255
   \   00000092   340D               CPI     R16, 77
   \   00000094   E024               LDI     R18, 4
   \   00000096   0712               CPC     R17, R18
   \   00000098   F0B8               BRCS    ??monitor1_rec_rs485_1_4
   4170                {
   4171                send_err485(NUM_RS485_1,RS_OVER_BUF_PPP_TX,Appl_RS485_1.id_tek,Appl_RS485_1.dst_tek);
   \   0000009A   01FD               MOVW    R31:R30, R27:R26
   \   0000009C   8546               LDD     R20, Z+14
   \   0000009E   8557               LDD     R21, Z+15
   \   000000A0   8920               LDD     R18, Z+16
   \   000000A2   E017               LDI     R17, 7
   \   000000A4   E001               LDI     R16, 1
   \   000000A6   ........           CALL    send_err485
   4172                Rs485_1.cnt_bt_rx_tx=0;
   \   000000AA   E000               LDI     R16, 0
   \   000000AC   ....               LDI     R30, LOW(Rs485_1)
   \   000000AE   ....               LDI     R31, (Rs485_1) >> 8
   \   000000B0   8300               ST      Z, R16
   \   000000B2   8301               STD     Z+1, R16
   4173                fl_485_1.busy=0;
   \   000000B4   ....               LDI     R30, LOW(fl_485_1)
   \   000000B6   ....               LDI     R31, (fl_485_1) >> 8
   \   000000B8   8100               LD      R16, Z
   \   000000BA   7F0E               ANDI    R16, 0xFE
   \   000000BC   8300               ST      Z, R16
   4174                fl_tx485.mon1=0; 
   \   000000BE   01FD               MOVW    R31:R30, R27:R26
   \   000000C0   AD02               LDD     R16, Z+58
   \   000000C2   7F0E               ANDI    R16, 0xFE
   \   000000C4   AF02               STD     Z+58, R16
   4175                return; 
   \   000000C6   C07C               RJMP    ??monitor1_rec_rs485_1_0
   4176                }
   4177              
   4178            fl_ip.act_ip_end=0;
   \                     ??monitor1_rec_rs485_1_4:
   \   000000C8   ....               LDI     R30, LOW(fl_ip)
   \   000000CA   ....               LDI     R31, (fl_ip) >> 8
   \   000000CC   8100               LD      R16, Z
   \   000000CE   7F0E               ANDI    R16, 0xFE
   \   000000D0   8300               ST      Z, R16
   4179            
   4180            Obj_ppp_tx.prozr=FALSE;            
   \   000000D2   ....               LDI     R16, LOW(Obj_ppp_tx)
   \   000000D4   ....               LDI     R17, (Obj_ppp_tx) >> 8
   \   000000D6   E020               LDI     R18, 0
   \   000000D8   01F8               MOVW    R31:R30, R17:R16
   \   000000DA   8320               ST      Z, R18
   4181            Obj_ppp_tx.version=VER2;      //âĺđńč˙ 
   \   000000DC   E022               LDI     R18, 2
   \   000000DE   8321               STD     Z+1, R18
   4182            Obj_ppp_tx.type_pac=OTV;     //ňčď ďŕęĺňŕ
   \   000000E0   E021               LDI     R18, 1
   \   000000E2   8322               STD     Z+2, R18
   4183            Obj_ppp_tx.num_src=num_self; // íîěĺđ îňďđŕâčňĺë˙
   \   000000E4   ....               LDI     R30, LOW(Appl_seq)
   \   000000E6   ....               LDI     R31, (Appl_seq) >> 8
   \   000000E8   AD20               LDD     R18, Z+56
   \   000000EA   AD31               LDD     R19, Z+57
   \   000000EC   01F8               MOVW    R31:R30, R17:R16
   \   000000EE   8323               STD     Z+3, R18
   \   000000F0   8334               STD     Z+4, R19
   4184            Obj_ppp_tx.num_dst=Appl_RS485_1.dst_tek; // íîěĺđ ďîëó÷ŕňĺë˙
   \   000000F2   01FD               MOVW    R31:R30, R27:R26
   \   000000F4   8526               LDD     R18, Z+14
   \   000000F6   8537               LDD     R19, Z+15
   \   000000F8   01F8               MOVW    R31:R30, R17:R16
   \   000000FA   8325               STD     Z+5, R18
   \   000000FC   8336               STD     Z+6, R19
   4185            Obj_ppp_tx.id_pac=Appl_RS485_1.id_tek; // čäĺíňčôčęŕňîđ ďŕęĺňŕ  
   \   000000FE   01FD               MOVW    R31:R30, R27:R26
   \   00000100   8920               LDD     R18, Z+16
   \   00000102   01F8               MOVW    R31:R30, R17:R16
   \   00000104   8327               STD     Z+7, R18
   4186            Obj_ppp_tx.p_opt=&buf_opt_tr[0]; // //óęŕçŕňĺëü áóôĺđŕ îďöčé  
   \   00000106   ....               LDI     R18, LOW((Appl_RS232_2 + 19))
   \   00000108   ....               LDI     R19, HIGH((Appl_RS232_2 + 19))
   \   0000010A   8720               STD     Z+8, R18
   \   0000010C   8731               STD     Z+9, R19
   4187            Obj_ppp_tx.l_opt=0;// äëčíŕ áóôĺđŕ îďöčé   
   \   0000010E   E020               LDI     R18, 0
   \   00000110   8722               STD     Z+10, R18
   4188            Obj_ppp_tx.kol_opt=0;// ęîëč÷ĺńňâî îďöčé 
   \   00000112   8723               STD     Z+11, R18
   4189            
   4190          
   4191              buf_tx_232[TR_OP_DATA+C1_PROT]=PROT_C1;
   \   00000114   ....               LDI     R24, LOW(buf_tx_232)
   \   00000116   ....               LDI     R25, (buf_tx_232) >> 8
   \   00000118   E021               LDI     R18, 1
   \   0000011A   01FC               MOVW    R31:R30, R25:R24
   \   0000011C   A722               STD     Z+42, R18
   4192              buf_tx_232[TR_OP_DATA+C1_PORT]=PORT485_1;
   \   0000011E   A723               STD     Z+43, R18
   4193             
   4194             
   4195          
   4196              for(i=0;i<Rs485_1.cnt_bt_rx_tx;i++)buf_tx_232[TR_OP_DATA+C1_DATA+i]=Rs485_1_buf_rx_tx[i];
   \   00000120   E020               LDI     R18, 0
   \   00000122   E030               LDI     R19, 0
   \   00000124   C00A               RJMP    ??monitor1_rec_rs485_1_5
   \                     ??monitor1_rec_rs485_1_6:
   \   00000126   01F9               MOVW    R31:R30, R19:R18
   \   00000128   ....               SUBI    R30, LOW((-(Rs485_1_buf_rx_tx) & 0xFFFF))
   \   0000012A   ....               SBCI    R31, (-(Rs485_1_buf_rx_tx) & 0xFFFF) >> 8
   \   0000012C   8140               LD      R20, Z
   \   0000012E   01FC               MOVW    R31:R30, R25:R24
   \   00000130   0FE2               ADD     R30, R18
   \   00000132   1FF3               ADC     R31, R19
   \   00000134   A744               STD     Z+44, R20
   \   00000136   5F2F               SUBI    R18, 255
   \   00000138   4F3F               SBCI    R19, 255
   \                     ??monitor1_rec_rs485_1_5:
   \   0000013A   ....               LDI     R30, LOW(Rs485_1)
   \   0000013C   ....               LDI     R31, (Rs485_1) >> 8
   \   0000013E   8140               LD      R20, Z
   \   00000140   8151               LDD     R21, Z+1
   \   00000142   1724               CP      R18, R20
   \   00000144   0735               CPC     R19, R21
   \   00000146   F378               BRCS    ??monitor1_rec_rs485_1_6
   4197              Obj_ppp_tx.l_data=2+Rs485_1.cnt_bt_rx_tx;   // äëčíŕ äŕííűő
   \   00000148   8120               LD      R18, Z
   \   0000014A   8131               LDD     R19, Z+1
   \   0000014C   5F2E               SUBI    R18, 254
   \   0000014E   4F3F               SBCI    R19, 255
   \   00000150   01F8               MOVW    R31:R30, R17:R16
   \   00000152   8726               STD     Z+14, R18
   \   00000154   8737               STD     Z+15, R19
   4198              Obj_ppp_tx.p_data=&buf_tx_232[TR_OP_DATA+C1_PROT];  //óęŕçŕňĺëü áóôĺđŕ äŕííűő 
   \   00000156   019C               MOVW    R19:R18, R25:R24
   \   00000158   5D26               SUBI    R18, 214
   \   0000015A   4F3F               SBCI    R19, 255
   \   0000015C   8724               STD     Z+12, R18
   \   0000015E   8735               STD     Z+13, R19
   4199              Rs485_1.cnt_bt_rx_tx=0;
   \   00000160   E000               LDI     R16, 0
   \   00000162   ....               LDI     R30, LOW(Rs485_1)
   \   00000164   ....               LDI     R31, (Rs485_1) >> 8
   \   00000166   8300               ST      Z, R16
   \   00000168   8301               STD     Z+1, R16
   4200              
   4201            form_buf_tx_ppp();                            
   \   0000016A   ........           CALL    form_buf_tx_ppp
   4202            UCSR0A=UCSR0A | TXC;                            
   \   0000016E   910000C0           LDS     R16, 192
   \   00000172   6400               ORI     R16, 0x40
   \   00000174   930000C0           STS     192, R16
   4203            UCSR0B=UCSR0B | TXEN;
   \   00000178   910000C1           LDS     R16, 193
   \   0000017C   6008               ORI     R16, 0x08
   \   0000017E   930000C1           STS     193, R16
   4204            UCSR0B=UCSR0B | TXCIE; 
   \   00000182   910000C1           LDS     R16, 193
   \   00000186   6400               ORI     R16, 0x40
   \   00000188   930000C1           STS     193, R16
   4205            fl_485_1.busy=0;
   \   0000018C   ....               LDI     R30, LOW(fl_485_1)
   \   0000018E   ....               LDI     R31, (fl_485_1) >> 8
   \   00000190   8100               LD      R16, Z
   \   00000192   7F0E               ANDI    R16, 0xFE
   \   00000194   8300               ST      Z, R16
   4206            fl_tx485.mon1=0;
   \   00000196   01FD               MOVW    R31:R30, R27:R26
   \   00000198   AD02               LDD     R16, Z+58
   \   0000019A   7F0E               ANDI    R16, 0xFE
   \   0000019C   AF02               STD     Z+58, R16
   4207            if(check_cts()==1) return;                
   \   0000019E   ........           CALL    check_cts
   \   000001A2   3001               CPI     R16, 1
   \   000001A4   F069               BREQ    ??monitor1_rec_rs485_1_0
   4208            S2_RD;
   \   000001A6   9A40               SBI     0x08, 0x00
   \   000001A8   9841               CBI     0x08, 0x01
   4209            UDR0=buf_tx_232[0]; 
   \   000001AA   01FC               MOVW    R31:R30, R25:R24
   \   000001AC   8100               LD      R16, Z
   \   000001AE   930000C6           STS     198, R16
   4210            if(Regim==RG_DEBAG) UDR3=buf_tx_232[0];
   \   000001B2   9100....           LDS     R16, Regim
   \   000001B6   3001               CPI     R16, 1
   \   000001B8   F419               BRNE    ??monitor1_rec_rs485_1_0
   \   000001BA   8100               LD      R16, Z
   \   000001BC   93000136           STS     310, R16
   \                     ??monitor1_rec_rs485_1_0:
   \   000001C0   E0E4               LDI     R30, 4
   \   000001C2   ........           JMP     ?EPILOGUE_B4_L09
   4211            return;     
   4212            
   4213            }
   4214          
   4215          
   4216          ///EEEEEEEEEEEEEEEEEEEEEEEEEEEEEEEEEEEEEEEEEEEEEEEEEEEEEE!Đŕáîňŕ ń ďîđňîě RS485-1
   4217          
   4218          
   4219          
   4220          
   4221          ///!!!!!!!!!!!!!!!!!!!!!!!!!!!!!!!!!!!!!!!!!!!!!!!!!!Đŕáîňŕ ń ďîđňîě RS485-2
   4222          

   \                                 In segment CODE, align 2, keep-with-next
   4223          void monitor1_tx_rs485_2(void)
   \                     monitor1_tx_rs485_2:
   4224          {
   \   00000000   ........           CALL    ?PROLOGUE4_L09
   4225            unsigned int i;
   4226            if(fl_485_2.busy==1)return;
   \   00000004   ....               LDI     R30, LOW(fl_485_2)
   \   00000006   ....               LDI     R31, (fl_485_2) >> 8
   \   00000008   8100               LD      R16, Z
   \   0000000A   FD00               SBRC    R16, 0
   \   0000000C   C05D               RJMP    ??monitor1_tx_rs485_2_0
   4227            if((fl_485_2.tx==1)||(Appl_RS485_2.fl_data_buf==TRUE))
   \   0000000E   ....               LDI     R26, LOW(Appl_RS485_1)
   \   00000010   ....               LDI     R27, (Appl_RS485_1) >> 8
   \   00000012   8100               LD      R16, Z
   \   00000014   FD03               SBRC    R16, 3
   \   00000016   C005               RJMP    ??monitor1_tx_rs485_2_1
   \   00000018   01FD               MOVW    R31:R30, R27:R26
   \   0000001A   8903               LDD     R16, Z+19
   \   0000001C   3001               CPI     R16, 1
   \   0000001E   F009               BREQ    $+2+2
   \   00000020   C053               RJMP    ??monitor1_tx_rs485_2_0
   4228              {
   4229              if(fl_485_2.tx==1)fl_485_2.tx=0;
   \                     ??monitor1_tx_rs485_2_1:
   \   00000022   ....               LDI     R30, LOW(fl_485_2)
   \   00000024   ....               LDI     R31, (fl_485_2) >> 8
   \   00000026   8100               LD      R16, Z
   \   00000028   FF03               SBRS    R16, 3
   \   0000002A   C003               RJMP    ??monitor1_tx_rs485_2_2
   \   0000002C   8100               LD      R16, Z
   \   0000002E   7F07               ANDI    R16, 0xF7
   \   00000030   8300               ST      Z, R16
   4230              if(Appl_RS485_2.fl_data_buf==TRUE)Appl_RS485_2.fl_data_buf=FALSE;
   \                     ??monitor1_tx_rs485_2_2:
   \   00000032   01FD               MOVW    R31:R30, R27:R26
   \   00000034   8903               LDD     R16, Z+19
   \   00000036   3001               CPI     R16, 1
   \   00000038   F411               BRNE    ??monitor1_tx_rs485_2_3
   \   0000003A   E000               LDI     R16, 0
   \   0000003C   8B03               STD     Z+19, R16
   4231              fl_485_2.busy=1;
   \                     ??monitor1_tx_rs485_2_3:
   \   0000003E   ....               LDI     R30, LOW(fl_485_2)
   \   00000040   ....               LDI     R31, (fl_485_2) >> 8
   \   00000042   8100               LD      R16, Z
   \   00000044   6001               ORI     R16, 0x01
   \   00000046   8300               ST      Z, R16
   4232              fl_tx485.mon2=1;
   \   00000048   01FD               MOVW    R31:R30, R27:R26
   \   0000004A   AD02               LDD     R16, Z+58
   \   0000004C   6002               ORI     R16, 0x02
   \   0000004E   AF02               STD     Z+58, R16
   4233              Appl_RS485_2.dst_tek=Appl_RS485_2.dst_buf;
   \   00000050   8906               LDD     R16, Z+22
   \   00000052   8917               LDD     R17, Z+23
   \   00000054   A301               STD     Z+33, R16
   \   00000056   A312               STD     Z+34, R17
   4234              Appl_RS485_2.id_tek=Appl_RS485_2.id_buf;
   \   00000058   A100               LDD     R16, Z+32
   \   0000005A   A303               STD     Z+35, R16
   4235              Rs485_2.cnt_bt_rx_tx=Appl_RS485_2.ln_data_buf;
   \   0000005C   ....               LDI     R16, LOW(Rs485_2)
   \   0000005E   ....               LDI     R17, (Rs485_2) >> 8
   \   00000060   8924               LDD     R18, Z+20
   \   00000062   8935               LDD     R19, Z+21
   \   00000064   01F8               MOVW    R31:R30, R17:R16
   \   00000066   8320               ST      Z, R18
   \   00000068   8331               STD     Z+1, R19
   4236              for(i=0;i<Rs485_2.cnt_bt_rx_tx;i++)Rs485_2_buf_rx_tx[i]=Appl_RS485_2_data_buf[i];
   \   0000006A   E080               LDI     R24, 0
   \   0000006C   E090               LDI     R25, 0
   \   0000006E   C009               RJMP    ??monitor1_tx_rs485_2_4
   \                     ??monitor1_tx_rs485_2_5:
   \   00000070   01FC               MOVW    R31:R30, R25:R24
   \   00000072   ....               SUBI    R30, LOW((-(Appl_RS485_2_data_buf) & 0xFFFF))
   \   00000074   ....               SBCI    R31, (-(Appl_RS485_2_data_buf) & 0xFFFF) >> 8
   \   00000076   8120               LD      R18, Z
   \   00000078   01FC               MOVW    R31:R30, R25:R24
   \   0000007A   ....               SUBI    R30, LOW((-(Rs485_2_buf_rx_tx) & 0xFFFF))
   \   0000007C   ....               SBCI    R31, (-(Rs485_2_buf_rx_tx) & 0xFFFF) >> 8
   \   0000007E   8320               ST      Z, R18
   \   00000080   9601               ADIW    R25:R24, 1
   \                     ??monitor1_tx_rs485_2_4:
   \   00000082   01F8               MOVW    R31:R30, R17:R16
   \   00000084   8120               LD      R18, Z
   \   00000086   8131               LDD     R19, Z+1
   \   00000088   1782               CP      R24, R18
   \   0000008A   0793               CPC     R25, R19
   \   0000008C   F388               BRCS    ??monitor1_tx_rs485_2_5
   4237              Rs485_2.p_data485=&Rs485_2_buf_rx_tx[0];
   \   0000008E   ....               LDI     R18, LOW(Rs485_2_buf_rx_tx)
   \   00000090   ....               LDI     R19, (Rs485_2_buf_rx_tx) >> 8
   \   00000092   8B20               STD     Z+16, R18
   \   00000094   8B31               STD     Z+17, R19
   4238              //çäĺńü äîëćíŕ áűňü ôóíęöč˙ íŕńňđîéęč ďîđňŕ ďî ęîíňĺęńňó.
   4239              
   4240              if (run_cont_485_2(&Appl_RS485_2.cont_buf[0])==1)
   \   00000096   018D               MOVW    R17:R16, R27:R26
   \   00000098   5E08               SUBI    R16, 232
   \   0000009A   4F1F               SBCI    R17, 255
   \   0000009C   ........           CALL    run_cont_485_2
   \   000000A0   3001               CPI     R16, 1
   \   000000A2   F451               BRNE    ??monitor1_tx_rs485_2_6
   4241                 {
   4242                 fl_485_2.busy=0;
   \   000000A4   ....               LDI     R30, LOW(fl_485_2)
   \   000000A6   ....               LDI     R31, (fl_485_2) >> 8
   \   000000A8   8100               LD      R16, Z
   \   000000AA   7F0E               ANDI    R16, 0xFE
   \   000000AC   8300               ST      Z, R16
   4243                 fl_tx485.mon2=0;
   \   000000AE   01FD               MOVW    R31:R30, R27:R26
   \   000000B0   AD02               LDD     R16, Z+58
   \   000000B2   7F0D               ANDI    R16, 0xFD
   \   000000B4   AF02               STD     Z+58, R16
   4244                 return;
   \   000000B6   C008               RJMP    ??monitor1_tx_rs485_2_0
   4245                 }
   4246              S4_RD;    
   \                     ??monitor1_tx_rs485_2_6:
   \   000000B8   9A42               SBI     0x08, 0x02
   \   000000BA   9843               CBI     0x08, 0x03
   4247              UCSR1B=UCSR1B & ~(RXCIE | RXEN); 
   \   000000BC   910000C9           LDS     R16, 201
   \   000000C0   760F               ANDI    R16, 0x6F
   \   000000C2   930000C9           STS     201, R16
   4248              SET_RTS3;  //rts íŕ ďĺđĺäŕ÷ó
   \   000000C6   9A5C               SBI     0x0B, 0x04
   \                     ??monitor1_tx_rs485_2_0:
   \   000000C8   E0E4               LDI     R30, 4
   \   000000CA   ........           JMP     ?EPILOGUE_B4_L09
   4249               
   4250              }
   4251          }
   4252          
   4253          

   \                                 In segment CODE, align 2, keep-with-next
   4254          void monitor1_tm_rs485_2(void)
   \                     monitor1_tm_rs485_2:
   4255            {
   \   00000000   93BA               ST      -Y, R27
   \   00000002   93AA               ST      -Y, R26
   4256            if(fl_tx485.mon2==0)return;
   4257            if(fl_ip.act_ip_end!=1)return; 
   4258            if(fl_485_2.tm_out==0)return;
   \   00000004   ....               LDI     R26, LOW(Appl_RS485_1)
   \   00000006   ....               LDI     R27, (Appl_RS485_1) >> 8
   \   00000008   01FD               MOVW    R31:R30, R27:R26
   \   0000000A   AD02               LDD     R16, Z+58
   \   0000000C   FF01               SBRS    R16, 1
   \   0000000E   C027               RJMP    ??monitor1_tm_rs485_2_0
   \   00000010   ....               LDI     R30, LOW(fl_ip)
   \   00000012   ....               LDI     R31, (fl_ip) >> 8
   \   00000014   8100               LD      R16, Z
   \   00000016   FF00               SBRS    R16, 0
   \   00000018   C022               RJMP    ??monitor1_tm_rs485_2_0
   \   0000001A   ....               LDI     R30, LOW(fl_485_2)
   \   0000001C   ....               LDI     R31, (fl_485_2) >> 8
   \   0000001E   8100               LD      R16, Z
   \   00000020   FF02               SBRS    R16, 2
   \   00000022   C01D               RJMP    ??monitor1_tm_rs485_2_0
   4259             
   4260            // __disable_interrupt();
   4261            CLR_RTS3;
   \   00000024   985C               CBI     0x0B, 0x04
   4262            //__enable_interrupt();
   4263            
   4264            clr_cntr_nat();
   \   00000026   ........           CALL    clr_cntr_nat
   4265            clr_cntr_link();
   \   0000002A   ........           CALL    clr_cntr_link
   4266            
   4267            fl_485_2.tm_out=0; 
   \   0000002E   ....               LDI     R30, LOW(fl_485_2)
   \   00000030   ....               LDI     R31, (fl_485_2) >> 8
   \   00000032   8100               LD      R16, Z
   \   00000034   7F0B               ANDI    R16, 0xFB
   \   00000036   8300               ST      Z, R16
   4268            if(PINE & DCD0) send_err485(NUM_RS485_2,RS_NO_LINK,Appl_RS485_2.id_tek,Appl_RS485_2.dst_tek);// čăíîđčđîâŕňü ďĺđĺäŕ÷ó ĺńëč íĺň GPRS ęŕíŕëŕ
   \   00000038   9B66               SBIS    0x0C, 0x06
   \   0000003A   C008               RJMP    ??monitor1_tm_rs485_2_1
   \   0000003C   01FD               MOVW    R31:R30, R27:R26
   \   0000003E   A141               LDD     R20, Z+33
   \   00000040   A152               LDD     R21, Z+34
   \   00000042   A123               LDD     R18, Z+35
   \   00000044   E011               LDI     R17, 1
   \   00000046   E002               LDI     R16, 2
   \   00000048   ........           CALL    send_err485
   4269            fl_485_2.busy=0; 
   \                     ??monitor1_tm_rs485_2_1:
   \   0000004C   ....               LDI     R30, LOW(fl_485_2)
   \   0000004E   ....               LDI     R31, (fl_485_2) >> 8
   \   00000050   8100               LD      R16, Z
   \   00000052   7F0E               ANDI    R16, 0xFE
   \   00000054   8300               ST      Z, R16
   4270            fl_tx485.mon2=0;
   \   00000056   01FD               MOVW    R31:R30, R27:R26
   \   00000058   AD02               LDD     R16, Z+58
   \   0000005A   7F0D               ANDI    R16, 0xFD
   \   0000005C   AF02               STD     Z+58, R16
   4271            }
   \                     ??monitor1_tm_rs485_2_0:
   \   0000005E   91A9               LD      R26, Y+
   \   00000060   91B9               LD      R27, Y+
   \   00000062   9508               RET
   4272          
   4273          
   4274          

   \                                 In segment CODE, align 2, keep-with-next
   4275          void monitor1_rec_rs485_2(void)
   \                     monitor1_rec_rs485_2:
   4276            {
   \   00000000   ........           CALL    ?PROLOGUE4_L09
   4277            unsigned int i;
   4278            if(fl_tx485.mon2==0)return;
   4279            if(fl_ip.act_ip_end!=1)return; 
   4280            if(fl_485_2.rec==0)return;
   \   00000004   ....               LDI     R26, LOW(Appl_RS485_1)
   \   00000006   ....               LDI     R27, (Appl_RS485_1) >> 8
   \   00000008   01FD               MOVW    R31:R30, R27:R26
   \   0000000A   AD02               LDD     R16, Z+58
   \   0000000C   FF01               SBRS    R16, 1
   \   0000000E   C0D4               RJMP    ??monitor1_rec_rs485_2_0
   \   00000010   ....               LDI     R30, LOW(fl_ip)
   \   00000012   ....               LDI     R31, (fl_ip) >> 8
   \   00000014   8100               LD      R16, Z
   \   00000016   FF00               SBRS    R16, 0
   \   00000018   C0CF               RJMP    ??monitor1_rec_rs485_2_0
   \   0000001A   ....               LDI     R30, LOW(fl_485_2)
   \   0000001C   ....               LDI     R31, (fl_485_2) >> 8
   \   0000001E   8100               LD      R16, Z
   \   00000020   FF01               SBRS    R16, 1
   \   00000022   C0CA               RJMP    ??monitor1_rec_rs485_2_0
   4281          
   4282            fl_485_2.rec=0;
   \   00000024   8100               LD      R16, Z
   \   00000026   7F0D               ANDI    R16, 0xFD
   \   00000028   8300               ST      Z, R16
   4283            
   4284           // __disable_interrupt();
   4285            CLR_RTS3;
   \   0000002A   985C               CBI     0x0B, 0x04
   4286           // __enable_interrupt();
   4287            
   4288            clr_cntr_nat();
   \   0000002C   ........           CALL    clr_cntr_nat
   4289            clr_cntr_link();
   \   00000030   ........           CALL    clr_cntr_link
   4290            
   4291            
   4292            if((PINE & DCD0)==0)
   \   00000034   ....               LDI     R30, LOW(fl_485_2)
   \   00000036   ....               LDI     R31, (fl_485_2) >> 8
   \   00000038   8100               LD      R16, Z
   \   0000003A   9966               SBIC    0x0C, 0x06
   \   0000003C   C011               RJMP    ??monitor1_rec_rs485_2_1
   4293            {
   4294               fl_485_2.over=0;         // čăíîđčđîâŕňü ďĺđĺäŕ÷ó ĺńëč íĺň GPRS ęŕíŕëŕ
   \   0000003E   7E0F               ANDI    R16, 0xEF
   \   00000040   8300               ST      Z, R16
   4295               Rs485_2.cnt_bt_rx_tx=0;
   \                     ??monitor1_rec_rs485_2_2:
   \   00000042   E000               LDI     R16, 0
   \   00000044   ....               LDI     R30, LOW(Rs485_2)
   \   00000046   ....               LDI     R31, (Rs485_2) >> 8
   \   00000048   8300               ST      Z, R16
   \   0000004A   8301               STD     Z+1, R16
   4296               fl_485_2.busy=0;
   \   0000004C   ....               LDI     R30, LOW(fl_485_2)
   \   0000004E   ....               LDI     R31, (fl_485_2) >> 8
   \   00000050   8100               LD      R16, Z
   \   00000052   7F0E               ANDI    R16, 0xFE
   \   00000054   8300               ST      Z, R16
   4297               fl_tx485.mon2=0; 
   \   00000056   01FD               MOVW    R31:R30, R27:R26
   \   00000058   AD02               LDD     R16, Z+58
   \   0000005A   7F0D               ANDI    R16, 0xFD
   \   0000005C   AF02               STD     Z+58, R16
   4298               return; 
   \   0000005E   C0AC               RJMP    ??monitor1_rec_rs485_2_0
   4299            }
   4300            
   4301            
   4302            
   4303            if(fl_485_2.over==1)
   \                     ??monitor1_rec_rs485_2_1:
   \   00000060   FF04               SBRS    R16, 4
   \   00000062   C00C               RJMP    ??monitor1_rec_rs485_2_3
   4304               {
   4305               fl_485_2.over=0;
   \   00000064   8100               LD      R16, Z
   \   00000066   7E0F               ANDI    R16, 0xEF
   \   00000068   8300               ST      Z, R16
   4306               send_err485(NUM_RS485_2,RS_OVER_BUF_RX,Appl_RS485_2.id_tek,Appl_RS485_2.dst_tek);
   \   0000006A   01FD               MOVW    R31:R30, R27:R26
   \   0000006C   A141               LDD     R20, Z+33
   \   0000006E   A152               LDD     R21, Z+34
   \   00000070   A123               LDD     R18, Z+35
   \   00000072   E014               LDI     R17, 4
   \   00000074   E002               LDI     R16, 2
   \   00000076   ........           CALL    send_err485
   4307               Rs485_2.cnt_bt_rx_tx=0;
   \   0000007A   CFE3               RJMP    ??monitor1_rec_rs485_2_2
   4308               fl_485_2.busy=0;
   4309               fl_tx485.mon2=0; 
   4310               return; 
   4311               }
   4312              
   4313              //!!!!!!!!!!!!!! çäĺńü áű íŕäî ďđîâĺđę íŕ äëčíó áóôĺđŕ äë˙ PPP
   4314             if(Rs485_2.cnt_bt_rx_tx+100>VOL_TX_PPP)
   \                     ??monitor1_rec_rs485_2_3:
   \   0000007C   ....               LDI     R30, LOW(Rs485_2)
   \   0000007E   ....               LDI     R31, (Rs485_2) >> 8
   \   00000080   8100               LD      R16, Z
   \   00000082   8111               LDD     R17, Z+1
   \   00000084   590C               SUBI    R16, 156
   \   00000086   4F1F               SBCI    R17, 255
   \   00000088   340D               CPI     R16, 77
   \   0000008A   E024               LDI     R18, 4
   \   0000008C   0712               CPC     R17, R18
   \   0000008E   F0B8               BRCS    ??monitor1_rec_rs485_2_4
   4315                {
   4316                send_err485(NUM_RS485_2,RS_OVER_BUF_PPP_TX,Appl_RS485_2.id_tek,Appl_RS485_2.dst_tek);
   \   00000090   01FD               MOVW    R31:R30, R27:R26
   \   00000092   A141               LDD     R20, Z+33
   \   00000094   A152               LDD     R21, Z+34
   \   00000096   A123               LDD     R18, Z+35
   \   00000098   E017               LDI     R17, 7
   \   0000009A   E002               LDI     R16, 2
   \   0000009C   ........           CALL    send_err485
   4317                Rs485_2.cnt_bt_rx_tx=0;
   \   000000A0   E000               LDI     R16, 0
   \   000000A2   ....               LDI     R30, LOW(Rs485_2)
   \   000000A4   ....               LDI     R31, (Rs485_2) >> 8
   \   000000A6   8300               ST      Z, R16
   \   000000A8   8301               STD     Z+1, R16
   4318                fl_485_2.busy=0;
   \   000000AA   ....               LDI     R30, LOW(fl_485_2)
   \   000000AC   ....               LDI     R31, (fl_485_2) >> 8
   \   000000AE   8100               LD      R16, Z
   \   000000B0   7F0E               ANDI    R16, 0xFE
   \   000000B2   8300               ST      Z, R16
   4319                fl_tx485.mon2=0; 
   \   000000B4   01FD               MOVW    R31:R30, R27:R26
   \   000000B6   AD02               LDD     R16, Z+58
   \   000000B8   7F0D               ANDI    R16, 0xFD
   \   000000BA   AF02               STD     Z+58, R16
   4320                return; 
   \   000000BC   C07D               RJMP    ??monitor1_rec_rs485_2_0
   4321                }
   4322              
   4323            fl_ip.act_ip_end=0;
   \                     ??monitor1_rec_rs485_2_4:
   \   000000BE   ....               LDI     R30, LOW(fl_ip)
   \   000000C0   ....               LDI     R31, (fl_ip) >> 8
   \   000000C2   8100               LD      R16, Z
   \   000000C4   7F0E               ANDI    R16, 0xFE
   \   000000C6   8300               ST      Z, R16
   4324            
   4325            Obj_ppp_tx.prozr=FALSE;            
   \   000000C8   ....               LDI     R16, LOW(Obj_ppp_tx)
   \   000000CA   ....               LDI     R17, (Obj_ppp_tx) >> 8
   \   000000CC   E020               LDI     R18, 0
   \   000000CE   01F8               MOVW    R31:R30, R17:R16
   \   000000D0   8320               ST      Z, R18
   4326            Obj_ppp_tx.version=VER2;      //âĺđńč˙ 
   \   000000D2   E022               LDI     R18, 2
   \   000000D4   8321               STD     Z+1, R18
   4327            Obj_ppp_tx.type_pac=OTV;     //ňčď ďŕęĺňŕ
   \   000000D6   E021               LDI     R18, 1
   \   000000D8   8322               STD     Z+2, R18
   4328            Obj_ppp_tx.num_src=num_self; // íîěĺđ îňďđŕâčňĺë˙
   \   000000DA   ....               LDI     R30, LOW(Appl_seq)
   \   000000DC   ....               LDI     R31, (Appl_seq) >> 8
   \   000000DE   AD20               LDD     R18, Z+56
   \   000000E0   AD31               LDD     R19, Z+57
   \   000000E2   01F8               MOVW    R31:R30, R17:R16
   \   000000E4   8323               STD     Z+3, R18
   \   000000E6   8334               STD     Z+4, R19
   4329            Obj_ppp_tx.num_dst=Appl_RS485_2.dst_tek; // íîěĺđ ďîëó÷ŕňĺë˙
   \   000000E8   01FD               MOVW    R31:R30, R27:R26
   \   000000EA   A121               LDD     R18, Z+33
   \   000000EC   A132               LDD     R19, Z+34
   \   000000EE   01F8               MOVW    R31:R30, R17:R16
   \   000000F0   8325               STD     Z+5, R18
   \   000000F2   8336               STD     Z+6, R19
   4330            Obj_ppp_tx.id_pac=Appl_RS485_2.id_tek; // čäĺíňčôčęŕňîđ ďŕęĺňŕ  
   \   000000F4   01FD               MOVW    R31:R30, R27:R26
   \   000000F6   A123               LDD     R18, Z+35
   \   000000F8   01F8               MOVW    R31:R30, R17:R16
   \   000000FA   8327               STD     Z+7, R18
   4331            Obj_ppp_tx.p_opt=&buf_opt_tr[0]; // //óęŕçŕňĺëü áóôĺđŕ îďöčé  
   \   000000FC   ....               LDI     R18, LOW((Appl_RS232_2 + 19))
   \   000000FE   ....               LDI     R19, HIGH((Appl_RS232_2 + 19))
   \   00000100   8720               STD     Z+8, R18
   \   00000102   8731               STD     Z+9, R19
   4332            Obj_ppp_tx.l_opt=0;// äëčíŕ áóôĺđŕ îďöčé   
   \   00000104   E020               LDI     R18, 0
   \   00000106   8722               STD     Z+10, R18
   4333            Obj_ppp_tx.kol_opt=0;// ęîëč÷ĺńňâî îďöčé 
   \   00000108   8723               STD     Z+11, R18
   4334            
   4335          
   4336              buf_tx_232[TR_OP_DATA+C1_PROT]=PROT_C1;
   \   0000010A   ....               LDI     R24, LOW(buf_tx_232)
   \   0000010C   ....               LDI     R25, (buf_tx_232) >> 8
   \   0000010E   E021               LDI     R18, 1
   \   00000110   01FC               MOVW    R31:R30, R25:R24
   \   00000112   A722               STD     Z+42, R18
   4337              buf_tx_232[TR_OP_DATA+C1_PORT]=PORT485_2;
   \   00000114   E022               LDI     R18, 2
   \   00000116   A723               STD     Z+43, R18
   4338             
   4339             
   4340          
   4341              for(i=0;i<Rs485_2.cnt_bt_rx_tx;i++)buf_tx_232[TR_OP_DATA+C1_DATA+i]=Rs485_2_buf_rx_tx[i];
   \   00000118   E020               LDI     R18, 0
   \   0000011A   E030               LDI     R19, 0
   \   0000011C   C00A               RJMP    ??monitor1_rec_rs485_2_5
   \                     ??monitor1_rec_rs485_2_6:
   \   0000011E   01F9               MOVW    R31:R30, R19:R18
   \   00000120   ....               SUBI    R30, LOW((-(Rs485_2_buf_rx_tx) & 0xFFFF))
   \   00000122   ....               SBCI    R31, (-(Rs485_2_buf_rx_tx) & 0xFFFF) >> 8
   \   00000124   8140               LD      R20, Z
   \   00000126   01FC               MOVW    R31:R30, R25:R24
   \   00000128   0FE2               ADD     R30, R18
   \   0000012A   1FF3               ADC     R31, R19
   \   0000012C   A744               STD     Z+44, R20
   \   0000012E   5F2F               SUBI    R18, 255
   \   00000130   4F3F               SBCI    R19, 255
   \                     ??monitor1_rec_rs485_2_5:
   \   00000132   ....               LDI     R30, LOW(Rs485_2)
   \   00000134   ....               LDI     R31, (Rs485_2) >> 8
   \   00000136   8140               LD      R20, Z
   \   00000138   8151               LDD     R21, Z+1
   \   0000013A   1724               CP      R18, R20
   \   0000013C   0735               CPC     R19, R21
   \   0000013E   F378               BRCS    ??monitor1_rec_rs485_2_6
   4342              Obj_ppp_tx.l_data=2+Rs485_2.cnt_bt_rx_tx;   // äëčíŕ äŕííűő
   \   00000140   8120               LD      R18, Z
   \   00000142   8131               LDD     R19, Z+1
   \   00000144   5F2E               SUBI    R18, 254
   \   00000146   4F3F               SBCI    R19, 255
   \   00000148   01F8               MOVW    R31:R30, R17:R16
   \   0000014A   8726               STD     Z+14, R18
   \   0000014C   8737               STD     Z+15, R19
   4343              Obj_ppp_tx.p_data=&buf_tx_232[TR_OP_DATA+C1_PROT];  //óęŕçŕňĺëü áóôĺđŕ äŕííűő 
   \   0000014E   019C               MOVW    R19:R18, R25:R24
   \   00000150   5D26               SUBI    R18, 214
   \   00000152   4F3F               SBCI    R19, 255
   \   00000154   8724               STD     Z+12, R18
   \   00000156   8735               STD     Z+13, R19
   4344              Rs485_2.cnt_bt_rx_tx=0;
   \   00000158   E000               LDI     R16, 0
   \   0000015A   ....               LDI     R30, LOW(Rs485_2)
   \   0000015C   ....               LDI     R31, (Rs485_2) >> 8
   \   0000015E   8300               ST      Z, R16
   \   00000160   8301               STD     Z+1, R16
   4345              
   4346            form_buf_tx_ppp();                            
   \   00000162   ........           CALL    form_buf_tx_ppp
   4347            UCSR0A=UCSR0A | TXC;                            
   \   00000166   910000C0           LDS     R16, 192
   \   0000016A   6400               ORI     R16, 0x40
   \   0000016C   930000C0           STS     192, R16
   4348            UCSR0B=UCSR0B | TXEN;
   \   00000170   910000C1           LDS     R16, 193
   \   00000174   6008               ORI     R16, 0x08
   \   00000176   930000C1           STS     193, R16
   4349            UCSR0B=UCSR0B | TXCIE; 
   \   0000017A   910000C1           LDS     R16, 193
   \   0000017E   6400               ORI     R16, 0x40
   \   00000180   930000C1           STS     193, R16
   4350            fl_485_2.busy=0;
   \   00000184   ....               LDI     R30, LOW(fl_485_2)
   \   00000186   ....               LDI     R31, (fl_485_2) >> 8
   \   00000188   8100               LD      R16, Z
   \   0000018A   7F0E               ANDI    R16, 0xFE
   \   0000018C   8300               ST      Z, R16
   4351            fl_tx485.mon2=0;
   \   0000018E   01FD               MOVW    R31:R30, R27:R26
   \   00000190   AD02               LDD     R16, Z+58
   \   00000192   7F0D               ANDI    R16, 0xFD
   \   00000194   AF02               STD     Z+58, R16
   4352            if(check_cts()==1) return;                
   \   00000196   ........           CALL    check_cts
   \   0000019A   3001               CPI     R16, 1
   \   0000019C   F069               BREQ    ??monitor1_rec_rs485_2_0
   4353            S2_RD;
   \   0000019E   9A40               SBI     0x08, 0x00
   \   000001A0   9841               CBI     0x08, 0x01
   4354            UDR0=buf_tx_232[0]; 
   \   000001A2   01FC               MOVW    R31:R30, R25:R24
   \   000001A4   8100               LD      R16, Z
   \   000001A6   930000C6           STS     198, R16
   4355            if(Regim==RG_DEBAG) UDR3=buf_tx_232[0];
   \   000001AA   9100....           LDS     R16, Regim
   \   000001AE   3001               CPI     R16, 1
   \   000001B0   F419               BRNE    ??monitor1_rec_rs485_2_0
   \   000001B2   8100               LD      R16, Z
   \   000001B4   93000136           STS     310, R16
   \                     ??monitor1_rec_rs485_2_0:
   \   000001B8   E0E4               LDI     R30, 4
   \   000001BA   ........           JMP     ?EPILOGUE_B4_L09
   4356            return;     
   4357            
   4358            }
   4359          
   4360          
   4361          ///EEEEEEEEEEEEEEEEEEEEEEEEEEEEEEEEEEEEEEEEEEEEEEEEEEEEEE!Đŕáîňŕ ń ďîđňîě RS485-2
   4362          
   4363          
   4364          
   4365          
   4366          
   4367          
   4368          
   4369          ///!!!!!!!!!!!!!!!!!!!!!!!!!!!!!!!!!!!!!!!!!!!!!!!!!!Đŕáîňŕ ń ďîđňîě RS232-2
   4370          

   \                                 In segment CODE, align 2, keep-with-next
   4371          void monitor1_tx_rs232_2(void)
   \                     monitor1_tx_rs232_2:
   4372          {
   \   00000000   ........           CALL    ?PROLOGUE4_L09
   4373            unsigned int i;
   4374            if(fl_232_2.busy==1)return;
   \   00000004   ....               LDI     R30, LOW(fl_232_2)
   \   00000006   ....               LDI     R31, (fl_232_2) >> 8
   \   00000008   8100               LD      R16, Z
   \   0000000A   FD00               SBRC    R16, 0
   \   0000000C   C064               RJMP    ??monitor1_tx_rs232_2_0
   4375            if((fl_232_2.tx==1)||(Appl_RS232_2.fl_data_buf==TRUE))
   \   0000000E   ....               LDI     R16, LOW(Appl_RS232_2)
   \   00000010   ....               LDI     R17, (Appl_RS232_2) >> 8
   \   00000012   8120               LD      R18, Z
   \   00000014   FD23               SBRC    R18, 3
   \   00000016   C005               RJMP    ??monitor1_tx_rs232_2_1
   \   00000018   01F8               MOVW    R31:R30, R17:R16
   \   0000001A   8120               LD      R18, Z
   \   0000001C   3021               CPI     R18, 1
   \   0000001E   F009               BREQ    $+2+2
   \   00000020   C05A               RJMP    ??monitor1_tx_rs232_2_0
   4376              {
   4377              if(fl_232_2.tx==1)fl_232_2.tx=0;
   \                     ??monitor1_tx_rs232_2_1:
   \   00000022   ....               LDI     R30, LOW(fl_232_2)
   \   00000024   ....               LDI     R31, (fl_232_2) >> 8
   \   00000026   8120               LD      R18, Z
   \   00000028   FF23               SBRS    R18, 3
   \   0000002A   C003               RJMP    ??monitor1_tx_rs232_2_2
   \   0000002C   8120               LD      R18, Z
   \   0000002E   7F27               ANDI    R18, 0xF7
   \   00000030   8320               ST      Z, R18
   4378              if(Appl_RS232_2.fl_data_buf==TRUE)Appl_RS232_2.fl_data_buf=FALSE;
   \                     ??monitor1_tx_rs232_2_2:
   \   00000032   01F8               MOVW    R31:R30, R17:R16
   \   00000034   8120               LD      R18, Z
   \   00000036   3021               CPI     R18, 1
   \   00000038   F411               BRNE    ??monitor1_tx_rs232_2_3
   \   0000003A   E020               LDI     R18, 0
   \   0000003C   8320               ST      Z, R18
   4379              fl_232_2.busy=1;
   \                     ??monitor1_tx_rs232_2_3:
   \   0000003E   ....               LDI     R30, LOW(fl_232_2)
   \   00000040   ....               LDI     R31, (fl_232_2) >> 8
   \   00000042   8120               LD      R18, Z
   \   00000044   6021               ORI     R18, 0x01
   \   00000046   8320               ST      Z, R18
   4380              fl_tx485.mon232_2=1;
   \   00000048   ....               LDI     R30, LOW(Appl_RS485_1)
   \   0000004A   ....               LDI     R31, (Appl_RS485_1) >> 8
   \   0000004C   AD22               LDD     R18, Z+58
   \   0000004E   6024               ORI     R18, 0x04
   \   00000050   AF22               STD     Z+58, R18
   4381              Appl_RS232_2.dst_tek=Appl_RS232_2.dst_buf;
   \   00000052   01F8               MOVW    R31:R30, R17:R16
   \   00000054   8123               LDD     R18, Z+3
   \   00000056   8134               LDD     R19, Z+4
   \   00000058   8726               STD     Z+14, R18
   \   0000005A   8737               STD     Z+15, R19
   4382              Appl_RS232_2.id_tek=Appl_RS232_2.id_buf;
   \   0000005C   8525               LDD     R18, Z+13
   \   0000005E   8B20               STD     Z+16, R18
   4383              Rs232_2.cnt_bt_rx_tx=Appl_RS232_2.ln_data_buf;
   \   00000060   ....               LDI     R26, LOW(Rs232_2)
   \   00000062   ....               LDI     R27, (Rs232_2) >> 8
   \   00000064   8121               LDD     R18, Z+1
   \   00000066   8132               LDD     R19, Z+2
   \   00000068   932D               ST      X+, R18
   \   0000006A   933C               ST      X, R19
   \   0000006C   9711               SBIW    R27:R26, 1
   4384              for(i=0;i<Rs232_2.cnt_bt_rx_tx;i++)Rs232_2_buf_rx_tx[i]=Appl_RS232_2_data_buf[i];
   \   0000006E   E080               LDI     R24, 0
   \   00000070   E090               LDI     R25, 0
   \   00000072   C009               RJMP    ??monitor1_tx_rs232_2_4
   \                     ??monitor1_tx_rs232_2_5:
   \   00000074   01FC               MOVW    R31:R30, R25:R24
   \   00000076   ....               SUBI    R30, LOW((-(Appl_RS232_2_data_buf) & 0xFFFF))
   \   00000078   ....               SBCI    R31, (-(Appl_RS232_2_data_buf) & 0xFFFF) >> 8
   \   0000007A   8120               LD      R18, Z
   \   0000007C   01FC               MOVW    R31:R30, R25:R24
   \   0000007E   ....               SUBI    R30, LOW((-(Rs232_2_buf_rx_tx) & 0xFFFF))
   \   00000080   ....               SBCI    R31, (-(Rs232_2_buf_rx_tx) & 0xFFFF) >> 8
   \   00000082   8320               ST      Z, R18
   \   00000084   9601               ADIW    R25:R24, 1
   \                     ??monitor1_tx_rs232_2_4:
   \   00000086   912D               LD      R18, X+
   \   00000088   913C               LD      R19, X
   \   0000008A   9711               SBIW    R27:R26, 1
   \   0000008C   1782               CP      R24, R18
   \   0000008E   0793               CPC     R25, R19
   \   00000090   F388               BRCS    ??monitor1_tx_rs232_2_5
   4385              Rs232_2.p_data485=&Rs232_2_buf_rx_tx[0];
   \   00000092   ....               LDI     R18, LOW(Rs232_2_buf_rx_tx)
   \   00000094   ....               LDI     R19, (Rs232_2_buf_rx_tx) >> 8
   \   00000096   01FD               MOVW    R31:R30, R27:R26
   \   00000098   8B20               STD     Z+16, R18
   \   0000009A   8B31               STD     Z+17, R19
   4386              //çäĺńü äîëćíŕ áűňü ôóíęöč˙ íŕńňđîéęč ďîđňŕ ďî ęîíňĺęńňó.
   4387              
   4388              if (run_cont_232_2(&Appl_RS232_2.cont_buf[0])==1)
   \   0000009C   5F0B               SUBI    R16, 251
   \   0000009E   4F1F               SBCI    R17, 255
   \   000000A0   ........           CALL    run_cont_232_2
   \   000000A4   3001               CPI     R16, 1
   \   000000A6   F459               BRNE    ??monitor1_tx_rs232_2_6
   4389                 {
   4390                 fl_232_2.busy=0;
   \   000000A8   ....               LDI     R30, LOW(fl_232_2)
   \   000000AA   ....               LDI     R31, (fl_232_2) >> 8
   \   000000AC   8100               LD      R16, Z
   \   000000AE   7F0E               ANDI    R16, 0xFE
   \   000000B0   8300               ST      Z, R16
   4391                 fl_tx485.mon232_2=0;
   \   000000B2   ....               LDI     R30, LOW(Appl_RS485_1)
   \   000000B4   ....               LDI     R31, (Appl_RS485_1) >> 8
   \   000000B6   AD02               LDD     R16, Z+58
   \   000000B8   7F0B               ANDI    R16, 0xFB
   \   000000BA   AF02               STD     Z+58, R16
   4392                 return;
   \   000000BC   C00C               RJMP    ??monitor1_tx_rs232_2_0
   4393                 }
   4394               
   4395              S5_RD; 
   \                     ??monitor1_tx_rs232_2_6:
   \   000000BE   9A46               SBI     0x08, 0x06
   \   000000C0   9847               CBI     0x08, 0x07
   4396              UCSR1B=UCSR1B & ~(RXCIE | RXEN); 
   \   000000C2   910000C9           LDS     R16, 201
   \   000000C6   760F               ANDI    R16, 0x6F
   \   000000C8   930000C9           STS     201, R16
   4397              SET_RTS2;  //rts íŕ ďĺđĺäŕ÷ó
   \   000000CC   91000102           LDS     R16, 258
   \   000000D0   7F0B               ANDI    R16, 0xFB
   \   000000D2   93000102           STS     258, R16
   \                     ??monitor1_tx_rs232_2_0:
   \   000000D6   E0E4               LDI     R30, 4
   \   000000D8   ........           JMP     ?EPILOGUE_B4_L09
   4398               
   4399              }
   4400          }
   4401          
   4402          

   \                                 In segment CODE, align 2, keep-with-next
   4403          void monitor1_tm_rs232_2(void)
   \                     monitor1_tm_rs232_2:
   4404            {
   4405            if(fl_tx485.mon232_2==0)return;
   4406            if(fl_ip.act_ip_end!=1)return; 
   4407            if(fl_232_2.tm_out==0)return;
   \   00000000   ....               LDI     R30, LOW(Appl_RS485_1)
   \   00000002   ....               LDI     R31, (Appl_RS485_1) >> 8
   \   00000004   AD02               LDD     R16, Z+58
   \   00000006   FF02               SBRS    R16, 2
   \   00000008   C02D               RJMP    ??monitor1_tm_rs232_2_0
   \   0000000A   ....               LDI     R30, LOW(fl_ip)
   \   0000000C   ....               LDI     R31, (fl_ip) >> 8
   \   0000000E   8100               LD      R16, Z
   \   00000010   FF00               SBRS    R16, 0
   \   00000012   C028               RJMP    ??monitor1_tm_rs232_2_0
   \   00000014   ....               LDI     R30, LOW(fl_232_2)
   \   00000016   ....               LDI     R31, (fl_232_2) >> 8
   \   00000018   8100               LD      R16, Z
   \   0000001A   FF02               SBRS    R16, 2
   \   0000001C   C023               RJMP    ??monitor1_tm_rs232_2_0
   4408             
   4409            // __disable_interrupt();
   4410            CLR_RTS2;
   \   0000001E   91000102           LDS     R16, 258
   \   00000022   6004               ORI     R16, 0x04
   \   00000024   93000102           STS     258, R16
   4411            //__enable_interrupt();
   4412            
   4413            clr_cntr_nat();
   \   00000028   ........           CALL    clr_cntr_nat
   4414            clr_cntr_link();
   \   0000002C   ........           CALL    clr_cntr_link
   4415            
   4416            fl_232_2.tm_out=0; 
   \   00000030   ....               LDI     R30, LOW(fl_232_2)
   \   00000032   ....               LDI     R31, (fl_232_2) >> 8
   \   00000034   8100               LD      R16, Z
   \   00000036   7F0B               ANDI    R16, 0xFB
   \   00000038   8300               ST      Z, R16
   4417            if(PINE & DCD0) send_err485(NUM_RS232_2,RS_NO_LINK,Appl_RS232_2.id_tek,Appl_RS232_2.dst_tek);// čăíîđčđîâŕňü ďĺđĺäŕ÷ó ĺńëč íĺň GPRS ęŕíŕëŕ
   \   0000003A   9B66               SBIS    0x0C, 0x06
   \   0000003C   C009               RJMP    ??monitor1_tm_rs232_2_1
   \   0000003E   ....               LDI     R30, LOW(Appl_RS232_2)
   \   00000040   ....               LDI     R31, (Appl_RS232_2) >> 8
   \   00000042   8546               LDD     R20, Z+14
   \   00000044   8557               LDD     R21, Z+15
   \   00000046   8920               LDD     R18, Z+16
   \   00000048   E011               LDI     R17, 1
   \   0000004A   E003               LDI     R16, 3
   \   0000004C   ........           CALL    send_err485
   4418            fl_232_2.busy=0; 
   \                     ??monitor1_tm_rs232_2_1:
   \   00000050   ....               LDI     R30, LOW(fl_232_2)
   \   00000052   ....               LDI     R31, (fl_232_2) >> 8
   \   00000054   8100               LD      R16, Z
   \   00000056   7F0E               ANDI    R16, 0xFE
   \   00000058   8300               ST      Z, R16
   4419            fl_tx485.mon232_2=0;
   \   0000005A   ....               LDI     R30, LOW(Appl_RS485_1)
   \   0000005C   ....               LDI     R31, (Appl_RS485_1) >> 8
   \   0000005E   AD02               LDD     R16, Z+58
   \   00000060   7F0B               ANDI    R16, 0xFB
   \   00000062   AF02               STD     Z+58, R16
   4420            }
   \                     ??monitor1_tm_rs232_2_0:
   \   00000064   9508               RET
   4421          
   4422          
   4423          

   \                                 In segment CODE, align 2, keep-with-next
   4424          void monitor1_rec_rs232_2(void)
   \                     monitor1_rec_rs232_2:
   4425            {
   \   00000000   ........           CALL    ?PROLOGUE4_L09
   4426            unsigned int i;
   4427            if(fl_tx485.mon232_2==0)return;
   4428            if(fl_ip.act_ip_end!=1)return; 
   4429            if(fl_232_2.rec==0)return;
   \   00000004   ....               LDI     R30, LOW(Appl_RS485_1)
   \   00000006   ....               LDI     R31, (Appl_RS485_1) >> 8
   \   00000008   AD02               LDD     R16, Z+58
   \   0000000A   FF02               SBRS    R16, 2
   \   0000000C   C0E3               RJMP    ??monitor1_rec_rs232_2_0
   \   0000000E   ....               LDI     R30, LOW(fl_ip)
   \   00000010   ....               LDI     R31, (fl_ip) >> 8
   \   00000012   8100               LD      R16, Z
   \   00000014   FF00               SBRS    R16, 0
   \   00000016   C0DE               RJMP    ??monitor1_rec_rs232_2_0
   \   00000018   ....               LDI     R30, LOW(fl_232_2)
   \   0000001A   ....               LDI     R31, (fl_232_2) >> 8
   \   0000001C   8100               LD      R16, Z
   \   0000001E   FF01               SBRS    R16, 1
   \   00000020   C0D9               RJMP    ??monitor1_rec_rs232_2_0
   4430          
   4431            fl_232_2.rec=0;
   \   00000022   8100               LD      R16, Z
   \   00000024   7F0D               ANDI    R16, 0xFD
   \   00000026   8300               ST      Z, R16
   4432            
   4433           // __disable_interrupt();
   4434            CLR_RTS2;
   \   00000028   91000102           LDS     R16, 258
   \   0000002C   6004               ORI     R16, 0x04
   \   0000002E   93000102           STS     258, R16
   4435           // __enable_interrupt();
   4436            
   4437            clr_cntr_nat();
   \   00000032   ........           CALL    clr_cntr_nat
   4438            clr_cntr_link();
   \   00000036   ........           CALL    clr_cntr_link
   4439            
   4440            
   4441            if((PINE & DCD0)==0)
   \   0000003A   9966               SBIC    0x0C, 0x06
   \   0000003C   C015               RJMP    ??monitor1_rec_rs232_2_1
   4442            {
   4443               fl_232_2.over=0;         // čăíîđčđîâŕňü ďĺđĺäŕ÷ó ĺńëč íĺň GPRS ęŕíŕëŕ
   \   0000003E   ....               LDI     R30, LOW(fl_232_2)
   \   00000040   ....               LDI     R31, (fl_232_2) >> 8
   \   00000042   8100               LD      R16, Z
   \   00000044   7E0F               ANDI    R16, 0xEF
   \   00000046   8300               ST      Z, R16
   4444               Rs232_2.cnt_bt_rx_tx=0;
   \                     ??monitor1_rec_rs232_2_2:
   \   00000048   E000               LDI     R16, 0
   \   0000004A   ....               LDI     R30, LOW(Rs232_2)
   \   0000004C   ....               LDI     R31, (Rs232_2) >> 8
   \   0000004E   8300               ST      Z, R16
   \   00000050   8301               STD     Z+1, R16
   4445               fl_232_2.busy=0;
   \   00000052   ....               LDI     R30, LOW(fl_232_2)
   \   00000054   ....               LDI     R31, (fl_232_2) >> 8
   \   00000056   8100               LD      R16, Z
   \   00000058   7F0E               ANDI    R16, 0xFE
   \   0000005A   8300               ST      Z, R16
   4446               fl_tx485.mon232_2=0; 
   \   0000005C   ....               LDI     R30, LOW(Appl_RS485_1)
   \   0000005E   ....               LDI     R31, (Appl_RS485_1) >> 8
   \   00000060   AD02               LDD     R16, Z+58
   \   00000062   7F0B               ANDI    R16, 0xFB
   \   00000064   AF02               STD     Z+58, R16
   4447               return; 
   \   00000066   C0B6               RJMP    ??monitor1_rec_rs232_2_0
   4448            }
   4449            
   4450            
   4451            
   4452            if(fl_232_2.over==1)
   \                     ??monitor1_rec_rs232_2_1:
   \   00000068   ....               LDI     R16, LOW(Appl_RS232_2)
   \   0000006A   ....               LDI     R17, (Appl_RS232_2) >> 8
   \   0000006C   ....               LDI     R30, LOW(fl_232_2)
   \   0000006E   ....               LDI     R31, (fl_232_2) >> 8
   \   00000070   8120               LD      R18, Z
   \   00000072   FF24               SBRS    R18, 4
   \   00000074   C00C               RJMP    ??monitor1_rec_rs232_2_3
   4453               {
   4454               fl_232_2.over=0;
   \   00000076   8120               LD      R18, Z
   \   00000078   7E2F               ANDI    R18, 0xEF
   \   0000007A   8320               ST      Z, R18
   4455               send_err485(NUM_RS232_2,RS_OVER_BUF_RX,Appl_RS232_2.id_tek,Appl_RS232_2.dst_tek);
   \   0000007C   01F8               MOVW    R31:R30, R17:R16
   \   0000007E   8546               LDD     R20, Z+14
   \   00000080   8557               LDD     R21, Z+15
   \   00000082   8920               LDD     R18, Z+16
   \   00000084   E014               LDI     R17, 4
   \   00000086   E003               LDI     R16, 3
   \   00000088   ........           CALL    send_err485
   4456               Rs232_2.cnt_bt_rx_tx=0;
   \   0000008C   CFDD               RJMP    ??monitor1_rec_rs232_2_2
   4457               fl_232_2.busy=0;
   4458               fl_tx485.mon232_2=0; 
   4459               return; 
   4460               }
   4461              
   4462              //!!!!!!!!!!!!!! çäĺńü áű íŕäî ďđîâĺđę íŕ äëčíó áóôĺđŕ äë˙ PPP
   4463             if(Rs232_2.cnt_bt_rx_tx+100>VOL_TX_PPP)
   \                     ??monitor1_rec_rs232_2_3:
   \   0000008E   ....               LDI     R30, LOW(Rs232_2)
   \   00000090   ....               LDI     R31, (Rs232_2) >> 8
   \   00000092   8120               LD      R18, Z
   \   00000094   8131               LDD     R19, Z+1
   \   00000096   592C               SUBI    R18, 156
   \   00000098   4F3F               SBCI    R19, 255
   \   0000009A   342D               CPI     R18, 77
   \   0000009C   E044               LDI     R20, 4
   \   0000009E   0734               CPC     R19, R20
   \   000000A0   F0C0               BRCS    ??monitor1_rec_rs232_2_4
   4464                {
   4465                send_err485(NUM_RS232_2,RS_OVER_BUF_PPP_TX,Appl_RS232_2.id_tek,Appl_RS232_2.dst_tek);
   \   000000A2   01F8               MOVW    R31:R30, R17:R16
   \   000000A4   8546               LDD     R20, Z+14
   \   000000A6   8557               LDD     R21, Z+15
   \   000000A8   8920               LDD     R18, Z+16
   \   000000AA   E017               LDI     R17, 7
   \   000000AC   E003               LDI     R16, 3
   \   000000AE   ........           CALL    send_err485
   4466                Rs232_2.cnt_bt_rx_tx=0;
   \   000000B2   E000               LDI     R16, 0
   \   000000B4   ....               LDI     R30, LOW(Rs232_2)
   \   000000B6   ....               LDI     R31, (Rs232_2) >> 8
   \   000000B8   8300               ST      Z, R16
   \   000000BA   8301               STD     Z+1, R16
   4467                fl_232_2.busy=0;
   \   000000BC   ....               LDI     R30, LOW(fl_232_2)
   \   000000BE   ....               LDI     R31, (fl_232_2) >> 8
   \   000000C0   8100               LD      R16, Z
   \   000000C2   7F0E               ANDI    R16, 0xFE
   \   000000C4   8300               ST      Z, R16
   4468                fl_tx485.mon232_2=0; 
   \   000000C6   ....               LDI     R30, LOW(Appl_RS485_1)
   \   000000C8   ....               LDI     R31, (Appl_RS485_1) >> 8
   \   000000CA   AD02               LDD     R16, Z+58
   \   000000CC   7F0B               ANDI    R16, 0xFB
   \   000000CE   AF02               STD     Z+58, R16
   4469                return; 
   \   000000D0   C081               RJMP    ??monitor1_rec_rs232_2_0
   4470                }
   4471              
   4472            fl_ip.act_ip_end=0;
   \                     ??monitor1_rec_rs232_2_4:
   \   000000D2   ....               LDI     R30, LOW(fl_ip)
   \   000000D4   ....               LDI     R31, (fl_ip) >> 8
   \   000000D6   8120               LD      R18, Z
   \   000000D8   7F2E               ANDI    R18, 0xFE
   \   000000DA   8320               ST      Z, R18
   4473            
   4474            Obj_ppp_tx.prozr=FALSE;            
   \   000000DC   ....               LDI     R30, LOW(Obj_ppp_tx)
   \   000000DE   ....               LDI     R31, (Obj_ppp_tx) >> 8
   \   000000E0   E020               LDI     R18, 0
   \   000000E2   8320               ST      Z, R18
   4475            Obj_ppp_tx.version=VER2;      //âĺđńč˙ 
   \   000000E4   E022               LDI     R18, 2
   \   000000E6   8321               STD     Z+1, R18
   4476            Obj_ppp_tx.type_pac=OTV;     //ňčď ďŕęĺňŕ
   \   000000E8   E021               LDI     R18, 1
   \   000000EA   8322               STD     Z+2, R18
   4477            Obj_ppp_tx.num_src=num_self; // íîěĺđ îňďđŕâčňĺë˙
   \   000000EC   ....               LDI     R26, LOW((Appl_seq + 56))
   \   000000EE   ....               LDI     R27, HIGH((Appl_seq + 56))
   \   000000F0   912D               LD      R18, X+
   \   000000F2   913C               LD      R19, X
   \   000000F4   8323               STD     Z+3, R18
   \   000000F6   8334               STD     Z+4, R19
   4478            Obj_ppp_tx.num_dst=Appl_RS232_2.dst_tek; // íîěĺđ ďîëó÷ŕňĺë˙
   \   000000F8   01D8               MOVW    R27:R26, R17:R16
   \   000000FA   961E               ADIW    R27:R26, 14
   \   000000FC   912D               LD      R18, X+
   \   000000FE   913C               LD      R19, X
   \   00000100   8325               STD     Z+5, R18
   \   00000102   8336               STD     Z+6, R19
   4479            Obj_ppp_tx.id_pac=Appl_RS232_2.id_tek; // čäĺíňčôčęŕňîđ ďŕęĺňŕ  
   \   00000104   01D8               MOVW    R27:R26, R17:R16
   \   00000106   9650               ADIW    R27:R26, 16
   \   00000108   912C               LD      R18, X
   \   0000010A   8327               STD     Z+7, R18
   4480            Obj_ppp_tx.p_opt=&buf_opt_tr[0]; // //óęŕçŕňĺëü áóôĺđŕ îďöčé  
   \   0000010C   5E0D               SUBI    R16, 237
   \   0000010E   4F1F               SBCI    R17, 255
   \   00000110   8700               STD     Z+8, R16
   \   00000112   8711               STD     Z+9, R17
   4481            Obj_ppp_tx.l_opt=0;// äëčíŕ áóôĺđŕ îďöčé   
   \   00000114   E000               LDI     R16, 0
   \   00000116   8702               STD     Z+10, R16
   4482            Obj_ppp_tx.kol_opt=0;// ęîëč÷ĺńňâî îďöčé 
   \   00000118   8703               STD     Z+11, R16
   4483            
   4484          
   4485              buf_tx_232[TR_OP_DATA+C1_PROT]=PROT_C1;
   \   0000011A   ....               LDI     R24, LOW(buf_tx_232)
   \   0000011C   ....               LDI     R25, (buf_tx_232) >> 8
   \   0000011E   E001               LDI     R16, 1
   \   00000120   01DC               MOVW    R27:R26, R25:R24
   \   00000122   969A               ADIW    R27:R26, 42
   \   00000124   930C               ST      X, R16
   4486              buf_tx_232[TR_OP_DATA+C1_PORT]=PORT232_2;
   \   00000126   E003               LDI     R16, 3
   \   00000128   01DC               MOVW    R27:R26, R25:R24
   \   0000012A   969B               ADIW    R27:R26, 43
   \   0000012C   930C               ST      X, R16
   4487             
   4488             
   4489          
   4490              for(i=0;i<Rs232_2.cnt_bt_rx_tx;i++)buf_tx_232[TR_OP_DATA+C1_DATA+i]=Rs232_2_buf_rx_tx[i];
   \   0000012E   E000               LDI     R16, 0
   \   00000130   E010               LDI     R17, 0
   \   00000132   C00B               RJMP    ??monitor1_rec_rs232_2_5
   \                     ??monitor1_rec_rs232_2_6:
   \   00000134   01D8               MOVW    R27:R26, R17:R16
   \   00000136   ....               SUBI    R26, LOW((-(Rs232_2_buf_rx_tx) & 0xFFFF))
   \   00000138   ....               SBCI    R27, (-(Rs232_2_buf_rx_tx) & 0xFFFF) >> 8
   \   0000013A   912C               LD      R18, X
   \   0000013C   01DC               MOVW    R27:R26, R25:R24
   \   0000013E   0FA0               ADD     R26, R16
   \   00000140   1FB1               ADC     R27, R17
   \   00000142   969C               ADIW    R27:R26, 44
   \   00000144   932C               ST      X, R18
   \   00000146   5F0F               SUBI    R16, 255
   \   00000148   4F1F               SBCI    R17, 255
   \                     ??monitor1_rec_rs232_2_5:
   \   0000014A   ....               LDI     R26, LOW(Rs232_2)
   \   0000014C   ....               LDI     R27, (Rs232_2) >> 8
   \   0000014E   912D               LD      R18, X+
   \   00000150   913C               LD      R19, X
   \   00000152   1702               CP      R16, R18
   \   00000154   0713               CPC     R17, R19
   \   00000156   F370               BRCS    ??monitor1_rec_rs232_2_6
   4491              Obj_ppp_tx.l_data=2+Rs232_2.cnt_bt_rx_tx;   // äëčíŕ äŕííűő
   \   00000158   ....               LDI     R26, LOW(Rs232_2)
   \   0000015A   ....               LDI     R27, (Rs232_2) >> 8
   \   0000015C   910D               LD      R16, X+
   \   0000015E   911C               LD      R17, X
   \   00000160   5F0E               SUBI    R16, 254
   \   00000162   4F1F               SBCI    R17, 255
   \   00000164   8706               STD     Z+14, R16
   \   00000166   8717               STD     Z+15, R17
   4492              Obj_ppp_tx.p_data=&buf_tx_232[TR_OP_DATA+C1_PROT];  //óęŕçŕňĺëü áóôĺđŕ äŕííűő 
   \   00000168   018C               MOVW    R17:R16, R25:R24
   \   0000016A   5D06               SUBI    R16, 214
   \   0000016C   4F1F               SBCI    R17, 255
   \   0000016E   8704               STD     Z+12, R16
   \   00000170   8715               STD     Z+13, R17
   4493              Rs232_2.cnt_bt_rx_tx=0;
   \   00000172   E000               LDI     R16, 0
   \   00000174   ....               LDI     R30, LOW(Rs232_2)
   \   00000176   ....               LDI     R31, (Rs232_2) >> 8
   \   00000178   8300               ST      Z, R16
   \   0000017A   8301               STD     Z+1, R16
   4494              
   4495            form_buf_tx_ppp();                            
   \   0000017C   ........           CALL    form_buf_tx_ppp
   4496            UCSR0A=UCSR0A | TXC;                            
   \   00000180   910000C0           LDS     R16, 192
   \   00000184   6400               ORI     R16, 0x40
   \   00000186   930000C0           STS     192, R16
   4497            UCSR0B=UCSR0B | TXEN;
   \   0000018A   910000C1           LDS     R16, 193
   \   0000018E   6008               ORI     R16, 0x08
   \   00000190   930000C1           STS     193, R16
   4498            UCSR0B=UCSR0B | TXCIE; 
   \   00000194   910000C1           LDS     R16, 193
   \   00000198   6400               ORI     R16, 0x40
   \   0000019A   930000C1           STS     193, R16
   4499            fl_232_2.busy=0;
   \   0000019E   ....               LDI     R30, LOW(fl_232_2)
   \   000001A0   ....               LDI     R31, (fl_232_2) >> 8
   \   000001A2   8100               LD      R16, Z
   \   000001A4   7F0E               ANDI    R16, 0xFE
   \   000001A6   8300               ST      Z, R16
   4500            fl_tx485.mon232_2=0;
   \   000001A8   ....               LDI     R30, LOW(Appl_RS485_1)
   \   000001AA   ....               LDI     R31, (Appl_RS485_1) >> 8
   \   000001AC   AD02               LDD     R16, Z+58
   \   000001AE   7F0B               ANDI    R16, 0xFB
   \   000001B0   AF02               STD     Z+58, R16
   4501            if(check_cts()==1) return;                
   \   000001B2   ........           CALL    check_cts
   \   000001B6   3001               CPI     R16, 1
   \   000001B8   F069               BREQ    ??monitor1_rec_rs232_2_0
   4502            S2_RD;
   \   000001BA   9A40               SBI     0x08, 0x00
   \   000001BC   9841               CBI     0x08, 0x01
   4503            UDR0=buf_tx_232[0]; 
   \   000001BE   01FC               MOVW    R31:R30, R25:R24
   \   000001C0   8100               LD      R16, Z
   \   000001C2   930000C6           STS     198, R16
   4504            if(Regim==RG_DEBAG) UDR3=buf_tx_232[0];
   \   000001C6   9100....           LDS     R16, Regim
   \   000001CA   3001               CPI     R16, 1
   \   000001CC   F419               BRNE    ??monitor1_rec_rs232_2_0
   \   000001CE   8100               LD      R16, Z
   \   000001D0   93000136           STS     310, R16
   \                     ??monitor1_rec_rs232_2_0:
   \   000001D4   E0E4               LDI     R30, 4
   \   000001D6   ........           JMP     ?EPILOGUE_B4_L09
   4505            return;     
   4506            
   4507            }
   4508          
   4509          
   4510          ///EEEEEEEEEEEEEEEEEEEEEEEEEEEEEEEEEEEEEEEEEEEEEEEEEEEEEE!Đŕáîňŕ ń ďîđňîě RS232-2

   \                                 In segment CODE, align 2, keep-with-next
   4511          void control_temperatura(void)
   \                     control_temperatura:
   4512          {
   4513          
   4514            if(temperatura>T_MINUS10)SET_TEN;
   \   00000000   ....               LDI     R30, LOW(temperatura)
   \   00000002   ....               LDI     R31, (temperatura) >> 8
   \   00000004   8100               LD      R16, Z
   \   00000006   8111               LDD     R17, Z+1
   \   00000008   3E0D               CPI     R16, 237
   \   0000000A   E022               LDI     R18, 2
   \   0000000C   0712               CPC     R17, R18
   \   0000000E   F028               BRCS    ??control_temperatura_0
   \   00000010   91000105           LDS     R16, 261
   \   00000014   6008               ORI     R16, 0x08
   \   00000016   93000105           STS     261, R16
   4515            if(temperatura<T_MINUS5)CLR_TEN;
   \                     ??control_temperatura_0:
   \   0000001A   8100               LD      R16, Z
   \   0000001C   8111               LDD     R17, Z+1
   \   0000001E   3C01               CPI     R16, 193
   \   00000020   0712               CPC     R17, R18
   \   00000022   F428               BRCC    ??control_temperatura_1
   \   00000024   91000105           LDS     R16, 261
   \   00000028   7F07               ANDI    R16, 0xF7
   \   0000002A   93000105           STS     261, R16
   4516          
   4517          }
   \                     ??control_temperatura_1:
   \   0000002E   9508               RET
   4518          

   \                                 In segment CODE, align 2, keep-with-next
   4519          void send_info(char size,char __flash *p,unsigned char fl_id,unsigned char id)
   \                     send_info:
   4520          {
   \   00000000   ........           CALL    ?PROLOGUE6_L09
   \   00000004                      REQUIRE ?Register_R4_is_cg_reg
   \   00000004                      REQUIRE ?Register_R5_is_cg_reg
   \   00000004   9726               SBIW    R29:R28, 6
   \   00000006   2F80               MOV     R24, R16
   \   00000008   01D9               MOVW    R27:R26, R19:R18
   \   0000000A   2F91               MOV     R25, R17
   \   0000000C   2E44               MOV     R4, R20
   4521          
   4522            char massiv[6];
   4523            
   4524            if(Regim!=RG_DEBAG)return;
   \   0000000E   9100....           LDS     R16, Regim
   \   00000012   3001               CPI     R16, 1
   \   00000014   F009               BREQ    $+2+2
   \   00000016   C0B9               RJMP    ??send_info_0
   4525                     burst_ds_r();
   \   00000018   ........           CALL    burst_ds_r
   4526                     sprintf(massiv,"%d\0",real_time.r_date);
   \   0000001C   ....               LDI     R30, LOW(real_time)
   \   0000001E   ....               LDI     R31, (real_time) >> 8
   \   00000020   8104               LDD     R16, Z+4
   \   00000022   E010               LDI     R17, 0
   \   00000024   931A               ST      -Y, R17
   \   00000026   930A               ST      -Y, R16
   \   00000028   ....               LDI     R18, LOW(`?<Constant "%d\\000">`)
   \   0000002A   ....               LDI     R19, (`?<Constant "%d\\000">`) >> 8
   \   0000002C   018E               MOVW    R17:R16, R29:R28
   \   0000002E   5F0E               SUBI    R16, 254
   \   00000030   4F1F               SBCI    R17, 255
   \   00000032   ........           CALL    sprintf
   \   00000036   9622               ADIW    R29:R28, 2
   4527                     mov_massiv(strlen(massiv),massiv);
   \   00000038   018E               MOVW    R17:R16, R29:R28
   \   0000003A   ........           CALL    strlen
   \   0000003E   019E               MOVW    R19:R18, R29:R28
   \   00000040   ........           CALL    mov_massiv
   4528                     s_port('.');
   \   00000044   E20E               LDI     R16, 46
   \   00000046   ........           CALL    s_port
   4529                     sprintf(massiv,"%d\0",real_time.r_month);
   \   0000004A   ....               LDI     R30, LOW(real_time)
   \   0000004C   ....               LDI     R31, (real_time) >> 8
   \   0000004E   8105               LDD     R16, Z+5
   \   00000050   E010               LDI     R17, 0
   \   00000052   931A               ST      -Y, R17
   \   00000054   930A               ST      -Y, R16
   \   00000056   ....               LDI     R18, LOW(`?<Constant "%d\\000">`)
   \   00000058   ....               LDI     R19, (`?<Constant "%d\\000">`) >> 8
   \   0000005A   018E               MOVW    R17:R16, R29:R28
   \   0000005C   5F0E               SUBI    R16, 254
   \   0000005E   4F1F               SBCI    R17, 255
   \   00000060   ........           CALL    sprintf
   \   00000064   9622               ADIW    R29:R28, 2
   4530                     mov_massiv(strlen(massiv),massiv);
   \   00000066   018E               MOVW    R17:R16, R29:R28
   \   00000068   ........           CALL    strlen
   \   0000006C   019E               MOVW    R19:R18, R29:R28
   \   0000006E   ........           CALL    mov_massiv
   4531                     s_port('.');
   \   00000072   E20E               LDI     R16, 46
   \   00000074   ........           CALL    s_port
   4532                     sprintf(massiv,"%d\0",real_time.r_year);
   \   00000078   ....               LDI     R30, LOW(real_time)
   \   0000007A   ....               LDI     R31, (real_time) >> 8
   \   0000007C   8106               LDD     R16, Z+6
   \   0000007E   E010               LDI     R17, 0
   \   00000080   931A               ST      -Y, R17
   \   00000082   930A               ST      -Y, R16
   \   00000084   ....               LDI     R18, LOW(`?<Constant "%d\\000">`)
   \   00000086   ....               LDI     R19, (`?<Constant "%d\\000">`) >> 8
   \   00000088   018E               MOVW    R17:R16, R29:R28
   \   0000008A   5F0E               SUBI    R16, 254
   \   0000008C   4F1F               SBCI    R17, 255
   \   0000008E   ........           CALL    sprintf
   \   00000092   9622               ADIW    R29:R28, 2
   4533                     mov_massiv(strlen(massiv),massiv);
   \   00000094   018E               MOVW    R17:R16, R29:R28
   \   00000096   ........           CALL    strlen
   \   0000009A   019E               MOVW    R19:R18, R29:R28
   \   0000009C   ........           CALL    mov_massiv
   4534                     s_port(' ');
   \   000000A0   E200               LDI     R16, 32
   \   000000A2   ........           CALL    s_port
   4535                     sprintf(massiv,"%d\0",real_time.r_hor);
   \   000000A6   ....               LDI     R30, LOW(real_time)
   \   000000A8   ....               LDI     R31, (real_time) >> 8
   \   000000AA   8102               LDD     R16, Z+2
   \   000000AC   E010               LDI     R17, 0
   \   000000AE   931A               ST      -Y, R17
   \   000000B0   930A               ST      -Y, R16
   \   000000B2   ....               LDI     R18, LOW(`?<Constant "%d\\000">`)
   \   000000B4   ....               LDI     R19, (`?<Constant "%d\\000">`) >> 8
   \   000000B6   018E               MOVW    R17:R16, R29:R28
   \   000000B8   5F0E               SUBI    R16, 254
   \   000000BA   4F1F               SBCI    R17, 255
   \   000000BC   ........           CALL    sprintf
   \   000000C0   9622               ADIW    R29:R28, 2
   4536                     mov_massiv(strlen(massiv),massiv);
   \   000000C2   018E               MOVW    R17:R16, R29:R28
   \   000000C4   ........           CALL    strlen
   \   000000C8   019E               MOVW    R19:R18, R29:R28
   \   000000CA   ........           CALL    mov_massiv
   4537                     s_port(':');
   \   000000CE   E30A               LDI     R16, 58
   \   000000D0   ........           CALL    s_port
   4538                     sprintf(massiv,"%d\0",real_time.r_min);
   \   000000D4   ....               LDI     R30, LOW(real_time)
   \   000000D6   ....               LDI     R31, (real_time) >> 8
   \   000000D8   8101               LDD     R16, Z+1
   \   000000DA   E010               LDI     R17, 0
   \   000000DC   931A               ST      -Y, R17
   \   000000DE   930A               ST      -Y, R16
   \   000000E0   ....               LDI     R18, LOW(`?<Constant "%d\\000">`)
   \   000000E2   ....               LDI     R19, (`?<Constant "%d\\000">`) >> 8
   \   000000E4   018E               MOVW    R17:R16, R29:R28
   \   000000E6   5F0E               SUBI    R16, 254
   \   000000E8   4F1F               SBCI    R17, 255
   \   000000EA   ........           CALL    sprintf
   \   000000EE   9622               ADIW    R29:R28, 2
   4539                     mov_massiv(strlen(massiv),massiv);
   \   000000F0   018E               MOVW    R17:R16, R29:R28
   \   000000F2   ........           CALL    strlen
   \   000000F6   019E               MOVW    R19:R18, R29:R28
   \   000000F8   ........           CALL    mov_massiv
   4540                     s_port(':');
   \   000000FC   E30A               LDI     R16, 58
   \   000000FE   ........           CALL    s_port
   4541                     sprintf(massiv,"%d\0",real_time.r_sec);
   \   00000102   ....               LDI     R30, LOW(real_time)
   \   00000104   ....               LDI     R31, (real_time) >> 8
   \   00000106   8100               LD      R16, Z
   \   00000108   E010               LDI     R17, 0
   \   0000010A   931A               ST      -Y, R17
   \   0000010C   930A               ST      -Y, R16
   \   0000010E   ....               LDI     R18, LOW(`?<Constant "%d\\000">`)
   \   00000110   ....               LDI     R19, (`?<Constant "%d\\000">`) >> 8
   \   00000112   018E               MOVW    R17:R16, R29:R28
   \   00000114   5F0E               SUBI    R16, 254
   \   00000116   4F1F               SBCI    R17, 255
   \   00000118   ........           CALL    sprintf
   \   0000011C   9622               ADIW    R29:R28, 2
   4542                     mov_massiv(strlen(massiv),massiv);
   \   0000011E   018E               MOVW    R17:R16, R29:R28
   \   00000120   ........           CALL    strlen
   \   00000124   019E               MOVW    R19:R18, R29:R28
   \   00000126   ........           CALL    mov_massiv
   4543                     s_port(' ');
   \   0000012A   E200               LDI     R16, 32
   \   0000012C   C003               RJMP    ??send_info_1
   4544                     
   4545                     while(size--) s_port(*p++);
   \                     ??send_info_2:
   \   0000012E   01FD               MOVW    R31:R30, R27:R26
   \   00000130   9105               LPM     R16, Z+
   \   00000132   01DF               MOVW    R27:R26, R31:R30
   \                     ??send_info_1:
   \   00000134   ........           CALL    s_port
   \   00000138   2F08               MOV     R16, R24
   \   0000013A   958A               DEC     R24
   \   0000013C   2300               TST     R16
   \   0000013E   F7B9               BRNE    ??send_info_2
   4546                     
   4547                     if(fl_id!=0)
   \   00000140   2399               TST     R25
   \   00000142   F0E9               BREQ    ??send_info_3
   4548                     { 
   4549                       s_port(' ');
   \   00000144   E200               LDI     R16, 32
   \   00000146   ........           CALL    s_port
   4550                       s_port('I');
   \   0000014A   E409               LDI     R16, 73
   \   0000014C   ........           CALL    s_port
   4551                       s_port('D');
   \   00000150   E404               LDI     R16, 68
   \   00000152   ........           CALL    s_port
   4552                       s_port(':');
   \   00000156   E30A               LDI     R16, 58
   \   00000158   ........           CALL    s_port
   4553                      
   4554                       sprintf(massiv,"%d\0",id);
   \   0000015C   2455               CLR     R5
   \   0000015E   925A               ST      -Y, R5
   \   00000160   924A               ST      -Y, R4
   \   00000162   ....               LDI     R18, LOW(`?<Constant "%d\\000">`)
   \   00000164   ....               LDI     R19, (`?<Constant "%d\\000">`) >> 8
   \   00000166   018E               MOVW    R17:R16, R29:R28
   \   00000168   5F0E               SUBI    R16, 254
   \   0000016A   4F1F               SBCI    R17, 255
   \   0000016C   ........           CALL    sprintf
   \   00000170   9622               ADIW    R29:R28, 2
   4555                       mov_massiv(strlen(massiv),massiv);
   \   00000172   018E               MOVW    R17:R16, R29:R28
   \   00000174   ........           CALL    strlen
   \   00000178   019E               MOVW    R19:R18, R29:R28
   \   0000017A   ........           CALL    mov_massiv
   4556                     }
   4557                     
   4558                     s_port(0x0d);
   \                     ??send_info_3:
   \   0000017E   E00D               LDI     R16, 13
   \   00000180   ........           CALL    s_port
   4559                     s_port(0x0a);
   \   00000184   E00A               LDI     R16, 10
   \   00000186   ........           CALL    s_port
   4560          }
   \                     ??send_info_0:
   \   0000018A   9626               ADIW    R29:R28, 6
   \   0000018C   E0E6               LDI     R30, 6
   \   0000018E   ........           JMP     ?EPILOGUE_B6_L09

   \                                 In segment NEAR_ID, align 1, keep-with-next
   \                     `?<Initializer for <Constant "%d\\000">>`:
   \   00000000   64250000           DB 25H, 64H, 0, 0

   \                                 In segment SWITCH, align 2, keep-with-next
   \                     `?<Jumptable for modem_engine>_0`:
   \   00000000   01                 DB      1
   \   00000001   00                 DB      0
   \   00000002   ....               DW      (??modem_engine_1) /2
   \   00000004   000A               DW      10
   \   00000006   ....               DW      (??modem_engine_4) /2
   \   00000008   ....               DW      (??modem_engine_6) /2
   \   0000000A   ....               DW      (??modem_engine_7) /2
   \   0000000C   ....               DW      (??modem_engine_10) /2
   \   0000000E   ....               DW      (??modem_engine_17) /2
   \   00000010   ....               DW      (??modem_engine_19) /2
   \   00000012   ....               DW      (??modem_engine_30) /2
   \   00000014   ....               DW      (??modem_engine_39) /2
   \   00000016   ....               DW      (??modem_engine_42) /2
   \   00000018   ....               DW      (??modem_engine_45) /2

   \                                 In segment SWITCH, align 2, keep-with-next
   \                     `?<Jumptable for proc_config>_0`:
   \   00000000   01                 DB      1
   \   00000001   01                 DB      1
   \   00000002   ....               DW      (??proc_config_2) /2
   \   00000004   ....               DW      (??proc_config_1) /2
   \   00000006   01                 DB      0x1
   \   00000007   ....               DW      (??proc_config_5) /2
   \   00000009   01                 DB      0x1
   \   0000000A   ....               DW      (??proc_config_44) /2
   \   0000000C   01                 DB      0x1
   \   0000000D   ....               DW      (??proc_config_41) /2
   \   0000000F   01                 DB      0x1
   \   00000010   ....               DW      (??proc_config_38) /2
   \   00000012   01                 DB      0x1
   \   00000013   ....               DW      (??proc_config_34) /2
   \   00000015   01                 DB      0x1
   \   00000016   ....               DW      (??proc_config_7) /2
   \   00000018   01                 DB      0x1
   \   00000019   ....               DW      (??proc_config_16) /2
   \   0000001B   01                 DB      0x1
   \   0000001C   ....               DW      (??proc_config_19) /2
   \   0000001E   01                 DB      0x1
   \   0000001F   ....               DW      (??proc_config_31) /2
   \   00000021   01                 DB      0x1
   \   00000022   ....               DW      (??proc_config_22) /2
   \   00000024   01                 DB      0x1
   \   00000025   ....               DW      (??proc_config_25) /2
   \   00000027   01                 DB      0x1
   \   00000028   ....               DW      (??proc_config_28) /2
   \   0000002A   01                 DB      0x1
   \   0000002B   ....               DW      (??proc_config_52) /2
   \   0000002D   01                 DB      0x1
   \   0000002E   ....               DW      (??proc_config_58) /2
   \   00000030   02                 DB      0x2
   \   00000031   ....               DW      (??proc_config_53) /2
   \   00000033   01                 DB      0x1
   \   00000034   ....               DW      (??proc_config_6) /2
   \   00000036   01                 DB      0x1
   \   00000037   ....               DW      (??proc_config_61) /2
   \   00000039   01                 DB      0x1
   \   0000003A   ....               DW      (??proc_config_62) /2
   \   0000003C   01                 DB      0x1
   \   0000003D   ....               DW      (??proc_config_69) /2
   \   0000003F   01                 DB      0x1
   \   00000040   ....               DW      (??proc_config_73) /2
   \   00000042   01                 DB      0x1
   \   00000043   ....               DW      (??proc_config_76) /2
   \   00000045   01                 DB      0x1
   \   00000046   ....               DW      (??proc_config_83) /2
   \   00000048   67                 DB      0x67
   \   00000049   ....               DW      (??proc_config_66) /2
   \   0000004B   FB                 DB      251

   \                                 In segment NEAR_I, align 1, keep-with-next
   \   00000000                      REQUIRE `?<Segment init: NEAR_I>`
   \                     `?<Constant "%d\\000">`:
   \   00000000                      DS 4
   \   00000004                      REQUIRE `?<Initializer for <Constant "%d\\000">>`
   4561          
   4562          

   Maximum stack usage in bytes:

     Function                   CSTACK RSTACK
     --------                   ------ ------
     Application_SEQ_tx            14      2
       -> read_from_buf            14      2
       -> clr_cntr_nat              8      2
       -> send_info                 8      2
       -> form_buf_tx_ppp           8      2
       -> check_cts                 8      2
     check_cont_485_1               0      2
     check_cts                      0      2
     check_ln_conf                  4      2
     check_wdt                      4      2
       -> write_log_info            4      2
       -> lock_it                   4      2
       -> crc_ozu                   4      2
       -> write_log_info            4      2
       -> lock_it                   4      2
       -> crc_m1                    4      2
       -> write_log_info            4      2
       -> lock_it                   4      2
     clr_cntr_link                  0      2
     clr_cntr_link_2                0      2
     clr_cntr_nat                   0      2
     clr_var_ppp                    0      2
     clr_var_ppp_rx                 0      2
     control_temperatura            0      2
     crc_m1                         0      2
     crc_ozu                        2      2
     delay                          0      2
     delay_on_contr                 1      2
       -> delay                     1      2
       -> delay                     1      2
       -> delay                     1      2
       -> delay                     1      2
       -> delay                     1      2
     form_buf_tx_ppp               10      4
       -> crc_m1                   10      2
       -> kodirovka                10      2
       -> calc_crc_ip              10      2
       -> calc_crc_udp_2           10      2
       -> pppfcs16                 10      2
     load_par_from_memory          28      4
       -> RdFromFleshToArr         28      2
       -> crc_m1                   28      2
       -> RdFromFleshToArr         28      2
       -> crc_m1                   28      2
       -> RdFromFleshToArr         28      2
       -> crc_m1                   28      2
     load_rw_pdp                   78      4
       -> RdFromFleshToArr         78      2
       -> strlen                   78      2
       -> strlen                   78      2
       -> strlen                   78      2
       -> crc_m1                   78      2
       -> WrArrayToFlesh           78      2
     load_rw_pdp_r                 78      4
       -> RdFromFleshToArr         78      2
       -> strlen                   78      2
       -> strlen                   78      2
       -> strlen                   78      2
       -> crc_m1                   78      2
       -> WrArrayToFlesh           78      2
     lock_it                        0      2
     long_delay                     0      2
     modem_engine                   2      2
       -> start_func_stm_on         2      2
       -> write_log_info            2      2
       -> lock_it                   2      2
       -> check_wdt                 2      2
       -> supervisorwdt             2      2
       -> monitor_change_state      2      2
       -> control_temperatura       2      2
       -> start_func_stm_kon        2      2
       -> write_log_info            2      2
       -> lock_it                   2      2
       -> start_func_stm_pwk        2      2
       -> send_info                 2      2
       -> init_scen_stm_si          2      2
       -> at_com_tx                 2      2
       -> at_com_rx                 2      2
       -> at_com_scen_init          2      2
       -> send_info                 2      2
       -> write_log_info            2      2
       -> init_scen_stm_sc          2      2
       -> send_info                 2      2
       -> start_func_stm_off        2      2
       -> send_info                 2      2
       -> start_func_stm_off        2      2
       -> at_com_tx                 2      2
       -> at_com_rx                 2      2
       -> at_com_scen_stm_sc        2      2
       -> send_info                 2      2
       -> write_log_info            2      2
       -> start_func_stm_scp        2      2
       -> analiz_ppp_rx             2      2
       -> monitor_event_LCP         2      2
       -> monitor_act_LCP           2      2
       -> monitor_event_PAP         2      2
       -> monitor_act_PAP           2      2
       -> monitor_event_IPCP        2      2
       -> monitor_act_IPCP          2      2
       -> send_info                 2      2
       -> write_log_info            2      2
       -> send_info                 2      2
       -> write_log_info            2      2
       -> send_info                 2      2
       -> write_log_info            2      2
       -> send_info                 2      2
       -> write_log_info            2      2
       -> send_info                 2      2
       -> write_log_info            2      2
       -> clr_var_ppp_rx            2      2
       -> analiz_ppp_rx             2      2
       -> monitor_event_IPCP        2      2
       -> monitor_act_IPCP          2      2
       -> monitor1_tx_rs485_1       2      2
       -> monitor1_rec_rs485_1      2      2
       -> monitor1_tm_rs485_1       2      2
       -> monitor1_tx_rs485_2       2      2
       -> monitor1_rec_rs485_2      2      2
       -> monitor1_tm_rs485_2       2      2
       -> monitor1_tx_rs232_2       2      2
       -> monitor1_rec_rs232_2      2      2
       -> monitor1_tm_rs232_2       2      2
       -> Application_SEQ_tx        2      2
       -> monitor_cntr_ch           2      2
       -> monitor_cntr_cl_seq       2      2
       -> monitor_cntr_nat          2      2
       -> send_info                 2      2
       -> write_log_info            2      2
       -> send_info                 2      2
       -> write_log_info            2      2
       -> clr_var_ppp_rx            2      2
       -> send_info                 2      2
       -> write_log_info            2      2
       -> send_info                 2      2
       -> write_log_info            2      2
       -> send_info                 2      2
       -> write_log_info            2      2
       -> monitor1_rec_rs485_1      2      2
       -> monitor1_tm_rs485_1       2      2
       -> monitor1_rec_rs485_2      2      2
       -> monitor1_tm_rs485_2       2      2
       -> monitor1_rec_rs232_2      2      2
       -> monitor1_tm_rs232_2       2      2
       -> write_log_info            2      2
       -> start_func_stm_off        2      2
       -> at_com_tx                 2      2
       -> at_com_rx                 2      2
       -> at_com_scen_stm_dc_1      2      2
       -> write_log_info            2      2
       -> init_scen_stm_sc          2      2
       -> write_log_info            2      2
       -> start_func_stm_off        2      2
       -> start_func_stm_on         2      2
     monitor1_rec_rs232_2           4      2
       -> clr_cntr_nat              4      2
       -> clr_cntr_link             4      2
       -> send_err485               4      2
       -> send_err485               4      2
       -> form_buf_tx_ppp           4      2
       -> check_cts                 4      2
     monitor1_rec_rs485_1           4      2
       -> clr_cntr_nat              4      2
       -> clr_cntr_link             4      2
       -> send_err485               4      2
       -> send_err485               4      2
       -> form_buf_tx_ppp           4      2
       -> check_cts                 4      2
     monitor1_rec_rs485_2           4      2
       -> clr_cntr_nat              4      2
       -> clr_cntr_link             4      2
       -> send_err485               4      2
       -> send_err485               4      2
       -> form_buf_tx_ppp           4      2
       -> check_cts                 4      2
     monitor1_tm_rs232_2            0      2
       -> clr_cntr_nat              0      2
       -> clr_cntr_link             0      2
       -> send_err485               0      2
     monitor1_tm_rs485_1            2      2
       -> clr_cntr_nat              2      2
       -> clr_cntr_link             2      2
       -> send_err485               2      2
     monitor1_tm_rs485_2            2      2
       -> clr_cntr_nat              2      2
       -> clr_cntr_link             2      2
       -> send_err485               2      2
     monitor1_tx_rs232_2            4      2
       -> run_cont_232_2            4      2
     monitor1_tx_rs485_1            4      2
       -> run_cont_485_1            4      2
     monitor1_tx_rs485_2            4      2
       -> run_cont_485_2            4      2
     monitor_beg_state_seq         24      2
       -> delay                    16      2
       -> delay                    16      2
       -> burst_ds_r               16      2
       -> send_info                16      2
       -> write_to_buf             24      2
     monitor_change_state          23      2
       -> send_info                15      2
       -> send_info                15      2
       -> send_info                15      2
       -> send_info                15      2
       -> burst_ds_r               15      2
       -> write_to_buf             23      2
     monitor_cntr_ch                2      2
       -> clr_cntr_nat              2      2
       -> send_info                 2      2
       -> form_buf_tx_ppp           2      2
       -> check_cts                 2      2
     monitor_cntr_cl_seq            4      2
       -> clr_cntr_nat              4      2
       -> send_info                 4      2
       -> form_buf_tx_ppp           4      2
       -> check_cts                 4      2
     monitor_cntr_nat               1      2
       -> clr_cntr_nat              1      2
       -> send_info                 1      2
       -> form_buf_tx_ppp           1      2
       -> check_cts                 1      2
     monitor_rst                   21      2
       -> send_info                13      2
       -> write_log_info           13      2
       -> burst_ds_r               13      2
       -> write_to_buf             21      2
       -> write_log_info           13      2
       -> send_info                13      2
       -> write_log_info           13      2
       -> send_info                13      2
       -> write_log_info           13      2
       -> send_info                13      2
       -> burst_ds_r               13      2
       -> write_to_buf             21      2
     mov_buf                        4      2
       -> s_port                    4      2
     mov_lf                         0      2
       -> s_port                    0      2
       -> s_port                    0      2
     mov_s                          3      2
       -> s_port                    3      2
     proc_config                   40      4
       -> ret_version              40      2
       -> ret_version              40      2
       -> ret_version              40      2
       -> RdFromFleshToArr         40      2
       -> crc_m1                   40      2
       -> WrArrayToFlesh           40      2
       -> crc_ozu                  40      2
       -> RdFromFleshToArr         40      2
       -> RdFromFleshToArr         40      2
       -> crc_m1                   40      2
       -> WrArrayToFlesh           40      2
       -> crc_ozu                  40      2
       -> RdFromFleshToArr         40      2
       -> RdFromFleshToArr         40      2
       -> crc_m1                   40      2
       -> WrArrayToFlesh           40      2
       -> crc_ozu                  40      2
       -> RdFromFleshToArr         40      2
       -> RdFromFleshToArr         40      2
       -> crc_m1                   40      2
       -> WrArrayToFlesh           40      2
       -> crc_ozu                  40      2
       -> RdFromFleshToArr         40      2
       -> RdFromFleshToArr         40      2
       -> crc_m1                   40      2
       -> WrArrayToFlesh           40      2
       -> crc_ozu                  40      2
       -> RdFromFleshToArr         40      2
       -> RdFromFleshToArr         40      2
       -> crc_m1                   40      2
       -> WrArrayToFlesh           40      2
       -> crc_ozu                  40      2
       -> RdFromFleshToArr         40      2
       -> RdFromFleshToArr         40      2
       -> crc_m1                   40      2
       -> WrArrayToFlesh           40      2
       -> crc_ozu                  40      2
       -> monitor_beg_state_seq    40      2
       -> RdFromFleshToArr         40      2
       -> RdFromFleshToArr         40      2
       -> crc_m1                   40      2
       -> WrArrayToFlesh           40      2
       -> RdFromFleshToArr         40      2
       -> RdFromFleshToArr         40      2
       -> crc_m1                   40      2
       -> WrArrayToFlesh           40      2
       -> RdFromFleshToArr         40      2
       -> RdFromFleshToArr         40      2
       -> crc_m1                   40      2
       -> WrArrayToFlesh           40      2
       -> RdFromFleshToArr         40      2
       -> RdFromFleshToArr         40      2
       -> WrArrayToFlesh           40      2
       -> WrArrayToFlesh           40      2
       -> RdFromFleshToArr         40      2
       -> set_rlt                  40      2
       -> burst_ds_r               40      2
       -> RdFromFleshToArr         40      2
       -> WrArrayToFlesh           40      2
       -> WrArrayToFlesh           40      2
       -> RdFromFleshToArr         40      2
       -> crc_m1                   40      2
       -> WrArrayToFlesh           40      2
       -> RdFromFleshToArr         40      2
       -> RdFromFleshToArr         40      2
       -> crc_m1                   40      2
       -> WrArrayToFlesh           40      2
       -> crc_ozu                  40      2
       -> RdFromFleshToArr         40      2
       -> RdFromFleshToArr         40      2
       -> crc_m1                   40      2
       -> WrArrayToFlesh           40      2
       -> crc_ozu                  40      2
       -> RdFromFleshToArr         40      2
       -> RdFromFleshToArr         40      2
       -> crc_m1                   40      2
       -> WrArrayToFlesh           40      2
       -> crc_ozu                  40      2
       -> monitor_beg_state_seq    40      2
       -> RdFromFleshToArr         40      2
       -> RdFromFleshToArr         40      2
       -> crc_m1                   40      2
       -> WrArrayToFlesh           40      2
       -> crc_ozu                  40      2
       -> RdFromFleshToArr         40      2
     run_cont_232_2                 4      2
     run_cont_485_1                 4      2
     run_cont_485_2                 4      2
     s_port                         0      2
     send_err485                    5      2
       -> clr_cntr_nat              5      2
       -> clr_cntr_link             5      2
       -> form_buf_tx_ppp           5      2
       -> check_cts                 5      2
     send_info                     16      2
       -> burst_ds_r               14      2
       -> sprintf                  16      2
       -> strlen                   14      2
       -> mov_massiv               14      2
       -> s_port                   14      2
       -> sprintf                  16      2
       -> strlen                   14      2
       -> mov_massiv               14      2
       -> s_port                   14      2
       -> sprintf                  16      2
       -> strlen                   14      2
       -> mov_massiv               14      2
       -> s_port                   14      2
       -> sprintf                  16      2
       -> strlen                   14      2
       -> mov_massiv               14      2
       -> s_port                   14      2
       -> sprintf                  16      2
       -> strlen                   14      2
       -> mov_massiv               14      2
       -> s_port                   14      2
       -> sprintf                  16      2
       -> strlen                   14      2
       -> mov_massiv               14      2
       -> s_port                   14      2
       -> s_port                   14      2
       -> s_port                   14      2
       -> s_port                   14      2
       -> s_port                   14      2
       -> s_port                   14      2
       -> sprintf                  16      2
       -> strlen                   14      2
       -> mov_massiv               14      2
       -> s_port                   14      2
       -> s_port                   14      2
     start_func_stm_kon             0      2
     start_func_stm_off             0      2
       -> write_log_info            0      2
       -> send_info                 0      2
     start_func_stm_on              2      2
       -> write_log_info            2      2
       -> send_info                 2      2
       -> write_log_info            2      2
       -> send_info                 2      2
       -> send_info                 2      2
     start_func_stm_pwk             0      2
       -> send_info                 0      2
     start_func_stm_scp             2      2
       -> clr_var_ppp_rx            2      2
       -> clr_var_ppp               2      2


   Segment part sizes:

     Function/Label                 Bytes
     --------------                 -----
     _A_UDR3                           1
     _A_UBRR3                          2
     _A_UCSR3C                         1
     _A_UCSR3B                         1
     _A_PORTJ                          1
     _A_PORTH                          1
     _A_UDR2                           1
     _A_UBRR2                          2
     _A_UCSR2C                         1
     _A_UCSR2A                         1
     _A_UBRR1                          2
     _A_UCSR1C                         1
     _A_UCSR1B                         1
     _A_UDR0                           1
     _A_UCSR0B                         1
     _A_UCSR0A                         1
     _A_WDTCSR                         1
     _A_SREG                           1
     _A_MCUSR                          1
     _A_PORTG                          1
     _A_PORTE                          1
     _A_PINE                           1
     _A_PORTD                          1
     _A_PORTC                          1
     _A_PORTB                          1
     stm_pwr_on                       33
     stm_pwr_kon                      11
     stm_pwr_off                      11
     stm_si                           95
     stm_rdc                           7
     evm_at_ok                         9
     evm_ppp_ok                       10
     evc_taken                        32
     evc_state                         9
     evc_wdr                          28
     msg_evc                           7
     msg_ctrl_ch                      11
     msg_ctrl_nat                     12
     req_out_ctrl_cl                  12
     e_rw_pdp                          1
     e_rw_pdp_r                        1
     auchCRCHi                       256
     auchCRCLo                       256
     simka                             1
     Appl_RS485_1                     63
     Appl_RS232_2                     39
     prov_ozu                          2
     buf_tx_232                     1100
     vol_tx_ppp                        2
     Buf1_rx_ppp                     335
     Buf2_rx_ppp                     335
     Appl_seq                         63
     cnt_no_link                       4
     Appl_RS485_1_data_buf           200
     Appl_RS485_2_data_buf           200
     Appl_RS232_2_data_buf           200
     state_seq                         3
     Appl_seq_buf                    200
     summa_temperatura                 4
     temperatura                       2
     count_summa_temperatura           2
     ??lock_it_0                      18
     ??delay_0                        12
     ??long_delay_0                   22
     delay_on_contr                  166
     crc_m1                           64
     check_cts                        22
     ??s_port_0                       16
     mov_s                            32
     mov_buf                          28
     mov_lf                           10
     crc_ozu                        1204
     load_rw_pdp                     300
     load_rw_pdp_r                   300
     load_par_from_memory            444
     start_func_stm_off               84
     start_func_stm_on               248
     start_func_stm_kon               20
     start_func_stm_pwk               34
     start_func_stm_scp              198
     form_buf_tx_ppp                 760
     clr_cntr_link_2                  26
     clr_cntr_link                    48
     monitor_rst                     422
     monitor_beg_state_seq           378
     clr_cntr_nat                     32
     clr_var_ppp_rx                   90
     clr_var_ppp                     356
     monitor_cntr_ch                 304
     monitor_cntr_nat                172
     monitor_cntr_cl_seq             312
     monitor_change_state            636
     Application_SEQ_tx              424
     check_wdt                       128
     modem_engine                   1050
     send_err485                     208
     check_cont_485_1                112
     run_cont_485_1                  428
     run_cont_485_2                  420
     run_cont_232_2                  428
     check_ln_conf                    54
     proc_config                    3456
     monitor1_tx_rs485_1             202
     monitor1_tm_rs485_1             108
     monitor1_rec_rs485_1            454
     monitor1_tx_rs485_2             206
     monitor1_tm_rs485_2             100
     monitor1_rec_rs485_2            446
     monitor1_tx_rs232_2             220
     monitor1_tm_rs232_2             102
     monitor1_rec_rs232_2            474
     control_temperatura              48
     send_info                       402
     ?<Initializer for <Constant "%d\000">>
                                       4
     ?<Jumptable for modem_engine>_0
                                      26
     ?<Jumptable for proc_config>_0   76
     ?<Constant "%d\000">              4
      Others                          14

 
     28 bytes in segment ABSOLUTE
 16 228 bytes in segment CODE
      2 bytes in segment EEPROM_AN
     14 bytes in segment INITTAB
    799 bytes in segment NEAR_F
      4 bytes in segment NEAR_I
      4 bytes in segment NEAR_ID
      1 byte  in segment NEAR_N
  2 754 bytes in segment NEAR_Z
    102 bytes in segment SWITCH
 
 17 133 bytes of CODE  memory (+ 14 bytes shared)
  2 759 bytes of DATA  memory (+ 28 bytes shared)
      0 bytes of XDATA memory (+  2 bytes shared)

Errors: none
Warnings: 3
