//////////////////////////////////////////////////////////////////////////////
//                                                                           /
//                                                     28/Sep/2007  13:27:26 /
// IAR Atmel AVR C/C++ Compiler V4.12A/W32, Evaluation Version               /
// Copyright 1996-2005 IAR Systems. All rights reserved.                     /
//                                                                           /
//    Source file  =  D:\PRJIAR\NSS270907\KP7(270907)\fppp1.c                /
//    Command line =  "D:\PRJIAR\NSS270907\KP7(270907)\fppp1.c" --cpu=m1280  /
//                    -ms -o "D:\PRJIAR\NSS270907\KP7(270907)\Debug\Obj\"    /
//                    -lCN "D:\PRJIAR\NSS270907\KP7(270907)\Debug\List\"     /
//                    -lA "D:\PRJIAR\NSS270907\KP7(270907)\Debug\List\" -y   /
//                    --initializers_in_flash -z6 --no_inline                /
//                    --no_cross_call --no_tbaa --debug -e -I "D:\Program    /
//                    Files\IAR Systems\Embedded Workbench 4.0               /
//                    Evaluation\avr\INC\" -I "D:\Program Files\IAR          /
//                    Systems\Embedded Workbench 4.0                         /
//                    Evaluation\avr\INC\DLIB\" --eeprom_size 4096           /
//                    --dlib_config "D:\Program Files\IAR Systems\Embedded   /
//                    Workbench 4.0 Evaluation\avr\LIB\DLIB\dlAVR-3s-ec-n.h" /
//    List file    =  D:\PRJIAR\NSS270907\KP7(270907)\Debug\List\fppp1.s90   /
//                                                                           /
//                                                                           /
//////////////////////////////////////////////////////////////////////////////

        NAME fppp1

        RTMODEL "__64bit_doubles", "disabled"
        RTMODEL "__cpu", "3"
        RTMODEL "__cpu_name", "ATmega1280"
        RTMODEL "__enhanced_core", "enabled"
        RTMODEL "__has_elpm", "true"
        RTMODEL "__memory_model", "2"
        RTMODEL "__no_rampd", "enabled"
        RTMODEL "__rt_version", "3"

        RSEG CSTACK:DATA:NOROOT(0)
        RSEG RSTACK:DATA:NOROOT(0)

        EXTERN ?CV_SWITCH_L06
        EXTERN ?EPILOGUE_B10_L09
        EXTERN ?EPILOGUE_B16_L09
        EXTERN ?EPILOGUE_B4_L09
        EXTERN ?EPILOGUE_B5_L09
        EXTERN ?EPILOGUE_B7_L09
        EXTERN ?EPILOGUE_B9_L09
        EXTERN ?PROLOGUE10_L09
        EXTERN ?PROLOGUE16_L09
        EXTERN ?PROLOGUE4_L09
        EXTERN ?PROLOGUE5_L09
        EXTERN ?PROLOGUE7_L09
        EXTERN ?PROLOGUE9_L09
        EXTERN ?Register_R10_is_cg_reg
        EXTERN ?Register_R11_is_cg_reg
        EXTERN ?Register_R12_is_cg_reg
        EXTERN ?Register_R13_is_cg_reg
        EXTERN ?Register_R14_is_cg_reg
        EXTERN ?Register_R15_is_cg_reg
        EXTERN ?Register_R4_is_cg_reg
        EXTERN ?Register_R5_is_cg_reg
        EXTERN ?Register_R6_is_cg_reg
        EXTERN ?Register_R7_is_cg_reg
        EXTERN ?Register_R8_is_cg_reg
        EXTERN ?Register_R9_is_cg_reg
        EXTERN ?SS_DIVMOD_L02
        EXTERN ?need_segment_init

        PUBWEAK `?<Segment init: NEAR_Z>`
        PUBLIC IPCP_act_buf
        PUBLIC IPCP_event
        PUBLIC IPCP_state
        PUBLIC LCP_act_buf
        PUBLIC LCP_event
        PUBLIC LCP_state
        PUBLIC Obj_ppp_tx
        PUBLIC PAP_event
        PUBLIC PAP_state
        PUBWEAK _A_PORTC
        PUBWEAK _A_RAMPZ
        PUBWEAK _A_SREG
        PUBWEAK _A_UCSR0A
        PUBWEAK _A_UCSR0B
        PUBWEAK _A_UDR0
        PUBWEAK _A_UDR3
        PUBWEAK _A_WDTCSR
        PUBWEAK __?EEARH
        PUBWEAK __?EEARL
        PUBWEAK __?EECR
        PUBWEAK __?EEDR
        PUBLIC analiz_ppp_rx
        FUNCTION analiz_ppp_rx,021203H
        LOCFRAME RSTACK, 2, STACK
        PUBLIC ans_in_ctrl_cl
        PUBLIC ans_out_232
        PUBLIC ans_out_485_1
        PUBLIC ans_out_485_2
        PUBLIC ans_out_config
        PUBLIC ans_out_prog
        PUBLIC ans_out_st_contr
        PUBLIC array_in_232
        PUBLIC buf_ack_opt_ipcp
        PUBLIC buf_ack_opt_lcp
        PUBLIC buf_nak_opt_ipcp
        PUBLIC buf_nak_opt_lcp
        PUBLIC buf_rej_opt_ipcp
        PUBLIC buf_rej_opt_lcp
        PUBLIC buf_rejc_opt_ipcp
        PUBLIC buf_rejc_opt_lcp
        PUBLIC calc_crc_ip
        FUNCTION calc_crc_ip,0203H
        LOCFRAME CSTACK, 8, STACK
        LOCFRAME RSTACK, 2, STACK
        PUBLIC calc_crc_udp_2
        FUNCTION calc_crc_udp_2,0203H
        LOCFRAME CSTACK, 10, STACK
        LOCFRAME RSTACK, 2, STACK
        PUBLIC cnt_ip_tm_cntr
        PUBLIC cnt_ipcp_tm_out
        PUBLIC cnt_lcp_tm_out
        PUBLIC cnt_pap_tm_out
        PUBLIC cnt_pg
        PUBLIC cnt_rst_ipcp
        PUBLIC cnt_rst_lcp
        PUBLIC cnt_rst_pap
        PUBLIC contr_gluk1
        PUBLIC contr_gluk2
        PUBLIC delay_pre_tx
        PUBLIC evc_rld
        PUBLIC fcstab
        PUBLIC fl_ip
        PUBLIC fl_ipcp
        PUBLIC fl_ipcp1
        PUBLIC fl_ipcp2
        PUBLIC fl_lcp
        PUBLIC fl_lcp1
        PUBLIC fl_lcp2
        PUBLIC fl_pap
        PUBLIC fl_pg_out
        PUBLIC fl_rewrite
        PUBLIC i_scan_ipcp
        PUBLIC i_scan_lcp
        PUBLIC i_scj_ipcp
        PUBLIC i_scj_lcp
        PUBLIC i_scr_ipcp
        PUBLIC i_scr_lcp
        PUBLIC i_scr_pap
        PUBLIC i_sta_ipcp
        PUBLIC i_sta_lcp
        PUBLIC i_str_ipcp
        PUBLIC i_str_lcp
        PUBLIC id_pg_appl
        PUBLIC id_pg_kp
        PUBLIC ip_pri_dns
        PUBLIC ip_sec_dns
        PUBLIC ln_ack_ipcp
        PUBLIC ln_ack_lcp
        PUBLIC ln_nak_ipcp
        PUBLIC ln_nak_lcp
        PUBLIC ln_rej_ipcp
        PUBLIC ln_rej_lcp
        PUBLIC ln_rejc_ipcp
        PUBLIC ln_rejc_lcp
        PUBLIC monitor_act_IPCP
        FUNCTION monitor_act_IPCP,021203H
        LOCFRAME CSTACK, 2, STACK
        LOCFRAME RSTACK, 2, STACK
        PUBLIC monitor_act_LCP
        FUNCTION monitor_act_LCP,021203H
        LOCFRAME CSTACK, 2, STACK
        LOCFRAME RSTACK, 2, STACK
        PUBLIC monitor_act_PAP
        FUNCTION monitor_act_PAP,021203H
        LOCFRAME CSTACK, 7, STACK
        LOCFRAME RSTACK, 2, STACK
        PUBLIC monitor_event_IPCP
        FUNCTION monitor_event_IPCP,021203H
        LOCFRAME CSTACK, 7, STACK
        LOCFRAME RSTACK, 2, STACK
        PUBLIC monitor_event_LCP
        FUNCTION monitor_event_LCP,021203H
        LOCFRAME CSTACK, 7, STACK
        LOCFRAME RSTACK, 2, STACK
        PUBLIC monitor_event_PAP
        FUNCTION monitor_event_PAP,0203H
        LOCFRAME RSTACK, 2, STACK
        PUBLIC off_buf
        PUBLIC pagee
        PUBLIC pap_act_buf
        PUBLIC pg_crc
        PUBLIC pppfcs16
        FUNCTION pppfcs16,0203H
        LOCFRAME RSTACK, 2, STACK
        PUBLIC proc_option
        FUNCTION proc_option,0203H
        LOCFRAME CSTACK, 10, STACK
        LOCFRAME RSTACK, 4, STACK
        PUBLIC proc_paging
        FUNCTION proc_paging,0203H
        LOCFRAME RSTACK, 2, STACK
        PUBLIC proc_ppp_packet
        FUNCTION proc_ppp_packet,021203H
        LOCFRAME CSTACK, 13, STACK
        LOCFRAME RSTACK, 2, STACK
        PUBLIC proc_udp_data
        FUNCTION proc_udp_data,021203H
        LOCFRAME CSTACK, 18, STACK
        LOCFRAME RSTACK, 2, STACK
        PUBLIC prov_uk_in
        FUNCTION prov_uk_in,0203H
        LOCFRAME RSTACK, 2, STACK
        PUBLIC prov_uk_in_ipcp
        FUNCTION prov_uk_in_ipcp,0203H
        LOCFRAME RSTACK, 2, STACK
        PUBLIC rcvd_protokol
        PUBLIC reboot_byte
        PUBLIC rec_ctrl_ch
        PUBLIC rec_evc
        PUBLIC run_ipcp_act
        FUNCTION run_ipcp_act,021203H
        LOCFRAME CSTACK, 7, STACK
        LOCFRAME RSTACK, 2, STACK
        PUBLIC run_lcp_act
        FUNCTION run_lcp_act,021203H
        LOCFRAME CSTACK, 7, STACK
        LOCFRAME RSTACK, 2, STACK
        PUBLIC send_no_sinc
        FUNCTION send_no_sinc,021203H
        LOCFRAME CSTACK, 4, STACK
        LOCFRAME RSTACK, 2, STACK
        PUBLIC send_size_pg
        FUNCTION send_size_pg,021203H
        LOCFRAME CSTACK, 4, STACK
        LOCFRAME RSTACK, 2, STACK
        PUBLIC total_kol_page
        PUBLIC uk_in_act_IPCP
        PUBLIC uk_in_act_LCP
        PUBLIC uk_out_act_IPCP
        PUBLIC uk_out_act_LCP
        PUBLIC vol_cnt_rst_ipcp
        PUBLIC vol_cnt_rst_lcp
        PUBLIC vol_cnt_rst_pap
        
        CFI Names cfiNames0
        CFI StackFrame CFA_Y Y DATA
        CFI StackFrame CFA_SP SP DATA
        CFI VirtualResource ?RetPad:1, ?RetHigh:8, ?RetLow:8, ?Ret:17
        CFI Resource R0:8, R1:8, R2:8, R3:8, R4:8, R5:8, R6:8, R7:8, R8:8, R9:8
        CFI Resource R10:8, R11:8, R12:8, R13:8, R14:8, R15:8, R16:8, R17:8
        CFI Resource R18:8, R19:8, R20:8, R21:8, R22:8, R23:8, R24:8, R25:8
        CFI Resource R26:8, R27:8, R28:8, R29:8, R30:8, R31:8
        CFI Resource ?RetHighByteMask:8, SP:16, SPH:8, SPL:8, Y:16
        CFI ResourceParts ?Ret ?RetHigh, ?RetLow, ?RetPad
        CFI ResourceParts SP SPH, SPL
        CFI ResourceParts Y R29, R28
        CFI EndNames cfiNames0
        
        CFI Common cfiCommon0 Using cfiNames0
        CFI CodeAlign 1
        CFI DataAlign 1
        CFI ReturnAddress ?Ret CODE
        CFI CFA_Y Y+0
        CFI CFA_SP SP+2
        CFI ?RetPad 0
        CFI ?RetHigh and(load(1, DATA, sub(CFA_SP, 1)), ?RetHighByteMask)
        CFI ?RetLow Frame(CFA_SP, 0)
        CFI ?Ret Concat
        CFI R0 Undefined
        CFI R1 Undefined
        CFI R2 Undefined
        CFI R3 Undefined
        CFI R4 SameValue
        CFI R5 SameValue
        CFI R6 SameValue
        CFI R7 SameValue
        CFI R8 SameValue
        CFI R9 SameValue
        CFI R10 SameValue
        CFI R11 SameValue
        CFI R12 SameValue
        CFI R13 SameValue
        CFI R14 SameValue
        CFI R15 SameValue
        CFI R16 Undefined
        CFI R17 Undefined
        CFI R18 Undefined
        CFI R19 Undefined
        CFI R20 Undefined
        CFI R21 Undefined
        CFI R22 Undefined
        CFI R23 Undefined
        CFI R24 SameValue
        CFI R25 SameValue
        CFI R26 SameValue
        CFI R27 SameValue
        CFI R28 Undefined
        CFI R29 Undefined
        CFI R30 Undefined
        CFI R31 Undefined
        CFI ?RetHighByteMask SameValue
        CFI SPH Undefined
        CFI SPL Undefined
        CFI EndCommon cfiCommon0
        
        EXTERN check_cts
        FUNCTION check_cts,0202H
        EXTERN RdFromFleshToArr
        FUNCTION RdFromFleshToArr,0202H
        EXTERN clr_cntr_nat
        FUNCTION clr_cntr_nat,0202H
        EXTERN clr_cntr_link
        FUNCTION clr_cntr_link,0202H
        EXTERN form_buf_tx_ppp
        FUNCTION form_buf_tx_ppp,0202H
        EXTERN transform_buf
        FUNCTION transform_buf,0202H
        EXTERN crc_m1
        FUNCTION crc_m1,0202H
        EXTERN send_info
        FUNCTION send_info,0202H
        EXTERN send_err485
        FUNCTION send_err485,0202H
        EXTERN check_cont_485_1
        FUNCTION check_cont_485_1,0202H
        EXTERN burst_ds_r
        FUNCTION burst_ds_r,0202H
        EXTERN check_ln_conf
        FUNCTION check_ln_conf,0202H
        EXTERN WrArrayToFlesh
        FUNCTION WrArrayToFlesh,0202H
        EXTERN proc_config
        FUNCTION proc_config,0202H
        EXTERN crc_ozu
        FUNCTION crc_ozu,0202H
        EXTERN boot
        FUNCTION boot,0202H
        EXTERN r_p_flash
        FUNCTION r_p_flash,0202H
        EXTERN delay
        FUNCTION delay,0202H
        EXTERN reload_apl
        FUNCTION reload_apl,0202H
        EXTERN Appl_RS232_2
        EXTERN Appl_RS232_2_data_buf
        EXTERN Appl_RS485_1
        EXTERN Appl_RS485_1_data_buf
        EXTERN Appl_RS485_2
        EXTERN Appl_RS485_2_data_buf
        EXTERN Appl_seq
        EXTERN Appl_seq_des
        EXTERN Buf1_rx_ppp
        EXTERN Buf2_rx_ppp
        EXTERN Control
        EXTERN Regim
        EXTERN buf_opt_tr
        EXTERN buf_tx_232
        EXTERN byte_state_net
        EXTERN cnt_no_link
        EXTERN count_tx_ppp
        EXTERN event_modem
        EXTERN fl_232_2
        EXTERN fl_485_1
        EXTERN fl_485_2
        EXTERN fl_appl_seq
        EXTERN fl_appl_seq1
        EXTERN ip_ls
        EXTERN ip_self
        EXTERN layer_PPP
        EXTERN num_self
        EXTERN num_seq_cl
        EXTERN point_log_buf
        EXTERN port_udp
        EXTERN prov_ozu
        EXTERN simka
        EXTERN vol_cnt_no_link
        EXTERN vol_tx_ppp

// D:\PRJIAR\NSS270907\KP7(270907)\fppp1.c
//    1 #include <iom1280.h> 

        ASEGN ABSOLUTE:DATA:NOROOT,0136H
// union <unnamed> volatile __ext_io _A_UDR3
_A_UDR3:
        DS 1

        ASEGN ABSOLUTE:DATA:NOROOT,0c6H
// union <unnamed> volatile __io _A_UDR0
_A_UDR0:
        DS 1

        ASEGN ABSOLUTE:DATA:NOROOT,0c1H
// union <unnamed> volatile __io _A_UCSR0B
_A_UCSR0B:
        DS 1

        ASEGN ABSOLUTE:DATA:NOROOT,0c0H
// union <unnamed> volatile __io _A_UCSR0A
_A_UCSR0A:
        DS 1

        ASEGN ABSOLUTE:DATA:NOROOT,060H
// union <unnamed> volatile __io _A_WDTCSR
_A_WDTCSR:
        DS 1

        ASEGN ABSOLUTE:DATA:NOROOT,05fH
// union <unnamed> volatile __io _A_SREG
_A_SREG:
        DS 1

        ASEGN ABSOLUTE:DATA:NOROOT,05bH
// union <unnamed> volatile __io _A_RAMPZ
_A_RAMPZ:
        DS 1

        ASEGN ABSOLUTE:DATA:NOROOT,028H
// union <unnamed> volatile __io _A_PORTC
_A_PORTC:
        DS 1
//    2 #include <inavr.h>
//    3 #include "dfpin.h"
//    4 #include "dfproc.h"
//    5 #include "def_prot.h"
//    6 #include "def_conf.h"
//    7 #include "map_ef.h"
//    8 #include "ozu_map.h"
//    9 #include "def_at.h"
//   10 #include "def_link.h"
//   11 #include "dfcnst.h"
//   12 
//   13 
//   14 #define C_GLUK1    0x55   
//   15 #define C_GLUK2    0xaa
//   16 
//   17 void  transform_buf(unsigned char *p,unsigned int kol_byte,unsigned int s_rand);
//   18 
//   19 
//   20 void boot(void);
//   21 void r_p_flash(unsigned int adress);
//   22 void reload_apl (void);
//   23 
//   24 void send_info(char size,char __flash *p,unsigned char fl_id,unsigned char id);
//   25 

        RSEG NEAR_F:CODE:NOROOT(0)
//   26 __flash char evc_rld[]=            {'E','V','C',':','r','l','d'};
evc_rld:
        DB 69, 86, 67, 58, 114, 108, 100
//   27 
//   28 __flash char rec_ctrl_ch[]=             {'R','E','C',':','c','t','r','l',' ','c','h'};
rec_ctrl_ch:
        DB 82, 69, 67, 58, 99, 116, 114, 108, 32, 99, 104
//   29 __flash char rec_evc[]=             {'R','E','C',':','e','v','c'};
rec_evc:
        DB 82, 69, 67, 58, 101, 118, 99
//   30 
//   31 __flash char ans_in_ctrl_cl[]={'A','N','S','-','<','c','t','r','l',' ','c','l'};
ans_in_ctrl_cl:
        DB 65, 78, 83, 45, 60, 99, 116, 114, 108, 32, 99, 108
//   32 
//   33 
//   34 /*
//   35 __flash char req_in_485_1[]={'R','E','Q','-','<','4','8','5','_','1'};
//   36 __flash char req_in_485_2[]={'R','E','Q','-','<','4','8','5','_','2'};
//   37 __flash char req_in_232[]={'R','E','Q','-','<','2','3','2'};
//   38 __flash char req_in_st_contr[]={'R','E','Q','-','<','s','t',' ','c','o','n','t','r'};
//   39 __flash char req_in_config[]={'R','E','Q','-','<','c','o','n','f','i','g'};
//   40 __flash char req_in_prog[]={'R','E','Q','-','<','p','r','o','g'};
//   41 */
//   42 
//   43 __flash char ans_out_485_1[]={'A','N','S','-','>','4','8','5','_','1'};
ans_out_485_1:
        DB 65, 78, 83, 45, 62, 52, 56, 53, 95, 49
//   44 __flash char ans_out_485_2[]={'A','N','S','-','>','4','8','5','_','2'};
ans_out_485_2:
        DB 65, 78, 83, 45, 62, 52, 56, 53, 95, 50
//   45 __flash char ans_out_232[]={'A','N','S','-','>','2','3','2'};
ans_out_232:
        DB 65, 78, 83, 45, 62, 50, 51, 50
//   46 __flash char ans_out_st_contr[]={'A','N','S','-','>','s','t',' ','c','o','n','t','r'};
ans_out_st_contr:
        DB 65, 78, 83, 45, 62, 115, 116, 32, 99, 111, 110, 116, 114
//   47 __flash char ans_out_config[]={'A','N','S','-','>','c','o','n','f','i','g'};
ans_out_config:
        DB 65, 78, 83, 45, 62, 99, 111, 110, 102, 105, 103
//   48 __flash char ans_out_prog[]={'A','N','S','-','>','p','r','o','g'};
ans_out_prog:
        DB 65, 78, 83, 45, 62, 112, 114, 111, 103
//   49 
//   50 //__flash char ans_out_ping[]={'A','N','S','-','>','p','i','n','g'};
//   51 
//   52 
//   53 //#include "sec.h"
//   54 
//   55 //enum t_version {VER1 = 1 ,VER2,VER3,VER4};
//   56 //enum t_type {ZAPR,OTV,SOOB,KVIT};
//   57 extern unsigned char simka; //dobavka
//   58 
//   59 extern unsigned int num_self,num_seq_cl,port_udp;
//   60 extern unsigned char ip_ls[4]; 
//   61 
//   62 
//   63 extern unsigned long int cnt_no_link, vol_cnt_no_link;//dobavka
//   64 
//   65 void delay(unsigned int period);
//   66 extern unsigned long int burst_ds_r(void);
//   67 unsigned int proc_config(unsigned char *buf_rx_ppp,unsigned char offset,unsigned int count_rx_ppp);
//   68 unsigned char check_ln_conf(unsigned char *buf_rx_ppp,unsigned char offset,unsigned int count_rx_ppp);
//   69 unsigned char check_cont_485_1 (unsigned char *pointer);
//   70 unsigned char check_cont_485_2 (unsigned char *pointer);
//   71 
//   72 extern unsigned char Regim;
//   73 unsigned char proc_udp_data(unsigned char *buf_rx_ppp,unsigned int count_rx_ppp);
//   74 unsigned int crc_m1(unsigned char *ka,unsigned int num,unsigned int crc);
//   75 unsigned int crc_ozu(void);
//   76 extern unsigned int prov_ozu;
//   77 
//   78 void clr_cntr_nat(void);
//   79 void form_buf_tx_ppp(void);
//   80 
//   81 unsigned char check_cts(void);
//   82 void clr_cntr_link(void);
//   83 
//   84 void RdFromFleshToArr(unsigned int adres_flesh, unsigned char *adres_ozu,unsigned int num);
//   85 void WrArrayToFlesh(unsigned int adres_flesh,  unsigned char *adres_ozu, unsigned int num,unsigned char flag,unsigned char znach);
//   86 
//   87 void send_err485(unsigned char port,unsigned char err,unsigned char id,unsigned int dst);
//   88 
//   89 
//   90 extern unsigned char point_log_buf;
//   91 
//   92   struct
//   93   {
//   94   unsigned char  ip         :1;
//   95   unsigned char  udp        :1;
//   96   unsigned char  num_self   :1;
//   97   unsigned char cnt_reset;

        RSEG NEAR_Z:DATA:NOROOT(0)
        REQUIRE `?<Segment init: NEAR_Z>`
//   98   }fl_rewrite;
//   99 
//  100 ///!!!!!!!!!!!!!!!!!!!!!!!!!!!!!!!!!!!äë˙ ĐĐĐ
//  101 extern  struct
//  102  {
//  103   unsigned char data[VOL_RX_PPP];//ńŕě áóôĺđ
//  104   unsigned int ln_data;  // äëčíŕ äŕííűő
//  105   enum bool rec; // ďŕęĺň ďđčí˙ň
//  106   enum bool busy;// áóôĺđ çŕí˙ň
//  107   enum bool check_busy;// ďđîâĺđęŕ çŕí˙ň ëč áóôĺđ
//  108  }Buf1_rx_ppp,Buf2_rx_ppp; // 
//  109 
//  110 
//  111 
//  112 
//  113 extern enum t_event_modem event_modem;
//  114 
//  115 extern unsigned char buf_tx_232[VOL_TX_PPP];
//  116 extern unsigned int count_tx_ppp,vol_tx_ppp;
//  117 extern unsigned char layer_PPP;
//  118 
//  119 struct
//  120  {
//  121   unsigned char act_lcp_end :1;  
//  122   unsigned char lcp_tm_out_en :1;
//  123   unsigned char t0_pl:1;
//  124   unsigned char t0_mi:1;
//  125  }fl_lcp; 
//  126  
//  127 
//  128 struct
//  129  {
//  130   unsigned char act_ipcp_end :1;  
//  131   unsigned char ipcp_tm_out_en :1;
//  132   unsigned char t0_pl:1;
//  133   unsigned char t0_mi:1;
//  134  }fl_ipcp; 
//  135 
//  136 struct
//  137  {
//  138   unsigned char act_ip_end :1; 
//  139   unsigned char ip_tm_cntr_en :1; 
//  140   unsigned char ip_tm_nat_en :1;
//  141  }fl_ip;
//  142 
//  143 
//  144 
//  145   
//  146 struct
//  147  {
//  148   unsigned char act_pap_end :1;  
//  149   unsigned char pap_tm_out_en:1;
//  150   unsigned char t0_pl:1;
//  151   unsigned char t0_mi:1;  
//  152   unsigned char up: 1; 
//  153  }fl_pap; 
//  154 
//  155 
//  156  struct
//  157  {
//  158   unsigned char up :1;  
//  159   unsigned char down :1;
//  160  }fl_lcp1; 
//  161 
//  162 
//  163 struct
//  164  {
//  165   unsigned char up :1;  
//  166   unsigned char down :1;
//  167  }fl_ipcp1;
//  168  
//  169  struct
//  170  {
//  171   unsigned char nac_rej :1; // reject - 1 
//  172  }fl_lcp2;
//  173    
//  174  struct
//  175  {
//  176   unsigned char nac_rej :1; // reject - 1 
//  177  }fl_ipcp2;
//  178  
//  179  
//  180 
//  181 unsigned char pap_act_buf,PAP_state,PAP_event;
//  182 unsigned char LCP_state, LCP_event,LCP_act_buf[LCP_ACT_VOL];
//  183 unsigned char IPCP_state, IPCP_event,IPCP_act_buf[IPCP_ACT_VOL];
//  184 unsigned char uk_in_act_LCP,uk_out_act_LCP,uk_in_act_IPCP,uk_out_act_IPCP;
//  185 
//  186 unsigned char cnt_rst_lcp,vol_cnt_rst_lcp;
//  187 unsigned char cnt_rst_ipcp,vol_cnt_rst_ipcp;                       
//  188 unsigned char cnt_rst_pap,vol_cnt_rst_pap;       
//  189                       
//  190                         
//  191 unsigned int cnt_lcp_tm_out,cnt_ipcp_tm_out;
//  192 unsigned int cnt_pap_tm_out;
//  193 unsigned long int cnt_ip_tm_cntr;
//  194 unsigned char rcvd_protokol;
//  195 
//  196 unsigned char  i_scr_lcp,i_scan_lcp;
//  197 unsigned char  i_scj_lcp;//čäĺíňčôčęŕňîđű lcp
//  198 unsigned char  i_str_lcp,i_sta_lcp;
//  199  
//  200 unsigned char  i_scr_ipcp,i_scan_ipcp;
//  201 unsigned char  i_scj_ipcp;//čäĺíňčôčęŕňîđű ipcp
//  202 unsigned char  i_str_ipcp,i_sta_ipcp; 
//  203  
//  204   
//  205 unsigned char  i_scr_pap;
//  206 
//  207 
//  208 unsigned char buf_rejc_opt_lcp[MAX_DL_LCP-6];
//  209 unsigned char buf_ack_opt_lcp[MAX_DL_LCP-12];
//  210 unsigned char buf_nak_opt_lcp[MAX_DL_LCP-12];
//  211 unsigned char buf_rej_opt_lcp[MAX_DL_LCP-12];
//  212 
//  213 unsigned char buf_rejc_opt_ipcp[MAX_DL_IPCP-4];
//  214 unsigned char buf_ack_opt_ipcp[MAX_DL_IPCP-10];
//  215 unsigned char buf_nak_opt_ipcp[MAX_DL_IPCP-10];
//  216 unsigned char buf_rej_opt_ipcp[MAX_DL_IPCP-10];
//  217  
//  218 
//  219 unsigned char ln_rejc_lcp,ln_rej_lcp,ln_ack_lcp,ln_nak_lcp;
//  220 
//  221 unsigned char ln_rejc_ipcp,ln_rej_ipcp,ln_ack_ipcp,ln_nak_ipcp;
//  222 
//  223 
//  224 extern struct                   //ńňđóęňóđŕ, îďčńűâŕţůŕ˙ îáúĺęň ďĺđĺäŕ÷č ďî PPP 
//  225   {  
//  226   enum bool link_no ; //ńâ˙çč íĺň
//  227   enum bool link_waits; //îćčäŕíčĺ ęâčňęŕ íŕ ęîíňđîëü ńâ˙çč
//  228   enum bool link;      //ęîíňđîëü ńâ˙çč    
//  229   enum bool nat;      //ęîíňđîëü nat 
//  230   unsigned int cnt_link; // ń÷ĺň÷čę
//  231   unsigned int cnt_nat; // ń÷ĺň÷čę
//  232   unsigned int vol_link; // çíŕ÷ĺíčĺ  
//  233   unsigned int vol_nat; // //çíŕ÷ĺíčĺ 
//  234   unsigned int vol_waits; // çíŕ÷ĺíčĺ âđĺěĺíč ęâčňęŕ îćčäŕíč˙ ęîíňđîë˙ ńâ˙çč
//  235   unsigned char cnt_try; // ń÷ĺň÷čę ďîďűňîę ďîëó÷čňü ęâčňîę
//  236   unsigned char vol_try; // rjkbxtcndj ďîďűňîę ďîëó÷čňü ęâčňîę
//  237   }Control;
//  238 
//  239  extern unsigned char ip_self[4];
//  240  unsigned char ip_pri_dns[4],ip_sec_dns[4]; 
//  241   //EEEEEEEEEEEEEEEEEEEEEEEEEEEEEEEEEEEEEEEEE 
//  242 
//  243  
//  244  
//  245  
//  246    //!!!!!!!!!!!!!!!!!!!!!!!!!!!!!ńňđóęňóđű ďđčëîćĺíč˙
//  247 extern struct
//  248 {
//  249 unsigned char id;
//  250 unsigned int p_in;// óęŕçŕňĺëü ńâîáîäíîé ˙÷ĺéęč
//  251 unsigned int p_out;
//  252 unsigned int p_out_kv;
//  253 unsigned int crc;
//  254 unsigned int cnt_waits; // ń÷ĺň÷čę îćčäŕíč˙ ęâčňęŕ
//  255 unsigned char cnt_try; // ń÷ĺň÷čę ďîďűňîę ďîëó÷čňü ęâčňîę 
//  256 unsigned int l_data; // äëčíŕ ďîńűëŕĺěűő äŕííűő
//  257 unsigned char state;
//  258 unsigned char event;
//  259 unsigned int tm_vzat;
//  260 unsigned int vol_tm_vzat;
//  261 enum bool cntr_cl;
//  262 enum bool en_cntr_cl;
//  263 unsigned int cnt_cntr_cl;
//  264 unsigned int vol_cntr_cl;
//  265 }Appl_seq;
//  266 
//  267 extern unsigned char Appl_seq_des;
//  268 extern unsigned char state_seq;
//  269 
//  270 
//  271 
//  272 extern struct
//  273 {
//  274 unsigned char en_tx :1;
//  275 unsigned char kv_waits :1;
//  276 unsigned char en_povtor:1;
//  277 }fl_appl_seq;
//  278 
//  279 extern struct
//  280 {
//  281 unsigned char over_buf :1;
//  282 unsigned char send_state :1;
//  283 unsigned char enable:1; 
//  284 }fl_appl_seq1; 
//  285 
//  286 
//  287 extern unsigned char byte_state_net;
//  288 
//  289   //EEEEEEEEEEEEEEEEEEEEEEEEEEEEEEEEEEEEEEEEE
//  290  
//  291  unsigned int  delay_pre_tx;
//  292  
//  293  
//  294 //!!!!!!!!!!!!!!!11óäŕëĺííŕ˙ çŕăđóçęŕ 
//  295 unsigned char off_buf,total_kol_page;
//  296 unsigned int pagee;
//  297 unsigned char contr_gluk1, contr_gluk2;
//  298 unsigned char *array_in_232; 
//  299 unsigned char reboot_byte;
//  300  
//  301  struct
//  302  {
//  303  unsigned char  end_pg      :1;// ôëŕă ďîńëĺäíĺé ńňđŕíčöű
//  304  unsigned char  ch_crc      :1;// ôëŕă ďđîâĺđęč crc
//  305  unsigned char  send_kv     :1;//ôëŕă îňńűëęč ęâčňęŕ
//  306  unsigned char  cor_pg      :1;// ôëŕă ęîđđĺęňíîé ńňđŕíčöű äŕëüřĺ
//  307  unsigned char  first_pg    :1;//ôëŕă ďĺđâîé ńňđŕíčöű
//  308  unsigned char  hold_pg     :1;// ôëŕă çŕőâŕňŕ äŕííűő
//  309  unsigned char  send_crc     :1;// ôëŕă ďîńűëęč îďöčč ŃĐŃ
//  310  //unsigned char  yes_crc     :1;// âĺđíűé crc
//  311  }fl_pg_out;
//  312  
//  313  unsigned int pg_crc; //çíŕ÷ĺíčĺ crc ęóńęŕ äŕííűő
//  314  unsigned int cnt_pg;// đĺŕëüíűé ń÷ĺň÷čę ńňđŕíčö
//  315  unsigned char id_pg_kp;//öčęëč÷ĺńęčé čäĺíňčôčęŕňîđ ńňđŕíčö ęîíňđîëëĺđŕ
//  316  unsigned char id_pg_appl;//öčęëč÷ĺńęčé čäĺíňčôčęŕňîđ ńňđŕíčö âĺđőíĺăî ďđčëîćĺíč˙
//  317  
//  318  //EEEEEEEEEEEEEEEEEEEEEEEEEEEEEEEEEEE
//  319  
//  320  
//  321 extern unsigned char Appl_RS485_1_data_buf[LN_BUF_485_1];// ńŕě áóôĺđ
//  322 extern unsigned char Appl_RS485_2_data_buf[LN_BUF_485_2];// ńŕě áóôĺđ
//  323 extern unsigned char Appl_RS232_2_data_buf[LN_BUF_232_2];// ńŕě áóôĺđ
//  324  
//  325 extern struct                   //ńňđóęňóđŕ îďčńűâŕţůŕ˙ đŕáîňó ďđčëîćĺíč˙ "RS485_1" 
//  326   {  
//  327   enum bool fl_data_buf; //čěĺĺňń˙ ëč çŕáóôĺđčçčđîâŕííűé ďŕęĺň äë˙ ďĺđĺäŕ÷č â ďîđň RS485_1
//  328   unsigned int ln_data_buf; // çŕáóôĺđčçčđîâŕííŕ˙ äëčíŕ áóôĺđŕ
//  329   unsigned int dst_buf; // çŕáóôĺđčçčđîâŕííűé ďîëó÷ŕňĺëü
//  330   unsigned char cont_buf[8];// çŕáóôĺđčçčđîâŕííűé ęîíňĺęńň
//  331   unsigned char id_buf; // çŕáóôĺđčçčđîâŕííűé id
//  332   unsigned int dst_tek;// ňĺęóůčé ďîëó÷ŕňĺëü
//  333   unsigned char id_tek; // ňĺęóůčé id
//  334   unsigned int pre_tx;//çŕäĺđćęŕ ďĺđĺä ďĺđĺäŕ÷ĺé
//  335   }Appl_RS485_1,Appl_RS485_2,Appl_RS232_2;
//  336 
//  337 /*  
//  338 extern struct
//  339  {
//  340  unsigned char mon1 : 1;
//  341  unsigned char mon2 : 1;
//  342  } fl_tx485;
//  343 */ 
//  344 
//  345 extern struct
//  346  {
//  347  unsigned char busy : 1;
//  348  unsigned char rec : 1;
//  349  unsigned char tm_out : 1;
//  350  unsigned char tx : 1;
//  351  unsigned char over : 1;
//  352  unsigned char buffed : 1;
//  353  }fl_485_1,fl_485_2,fl_232_2;
//  354 
//  355  
//  356  
//  357 
//  358 
//  359 
//  360  struct                   //ńňđóęňóđŕ, îďčńűâŕţůŕ˙ îáúĺęň ďĺđĺäŕ÷č ďî PPP 
//  361   {  
//  362   enum bool prozr;      //âĺđńč˙       
//  363   enum t_version version;      //âĺđńč˙ 
//  364   enum t_type   type_pac;     //ňčď ďŕęĺňŕ
//  365   unsigned int num_src; // íîěĺđ îňďđŕâčňĺë˙
//  366   unsigned int num_dst; // íîěĺđ ďîëó÷ŕňĺë˙
//  367   unsigned char id_pac; // čäĺíňčôčęŕňîđ ďŕęĺňŕ  
//  368   unsigned char * p_opt; // //óęŕçŕňĺëü áóôĺđŕ îďöčé  
//  369   unsigned char l_opt;// äëčíŕ áóôĺđŕ îďöčé   
//  370   unsigned char kol_opt;// ęîëč÷ĺńňâî îďöčé   
//  371   unsigned char * p_data;  //óęŕçŕňĺëü áóôĺđŕ äŕííűő
//  372   unsigned int l_data;   // äëčíŕ äŕííűő
//  373   }Obj_ppp_tx;
Obj_ppp_tx:
        DS 16
delay_pre_tx:
        DS 2
pagee:
        DS 2
array_in_232:
        DS 2
pg_crc:
        DS 2
cnt_pg:
        DS 2
fl_rewrite:
        DS 2
off_buf:
        DS 1
total_kol_page:
        DS 1
contr_gluk1:
        DS 1
contr_gluk2:
        DS 1
reboot_byte:
        DS 1
fl_pg_out:
        DS 1
id_pg_kp:
        DS 1
id_pg_appl:
        DS 1

        RSEG NEAR_Z:DATA:NOROOT(0)
        REQUIRE `?<Segment init: NEAR_Z>`
ip_pri_dns:
        DS 4
ip_sec_dns:
        DS 4
cnt_lcp_tm_out:
        DS 2
fl_lcp:
        DS 1
fl_ipcp:
        DS 1
fl_ip:
        DS 1
fl_pap:
        DS 1
fl_lcp2:
        DS 1
fl_ipcp2:
        DS 1
pap_act_buf:
        DS 1
PAP_state:
        DS 1
PAP_event:
        DS 1
LCP_event:
        DS 1
LCP_act_buf:
        DS 15
IPCP_event:
        DS 1
uk_in_act_LCP:
        DS 1
uk_out_act_LCP:
        DS 1
uk_in_act_IPCP:
        DS 1
uk_out_act_IPCP:
        DS 1
cnt_rst_lcp:
        DS 1
vol_cnt_rst_lcp:
        DS 1
cnt_rst_ipcp:
        DS 1
vol_cnt_rst_ipcp:
        DS 1
rcvd_protokol:
        DS 1
i_scr_lcp:
        DS 1
i_scan_lcp:
        DS 1
i_scj_lcp:
        DS 1
i_str_lcp:
        DS 1
i_sta_lcp:
        DS 1
i_scr_ipcp:
        DS 1
i_scan_ipcp:
        DS 1
i_str_ipcp:
        DS 1
i_sta_ipcp:
        DS 1
i_scr_pap:
        DS 1
ln_rejc_lcp:
        DS 1
ln_rej_lcp:
        DS 1
ln_ack_lcp:
        DS 1
ln_nak_lcp:
        DS 1
ln_rejc_ipcp:
        DS 1
ln_rej_ipcp:
        DS 1
ln_ack_ipcp:
        DS 1
ln_nak_ipcp:
        DS 1

        RSEG NEAR_Z:DATA:NOROOT(0)
        REQUIRE `?<Segment init: NEAR_Z>`
fl_lcp1:
        DS 1
LCP_state:
        DS 1

        RSEG NEAR_Z:DATA:NOROOT(0)
        REQUIRE `?<Segment init: NEAR_Z>`
cnt_pap_tm_out:
        DS 2
fl_ipcp1:
        DS 1
IPCP_state:
        DS 1
IPCP_act_buf:
        DS 10
cnt_rst_pap:
        DS 1
vol_cnt_rst_pap:
        DS 1
buf_nak_opt_ipcp:
        DS 25

        RSEG NEAR_Z:DATA:NOROOT(0)
        REQUIRE `?<Segment init: NEAR_Z>`
cnt_ipcp_tm_out:
        DS 2
buf_rejc_opt_ipcp:
        DS 31
buf_ack_opt_ipcp:
        DS 25

        RSEG NEAR_Z:DATA:NOROOT(0)
        REQUIRE `?<Segment init: NEAR_Z>`
cnt_ip_tm_cntr:
        DS 4

        RSEG NEAR_Z:DATA:NOROOT(0)
        REQUIRE `?<Segment init: NEAR_Z>`
i_scj_ipcp:
        DS 1

        RSEG NEAR_Z:DATA:NOROOT(0)
        REQUIRE `?<Segment init: NEAR_Z>`
buf_rejc_opt_lcp:
        DS 34

        RSEG NEAR_Z:DATA:NOROOT(0)
        REQUIRE `?<Segment init: NEAR_Z>`
buf_ack_opt_lcp:
        DS 28
buf_nak_opt_lcp:
        DS 28

        RSEG NEAR_Z:DATA:NOROOT(0)
        REQUIRE `?<Segment init: NEAR_Z>`
buf_rej_opt_lcp:
        DS 28

        RSEG NEAR_Z:DATA:NOROOT(0)
        REQUIRE `?<Segment init: NEAR_Z>`
buf_rej_opt_ipcp:
        DS 25
//  374 
//  375  extern unsigned char buf_opt_tr[20]; 
//  376  
//  377  

        RSEG NEAR_F:CODE:NOROOT(0)
//  378  __flash unsigned int fcstab[256] = {
fcstab:
        DW 0, 4489, 8978, 12955, 17956, 22445, 25910, 29887, 35912, 40385
        DW 44890, 48851, 51820, 56293, 59774, 63735, 4225, 264, 13203, 8730
        DW 22181, 18220, 30135, 25662, 40137, 36160, 49115, 44626, 56045, 52068
        DW 63999, 59510, 8450, 12427, 528, 5017, 26406, 30383, 17460, 21949
        DW 44362, 48323, 36440, 40913, 60270, 64231, 51324, 55797, 12675, 8202
        DW 4753, 792, 30631, 26158, 21685, 17724, 48587, 44098, 40665, 36688
        DW 64495, 60006, 55549, 51572, 16900, 21389, 24854, 28831, 1056, 5545
        DW 10034, 14011, 52812, 57285, 60766, 64727, 34920, 39393, 43898, 47859
        DW 21125, 17164, 29079, 24606, 5281, 1320, 14259, 9786, 57037, 53060
        DW 64991, 60502, 39145, 35168, 48123, 43634, 25350, 29327, 16404, 20893
        DW 9506, 13483, 1584, 6073, 61262, 65223, 52316, 56789, 43370, 47331
        DW 35448, 39921, 29575, 25102, 20629, 16668, 13731, 9258, 5809, 1848
        DW 65487, 60998, 56541, 52564, 47595, 43106, 39673, 35696, 33800, 38273
        DW 42778, 46739, 49708, 54181, 57662, 61623, 2112, 6601, 11090, 15067
        DW 20068, 24557, 28022, 31999, 38025, 34048, 47003, 42514, 53933, 49956
        DW 61887, 57398, 6337, 2376, 15315, 10842, 24293, 20332, 32247, 27774
        DW 42250, 46211, 34328, 38801, 58158, 62119, 49212, 53685, 10562, 14539
        DW 2640, 7129, 28518, 32495, 19572, 24061, 46475, 41986, 38553, 34576
        DW 62383, 57894, 53437, 49460, 14787, 10314, 6865, 2904, 32743, 28270
        DW 23797, 19836, 50700, 55173, 58654, 62615, 32808, 37281, 41786, 45747
        DW 19012, 23501, 26966, 30943, 3168, 7657, 12146, 16123, 54925, 50948
        DW 62879, 58390, 37033, 33056, 46011, 41522, 23237, 19276, 31191, 26718
        DW 7393, 3432, 16371, 11898, 59150, 63111, 50204, 54677, 41258, 45219
        DW 33336, 37809, 27462, 31439, 18516, 23005, 11618, 15595, 3696, 8185
        DW 63375, 58886, 54429, 50452, 45483, 40994, 37561, 33584, 31687, 27214
        DW 22741, 18780, 15843, 11370, 7921, 3960
//  379       0x0000, 0x1189, 0x2312, 0x329b, 0x4624, 0x57ad, 0x6536, 0x74bf,
//  380       0x8c48, 0x9dc1, 0xaf5a, 0xbed3, 0xca6c, 0xdbe5, 0xe97e, 0xf8f7,
//  381       0x1081, 0x0108, 0x3393, 0x221a, 0x56a5, 0x472c, 0x75b7, 0x643e,
//  382       0x9cc9, 0x8d40, 0xbfdb, 0xae52, 0xdaed, 0xcb64, 0xf9ff, 0xe876,
//  383       0x2102, 0x308b, 0x0210, 0x1399, 0x6726, 0x76af, 0x4434, 0x55bd,
//  384       0xad4a, 0xbcc3, 0x8e58, 0x9fd1, 0xeb6e, 0xfae7, 0xc87c, 0xd9f5,
//  385       0x3183, 0x200a, 0x1291, 0x0318, 0x77a7, 0x662e, 0x54b5, 0x453c,
//  386       0xbdcb, 0xac42, 0x9ed9, 0x8f50, 0xfbef, 0xea66, 0xd8fd, 0xc974,
//  387       0x4204, 0x538d, 0x6116, 0x709f, 0x0420, 0x15a9, 0x2732, 0x36bb,
//  388       0xce4c, 0xdfc5, 0xed5e, 0xfcd7, 0x8868, 0x99e1, 0xab7a, 0xbaf3,
//  389       0x5285, 0x430c, 0x7197, 0x601e, 0x14a1, 0x0528, 0x37b3, 0x263a,
//  390       0xdecd, 0xcf44, 0xfddf, 0xec56, 0x98e9, 0x8960, 0xbbfb, 0xaa72,
//  391       0x6306, 0x728f, 0x4014, 0x519d, 0x2522, 0x34ab, 0x0630, 0x17b9,
//  392       0xef4e, 0xfec7, 0xcc5c, 0xddd5, 0xa96a, 0xb8e3, 0x8a78, 0x9bf1,
//  393       0x7387, 0x620e, 0x5095, 0x411c, 0x35a3, 0x242a, 0x16b1, 0x0738,
//  394       0xffcf, 0xee46, 0xdcdd, 0xcd54, 0xb9eb, 0xa862, 0x9af9, 0x8b70,
//  395       0x8408, 0x9581, 0xa71a, 0xb693, 0xc22c, 0xd3a5, 0xe13e, 0xf0b7,
//  396       0x0840, 0x19c9, 0x2b52, 0x3adb, 0x4e64, 0x5fed, 0x6d76, 0x7cff,
//  397       0x9489, 0x8500, 0xb79b, 0xa612, 0xd2ad, 0xc324, 0xf1bf, 0xe036,
//  398       0x18c1, 0x0948, 0x3bd3, 0x2a5a, 0x5ee5, 0x4f6c, 0x7df7, 0x6c7e,
//  399       0xa50a, 0xb483, 0x8618, 0x9791, 0xe32e, 0xf2a7, 0xc03c, 0xd1b5,
//  400       0x2942, 0x38cb, 0x0a50, 0x1bd9, 0x6f66, 0x7eef, 0x4c74, 0x5dfd,
//  401       0xb58b, 0xa402, 0x9699, 0x8710, 0xf3af, 0xe226, 0xd0bd, 0xc134,
//  402       0x39c3, 0x284a, 0x1ad1, 0x0b58, 0x7fe7, 0x6e6e, 0x5cf5, 0x4d7c,
//  403       0xc60c, 0xd785, 0xe51e, 0xf497, 0x8028, 0x91a1, 0xa33a, 0xb2b3,
//  404       0x4a44, 0x5bcd, 0x6956, 0x78df, 0x0c60, 0x1de9, 0x2f72, 0x3efb,
//  405       0xd68d, 0xc704, 0xf59f, 0xe416, 0x90a9, 0x8120, 0xb3bb, 0xa232,
//  406       0x5ac5, 0x4b4c, 0x79d7, 0x685e, 0x1ce1, 0x0d68, 0x3ff3, 0x2e7a,
//  407       0xe70e, 0xf687, 0xc41c, 0xd595, 0xa12a, 0xb0a3, 0x8238, 0x93b1,
//  408       0x6b46, 0x7acf, 0x4854, 0x59dd, 0x2d62, 0x3ceb, 0x0e70, 0x1ff9,
//  409       0xf78f, 0xe606, 0xd49d, 0xc514, 0xb1ab, 0xa022, 0x92b9, 0x8330,
//  410       0x7bc7, 0x6a4e, 0x58d5, 0x495c, 0x3de3, 0x2c6a, 0x1ef1, 0x0f78
//  411    };
//  412 
//  413 
//  414  

        RSEG CODE:CODE:NOROOT(1)
//  415  void prov_uk_in(void)
prov_uk_in:
        CFI Block cfiBlock0 Using cfiCommon0
        CFI Function prov_uk_in
//  416    {        
//  417           unsigned char temp;
//  418           
//  419           uk_in_act_LCP++;
        LDI	R30, LOW(ip_pri_dns)
        LDI	R31, (ip_pri_dns) >> 8
        LDD	R16, Z+36
        INC	R16
        STD	Z+36, R16
//  420           if(uk_in_act_LCP>=LCP_ACT_VOL)uk_in_act_LCP=0;         
        LDD	R16, Z+36
        CPI	R16, 15
        BRCS	??prov_uk_in_0
        LDI	R16, 0
        STD	Z+36, R16
//  421           if(uk_out_act_LCP==0)temp=LCP_ACT_VOL-1;else temp=uk_out_act_LCP-1;
??prov_uk_in_0:
        LDD	R16, Z+37
        TST	R16
        BRNE	??prov_uk_in_1
        LDI	R16, 14
        RJMP	??prov_uk_in_2
??prov_uk_in_1:
        DEC	R16
//  422        //   if(uk_in_act_LCP==temp){write_log_info(ST_ERROR,ERR3);lock_it();}//ďĺđĺďîëíĺíčĺ áóôĺđŕ
//  423          if(uk_in_act_LCP==temp)event_modem=EVM_PPP_ERR;//ďĺđĺďîëíĺíčĺ áóôĺđŕ
??prov_uk_in_2:
        LDD	R17, Z+36
        CP	R17, R16
        BRNE	??prov_uk_in_3
        LDI	R16, 5
        STS	event_modem, R16
//  424     }  
??prov_uk_in_3:
        RET
        CFI EndBlock cfiBlock0
//  425    
//  426    

        RSEG CODE:CODE:NOROOT(1)
//  427    void prov_uk_in_ipcp(void)
prov_uk_in_ipcp:
        CFI Block cfiBlock1 Using cfiCommon0
        CFI Function prov_uk_in_ipcp
//  428    {        
//  429           unsigned char temp;
//  430           
//  431           uk_in_act_IPCP++;
        LDI	R30, LOW(ip_pri_dns)
        LDI	R31, (ip_pri_dns) >> 8
        LDD	R16, Z+38
        INC	R16
        STD	Z+38, R16
//  432           if(uk_in_act_IPCP>=IPCP_ACT_VOL)uk_in_act_IPCP=0;         
        LDD	R16, Z+38
        CPI	R16, 10
        BRCS	??prov_uk_in_ipcp_0
        LDI	R16, 0
        STD	Z+38, R16
//  433           if(uk_out_act_IPCP==0)temp=IPCP_ACT_VOL-1;else temp=uk_out_act_IPCP-1;
??prov_uk_in_ipcp_0:
        LDD	R16, Z+39
        TST	R16
        BRNE	??prov_uk_in_ipcp_1
        LDI	R16, 9
        RJMP	??prov_uk_in_ipcp_2
??prov_uk_in_ipcp_1:
        DEC	R16
//  434         //  if(uk_in_act_IPCP==temp){write_log_info(ST_ERROR,ERR4);lock_it();}//ďĺđĺďîëíĺíčĺ áóôĺđŕ
//  435           if(uk_in_act_IPCP==temp)event_modem=EVM_PPP_ERR;//ďĺđĺďîëíĺíčĺ áóôĺđŕ
??prov_uk_in_ipcp_2:
        LDD	R17, Z+38
        CP	R17, R16
        BRNE	??prov_uk_in_ipcp_3
        LDI	R16, 5
        STS	event_modem, R16
//  436          
//  437     }   
??prov_uk_in_ipcp_3:
        RET
        CFI EndBlock cfiBlock1
//  438  
//  439  
//  440  
//  441  

        RSEG CODE:CODE:NOROOT(1)
//  442 unsigned int pppfcs16(unsigned int fcs,unsigned char *cp,unsigned int len)
pppfcs16:
        CFI Block cfiBlock2 Using cfiCommon0
        CFI Function pppfcs16
//  443 
//  444    {
        RJMP	??pppfcs16_0
//  445 
//  446        while (len--)
//  447            fcs=(fcs >> 8) ^ fcstab[(fcs ^ *cp++) & 0xff];
??pppfcs16_1:
        MOVW	R3:R2, R17:R16
        LDI	R22, LOW(fcstab)
        LDI	R23, (fcstab) >> 8
        MOVW	R31:R30, R19:R18
        LD	R0, Z+
        MOVW	R19:R18, R31:R30
        MOV	R30, R0
        EOR	R30, R2
        LDI	R31, 0
        LSL	R30
        ROL	R31
        ADD	R22, R30
        ADC	R23, R31
        MOVW	R31:R30, R23:R22
        LPM	R16, Z+
        LPM	R17, Z
        EOR	R16, R3
??pppfcs16_0:
        MOVW	R23:R22, R21:R20
        SUBI	R20, 1
        SBCI	R21, 0
        OR	R22, R23
        BRNE	??pppfcs16_1
//  448        return (fcs);
        RET
        CFI EndBlock cfiBlock2
//  449    }
//  450 
//  451 

        RSEG CODE:CODE:NOROOT(1)
//  452 void run_lcp_act(void)
run_lcp_act:
        CFI Block cfiBlock3 Using cfiCommon0
        CFI Function run_lcp_act
//  453       {  
        FUNCALL run_lcp_act, pppfcs16
        LOCFRAME CSTACK, 7, STACK
        LOCFRAME RSTACK, 2, STACK
        FUNCALL run_lcp_act, check_cts
        LOCFRAME CSTACK, 7, STACK
        LOCFRAME RSTACK, 2, STACK
        FUNCALL run_lcp_act, pppfcs16
        LOCFRAME CSTACK, 7, STACK
        LOCFRAME RSTACK, 2, STACK
        FUNCALL run_lcp_act, check_cts
        LOCFRAME CSTACK, 7, STACK
        LOCFRAME RSTACK, 2, STACK
        FUNCALL run_lcp_act, pppfcs16
        LOCFRAME CSTACK, 7, STACK
        LOCFRAME RSTACK, 2, STACK
        FUNCALL run_lcp_act, check_cts
        LOCFRAME CSTACK, 7, STACK
        LOCFRAME RSTACK, 2, STACK
        FUNCALL run_lcp_act, pppfcs16
        LOCFRAME CSTACK, 7, STACK
        LOCFRAME RSTACK, 2, STACK
        FUNCALL run_lcp_act, check_cts
        LOCFRAME CSTACK, 7, STACK
        LOCFRAME RSTACK, 2, STACK
        FUNCALL run_lcp_act, pppfcs16
        LOCFRAME CSTACK, 7, STACK
        LOCFRAME RSTACK, 2, STACK
        FUNCALL run_lcp_act, check_cts
        LOCFRAME CSTACK, 7, STACK
        LOCFRAME RSTACK, 2, STACK
        FUNCALL run_lcp_act, pppfcs16
        LOCFRAME CSTACK, 7, STACK
        LOCFRAME RSTACK, 2, STACK
        FUNCALL run_lcp_act, check_cts
        LOCFRAME CSTACK, 7, STACK
        LOCFRAME RSTACK, 2, STACK
        FUNCALL run_lcp_act, pppfcs16
        LOCFRAME CSTACK, 7, STACK
        LOCFRAME RSTACK, 2, STACK
        FUNCALL run_lcp_act, check_cts
        LOCFRAME CSTACK, 7, STACK
        LOCFRAME RSTACK, 2, STACK
        CALL	?PROLOGUE5_L09
        CFI R4 Frame(CFA_Y, -1)
        CFI R27 Frame(CFA_Y, -2)
        CFI R26 Frame(CFA_Y, -3)
        CFI R25 Frame(CFA_Y, -4)
        CFI R24 Frame(CFA_Y, -5)
        CFI CFA_Y Y+5
        REQUIRE	?Register_R4_is_cg_reg
        SBIW	R29:R28, 2
        CFI CFA_Y Y+7
//  454        unsigned char i;
//  455        
//  456        union
//  457      {
//  458       unsigned char bytes[2]; 
//  459       unsigned int word;
//  460      }temp;
//  461       
//  462        
//  463        switch (LCP_act_buf[uk_out_act_LCP])
        LDI	R24, LOW(ip_pri_dns)
        LDI	R25, (ip_pri_dns) >> 8
        MOVW	R31:R30, R25:R24
        LDD	R4, Z+46
        LDI	R26, LOW(buf_tx_232)
        LDI	R27, (buf_tx_232) >> 8
        LDD	R16, Z+37
        LDI	R17, 0
        ADD	R30, R16
        ADC	R31, R17
        LDD	R16, Z+20
        LDI	R30, LOW(`?<Jumptable for run_lcp_act>_0`)
        LDI	R31, (`?<Jumptable for run_lcp_act>_0`) >> 16
        OUT	0x3B, R31
        LDI	R31, HIGH(`?<Jumptable for run_lcp_act>_0`)
        JMP	?CV_SWITCH_L06
//  464           {
//  465            case TLU:    
//  466                 
//  467 
//  468                  
//  469                 fl_pap.up=1;
??run_lcp_act_0:
        MOVW	R31:R30, R25:R24
        LDD	R16, Z+13
        ORI	R16, 0x10
        STD	Z+13, R16
//  470                 fl_lcp.act_lcp_end=0;
//  471                 PAP_state=START_ST;
        LDI	R16, 1
        STD	Z+17, R16
//  472                 layer_PPP=LAYER_PAP;      
        LDI	R16, 2
        STS	layer_PPP, R16
//  473                 fl_lcp.act_lcp_end=1;
??run_lcp_act_1:
        LDD	R16, Z+10
        ORI	R16, 0x01
??run_lcp_act_2:
        STD	Z+10, R16
        RJMP	??run_lcp_act_3
//  474               break;
//  475            case TLD:  
//  476                 fl_lcp.act_lcp_end=0;
//  477                 layer_PPP=LAYER_LCP;  
??run_lcp_act_4:
        LDI	R16, 1
        STS	layer_PPP, R16
//  478                 fl_lcp.act_lcp_end=1; 
        MOVW	R31:R30, R25:R24
        RJMP	??run_lcp_act_1
//  479                 break;
//  480            case TLS:   
//  481                 fl_lcp.act_lcp_end=0;
??run_lcp_act_5:
        MOVW	R31:R30, R25:R24
        LDD	R16, Z+10
        ANDI	R16, 0xFE
        STD	Z+10, R16
//  482                // write_log_info(ST_ERROR,ERR5);
//  483                // lock_it();
//  484                 event_modem=EVM_PPP_ERR; 
        LDI	R16, 5
        STS	event_modem, R16
        RJMP	??run_lcp_act_3
//  485                 break;
//  486            case TLF:  
//  487                 fl_lcp.act_lcp_end=0;
//  488                // write_log_info(ST_ERROR,ERR6);
//  489                // lock_it();
//  490                 event_modem=EVM_PPP_ERR;
//  491                 break;
//  492            case IRC:                   
//  493                 fl_lcp.act_lcp_end=0;
//  494                 cnt_lcp_tm_out=VOL_LCP_TM_OUT; 
??run_lcp_act_6:
        LDI	R16, 184
        LDI	R17, 11
        MOVW	R31:R30, R25:R24
        STD	Z+8, R16
        STD	Z+9, R17
//  495                 cnt_rst_lcp=vol_cnt_rst_lcp;
        LDD	R16, Z+41
        STD	Z+40, R16
//  496                 fl_lcp.lcp_tm_out_en=1; 
//  497                 fl_lcp.act_lcp_end=1; 
        LDD	R16, Z+10
        ORI	R16, 0x03
        RJMP	??run_lcp_act_2
//  498                      
//  499                 break;
//  500            case ZRC:  
//  501                 fl_lcp.act_lcp_end=0;
//  502                 cnt_lcp_tm_out=VOL_LCP_TM_OUT; 
??run_lcp_act_7:
        LDI	R16, 184
        LDI	R17, 11
        MOVW	R31:R30, R25:R24
        STD	Z+8, R16
        STD	Z+9, R17
//  503                 cnt_rst_lcp=0;
        LDI	R16, 0
        STD	Z+40, R16
//  504                 fl_lcp.lcp_tm_out_en=1; 
//  505                 fl_lcp.act_lcp_end=1;  
        LDD	R16, Z+10
        ORI	R16, 0x03
        STD	Z+10, R16
        RJMP	??run_lcp_act_3
//  506                 break;
//  507            case SCR:    
//  508 
//  509                                             
//  510                  fl_lcp.act_lcp_end=0;
??run_lcp_act_8:
        MOVW	R31:R30, R25:R24
        LDD	R16, Z+10
        ANDI	R16, 0xFE
        STD	Z+10, R16
//  511                  buf_tx_232[0]=0x7e; 
        LDI	R16, 126
        ST	X, R16
//  512                  buf_tx_232[1]=0xff;
        LDI	R16, 255
        MOVW	R31:R30, R27:R26
        STD	Z+1, R16
//  513                  buf_tx_232[2]=0x03;
        LDI	R16, 3
        STD	Z+2, R16
//  514                  buf_tx_232[3]=0xc0;
        LDI	R16, 192
        STD	Z+3, R16
//  515                  buf_tx_232[4]=0x21;
        LDI	R16, 33
        STD	Z+4, R16
//  516                  
//  517                  buf_tx_232[5]=CONF_REQ; 
        LDI	R16, 1
        STD	Z+5, R16
//  518                  buf_tx_232[6]=i_scr_lcp;   
        MOVW	R31:R30, R25:R24
        LDD	R16, Z+45
        MOVW	R31:R30, R27:R26
        STD	Z+6, R16
//  519                  
//  520                  buf_tx_232[7]=0; 
        LDI	R16, 0
        STD	Z+7, R16
//  521                  buf_tx_232[8]=0x0e;
        LDI	R16, 14
        STD	Z+8, R16
//  522                  
//  523                  buf_tx_232[9]=2; 
        LDI	R16, 2
        STD	Z+9, R16
//  524                  buf_tx_232[10]=6;
        LDI	R16, 6
        STD	Z+10, R16
//  525                 
//  526                  buf_tx_232[11]=0; 
        LDI	R16, 0
        STD	Z+11, R16
//  527                  buf_tx_232[12]=0x0a; 
        LDI	R16, 10
        STD	Z+12, R16
//  528                  buf_tx_232[13]=0;
        LDI	R16, 0
        STD	Z+13, R16
//  529                  buf_tx_232[14]=0;
        STD	Z+14, R16
//  530                 
//  531               
//  532                 
//  533                  
//  534                  buf_tx_232[15]=7;
        LDI	R16, 7
        STD	Z+15, R16
//  535                  buf_tx_232[16]=2;
        LDI	R16, 2
        STD	Z+16, R16
//  536                  
//  537                  buf_tx_232[17]=8;
        LDI	R16, 8
        STD	Z+17, R16
//  538                  buf_tx_232[18]=2;
        LDI	R16, 2
        STD	Z+18, R16
//  539                  
//  540                  temp.word=pppfcs16(PPPINITFCS16,&buf_tx_232[1],buf_tx_232[8]+4) ^ 0xffff;                
        LDI	R20, 18
        LDI	R21, 0
        MOVW	R19:R18, R27:R26
        SUBI	R18, 255
        SBCI	R19, 255
        LDI	R16, 255
        LDI	R17, 255
        RCALL	pppfcs16
        LDI	R18, 255
        LDI	R19, 255
        EOR	R18, R16
        EOR	R19, R17
        ST	Y, R18
        STD	Y+1, R19
//  541                  buf_tx_232[19]=temp.bytes[0];
        LD	R16, Y
        MOVW	R31:R30, R27:R26
        STD	Z+19, R16
//  542                  buf_tx_232[20]=temp.bytes[1];
        LDD	R16, Y+1
        STD	Z+20, R16
//  543                  
//  544                  buf_tx_232[21]=0x7e; 
        LDI	R16, 126
        STD	Z+21, R16
//  545                  
//  546                 
//  547                  count_tx_ppp=0;
        LDI	R16, 0
        LDI	R17, 0
        LDI	R30, LOW(count_tx_ppp)
        LDI	R31, (count_tx_ppp) >> 8
        ST	Z, R16
        STD	Z+1, R16
//  548                  vol_tx_ppp=buf_tx_232[8]+8;               
        LDI	R16, 22
        LDI	R30, LOW(vol_tx_ppp)
        LDI	R31, (vol_tx_ppp) >> 8
        ST	Z, R16
        STD	Z+1, R17
//  549                 
//  550                  UCSR0A=UCSR0A | TXC; 
        LDS	R16, 192
        ORI	R16, 0x40
        STS	192, R16
//  551                  UCSR0B=UCSR0B | TXEN;
        LDS	R16, 193
        ORI	R16, 0x08
        STS	193, R16
//  552                  UCSR0B=UCSR0B | TXCIE;
        LDS	R16, 193
        ORI	R16, 0x40
        STS	193, R16
//  553                  if(check_cts()==1) return;  
        CALL	check_cts
        CPI	R16, 1
        BRNE	$+2+2
        RJMP	??run_lcp_act_3
//  554                  S2_RD;
        SBI	0x08, 0x00
        CBI	0x08, 0x01
//  555                  UDR0=buf_tx_232[0];
        LD	R16, X
        STS	198, R16
//  556                  if(Regim==RG_DEBAG) UDR3=buf_tx_232[0];
        LDS	R16, Regim
        CPI	R16, 1
        BREQ	$+2+2
        RJMP	??run_lcp_act_3
??run_lcp_act_9:
        LD	R16, X
        STS	310, R16
        RJMP	??run_lcp_act_3
//  557                  
//  558                 
//  559                     
//  560                 break;
//  561            
//  562           case SCA: 
//  563                  fl_lcp.act_lcp_end=0;
??run_lcp_act_10:
        MOVW	R31:R30, R25:R24
        LDD	R16, Z+10
        ANDI	R16, 0xFE
        STD	Z+10, R16
//  564                  buf_tx_232[0]=0x7e; 
        LDI	R16, 126
        ST	X, R16
//  565                  buf_tx_232[1]=0xff;
        LDI	R16, 255
        MOVW	R31:R30, R27:R26
        STD	Z+1, R16
//  566                  buf_tx_232[2]=0x03;
        LDI	R16, 3
        STD	Z+2, R16
//  567                  buf_tx_232[3]=0xc0;
        LDI	R16, 192
        STD	Z+3, R16
//  568                  buf_tx_232[4]=0x21;  
        LDI	R16, 33
        STD	Z+4, R16
//  569                  
//  570                  buf_tx_232[5]=CONF_ACK;
        LDI	R16, 2
        STD	Z+5, R16
//  571                  buf_tx_232[6]=i_scan_lcp;
        STD	Z+6, R4
//  572                  
//  573                  temp.word=ln_ack_lcp+4;
        MOVW	R31:R30, R25:R24
        LDD	R17, Z+57
        MOV	R24, R17
        LDI	R25, 0
        MOVW	R19:R18, R25:R24
        SUBI	R18, 252
        SBCI	R19, 255
        ST	Y, R18
        STD	Y+1, R19
//  574                  buf_tx_232[7]=temp.bytes[1]; 
        LDD	R16, Y+1
        MOVW	R31:R30, R27:R26
        STD	Z+7, R16
//  575                  buf_tx_232[8]=temp.bytes[0];
        LD	R16, Y
        STD	Z+8, R16
//  576                 
//  577                  temp.word=temp.word+4;         
        LD	R18, Y
        LDD	R19, Y+1
        SUBI	R18, 252
        SBCI	R19, 255
        ST	Y, R18
        STD	Y+1, R19
//  578                  vol_tx_ppp=temp.word+4;  
        LD	R18, Y
        LDD	R19, Y+1
        SUBI	R18, 252
        SBCI	R19, 255
        LDI	R30, LOW(vol_tx_ppp)
        LDI	R31, (vol_tx_ppp) >> 8
        ST	Z, R18
        STD	Z+1, R19
//  579                    
//  580                  for(i=0;i<ln_ack_lcp;i++)buf_tx_232[9+i]=buf_ack_opt_lcp[i];
        LDI	R16, 0
        RJMP	??run_lcp_act_11
??run_lcp_act_12:
        MOV	R18, R16
        LDI	R19, 0
        MOVW	R31:R30, R19:R18
        SUBI	R30, LOW((-(buf_ack_opt_lcp) & 0xFFFF))
        SBCI	R31, (-(buf_ack_opt_lcp) & 0xFFFF) >> 8
        LD	R20, Z
        MOVW	R31:R30, R27:R26
        ADD	R30, R18
        ADC	R31, R25
        STD	Z+9, R20
        INC	R16
??run_lcp_act_11:
        CP	R16, R17
        BRCS	??run_lcp_act_12
//  581                  
//  582                  temp.word=pppfcs16(PPPINITFCS16,&buf_tx_232[1],temp.word) ^ 0xffff;                  
??run_lcp_act_13:
        LD	R20, Y
        LDD	R21, Y+1
        MOVW	R19:R18, R27:R26
        SUBI	R18, 255
        SBCI	R19, 255
        LDI	R16, 255
        LDI	R17, 255
        RCALL	pppfcs16
        LDI	R18, 255
        LDI	R19, 255
        EOR	R18, R16
        EOR	R19, R17
        ST	Y, R18
        STD	Y+1, R19
//  583                  buf_tx_232[9+ln_ack_lcp]=temp.bytes[0];
        MOVW	R31:R30, R27:R26
        ADD	R30, R24
        ADC	R31, R25
        LD	R18, Y
        STD	Z+9, R18
//  584                  buf_tx_232[10+ln_ack_lcp]=temp.bytes[1];
        LDD	R18, Y+1
        STD	Z+10, R18
//  585                  buf_tx_232[11+ln_ack_lcp]=0x7e;
        LDI	R16, 126
        STD	Z+11, R16
//  586                  
//  587                  count_tx_ppp=0;                             
        LDI	R30, LOW(count_tx_ppp)
        LDI	R31, (count_tx_ppp) >> 8
        ST	Z, R25
        STD	Z+1, R25
//  588                  UCSR0A=UCSR0A | TXC;                            
??run_lcp_act_14:
        LDS	R16, 192
        ORI	R16, 0x40
        STS	192, R16
//  589                  UCSR0B=UCSR0B | TXEN;
        LDS	R16, 193
        ORI	R16, 0x08
        STS	193, R16
//  590                  UCSR0B=UCSR0B | TXCIE;
        LDS	R16, 193
        ORI	R16, 0x40
        STS	193, R16
//  591                  if(check_cts()==1) return;   
        CALL	check_cts
        CPI	R16, 1
        BRNE	$+2+2
        RJMP	??run_lcp_act_3
//  592                  S2_RD;
        SBI	0x08, 0x00
        CBI	0x08, 0x01
//  593                  UDR0=buf_tx_232[0]; 
        LD	R16, X
        STS	198, R16
//  594                  if(Regim==RG_DEBAG) UDR3=buf_tx_232[0];
        LDS	R16, Regim
        CPI	R16, 1
        BREQ	$+2+2
        RJMP	??run_lcp_act_3
        RJMP	??run_lcp_act_9
//  595                
//  596                  
//  597                 
//  598                   
//  599                 break;
//  600            case SCN:  
//  601 
//  602                  fl_lcp.act_lcp_end=0;
??run_lcp_act_15:
        MOVW	R31:R30, R25:R24
        LDD	R16, Z+10
        ANDI	R16, 0xFE
        STD	Z+10, R16
//  603                  buf_tx_232[0]=0x7e; 
        LDI	R16, 126
        ST	X, R16
//  604                  buf_tx_232[1]=0xff;
        LDI	R16, 255
        MOVW	R31:R30, R27:R26
        STD	Z+1, R16
//  605                  buf_tx_232[2]=0x03;
        LDI	R16, 3
        STD	Z+2, R16
//  606                  buf_tx_232[3]=0xc0;
        LDI	R16, 192
        STD	Z+3, R16
//  607                  buf_tx_232[4]=0x21;   
        LDI	R16, 33
        STD	Z+4, R16
//  608                  
//  609                  if (fl_lcp2.nac_rej==0) 
        MOVW	R31:R30, R25:R24
        LDD	R16, Z+14
        SBRC	R16, 0
        RJMP	??run_lcp_act_16
//  610                      {
//  611                      buf_tx_232[5]=CONF_NAK;                       
        LDI	R16, 3
        MOVW	R31:R30, R27:R26
        STD	Z+5, R16
//  612                      
//  613                      buf_tx_232[6]=i_scan_lcp;
        STD	Z+6, R4
//  614                  
//  615                      temp.word=ln_nak_lcp+4;
        MOVW	R31:R30, R25:R24
        LDD	R17, Z+58
        MOV	R24, R17
        LDI	R25, 0
        MOVW	R19:R18, R25:R24
        SUBI	R18, 252
        SBCI	R19, 255
        ST	Y, R18
        STD	Y+1, R19
//  616                      buf_tx_232[7]=temp.bytes[1]; 
        LDD	R16, Y+1
        MOVW	R31:R30, R27:R26
        STD	Z+7, R16
//  617                      buf_tx_232[8]=temp.bytes[0];
        LD	R16, Y
        STD	Z+8, R16
//  618                     
//  619                     temp.word=temp.word+4;         
        LD	R18, Y
        LDD	R19, Y+1
        SUBI	R18, 252
        SBCI	R19, 255
        ST	Y, R18
        STD	Y+1, R19
//  620                     vol_tx_ppp=temp.word+4;
        LD	R18, Y
        LDD	R19, Y+1
        SUBI	R18, 252
        SBCI	R19, 255
        LDI	R30, LOW(vol_tx_ppp)
        LDI	R31, (vol_tx_ppp) >> 8
        ST	Z, R18
        STD	Z+1, R19
//  621                      
//  622 
//  623                       
//  624                      for(i=0;i<ln_nak_lcp;i++)buf_tx_232[9+i]=buf_nak_opt_lcp[i];
        LDI	R16, 0
        RJMP	??run_lcp_act_17
??run_lcp_act_18:
        MOV	R18, R16
        LDI	R19, 0
        MOVW	R31:R30, R19:R18
        SUBI	R30, LOW((-(buf_ack_opt_lcp) & 0xFFFF))
        SBCI	R31, (-(buf_ack_opt_lcp) & 0xFFFF) >> 8
        LDD	R20, Z+28
        MOVW	R31:R30, R27:R26
        ADD	R30, R18
        ADC	R31, R25
        STD	Z+9, R20
        INC	R16
??run_lcp_act_17:
        CP	R16, R17
        BRCS	??run_lcp_act_18
//  625                      temp.word=pppfcs16(PPPINITFCS16,&buf_tx_232[1],temp.word) ^ 0xffff;                  
        RJMP	??run_lcp_act_13
//  626                      buf_tx_232[9+ln_nak_lcp]=temp.bytes[0];
//  627                      buf_tx_232[10+ln_nak_lcp]=temp.bytes[1];
//  628                      buf_tx_232[11+ln_nak_lcp]=0x7e;
//  629                      
//  630                      count_tx_ppp=0;                             
//  631                      UCSR0A=UCSR0A | TXC;                            
//  632                      UCSR0B=UCSR0B | TXEN;
//  633                      UCSR0B=UCSR0B | TXCIE;
//  634                      if(check_cts()==1) return;   
//  635                      S2_RD;
//  636                      UDR0=buf_tx_232[0];
//  637                      if(Regim==RG_DEBAG) UDR3=buf_tx_232[0];
//  638                      
//  639                      }  
//  640                      else
//  641                      { 
//  642                      fl_lcp2.nac_rej=0;
??run_lcp_act_16:
        LDD	R16, Z+14
        ANDI	R16, 0xFE
        STD	Z+14, R16
//  643                      buf_tx_232[5]=CONF_REJ;  
        LDI	R16, 4
        MOVW	R31:R30, R27:R26
        STD	Z+5, R16
//  644                      buf_tx_232[6]=i_scan_lcp;
        STD	Z+6, R4
//  645                  
//  646                      temp.word=ln_rej_lcp+4;
        MOVW	R31:R30, R25:R24
        LDD	R17, Z+56
        MOV	R24, R17
        LDI	R25, 0
        MOVW	R19:R18, R25:R24
        SUBI	R18, 252
        SBCI	R19, 255
        ST	Y, R18
        STD	Y+1, R19
//  647                      buf_tx_232[7]=temp.bytes[1]; 
        LDD	R16, Y+1
        MOVW	R31:R30, R27:R26
        STD	Z+7, R16
//  648                      buf_tx_232[8]=temp.bytes[0];
        LD	R16, Y
        STD	Z+8, R16
//  649                                  
//  650                     temp.word=temp.word+4;         
        LD	R18, Y
        LDD	R19, Y+1
        SUBI	R18, 252
        SBCI	R19, 255
        ST	Y, R18
        STD	Y+1, R19
//  651                     vol_tx_ppp=temp.word+4; 
        LD	R18, Y
        LDD	R19, Y+1
        SUBI	R18, 252
        SBCI	R19, 255
        LDI	R30, LOW(vol_tx_ppp)
        LDI	R31, (vol_tx_ppp) >> 8
        ST	Z, R18
        STD	Z+1, R19
//  652                      
//  653                      for(i=0;i<ln_rej_lcp;i++)buf_tx_232[9+i]=buf_rej_opt_lcp[i];
        LDI	R16, 0
        RJMP	??run_lcp_act_19
??run_lcp_act_20:
        MOV	R18, R16
        LDI	R19, 0
        MOVW	R31:R30, R19:R18
        SUBI	R30, LOW((-(buf_rej_opt_lcp) & 0xFFFF))
        SBCI	R31, (-(buf_rej_opt_lcp) & 0xFFFF) >> 8
        LD	R20, Z
        MOVW	R31:R30, R27:R26
        ADD	R30, R18
        ADC	R31, R25
        STD	Z+9, R20
        INC	R16
??run_lcp_act_19:
        CP	R16, R17
        BRCS	??run_lcp_act_20
//  654                      temp.word=pppfcs16(PPPINITFCS16,&buf_tx_232[1],temp.word) ^ 0xffff;                  
        LD	R20, Y
        LDD	R21, Y+1
        MOVW	R19:R18, R27:R26
        SUBI	R18, 255
        SBCI	R19, 255
        LDI	R16, 255
        LDI	R17, 255
        RCALL	pppfcs16
        LDI	R18, 255
        LDI	R19, 255
        EOR	R18, R16
        EOR	R19, R17
        ST	Y, R18
        STD	Y+1, R19
//  655                      buf_tx_232[9+ln_rej_lcp]=temp.bytes[0];
        MOVW	R31:R30, R27:R26
        ADD	R30, R24
        ADC	R31, R25
        LD	R18, Y
        STD	Z+9, R18
//  656                      buf_tx_232[10+ln_rej_lcp]=temp.bytes[1];                     
        LDD	R18, Y+1
        STD	Z+10, R18
//  657                      buf_tx_232[11+ln_rej_lcp]=0x7e;                     
        LDI	R16, 126
        STD	Z+11, R16
//  658                     
//  659                      count_tx_ppp=0;                             
        LDI	R30, LOW(count_tx_ppp)
        LDI	R31, (count_tx_ppp) >> 8
        ST	Z, R25
        STD	Z+1, R25
//  660                      UCSR0A=UCSR0A | TXC;                            
??run_lcp_act_21:
        LDS	R16, 192
        ORI	R16, 0x40
        STS	192, R16
//  661                      UCSR0B=UCSR0B | TXEN;
        LDS	R16, 193
        ORI	R16, 0x08
        STS	193, R16
//  662                      UCSR0B=UCSR0B | TXCIE;
        LDS	R16, 193
        ORI	R16, 0x40
        STS	193, R16
//  663                      if(check_cts()==1) return;   
        CALL	check_cts
        CPI	R16, 1
        BRNE	$+2+2
        RJMP	??run_lcp_act_3
//  664                      S2_RD;
        SBI	0x08, 0x00
        CBI	0x08, 0x01
//  665                      UDR0=buf_tx_232[0]; 
        LD	R16, X
        STS	198, R16
//  666                      if(Regim==RG_DEBAG) UDR3=buf_tx_232[0];
        LDS	R16, Regim
        CPI	R16, 1
        BREQ	$+2+2
        RJMP	??run_lcp_act_3
        RJMP	??run_lcp_act_9
//  667                      }   
//  668                      
//  669 
//  670                      
//  671                 break; 
//  672            case STR: 
//  673                  fl_lcp.act_lcp_end=0;
??run_lcp_act_22:
        MOVW	R31:R30, R25:R24
        LDD	R16, Z+10
        ANDI	R16, 0xFE
        STD	Z+10, R16
//  674                  buf_tx_232[0]=0x7e; 
        LDI	R16, 126
        ST	X, R16
//  675                  buf_tx_232[1]=0xff;
        LDI	R16, 255
        MOVW	R31:R30, R27:R26
        STD	Z+1, R16
//  676                  buf_tx_232[2]=0x03;
        LDI	R16, 3
        STD	Z+2, R16
//  677                  buf_tx_232[3]=0xc0;
        LDI	R16, 192
        STD	Z+3, R16
//  678                  buf_tx_232[4]=0x21;
        LDI	R16, 33
        STD	Z+4, R16
//  679                  buf_tx_232[5]=TERM_REQ;  
        LDI	R16, 5
        STD	Z+5, R16
//  680                  buf_tx_232[6]=i_str_lcp; 
        MOVW	R31:R30, R25:R24
        LDD	R16, Z+48
        MOVW	R31:R30, R27:R26
        STD	Z+6, R16
//  681                  
//  682                  buf_tx_232[7]=0; 
        LDI	R16, 0
        STD	Z+7, R16
//  683                  buf_tx_232[8]=0x4;
        LDI	R16, 4
        STD	Z+8, R16
//  684                  
//  685                  vol_tx_ppp=buf_tx_232[8]+8;
        LDI	R16, 12
        LDI	R17, 0
        LDI	R30, LOW(vol_tx_ppp)
        LDI	R31, (vol_tx_ppp) >> 8
        ST	Z, R16
        STD	Z+1, R17
//  686                  
//  687                  temp.word=pppfcs16(PPPINITFCS16,&buf_tx_232[1],buf_tx_232[8]+4) ^ 0xffff;                  
        LDI	R20, 8
        LDI	R21, 0
        MOVW	R19:R18, R27:R26
        SUBI	R18, 255
        SBCI	R19, 255
        LDI	R16, 255
        LDI	R17, 255
        RCALL	pppfcs16
        LDI	R18, 255
        LDI	R19, 255
        EOR	R18, R16
        EOR	R19, R17
        ST	Y, R18
        STD	Y+1, R19
//  688                  buf_tx_232[9]=temp.bytes[0];
        LD	R16, Y
        MOVW	R31:R30, R27:R26
        STD	Z+9, R16
//  689                  buf_tx_232[10]=temp.bytes[1];
        LDD	R16, Y+1
        STD	Z+10, R16
//  690                  
//  691                  buf_tx_232[11]=0x7e;  
        LDI	R16, 126
        STD	Z+11, R16
//  692                  
//  693                  
//  694                  count_tx_ppp=0;                             
        LDI	R16, 0
        LDI	R30, LOW(count_tx_ppp)
        LDI	R31, (count_tx_ppp) >> 8
        ST	Z, R16
        STD	Z+1, R16
//  695                      UCSR0A=UCSR0A | TXC;                            
        RJMP	??run_lcp_act_14
//  696                      UCSR0B=UCSR0B | TXEN;
//  697                      UCSR0B=UCSR0B | TXCIE;
//  698                      if(check_cts()==1) return;
//  699                  S2_RD;
//  700                  UDR0=buf_tx_232[0];
//  701                  if(Regim==RG_DEBAG) UDR3=buf_tx_232[0];
//  702                  
//  703                   
//  704                 break; 
//  705            case STA:    
//  706                  fl_lcp.act_lcp_end=0;
??run_lcp_act_23:
        MOVW	R31:R30, R25:R24
        LDD	R16, Z+10
        ANDI	R16, 0xFE
        STD	Z+10, R16
//  707                  buf_tx_232[0]=0x7e; 
        LDI	R16, 126
        ST	X, R16
//  708                  buf_tx_232[1]=0xff;
        LDI	R16, 255
        MOVW	R31:R30, R27:R26
        STD	Z+1, R16
//  709                  buf_tx_232[2]=0x03;
        LDI	R16, 3
        STD	Z+2, R16
//  710                  buf_tx_232[3]=0xc0;
        LDI	R16, 192
        STD	Z+3, R16
//  711                  buf_tx_232[4]=0x21;
        LDI	R16, 33
        STD	Z+4, R16
//  712                  buf_tx_232[5]=TERM_ACK;  
        LDI	R16, 6
        STD	Z+5, R16
//  713                  
//  714                   buf_tx_232[6]=i_sta_lcp; 
        MOVW	R31:R30, R25:R24
        LDD	R16, Z+49
        MOVW	R31:R30, R27:R26
        STD	Z+6, R16
//  715                  
//  716                  buf_tx_232[7]=0; 
        LDI	R16, 0
        STD	Z+7, R16
//  717                  buf_tx_232[8]=0x4;
        LDI	R16, 4
        STD	Z+8, R16
//  718                  
//  719                  vol_tx_ppp=buf_tx_232[8]+8;
        LDI	R16, 12
        LDI	R17, 0
        LDI	R30, LOW(vol_tx_ppp)
        LDI	R31, (vol_tx_ppp) >> 8
        ST	Z, R16
        STD	Z+1, R17
//  720                  
//  721                  temp.word=pppfcs16(PPPINITFCS16,&buf_tx_232[1],buf_tx_232[8]+4) ^ 0xffff;                  
        LDI	R20, 8
        LDI	R21, 0
        MOVW	R19:R18, R27:R26
        SUBI	R18, 255
        SBCI	R19, 255
        LDI	R16, 255
        LDI	R17, 255
        RCALL	pppfcs16
        LDI	R18, 255
        LDI	R19, 255
        EOR	R18, R16
        EOR	R19, R17
        ST	Y, R18
        STD	Y+1, R19
//  722                  buf_tx_232[9]=temp.bytes[0];
        LD	R16, Y
        MOVW	R31:R30, R27:R26
        STD	Z+9, R16
//  723                  buf_tx_232[10]=temp.bytes[1];
        LDD	R16, Y+1
        STD	Z+10, R16
//  724                  
//  725                  buf_tx_232[11]=0x7e;  
        LDI	R16, 126
        STD	Z+11, R16
//  726                 
//  727                  count_tx_ppp=0;                             
        LDI	R16, 0
        LDI	R30, LOW(count_tx_ppp)
        LDI	R31, (count_tx_ppp) >> 8
        ST	Z, R16
        STD	Z+1, R16
//  728                      UCSR0A=UCSR0A | TXC;                            
        RJMP	??run_lcp_act_21
//  729                      UCSR0B=UCSR0B | TXEN;
//  730                      UCSR0B=UCSR0B | TXCIE;
//  731                      if(check_cts()==1) return;
//  732                  S2_RD;
//  733                  UDR0=buf_tx_232[0]; 
//  734                  if(Regim==RG_DEBAG) UDR3=buf_tx_232[0];
//  735                 
//  736                 break;           
//  737                                    
//  738            case SCJ:   
//  739                  fl_lcp.act_lcp_end=0;
??run_lcp_act_24:
        MOVW	R31:R30, R25:R24
        LDD	R16, Z+10
        ANDI	R16, 0xFE
        STD	Z+10, R16
//  740                  buf_tx_232[0]=0x7e; 
        LDI	R16, 126
        ST	X, R16
//  741                  buf_tx_232[1]=0xff;
        LDI	R16, 255
        MOVW	R31:R30, R27:R26
        STD	Z+1, R16
//  742                  buf_tx_232[2]=0x03;
        LDI	R16, 3
        STD	Z+2, R16
//  743                  buf_tx_232[3]=0xc0;
        LDI	R16, 192
        STD	Z+3, R16
//  744                  buf_tx_232[4]=0x21;  
        LDI	R16, 33
        STD	Z+4, R16
//  745                  buf_tx_232[5]=CODE_REJ; 
        LDI	R16, 7
        STD	Z+5, R16
//  746                  
//  747                  buf_tx_232[6]=i_scj_lcp;
        MOVW	R31:R30, R25:R24
        LDD	R16, Z+47
        MOVW	R31:R30, R27:R26
        STD	Z+6, R16
//  748                  i_scj_lcp++;
        MOVW	R31:R30, R25:R24
        LDD	R16, Z+47
        INC	R16
        STD	Z+47, R16
//  749                  
//  750                  temp.word=ln_rejc_lcp+4;
        LDD	R17, Z+55
        MOV	R24, R17
        LDI	R25, 0
        MOVW	R19:R18, R25:R24
        SUBI	R18, 252
        SBCI	R19, 255
        ST	Y, R18
        STD	Y+1, R19
//  751                  buf_tx_232[7]=temp.bytes[1]; 
        LDD	R16, Y+1
        MOVW	R31:R30, R27:R26
        STD	Z+7, R16
//  752                  buf_tx_232[8]=temp.bytes[0];
        LD	R16, Y
        STD	Z+8, R16
//  753                
//  754                  temp.word=temp.word+4;         
        LD	R18, Y
        LDD	R19, Y+1
        SUBI	R18, 252
        SBCI	R19, 255
        ST	Y, R18
        STD	Y+1, R19
//  755                  vol_tx_ppp=temp.word+4;  
        LD	R18, Y
        LDD	R19, Y+1
        SUBI	R18, 252
        SBCI	R19, 255
        LDI	R30, LOW(vol_tx_ppp)
        LDI	R31, (vol_tx_ppp) >> 8
        ST	Z, R18
        STD	Z+1, R19
//  756                 
//  757                 
//  758       
//  759                  
//  760                 for(i=0;i<ln_rejc_lcp;i++)buf_tx_232[9+i]=buf_rejc_opt_lcp[i];
        LDI	R16, 0
        RJMP	??run_lcp_act_25
??run_lcp_act_26:
        MOV	R18, R16
        LDI	R19, 0
        MOVW	R31:R30, R19:R18
        SUBI	R30, LOW((-(buf_rejc_opt_lcp) & 0xFFFF))
        SBCI	R31, (-(buf_rejc_opt_lcp) & 0xFFFF) >> 8
        LD	R20, Z
        MOVW	R31:R30, R27:R26
        ADD	R30, R18
        ADC	R31, R25
        STD	Z+9, R20
        INC	R16
??run_lcp_act_25:
        CP	R16, R17
        BRCS	??run_lcp_act_26
//  761                 temp.word=pppfcs16(PPPINITFCS16,&buf_tx_232[1],temp.word) ^ 0xffff;                  
        LD	R20, Y
        LDD	R21, Y+1
        MOVW	R19:R18, R27:R26
        SUBI	R18, 255
        SBCI	R19, 255
        LDI	R16, 255
        LDI	R17, 255
        RCALL	pppfcs16
        LDI	R18, 255
        LDI	R19, 255
        EOR	R18, R16
        EOR	R19, R17
        ST	Y, R18
        STD	Y+1, R19
//  762                 
//  763                 buf_tx_232[9+ln_rejc_lcp]=temp.bytes[0];
        MOVW	R31:R30, R27:R26
        ADD	R30, R24
        ADC	R31, R25
        LD	R18, Y
        STD	Z+9, R18
//  764                 buf_tx_232[10+ln_rejc_lcp]=temp.bytes[1];                     
        LDD	R18, Y+1
        STD	Z+10, R18
//  765                 buf_tx_232[11+ln_rejc_lcp]=0x7e;    
        LDI	R16, 126
        STD	Z+11, R16
//  766                 
//  767                  count_tx_ppp=0;                             
        LDI	R30, LOW(count_tx_ppp)
        LDI	R31, (count_tx_ppp) >> 8
        ST	Z, R25
        STD	Z+1, R25
//  768                      UCSR0A=UCSR0A | TXC;                            
        LDS	R16, 192
        ORI	R16, 0x40
        STS	192, R16
//  769                      UCSR0B=UCSR0B | TXEN;
        LDS	R16, 193
        ORI	R16, 0x08
        STS	193, R16
//  770                      UCSR0B=UCSR0B | TXCIE;
        LDS	R16, 193
        ORI	R16, 0x40
        STS	193, R16
//  771                      if(check_cts()==1) return;
        CALL	check_cts
        CPI	R16, 1
        BREQ	??run_lcp_act_3
//  772                  S2_RD;
        SBI	0x08, 0x00
        CBI	0x08, 0x01
//  773                  UDR0=buf_tx_232[0];
        LD	R16, X
        STS	198, R16
//  774                  if(Regim==RG_DEBAG) UDR3=buf_tx_232[0];
        LDS	R16, Regim
        CPI	R16, 1
        BRNE	$+2+2
        RJMP	??run_lcp_act_9
??run_lcp_act_3:
        ADIW	R29:R28, 2
        CFI CFA_Y Y+5
        LDI	R30, 5
        JMP	?EPILOGUE_B5_L09
        CFI EndBlock cfiBlock3
//  775                 break;  
//  776           // case SER:
//  777           //      break;       
//  778           }                  
//  779       }
//  780 
//  781 
//  782 

        RSEG CODE:CODE:NOROOT(1)
//  783 void monitor_act_PAP(void)
monitor_act_PAP:
        CFI Block cfiBlock4 Using cfiCommon0
        CFI Function monitor_act_PAP
//  784       {  
        FUNCALL monitor_act_PAP, RdFromFleshToArr
        LOCFRAME CSTACK, 7, STACK
        LOCFRAME RSTACK, 2, STACK
        FUNCALL monitor_act_PAP, RdFromFleshToArr
        LOCFRAME CSTACK, 7, STACK
        LOCFRAME RSTACK, 2, STACK
        FUNCALL monitor_act_PAP, RdFromFleshToArr
        LOCFRAME CSTACK, 7, STACK
        LOCFRAME RSTACK, 2, STACK
        FUNCALL monitor_act_PAP, RdFromFleshToArr
        LOCFRAME CSTACK, 7, STACK
        LOCFRAME RSTACK, 2, STACK
        FUNCALL monitor_act_PAP, RdFromFleshToArr
        LOCFRAME CSTACK, 7, STACK
        LOCFRAME RSTACK, 2, STACK
        FUNCALL monitor_act_PAP, RdFromFleshToArr
        LOCFRAME CSTACK, 7, STACK
        LOCFRAME RSTACK, 2, STACK
        FUNCALL monitor_act_PAP, RdFromFleshToArr
        LOCFRAME CSTACK, 7, STACK
        LOCFRAME RSTACK, 2, STACK
        FUNCALL monitor_act_PAP, RdFromFleshToArr
        LOCFRAME CSTACK, 7, STACK
        LOCFRAME RSTACK, 2, STACK
        FUNCALL monitor_act_PAP, RdFromFleshToArr
        LOCFRAME CSTACK, 7, STACK
        LOCFRAME RSTACK, 2, STACK
        FUNCALL monitor_act_PAP, RdFromFleshToArr
        LOCFRAME CSTACK, 7, STACK
        LOCFRAME RSTACK, 2, STACK
        FUNCALL monitor_act_PAP, pppfcs16
        LOCFRAME CSTACK, 7, STACK
        LOCFRAME RSTACK, 2, STACK
        FUNCALL monitor_act_PAP, check_cts
        LOCFRAME CSTACK, 7, STACK
        LOCFRAME RSTACK, 2, STACK
        CALL	?PROLOGUE4_L09
        CFI R27 Frame(CFA_Y, -1)
        CFI R26 Frame(CFA_Y, -2)
        CFI R25 Frame(CFA_Y, -3)
        CFI R24 Frame(CFA_Y, -4)
        CFI CFA_Y Y+4
        SBIW	R29:R28, 3
        CFI CFA_Y Y+7
//  785        
//  786       // unsigned char i;
//  787        unsigned char temp1;
//  788        
//  789        union
//  790      {
//  791       unsigned char bytes[2]; 
//  792       unsigned int word;
//  793      }temp;
//  794       
//  795        
//  796        if((pap_act_buf==SCR)&&(fl_pap.act_pap_end==1)&&(fl_lcp.act_lcp_end==1)&&(fl_ipcp.act_ipcp_end==1)&&(fl_ip.act_ip_end==1))
        LDI	R16, LOW(ip_pri_dns)
        LDI	R17, (ip_pri_dns) >> 8
        MOVW	R31:R30, R17:R16
        LDD	R18, Z+16
        CPI	R18, 6
        BREQ	$+2+2
        RJMP	??monitor_act_PAP_0
        LDD	R18, Z+13
        ANDI	R18, 0x01
        LDD	R19, Z+10
        ANDI	R19, 0x01
        AND	R19, R18
        LDD	R18, Z+11
        ANDI	R18, 0x01
        AND	R18, R19
        LDD	R19, Z+12
        ANDI	R19, 0x01
        AND	R19, R18
        BRNE	$+2+2
        RJMP	??monitor_act_PAP_0
//  797         {        
//  798                
//  799                 
//  800                 
//  801                  pap_act_buf=NO_EVENT;
        LDI	R18, 255
        STD	Z+16, R18
//  802                   
//  803                  fl_pap.act_pap_end=0;
        LDD	R18, Z+13
        ANDI	R18, 0xFE
        STD	Z+13, R18
//  804                  buf_tx_232[0]=0x7e; 
        LDI	R26, LOW(buf_tx_232)
        LDI	R27, (buf_tx_232) >> 8
        LDI	R18, 126
        ST	X, R18
//  805                  buf_tx_232[1]=0xc0;
        LDI	R18, 192
        MOVW	R31:R30, R27:R26
        STD	Z+1, R18
//  806                  buf_tx_232[2]=0x23;
        LDI	R18, 35
        STD	Z+2, R18
//  807                  
//  808                  buf_tx_232[3]=CONF_REQ; 
        LDI	R18, 1
        STD	Z+3, R18
//  809                  
//  810                  i_scr_pap++;
        MOVW	R31:R30, R17:R16
        LDD	R18, Z+54
        INC	R18
        STD	Z+54, R18
//  811                  buf_tx_232[4]=i_scr_pap;         
        LDD	R16, Z+54
        MOVW	R31:R30, R27:R26
        STD	Z+4, R16
//  812                 
//  813                  
//  814     if(simka==SIM_BASE)//!!!!!!!!!!dobavka
        LDS	R16, simka
        TST	R16
        LDI	R20, 1
        LDI	R21, 0
        MOVW	R19:R18, R29:R28
        BREQ	$+2+2
        RJMP	??monitor_act_PAP_1
//  815                  {
//  816                  RdFromFleshToArr(A_C_GPRS,&temp1,1);// ęîëč÷ĺńňâî áŕéň APN                 
        SUBI	R18, 254
        SBCI	R19, 255
        LDI	R16, 20
        LDI	R17, 0
        CALL	RdFromFleshToArr
//  817                  RdFromFleshToArr(A_C_GPRS+temp1+1,&temp.bytes[0],1);// ęîëč÷ĺńňâî ëîăčíŕ
        LDI	R20, 1
        LDI	R21, 0
        MOVW	R19:R18, R29:R28
        LDD	R16, Y+2
        LDI	R17, 0
        SUBI	R16, 235
        SBCI	R17, 255
        CALL	RdFromFleshToArr
//  818                  RdFromFleshToArr(A_C_GPRS+temp1+temp.bytes[0]+2,&temp.bytes[1],1);// ęîëč÷ĺńňâî ďŕđîë˙
        LDI	R20, 1
        LDI	R21, 0
        MOVW	R19:R18, R29:R28
        SUBI	R18, 255
        SBCI	R19, 255
        LDD	R22, Y+2
        LD	R16, Y
        LDI	R17, 0
        ADD	R16, R22
        ADC	R17, R21
        SUBI	R16, 234
        SBCI	R17, 255
        CALL	RdFromFleshToArr
//  819                  
//  820               
//  821                  if((temp.bytes[0]==0)||(temp.bytes[0]>MAX_VOL_US_NAME)) buf_tx_232[7]=0;
        LD	R16, Y
        TST	R16
        BREQ	??monitor_act_PAP_2
        LD	R16, Y
        CPI	R16, 13
        BRCS	??monitor_act_PAP_3
??monitor_act_PAP_2:
        LDI	R16, 0
        MOVW	R31:R30, R27:R26
        STD	Z+7, R16
        RJMP	??monitor_act_PAP_4
//  822                     else {buf_tx_232[7]=temp.bytes[0];RdFromFleshToArr(A_C_GPRS+temp1+2,&buf_tx_232[8],temp.bytes[0]);}
??monitor_act_PAP_3:
        LD	R16, Y
        MOVW	R31:R30, R27:R26
        STD	Z+7, R16
        LD	R20, Y
        LDI	R21, 0
        MOVW	R19:R18, R27:R26
        SUBI	R18, 248
        SBCI	R19, 255
        LDD	R16, Y+2
        LDI	R17, 0
        SUBI	R16, 234
        SBCI	R17, 255
        CALL	RdFromFleshToArr
//  823                
//  824                  if((temp.bytes[1]==0)||(temp.bytes[1]>MAX_VOL_PSW)) buf_tx_232[8+buf_tx_232[7]]=0;
??monitor_act_PAP_4:
        LDD	R20, Y+1
        TST	R20
        BREQ	??monitor_act_PAP_5
        CPI	R20, 13
        BRCS	??monitor_act_PAP_6
??monitor_act_PAP_5:
        LDI	R16, 0
        MOVW	R31:R30, R27:R26
        LDD	R18, Z+7
        ADD	R30, R18
        ADC	R31, R16
        STD	Z+8, R16
        RJMP	??monitor_act_PAP_7
//  825                     else {buf_tx_232[8+buf_tx_232[7]]=temp.bytes[1];RdFromFleshToArr(A_C_GPRS+temp1+temp.bytes[0]+3,&buf_tx_232[9+buf_tx_232[7]],temp.bytes[1]);}
??monitor_act_PAP_6:
        MOVW	R31:R30, R27:R26
        LDD	R16, Z+7
        LDI	R17, 0
        ADD	R30, R16
        ADC	R31, R17
        STD	Z+8, R20
        LDI	R21, 0
        MOVW	R31:R30, R27:R26
        LDD	R16, Z+7
        MOVW	R19:R18, R27:R26
        ADD	R18, R16
        ADC	R19, R21
        SUBI	R18, 247
        SBCI	R19, 255
        LDD	R22, Y+2
        LD	R16, Y
        ADD	R16, R22
        ADC	R17, R21
        SUBI	R16, 233
        RJMP	??monitor_act_PAP_8
//  826                  }
//  827                  else   //!!!!!!!!!!dobavka
//  828                  {
//  829                  RdFromFleshToArr(A_CR_GPRS,&temp1,1);// ęîëč÷ĺńňâî áŕéň APN                 
??monitor_act_PAP_1:
        SUBI	R18, 254
        SBCI	R19, 255
        LDI	R16, 80
        LDI	R17, 0
        CALL	RdFromFleshToArr
//  830                  RdFromFleshToArr(A_CR_GPRS+temp1+1,&temp.bytes[0],1);// ęîëč÷ĺńňâî ëîăčíŕ
        LDI	R20, 1
        LDI	R21, 0
        MOVW	R19:R18, R29:R28
        LDD	R16, Y+2
        LDI	R17, 0
        SUBI	R16, 175
        SBCI	R17, 255
        CALL	RdFromFleshToArr
//  831                  RdFromFleshToArr(A_CR_GPRS+temp1+temp.bytes[0]+2,&temp.bytes[1],1);// ęîëč÷ĺńňâî ďŕđîë˙
        LDI	R20, 1
        LDI	R21, 0
        MOVW	R19:R18, R29:R28
        SUBI	R18, 255
        SBCI	R19, 255
        LDD	R22, Y+2
        LD	R16, Y
        LDI	R17, 0
        ADD	R16, R22
        ADC	R17, R21
        SUBI	R16, 174
        SBCI	R17, 255
        CALL	RdFromFleshToArr
//  832                  
//  833               
//  834                  if((temp.bytes[0]==0)||(temp.bytes[0]>MAX_VOL_US_NAME)) buf_tx_232[7]=0;
        LD	R16, Y
        TST	R16
        BREQ	??monitor_act_PAP_9
        LD	R16, Y
        CPI	R16, 13
        BRCS	??monitor_act_PAP_10
??monitor_act_PAP_9:
        LDI	R16, 0
        MOVW	R31:R30, R27:R26
        STD	Z+7, R16
        RJMP	??monitor_act_PAP_11
//  835                     else {buf_tx_232[7]=temp.bytes[0];RdFromFleshToArr(A_CR_GPRS+temp1+2,&buf_tx_232[8],temp.bytes[0]);}
??monitor_act_PAP_10:
        LD	R16, Y
        MOVW	R31:R30, R27:R26
        STD	Z+7, R16
        LD	R20, Y
        LDI	R21, 0
        MOVW	R19:R18, R27:R26
        SUBI	R18, 248
        SBCI	R19, 255
        LDD	R16, Y+2
        LDI	R17, 0
        SUBI	R16, 174
        SBCI	R17, 255
        CALL	RdFromFleshToArr
//  836                
//  837                  if((temp.bytes[1]==0)||(temp.bytes[1]>MAX_VOL_PSW)) buf_tx_232[8+buf_tx_232[7]]=0;
??monitor_act_PAP_11:
        LDD	R20, Y+1
        TST	R20
        BRNE	$+2+2
        RJMP	??monitor_act_PAP_5
        CPI	R20, 13
        BRCS	$+2+2
        RJMP	??monitor_act_PAP_5
//  838                     else {buf_tx_232[8+buf_tx_232[7]]=temp.bytes[1];RdFromFleshToArr(A_CR_GPRS+temp1+temp.bytes[0]+3,&buf_tx_232[9+buf_tx_232[7]],temp.bytes[1]);}
        MOVW	R31:R30, R27:R26
        LDD	R16, Z+7
        LDI	R17, 0
        ADD	R30, R16
        ADC	R31, R17
        STD	Z+8, R20
        LDI	R21, 0
        MOVW	R31:R30, R27:R26
        LDD	R16, Z+7
        MOVW	R19:R18, R27:R26
        ADD	R18, R16
        ADC	R19, R21
        SUBI	R18, 247
        SBCI	R19, 255
        LDD	R22, Y+2
        LD	R16, Y
        ADD	R16, R22
        ADC	R17, R21
        SUBI	R16, 173
??monitor_act_PAP_8:
        SBCI	R17, 255
        CALL	RdFromFleshToArr
??monitor_act_PAP_7:
        MOVW	R31:R30, R27:R26
        LDD	R16, Z+7
        LDI	R17, 0
        ADD	R30, R16
        ADC	R31, R17
        LDD	R24, Z+8
        LDI	R25, 0
        ADD	R24, R16
        ADC	R25, R17
        ADIW	R25:R24, 6
        ST	Y, R24
        STD	Y+1, R25
//  839                  }
//  840                   //!!!!!!!!!!dobavka       
//  841   
//  842                    
//  843                  
//  844                  
//  845                  temp.word=6+buf_tx_232[7]+buf_tx_232[8+buf_tx_232[7]];
//  846                  
//  847                 
//  848                   
//  849                  buf_tx_232[5]=temp.bytes[1]; 
        LDD	R16, Y+1
        MOVW	R31:R30, R27:R26
        STD	Z+5, R16
//  850                  buf_tx_232[6]=temp.bytes[0]; 
        LD	R16, Y
        STD	Z+6, R16
//  851                  
//  852                  temp.word=temp.word+2;
        LD	R16, Y
        LDD	R17, Y+1
        SUBI	R16, 254
        SBCI	R17, 255
        ST	Y, R16
        STD	Y+1, R17
//  853                  vol_tx_ppp=temp.word+4;
        LD	R24, Y
        LDD	R25, Y+1
        ADIW	R25:R24, 4
        LDI	R30, LOW(vol_tx_ppp)
        LDI	R31, (vol_tx_ppp) >> 8
        ST	Z, R24
        STD	Z+1, R25
//  854                   
//  855                  
//  856                  
//  857                   
//  858 
//  859                  temp.word=pppfcs16(PPPINITFCS16,&buf_tx_232[1],temp.word) ^ 0xffff;                  
        LD	R20, Y
        LDD	R21, Y+1
        MOVW	R19:R18, R27:R26
        SUBI	R18, 255
        SBCI	R19, 255
        LDI	R16, 255
        LDI	R17, 255
        RCALL	pppfcs16
        LDI	R18, 255
        LDI	R19, 255
        EOR	R18, R16
        EOR	R19, R17
        ST	Y, R18
        STD	Y+1, R19
//  860                  buf_tx_232[vol_tx_ppp-3]=temp.bytes[0];
        LDI	R30, LOW(vol_tx_ppp)
        LDI	R31, (vol_tx_ppp) >> 8
        LD	R16, Z
        LDD	R17, Z+1
        MOVW	R31:R30, R27:R26
        ADD	R30, R16
        ADC	R31, R17
        SBIW	R31:R30, 3
        LD	R18, Y
        ST	Z, R18
//  861                  buf_tx_232[vol_tx_ppp-2]=temp.bytes[1];
        LDD	R18, Y+1
        STD	Z+1, R18
//  862                  
//  863                  buf_tx_232[vol_tx_ppp-1]=0x7e; 
        LDI	R16, 126
        STD	Z+2, R16
//  864                  
//  865                 
//  866 
//  867       
//  868                  count_tx_ppp=0;                            
        LDI	R16, 0
        LDI	R30, LOW(count_tx_ppp)
        LDI	R31, (count_tx_ppp) >> 8
        ST	Z, R16
        STD	Z+1, R16
//  869                  UCSR0A=UCSR0A | TXC;                            
        LDS	R16, 192
        ORI	R16, 0x40
        STS	192, R16
//  870                  UCSR0B=UCSR0B | TXEN;
        LDS	R16, 193
        ORI	R16, 0x08
        STS	193, R16
//  871                  UCSR0B=UCSR0B | TXCIE;
        LDS	R16, 193
        ORI	R16, 0x40
        STS	193, R16
//  872                  if(check_cts()==1) return;    
        CALL	check_cts
        CPI	R16, 1
        BREQ	??monitor_act_PAP_0
//  873                  
//  874                  S2_RD;
        SBI	0x08, 0x00
        CBI	0x08, 0x01
//  875                  UDR0=buf_tx_232[0];  
        LD	R16, X
        STS	198, R16
//  876                  if(Regim==RG_DEBAG) UDR3=buf_tx_232[0];
        LDS	R16, Regim
        CPI	R16, 1
        BRNE	??monitor_act_PAP_0
        LD	R16, X
        STS	310, R16
??monitor_act_PAP_0:
        ADIW	R29:R28, 3
        CFI CFA_Y Y+4
        LDI	R30, 4
        JMP	?EPILOGUE_B4_L09
        CFI EndBlock cfiBlock4
//  877                 
//  878 
//  879         }
//  880       }
//  881 
//  882 
//  883 
//  884 
//  885 

        RSEG CODE:CODE:NOROOT(1)
//  886 void monitor_event_PAP(void)
monitor_event_PAP:
        CFI Block cfiBlock5 Using cfiCommon0
        CFI Function monitor_event_PAP
//  887     {
        MOVW	R19:R18, R27:R26
//  888      if (fl_pap.up==1)      //UP
        LDI	R30, LOW(ip_pri_dns)
        LDI	R31, (ip_pri_dns) >> 8
        LDD	R16, Z+17
        LDI	R26, LOW(cnt_pap_tm_out)
        LDI	R27, (cnt_pap_tm_out) >> 8
        LDD	R17, Z+13
        SBRS	R17, 4
        RJMP	??monitor_event_PAP_0
//  889          {
//  890          fl_pap.up=0; 
        LDD	R17, Z+13
        ANDI	R17, 0xEF
        STD	Z+13, R17
//  891            switch(PAP_state)
        SUBI	R16, 1
        BREQ	$+2+2
        RJMP	??monitor_event_PAP_1
//  892                {
//  893                 case START_ST:                                                                
//  894                             vol_cnt_rst_pap=VOL_PAP_MC;  
??monitor_event_PAP_2:
        LDI	R16, 5
        ADIW	R27:R26, 15
        ST	X, R16
        SBIW	R27:R26, 15
//  895                            
//  896                            // IRC;   //!!!!!!!!!!!!!!111                                            
//  897                             cnt_pap_tm_out=VOL_PAP_TM_OUT; 
        LDI	R16, 184
        LDI	R17, 11
        ST	X+, R16
        ST	X, R17
        SBIW	R27:R26, 1
//  898                             cnt_rst_pap=vol_cnt_rst_pap;
        LDI	R16, 5
        ADIW	R27:R26, 14
        ST	X, R16
//  899                             fl_pap.pap_tm_out_en=1; 
//  900                             fl_pap.act_pap_end=1;  
        LDD	R16, Z+13
        ORI	R16, 0x03
        STD	Z+13, R16
//  901                             
//  902                             pap_act_buf=SCR;                    
??monitor_event_PAP_3:
        LDI	R16, 6
        STD	Z+16, R16
//  903                             PAP_state=SEND_REQ; 
        STD	Z+17, R16
//  904                 return;
        RJMP	??monitor_event_PAP_1
//  905                }
//  906             
//  907          return;
//  908          }
//  909      
//  910     
//  911      
//  912      if(fl_pap.t0_pl==1)        //TO_PL
??monitor_event_PAP_0:
        LDD	R17, Z+13
        SBRS	R17, 2
        RJMP	??monitor_event_PAP_4
//  913         {
//  914          fl_pap.t0_pl=0; 
        LDD	R17, Z+13
        ANDI	R17, 0xFB
        STD	Z+13, R17
//  915          switch(PAP_state)
        SUBI	R16, 6
        BRNE	??monitor_event_PAP_1
//  916                {                     
//  917                                
//  918                 case SEND_REQ:
//  919                             vol_cnt_rst_pap=VOL_PAP_MC;                                                    
        LDI	R16, 5
        ADIW	R27:R26, 15
        ST	X, R16
//  920                             pap_act_buf=SCR;               
        RJMP	??monitor_event_PAP_3
//  921                             PAP_state=SEND_REQ;
//  922                             return;
//  923                                                                             
//  924                } 
//  925             
//  926          return;
//  927         }       
//  928        
//  929          
//  930       if(fl_pap.t0_mi==1)       //TO_MI
??monitor_event_PAP_4:
        LDD	R17, Z+13
        SBRS	R17, 3
        RJMP	??monitor_event_PAP_5
//  931         {
//  932          fl_pap.t0_mi=0;
        LDD	R17, Z+13
        ANDI	R17, 0xF7
        STD	Z+13, R17
//  933          switch(PAP_state)
        SUBI	R16, 6
        BRNE	??monitor_event_PAP_1
//  934                {                     
//  935                                               
//  936                 case SEND_REQ:  
//  937                             event_modem=EVM_PPP_ERR;
        LDI	R16, 5
        STS	event_modem, R16
//  938                             //write_log_info(ST_ERROR,ERR7);
//  939                             //lock_it();                                                  
//  940                             return;                                                                           
        RJMP	??monitor_event_PAP_1
//  941                } 
//  942          return;
//  943         }   
//  944         
//  945         
//  946         
//  947         
//  948      switch (PAP_event)
??monitor_event_PAP_5:
        LDD	R17, Z+18
        SUBI	R17, 8
        BREQ	??monitor_event_PAP_6
        DEC	R17
        BREQ	??monitor_event_PAP_7
        RJMP	??monitor_event_PAP_1
//  949         {
//  950        
//  951                
//  952        
//  953         case RCA:  
//  954            
//  955         
//  956             PAP_event=NO_EVENT;
??monitor_event_PAP_6:
        LDI	R17, 255
        STD	Z+18, R17
//  957             switch(PAP_state)
        SUBI	R16, 6
        BRNE	??monitor_event_PAP_1
//  958                {                     
//  959 
//  960               
//  961                 case SEND_REQ:                                                                                                     
//  962                             //TLU;  
//  963                             
//  964                             fl_pap.up=0;  
        LDD	R16, Z+13
        ANDI	R16, 0xEF
        STD	Z+13, R16
//  965                             PAP_state=OPEN_ST; 
        LDI	R16, 9
        STD	Z+17, R16
//  966                             IPCP_state=START_ST;  
        LDI	R16, 1
        ADIW	R27:R26, 3
        ST	X, R16
        SBIW	R27:R26, 3
//  967                             fl_ipcp.act_ipcp_end=1; 
        LDD	R16, Z+11
        ORI	R16, 0x01
        STD	Z+11, R16
//  968                             fl_ipcp1.up=1;
//  969                             fl_ipcp1.down=0;
        MOVW	R31:R30, R27:R26
        LDD	R16, Z+2
        ANDI	R16, 0xFD
        ORI	R16, 0x01
        STD	Z+2, R16
//  970                             layer_PPP=LAYER_IPCP;
        LDI	R16, 3
        STS	layer_PPP, R16
//  971 
//  972                             return;
        RJMP	??monitor_event_PAP_1
//  973                                                                                  
//  974                }  
//  975              return; 
//  976         
//  977         
//  978         case RCN: 
//  979         PAP_event=NO_EVENT;
??monitor_event_PAP_7:
        LDI	R17, 255
        STD	Z+18, R17
//  980         switch(PAP_state)        
        SUBI	R16, 6
        BRNE	$+2+2
        RJMP	??monitor_event_PAP_2
??monitor_event_PAP_1:
        MOVW	R27:R26, R19:R18
        RET
        CFI EndBlock cfiBlock5
//  981                {                     
//  982 
//  983                 
//  984                 case SEND_REQ:                                                                
//  985                             vol_cnt_rst_pap=VOL_PAP_MC;  
//  986                             // IRC;   //!!!!!!!!!!!!!!111                                            
//  987                             cnt_pap_tm_out=VOL_PAP_TM_OUT; 
//  988                             cnt_rst_pap=vol_cnt_rst_pap;
//  989                             fl_pap.pap_tm_out_en=1; 
//  990                             fl_pap.act_pap_end=1;
//  991                             
//  992                             pap_act_buf=SCR;                                        
//  993                             PAP_state=SEND_REQ;  
//  994                             return;         
//  995                                                                                   
//  996                }  
//  997              return; 
//  998        
//  999       
// 1000 
// 1001                           
// 1002         }
// 1003     
// 1004     }
// 1005 
// 1006 
// 1007 

        RSEG CODE:CODE:NOROOT(1)
// 1008 void monitor_act_LCP(void)
monitor_act_LCP:
        CFI Block cfiBlock6 Using cfiCommon0
        CFI Function monitor_act_LCP
// 1009       {  
        FUNCALL monitor_act_LCP, run_lcp_act
        LOCFRAME CSTACK, 2, STACK
        LOCFRAME RSTACK, 2, STACK
        ST	-Y, R27
        CFI R27 Frame(CFA_Y, -1)
        CFI CFA_Y Y+1
        ST	-Y, R26
        CFI R26 Frame(CFA_Y, -2)
        CFI CFA_Y Y+2
// 1010        
// 1011        if((uk_in_act_LCP!=uk_out_act_LCP)&&(fl_lcp.act_lcp_end==1)&&(fl_pap.act_pap_end==1)&&(fl_ipcp.act_ipcp_end==1)&&(fl_ip.act_ip_end==1))
        LDI	R26, LOW(ip_pri_dns)
        LDI	R27, (ip_pri_dns) >> 8
        ADIW	R27:R26, 36
        LD	R16, X
        SBIW	R27:R26, 36
        ADIW	R27:R26, 37
        LD	R17, X
        SBIW	R27:R26, 37
        CP	R16, R17
        BREQ	??monitor_act_LCP_0
        ADIW	R27:R26, 10
        LD	R16, X
        SBIW	R27:R26, 10
        ANDI	R16, 0x01
        ADIW	R27:R26, 13
        LD	R17, X
        SBIW	R27:R26, 13
        ANDI	R17, 0x01
        AND	R17, R16
        ADIW	R27:R26, 11
        LD	R16, X
        SBIW	R27:R26, 11
        ANDI	R16, 0x01
        AND	R16, R17
        ADIW	R27:R26, 12
        LD	R17, X
        SBIW	R27:R26, 12
        ANDI	R17, 0x01
        AND	R17, R16
        BREQ	??monitor_act_LCP_0
// 1012         {   
// 1013         run_lcp_act();
        RCALL	run_lcp_act
// 1014         uk_out_act_LCP++;  
        ADIW	R27:R26, 37
        LD	R16, X
        INC	R16
        ST	X, R16
        SBIW	R27:R26, 37
// 1015         if (uk_out_act_LCP>=LCP_ACT_VOL)uk_out_act_LCP=0; 
        ADIW	R27:R26, 37
        LD	R16, X
        SBIW	R27:R26, 37
        CPI	R16, 15
        BRCS	??monitor_act_LCP_0
        LDI	R16, 0
        ADIW	R27:R26, 37
        ST	X, R16
// 1016         }
// 1017       }
??monitor_act_LCP_0:
        LD	R26, Y+
        CFI R26 SameValue
        CFI CFA_Y Y+1
        LD	R27, Y+
        CFI R27 SameValue
        CFI CFA_Y Y+0
        RET
        CFI EndBlock cfiBlock6
// 1018  
// 1019  
// 1020   

        RSEG CODE:CODE:NOROOT(1)
// 1021 void monitor_event_LCP(void)
monitor_event_LCP:
        CFI Block cfiBlock7 Using cfiCommon0
        CFI Function monitor_event_LCP
// 1022     {
        FUNCALL monitor_event_LCP, prov_uk_in
        LOCFRAME CSTACK, 7, STACK
        LOCFRAME RSTACK, 2, STACK
        FUNCALL monitor_event_LCP, prov_uk_in
        LOCFRAME CSTACK, 7, STACK
        LOCFRAME RSTACK, 2, STACK
        FUNCALL monitor_event_LCP, prov_uk_in
        LOCFRAME CSTACK, 7, STACK
        LOCFRAME RSTACK, 2, STACK
        FUNCALL monitor_event_LCP, prov_uk_in
        LOCFRAME CSTACK, 7, STACK
        LOCFRAME RSTACK, 2, STACK
        FUNCALL monitor_event_LCP, prov_uk_in
        LOCFRAME CSTACK, 7, STACK
        LOCFRAME RSTACK, 2, STACK
        FUNCALL monitor_event_LCP, prov_uk_in
        LOCFRAME CSTACK, 7, STACK
        LOCFRAME RSTACK, 2, STACK
        FUNCALL monitor_event_LCP, prov_uk_in
        LOCFRAME CSTACK, 7, STACK
        LOCFRAME RSTACK, 2, STACK
        FUNCALL monitor_event_LCP, prov_uk_in
        LOCFRAME CSTACK, 7, STACK
        LOCFRAME RSTACK, 2, STACK
        FUNCALL monitor_event_LCP, prov_uk_in
        LOCFRAME CSTACK, 7, STACK
        LOCFRAME RSTACK, 2, STACK
        FUNCALL monitor_event_LCP, prov_uk_in
        LOCFRAME CSTACK, 7, STACK
        LOCFRAME RSTACK, 2, STACK
        FUNCALL monitor_event_LCP, prov_uk_in
        LOCFRAME CSTACK, 7, STACK
        LOCFRAME RSTACK, 2, STACK
        FUNCALL monitor_event_LCP, prov_uk_in
        LOCFRAME CSTACK, 7, STACK
        LOCFRAME RSTACK, 2, STACK
        FUNCALL monitor_event_LCP, prov_uk_in
        LOCFRAME CSTACK, 7, STACK
        LOCFRAME RSTACK, 2, STACK
        FUNCALL monitor_event_LCP, prov_uk_in
        LOCFRAME CSTACK, 7, STACK
        LOCFRAME RSTACK, 2, STACK
        FUNCALL monitor_event_LCP, prov_uk_in
        LOCFRAME CSTACK, 7, STACK
        LOCFRAME RSTACK, 2, STACK
        FUNCALL monitor_event_LCP, prov_uk_in
        LOCFRAME CSTACK, 7, STACK
        LOCFRAME RSTACK, 2, STACK
        FUNCALL monitor_event_LCP, prov_uk_in
        LOCFRAME CSTACK, 7, STACK
        LOCFRAME RSTACK, 2, STACK
        FUNCALL monitor_event_LCP, prov_uk_in
        LOCFRAME CSTACK, 7, STACK
        LOCFRAME RSTACK, 2, STACK
        FUNCALL monitor_event_LCP, prov_uk_in
        LOCFRAME CSTACK, 7, STACK
        LOCFRAME RSTACK, 2, STACK
        FUNCALL monitor_event_LCP, prov_uk_in
        LOCFRAME CSTACK, 7, STACK
        LOCFRAME RSTACK, 2, STACK
        FUNCALL monitor_event_LCP, prov_uk_in
        LOCFRAME CSTACK, 7, STACK
        LOCFRAME RSTACK, 2, STACK
        FUNCALL monitor_event_LCP, prov_uk_in
        LOCFRAME CSTACK, 7, STACK
        LOCFRAME RSTACK, 2, STACK
        FUNCALL monitor_event_LCP, prov_uk_in
        LOCFRAME CSTACK, 7, STACK
        LOCFRAME RSTACK, 2, STACK
        FUNCALL monitor_event_LCP, prov_uk_in
        LOCFRAME CSTACK, 7, STACK
        LOCFRAME RSTACK, 2, STACK
        FUNCALL monitor_event_LCP, prov_uk_in
        LOCFRAME CSTACK, 7, STACK
        LOCFRAME RSTACK, 2, STACK
        FUNCALL monitor_event_LCP, prov_uk_in
        LOCFRAME CSTACK, 7, STACK
        LOCFRAME RSTACK, 2, STACK
        FUNCALL monitor_event_LCP, prov_uk_in
        LOCFRAME CSTACK, 7, STACK
        LOCFRAME RSTACK, 2, STACK
        FUNCALL monitor_event_LCP, prov_uk_in
        LOCFRAME CSTACK, 7, STACK
        LOCFRAME RSTACK, 2, STACK
        FUNCALL monitor_event_LCP, prov_uk_in
        LOCFRAME CSTACK, 7, STACK
        LOCFRAME RSTACK, 2, STACK
        FUNCALL monitor_event_LCP, prov_uk_in
        LOCFRAME CSTACK, 7, STACK
        LOCFRAME RSTACK, 2, STACK
        FUNCALL monitor_event_LCP, prov_uk_in
        LOCFRAME CSTACK, 7, STACK
        LOCFRAME RSTACK, 2, STACK
        FUNCALL monitor_event_LCP, prov_uk_in
        LOCFRAME CSTACK, 7, STACK
        LOCFRAME RSTACK, 2, STACK
        FUNCALL monitor_event_LCP, prov_uk_in
        LOCFRAME CSTACK, 7, STACK
        LOCFRAME RSTACK, 2, STACK
        FUNCALL monitor_event_LCP, prov_uk_in
        LOCFRAME CSTACK, 7, STACK
        LOCFRAME RSTACK, 2, STACK
        FUNCALL monitor_event_LCP, prov_uk_in
        LOCFRAME CSTACK, 7, STACK
        LOCFRAME RSTACK, 2, STACK
        FUNCALL monitor_event_LCP, prov_uk_in
        LOCFRAME CSTACK, 7, STACK
        LOCFRAME RSTACK, 2, STACK
        FUNCALL monitor_event_LCP, prov_uk_in
        LOCFRAME CSTACK, 7, STACK
        LOCFRAME RSTACK, 2, STACK
        FUNCALL monitor_event_LCP, prov_uk_in
        LOCFRAME CSTACK, 7, STACK
        LOCFRAME RSTACK, 2, STACK
        FUNCALL monitor_event_LCP, prov_uk_in
        LOCFRAME CSTACK, 7, STACK
        LOCFRAME RSTACK, 2, STACK
        FUNCALL monitor_event_LCP, prov_uk_in
        LOCFRAME CSTACK, 7, STACK
        LOCFRAME RSTACK, 2, STACK
        FUNCALL monitor_event_LCP, prov_uk_in
        LOCFRAME CSTACK, 7, STACK
        LOCFRAME RSTACK, 2, STACK
        FUNCALL monitor_event_LCP, prov_uk_in
        LOCFRAME CSTACK, 7, STACK
        LOCFRAME RSTACK, 2, STACK
        FUNCALL monitor_event_LCP, prov_uk_in
        LOCFRAME CSTACK, 7, STACK
        LOCFRAME RSTACK, 2, STACK
        FUNCALL monitor_event_LCP, prov_uk_in
        LOCFRAME CSTACK, 7, STACK
        LOCFRAME RSTACK, 2, STACK
        CALL	?PROLOGUE7_L09
        CFI R6 Frame(CFA_Y, -1)
        CFI R5 Frame(CFA_Y, -2)
        CFI R4 Frame(CFA_Y, -3)
        CFI R27 Frame(CFA_Y, -4)
        CFI R26 Frame(CFA_Y, -5)
        CFI R25 Frame(CFA_Y, -6)
        CFI R24 Frame(CFA_Y, -7)
        CFI CFA_Y Y+7
        REQUIRE	?Register_R6_is_cg_reg
// 1023      if (fl_lcp1.up==1)      //UP
        LDI	R26, LOW(ip_pri_dns)
        LDI	R27, (ip_pri_dns) >> 8
        MOVW	R31:R30, R27:R26
        LDD	R16, Z+36
        LDI	R17, 0
        MOVW	R25:R24, R27:R26
        ADD	R24, R16
        ADC	R25, R17
        LDI	R30, LOW(fl_lcp1)
        LDI	R31, (fl_lcp1) >> 8
        LDD	R6, Z+1
        LD	R16, Z
        SBRS	R16, 0
        RJMP	??monitor_event_LCP_0
// 1024          {  
// 1025          
// 1026           
// 1027          fl_lcp1.up=0; 
        LD	R16, Z
        ANDI	R16, 0xFE
        ST	Z, R16
// 1028            switch(LCP_state)
        MOV	R16, R6
        SUBI	R16, 1
        BRNE	??monitor_event_LCP_1
// 1029                {
// 1030                 case START_ST:                                                                
// 1031 
// 1032                             vol_cnt_rst_lcp=VOL_LCP_MC;  
??monitor_event_LCP_2:
        LDI	R16, 10
        MOVW	R31:R30, R27:R26
        STD	Z+41, R16
// 1033                             LCP_act_buf[uk_in_act_LCP]=IRC;  
        LDI	R16, 4
??monitor_event_LCP_3:
        MOVW	R31:R30, R25:R24
        STD	Z+20, R16
// 1034                             prov_uk_in();                    
        RCALL	prov_uk_in
// 1035                             LCP_act_buf[uk_in_act_LCP]=SCR;  
        LDI	R16, 6
??monitor_event_LCP_4:
        MOVW	R31:R30, R27:R26
??monitor_event_LCP_5:
        LDD	R18, Z+36
        LDI	R19, 0
        ADD	R26, R18
        ADC	R27, R19
        MOVW	R31:R30, R27:R26
??monitor_event_LCP_6:
        STD	Z+20, R16
// 1036                             prov_uk_in();                    
        RCALL	prov_uk_in
// 1037                             LCP_state=SEND_REQ;  
// 1038                             
// 1039              
// 1040                            
// 1041                 return;
// 1042                }
// 1043             
// 1044          return;
// 1045          }
// 1046      
// 1047      if (fl_lcp1.down==1)      //DOWN
// 1048          {      
// 1049          
// 1050           fl_lcp1.down=0;
// 1051           switch(LCP_state)
// 1052                {                     
// 1053 
// 1054                 case STOP_ST:                                                                
// 1055                             LCP_act_buf[uk_in_act_LCP]=TLS;  
// 1056                             prov_uk_in();   
// 1057                             fl_lcp.lcp_tm_out_en=0;                 
// 1058                             LCP_state=START_ST;
// 1059                             return;        
// 1060                 case OSTANOV:                                                                
// 1061                             fl_lcp.lcp_tm_out_en=0;                 
// 1062                             LCP_state=START_ST;
// 1063                             return;  
// 1064                 case SEND_REQ:                                                                
// 1065                             fl_lcp.lcp_tm_out_en=0;                 
// 1066                             LCP_state=START_ST;
// 1067                             return;
// 1068                 case REC_ACK:                                                                
// 1069                             fl_lcp.lcp_tm_out_en=0;                 
// 1070                             LCP_state=START_ST;
// 1071                             return;
// 1072                 case SEND_ACK:                                                                
// 1073                             fl_lcp.lcp_tm_out_en=0;                 
// 1074                             LCP_state=START_ST;
// 1075                             return;
// 1076                 case OPEN_ST:                                                                
// 1077                             LCP_act_buf[uk_in_act_LCP]=TLD;  
// 1078                             prov_uk_in();   
// 1079                             fl_lcp.lcp_tm_out_en=0;                 
// 1080                             LCP_state=START_ST;
// 1081                             return;                                                                    
// 1082                } 
// 1083             
// 1084          return;
// 1085          }
// 1086      
// 1087      if(fl_lcp.t0_pl==1)        //TO_PL
// 1088         {
// 1089          fl_lcp.t0_pl=0; 
// 1090          switch(LCP_state)
// 1091                {                     
// 1092                                
// 1093                 case OSTANOV:                                                                
// 1094                             vol_cnt_rst_lcp=VOL_LCP_MT;
// 1095                             LCP_act_buf[uk_in_act_LCP]=STR;  
// 1096                             prov_uk_in();                 
// 1097                             LCP_state=OSTANOV;
// 1098                             return;  
// 1099                 case SEND_REQ:
// 1100                             vol_cnt_rst_lcp=VOL_LCP_MC;                                                    
// 1101                             LCP_act_buf[uk_in_act_LCP]=SCR;  
// 1102                             prov_uk_in();                 
// 1103                             LCP_state=SEND_REQ;
// 1104                             return;
// 1105                 case REC_ACK:      
// 1106                             vol_cnt_rst_lcp=VOL_LCP_MC;                                              
// 1107                             LCP_act_buf[uk_in_act_LCP]=SCR;  
// 1108                             prov_uk_in();                 
// 1109                             LCP_state=SEND_REQ;
// 1110                             return;
// 1111                 case SEND_ACK: 
// 1112                             vol_cnt_rst_lcp=VOL_LCP_MC;                                                   
// 1113                             LCP_act_buf[uk_in_act_LCP]=SCR;  
// 1114                             prov_uk_in();                 
// 1115                             LCP_state=SEND_ACK;
// 1116                             return;                                                              
// 1117                } 
// 1118             
// 1119          return;
// 1120         }  
// 1121       if(fl_lcp.t0_mi==1)       //TO_MI
// 1122         {
// 1123          fl_lcp.t0_mi=0;
// 1124          switch(LCP_state)
// 1125                {                     
// 1126                                
// 1127                 case OSTANOV:  
// 1128                             fl_lcp.lcp_tm_out_en=0;                                                  
// 1129                             LCP_act_buf[uk_in_act_LCP]=TLF;  
// 1130                             prov_uk_in();                   
// 1131                             LCP_state=STOP_ST;
// 1132                             return;  
// 1133                 case SEND_REQ:                                                                
// 1134                             fl_lcp.lcp_tm_out_en=0;                                                  
// 1135                             LCP_act_buf[uk_in_act_LCP]=TLF;  
// 1136                             prov_uk_in();                   
// 1137                             LCP_state=STOP_ST;
// 1138                             return;
// 1139                 case REC_ACK:                                                                
// 1140                             fl_lcp.lcp_tm_out_en=0;                                                  
// 1141                             LCP_act_buf[uk_in_act_LCP]=TLF;  
// 1142                             prov_uk_in();                   
// 1143                             LCP_state=STOP_ST;
// 1144                             return;
// 1145                 case SEND_ACK:                                                                
// 1146                             fl_lcp.lcp_tm_out_en=0;                                                  
// 1147                             LCP_act_buf[uk_in_act_LCP]=TLF;  
// 1148                             prov_uk_in();                   
// 1149                             LCP_state=STOP_ST;
// 1150                             return;                                                              
// 1151                } 
// 1152          return;
// 1153         }   
// 1154      switch (LCP_event)
// 1155         {
// 1156         case RCR_PL:  
// 1157             LCP_event=NO_EVENT; 
// 1158             switch(LCP_state)
// 1159                {                     
// 1160 
// 1161                 case STOP_ST:        
// 1162                             vol_cnt_rst_lcp=VOL_LCP_MC;  
// 1163                             LCP_act_buf[uk_in_act_LCP]=IRC;  
// 1164                             prov_uk_in();                    
// 1165                             LCP_act_buf[uk_in_act_LCP]=SCR;  
// 1166                             prov_uk_in();   
// 1167                             LCP_act_buf[uk_in_act_LCP]=SCA;  
// 1168                             prov_uk_in();                 
// 1169                             LCP_state=SEND_ACK;  
// 1170                             
// 1171                             return;        
// 1172                 case OSTANOV:                                                                                
// 1173                             LCP_state=OSTANOV; 
// 1174                     
// 1175                             return;  
// 1176                 case SEND_REQ:                                                                
// 1177                             LCP_act_buf[uk_in_act_LCP]=SCA;  
// 1178                             prov_uk_in();                 
// 1179                             LCP_state=SEND_ACK;   
// 1180 
// 1181                             return;
// 1182                 case REC_ACK:
// 1183         
// 1184                             LCP_act_buf[uk_in_act_LCP]=SCA;  
// 1185                             prov_uk_in();       
// 1186                             LCP_act_buf[uk_in_act_LCP]=TLU;  
// 1187                             prov_uk_in();          
// 1188                             LCP_state=OPEN_ST;  
// 1189                            
// 1190                             return;
// 1191                 case SEND_ACK:                                                                
// 1192                             LCP_act_buf[uk_in_act_LCP]=SCA;  
// 1193                             prov_uk_in();                 
// 1194                             LCP_state=SEND_ACK; 
// 1195                    
// 1196                             return;
// 1197                 case OPEN_ST:      
// 1198                             LCP_act_buf[uk_in_act_LCP]=TLD;  
// 1199                             prov_uk_in();    
// 1200                             vol_cnt_rst_lcp=VOL_LCP_MC; 
// 1201                             LCP_act_buf[uk_in_act_LCP]=SCR;  
// 1202                             prov_uk_in();                                                                
// 1203                             LCP_act_buf[uk_in_act_LCP]=SCA;  
// 1204                             prov_uk_in();                 
// 1205                             LCP_state=SEND_ACK; 
// 1206                    
// 1207                             return;                                                                    
// 1208                }  
// 1209              return; 
// 1210         case RCR_MI: 
// 1211             
// 1212             LCP_event=NO_EVENT;
// 1213             switch(LCP_state)
// 1214                {                     
// 1215 
// 1216                 case STOP_ST:        
// 1217                             vol_cnt_rst_lcp=VOL_LCP_MC;  
// 1218                             LCP_act_buf[uk_in_act_LCP]=IRC;  
// 1219                             prov_uk_in();                    
// 1220                             LCP_act_buf[uk_in_act_LCP]=SCR;  
// 1221                             prov_uk_in();   
// 1222                             LCP_act_buf[uk_in_act_LCP]=SCN;  
// 1223                             prov_uk_in();                 
// 1224                             LCP_state=SEND_REQ; 
// 1225                     
// 1226                             return;        
// 1227                 case OSTANOV:                                                                                
// 1228                             LCP_state=OSTANOV; 
// 1229                           
// 1230                             return;  
// 1231                 case SEND_REQ:                                                                
// 1232                             
// 1233                        
// 1234                             LCP_act_buf[uk_in_act_LCP]=SCN;  
// 1235                             prov_uk_in();                 
// 1236                             LCP_state=SEND_REQ;    
// 1237                      
// 1238                             return;
// 1239                 case REC_ACK:                                                                
// 1240                             LCP_act_buf[uk_in_act_LCP]=SCN;  
// 1241                             prov_uk_in();              
// 1242                             LCP_state=REC_ACK;     
// 1243                            
// 1244                             return;
// 1245                 case SEND_ACK:                                                                
// 1246                             LCP_act_buf[uk_in_act_LCP]=SCN;  
// 1247                             prov_uk_in();                 
// 1248                             LCP_state=SEND_REQ;
// 1249                          
// 1250                             return;
// 1251                 case OPEN_ST:      
// 1252                             LCP_act_buf[uk_in_act_LCP]=TLD;  
// 1253                             prov_uk_in();   
// 1254                             vol_cnt_rst_lcp=VOL_LCP_MC;
// 1255                             LCP_act_buf[uk_in_act_LCP]=SCR;  
// 1256                             prov_uk_in();                                                                
// 1257                             LCP_act_buf[uk_in_act_LCP]=SCN;  
// 1258                             prov_uk_in();                 
// 1259                             LCP_state=SEND_REQ;
// 1260                           
// 1261                             return;                                                                    
// 1262                }  
// 1263              return; 
// 1264         case RCA:    
// 1265  
// 1266   
// 1267   
// 1268             LCP_event=NO_EVENT;
// 1269             switch(LCP_state)
// 1270                {                     
// 1271                 
// 1272                 case STOP_ST:        
// 1273                             fl_lcp.lcp_tm_out_en=0;
// 1274                             LCP_act_buf[uk_in_act_LCP]=STA;  
// 1275                             prov_uk_in();                 
// 1276                             LCP_state=STOP_ST; 
// 1277                           
// 1278                             return;        
// 1279                 case OSTANOV:                                                                                
// 1280                             LCP_state=OSTANOV;  
// 1281                     
// 1282                             return;  
// 1283                 case SEND_REQ: 
// 1284                             
// 1285                             vol_cnt_rst_lcp=VOL_LCP_MC;  
// 1286                             LCP_act_buf[uk_in_act_LCP]=IRC;  
// 1287                             prov_uk_in();                                        
// 1288                             LCP_state=REC_ACK; 
// 1289                      
// 1290                             return;
// 1291                 case REC_ACK:       
// 1292                             vol_cnt_rst_lcp=VOL_LCP_MC;                                             
// 1293                             LCP_act_buf[uk_in_act_LCP]=SCR;  
// 1294                             prov_uk_in();                 
// 1295                             LCP_state=SEND_REQ;
// 1296                             return;
// 1297                 case SEND_ACK:                                                                
// 1298                             vol_cnt_rst_lcp=VOL_LCP_MC;  
// 1299                             LCP_act_buf[uk_in_act_LCP]=IRC;  
// 1300                             prov_uk_in();                                        
// 1301                             LCP_act_buf[uk_in_act_LCP]=TLU;  
// 1302                             prov_uk_in();
// 1303                             LCP_state=OPEN_ST;
// 1304 
// 1305                             return;
// 1306                 case OPEN_ST:
// 1307                             vol_cnt_rst_lcp=VOL_LCP_MC;
// 1308                             LCP_act_buf[uk_in_act_LCP]=TLD;  
// 1309                             prov_uk_in();   
// 1310                             LCP_act_buf[uk_in_act_LCP]=SCR;  
// 1311                             prov_uk_in();                                                                               
// 1312                             LCP_state=SEND_REQ;
// 1313                          
// 1314                             return;                                                                    
// 1315                }  
// 1316              return; 
// 1317         case RCN: 
// 1318                 LCP_event=NO_EVENT;
// 1319         switch(LCP_state)
// 1320                {                     
// 1321 
// 1322                 case STOP_ST:        
// 1323                             fl_lcp.lcp_tm_out_en=0;
// 1324                             LCP_act_buf[uk_in_act_LCP]=STA;  
// 1325                             prov_uk_in();                 
// 1326                             LCP_state=STOP_ST; 
// 1327                         
// 1328                             return;        
// 1329                 case OSTANOV:                                                                                
// 1330                             LCP_state=OSTANOV; 
// 1331                          
// 1332                             return;  
// 1333                 case SEND_REQ:                                                                
// 1334                             vol_cnt_rst_lcp=VOL_LCP_MC;  
// 1335                             LCP_act_buf[uk_in_act_LCP]=IRC;  
// 1336                             prov_uk_in(); 
// 1337                             LCP_act_buf[uk_in_act_LCP]=SCR;  
// 1338                             prov_uk_in();                                       
// 1339                             LCP_state=SEND_REQ;
// 1340                           
// 1341                             return;
// 1342                 case REC_ACK:     
// 1343                             vol_cnt_rst_lcp=VOL_LCP_MC;                                               
// 1344                             LCP_act_buf[uk_in_act_LCP]=SCR;  
// 1345                             prov_uk_in();                 
// 1346                             LCP_state=SEND_REQ;
// 1347                           
// 1348                             return;
// 1349                 case SEND_ACK:                                                                
// 1350                             vol_cnt_rst_lcp=VOL_LCP_MC;  
// 1351                             LCP_act_buf[uk_in_act_LCP]=IRC;  
// 1352                             prov_uk_in();                                        
// 1353                             LCP_act_buf[uk_in_act_LCP]=SCR;  
// 1354                             prov_uk_in();
// 1355                             LCP_state=SEND_ACK;
// 1356                         
// 1357                             return;
// 1358                 case OPEN_ST:      
// 1359                             LCP_act_buf[uk_in_act_LCP]=TLD;  
// 1360                             prov_uk_in(); 
// 1361                             vol_cnt_rst_lcp=VOL_LCP_MC;  
// 1362                             LCP_act_buf[uk_in_act_LCP]=SCR;  
// 1363                             prov_uk_in();                                                                               
// 1364                             LCP_state=SEND_REQ;
// 1365                       
// 1366                             return;                                                                    
// 1367                }  
// 1368              return; 
// 1369         case RTR:
// 1370              LCP_event=NO_EVENT;
// 1371              switch(LCP_state)
// 1372                {                     
// 1373 
// 1374                 case STOP_ST:                                                                
// 1375                             fl_lcp.lcp_tm_out_en=0;
// 1376                             LCP_act_buf[uk_in_act_LCP]=STA;  
// 1377                             prov_uk_in();                 
// 1378                             LCP_state=STOP_ST; 
// 1379                            
// 1380                             return;        
// 1381                 case OSTANOV:                                                                
// 1382                             LCP_act_buf[uk_in_act_LCP]=STA;  
// 1383                             prov_uk_in();                 
// 1384                             LCP_state=OSTANOV; 
// 1385                         
// 1386                             return;  
// 1387                 case SEND_REQ:                                                                
// 1388                             LCP_act_buf[uk_in_act_LCP]=STA;  
// 1389                             prov_uk_in();                 
// 1390                             LCP_state=SEND_REQ;
// 1391                          
// 1392                             return;
// 1393                 case REC_ACK:                                                                
// 1394                             LCP_act_buf[uk_in_act_LCP]=STA;  
// 1395                             prov_uk_in();                 
// 1396                             LCP_state=SEND_REQ;
// 1397                         
// 1398                             return;
// 1399                 case SEND_ACK:                                                                
// 1400                             LCP_act_buf[uk_in_act_LCP]=STA;  
// 1401                             prov_uk_in();                 
// 1402                             LCP_state=SEND_REQ;
// 1403                           
// 1404                             return;
// 1405                 case OPEN_ST:                                                                
// 1406                             vol_cnt_rst_lcp=VOL_LCP_MC;  
// 1407                             LCP_act_buf[uk_in_act_LCP]=TLD;  
// 1408                             prov_uk_in(); 
// 1409                             LCP_act_buf[uk_in_act_LCP]=ZRC; 
// 1410                             prov_uk_in();  
// 1411                             LCP_act_buf[uk_in_act_LCP]=STA;  
// 1412                             prov_uk_in();                                  
// 1413                             LCP_state=STOP_ST; 
// 1414                             
// 1415                             return;                                                                    
// 1416                }  
// 1417              return; 
// 1418         case RTA: 
// 1419              LCP_event=NO_EVENT;
// 1420              switch(LCP_state)
// 1421                {                     
// 1422 
// 1423                 case STOP_ST:                                                                 
// 1424                             fl_lcp.lcp_tm_out_en=0;                 
// 1425                             LCP_state=STOP_ST;
// 1426                      
// 1427                             return;        
// 1428                 case OSTANOV:                                                                
// 1429                             fl_lcp.lcp_tm_out_en=0;                                                  
// 1430                             LCP_act_buf[uk_in_act_LCP]=TLF;  
// 1431                             prov_uk_in();                   
// 1432                             LCP_state=STOP_ST; 
// 1433          
// 1434                             return;  
// 1435                 case SEND_REQ:                                                                                
// 1436                             LCP_state=SEND_REQ;
??monitor_event_LCP_7:
        LDI	R16, 6
        RJMP	??monitor_event_LCP_8
??monitor_event_LCP_0:
        LD	R16, Z
        SBRS	R16, 1
        RJMP	??monitor_event_LCP_9
        LD	R16, Z
        ANDI	R16, 0xFD
        ST	Z, R16
        MOV	R16, R6
        SUBI	R16, 3
        BREQ	??monitor_event_LCP_10
        SUBI	R16, 2
        BRCS	??monitor_event_LCP_1
        SUBI	R16, 4
        BRCS	??monitor_event_LCP_11
        BREQ	??monitor_event_LCP_12
        RJMP	??monitor_event_LCP_1
??monitor_event_LCP_10:
        LDI	R16, 2
??monitor_event_LCP_13:
        MOVW	R31:R30, R25:R24
        STD	Z+20, R16
        RCALL	prov_uk_in
??monitor_event_LCP_11:
        MOVW	R31:R30, R27:R26
        LDD	R16, Z+10
        ANDI	R16, 0xFD
        STD	Z+10, R16
        LDI	R16, 1
??monitor_event_LCP_8:
        LDI	R30, LOW(fl_lcp1)
        LDI	R31, (fl_lcp1) >> 8
        STD	Z+1, R16
??monitor_event_LCP_1:
        LDI	R30, 7
        JMP	?EPILOGUE_B7_L09
??monitor_event_LCP_12:
        LDI	R16, 1
        RJMP	??monitor_event_LCP_13
??monitor_event_LCP_9:
        MOVW	R31:R30, R27:R26
        LDD	R16, Z+10
        SBRS	R16, 2
        RJMP	??monitor_event_LCP_14
        LDD	R16, Z+10
        ANDI	R16, 0xFB
        STD	Z+10, R16
        MOV	R16, R6
        SUBI	R16, 5
        BREQ	??monitor_event_LCP_15
        DEC	R16
        BRNE	$+2+2
        RJMP	??monitor_event_LCP_16
        DEC	R16
        BRNE	$+2+2
        RJMP	??monitor_event_LCP_16
        DEC	R16
        BREQ	??monitor_event_LCP_17
        RJMP	??monitor_event_LCP_1
??monitor_event_LCP_15:
        LDI	R16, 2
        STD	Z+41, R16
        LDI	R16, 9
??monitor_event_LCP_18:
        MOVW	R31:R30, R25:R24
??monitor_event_LCP_19:
        STD	Z+20, R16
        RCALL	prov_uk_in
??monitor_event_LCP_20:
        LDI	R16, 5
        RJMP	??monitor_event_LCP_8
??monitor_event_LCP_17:
        LDI	R16, 10
        STD	Z+41, R16
        LDI	R16, 6
??monitor_event_LCP_21:
        MOVW	R31:R30, R25:R24
??monitor_event_LCP_22:
        STD	Z+20, R16
        RCALL	prov_uk_in
// 1437                    
// 1438                             return;
// 1439                 case REC_ACK:                                                                                
// 1440                             LCP_state=SEND_REQ;
// 1441                         
// 1442                             return;
// 1443                 case SEND_ACK:                                                                
// 1444                             fl_lcp.lcp_tm_out_en=0;                 
// 1445                             LCP_state=SEND_ACK;
// 1446                  
// 1447                             return;
// 1448                 case OPEN_ST:                                                                
// 1449                             vol_cnt_rst_lcp=VOL_LCP_MC;  
// 1450                             LCP_act_buf[uk_in_act_LCP]=TLD;  
// 1451                             prov_uk_in();   
// 1452                             LCP_act_buf[uk_in_act_LCP]=SCR;  
// 1453                             prov_uk_in();                                  
// 1454                             LCP_state=SEND_REQ;
// 1455              
// 1456                             return;                                                                    
// 1457                }  
// 1458              return;
// 1459         case RUC:  
// 1460              LCP_event=NO_EVENT;
// 1461              switch(LCP_state)
// 1462                {                     
// 1463 
// 1464                 case STOP_ST:                                                                
// 1465                             LCP_act_buf[uk_in_act_LCP]=SCJ;  
// 1466                             prov_uk_in();   
// 1467                             fl_lcp.lcp_tm_out_en=0;                 
// 1468                             LCP_state=STOP_ST; 
// 1469 
// 1470                             return;        
// 1471                 case OSTANOV:                                                                
// 1472                             LCP_act_buf[uk_in_act_LCP]=SCJ;  
// 1473                             prov_uk_in();                   
// 1474                             LCP_state=OSTANOV; 
// 1475         
// 1476                             return;  
// 1477                 case SEND_REQ:                                                                
// 1478                             LCP_act_buf[uk_in_act_LCP]=SCJ;  
// 1479                             prov_uk_in();                   
// 1480                             LCP_state=SEND_REQ;
// 1481 
// 1482                             return;
// 1483                 case REC_ACK:                                                                
// 1484                             LCP_act_buf[uk_in_act_LCP]=SCJ;  
// 1485                             prov_uk_in();                   
// 1486                             LCP_state=REC_ACK; 
// 1487             
// 1488                             return;
// 1489                 case SEND_ACK:                                                                
// 1490                             LCP_act_buf[uk_in_act_LCP]=SCJ;  
// 1491                             prov_uk_in();                   
// 1492                             LCP_state=SEND_ACK;
// 1493       
// 1494                             return;
// 1495                 case OPEN_ST:                                                                
// 1496                             LCP_act_buf[uk_in_act_LCP]=SCJ;  
// 1497                             prov_uk_in();                   
// 1498                             LCP_state=OPEN_ST; 
// 1499  
// 1500                             return;                                                                    
// 1501                }  
// 1502              return; 
// 1503         case RXJ_PL:  
// 1504              LCP_event=NO_EVENT;
// 1505              switch(LCP_state)
// 1506                {                     
// 1507                 
// 1508                 case STOP_ST:      
// 1509                             fl_lcp.lcp_tm_out_en=0;                                                              
// 1510                             LCP_state=START_ST;
// 1511                             return;        
// 1512                 case OSTANOV:                                                                               
// 1513                             LCP_state=OSTANOV;
// 1514                             return;  
// 1515                 case SEND_REQ:                                                                                 
// 1516                             LCP_state=SEND_REQ;
// 1517                             return;
// 1518                 case REC_ACK:                                                                              
// 1519                             LCP_state=REC_ACK;
// 1520                             return;
// 1521                 case SEND_ACK:                                                                              
// 1522                             LCP_state=SEND_ACK;
??monitor_event_LCP_23:
        LDI	R16, 8
        RJMP	??monitor_event_LCP_8
??monitor_event_LCP_14:
        LDD	R16, Z+10
        SBRS	R16, 3
        RJMP	??monitor_event_LCP_24
        LDD	R16, Z+10
        ANDI	R16, 0xF7
        STD	Z+10, R16
        MOV	R16, R6
        SUBI	R16, 5
        SUBI	R16, 4
        BRCC	??monitor_event_LCP_1
??monitor_event_LCP_25:
        LDD	R16, Z+10
        ANDI	R16, 0xFD
        STD	Z+10, R16
        LDI	R16, 3
??monitor_event_LCP_26:
        MOVW	R31:R30, R25:R24
??monitor_event_LCP_27:
        STD	Z+20, R16
        RCALL	prov_uk_in
??monitor_event_LCP_28:
        LDI	R16, 3
        RJMP	??monitor_event_LCP_8
??monitor_event_LCP_24:
        LDD	R16, Z+19
        LDI	R30, LOW(`?<Jumptable for monitor_event_LCP>_0`)
        LDI	R31, (`?<Jumptable for monitor_event_LCP>_0`) >> 16
        OUT	0x3B, R31
        LDI	R31, HIGH(`?<Jumptable for monitor_event_LCP>_0`)
        JMP	?CV_SWITCH_L06
??monitor_event_LCP_29:
        LDI	R16, 255
        MOVW	R31:R30, R27:R26
        STD	Z+19, R16
        MOV	R16, R6
        SUBI	R16, 3
        BREQ	??monitor_event_LCP_30
        SUBI	R16, 2
        BREQ	??monitor_event_LCP_20
        DEC	R16
        BREQ	??monitor_event_LCP_31
        DEC	R16
        BREQ	??monitor_event_LCP_32
        DEC	R16
        BREQ	??monitor_event_LCP_31
        DEC	R16
        BREQ	??monitor_event_LCP_33
        RJMP	??monitor_event_LCP_1
??monitor_event_LCP_30:
        LDI	R16, 10
        STD	Z+41, R16
        LDI	R16, 4
        MOVW	R31:R30, R25:R24
        STD	Z+20, R16
        RCALL	prov_uk_in
        LDI	R16, 6
        MOVW	R31:R30, R27:R26
??monitor_event_LCP_34:
        LDD	R18, Z+36
        LDI	R19, 0
        ADD	R30, R18
        ADC	R31, R19
        STD	Z+20, R16
        RCALL	prov_uk_in
??monitor_event_LCP_31:
        LDI	R16, 7
??monitor_event_LCP_35:
        MOVW	R31:R30, R27:R26
        LDD	R18, Z+36
        LDI	R19, 0
        ADD	R26, R18
        ADC	R27, R19
        MOVW	R31:R30, R27:R26
        RJMP	??monitor_event_LCP_22
??monitor_event_LCP_32:
        LDI	R16, 7
??monitor_event_LCP_36:
        MOVW	R31:R30, R25:R24
        STD	Z+20, R16
        RCALL	prov_uk_in
        LDI	R16, 0
        MOVW	R31:R30, R27:R26
        LDD	R18, Z+36
        ADD	R26, R18
        ADC	R27, R16
        MOVW	R31:R30, R27:R26
??monitor_event_LCP_37:
        STD	Z+20, R16
        RCALL	prov_uk_in
// 1523                             return;
// 1524                 case OPEN_ST:                                                                                
// 1525                             LCP_state=OPEN_ST;
??monitor_event_LCP_38:
        LDI	R16, 9
        RJMP	??monitor_event_LCP_8
??monitor_event_LCP_33:
        LDI	R16, 1
        MOVW	R31:R30, R25:R24
        STD	Z+20, R16
        RCALL	prov_uk_in
        LDI	R16, 10
        MOVW	R31:R30, R27:R26
        STD	Z+41, R16
        LDI	R16, 6
        RJMP	??monitor_event_LCP_34
??monitor_event_LCP_39:
        LDI	R16, 255
        MOVW	R31:R30, R27:R26
        STD	Z+19, R16
        MOV	R16, R6
        SUBI	R16, 3
        BREQ	??monitor_event_LCP_40
        SUBI	R16, 2
        BRNE	$+2+2
        RJMP	??monitor_event_LCP_20
        DEC	R16
        BREQ	??monitor_event_LCP_41
        DEC	R16
        BREQ	??monitor_event_LCP_42
        DEC	R16
        BREQ	??monitor_event_LCP_41
        DEC	R16
        BREQ	??monitor_event_LCP_43
        RJMP	??monitor_event_LCP_1
??monitor_event_LCP_40:
        LDI	R16, 10
        STD	Z+41, R16
        LDI	R16, 4
        MOVW	R31:R30, R25:R24
        STD	Z+20, R16
        RCALL	prov_uk_in
        LDI	R16, 6
        MOVW	R31:R30, R27:R26
??monitor_event_LCP_44:
        LDD	R18, Z+36
        LDI	R19, 0
        ADD	R30, R18
        ADC	R31, R19
        STD	Z+20, R16
        RCALL	prov_uk_in
??monitor_event_LCP_41:
        LDI	R16, 8
        RJMP	??monitor_event_LCP_4
??monitor_event_LCP_42:
        LDI	R16, 8
??monitor_event_LCP_45:
        MOVW	R31:R30, R25:R24
        STD	Z+20, R16
        RCALL	prov_uk_in
        RJMP	??monitor_event_LCP_46
??monitor_event_LCP_43:
        LDI	R16, 1
        MOVW	R31:R30, R25:R24
        STD	Z+20, R16
        RCALL	prov_uk_in
        LDI	R16, 10
        MOVW	R31:R30, R27:R26
        STD	Z+41, R16
        LDI	R16, 6
        RJMP	??monitor_event_LCP_44
??monitor_event_LCP_47:
        LDI	R16, 255
        MOVW	R31:R30, R27:R26
        STD	Z+19, R16
        MOV	R16, R6
        SUBI	R16, 3
        BREQ	??monitor_event_LCP_48
        SUBI	R16, 2
        BRNE	$+2+2
        RJMP	??monitor_event_LCP_20
        DEC	R16
        BREQ	??monitor_event_LCP_49
        DEC	R16
        BREQ	??monitor_event_LCP_16
        DEC	R16
        BREQ	??monitor_event_LCP_50
??monitor_event_LCP_51:
        DEC	R16
        BREQ	??monitor_event_LCP_52
        RJMP	??monitor_event_LCP_1
??monitor_event_LCP_48:
        LDD	R16, Z+10
        ANDI	R16, 0xFD
        STD	Z+10, R16
        LDI	R16, 10
        RJMP	??monitor_event_LCP_26
??monitor_event_LCP_49:
        LDI	R16, 10
        STD	Z+41, R16
        LDI	R16, 4
        RJMP	??monitor_event_LCP_45
??monitor_event_LCP_50:
        LDI	R16, 10
        STD	Z+41, R16
        LDI	R16, 4
        RJMP	??monitor_event_LCP_36
??monitor_event_LCP_52:
        LDI	R16, 10
        STD	Z+41, R16
        LDI	R16, 1
        RJMP	??monitor_event_LCP_3
??monitor_event_LCP_53:
        LDI	R16, 255
        MOVW	R31:R30, R27:R26
        STD	Z+19, R16
        MOV	R16, R6
        SUBI	R16, 3
        BREQ	??monitor_event_LCP_48
        SUBI	R16, 2
        BRNE	$+2+2
        RJMP	??monitor_event_LCP_20
        DEC	R16
        BRNE	$+2+2
        RJMP	??monitor_event_LCP_2
        DEC	R16
        BREQ	??monitor_event_LCP_16
        DEC	R16
        BREQ	??monitor_event_LCP_54
        DEC	R16
        BREQ	??monitor_event_LCP_55
        RJMP	??monitor_event_LCP_1
??monitor_event_LCP_54:
        LDI	R16, 10
        STD	Z+41, R16
        LDI	R16, 4
        MOVW	R31:R30, R25:R24
        STD	Z+20, R16
        RCALL	prov_uk_in
        LDI	R16, 6
        RJMP	??monitor_event_LCP_35
??monitor_event_LCP_55:
        LDI	R16, 1
        MOVW	R31:R30, R25:R24
        STD	Z+20, R16
        RCALL	prov_uk_in
??monitor_event_LCP_16:
        LDI	R16, 10
        MOVW	R31:R30, R27:R26
        STD	Z+41, R16
        LDI	R16, 6
        RJMP	??monitor_event_LCP_5
??monitor_event_LCP_56:
        LDI	R16, 255
        MOVW	R31:R30, R27:R26
        STD	Z+19, R16
        MOV	R16, R6
        SUBI	R16, 3
        BREQ	??monitor_event_LCP_48
        SUBI	R16, 2
        BREQ	??monitor_event_LCP_57
        SUBI	R16, 1
        BRCS	??monitor_event_LCP_58
        SUBI	R16, 3
        BRCS	??monitor_event_LCP_59
        BREQ	??monitor_event_LCP_60
??monitor_event_LCP_58:
        RJMP	??monitor_event_LCP_1
??monitor_event_LCP_57:
        LDI	R16, 10
        RJMP	??monitor_event_LCP_18
??monitor_event_LCP_59:
        LDI	R16, 10
??monitor_event_LCP_61:
        MOVW	R31:R30, R25:R24
        RJMP	??monitor_event_LCP_6
??monitor_event_LCP_60:
        LDI	R16, 10
        STD	Z+41, R16
        LDI	R16, 1
        MOVW	R31:R30, R25:R24
        STD	Z+20, R16
        RCALL	prov_uk_in
        LDI	R16, 5
        MOVW	R31:R30, R27:R26
        LDD	R18, Z+36
        LDI	R19, 0
        ADD	R30, R18
        ADC	R31, R19
        STD	Z+20, R16
        RCALL	prov_uk_in
        LDI	R16, 10
        MOVW	R31:R30, R27:R26
        LDD	R18, Z+36
        LDI	R19, 0
        ADD	R26, R18
        ADC	R27, R19
        MOVW	R31:R30, R27:R26
        RJMP	??monitor_event_LCP_27
??monitor_event_LCP_62:
        LDI	R16, 255
        MOVW	R31:R30, R27:R26
        STD	Z+19, R16
        MOV	R16, R6
        SUBI	R16, 3
        BREQ	??monitor_event_LCP_63
        SUBI	R16, 2
        BRNE	$+2+2
        RJMP	??monitor_event_LCP_25
        DEC	R16
        BRNE	$+2+2
        RJMP	??monitor_event_LCP_7
        DEC	R16
        BRNE	$+2+2
        RJMP	??monitor_event_LCP_7
        DEC	R16
        BREQ	??monitor_event_LCP_64
        RJMP	??monitor_event_LCP_51
??monitor_event_LCP_63:
        MOVW	R31:R30, R27:R26
        LDD	R16, Z+10
        ANDI	R16, 0xFD
        STD	Z+10, R16
        RJMP	??monitor_event_LCP_28
??monitor_event_LCP_64:
        LDD	R16, Z+10
        ANDI	R16, 0xFD
        STD	Z+10, R16
        RJMP	??monitor_event_LCP_23
??monitor_event_LCP_65:
        LDI	R16, 255
        MOVW	R31:R30, R27:R26
        STD	Z+19, R16
        MOV	R16, R6
        SUBI	R16, 3
        BREQ	??monitor_event_LCP_66
        SUBI	R16, 2
        BREQ	??monitor_event_LCP_67
        DEC	R16
        BREQ	??monitor_event_LCP_68
        DEC	R16
        BREQ	??monitor_event_LCP_69
        DEC	R16
        BREQ	??monitor_event_LCP_70
        DEC	R16
        BREQ	??monitor_event_LCP_71
        RJMP	??monitor_event_LCP_1
??monitor_event_LCP_66:
        LDI	R16, 11
        MOVW	R31:R30, R25:R24
        STD	Z+20, R16
        RCALL	prov_uk_in
        RJMP	??monitor_event_LCP_63
??monitor_event_LCP_67:
        LDI	R16, 11
        RJMP	??monitor_event_LCP_18
??monitor_event_LCP_68:
        LDI	R16, 11
        RJMP	??monitor_event_LCP_61
??monitor_event_LCP_69:
        LDI	R16, 11
        RJMP	??monitor_event_LCP_45
??monitor_event_LCP_70:
        LDI	R16, 11
        RJMP	??monitor_event_LCP_21
??monitor_event_LCP_71:
        LDI	R16, 11
        MOVW	R31:R30, R25:R24
        RJMP	??monitor_event_LCP_37
??monitor_event_LCP_72:
        LDI	R16, 255
        MOVW	R31:R30, R27:R26
        STD	Z+19, R16
        MOV	R16, R6
        SUBI	R16, 3
        BRNE	$+2+2
        RJMP	??monitor_event_LCP_11
        SUBI	R16, 2
        BRNE	$+2+2
        RJMP	??monitor_event_LCP_20
        DEC	R16
        BRNE	$+2+2
        RJMP	??monitor_event_LCP_7
        DEC	R16
        BREQ	??monitor_event_LCP_46
        DEC	R16
        BRNE	$+2+2
        RJMP	??monitor_event_LCP_23
        DEC	R16
        BRNE	$+2+2
        RJMP	??monitor_event_LCP_38
        RJMP	??monitor_event_LCP_1
??monitor_event_LCP_46:
        LDI	R16, 7
        RJMP	??monitor_event_LCP_8
// 1526                             return;                                                                    
// 1527                }  
// 1528              return; 
// 1529         case RXJ_MI:  
// 1530             LCP_event=NO_EVENT;
??monitor_event_LCP_73:
        LDI	R16, 255
        MOVW	R31:R30, R27:R26
        STD	Z+19, R16
// 1531             switch(LCP_state)
        MOV	R16, R6
        SUBI	R16, 3
        BRNE	$+2+2
        RJMP	??monitor_event_LCP_25
        SUBI	R16, 2
        BRCS	??monitor_event_LCP_74
        SUBI	R16, 4
        BRCC	$+2+2
        RJMP	??monitor_event_LCP_25
        BREQ	??monitor_event_LCP_75
??monitor_event_LCP_74:
        RJMP	??monitor_event_LCP_1
// 1532                {                     
// 1533                 case STOP_ST:  
// 1534                             fl_lcp.lcp_tm_out_en=0;                                                  
// 1535                             LCP_act_buf[uk_in_act_LCP]=TLF;  
// 1536                             prov_uk_in();                   
// 1537                             LCP_state=STOP_ST;
// 1538                             return;               
// 1539                 case OSTANOV:  
// 1540                             fl_lcp.lcp_tm_out_en=0;                                                  
// 1541                             LCP_act_buf[uk_in_act_LCP]=TLF;  
// 1542                             prov_uk_in();                   
// 1543                             LCP_state=STOP_ST;
// 1544                             return;  
// 1545                 case SEND_REQ:                                                                
// 1546                             fl_lcp.lcp_tm_out_en=0;                                                  
// 1547                             LCP_act_buf[uk_in_act_LCP]=TLF;  
// 1548                             prov_uk_in();                   
// 1549                             LCP_state=STOP_ST;
// 1550                             return;
// 1551                 case REC_ACK:                                                                
// 1552                             fl_lcp.lcp_tm_out_en=0;                                                  
// 1553                             LCP_act_buf[uk_in_act_LCP]=TLF;  
// 1554                             prov_uk_in();                   
// 1555                             LCP_state=STOP_ST;
// 1556                             return;
// 1557                 case SEND_ACK:                                                                
// 1558                             fl_lcp.lcp_tm_out_en=0;                                                  
// 1559                             LCP_act_buf[uk_in_act_LCP]=TLF;  
// 1560                             prov_uk_in();                   
// 1561                             LCP_state=STOP_ST;
// 1562                             return;
// 1563                 case OPEN_ST:                                                                
// 1564                             vol_cnt_rst_lcp=VOL_LCP_MT;  
??monitor_event_LCP_75:
        LDI	R16, 2
        STD	Z+41, R16
// 1565                             LCP_act_buf[uk_in_act_LCP]=TLD;  
        LDI	R16, 1
        MOVW	R31:R30, R25:R24
        STD	Z+20, R16
// 1566                             prov_uk_in(); 
        RCALL	prov_uk_in
// 1567                             LCP_act_buf[uk_in_act_LCP]=IRC; 
        LDI	R16, 4
        MOVW	R31:R30, R27:R26
        LDD	R18, Z+36
        LDI	R19, 0
        ADD	R30, R18
        ADC	R31, R19
        STD	Z+20, R16
// 1568                             prov_uk_in();  
        RCALL	prov_uk_in
// 1569                             LCP_act_buf[uk_in_act_LCP]=STR;  
        LDI	R16, 9
        MOVW	R31:R30, R27:R26
        LDD	R18, Z+36
        LDI	R19, 0
        ADD	R26, R18
        ADC	R27, R19
        MOVW	R31:R30, R27:R26
        RJMP	??monitor_event_LCP_19
        CFI EndBlock cfiBlock7
// 1570                             prov_uk_in();                                  
// 1571                             LCP_state=OSTANOV;  
// 1572                             return;                                                                        
// 1573                } 
// 1574              return;  
// 1575         case RXR:       
// 1576              LCP_event=NO_EVENT;
// 1577              switch(LCP_state)
// 1578                {                     
// 1579 
// 1580                 case STOP_ST:      
// 1581                             fl_lcp.lcp_tm_out_en=0;                                                              
// 1582                             LCP_state=START_ST;
// 1583                             return;        
// 1584                 case OSTANOV:                                                                               
// 1585                             LCP_state=OSTANOV;
// 1586                             return;  
// 1587                 case SEND_REQ:                                                                                 
// 1588                             LCP_state=SEND_REQ;
// 1589                             return;
// 1590                 case REC_ACK:                                                                              
// 1591                             LCP_state=REC_ACK;
// 1592                             return;
// 1593                 case SEND_ACK:                                                                              
// 1594                             LCP_state=SEND_ACK;
// 1595                             return;
// 1596                 case OPEN_ST:                                                                                
// 1597                          //   LCP_act_buf[uk_in_act_LCP]=SER;  
// 1598                          //   prov_uk_in();
// 1599                             LCP_state=OPEN_ST;
// 1600                             return;                                                                 
// 1601                }  
// 1602              return;                                  
// 1603         }
// 1604     
// 1605     }
// 1606  
// 1607   
// 1608   
// 1609   ////////////////ěîíčňîđű IPCP        
// 1610   

        RSEG CODE:CODE:NOROOT(1)
// 1611   void run_ipcp_act(void)
run_ipcp_act:
        CFI Block cfiBlock8 Using cfiCommon0
        CFI Function run_ipcp_act
// 1612       {  
        FUNCALL run_ipcp_act, clr_cntr_nat
        LOCFRAME CSTACK, 7, STACK
        LOCFRAME RSTACK, 2, STACK
        FUNCALL run_ipcp_act, pppfcs16
        LOCFRAME CSTACK, 7, STACK
        LOCFRAME RSTACK, 2, STACK
        FUNCALL run_ipcp_act, check_cts
        LOCFRAME CSTACK, 7, STACK
        LOCFRAME RSTACK, 2, STACK
        FUNCALL run_ipcp_act, pppfcs16
        LOCFRAME CSTACK, 7, STACK
        LOCFRAME RSTACK, 2, STACK
        FUNCALL run_ipcp_act, check_cts
        LOCFRAME CSTACK, 7, STACK
        LOCFRAME RSTACK, 2, STACK
        FUNCALL run_ipcp_act, pppfcs16
        LOCFRAME CSTACK, 7, STACK
        LOCFRAME RSTACK, 2, STACK
        FUNCALL run_ipcp_act, check_cts
        LOCFRAME CSTACK, 7, STACK
        LOCFRAME RSTACK, 2, STACK
        FUNCALL run_ipcp_act, pppfcs16
        LOCFRAME CSTACK, 7, STACK
        LOCFRAME RSTACK, 2, STACK
        FUNCALL run_ipcp_act, check_cts
        LOCFRAME CSTACK, 7, STACK
        LOCFRAME RSTACK, 2, STACK
        FUNCALL run_ipcp_act, pppfcs16
        LOCFRAME CSTACK, 7, STACK
        LOCFRAME RSTACK, 2, STACK
        FUNCALL run_ipcp_act, check_cts
        LOCFRAME CSTACK, 7, STACK
        LOCFRAME RSTACK, 2, STACK
        FUNCALL run_ipcp_act, pppfcs16
        LOCFRAME CSTACK, 7, STACK
        LOCFRAME RSTACK, 2, STACK
        FUNCALL run_ipcp_act, check_cts
        LOCFRAME CSTACK, 7, STACK
        LOCFRAME RSTACK, 2, STACK
        FUNCALL run_ipcp_act, pppfcs16
        LOCFRAME CSTACK, 7, STACK
        LOCFRAME RSTACK, 2, STACK
        FUNCALL run_ipcp_act, check_cts
        LOCFRAME CSTACK, 7, STACK
        LOCFRAME RSTACK, 2, STACK
        CALL	?PROLOGUE5_L09
        CFI R4 Frame(CFA_Y, -1)
        CFI R27 Frame(CFA_Y, -2)
        CFI R26 Frame(CFA_Y, -3)
        CFI R25 Frame(CFA_Y, -4)
        CFI R24 Frame(CFA_Y, -5)
        CFI CFA_Y Y+5
        REQUIRE	?Register_R4_is_cg_reg
        SBIW	R29:R28, 2
        CFI CFA_Y Y+7
// 1613        unsigned char i;
// 1614        
// 1615        union
// 1616      {
// 1617       unsigned char bytes[2]; 
// 1618       unsigned int word;
// 1619      }temp;
// 1620       
// 1621        
// 1622        switch (IPCP_act_buf[uk_out_act_IPCP])
        LDI	R24, LOW(ip_pri_dns)
        LDI	R25, (ip_pri_dns) >> 8
        MOVW	R31:R30, R25:R24
        LDD	R4, Z+51
        LDI	R26, LOW(buf_tx_232)
        LDI	R27, (buf_tx_232) >> 8
        LDD	R16, Z+39
        LDI	R17, 0
        MOVW	R31:R30, R17:R16
        SUBI	R30, LOW((-(cnt_pap_tm_out) & 0xFFFF))
        SBCI	R31, (-(cnt_pap_tm_out) & 0xFFFF) >> 8
        LDD	R16, Z+4
        LDI	R30, LOW(`?<Jumptable for run_ipcp_act>_0`)
        LDI	R31, (`?<Jumptable for run_ipcp_act>_0`) >> 16
        OUT	0x3B, R31
        LDI	R31, HIGH(`?<Jumptable for run_ipcp_act>_0`)
        JMP	?CV_SWITCH_L06
// 1623           {
// 1624            case TLU:     
// 1625 
// 1626                 event_modem=EVM_PPP_OK;
??run_ipcp_act_0:
        LDI	R16, 4
        STS	event_modem, R16
// 1627  
// 1628                 layer_PPP=LAYER_IP;   
        STS	layer_PPP, R16
// 1629                 fl_ip.act_ip_end=1;   
        MOVW	R31:R30, R25:R24
        LDD	R16, Z+12
        ORI	R16, 0x01
        STD	Z+12, R16
// 1630                 fl_ipcp.act_ipcp_end=1; 
        LDD	R16, Z+11
        ORI	R16, 0x01
        STD	Z+11, R16
// 1631              
// 1632                if(Control.vol_link!=0)fl_ip.ip_tm_cntr_en=1;
        LDI	R26, LOW(Control)
        LDI	R27, (Control) >> 8
        MOVW	R31:R30, R27:R26
        LDD	R16, Z+8
        LDD	R17, Z+9
        OR	R16, R17
        BREQ	??run_ipcp_act_1
        MOVW	R31:R30, R25:R24
        LDD	R16, Z+12
        ORI	R16, 0x02
        STD	Z+12, R16
// 1633                if(Control.vol_nat!=0)fl_ip.ip_tm_nat_en=1;
??run_ipcp_act_1:
        MOVW	R31:R30, R27:R26
        LDD	R16, Z+10
        LDD	R17, Z+11
        OR	R16, R17
        BREQ	??run_ipcp_act_2
        MOVW	R31:R30, R25:R24
        LDD	R16, Z+12
        ORI	R16, 0x04
        STD	Z+12, R16
// 1634                Control.cnt_try=0;
??run_ipcp_act_2:
        LDI	R16, 0
        MOVW	R31:R30, R27:R26
        STD	Z+14, R16
// 1635                Control.cnt_link=BEG_CNTR_LINK;
        LDI	R16, 10
        LDI	R17, 0
        STD	Z+4, R16
        STD	Z+5, R17
// 1636                clr_cntr_nat();
        CALL	clr_cntr_nat
// 1637                
// 1638                Control.cnt_nat=BEG_CNTR_LINK-1; // ďóńňîé ďŕęĺň!!!!
        LDI	R16, 9
        LDI	R17, 0
        MOVW	R31:R30, R27:R26
        STD	Z+6, R16
        STD	Z+7, R17
        RJMP	??run_ipcp_act_3
// 1639                
// 1640               break;
// 1641            case TLD:  
// 1642                 fl_ipcp.act_ipcp_end=0;
// 1643                 layer_PPP=LAYER_LCP;  
??run_ipcp_act_4:
        LDI	R16, 1
        STS	layer_PPP, R16
// 1644                 fl_ipcp.act_ipcp_end=1; 
        MOVW	R31:R30, R25:R24
        LDD	R16, Z+11
        ORI	R16, 0x01
??run_ipcp_act_5:
        STD	Z+11, R16
        RJMP	??run_ipcp_act_3
// 1645                 break;
// 1646            case TLS:   
// 1647                 fl_ipcp.act_ipcp_end=0;
??run_ipcp_act_6:
        MOVW	R31:R30, R25:R24
        LDD	R16, Z+11
        ANDI	R16, 0xFE
        STD	Z+11, R16
// 1648                 event_modem=EVM_PPP_ERR;
        LDI	R16, 5
        STS	event_modem, R16
        RJMP	??run_ipcp_act_3
// 1649                 //write_log_info(ST_ERROR,ERR8);
// 1650                 //lock_it();
// 1651                 break;
// 1652            case TLF:  
// 1653                 fl_ipcp.act_ipcp_end=0;
// 1654                 event_modem=EVM_PPP_ERR;
// 1655                 //write_log_info(ST_ERROR,ERR9);
// 1656                 //lock_it();
// 1657                 break;
// 1658            case IRC:                   
// 1659                 fl_ipcp.act_ipcp_end=0;
// 1660                 cnt_ipcp_tm_out=VOL_IPCP_TM_OUT; 
??run_ipcp_act_7:
        LDI	R16, 184
        LDI	R17, 11
        LDI	R30, LOW(cnt_ipcp_tm_out)
        LDI	R31, (cnt_ipcp_tm_out) >> 8
        ST	Z, R16
        STD	Z+1, R17
// 1661                 cnt_rst_ipcp=vol_cnt_rst_ipcp;
        MOVW	R31:R30, R25:R24
        LDD	R16, Z+43
        STD	Z+42, R16
// 1662                 fl_ipcp.ipcp_tm_out_en=1; 
// 1663                 fl_ipcp.act_ipcp_end=1; 
        LDD	R16, Z+11
        ORI	R16, 0x03
        RJMP	??run_ipcp_act_5
// 1664                      
// 1665                 break;
// 1666            case ZRC:  
// 1667                 fl_ipcp.act_ipcp_end=0;
// 1668                 cnt_ipcp_tm_out=VOL_IPCP_TM_OUT; 
??run_ipcp_act_8:
        LDI	R16, 184
        LDI	R17, 11
        LDI	R30, LOW(cnt_ipcp_tm_out)
        LDI	R31, (cnt_ipcp_tm_out) >> 8
        ST	Z, R16
        STD	Z+1, R17
// 1669                 cnt_rst_ipcp=0;
        LDI	R16, 0
        MOVW	R31:R30, R25:R24
        STD	Z+42, R16
// 1670                 fl_ipcp.ipcp_tm_out_en=1; 
// 1671                 fl_ipcp.act_ipcp_end=1;  
        LDD	R16, Z+11
        ORI	R16, 0x03
        STD	Z+11, R16
        RJMP	??run_ipcp_act_3
// 1672                 break;
// 1673            case SCR:    
// 1674 
// 1675                  fl_ipcp.act_ipcp_end=0;
??run_ipcp_act_9:
        MOVW	R31:R30, R25:R24
        LDD	R16, Z+11
        ANDI	R16, 0xFE
        STD	Z+11, R16
// 1676                  buf_tx_232[0]=0x7e;               
        LDI	R16, 126
        ST	X, R16
// 1677                  buf_tx_232[1]=0x80;
        LDI	R16, 128
        MOVW	R31:R30, R27:R26
        STD	Z+1, R16
// 1678                  buf_tx_232[2]=0x21;
        LDI	R16, 33
        STD	Z+2, R16
// 1679                  
// 1680                  buf_tx_232[3]=CONF_REQ; 
        LDI	R16, 1
        STD	Z+3, R16
// 1681                  buf_tx_232[4]=i_scr_ipcp;   
        MOVW	R31:R30, R25:R24
        LDD	R16, Z+50
        MOVW	R31:R30, R27:R26
        STD	Z+4, R16
// 1682  
// 1683                  
// 1684                  buf_tx_232[5]=0;
        LDI	R16, 0
        STD	Z+5, R16
// 1685                  buf_tx_232[6]=10;//áĺç DNS
        LDI	R16, 10
        STD	Z+6, R16
// 1686                   
// 1687                //  buf_tx_232[6]=22;//c DNS 
// 1688                               
// 1689                  buf_tx_232[7]=3;      //çŕďđîń IP ęîíňđîëëĺđŕ
        LDI	R16, 3
        STD	Z+7, R16
// 1690                  buf_tx_232[8]=6;
        LDI	R16, 6
        STD	Z+8, R16
// 1691                  buf_tx_232[9]=ip_self[0]; 
        LDI	R16, LOW(ip_self)
        LDI	R17, (ip_self) >> 8
        MOVW	R31:R30, R17:R16
        LD	R18, Z
        MOVW	R31:R30, R27:R26
        STD	Z+9, R18
// 1692                  buf_tx_232[10]=ip_self[1]; 
        MOVW	R31:R30, R17:R16
        LDD	R18, Z+1
        MOVW	R31:R30, R27:R26
        STD	Z+10, R18
// 1693                  buf_tx_232[11]=ip_self[2];
        MOVW	R31:R30, R17:R16
        LDD	R18, Z+2
        MOVW	R31:R30, R27:R26
        STD	Z+11, R18
// 1694                  buf_tx_232[12]=ip_self[3];
        MOVW	R31:R30, R17:R16
        LDD	R16, Z+3
        MOVW	R31:R30, R27:R26
        STD	Z+12, R16
// 1695                  
// 1696                  
// 1697                //  buf_tx_232[13]=0x81;      //çŕďđîń IP_PRI_DNS
// 1698                //  buf_tx_232[14]=6;
// 1699                //  buf_tx_232[15]=ip_pri_dns[0]; 
// 1700                //  buf_tx_232[16]=ip_pri_dns[1]; 
// 1701                 // buf_tx_232[17]=ip_pri_dns[2];
// 1702                 // buf_tx_232[18]=ip_pri_dns[3];
// 1703                  
// 1704                 // buf_tx_232[19]=0x83;      //çŕďđîń IP_SEC_DNS
// 1705                 // buf_tx_232[20]=6;
// 1706                 // buf_tx_232[21]=ip_sec_dns[0]; 
// 1707                 // buf_tx_232[22]=ip_sec_dns[1]; 
// 1708                 // buf_tx_232[23]=ip_sec_dns[2];
// 1709                 // buf_tx_232[24]=ip_sec_dns[3];
// 1710                                   
// 1711                  
// 1712                  temp.word=pppfcs16(PPPINITFCS16,&buf_tx_232[1],buf_tx_232[6]+2) ^ 0xffff;                  
        LDI	R20, 12
        LDI	R21, 0
        MOVW	R19:R18, R27:R26
        SUBI	R18, 255
        SBCI	R19, 255
        LDI	R16, 255
        LDI	R17, 255
        RCALL	pppfcs16
        LDI	R18, 255
        LDI	R19, 255
        EOR	R18, R16
        EOR	R19, R17
        ST	Y, R18
        STD	Y+1, R19
// 1713                  buf_tx_232[13]=temp.bytes[0];//áĺç DNS
        LD	R16, Y
        MOVW	R31:R30, R27:R26
        STD	Z+13, R16
// 1714                  buf_tx_232[14]=temp.bytes[1];//áĺç DNS
        LDD	R16, Y+1
        STD	Z+14, R16
// 1715                  
// 1716                  buf_tx_232[15]=0x7e; //áĺç DNS
        LDI	R16, 126
        STD	Z+15, R16
// 1717                //  buf_tx_232[25]=temp.bytes[0];//c DNS 
// 1718                //  buf_tx_232[26]=temp.bytes[1]; //c DNS              
// 1719                //  buf_tx_232[27]=0x7e; //c DNS 
// 1720                 
// 1721                  count_tx_ppp=0;
        LDI	R16, 0
        LDI	R17, 0
        LDI	R30, LOW(count_tx_ppp)
        LDI	R31, (count_tx_ppp) >> 8
        ST	Z, R16
        STD	Z+1, R16
// 1722                  vol_tx_ppp=buf_tx_232[6]+6;               
        LDI	R16, 16
        LDI	R30, LOW(vol_tx_ppp)
        LDI	R31, (vol_tx_ppp) >> 8
        ST	Z, R16
        STD	Z+1, R17
// 1723                  UCSR0A=UCSR0A | TXC;                            
        LDS	R16, 192
        ORI	R16, 0x40
        STS	192, R16
// 1724                  UCSR0B=UCSR0B | TXEN;
        LDS	R16, 193
        ORI	R16, 0x08
        STS	193, R16
// 1725                  UCSR0B=UCSR0B | TXCIE;
        LDS	R16, 193
        ORI	R16, 0x40
        STS	193, R16
// 1726                  if(check_cts()==1) return;   
        CALL	check_cts
        CPI	R16, 1
        BRNE	$+2+2
        RJMP	??run_ipcp_act_3
// 1727                  S2_RD;
        SBI	0x08, 0x00
        CBI	0x08, 0x01
// 1728                  UDR0=buf_tx_232[0]; 
        LD	R16, X
        STS	198, R16
// 1729                  if(Regim==RG_DEBAG) UDR3=buf_tx_232[0];
        LDS	R16, Regim
        CPI	R16, 1
        BREQ	$+2+2
        RJMP	??run_ipcp_act_3
??run_ipcp_act_10:
        LD	R16, X
        STS	310, R16
        RJMP	??run_ipcp_act_3
// 1730                
// 1731                  
// 1732                
// 1733                 break; 
// 1734                  
// 1735            case SCA: 
// 1736                  fl_ipcp.act_ipcp_end=0;
??run_ipcp_act_11:
        MOVW	R31:R30, R25:R24
        LDD	R16, Z+11
        ANDI	R16, 0xFE
        STD	Z+11, R16
// 1737                  buf_tx_232[0]=0x7e; 
        LDI	R16, 126
        ST	X, R16
// 1738                  buf_tx_232[1]=0x80;
        LDI	R16, 128
        MOVW	R31:R30, R27:R26
        STD	Z+1, R16
// 1739                  buf_tx_232[2]=0x21;
        LDI	R16, 33
        STD	Z+2, R16
// 1740                                  
// 1741                  buf_tx_232[3]=CONF_ACK;
        LDI	R16, 2
        STD	Z+3, R16
// 1742                  buf_tx_232[4]=i_scan_ipcp;
        STD	Z+4, R4
// 1743                  
// 1744                  temp.word=ln_ack_ipcp+4;
        ADIW	R25:R24, 61
        MOVW	R31:R30, R25:R24
        LD	R17, Z
        MOV	R24, R17
        LDI	R25, 0
        MOVW	R19:R18, R25:R24
        SUBI	R18, 252
        SBCI	R19, 255
        ST	Y, R18
        STD	Y+1, R19
// 1745                  buf_tx_232[5]=temp.bytes[1]; 
        LDD	R16, Y+1
        MOVW	R31:R30, R27:R26
        STD	Z+5, R16
// 1746                  buf_tx_232[6]=temp.bytes[0];
        LD	R16, Y
        STD	Z+6, R16
// 1747                 
// 1748                  temp.word=temp.word+2;         
        LD	R18, Y
        LDD	R19, Y+1
        SUBI	R18, 254
        SBCI	R19, 255
        ST	Y, R18
        STD	Y+1, R19
// 1749                  vol_tx_ppp=temp.word+4;  
        LD	R18, Y
        LDD	R19, Y+1
        SUBI	R18, 252
        SBCI	R19, 255
        LDI	R30, LOW(vol_tx_ppp)
        LDI	R31, (vol_tx_ppp) >> 8
        ST	Z, R18
        STD	Z+1, R19
// 1750                    
// 1751                  for(i=0;i<ln_ack_ipcp;i++)buf_tx_232[7+i]=buf_ack_opt_ipcp[i];
        LDI	R16, 0
        RJMP	??run_ipcp_act_12
??run_ipcp_act_13:
        MOV	R18, R16
        LDI	R19, 0
        MOVW	R31:R30, R19:R18
        SUBI	R30, LOW((-(cnt_ipcp_tm_out) & 0xFFFF))
        SBCI	R31, (-(cnt_ipcp_tm_out) & 0xFFFF) >> 8
        LDD	R20, Z+33
        MOVW	R31:R30, R27:R26
        ADD	R30, R18
        ADC	R31, R25
        STD	Z+7, R20
        INC	R16
??run_ipcp_act_12:
        CP	R16, R17
        BRCS	??run_ipcp_act_13
// 1752                  
// 1753                  temp.word=pppfcs16(PPPINITFCS16,&buf_tx_232[1],temp.word) ^ 0xffff;                  
??run_ipcp_act_14:
        LD	R20, Y
        LDD	R21, Y+1
        MOVW	R19:R18, R27:R26
        SUBI	R18, 255
        SBCI	R19, 255
        LDI	R16, 255
        LDI	R17, 255
        RCALL	pppfcs16
        LDI	R18, 255
        LDI	R19, 255
        EOR	R18, R16
        EOR	R19, R17
        ST	Y, R18
        STD	Y+1, R19
// 1754                  buf_tx_232[7+ln_ack_ipcp]=temp.bytes[0];
        MOVW	R31:R30, R27:R26
        ADD	R30, R24
        ADC	R31, R25
        LD	R18, Y
        STD	Z+7, R18
// 1755                  buf_tx_232[8+ln_ack_ipcp]=temp.bytes[1];
        LDD	R18, Y+1
        STD	Z+8, R18
// 1756                  buf_tx_232[9+ln_ack_ipcp]=0x7e;
        LDI	R16, 126
        STD	Z+9, R16
// 1757                  
// 1758                  count_tx_ppp=0;                             
        LDI	R30, LOW(count_tx_ppp)
        LDI	R31, (count_tx_ppp) >> 8
        ST	Z, R25
        STD	Z+1, R25
// 1759                      UCSR0A=UCSR0A | TXC;                            
??run_ipcp_act_15:
        LDS	R16, 192
        ORI	R16, 0x40
        STS	192, R16
// 1760                      UCSR0B=UCSR0B | TXEN;
        LDS	R16, 193
        ORI	R16, 0x08
        STS	193, R16
// 1761                      UCSR0B=UCSR0B | TXCIE;
        LDS	R16, 193
        ORI	R16, 0x40
        STS	193, R16
// 1762                      if(check_cts()==1) return;
        CALL	check_cts
        CPI	R16, 1
        BRNE	$+2+2
        RJMP	??run_ipcp_act_3
// 1763                  S2_RD;
        SBI	0x08, 0x00
        CBI	0x08, 0x01
// 1764                  UDR0=buf_tx_232[0]; 
        LD	R16, X
        STS	198, R16
// 1765                  if(Regim==RG_DEBAG) UDR3=buf_tx_232[0];
        LDS	R16, Regim
        CPI	R16, 1
        BREQ	$+2+2
        RJMP	??run_ipcp_act_3
        RJMP	??run_ipcp_act_10
// 1766                
// 1767                 
// 1768                   
// 1769                 break;
// 1770            case SCN:  
// 1771                 
// 1772                 
// 1773 
// 1774                  fl_ipcp.act_ipcp_end=0;
??run_ipcp_act_16:
        MOVW	R31:R30, R25:R24
        LDD	R16, Z+11
        ANDI	R16, 0xFE
        STD	Z+11, R16
// 1775                  buf_tx_232[0]=0x7e; 
        LDI	R16, 126
        ST	X, R16
// 1776                  buf_tx_232[1]=0x80;
        LDI	R16, 128
        MOVW	R31:R30, R27:R26
        STD	Z+1, R16
// 1777                  buf_tx_232[2]=0x21;
        LDI	R16, 33
        STD	Z+2, R16
// 1778 
// 1779                  
// 1780                  if (fl_ipcp2.nac_rej==0) 
        MOVW	R31:R30, R25:R24
        LDD	R16, Z+15
        SBRC	R16, 0
        RJMP	??run_ipcp_act_17
// 1781                      {
// 1782                      buf_tx_232[3]=CONF_NAK;                       
        LDI	R16, 3
        MOVW	R31:R30, R27:R26
        STD	Z+3, R16
// 1783                      
// 1784                      buf_tx_232[4]=i_scan_ipcp;
        STD	Z+4, R4
// 1785                  
// 1786                      temp.word=ln_nak_ipcp+4;
        ADIW	R25:R24, 62
        MOVW	R31:R30, R25:R24
        LD	R17, Z
        MOV	R24, R17
        LDI	R25, 0
        MOVW	R19:R18, R25:R24
        SUBI	R18, 252
        SBCI	R19, 255
        ST	Y, R18
        STD	Y+1, R19
// 1787                      buf_tx_232[5]=temp.bytes[1]; 
        LDD	R16, Y+1
        MOVW	R31:R30, R27:R26
        STD	Z+5, R16
// 1788                      buf_tx_232[6]=temp.bytes[0];
        LD	R16, Y
        STD	Z+6, R16
// 1789                     
// 1790                     temp.word=temp.word+2;         
        LD	R18, Y
        LDD	R19, Y+1
        SUBI	R18, 254
        SBCI	R19, 255
        ST	Y, R18
        STD	Y+1, R19
// 1791                     vol_tx_ppp=temp.word+4;
        LD	R18, Y
        LDD	R19, Y+1
        SUBI	R18, 252
        SBCI	R19, 255
        LDI	R30, LOW(vol_tx_ppp)
        LDI	R31, (vol_tx_ppp) >> 8
        ST	Z, R18
        STD	Z+1, R19
// 1792                      
// 1793 
// 1794                       
// 1795                      for(i=0;i<ln_nak_ipcp;i++)buf_tx_232[7+i]=buf_nak_opt_ipcp[i];
        LDI	R16, 0
        RJMP	??run_ipcp_act_18
??run_ipcp_act_19:
        MOV	R18, R16
        LDI	R19, 0
        MOVW	R31:R30, R19:R18
        SUBI	R30, LOW((-(cnt_pap_tm_out) & 0xFFFF))
        SBCI	R31, (-(cnt_pap_tm_out) & 0xFFFF) >> 8
        LDD	R20, Z+16
        MOVW	R31:R30, R27:R26
        ADD	R30, R18
        ADC	R31, R25
        STD	Z+7, R20
        INC	R16
??run_ipcp_act_18:
        CP	R16, R17
        BRCS	??run_ipcp_act_19
// 1796                      temp.word=pppfcs16(PPPINITFCS16,&buf_tx_232[1],temp.word) ^ 0xffff;                  
        RJMP	??run_ipcp_act_14
// 1797                      buf_tx_232[7+ln_nak_ipcp]=temp.bytes[0];
// 1798                      buf_tx_232[8+ln_nak_ipcp]=temp.bytes[1];
// 1799                      buf_tx_232[9+ln_nak_ipcp]=0x7e;
// 1800                      
// 1801                      count_tx_ppp=0;                             
// 1802                      UCSR0A=UCSR0A | TXC;                            
// 1803                      UCSR0B=UCSR0B | TXEN;
// 1804                      UCSR0B=UCSR0B | TXCIE;
// 1805                      if(check_cts()==1) return;
// 1806                      S2_RD;
// 1807                      UDR0=buf_tx_232[0];
// 1808                      if(Regim==RG_DEBAG) UDR3=buf_tx_232[0];
// 1809                      
// 1810                      }  
// 1811                      else
// 1812                      { 
// 1813                      fl_ipcp2.nac_rej=0;
??run_ipcp_act_17:
        LDD	R16, Z+15
        ANDI	R16, 0xFE
        STD	Z+15, R16
// 1814                      buf_tx_232[3]=CONF_REJ;  
        LDI	R16, 4
        MOVW	R31:R30, R27:R26
        STD	Z+3, R16
// 1815                      buf_tx_232[4]=i_scan_ipcp;
        STD	Z+4, R4
// 1816                  
// 1817                      temp.word=ln_rej_ipcp+4;
        ADIW	R25:R24, 60
        MOVW	R31:R30, R25:R24
        LD	R17, Z
        MOV	R24, R17
        LDI	R25, 0
        MOVW	R19:R18, R25:R24
        SUBI	R18, 252
        SBCI	R19, 255
        ST	Y, R18
        STD	Y+1, R19
// 1818                      buf_tx_232[5]=temp.bytes[1]; 
        LDD	R16, Y+1
        MOVW	R31:R30, R27:R26
        STD	Z+5, R16
// 1819                      buf_tx_232[6]=temp.bytes[0];
        LD	R16, Y
        STD	Z+6, R16
// 1820                                  
// 1821                     temp.word=temp.word+2;         
        LD	R18, Y
        LDD	R19, Y+1
        SUBI	R18, 254
        SBCI	R19, 255
        ST	Y, R18
        STD	Y+1, R19
// 1822                     vol_tx_ppp=temp.word+4; 
        LD	R18, Y
        LDD	R19, Y+1
        SUBI	R18, 252
        SBCI	R19, 255
        LDI	R30, LOW(vol_tx_ppp)
        LDI	R31, (vol_tx_ppp) >> 8
        ST	Z, R18
        STD	Z+1, R19
// 1823                      
// 1824                      for(i=0;i<ln_rej_ipcp;i++)buf_tx_232[7+i]=buf_rej_opt_ipcp[i];
        LDI	R16, 0
        RJMP	??run_ipcp_act_20
??run_ipcp_act_21:
        MOV	R18, R16
        LDI	R19, 0
        MOVW	R31:R30, R19:R18
        SUBI	R30, LOW((-(buf_rej_opt_ipcp) & 0xFFFF))
        SBCI	R31, (-(buf_rej_opt_ipcp) & 0xFFFF) >> 8
        LD	R20, Z
        MOVW	R31:R30, R27:R26
        ADD	R30, R18
        ADC	R31, R25
        STD	Z+7, R20
        INC	R16
??run_ipcp_act_20:
        CP	R16, R17
        BRCS	??run_ipcp_act_21
// 1825                      temp.word=pppfcs16(PPPINITFCS16,&buf_tx_232[1],temp.word) ^ 0xffff;                  
        LD	R20, Y
        LDD	R21, Y+1
        MOVW	R19:R18, R27:R26
        SUBI	R18, 255
        SBCI	R19, 255
        LDI	R16, 255
        LDI	R17, 255
        CALL	pppfcs16
        LDI	R18, 255
        LDI	R19, 255
        EOR	R18, R16
        EOR	R19, R17
        ST	Y, R18
        STD	Y+1, R19
// 1826                      buf_tx_232[7+ln_rej_ipcp]=temp.bytes[0];
        MOVW	R31:R30, R27:R26
        ADD	R30, R24
        ADC	R31, R25
        LD	R18, Y
        STD	Z+7, R18
// 1827                      buf_tx_232[8+ln_rej_ipcp]=temp.bytes[1];                     
        LDD	R18, Y+1
        STD	Z+8, R18
// 1828                      buf_tx_232[9+ln_rej_ipcp]=0x7e;                     
        LDI	R16, 126
        STD	Z+9, R16
// 1829                     
// 1830                      count_tx_ppp=0;                             
        LDI	R30, LOW(count_tx_ppp)
        LDI	R31, (count_tx_ppp) >> 8
        ST	Z, R25
        STD	Z+1, R25
// 1831                      UCSR0A=UCSR0A | TXC;                            
??run_ipcp_act_22:
        LDS	R16, 192
        ORI	R16, 0x40
        STS	192, R16
// 1832                      UCSR0B=UCSR0B | TXEN;
        LDS	R16, 193
        ORI	R16, 0x08
        STS	193, R16
// 1833                      UCSR0B=UCSR0B | TXCIE;
        LDS	R16, 193
        ORI	R16, 0x40
        STS	193, R16
// 1834                      if(check_cts()==1) return;                 
        CALL	check_cts
        CPI	R16, 1
        BRNE	$+2+2
        RJMP	??run_ipcp_act_3
// 1835                      S2_RD;
        SBI	0x08, 0x00
        CBI	0x08, 0x01
// 1836                      UDR0=buf_tx_232[0]; 
        LD	R16, X
        STS	198, R16
// 1837                      if(Regim==RG_DEBAG) UDR3=buf_tx_232[0];
        LDS	R16, Regim
        CPI	R16, 1
        BREQ	$+2+2
        RJMP	??run_ipcp_act_3
        RJMP	??run_ipcp_act_10
// 1838                      }   
// 1839                      
// 1840 
// 1841                      
// 1842                 break; 
// 1843            case STR: 
// 1844                  fl_ipcp.act_ipcp_end=0;
??run_ipcp_act_23:
        MOVW	R31:R30, R25:R24
        LDD	R16, Z+11
        ANDI	R16, 0xFE
        STD	Z+11, R16
// 1845                  buf_tx_232[0]=0x7e; 
        LDI	R16, 126
        ST	X, R16
// 1846                 
// 1847                  buf_tx_232[1]=0x80;
        LDI	R16, 128
        MOVW	R31:R30, R27:R26
        STD	Z+1, R16
// 1848                  buf_tx_232[2]=0x21;
        LDI	R16, 33
        STD	Z+2, R16
// 1849                  
// 1850                  buf_tx_232[3]=TERM_REQ;  
        LDI	R16, 5
        STD	Z+3, R16
// 1851                  buf_tx_232[4]=i_str_ipcp; 
        MOVW	R31:R30, R25:R24
        LDD	R16, Z+52
        MOVW	R31:R30, R27:R26
        STD	Z+4, R16
// 1852                  
// 1853                  buf_tx_232[5]=0; 
        LDI	R16, 0
        STD	Z+5, R16
// 1854                  buf_tx_232[6]=0x4;
        LDI	R16, 4
        STD	Z+6, R16
// 1855                  
// 1856                  vol_tx_ppp=buf_tx_232[8]+6;
        LDD	R24, Z+8
        LDI	R25, 0
        ADIW	R25:R24, 6
        LDI	R30, LOW(vol_tx_ppp)
        LDI	R31, (vol_tx_ppp) >> 8
        ST	Z, R24
        STD	Z+1, R25
// 1857                  
// 1858                  temp.word=pppfcs16(PPPINITFCS16,&buf_tx_232[1],buf_tx_232[6]+2) ^ 0xffff;                  
        LDI	R20, 6
        LDI	R21, 0
        MOVW	R19:R18, R27:R26
        SUBI	R18, 255
        SBCI	R19, 255
        LDI	R16, 255
        LDI	R17, 255
        CALL	pppfcs16
        LDI	R18, 255
        LDI	R19, 255
        EOR	R18, R16
        EOR	R19, R17
        ST	Y, R18
        STD	Y+1, R19
// 1859                  buf_tx_232[7]=temp.bytes[0];
        LD	R16, Y
        MOVW	R31:R30, R27:R26
        STD	Z+7, R16
// 1860                  buf_tx_232[8]=temp.bytes[1];
        LDD	R16, Y+1
        STD	Z+8, R16
// 1861                  
// 1862                  buf_tx_232[9]=0x7e;  
        LDI	R16, 126
        STD	Z+9, R16
// 1863                  
// 1864                  
// 1865                  count_tx_ppp=0;                             
        LDI	R16, 0
        LDI	R30, LOW(count_tx_ppp)
        LDI	R31, (count_tx_ppp) >> 8
        ST	Z, R16
        STD	Z+1, R16
// 1866                      UCSR0A=UCSR0A | TXC;                            
        RJMP	??run_ipcp_act_15
// 1867                      UCSR0B=UCSR0B | TXEN;
// 1868                      UCSR0B=UCSR0B | TXCIE;
// 1869                      if(check_cts()==1) return;
// 1870                  S2_RD;
// 1871                  UDR0=buf_tx_232[0];
// 1872                  if(Regim==RG_DEBAG) UDR3=buf_tx_232[0];
// 1873                  
// 1874                   
// 1875                 break; 
// 1876            case STA:    
// 1877                  fl_ipcp.act_ipcp_end=0;
??run_ipcp_act_24:
        MOVW	R31:R30, R25:R24
        LDD	R16, Z+11
        ANDI	R16, 0xFE
        STD	Z+11, R16
// 1878                  buf_tx_232[0]=0x7e; 
        LDI	R16, 126
        ST	X, R16
// 1879                  buf_tx_232[1]=0x80;
        LDI	R16, 128
        MOVW	R31:R30, R27:R26
        STD	Z+1, R16
// 1880                  buf_tx_232[2]=0x21;
        LDI	R16, 33
        STD	Z+2, R16
// 1881           
// 1882                  buf_tx_232[3]=TERM_ACK;  
        LDI	R16, 6
        STD	Z+3, R16
// 1883                  
// 1884                   buf_tx_232[4]=i_sta_ipcp; 
        MOVW	R31:R30, R25:R24
        LDD	R16, Z+53
        MOVW	R31:R30, R27:R26
        STD	Z+4, R16
// 1885                  
// 1886                  buf_tx_232[5]=0; 
        LDI	R16, 0
        STD	Z+5, R16
// 1887                  buf_tx_232[6]=0x4;
        LDI	R16, 4
        STD	Z+6, R16
// 1888                  
// 1889                  vol_tx_ppp=buf_tx_232[6]+6;
        LDI	R16, 10
        LDI	R17, 0
        LDI	R30, LOW(vol_tx_ppp)
        LDI	R31, (vol_tx_ppp) >> 8
        ST	Z, R16
        STD	Z+1, R17
// 1890                  
// 1891                  temp.word=pppfcs16(PPPINITFCS16,&buf_tx_232[1],buf_tx_232[6]+2) ^ 0xffff;                  
        LDI	R20, 6
        LDI	R21, 0
        MOVW	R19:R18, R27:R26
        SUBI	R18, 255
        SBCI	R19, 255
        LDI	R16, 255
        LDI	R17, 255
        CALL	pppfcs16
        LDI	R18, 255
        LDI	R19, 255
        EOR	R18, R16
        EOR	R19, R17
        ST	Y, R18
        STD	Y+1, R19
// 1892                  buf_tx_232[7]=temp.bytes[0];
        LD	R16, Y
        MOVW	R31:R30, R27:R26
        STD	Z+7, R16
// 1893                  buf_tx_232[8]=temp.bytes[1];
        LDD	R16, Y+1
        STD	Z+8, R16
// 1894                  
// 1895                  buf_tx_232[9]=0x7e;  
        LDI	R16, 126
        STD	Z+9, R16
// 1896                 
// 1897                  count_tx_ppp=0;                             
        LDI	R16, 0
        LDI	R30, LOW(count_tx_ppp)
        LDI	R31, (count_tx_ppp) >> 8
        ST	Z, R16
        STD	Z+1, R16
// 1898                      UCSR0A=UCSR0A | TXC;                            
        RJMP	??run_ipcp_act_22
// 1899                      UCSR0B=UCSR0B | TXEN;
// 1900                      UCSR0B=UCSR0B | TXCIE;
// 1901                      if(check_cts()==1) return; 
// 1902                  S2_RD;
// 1903                  UDR0=buf_tx_232[0]; 
// 1904                  if(Regim==RG_DEBAG) UDR3=buf_tx_232[0];
// 1905                 
// 1906                 break;           
// 1907                                    
// 1908            case SCJ:   
// 1909                  fl_ipcp.act_ipcp_end=0;
??run_ipcp_act_25:
        MOVW	R31:R30, R25:R24
        LDD	R16, Z+11
        ANDI	R16, 0xFE
        STD	Z+11, R16
// 1910                  buf_tx_232[0]=0x7e; 
        LDI	R16, 126
        ST	X, R16
// 1911                  buf_tx_232[1]=0x80;
        LDI	R16, 128
        MOVW	R31:R30, R27:R26
        STD	Z+1, R16
// 1912                  buf_tx_232[2]=0x21;
        LDI	R16, 33
        STD	Z+2, R16
// 1913                  
// 1914                  buf_tx_232[3]=CODE_REJ; 
        LDI	R16, 7
        STD	Z+3, R16
// 1915                  
// 1916                  buf_tx_232[4]=i_scj_lcp;
        MOVW	R31:R30, R25:R24
        LDD	R16, Z+47
        MOVW	R31:R30, R27:R26
        STD	Z+4, R16
// 1917                  i_scj_lcp++;
        MOVW	R31:R30, R25:R24
        LDD	R16, Z+47
        INC	R16
        STD	Z+47, R16
// 1918                  
// 1919                  temp.word=ln_rejc_ipcp+4;
        LDD	R17, Z+59
        MOV	R24, R17
        LDI	R25, 0
        MOVW	R19:R18, R25:R24
        SUBI	R18, 252
        SBCI	R19, 255
        ST	Y, R18
        STD	Y+1, R19
// 1920                  buf_tx_232[5]=temp.bytes[1]; 
        LDD	R16, Y+1
        MOVW	R31:R30, R27:R26
        STD	Z+5, R16
// 1921                  buf_tx_232[6]=temp.bytes[0];
        LD	R16, Y
        STD	Z+6, R16
// 1922                
// 1923                  temp.word=temp.word+2;         
        LD	R18, Y
        LDD	R19, Y+1
        SUBI	R18, 254
        SBCI	R19, 255
        ST	Y, R18
        STD	Y+1, R19
// 1924                  vol_tx_ppp=temp.word+4;  
        LD	R18, Y
        LDD	R19, Y+1
        SUBI	R18, 252
        SBCI	R19, 255
        LDI	R30, LOW(vol_tx_ppp)
        LDI	R31, (vol_tx_ppp) >> 8
        ST	Z, R18
        STD	Z+1, R19
// 1925                 
// 1926                 
// 1927       
// 1928                  
// 1929                 for(i=0;i<ln_rejc_ipcp;i++)buf_tx_232[7+i]=buf_rejc_opt_ipcp[i];
        LDI	R16, 0
        RJMP	??run_ipcp_act_26
??run_ipcp_act_27:
        MOV	R18, R16
        LDI	R19, 0
        MOVW	R31:R30, R19:R18
        SUBI	R30, LOW((-(cnt_ipcp_tm_out) & 0xFFFF))
        SBCI	R31, (-(cnt_ipcp_tm_out) & 0xFFFF) >> 8
        LDD	R20, Z+2
        MOVW	R31:R30, R27:R26
        ADD	R30, R18
        ADC	R31, R25
        STD	Z+7, R20
        INC	R16
??run_ipcp_act_26:
        CP	R16, R17
        BRCS	??run_ipcp_act_27
// 1930                 temp.word=pppfcs16(PPPINITFCS16,&buf_tx_232[1],temp.word) ^ 0xffff;                  
        LD	R20, Y
        LDD	R21, Y+1
        MOVW	R19:R18, R27:R26
        SUBI	R18, 255
        SBCI	R19, 255
        LDI	R16, 255
        LDI	R17, 255
        CALL	pppfcs16
        LDI	R18, 255
        LDI	R19, 255
        EOR	R18, R16
        EOR	R19, R17
        ST	Y, R18
        STD	Y+1, R19
// 1931                 
// 1932                 buf_tx_232[7+ln_rejc_ipcp]=temp.bytes[0];
        MOVW	R31:R30, R27:R26
        ADD	R30, R24
        ADC	R31, R25
        LD	R18, Y
        STD	Z+7, R18
// 1933                 buf_tx_232[8+ln_rejc_ipcp]=temp.bytes[1];                     
        LDD	R18, Y+1
        STD	Z+8, R18
// 1934                 buf_tx_232[9+ln_rejc_ipcp]=0x7e;    
        LDI	R16, 126
        STD	Z+9, R16
// 1935                 
// 1936                  count_tx_ppp=0;                             
        LDI	R30, LOW(count_tx_ppp)
        LDI	R31, (count_tx_ppp) >> 8
        ST	Z, R25
        STD	Z+1, R25
// 1937                      UCSR0A=UCSR0A | TXC;                            
        LDS	R16, 192
        ORI	R16, 0x40
        STS	192, R16
// 1938                      UCSR0B=UCSR0B | TXEN;
        LDS	R16, 193
        ORI	R16, 0x08
        STS	193, R16
// 1939                      UCSR0B=UCSR0B | TXCIE;
        LDS	R16, 193
        ORI	R16, 0x40
        STS	193, R16
// 1940                      if(check_cts()==1) return; 
        CALL	check_cts
        CPI	R16, 1
        BREQ	??run_ipcp_act_3
// 1941                  S2_RD;
        SBI	0x08, 0x00
        CBI	0x08, 0x01
// 1942                  UDR0=buf_tx_232[0];
        LD	R16, X
        STS	198, R16
// 1943                  if(Regim==RG_DEBAG) UDR3=buf_tx_232[0];
        LDS	R16, Regim
        CPI	R16, 1
        BRNE	$+2+2
        RJMP	??run_ipcp_act_10
??run_ipcp_act_3:
        ADIW	R29:R28, 2
        CFI CFA_Y Y+5
        LDI	R30, 5
        JMP	?EPILOGUE_B5_L09
        CFI EndBlock cfiBlock8
// 1944                 break;  
// 1945           // case SER:
// 1946           //      break;       
// 1947           }                  
// 1948       }
// 1949   
// 1950   
// 1951 
// 1952   
// 1953    

        RSEG CODE:CODE:NOROOT(1)
// 1954   void monitor_act_IPCP(void)
monitor_act_IPCP:
        CFI Block cfiBlock9 Using cfiCommon0
        CFI Function monitor_act_IPCP
// 1955       {  
        FUNCALL monitor_act_IPCP, run_ipcp_act
        LOCFRAME CSTACK, 2, STACK
        LOCFRAME RSTACK, 2, STACK
        ST	-Y, R27
        CFI R27 Frame(CFA_Y, -1)
        CFI CFA_Y Y+1
        ST	-Y, R26
        CFI R26 Frame(CFA_Y, -2)
        CFI CFA_Y Y+2
// 1956        
// 1957        if((uk_in_act_IPCP!=uk_out_act_IPCP)&&(fl_lcp.act_lcp_end==1)&&(fl_pap.act_pap_end==1)&&(fl_ipcp.act_ipcp_end==1)&&(fl_ip.act_ip_end==1))
        LDI	R26, LOW(ip_pri_dns)
        LDI	R27, (ip_pri_dns) >> 8
        ADIW	R27:R26, 38
        LD	R16, X
        SBIW	R27:R26, 38
        ADIW	R27:R26, 39
        LD	R17, X
        SBIW	R27:R26, 39
        CP	R16, R17
        BREQ	??monitor_act_IPCP_0
        ADIW	R27:R26, 10
        LD	R16, X
        SBIW	R27:R26, 10
        ANDI	R16, 0x01
        ADIW	R27:R26, 13
        LD	R17, X
        SBIW	R27:R26, 13
        ANDI	R17, 0x01
        AND	R17, R16
        ADIW	R27:R26, 11
        LD	R16, X
        SBIW	R27:R26, 11
        ANDI	R16, 0x01
        AND	R16, R17
        ADIW	R27:R26, 12
        LD	R17, X
        SBIW	R27:R26, 12
        ANDI	R17, 0x01
        AND	R17, R16
        BREQ	??monitor_act_IPCP_0
// 1958         {   
// 1959         run_ipcp_act();
        RCALL	run_ipcp_act
// 1960         uk_out_act_IPCP++;  
        ADIW	R27:R26, 39
        LD	R16, X
        INC	R16
        ST	X, R16
        SBIW	R27:R26, 39
// 1961         if (uk_out_act_IPCP>=IPCP_ACT_VOL)uk_out_act_IPCP=0; 
        ADIW	R27:R26, 39
        LD	R16, X
        SBIW	R27:R26, 39
        CPI	R16, 10
        BRCS	??monitor_act_IPCP_0
        LDI	R16, 0
        ADIW	R27:R26, 39
        ST	X, R16
// 1962         }
// 1963       }
??monitor_act_IPCP_0:
        LD	R26, Y+
        CFI R26 SameValue
        CFI CFA_Y Y+1
        LD	R27, Y+
        CFI R27 SameValue
        CFI CFA_Y Y+0
        RET
        CFI EndBlock cfiBlock9
// 1964  
// 1965  
// 1966   

        RSEG CODE:CODE:NOROOT(1)
// 1967 void monitor_event_IPCP(void)
monitor_event_IPCP:
        CFI Block cfiBlock10 Using cfiCommon0
        CFI Function monitor_event_IPCP
// 1968     {
        FUNCALL monitor_event_IPCP, prov_uk_in_ipcp
        LOCFRAME CSTACK, 7, STACK
        LOCFRAME RSTACK, 2, STACK
        FUNCALL monitor_event_IPCP, prov_uk_in_ipcp
        LOCFRAME CSTACK, 7, STACK
        LOCFRAME RSTACK, 2, STACK
        FUNCALL monitor_event_IPCP, prov_uk_in_ipcp
        LOCFRAME CSTACK, 7, STACK
        LOCFRAME RSTACK, 2, STACK
        FUNCALL monitor_event_IPCP, prov_uk_in_ipcp
        LOCFRAME CSTACK, 7, STACK
        LOCFRAME RSTACK, 2, STACK
        FUNCALL monitor_event_IPCP, prov_uk_in_ipcp
        LOCFRAME CSTACK, 7, STACK
        LOCFRAME RSTACK, 2, STACK
        FUNCALL monitor_event_IPCP, prov_uk_in_ipcp
        LOCFRAME CSTACK, 7, STACK
        LOCFRAME RSTACK, 2, STACK
        FUNCALL monitor_event_IPCP, prov_uk_in_ipcp
        LOCFRAME CSTACK, 7, STACK
        LOCFRAME RSTACK, 2, STACK
        FUNCALL monitor_event_IPCP, prov_uk_in_ipcp
        LOCFRAME CSTACK, 7, STACK
        LOCFRAME RSTACK, 2, STACK
        FUNCALL monitor_event_IPCP, prov_uk_in_ipcp
        LOCFRAME CSTACK, 7, STACK
        LOCFRAME RSTACK, 2, STACK
        FUNCALL monitor_event_IPCP, prov_uk_in_ipcp
        LOCFRAME CSTACK, 7, STACK
        LOCFRAME RSTACK, 2, STACK
        FUNCALL monitor_event_IPCP, prov_uk_in_ipcp
        LOCFRAME CSTACK, 7, STACK
        LOCFRAME RSTACK, 2, STACK
        FUNCALL monitor_event_IPCP, prov_uk_in_ipcp
        LOCFRAME CSTACK, 7, STACK
        LOCFRAME RSTACK, 2, STACK
        FUNCALL monitor_event_IPCP, prov_uk_in_ipcp
        LOCFRAME CSTACK, 7, STACK
        LOCFRAME RSTACK, 2, STACK
        FUNCALL monitor_event_IPCP, prov_uk_in_ipcp
        LOCFRAME CSTACK, 7, STACK
        LOCFRAME RSTACK, 2, STACK
        FUNCALL monitor_event_IPCP, prov_uk_in_ipcp
        LOCFRAME CSTACK, 7, STACK
        LOCFRAME RSTACK, 2, STACK
        FUNCALL monitor_event_IPCP, prov_uk_in_ipcp
        LOCFRAME CSTACK, 7, STACK
        LOCFRAME RSTACK, 2, STACK
        FUNCALL monitor_event_IPCP, prov_uk_in_ipcp
        LOCFRAME CSTACK, 7, STACK
        LOCFRAME RSTACK, 2, STACK
        FUNCALL monitor_event_IPCP, prov_uk_in_ipcp
        LOCFRAME CSTACK, 7, STACK
        LOCFRAME RSTACK, 2, STACK
        FUNCALL monitor_event_IPCP, prov_uk_in_ipcp
        LOCFRAME CSTACK, 7, STACK
        LOCFRAME RSTACK, 2, STACK
        FUNCALL monitor_event_IPCP, prov_uk_in_ipcp
        LOCFRAME CSTACK, 7, STACK
        LOCFRAME RSTACK, 2, STACK
        FUNCALL monitor_event_IPCP, prov_uk_in_ipcp
        LOCFRAME CSTACK, 7, STACK
        LOCFRAME RSTACK, 2, STACK
        FUNCALL monitor_event_IPCP, prov_uk_in_ipcp
        LOCFRAME CSTACK, 7, STACK
        LOCFRAME RSTACK, 2, STACK
        FUNCALL monitor_event_IPCP, prov_uk_in_ipcp
        LOCFRAME CSTACK, 7, STACK
        LOCFRAME RSTACK, 2, STACK
        FUNCALL monitor_event_IPCP, prov_uk_in_ipcp
        LOCFRAME CSTACK, 7, STACK
        LOCFRAME RSTACK, 2, STACK
        FUNCALL monitor_event_IPCP, prov_uk_in_ipcp
        LOCFRAME CSTACK, 7, STACK
        LOCFRAME RSTACK, 2, STACK
        FUNCALL monitor_event_IPCP, prov_uk_in_ipcp
        LOCFRAME CSTACK, 7, STACK
        LOCFRAME RSTACK, 2, STACK
        FUNCALL monitor_event_IPCP, prov_uk_in_ipcp
        LOCFRAME CSTACK, 7, STACK
        LOCFRAME RSTACK, 2, STACK
        FUNCALL monitor_event_IPCP, prov_uk_in_ipcp
        LOCFRAME CSTACK, 7, STACK
        LOCFRAME RSTACK, 2, STACK
        FUNCALL monitor_event_IPCP, prov_uk_in_ipcp
        LOCFRAME CSTACK, 7, STACK
        LOCFRAME RSTACK, 2, STACK
        FUNCALL monitor_event_IPCP, prov_uk_in_ipcp
        LOCFRAME CSTACK, 7, STACK
        LOCFRAME RSTACK, 2, STACK
        FUNCALL monitor_event_IPCP, prov_uk_in_ipcp
        LOCFRAME CSTACK, 7, STACK
        LOCFRAME RSTACK, 2, STACK
        FUNCALL monitor_event_IPCP, prov_uk_in_ipcp
        LOCFRAME CSTACK, 7, STACK
        LOCFRAME RSTACK, 2, STACK
        FUNCALL monitor_event_IPCP, prov_uk_in_ipcp
        LOCFRAME CSTACK, 7, STACK
        LOCFRAME RSTACK, 2, STACK
        FUNCALL monitor_event_IPCP, prov_uk_in_ipcp
        LOCFRAME CSTACK, 7, STACK
        LOCFRAME RSTACK, 2, STACK
        FUNCALL monitor_event_IPCP, prov_uk_in_ipcp
        LOCFRAME CSTACK, 7, STACK
        LOCFRAME RSTACK, 2, STACK
        FUNCALL monitor_event_IPCP, prov_uk_in_ipcp
        LOCFRAME CSTACK, 7, STACK
        LOCFRAME RSTACK, 2, STACK
        FUNCALL monitor_event_IPCP, prov_uk_in_ipcp
        LOCFRAME CSTACK, 7, STACK
        LOCFRAME RSTACK, 2, STACK
        FUNCALL monitor_event_IPCP, prov_uk_in_ipcp
        LOCFRAME CSTACK, 7, STACK
        LOCFRAME RSTACK, 2, STACK
        FUNCALL monitor_event_IPCP, prov_uk_in_ipcp
        LOCFRAME CSTACK, 7, STACK
        LOCFRAME RSTACK, 2, STACK
        FUNCALL monitor_event_IPCP, prov_uk_in_ipcp
        LOCFRAME CSTACK, 7, STACK
        LOCFRAME RSTACK, 2, STACK
        FUNCALL monitor_event_IPCP, prov_uk_in_ipcp
        LOCFRAME CSTACK, 7, STACK
        LOCFRAME RSTACK, 2, STACK
        FUNCALL monitor_event_IPCP, prov_uk_in_ipcp
        LOCFRAME CSTACK, 7, STACK
        LOCFRAME RSTACK, 2, STACK
        FUNCALL monitor_event_IPCP, prov_uk_in_ipcp
        LOCFRAME CSTACK, 7, STACK
        LOCFRAME RSTACK, 2, STACK
        CALL	?PROLOGUE7_L09
        CFI R6 Frame(CFA_Y, -1)
        CFI R5 Frame(CFA_Y, -2)
        CFI R4 Frame(CFA_Y, -3)
        CFI R27 Frame(CFA_Y, -4)
        CFI R26 Frame(CFA_Y, -5)
        CFI R25 Frame(CFA_Y, -6)
        CFI R24 Frame(CFA_Y, -7)
        CFI CFA_Y Y+7
        REQUIRE	?Register_R6_is_cg_reg
// 1969      if (fl_ipcp1.up==1)      //UP
        LDI	R26, LOW(ip_pri_dns)
        LDI	R27, (ip_pri_dns) >> 8
        MOVW	R31:R30, R27:R26
        LDD	R16, Z+38
        LDI	R17, 0
        LDI	R24, LOW(cnt_pap_tm_out)
        LDI	R25, (cnt_pap_tm_out) >> 8
        ADD	R24, R16
        ADC	R25, R17
        LDI	R30, LOW(cnt_pap_tm_out)
        LDI	R31, (cnt_pap_tm_out) >> 8
        LDD	R6, Z+3
        LDD	R16, Z+2
        SBRS	R16, 0
        RJMP	??monitor_event_IPCP_0
// 1970          {  
// 1971          
// 1972           
// 1973          fl_ipcp1.up=0; 
        LDD	R16, Z+2
        ANDI	R16, 0xFE
        STD	Z+2, R16
// 1974            switch(IPCP_state)
        MOV	R16, R6
        SUBI	R16, 1
        BRNE	??monitor_event_IPCP_1
// 1975                {
// 1976                 case START_ST:                                                                
// 1977                             vol_cnt_rst_ipcp=VOL_IPCP_MC;  
??monitor_event_IPCP_2:
        LDI	R16, 10
        MOVW	R31:R30, R27:R26
        STD	Z+43, R16
// 1978                             IPCP_act_buf[uk_in_act_IPCP]=IRC;  
        LDI	R16, 4
??monitor_event_IPCP_3:
        MOVW	R31:R30, R25:R24
        STD	Z+4, R16
// 1979                             prov_uk_in_ipcp();                    
        CALL	prov_uk_in_ipcp
// 1980                             IPCP_act_buf[uk_in_act_IPCP]=SCR;  
        LDI	R16, 6
??monitor_event_IPCP_4:
        MOVW	R31:R30, R27:R26
??monitor_event_IPCP_5:
        LDD	R18, Z+38
        LDI	R19, 0
        LDI	R30, LOW(cnt_pap_tm_out)
        LDI	R31, (cnt_pap_tm_out) >> 8
        ADD	R30, R18
        ADC	R31, R19
??monitor_event_IPCP_6:
        STD	Z+4, R16
// 1981                             prov_uk_in_ipcp();                    
        CALL	prov_uk_in_ipcp
// 1982                             IPCP_state=SEND_REQ; 
// 1983                            
// 1984                 return;
// 1985                }
// 1986             
// 1987          return;
// 1988          }
// 1989      
// 1990      if (fl_ipcp1.down==1)      //DOWN
// 1991          {      
// 1992          
// 1993           fl_ipcp1.down=0;
// 1994           switch(IPCP_state)
// 1995                {                     
// 1996 
// 1997                 case STOP_ST:                                                                
// 1998                             IPCP_act_buf[uk_in_act_IPCP]=TLS;  
// 1999                             prov_uk_in_ipcp();   
// 2000                             fl_ipcp.ipcp_tm_out_en=0;                 
// 2001                             IPCP_state=START_ST;
// 2002                             return;        
// 2003                 case OSTANOV:                                                                
// 2004                             fl_ipcp.ipcp_tm_out_en=0;                 
// 2005                             IPCP_state=START_ST;
// 2006                             return;  
// 2007                 case SEND_REQ:                                                                
// 2008                             fl_ipcp.ipcp_tm_out_en=0;                 
// 2009                             IPCP_state=START_ST;
// 2010                             return;
// 2011                 case REC_ACK:                                                                
// 2012                             fl_ipcp.ipcp_tm_out_en=0;                 
// 2013                             IPCP_state=START_ST;
// 2014                             return;
// 2015                 case SEND_ACK:                                                                
// 2016                             fl_ipcp.ipcp_tm_out_en=0;                 
// 2017                             IPCP_state=START_ST;
// 2018                             return;
// 2019                 case OPEN_ST:                                                                
// 2020                             IPCP_act_buf[uk_in_act_IPCP]=TLD;  
// 2021                             prov_uk_in_ipcp();   
// 2022                             fl_ipcp.ipcp_tm_out_en=0;                 
// 2023                             IPCP_state=START_ST;
// 2024                             return;                                                                    
// 2025                } 
// 2026             
// 2027          return;
// 2028          }
// 2029      
// 2030      if(fl_ipcp.t0_pl==1)        //TO_PL
// 2031         {
// 2032          fl_ipcp.t0_pl=0; 
// 2033          switch(IPCP_state)
// 2034                {                     
// 2035                                
// 2036                 case OSTANOV:                                                                
// 2037                             vol_cnt_rst_ipcp=VOL_IPCP_MT;
// 2038                             IPCP_act_buf[uk_in_act_IPCP]=STR;  
// 2039                             prov_uk_in_ipcp();                 
// 2040                             IPCP_state=OSTANOV;
// 2041                             return;  
// 2042                 case SEND_REQ:
// 2043                             vol_cnt_rst_ipcp=VOL_IPCP_MC;                                                    
// 2044                             IPCP_act_buf[uk_in_act_IPCP]=SCR;  
// 2045                             prov_uk_in_ipcp();                 
// 2046                             IPCP_state=SEND_REQ;
// 2047                             return;
// 2048                 case REC_ACK:      
// 2049                             vol_cnt_rst_ipcp=VOL_IPCP_MC;                                              
// 2050                             IPCP_act_buf[uk_in_act_IPCP]=SCR;  
// 2051                             prov_uk_in_ipcp();                 
// 2052                             IPCP_state=SEND_REQ;
// 2053                             return;
// 2054                 case SEND_ACK: 
// 2055                             vol_cnt_rst_ipcp=VOL_IPCP_MC;                                                   
// 2056                             IPCP_act_buf[uk_in_act_IPCP]=SCR;  
// 2057                             prov_uk_in_ipcp();                 
// 2058                             IPCP_state=SEND_ACK;
// 2059                             return;                                                              
// 2060                } 
// 2061             
// 2062          return;
// 2063         }  
// 2064       if(fl_ipcp.t0_mi==1)       //TO_MI
// 2065         {
// 2066          fl_ipcp.t0_mi=0;
// 2067          switch(IPCP_state)
// 2068                {                     
// 2069                                
// 2070                 case OSTANOV:  
// 2071                             fl_ipcp.ipcp_tm_out_en=0;                                                  
// 2072                             IPCP_act_buf[uk_in_act_IPCP]=TLF;  
// 2073                             prov_uk_in_ipcp();                   
// 2074                             IPCP_state=STOP_ST;
// 2075                             return;  
// 2076                 case SEND_REQ:                                                                
// 2077                             fl_ipcp.ipcp_tm_out_en=0;                                                  
// 2078                             IPCP_act_buf[uk_in_act_IPCP]=TLF;  
// 2079                             prov_uk_in_ipcp();                   
// 2080                             IPCP_state=STOP_ST;
// 2081                             return;
// 2082                 case REC_ACK:                                                                
// 2083                             fl_ipcp.ipcp_tm_out_en=0;                                                  
// 2084                             IPCP_act_buf[uk_in_act_IPCP]=TLF;  
// 2085                             prov_uk_in_ipcp();                   
// 2086                             IPCP_state=STOP_ST;
// 2087                             return;
// 2088                 case SEND_ACK:                                                                
// 2089                             fl_ipcp.ipcp_tm_out_en=0;                                                  
// 2090                             IPCP_act_buf[uk_in_act_IPCP]=TLF;  
// 2091                             prov_uk_in_ipcp();                   
// 2092                             IPCP_state=STOP_ST;
// 2093                             return;                                                              
// 2094                } 
// 2095          return;
// 2096         }   
// 2097      switch (IPCP_event)
// 2098         {
// 2099         case RCR_PL:  
// 2100             IPCP_event=NO_EVENT; 
// 2101             switch(IPCP_state)
// 2102                {                     
// 2103 
// 2104                 case STOP_ST:        
// 2105                             vol_cnt_rst_ipcp=VOL_IPCP_MC;  
// 2106                             IPCP_act_buf[uk_in_act_IPCP]=IRC;  
// 2107                             prov_uk_in_ipcp();                    
// 2108                             IPCP_act_buf[uk_in_act_IPCP]=SCR;  
// 2109                             prov_uk_in_ipcp();   
// 2110                             IPCP_act_buf[uk_in_act_IPCP]=SCA;  
// 2111                             prov_uk_in_ipcp();                 
// 2112                             IPCP_state=SEND_ACK;  
// 2113                             
// 2114                             return;        
// 2115                 case OSTANOV:                                                                                
// 2116                             IPCP_state=OSTANOV; 
// 2117                     
// 2118                             return;  
// 2119                 case SEND_REQ:                                                                
// 2120                             IPCP_act_buf[uk_in_act_IPCP]=SCA;  
// 2121                             prov_uk_in_ipcp();                 
// 2122                             IPCP_state=SEND_ACK;   
// 2123                          
// 2124                             return;
// 2125                 case REC_ACK:
// 2126         
// 2127                             IPCP_act_buf[uk_in_act_IPCP]=SCA;  
// 2128                             prov_uk_in_ipcp();       
// 2129                             IPCP_act_buf[uk_in_act_IPCP]=TLU;  
// 2130                             prov_uk_in_ipcp();          
// 2131                             IPCP_state=OPEN_ST;  
// 2132                            
// 2133                             return;
// 2134                 case SEND_ACK:                                                                
// 2135                             IPCP_act_buf[uk_in_act_IPCP]=SCA;  
// 2136                             prov_uk_in_ipcp();                 
// 2137                             IPCP_state=SEND_ACK; 
// 2138                    
// 2139                             return;
// 2140                 case OPEN_ST:      
// 2141                   //proverka!!!!!
// 2142                            // IPCP_act_buf[uk_in_act_IPCP]=TLD;  
// 2143                           //  prov_uk_in_ipcp();    
// 2144                           //  vol_cnt_rst_ipcp=VOL_IPCP_MC; 
// 2145                           //  IPCP_act_buf[uk_in_act_IPCP]=SCR;  
// 2146                           //  prov_uk_in_ipcp();                                                                
// 2147                             IPCP_act_buf[uk_in_act_IPCP]=SCA;  
// 2148                             prov_uk_in_ipcp();                 
// 2149                         //    IPCP_state=SEND_ACK; 
// 2150                    
// 2151                             return;                                                                    
// 2152                }  
// 2153              return; 
// 2154         case RCR_MI: 
// 2155            
// 2156             
// 2157             
// 2158             IPCP_event=NO_EVENT;
// 2159             switch(IPCP_state)
// 2160                {                     
// 2161 
// 2162                 case STOP_ST:        
// 2163                             vol_cnt_rst_ipcp=VOL_IPCP_MC;  
// 2164                             IPCP_act_buf[uk_in_act_IPCP]=IRC;  
// 2165                             prov_uk_in_ipcp();                    
// 2166                             IPCP_act_buf[uk_in_act_IPCP]=SCR;  
// 2167                             prov_uk_in_ipcp();   
// 2168                             IPCP_act_buf[uk_in_act_IPCP]=SCN;  
// 2169                             prov_uk_in_ipcp();                 
// 2170                             IPCP_state=SEND_REQ; 
// 2171                     
// 2172                             return;        
// 2173                 case OSTANOV:                                                                                
// 2174                             IPCP_state=OSTANOV; 
// 2175                           
// 2176                             return;  
// 2177                 case SEND_REQ:                                                                
// 2178                             
// 2179                        
// 2180                             IPCP_act_buf[uk_in_act_IPCP]=SCN;  
// 2181                             prov_uk_in_ipcp();                 
// 2182                             IPCP_state=SEND_REQ;    
// 2183                      
// 2184                             return;
// 2185                 case REC_ACK:                                                                
// 2186                             IPCP_act_buf[uk_in_act_IPCP]=SCN;  
// 2187                             prov_uk_in_ipcp();              
// 2188                             IPCP_state=REC_ACK;     
// 2189                            
// 2190                             return;
// 2191                 case SEND_ACK:                                                                
// 2192                             IPCP_act_buf[uk_in_act_IPCP]=SCN;  
// 2193                             prov_uk_in_ipcp();                 
// 2194                             IPCP_state=SEND_REQ;
// 2195                          
// 2196                             return;
// 2197                 case OPEN_ST:      
// 2198                             IPCP_act_buf[uk_in_act_IPCP]=TLD;  
// 2199                             prov_uk_in_ipcp();   
// 2200                             vol_cnt_rst_ipcp=VOL_IPCP_MC;
// 2201                             IPCP_act_buf[uk_in_act_IPCP]=SCR;  
// 2202                             prov_uk_in_ipcp();                                                                
// 2203                             IPCP_act_buf[uk_in_act_IPCP]=SCN;  
// 2204                             prov_uk_in_ipcp();                 
// 2205                             IPCP_state=SEND_REQ;
// 2206                           
// 2207                             return;                                                                    
// 2208                }  
// 2209              return; 
// 2210         case RCA:  
// 2211             
// 2212             
// 2213            
// 2214             
// 2215             IPCP_event=NO_EVENT;
// 2216             switch(IPCP_state)
// 2217                {                     
// 2218 
// 2219                 case STOP_ST:        
// 2220                             fl_ipcp.ipcp_tm_out_en=0;
// 2221                             IPCP_act_buf[uk_in_act_IPCP]=STA;  
// 2222                             prov_uk_in_ipcp();                 
// 2223                             IPCP_state=STOP_ST; 
// 2224                           
// 2225                             return;        
// 2226                 case OSTANOV:                                                                                
// 2227                             IPCP_state=OSTANOV;  
// 2228                     
// 2229                             return;  
// 2230                 case SEND_REQ: 
// 2231                             
// 2232                             vol_cnt_rst_ipcp=VOL_IPCP_MC;  
// 2233                             IPCP_act_buf[uk_in_act_IPCP]=IRC;  
// 2234                             prov_uk_in_ipcp();                                        
// 2235                             IPCP_state=REC_ACK; 
// 2236                      
// 2237                             return;
// 2238                 case REC_ACK:       
// 2239                             vol_cnt_rst_ipcp=VOL_IPCP_MC;                                             
// 2240                             IPCP_act_buf[uk_in_act_IPCP]=SCR;  
// 2241                             prov_uk_in_ipcp();                 
// 2242                             IPCP_state=SEND_REQ;
// 2243                      
// 2244                             return;
// 2245                 case SEND_ACK:                                                                
// 2246 
// 2247                             
// 2248                             vol_cnt_rst_ipcp=VOL_IPCP_MC;  
// 2249                             IPCP_act_buf[uk_in_act_IPCP]=IRC;  
// 2250                             prov_uk_in_ipcp();                                        
// 2251                             IPCP_act_buf[uk_in_act_IPCP]=TLU;  
// 2252                             prov_uk_in_ipcp();
// 2253                             IPCP_state=OPEN_ST;
// 2254                   
// 2255                             return;
// 2256                 case OPEN_ST:
// 2257                             vol_cnt_rst_ipcp=VOL_IPCP_MC;
// 2258                             IPCP_act_buf[uk_in_act_IPCP]=TLD;  
// 2259                             prov_uk_in_ipcp();   
// 2260                             IPCP_act_buf[uk_in_act_IPCP]=SCR;  
// 2261                             prov_uk_in_ipcp();                                                                               
// 2262                             IPCP_state=SEND_REQ;
// 2263                          
// 2264                             return;                                                                    
// 2265                }  
// 2266              return; 
// 2267         case RCN: 
// 2268                 IPCP_event=NO_EVENT;
// 2269         switch(IPCP_state)
// 2270                {                     
// 2271 
// 2272                 case STOP_ST:        
// 2273                             fl_ipcp.ipcp_tm_out_en=0;
// 2274                             IPCP_act_buf[uk_in_act_IPCP]=STA;  
// 2275                             prov_uk_in_ipcp();                 
// 2276                             IPCP_state=STOP_ST; 
// 2277                         
// 2278                             return;        
// 2279                 case OSTANOV:                                                                                
// 2280                             IPCP_state=OSTANOV; 
// 2281                          
// 2282                             return;  
// 2283                 case SEND_REQ:                                                                
// 2284                             vol_cnt_rst_ipcp=VOL_IPCP_MC;  
// 2285                             IPCP_act_buf[uk_in_act_IPCP]=IRC;  
// 2286                             prov_uk_in_ipcp(); 
// 2287                             IPCP_act_buf[uk_in_act_IPCP]=SCR;  
// 2288                             prov_uk_in_ipcp();                                       
// 2289                             IPCP_state=SEND_REQ;
// 2290                           
// 2291                             return;
// 2292                 case REC_ACK:     
// 2293                             vol_cnt_rst_ipcp=VOL_IPCP_MC;                                               
// 2294                             IPCP_act_buf[uk_in_act_IPCP]=SCR;  
// 2295                             prov_uk_in_ipcp();                 
// 2296                             IPCP_state=SEND_REQ;
// 2297                           
// 2298                             return;
// 2299                 case SEND_ACK:                                                                
// 2300                             vol_cnt_rst_ipcp=VOL_IPCP_MC;  
// 2301                             IPCP_act_buf[uk_in_act_IPCP]=IRC;  
// 2302                             prov_uk_in_ipcp();                                        
// 2303                             IPCP_act_buf[uk_in_act_IPCP]=SCR;  
// 2304                             prov_uk_in_ipcp();
// 2305                             IPCP_state=SEND_ACK;
// 2306                         
// 2307                             return;
// 2308                 case OPEN_ST:      
// 2309                             IPCP_act_buf[uk_in_act_IPCP]=TLD;  
// 2310                             prov_uk_in_ipcp(); 
// 2311                             vol_cnt_rst_ipcp=VOL_IPCP_MC;  
// 2312                             IPCP_act_buf[uk_in_act_IPCP]=SCR;  
// 2313                             prov_uk_in_ipcp();                                                                               
// 2314                             IPCP_state=SEND_REQ;
// 2315                       
// 2316                             return;                                                                    
// 2317                }  
// 2318              return; 
// 2319         case RTR:
// 2320              IPCP_event=NO_EVENT;
// 2321              switch(IPCP_state)
// 2322                {                     
// 2323 
// 2324                 case STOP_ST:                                                                
// 2325                             fl_ipcp.ipcp_tm_out_en=0;
// 2326                             IPCP_act_buf[uk_in_act_IPCP]=STA;  
// 2327                             prov_uk_in_ipcp();                 
// 2328                             IPCP_state=STOP_ST; 
// 2329                            
// 2330                             return;        
// 2331                 case OSTANOV:                                                                
// 2332                             IPCP_act_buf[uk_in_act_IPCP]=STA;  
// 2333                             prov_uk_in_ipcp();                 
// 2334                             IPCP_state=OSTANOV; 
// 2335                         
// 2336                             return;  
// 2337                 case SEND_REQ:                                                                
// 2338                             IPCP_act_buf[uk_in_act_IPCP]=STA;  
// 2339                             prov_uk_in_ipcp();                 
// 2340                             IPCP_state=SEND_REQ;
// 2341                          
// 2342                             return;
// 2343                 case REC_ACK:                                                                
// 2344                             IPCP_act_buf[uk_in_act_IPCP]=STA;  
// 2345                             prov_uk_in_ipcp();                 
// 2346                             IPCP_state=SEND_REQ;
// 2347                         
// 2348                             return;
// 2349                 case SEND_ACK:                                                                
// 2350                             IPCP_act_buf[uk_in_act_IPCP]=STA;  
// 2351                             prov_uk_in_ipcp();                 
// 2352                             IPCP_state=SEND_REQ;
// 2353                           
// 2354                             return;
// 2355                 case OPEN_ST:                                                                
// 2356                             vol_cnt_rst_ipcp=VOL_IPCP_MC;  
// 2357                             IPCP_act_buf[uk_in_act_IPCP]=TLD;  
// 2358                             prov_uk_in_ipcp(); 
// 2359                             IPCP_act_buf[uk_in_act_IPCP]=ZRC; 
// 2360                             prov_uk_in_ipcp();  
// 2361                             IPCP_act_buf[uk_in_act_IPCP]=STA;  
// 2362                             prov_uk_in_ipcp();                                  
// 2363                             IPCP_state=STOP_ST; 
// 2364                             
// 2365                             return;                                                                    
// 2366                }  
// 2367              return; 
// 2368         case RTA: 
// 2369              IPCP_event=NO_EVENT;
// 2370              switch(IPCP_state)
// 2371                {                     
// 2372 
// 2373                 case STOP_ST:                                                                 
// 2374                             fl_ipcp.ipcp_tm_out_en=0;                 
// 2375                             IPCP_state=STOP_ST;
// 2376                      
// 2377                             return;        
// 2378                 case OSTANOV:                                                                
// 2379                             fl_ipcp.ipcp_tm_out_en=0;                                                  
// 2380                             IPCP_act_buf[uk_in_act_IPCP]=TLF;  
// 2381                             prov_uk_in_ipcp();                   
// 2382                             IPCP_state=STOP_ST; 
// 2383          
// 2384                             return;  
// 2385                 case SEND_REQ:                                                                                
// 2386                             IPCP_state=SEND_REQ;
??monitor_event_IPCP_7:
        LDI	R16, 6
        RJMP	??monitor_event_IPCP_8
??monitor_event_IPCP_0:
        LDD	R16, Z+2
        SBRS	R16, 1
        RJMP	??monitor_event_IPCP_9
        LDD	R16, Z+2
        ANDI	R16, 0xFD
        STD	Z+2, R16
        MOV	R16, R6
        SUBI	R16, 3
        BREQ	??monitor_event_IPCP_10
        SUBI	R16, 2
        BRCS	??monitor_event_IPCP_1
        SUBI	R16, 4
        BRCS	??monitor_event_IPCP_11
        BREQ	??monitor_event_IPCP_12
        RJMP	??monitor_event_IPCP_1
??monitor_event_IPCP_10:
        LDI	R16, 2
??monitor_event_IPCP_13:
        MOVW	R31:R30, R25:R24
        STD	Z+4, R16
        CALL	prov_uk_in_ipcp
??monitor_event_IPCP_11:
        MOVW	R31:R30, R27:R26
        LDD	R16, Z+11
        ANDI	R16, 0xFD
        STD	Z+11, R16
        LDI	R16, 1
??monitor_event_IPCP_8:
        LDI	R30, LOW(cnt_pap_tm_out)
        LDI	R31, (cnt_pap_tm_out) >> 8
        STD	Z+3, R16
??monitor_event_IPCP_1:
        LDI	R30, 7
        JMP	?EPILOGUE_B7_L09
??monitor_event_IPCP_12:
        LDI	R16, 1
        RJMP	??monitor_event_IPCP_13
??monitor_event_IPCP_9:
        MOVW	R31:R30, R27:R26
        LDD	R16, Z+11
        SBRS	R16, 2
        RJMP	??monitor_event_IPCP_14
        LDD	R16, Z+11
        ANDI	R16, 0xFB
        STD	Z+11, R16
        MOV	R16, R6
        SUBI	R16, 5
        BREQ	??monitor_event_IPCP_15
        DEC	R16
        BRNE	$+2+2
        RJMP	??monitor_event_IPCP_16
        DEC	R16
        BRNE	$+2+2
        RJMP	??monitor_event_IPCP_16
        DEC	R16
        BREQ	??monitor_event_IPCP_17
        RJMP	??monitor_event_IPCP_1
??monitor_event_IPCP_15:
        LDI	R16, 2
        STD	Z+43, R16
        LDI	R16, 9
??monitor_event_IPCP_18:
        MOVW	R31:R30, R25:R24
??monitor_event_IPCP_19:
        STD	Z+4, R16
        CALL	prov_uk_in_ipcp
??monitor_event_IPCP_20:
        LDI	R16, 5
        RJMP	??monitor_event_IPCP_8
??monitor_event_IPCP_17:
        LDI	R16, 10
        STD	Z+43, R16
        LDI	R16, 6
??monitor_event_IPCP_21:
        MOVW	R31:R30, R25:R24
??monitor_event_IPCP_22:
        STD	Z+4, R16
        CALL	prov_uk_in_ipcp
// 2387                    
// 2388                             return;
// 2389                 case REC_ACK:                                                                                
// 2390                             IPCP_state=SEND_REQ;
// 2391                         
// 2392                             return;
// 2393                 case SEND_ACK:                                                                
// 2394                             fl_ipcp.ipcp_tm_out_en=0;                 
// 2395                             IPCP_state=SEND_ACK;
// 2396                  
// 2397                             return;
// 2398                 case OPEN_ST:                                                                
// 2399                             vol_cnt_rst_ipcp=VOL_IPCP_MC;  
// 2400                             IPCP_act_buf[uk_in_act_IPCP]=TLD;  
// 2401                             prov_uk_in_ipcp();   
// 2402                             IPCP_act_buf[uk_in_act_IPCP]=SCR;  
// 2403                             prov_uk_in_ipcp();                                  
// 2404                             IPCP_state=SEND_REQ;
// 2405              
// 2406                             return;                                                                    
// 2407                }  
// 2408              return;
// 2409         case RUC:  
// 2410              IPCP_event=NO_EVENT;
// 2411              switch(IPCP_state)
// 2412                {                     
// 2413 
// 2414                 case STOP_ST:                                                                
// 2415                             IPCP_act_buf[uk_in_act_IPCP]=SCJ;  
// 2416                             prov_uk_in_ipcp();   
// 2417                             fl_ipcp.ipcp_tm_out_en=0;                 
// 2418                             IPCP_state=STOP_ST; 
// 2419 
// 2420                             return;        
// 2421                 case OSTANOV:                                                                
// 2422                             IPCP_act_buf[uk_in_act_IPCP]=SCJ;  
// 2423                             prov_uk_in_ipcp();                   
// 2424                             IPCP_state=OSTANOV; 
// 2425         
// 2426                             return;  
// 2427                 case SEND_REQ:                                                                
// 2428                             IPCP_act_buf[uk_in_act_IPCP]=SCJ;  
// 2429                             prov_uk_in_ipcp();                   
// 2430                             IPCP_state=SEND_REQ;
// 2431 
// 2432                             return;
// 2433                 case REC_ACK:                                                                
// 2434                             IPCP_act_buf[uk_in_act_IPCP]=SCJ;  
// 2435                             prov_uk_in_ipcp();                   
// 2436                             IPCP_state=REC_ACK; 
// 2437             
// 2438                             return;
// 2439                 case SEND_ACK:                                                                
// 2440                             IPCP_act_buf[uk_in_act_IPCP]=SCJ;  
// 2441                             prov_uk_in_ipcp();                   
// 2442                             IPCP_state=SEND_ACK;
// 2443       
// 2444                             return;
// 2445                 case OPEN_ST:                                                                
// 2446                             IPCP_act_buf[uk_in_act_IPCP]=SCJ;  
// 2447                             prov_uk_in_ipcp();                   
// 2448                             IPCP_state=OPEN_ST; 
// 2449  
// 2450                             return;                                                                    
// 2451                }  
// 2452              return; 
// 2453         case RXJ_PL:  
// 2454              IPCP_event=NO_EVENT;
// 2455              switch(IPCP_state)
// 2456                {                     
// 2457                 
// 2458                 case STOP_ST:      
// 2459                             fl_ipcp.ipcp_tm_out_en=0;                                                              
// 2460                             IPCP_state=START_ST;
// 2461                             return;        
// 2462                 case OSTANOV:                                                                               
// 2463                             IPCP_state=OSTANOV;
// 2464                             return;  
// 2465                 case SEND_REQ:                                                                                 
// 2466                             IPCP_state=SEND_REQ;
// 2467                             return;
// 2468                 case REC_ACK:                                                                              
// 2469                             IPCP_state=REC_ACK;
// 2470                             return;
// 2471                 case SEND_ACK:                                                                              
// 2472                             IPCP_state=SEND_ACK;
??monitor_event_IPCP_23:
        LDI	R16, 8
        RJMP	??monitor_event_IPCP_8
??monitor_event_IPCP_14:
        LDD	R16, Z+11
        SBRS	R16, 3
        RJMP	??monitor_event_IPCP_24
        LDD	R16, Z+11
        ANDI	R16, 0xF7
        STD	Z+11, R16
        MOV	R16, R6
        SUBI	R16, 5
        SUBI	R16, 4
        BRCC	??monitor_event_IPCP_1
??monitor_event_IPCP_25:
        LDD	R16, Z+11
        ANDI	R16, 0xFD
        STD	Z+11, R16
        LDI	R16, 3
??monitor_event_IPCP_26:
        MOVW	R31:R30, R25:R24
??monitor_event_IPCP_27:
        STD	Z+4, R16
        CALL	prov_uk_in_ipcp
??monitor_event_IPCP_28:
        LDI	R16, 3
        RJMP	??monitor_event_IPCP_8
??monitor_event_IPCP_24:
        LDD	R16, Z+35
        LDI	R30, LOW(`?<Jumptable for monitor_event_IPCP>_0`)
        LDI	R31, (`?<Jumptable for monitor_event_IPCP>_0`) >> 16
        OUT	0x3B, R31
        LDI	R31, HIGH(`?<Jumptable for monitor_event_IPCP>_0`)
        JMP	?CV_SWITCH_L06
??monitor_event_IPCP_29:
        LDI	R16, 255
        MOVW	R31:R30, R27:R26
        STD	Z+35, R16
        MOV	R16, R6
        SUBI	R16, 3
        BREQ	??monitor_event_IPCP_30
        SUBI	R16, 2
        BREQ	??monitor_event_IPCP_20
        DEC	R16
        BREQ	??monitor_event_IPCP_31
        DEC	R16
        BREQ	??monitor_event_IPCP_32
        DEC	R16
        BREQ	??monitor_event_IPCP_31
        DEC	R16
        BREQ	??monitor_event_IPCP_33
        RJMP	??monitor_event_IPCP_1
??monitor_event_IPCP_30:
        LDI	R16, 10
        STD	Z+43, R16
        LDI	R16, 4
        MOVW	R31:R30, R25:R24
        STD	Z+4, R16
        CALL	prov_uk_in_ipcp
        LDI	R16, 6
        MOVW	R31:R30, R27:R26
        LDD	R18, Z+38
        LDI	R19, 0
        LDI	R30, LOW(cnt_pap_tm_out)
        LDI	R31, (cnt_pap_tm_out) >> 8
        ADD	R30, R18
        ADC	R31, R19
        STD	Z+4, R16
        CALL	prov_uk_in_ipcp
??monitor_event_IPCP_31:
        LDI	R16, 7
??monitor_event_IPCP_34:
        MOVW	R31:R30, R27:R26
        LDD	R18, Z+38
        LDI	R19, 0
        LDI	R30, LOW(cnt_pap_tm_out)
        LDI	R31, (cnt_pap_tm_out) >> 8
        ADD	R30, R18
        ADC	R31, R19
        RJMP	??monitor_event_IPCP_22
??monitor_event_IPCP_32:
        LDI	R16, 7
??monitor_event_IPCP_35:
        MOVW	R31:R30, R25:R24
        STD	Z+4, R16
        CALL	prov_uk_in_ipcp
        LDI	R16, 0
        MOVW	R31:R30, R27:R26
        LDD	R18, Z+38
        LDI	R30, LOW(cnt_pap_tm_out)
        LDI	R31, (cnt_pap_tm_out) >> 8
        ADD	R30, R18
        ADC	R31, R16
??monitor_event_IPCP_36:
        STD	Z+4, R16
        CALL	prov_uk_in_ipcp
// 2473                             return;
// 2474                 case OPEN_ST:                                                                                
// 2475                             IPCP_state=OPEN_ST;
??monitor_event_IPCP_37:
        LDI	R16, 9
        RJMP	??monitor_event_IPCP_8
??monitor_event_IPCP_33:
        LDI	R16, 7
        MOVW	R31:R30, R25:R24
        STD	Z+4, R16
        CALL	prov_uk_in_ipcp
        RJMP	??monitor_event_IPCP_1
??monitor_event_IPCP_38:
        LDI	R16, 255
        MOVW	R31:R30, R27:R26
        STD	Z+35, R16
        MOV	R16, R6
        SUBI	R16, 3
        BREQ	??monitor_event_IPCP_39
        SUBI	R16, 2
        BRNE	$+2+2
        RJMP	??monitor_event_IPCP_20
        DEC	R16
        BREQ	??monitor_event_IPCP_40
        DEC	R16
        BREQ	??monitor_event_IPCP_41
        DEC	R16
        BREQ	??monitor_event_IPCP_40
        DEC	R16
        BREQ	??monitor_event_IPCP_42
        RJMP	??monitor_event_IPCP_1
??monitor_event_IPCP_39:
        LDI	R16, 10
        STD	Z+43, R16
        LDI	R16, 4
        MOVW	R31:R30, R25:R24
        STD	Z+4, R16
        CALL	prov_uk_in_ipcp
        LDI	R16, 6
        MOVW	R31:R30, R27:R26
??monitor_event_IPCP_43:
        LDD	R18, Z+38
        LDI	R19, 0
        LDI	R30, LOW(cnt_pap_tm_out)
        LDI	R31, (cnt_pap_tm_out) >> 8
        ADD	R30, R18
        ADC	R31, R19
        STD	Z+4, R16
        CALL	prov_uk_in_ipcp
??monitor_event_IPCP_40:
        LDI	R16, 8
        RJMP	??monitor_event_IPCP_4
??monitor_event_IPCP_41:
        LDI	R16, 8
??monitor_event_IPCP_44:
        MOVW	R31:R30, R25:R24
        STD	Z+4, R16
        CALL	prov_uk_in_ipcp
        RJMP	??monitor_event_IPCP_45
??monitor_event_IPCP_42:
        LDI	R16, 1
        MOVW	R31:R30, R25:R24
        STD	Z+4, R16
        CALL	prov_uk_in_ipcp
        LDI	R16, 10
        MOVW	R31:R30, R27:R26
        STD	Z+43, R16
        LDI	R16, 6
        RJMP	??monitor_event_IPCP_43
??monitor_event_IPCP_46:
        LDI	R16, 255
        MOVW	R31:R30, R27:R26
        STD	Z+35, R16
        MOV	R16, R6
        SUBI	R16, 3
        BREQ	??monitor_event_IPCP_47
        SUBI	R16, 2
        BRNE	$+2+2
        RJMP	??monitor_event_IPCP_20
        DEC	R16
        BREQ	??monitor_event_IPCP_48
        DEC	R16
        BREQ	??monitor_event_IPCP_16
        DEC	R16
        BREQ	??monitor_event_IPCP_49
??monitor_event_IPCP_50:
        DEC	R16
        BREQ	??monitor_event_IPCP_51
        RJMP	??monitor_event_IPCP_1
??monitor_event_IPCP_47:
        LDD	R16, Z+11
        ANDI	R16, 0xFD
        STD	Z+11, R16
        LDI	R16, 10
        RJMP	??monitor_event_IPCP_26
??monitor_event_IPCP_48:
        LDI	R16, 10
        STD	Z+43, R16
        LDI	R16, 4
        RJMP	??monitor_event_IPCP_44
??monitor_event_IPCP_49:
        LDI	R16, 10
        STD	Z+43, R16
        LDI	R16, 4
        RJMP	??monitor_event_IPCP_35
??monitor_event_IPCP_51:
        LDI	R16, 10
        STD	Z+43, R16
        LDI	R16, 1
        RJMP	??monitor_event_IPCP_3
??monitor_event_IPCP_52:
        LDI	R16, 255
        MOVW	R31:R30, R27:R26
        STD	Z+35, R16
        MOV	R16, R6
        SUBI	R16, 3
        BREQ	??monitor_event_IPCP_47
        SUBI	R16, 2
        BRNE	$+2+2
        RJMP	??monitor_event_IPCP_20
        DEC	R16
        BRNE	$+2+2
        RJMP	??monitor_event_IPCP_2
        DEC	R16
        BREQ	??monitor_event_IPCP_16
        DEC	R16
        BREQ	??monitor_event_IPCP_53
        DEC	R16
        BREQ	??monitor_event_IPCP_54
        RJMP	??monitor_event_IPCP_1
??monitor_event_IPCP_53:
        LDI	R16, 10
        STD	Z+43, R16
        LDI	R16, 4
        MOVW	R31:R30, R25:R24
        STD	Z+4, R16
        CALL	prov_uk_in_ipcp
        LDI	R16, 6
        RJMP	??monitor_event_IPCP_34
??monitor_event_IPCP_54:
        LDI	R16, 1
        MOVW	R31:R30, R25:R24
        STD	Z+4, R16
        CALL	prov_uk_in_ipcp
??monitor_event_IPCP_16:
        LDI	R16, 10
        MOVW	R31:R30, R27:R26
        STD	Z+43, R16
        LDI	R16, 6
        RJMP	??monitor_event_IPCP_5
??monitor_event_IPCP_55:
        LDI	R16, 255
        MOVW	R31:R30, R27:R26
        STD	Z+35, R16
        MOV	R16, R6
        SUBI	R16, 3
        BREQ	??monitor_event_IPCP_47
        SUBI	R16, 2
        BREQ	??monitor_event_IPCP_56
        SUBI	R16, 1
        BRCS	??monitor_event_IPCP_57
        SUBI	R16, 3
        BRCS	??monitor_event_IPCP_58
        BREQ	??monitor_event_IPCP_59
??monitor_event_IPCP_57:
        RJMP	??monitor_event_IPCP_1
??monitor_event_IPCP_56:
        LDI	R16, 10
        RJMP	??monitor_event_IPCP_18
??monitor_event_IPCP_58:
        LDI	R16, 10
??monitor_event_IPCP_60:
        MOVW	R31:R30, R25:R24
        RJMP	??monitor_event_IPCP_6
??monitor_event_IPCP_59:
        LDI	R16, 10
        STD	Z+43, R16
        LDI	R16, 1
        MOVW	R31:R30, R25:R24
        STD	Z+4, R16
        CALL	prov_uk_in_ipcp
        LDI	R16, 5
        MOVW	R31:R30, R27:R26
        LDD	R18, Z+38
        LDI	R19, 0
        LDI	R30, LOW(cnt_pap_tm_out)
        LDI	R31, (cnt_pap_tm_out) >> 8
        ADD	R30, R18
        ADC	R31, R19
        STD	Z+4, R16
        CALL	prov_uk_in_ipcp
        LDI	R16, 10
        MOVW	R31:R30, R27:R26
        LDD	R18, Z+38
        LDI	R19, 0
        LDI	R30, LOW(cnt_pap_tm_out)
        LDI	R31, (cnt_pap_tm_out) >> 8
        ADD	R30, R18
        ADC	R31, R19
        RJMP	??monitor_event_IPCP_27
??monitor_event_IPCP_61:
        LDI	R16, 255
        MOVW	R31:R30, R27:R26
        STD	Z+35, R16
        MOV	R16, R6
        SUBI	R16, 3
        BREQ	??monitor_event_IPCP_62
        SUBI	R16, 2
        BRNE	$+2+2
        RJMP	??monitor_event_IPCP_25
        DEC	R16
        BRNE	$+2+2
        RJMP	??monitor_event_IPCP_7
        DEC	R16
        BRNE	$+2+2
        RJMP	??monitor_event_IPCP_7
        DEC	R16
        BREQ	??monitor_event_IPCP_63
        RJMP	??monitor_event_IPCP_50
??monitor_event_IPCP_62:
        MOVW	R31:R30, R27:R26
        LDD	R16, Z+11
        ANDI	R16, 0xFD
        STD	Z+11, R16
        RJMP	??monitor_event_IPCP_28
??monitor_event_IPCP_63:
        LDD	R16, Z+11
        ANDI	R16, 0xFD
        STD	Z+11, R16
        RJMP	??monitor_event_IPCP_23
??monitor_event_IPCP_64:
        LDI	R16, 255
        MOVW	R31:R30, R27:R26
        STD	Z+35, R16
        MOV	R16, R6
        SUBI	R16, 3
        BREQ	??monitor_event_IPCP_65
        SUBI	R16, 2
        BREQ	??monitor_event_IPCP_66
        DEC	R16
        BREQ	??monitor_event_IPCP_67
        DEC	R16
        BREQ	??monitor_event_IPCP_68
        DEC	R16
        BREQ	??monitor_event_IPCP_69
        DEC	R16
        BREQ	??monitor_event_IPCP_70
        RJMP	??monitor_event_IPCP_1
??monitor_event_IPCP_65:
        LDI	R16, 11
        MOVW	R31:R30, R25:R24
        STD	Z+4, R16
        CALL	prov_uk_in_ipcp
        RJMP	??monitor_event_IPCP_62
??monitor_event_IPCP_66:
        LDI	R16, 11
        RJMP	??monitor_event_IPCP_18
??monitor_event_IPCP_67:
        LDI	R16, 11
        RJMP	??monitor_event_IPCP_60
??monitor_event_IPCP_68:
        LDI	R16, 11
        RJMP	??monitor_event_IPCP_44
??monitor_event_IPCP_69:
        LDI	R16, 11
        RJMP	??monitor_event_IPCP_21
??monitor_event_IPCP_70:
        LDI	R16, 11
        MOVW	R31:R30, R25:R24
        RJMP	??monitor_event_IPCP_36
??monitor_event_IPCP_71:
        LDI	R16, 255
        MOVW	R31:R30, R27:R26
        STD	Z+35, R16
        MOV	R16, R6
        SUBI	R16, 3
        BRNE	$+2+2
        RJMP	??monitor_event_IPCP_11
        SUBI	R16, 2
        BRNE	$+2+2
        RJMP	??monitor_event_IPCP_20
        DEC	R16
        BRNE	$+2+2
        RJMP	??monitor_event_IPCP_7
        DEC	R16
        BREQ	??monitor_event_IPCP_45
        DEC	R16
        BRNE	$+2+2
        RJMP	??monitor_event_IPCP_23
        DEC	R16
        BRNE	$+2+2
        RJMP	??monitor_event_IPCP_37
        RJMP	??monitor_event_IPCP_1
??monitor_event_IPCP_45:
        LDI	R16, 7
        RJMP	??monitor_event_IPCP_8
// 2476                             return;                                                                    
// 2477                }  
// 2478              return; 
// 2479         case RXJ_MI:  
// 2480             IPCP_event=NO_EVENT;
??monitor_event_IPCP_72:
        LDI	R16, 255
        MOVW	R31:R30, R27:R26
        STD	Z+35, R16
// 2481             switch(IPCP_state)
        MOV	R16, R6
        SUBI	R16, 3
        BRNE	$+2+2
        RJMP	??monitor_event_IPCP_25
        SUBI	R16, 2
        BRCS	??monitor_event_IPCP_73
        SUBI	R16, 4
        BRCC	$+2+2
        RJMP	??monitor_event_IPCP_25
        BREQ	??monitor_event_IPCP_74
??monitor_event_IPCP_73:
        RJMP	??monitor_event_IPCP_1
// 2482                {                     
// 2483                 case STOP_ST:  
// 2484                             fl_ipcp.ipcp_tm_out_en=0;                                                  
// 2485                             IPCP_act_buf[uk_in_act_IPCP]=TLF;  
// 2486                             prov_uk_in_ipcp();                   
// 2487                             IPCP_state=STOP_ST;
// 2488                             return;               
// 2489                 case OSTANOV:  
// 2490                             fl_ipcp.ipcp_tm_out_en=0;                                                  
// 2491                             IPCP_act_buf[uk_in_act_IPCP]=TLF;  
// 2492                             prov_uk_in_ipcp();                   
// 2493                             IPCP_state=STOP_ST;
// 2494                             return;  
// 2495                 case SEND_REQ:                                                                
// 2496                             fl_ipcp.ipcp_tm_out_en=0;                                                  
// 2497                             IPCP_act_buf[uk_in_act_IPCP]=TLF;  
// 2498                             prov_uk_in_ipcp();                   
// 2499                             IPCP_state=STOP_ST;
// 2500                             return;
// 2501                 case REC_ACK:                                                                
// 2502                             fl_ipcp.ipcp_tm_out_en=0;                                                  
// 2503                             IPCP_act_buf[uk_in_act_IPCP]=TLF;  
// 2504                             prov_uk_in_ipcp();                   
// 2505                             IPCP_state=STOP_ST;
// 2506                             return;
// 2507                 case SEND_ACK:                                                                
// 2508                             fl_ipcp.ipcp_tm_out_en=0;                                                  
// 2509                             IPCP_act_buf[uk_in_act_IPCP]=TLF;  
// 2510                             prov_uk_in_ipcp();                   
// 2511                             IPCP_state=STOP_ST;
// 2512                             return;
// 2513                 case OPEN_ST:                                                                
// 2514                             vol_cnt_rst_ipcp=VOL_IPCP_MT;  
??monitor_event_IPCP_74:
        LDI	R16, 2
        STD	Z+43, R16
// 2515                             IPCP_act_buf[uk_in_act_IPCP]=TLD;  
        LDI	R16, 1
        MOVW	R31:R30, R25:R24
        STD	Z+4, R16
// 2516                             prov_uk_in_ipcp(); 
        CALL	prov_uk_in_ipcp
// 2517                             IPCP_act_buf[uk_in_act_IPCP]=IRC; 
        LDI	R16, 4
        MOVW	R31:R30, R27:R26
        LDD	R18, Z+38
        LDI	R19, 0
        LDI	R30, LOW(cnt_pap_tm_out)
        LDI	R31, (cnt_pap_tm_out) >> 8
        ADD	R30, R18
        ADC	R31, R19
        STD	Z+4, R16
// 2518                             prov_uk_in_ipcp();  
        CALL	prov_uk_in_ipcp
// 2519                             IPCP_act_buf[uk_in_act_IPCP]=STR;  
        LDI	R16, 9
        MOVW	R31:R30, R27:R26
        LDD	R18, Z+38
        LDI	R19, 0
        LDI	R30, LOW(cnt_pap_tm_out)
        LDI	R31, (cnt_pap_tm_out) >> 8
        ADD	R30, R18
        ADC	R31, R19
        RJMP	??monitor_event_IPCP_19
        CFI EndBlock cfiBlock10
// 2520                             prov_uk_in_ipcp();                                  
// 2521                             IPCP_state=OSTANOV;  
// 2522                             return;                                                                        
// 2523                } 
// 2524              return;  
// 2525         case RXR:       
// 2526              IPCP_event=NO_EVENT;
// 2527              switch(IPCP_state)
// 2528                {                     
// 2529 
// 2530                 case STOP_ST:      
// 2531                             fl_ipcp.ipcp_tm_out_en=0;                                                              
// 2532                             IPCP_state=START_ST;
// 2533                             return;        
// 2534                 case OSTANOV:                                                                               
// 2535                             IPCP_state=OSTANOV;
// 2536                             return;  
// 2537                 case SEND_REQ:                                                                                 
// 2538                             IPCP_state=SEND_REQ;
// 2539                             return;
// 2540                 case REC_ACK:                                                                              
// 2541                             IPCP_state=REC_ACK;
// 2542                             return;
// 2543                 case SEND_ACK:                                                                              
// 2544                             IPCP_state=SEND_ACK;
// 2545                             return;
// 2546                 case OPEN_ST:                                                                                
// 2547                          //   IPCP_act_buf[uk_in_act_IPCP]=SER;  
// 2548                          //   prov_uk_in_ipcp();
// 2549                             IPCP_state=OPEN_ST;
// 2550                             return;                                                                 
// 2551                }  
// 2552              return;                                  
// 2553         }
// 2554     
// 2555     }
// 2556   
// 2557   
// 2558   ////////////////  ęîíĺö ěîíčňîđű IPCP 
// 2559 

        RSEG CODE:CODE:NOROOT(1)
// 2560   unsigned int calc_crc_ip(unsigned char *p,unsigned int count)
calc_crc_ip:
        CFI Block cfiBlock11 Using cfiCommon0
        CFI Function calc_crc_ip
// 2561       {      
        SBIW	R29:R28, 6
        CFI CFA_Y Y+6
        MOVW	R31:R30, R17:R16
// 2562       
// 2563           union          
// 2564           {
// 2565            unsigned char bytes[2]; 
// 2566            unsigned int word;
// 2567           }temp1; 
// 2568          
// 2569           union
// 2570           {
// 2571            unsigned char bytes[4]; 
// 2572            unsigned long int long_word;
// 2573           }temp2; 
// 2574        
// 2575          temp1.word=0;
        LDI	R16, 0
        LDI	R17, 0
        ST	Y, R16
        STD	Y+1, R16
// 2576          temp2.long_word=0;
        STD	Y+2, R16
        STD	Y+3, R16
        STD	Y+4, R16
        STD	Y+5, R16
        RJMP	??calc_crc_ip_0
// 2577 
// 2578         while( count > 1 )  {
// 2579            /*  This is the inner loop */  
// 2580                temp1.bytes[0]=*p;
??calc_crc_ip_1:
        LD	R16, Z
        ST	Y, R16
// 2581                temp1.bytes[1]=*(p+1); 
        LDD	R16, Z+1
        STD	Y+1, R16
// 2582                temp2.long_word=temp2.long_word+temp1.word; 
        LD	R20, Y
        LDD	R21, Y+1
        LDD	R0, Y+2
        LDD	R1, Y+3
        LDD	R2, Y+4
        LDD	R3, Y+5
        ADD	R0, R20
        ADC	R1, R21
        ADC	R2, R17
        ADC	R3, R17
        STD	Y+2, R0
        STD	Y+3, R1
        STD	Y+4, R2
        STD	Y+5, R3
// 2583                p=p+2;         
        ADIW	R31:R30, 2
// 2584                count -= 2;
        SUBI	R18, 2
        SBCI	R19, 0
// 2585                             }
??calc_crc_ip_0:
        CPI	R18, 2
        CPC	R19, R17
        BRCC	??calc_crc_ip_1
// 2586 
// 2587            /*  Add left-over byte, if any */
// 2588        if( count > 0 )   
        OR	R18, R19
        BREQ	??calc_crc_ip_2
// 2589                {
// 2590                temp1.bytes[0]=0;
        ST	Y, R17
// 2591                temp1.bytes[1]=*p; 
        LD	R16, Z
        STD	Y+1, R16
// 2592                temp2.long_word=temp2.long_word+temp1.word; 
        LD	R16, Y
        LDD	R17, Y+1
        LDI	R18, 0
        LDD	R20, Y+2
        LDD	R21, Y+3
        LDD	R22, Y+4
        LDD	R23, Y+5
        ADD	R20, R16
        ADC	R21, R17
        ADC	R22, R18
        ADC	R23, R18
        STD	Y+2, R20
        STD	Y+3, R21
        STD	Y+4, R22
        STD	Y+5, R23
        RJMP	??calc_crc_ip_2
// 2593                } 
// 2594           
// 2595     
// 2596            /*  Fold 32-bit sum to 16 bits */
// 2597        while (temp2.long_word>>16)
// 2598            temp2.long_word = (temp2.long_word & 0xffff) + (temp2.long_word >> 16);
??calc_crc_ip_3:
        LDD	R17, Y+3
        LDI	R18, 0
        LDD	R22, Y+4
        LDD	R23, Y+5
        MOV	R20, R22
        MOV	R21, R23
        LDI	R22, 0
        ADD	R20, R16
        ADC	R21, R17
        ADC	R22, R18
        STD	Y+2, R20
        STD	Y+3, R21
        STD	Y+4, R22
        STD	Y+5, R18
??calc_crc_ip_2:
        LDD	R18, Y+4
        LDD	R19, Y+5
        LDI	R16, 0
        OR	R16, R18
        OR	R16, R19
        LDD	R16, Y+2
        BRNE	??calc_crc_ip_3
// 2599 
// 2600        temp1.bytes[0]=~temp2.bytes[0];
        COM	R16
        ST	Y, R16
// 2601        temp1.bytes[1]=~temp2.bytes[1];  
        LDD	R16, Y+3
        COM	R16
        STD	Y+1, R16
// 2602        
// 2603   
// 2604           
// 2605        return(temp1.word);
        LD	R16, Y
        LDD	R17, Y+1
        ADIW	R29:R28, 6
        CFI CFA_Y Y+0
        RET
        CFI EndBlock cfiBlock11
// 2606       }
// 2607        
// 2608 
// 2609 
// 2610 
// 2611  

        RSEG CODE:CODE:NOROOT(1)
// 2612  unsigned int calc_crc_udp_2(unsigned char *buf_rx_ppp,unsigned int count)
calc_crc_udp_2:
        CFI Block cfiBlock12 Using cfiCommon0
        CFI Function calc_crc_udp_2
// 2613       {      
        CALL	?PROLOGUE4_L09
        CFI R27 Frame(CFA_Y, -1)
        CFI R26 Frame(CFA_Y, -2)
        CFI R25 Frame(CFA_Y, -3)
        CFI R24 Frame(CFA_Y, -4)
        CFI CFA_Y Y+4
        SBIW	R29:R28, 6
        CFI CFA_Y Y+10
        MOVW	R27:R26, R17:R16
        MOVW	R25:R24, R19:R18
// 2614           unsigned char *p;
// 2615       
// 2616           union          
// 2617           {
// 2618            unsigned char bytes[2]; 
// 2619            unsigned int word;
// 2620           }temp1; 
// 2621          
// 2622           union
// 2623           {
// 2624            unsigned char bytes[4]; 
// 2625            unsigned long int long_word;
// 2626           }temp2; 
// 2627          p=buf_rx_ppp+22;
        MOVW	R31:R30, R27:R26
        ADIW	R31:R30, 22
// 2628          temp1.word=0;
        LDI	R18, 0
        LDI	R19, 0
        ST	Y, R18
        STD	Y+1, R18
// 2629          temp2.long_word=0;
        STD	Y+2, R18
        STD	Y+3, R18
        STD	Y+4, R18
        STD	Y+5, R18
        RJMP	??calc_crc_udp_2_0
// 2630 
// 2631         while( count > 1 )  {
// 2632            /*  This is the inner loop */  
// 2633                temp1.bytes[0]=*p;
??calc_crc_udp_2_1:
        LD	R18, Z
        ST	Y, R18
// 2634                temp1.bytes[1]=*(p+1); 
        LDD	R18, Z+1
        STD	Y+1, R18
// 2635                temp2.long_word=temp2.long_word+temp1.word; 
        LD	R20, Y
        LDD	R21, Y+1
        LDD	R0, Y+2
        LDD	R1, Y+3
        LDD	R2, Y+4
        LDD	R3, Y+5
        ADD	R0, R20
        ADC	R1, R21
        ADC	R2, R19
        ADC	R3, R19
        STD	Y+2, R0
        STD	Y+3, R1
        STD	Y+4, R2
        STD	Y+5, R3
// 2636                p=p+2;         
        ADIW	R31:R30, 2
// 2637                count -= 2;
        SBIW	R25:R24, 2
// 2638                             }
??calc_crc_udp_2_0:
        CPI	R24, 2
        CPC	R25, R19
        BRCC	??calc_crc_udp_2_1
// 2639 
// 2640            /*  Add left-over byte, if any */
// 2641        if( count > 0 )   
        OR	R24, R25
        BREQ	??calc_crc_udp_2_2
// 2642                {
// 2643                //temp1.bytes[0]=0;
// 2644                //temp1.bytes[1]=*p; 
// 2645                temp1.bytes[0]=*p; 
        LD	R16, Z
        ST	Y, R16
// 2646                temp1.bytes[1]=0;
        STD	Y+1, R19
// 2647                temp2.long_word=temp2.long_word+temp1.word; 
        LD	R16, Y
        LDD	R17, Y+1
        LDD	R20, Y+2
        LDD	R21, Y+3
        LDD	R22, Y+4
        LDD	R23, Y+5
        ADD	R20, R16
        ADC	R21, R17
        ADC	R22, R19
        ADC	R23, R19
        STD	Y+2, R20
        STD	Y+3, R21
        STD	Y+4, R22
        STD	Y+5, R23
// 2648                } 
// 2649           
// 2650           
// 2651           
// 2652           temp1.bytes[0]=buf_rx_ppp[14];
??calc_crc_udp_2_2:
        MOVW	R31:R30, R27:R26
        LDD	R16, Z+14
        ST	Y, R16
// 2653           temp1.bytes[1]=buf_rx_ppp[15]; 
        LDD	R16, Z+15
        STD	Y+1, R16
// 2654           temp2.long_word=temp2.long_word+temp1.word;  
        LD	R16, Y
        LDD	R17, Y+1
        LDD	R20, Y+2
        LDD	R21, Y+3
        LDD	R22, Y+4
        LDD	R23, Y+5
        ADD	R20, R16
        ADC	R21, R17
        ADC	R22, R19
        ADC	R23, R19
        STD	Y+2, R20
        STD	Y+3, R21
        STD	Y+4, R22
        STD	Y+5, R23
// 2655           temp1.bytes[0]=buf_rx_ppp[16];
        LDD	R16, Z+16
        ST	Y, R16
// 2656           temp1.bytes[1]=buf_rx_ppp[17]; 
        LDD	R16, Z+17
        STD	Y+1, R16
// 2657           temp2.long_word=temp2.long_word+temp1.word;  
        LD	R16, Y
        LDD	R17, Y+1
        LDD	R20, Y+2
        LDD	R21, Y+3
        LDD	R22, Y+4
        LDD	R23, Y+5
        ADD	R20, R16
        ADC	R21, R17
        ADC	R22, R19
        ADC	R23, R19
        STD	Y+2, R20
        STD	Y+3, R21
        STD	Y+4, R22
        STD	Y+5, R23
// 2658           
// 2659           temp1.bytes[0]=buf_rx_ppp[18];
        LDD	R16, Z+18
        ST	Y, R16
// 2660           temp1.bytes[1]=buf_rx_ppp[19]; 
        LDD	R16, Z+19
        STD	Y+1, R16
// 2661           temp2.long_word=temp2.long_word+temp1.word;  
        LD	R16, Y
        LDD	R17, Y+1
        LDD	R20, Y+2
        LDD	R21, Y+3
        LDD	R22, Y+4
        LDD	R23, Y+5
        ADD	R20, R16
        ADC	R21, R17
        ADC	R22, R19
        ADC	R23, R19
        STD	Y+2, R20
        STD	Y+3, R21
        STD	Y+4, R22
        STD	Y+5, R23
// 2662           temp1.bytes[0]=buf_rx_ppp[20];
        LDD	R16, Z+20
        ST	Y, R16
// 2663           temp1.bytes[1]=buf_rx_ppp[21]; 
        LDD	R16, Z+21
        STD	Y+1, R16
// 2664           temp2.long_word=temp2.long_word+temp1.word;  
        LD	R16, Y
        LDD	R17, Y+1
        LDD	R20, Y+2
        LDD	R21, Y+3
        LDD	R22, Y+4
        LDD	R23, Y+5
        ADD	R20, R16
        ADC	R21, R17
        ADC	R22, R19
        ADC	R23, R19
        STD	Y+2, R20
        STD	Y+3, R21
        STD	Y+4, R22
        STD	Y+5, R23
// 2665           
// 2666                      
// 2667       
// 2668           temp1.bytes[0]=0;
        ST	Y, R19
// 2669           temp1.bytes[1]=0x11; 
        LDI	R16, 17
        STD	Y+1, R16
// 2670           temp2.long_word=temp2.long_word+temp1.word;  
        LD	R16, Y
        LDD	R17, Y+1
        LDD	R20, Y+2
        LDD	R21, Y+3
        LDD	R22, Y+4
        LDD	R23, Y+5
        ADD	R20, R16
        ADC	R21, R17
        ADC	R22, R19
        ADC	R23, R19
        STD	Y+2, R20
        STD	Y+3, R21
        STD	Y+4, R22
        STD	Y+5, R23
// 2671            
// 2672           temp1.bytes[0]=buf_rx_ppp[26];                                //äëčíŕ
        LDD	R16, Z+26
        ST	Y, R16
// 2673           temp1.bytes[1]=buf_rx_ppp[27]; 
        LDD	R16, Z+27
        STD	Y+1, R16
// 2674           temp2.long_word=temp2.long_word+temp1.word; 
        LD	R16, Y
        LDD	R17, Y+1
        LDD	R20, Y+2
        LDD	R21, Y+3
        LDD	R22, Y+4
        LDD	R23, Y+5
        ADD	R20, R16
        ADC	R21, R17
        ADC	R22, R19
        ADC	R23, R19
        STD	Y+2, R20
        STD	Y+3, R21
        STD	Y+4, R22
        STD	Y+5, R23
        RJMP	??calc_crc_udp_2_3
// 2675          
// 2676       
// 2677           
// 2678          
// 2679           
// 2680     
// 2681            /*  Fold 32-bit sum to 16 bits */
// 2682        while (temp2.long_word>>16)
// 2683            temp2.long_word = (temp2.long_word & 0xffff) + (temp2.long_word >> 16);
??calc_crc_udp_2_4:
        LDD	R17, Y+3
        LDI	R18, 0
        LDD	R22, Y+4
        LDD	R23, Y+5
        MOV	R20, R22
        MOV	R21, R23
        LDI	R22, 0
        ADD	R20, R16
