//////////////////////////////////////////////////////////////////////////////
//                                                                           /
//                                                     24/Oct/2025  13:29:04 /
// IAR Atmel AVR C/C++ Compiler V4.12A/W32, Evaluation Version               /
// Copyright 1996-2005 IAR Systems. All rights reserved.                     /
//                                                                           /
//    Source file  =  E:\sim800Elam2560_bootnew_i2cerr_a7682e\fppp3.c        /
//    Command line =  E:\sim800Elam2560_bootnew_i2cerr_a7682e\fppp3.c        /
//                    --cpu=m2560 -ms -o E:\sim800Elam2560_bootnew_i2cerr_a7 /
//                    682e\Debug\Obj\ -lCN E:\sim800Elam2560_bootnew_i2cerr_ /
//                    a7682e\Debug\List\ -lA E:\sim800Elam2560_bootnew_i2cer /
//                    r_a7682e\Debug\List\ -y --initializers_in_flash -z9    /
//                    --no_inline --no_tbaa --cross_call_passes=1 --debug    /
//                    -e -I "E:\box\IAR Systems\Embedded Workbench 4.0       /
//                    Evaluation\avr\INC\" -I "E:\box\IAR Systems\Embedded   /
//                    Workbench 4.0 Evaluation\avr\INC\DLIB\" --eeprom_size  /
//                    4096 --dlib_config "E:\box\IAR Systems\Embedded        /
//                    Workbench 4.0 Evaluation\avr\LIB\DLIB\dlAVR-5s-ec-n.h" /
//    List file    =  E:\sim800Elam2560_bootnew_i2cerr_a7682e\Debug\List\fpp /
//                    p3.s90                                                 /
//                                                                           /
//                                                                           /
//////////////////////////////////////////////////////////////////////////////

        NAME fppp3

        RTMODEL "__64bit_doubles", "disabled"
        RTMODEL "__cpu", "5"
        RTMODEL "__cpu_name", "ATmega2560"
        RTMODEL "__enhanced_core", "enabled"
        RTMODEL "__has_elpm", "true"
        RTMODEL "__memory_model", "2"
        RTMODEL "__no_rampd", "enabled"
        RTMODEL "__rt_version", "3"

        RSEG CSTACK:DATA:NOROOT(0)
        RSEG RSTACK:DATA:NOROOT(0)

        EXTERN ?EPILOGUE_B16_L09
        EXTERN ?EPILOGUE_B4_L09
        EXTERN ?EPILOGUE_B6_L09
        EXTERN ?EPILOGUE_B9_L09
        EXTERN ?PROLOGUE16_L09
        EXTERN ?PROLOGUE4_L09
        EXTERN ?PROLOGUE6_L09
        EXTERN ?PROLOGUE9_L09
        EXTERN ?Register_R10_is_cg_reg
        EXTERN ?Register_R11_is_cg_reg
        EXTERN ?Register_R12_is_cg_reg
        EXTERN ?Register_R13_is_cg_reg
        EXTERN ?Register_R14_is_cg_reg
        EXTERN ?Register_R15_is_cg_reg
        EXTERN ?Register_R4_is_cg_reg
        EXTERN ?Register_R5_is_cg_reg
        EXTERN ?Register_R6_is_cg_reg
        EXTERN ?Register_R7_is_cg_reg
        EXTERN ?Register_R8_is_cg_reg
        EXTERN ?Register_R9_is_cg_reg
        EXTERN ?SS_DIVMOD_L02
        EXTERN ?need_segment_init

        PUBWEAK `?<Segment init: NEAR_Z>`
?Subroutine129 EQU 0
?Subroutine149 EQU 0
?Subroutine165 EQU 0
?Subroutine178 EQU 0
?Subroutine179 EQU 0
?Subroutine183 EQU 0
?Subroutine186 EQU 0
?Subroutine209 EQU 0
?Subroutine213 EQU 0
?Subroutine223 EQU 0
?Subroutine224 EQU 0
?Subroutine225 EQU 0
?Subroutine234 EQU 0
?Subroutine52 EQU 0
?Subroutine77 EQU 0
?Subroutine84 EQU 0
?Subroutine89 EQU 0
        PUBLIC IPCP_act_buf
        PUBLIC IPCP_event
        PUBLIC IPCP_state
        PUBLIC LCP_act_buf
        PUBLIC LCP_event
        PUBLIC LCP_state
        PUBLIC Life
        PUBLIC Obj_ppp_tx
        PUBLIC PAP_event
        PUBLIC PAP_state
        PUBWEAK _A_EIND
        PUBWEAK _A_PORTA
        PUBWEAK _A_PORTC
        PUBWEAK _A_RAMPZ
        PUBWEAK _A_SREG
        PUBWEAK _A_UCSR0A
        PUBWEAK _A_UCSR0B
        PUBWEAK _A_UDR0
        PUBWEAK _A_UDR3
        PUBWEAK _A_WDTCSR
        PUBWEAK __?EEARH
        PUBWEAK __?EEARL
        PUBWEAK __?EECR
        PUBWEAK __?EEDR
        PUBLIC analiz_ppp_rx
        FUNCTION analiz_ppp_rx,021203H
        LOCFRAME RSTACK, 3, STACK
        PUBLIC ans_in_ctrl_cl
        PUBLIC ans_out_232
        PUBLIC ans_out_485_1
        PUBLIC ans_out_485_2
        PUBLIC ans_out_config
        PUBLIC ans_out_mbus
        PUBLIC ans_out_prog
        PUBLIC ans_out_st_contr
        PUBWEAK array_in_232
        PUBLIC buf_ack_opt_ipcp
        PUBLIC buf_ack_opt_lcp
        PUBLIC buf_nak_opt_ipcp
        PUBLIC buf_nak_opt_lcp
        PUBLIC buf_rej_opt_ipcp
        PUBLIC buf_rej_opt_lcp
        PUBLIC buf_rejc_opt_ipcp
        PUBLIC buf_rejc_opt_lcp
        PUBLIC calc_crc_ip
        FUNCTION calc_crc_ip,0203H
        LOCFRAME CSTACK, 8, STACK
        LOCFRAME RSTACK, 3, STACK
        PUBLIC calc_crc_udp_2
        FUNCTION calc_crc_udp_2,0203H
        LOCFRAME CSTACK, 10, STACK
        LOCFRAME RSTACK, 3, STACK
        PUBLIC cnt_ip_tm_cntr
        PUBLIC cnt_ipcp_tm_out
        PUBLIC cnt_lcp_tm_out
        PUBLIC cnt_pap_tm_out
        PUBLIC cnt_pg
        PUBLIC cnt_pg_i
        PUBLIC cnt_rst_ipcp
        PUBLIC cnt_rst_lcp
        PUBLIC cnt_rst_pap
        PUBLIC com_disp
        FUNCTION com_disp,021203H
        LOCFRAME CSTACK, 6, STACK
        LOCFRAME RSTACK, 3, STACK
        PUBLIC compress_off
        PUBWEAK contr_gluk1
        PUBWEAK contr_gluk2
        PUBLIC delay_pre_tx
        PUBLIC evc_rld
        PUBLIC extract_all_tii_485
        FUNCTION extract_all_tii_485,0203H
        LOCFRAME RSTACK, 3, STACK
        PUBLIC extract_all_tit_485
        FUNCTION extract_all_tit_485,0203H
        LOCFRAME RSTACK, 3, STACK
        PUBLIC extract_tii_485
        FUNCTION extract_tii_485,0203H
        LOCFRAME RSTACK, 3, STACK
        PUBLIC extract_tit_485
        FUNCTION extract_tit_485,0203H
        LOCFRAME RSTACK, 3, STACK
        PUBLIC fcstab
        PUBLIC fl_ip
        PUBLIC fl_ipcp
        PUBLIC fl_ipcp1
        PUBLIC fl_ipcp2
        PUBLIC fl_lcp
        PUBLIC fl_lcp1
        PUBLIC fl_lcp2
        PUBLIC fl_pap
        PUBLIC fl_pg_out
        PUBLIC fl_rewrite
        PUBLIC hash_tabletka2
        FUNCTION hash_tabletka2,021203H
        LOCFRAME CSTACK, 10, STACK
        LOCFRAME RSTACK, 3, STACK
        PUBLIC i_scan_ipcp
        PUBLIC i_scan_lcp
        PUBLIC i_scj_ipcp
        PUBLIC i_scj_lcp
        PUBLIC i_scr_ipcp
        PUBLIC i_scr_lcp
        PUBLIC i_scr_pap
        PUBLIC i_sta_ipcp
        PUBLIC i_sta_lcp
        PUBLIC i_str_ipcp
        PUBLIC i_str_lcp
        PUBLIC id_pg_appl
        PUBLIC id_pg_kp
        PUBLIC ip_change
        PUBLIC ip_pri_dns
        PUBLIC ip_sec_dns
        PUBLIC ln_ack_ipcp
        PUBLIC ln_ack_lcp
        PUBLIC ln_nak_ipcp
        PUBLIC ln_nak_lcp
        PUBLIC ln_rej_ipcp
        PUBLIC ln_rej_lcp
        PUBLIC ln_rejc_ipcp
        PUBLIC ln_rejc_lcp
        PUBLIC monitor_act_IPCP
        FUNCTION monitor_act_IPCP,021203H
        LOCFRAME CSTACK, 2, STACK
        LOCFRAME RSTACK, 3, STACK
        PUBLIC monitor_act_LCP
        FUNCTION monitor_act_LCP,021203H
        LOCFRAME CSTACK, 2, STACK
        LOCFRAME RSTACK, 3, STACK
        PUBLIC monitor_act_PAP
        FUNCTION monitor_act_PAP,021203H
        LOCFRAME CSTACK, 7, STACK
        LOCFRAME RSTACK, 3, STACK
        PUBLIC monitor_event_IPCP
        FUNCTION monitor_event_IPCP,021203H
        LOCFRAME CSTACK, 4, STACK
        LOCFRAME RSTACK, 3, STACK
        PUBLIC monitor_event_LCP
        FUNCTION monitor_event_LCP,021203H
        LOCFRAME CSTACK, 4, STACK
        LOCFRAME RSTACK, 3, STACK
        PUBLIC monitor_event_PAP
        FUNCTION monitor_event_PAP,0203H
        LOCFRAME RSTACK, 3, STACK
        PUBLIC new_version
        PUBLIC null_all_tii_485
        FUNCTION null_all_tii_485,0203H
        LOCFRAME RSTACK, 3, STACK
        PUBLIC null_tii_485
        FUNCTION null_tii_485,0203H
        LOCFRAME RSTACK, 3, STACK
        PUBWEAK off_buf
        PUBWEAK pagee
        PUBLIC pap_act_buf
        PUBLIC pg_crc
        PUBLIC pppfcs16
        FUNCTION pppfcs16,0203H
        LOCFRAME RSTACK, 3, STACK
        PUBLIC proc_kamintel
        FUNCTION proc_kamintel,021203H
        LOCFRAME CSTACK, 4, STACK
        LOCFRAME RSTACK, 3, STACK
        PUBLIC proc_modbus
        FUNCTION proc_modbus,021203H
        LOCFRAME CSTACK, 6, STACK
        LOCFRAME RSTACK, 3, STACK
        PUBLIC proc_option
        FUNCTION proc_option,021203H
        LOCFRAME CSTACK, 16, STACK
        LOCFRAME RSTACK, 6, STACK
        PUBLIC proc_paging
        FUNCTION proc_paging,0203H
        LOCFRAME RSTACK, 3, STACK
        PUBLIC proc_ppp_packet
        FUNCTION proc_ppp_packet,021203H
        LOCFRAME CSTACK, 15, STACK
        LOCFRAME RSTACK, 3, STACK
        PUBLIC proc_udp_data
        FUNCTION proc_udp_data,021203H
        LOCFRAME CSTACK, 88, STACK
        LOCFRAME RSTACK, 3, STACK
        PUBLIC prov_uk_in
        FUNCTION prov_uk_in,0203H
        LOCFRAME RSTACK, 3, STACK
        PUBLIC prov_uk_in_ipcp
        FUNCTION prov_uk_in_ipcp,0203H
        LOCFRAME RSTACK, 3, STACK
        PUBLIC r_in_out_485
        FUNCTION r_in_out_485,021203H
        LOCFRAME RSTACK, 3, STACK
        PUBLIC rcvd_protokol
        PUBLIC reboot_byte
        PUBLIC rec_ctrl_ch
        PUBLIC rec_evc
        PUBLIC run_ipcp_act
        FUNCTION run_ipcp_act,021203H
        LOCFRAME CSTACK, 6, STACK
        LOCFRAME RSTACK, 3, STACK
        PUBLIC run_lcp_act
        FUNCTION run_lcp_act,021203H
        LOCFRAME CSTACK, 6, STACK
        LOCFRAME RSTACK, 3, STACK
        PUBLIC saver_global_var
        PUBLIC send_no_sinc
        FUNCTION send_no_sinc,021203H
        LOCFRAME CSTACK, 4, STACK
        LOCFRAME RSTACK, 3, STACK
        PUBLIC send_size_pg
        FUNCTION send_size_pg,021203H
        LOCFRAME CSTACK, 4, STACK
        LOCFRAME RSTACK, 3, STACK
        PUBLIC send_terminate_lcp
        FUNCTION send_terminate_lcp,021203H
        LOCFRAME CSTACK, 4, STACK
        LOCFRAME RSTACK, 3, STACK
        PUBLIC `swap`
        FUNCTION `swap`,0203H
        LOCFRAME RSTACK, 3, STACK
        PUBLIC tc_485
        FUNCTION tc_485,021203H
        LOCFRAME CSTACK, 2, STACK
        LOCFRAME RSTACK, 3, STACK
        PUBWEAK total_kol_page
        PUBLIC uk_in_act_IPCP
        PUBLIC uk_in_act_LCP
        PUBLIC uk_out_act_IPCP
        PUBLIC uk_out_act_LCP
        PUBLIC vol_cnt_rst_ipcp
        PUBLIC vol_cnt_rst_lcp
        PUBLIC vol_cnt_rst_pap
        PUBLIC w_in_out_485
        FUNCTION w_in_out_485,021203H
        LOCFRAME RSTACK, 3, STACK
        
        CFI Names cfiNames0
        CFI StackFrame CFA_Y Y DATA
        CFI StackFrame CFA_SP SP DATA
        CFI VirtualResource ?RetPad:1, ?RetByte3:8, ?RetHigh:8, ?RetLow:8
        CFI VirtualResource ?Ret:25
        CFI Resource R0:8, R1:8, R2:8, R3:8, R4:8, R5:8, R6:8, R7:8, R8:8, R9:8
        CFI Resource R10:8, R11:8, R12:8, R13:8, R14:8, R15:8, R16:8, R17:8
        CFI Resource R18:8, R19:8, R20:8, R21:8, R22:8, R23:8, R24:8, R25:8
        CFI Resource R26:8, R27:8, R28:8, R29:8, R30:8, R31:8
        CFI Resource ?RetHighByteMask:8, SP:16, SPH:8, SPL:8, Y:16
        CFI ResourceParts ?Ret ?RetByte3, ?RetHigh, ?RetLow, ?RetPad
        CFI ResourceParts SP SPH, SPL
        CFI ResourceParts Y R29, R28
        CFI EndNames cfiNames0
        
        CFI Common cfiCommon0 Using cfiNames0
        CFI CodeAlign 1
        CFI DataAlign 1
        CFI ReturnAddress ?Ret CODE
        CFI CFA_Y Y+0
        CFI CFA_SP SP+3
        CFI ?RetPad 0
        CFI ?RetByte3 and(load(1, DATA, sub(CFA_SP, 2)), ?RetHighByteMask)
        CFI ?RetHigh Frame(CFA_SP, -1)
        CFI ?RetLow Frame(CFA_SP, 0)
        CFI ?Ret Concat
        CFI R0 Undefined
        CFI R1 Undefined
        CFI R2 Undefined
        CFI R3 Undefined
        CFI R4 SameValue
        CFI R5 SameValue
        CFI R6 SameValue
        CFI R7 SameValue
        CFI R8 SameValue
        CFI R9 SameValue
        CFI R10 SameValue
        CFI R11 SameValue
        CFI R12 SameValue
        CFI R13 SameValue
        CFI R14 SameValue
        CFI R15 SameValue
        CFI R16 Undefined
        CFI R17 Undefined
        CFI R18 Undefined
        CFI R19 Undefined
        CFI R20 Undefined
        CFI R21 Undefined
        CFI R22 Undefined
        CFI R23 Undefined
        CFI R24 SameValue
        CFI R25 SameValue
        CFI R26 SameValue
        CFI R27 SameValue
        CFI R28 Undefined
        CFI R29 Undefined
        CFI R30 Undefined
        CFI R31 Undefined
        CFI ?RetHighByteMask SameValue
        CFI SPH Undefined
        CFI SPL Undefined
        CFI EndCommon cfiCommon0
        
        
        CFI Common cfiCommon1 Using cfiNames0
        CFI CodeAlign 1
        CFI DataAlign 1
        CFI ReturnAddress ?Ret CODE
        CFI CFA_Y Notused
        CFI CFA_SP SP+3
        CFI ?RetPad 0
        CFI ?RetByte3 and(load(1, DATA, sub(CFA_SP, 2)), ?RetHighByteMask)
        CFI ?RetHigh Frame(CFA_SP, -1)
        CFI ?RetLow Frame(CFA_SP, 0)
        CFI ?Ret Concat
        CFI R0 SameValue
        CFI R1 SameValue
        CFI R2 SameValue
        CFI R3 SameValue
        CFI R4 SameValue
        CFI R5 SameValue
        CFI R6 SameValue
        CFI R7 SameValue
        CFI R8 SameValue
        CFI R9 SameValue
        CFI R10 SameValue
        CFI R11 SameValue
        CFI R12 SameValue
        CFI R13 SameValue
        CFI R14 SameValue
        CFI R15 SameValue
        CFI R16 SameValue
        CFI R17 SameValue
        CFI R18 SameValue
        CFI R19 SameValue
        CFI R20 SameValue
        CFI R21 SameValue
        CFI R22 SameValue
        CFI R23 SameValue
        CFI R24 SameValue
        CFI R25 SameValue
        CFI R26 SameValue
        CFI R27 SameValue
        CFI R28 Undefined
        CFI R29 Undefined
        CFI R30 SameValue
        CFI R31 SameValue
        CFI ?RetHighByteMask SameValue
        CFI SPH Undefined
        CFI SPL Undefined
        CFI Y SameValue
        CFI EndCommon cfiCommon1
        
        EXTERN RdFromFleshToArr
        FUNCTION RdFromFleshToArr,0202H
        EXTERN check_cts
        FUNCTION check_cts,0202H
        EXTERN clr_cntr_nat
        FUNCTION clr_cntr_nat,0202H
        EXTERN clr_cntr_link
        FUNCTION clr_cntr_link,0202H
        EXTERN form_buf_tx_ppp
        FUNCTION form_buf_tx_ppp,0202H
        EXTERN write_log_info
        FUNCTION write_log_info,0202H
        EXTERN lock_it
        FUNCTION lock_it,0202H
        EXTERN transform_buf
        FUNCTION transform_buf,0202H
        EXTERN crc_m1
        FUNCTION crc_m1,0202H
        EXTERN send_info
        FUNCTION send_info,0202H
        EXTERN send_err485
        FUNCTION send_err485,0202H
        EXTERN check_cont_485_1
        FUNCTION check_cont_485_1,0202H
        EXTERN burst_ds_r
        FUNCTION burst_ds_r,0202H
        EXTERN check_ln_conf
        FUNCTION check_ln_conf,0202H
        EXTERN WrArrayToFlesh
        FUNCTION WrArrayToFlesh,0202H
        EXTERN proc_config
        FUNCTION proc_config,0202H
        EXTERN crc_ozu
        FUNCTION crc_ozu,0202H
        EXTERN move_to_saver
        FUNCTION move_to_saver,0202H
        EXTERN boot_HUGE
        FUNCTION boot_HUGE,0202H
        EXTERN pop_from_saver
        FUNCTION pop_from_saver,0202H
        EXTERN r_p_flash
        FUNCTION r_p_flash,0202H
        EXTERN delay
        FUNCTION delay,0202H
        EXTERN reload_apl_HUGE
        FUNCTION reload_apl_HUGE,0202H
        EXTERN com_disp_mbus
        FUNCTION com_disp_mbus,0202H
        EXTERN RdFromFleshToArrInt
        FUNCTION RdFromFleshToArrInt,0202H
        EXTERN func_crc_tii
        FUNCTION func_crc_tii,0202H
        EXTERN refresh_a
        FUNCTION refresh_a,0202H
        EXTERN set_rlt
        FUNCTION set_rlt,0202H
        EXTERN read_ohr
        FUNCTION read_ohr,0202H
        EXTERN test_vzat
        FUNCTION test_vzat,0202H
        EXTERN test_snat
        FUNCTION test_snat,0202H
        EXTERN test_alarm
        FUNCTION test_alarm,0202H
        EXTERN test_t_vhod
        FUNCTION test_t_vhod,0202H
        EXTERN test_t_vihod
        FUNCTION test_t_vihod,0202H
        EXTERN crc_485
        FUNCTION crc_485,0202H
        EXTERN Appl_RS232_2
        EXTERN Appl_RS232_2_data_buf
        EXTERN Appl_RS485_1
        EXTERN Appl_RS485_1_data_buf
        EXTERN Appl_RS485_2
        EXTERN Appl_RS485_2_data_buf
        EXTERN Appl_seq
        EXTERN Appl_seq_des
        EXTERN Buf1_rx_ppp
        EXTERN Buf2_rx_ppp
        EXTERN Control
        EXTERN Regim
        EXTERN bit_level
        EXTERN bit_level_psm
        EXTERN bit_registr1
        EXTERN bpa
        EXTERN buf_opt_tr
        EXTERN buf_tx_232
        EXTERN bufer
        EXTERN c1_byte
        EXTERN c2_byte
        EXTERN c_config_tc
        EXTERN cnt_incom
        EXTERN cnt_no_link
        EXTERN cnt_outcom
        EXTERN cnt_tii
        EXTERN cnt_tu1
        EXTERN cnt_tu2
        EXTERN count_tx_ppp
        EXTERN crc_tii
        EXTERN event_modem
        EXTERN fl_232_2
        EXTERN fl_485_1
        EXTERN fl_485_2
        EXTERN fl_appl_seq
        EXTERN fl_appl_seq1
        EXTERN ip_ls
        EXTERN ip_self
        EXTERN k_a_tit
        EXTERN layer_PPP
        EXTERN modbus_mem1
        EXTERN nomer_tab
        EXTERN num_self
        EXTERN num_seq_cl
        EXTERN obmen_full
        EXTERN point_log_buf
        EXTERN port_udp
        EXTERN prov_ozu
        EXTERN real_time
        EXTERN sel_modul
        EXTERN simka
        EXTERN sost
        EXTERN sost_psm
        EXTERN state_seq
        EXTERN struct_tcc1
        EXTERN struct_tcc2
        EXTERN sv1
        EXTERN sv2
        EXTERN unix
        EXTERN ust_vhod
        EXTERN vol_cnt_no_link
        EXTERN vol_tx_ppp
        EXTERN zadan_ys

// E:\sim800Elam2560_bootnew_i2cerr_a7682e\fppp3.c
//    1 #include <iom2560.h> 

        ASEGN ABSOLUTE:DATA:NOROOT,0136H
// union <unnamed> volatile __ext_io _A_UDR3
_A_UDR3:
        DS 1

        ASEGN ABSOLUTE:DATA:NOROOT,0c6H
// union <unnamed> volatile __io _A_UDR0
_A_UDR0:
        DS 1

        ASEGN ABSOLUTE:DATA:NOROOT,0c1H
// union <unnamed> volatile __io _A_UCSR0B
_A_UCSR0B:
        DS 1

        ASEGN ABSOLUTE:DATA:NOROOT,0c0H
// union <unnamed> volatile __io _A_UCSR0A
_A_UCSR0A:
        DS 1

        ASEGN ABSOLUTE:DATA:NOROOT,060H
// union <unnamed> volatile __io _A_WDTCSR
_A_WDTCSR:
        DS 1

        ASEGN ABSOLUTE:DATA:NOROOT,05fH
// union <unnamed> volatile __io _A_SREG
_A_SREG:
        DS 1

        ASEGN ABSOLUTE:DATA:NOROOT,05cH
// union <unnamed> volatile __io _A_EIND
_A_EIND:
        DS 1

        ASEGN ABSOLUTE:DATA:NOROOT,05bH
// union <unnamed> volatile __io _A_RAMPZ
_A_RAMPZ:
        DS 1

        ASEGN ABSOLUTE:DATA:NOROOT,028H
// union <unnamed> volatile __io _A_PORTC
_A_PORTC:
        DS 1

        ASEGN ABSOLUTE:DATA:NOROOT,022H
// union <unnamed> volatile __io _A_PORTA
_A_PORTA:
        DS 1
//    2 #include <inavr.h>
//    3 #include "dfpin.h"
//    4 #include "dfproc.h"
//    5 #include "def_prot.h"
//    6 #include "def_conf.h"
//    7 #include "map_ef.h"
//    8 #include "ozu_map.h"
//    9 #include "def_at.h"
//   10 #include "def_link.h"
//   11 #include "dfcnst.h"
//   12 #include "def_log.h"
//   13 #include "map_mbus.h"
//   14 #include "bpa.h"
//   15 #include "ver_api.h"
//   16 
//   17 //адоптированный обрезанный стек PPP 14.09.07
//   18 
//   19 #define C_GLUK1    0x55   
//   20 #define C_GLUK2    0xaa
//   21 
//   22 extern unsigned char k_a_tit[2];
//   23 extern union {
//   24        unsigned char mb[SEG3*2];//байтовый массив
//   25        } c2_byte; //1я страница конфигурации 
//   26 
//   27 extern union {
//   28        unsigned char mb[SEG99*2];//байтовый массив 
//   29        } c1_byte; // страница конфигурации ГЗУ 
//   30 

        RSEG FARCODE:CODE:NOROOT(1)
//   31 unsigned int swap(unsigned int a)
`swap`:
        CFI Block cfiBlock0 Using cfiCommon0
        CFI Function `swap`
//   32 {
//   33   return (a << 8) | (a >> 8);
        MOV	R19, R16
        MOV	R16, R17
        MOV	R17, R19
        RET
        CFI EndBlock cfiBlock0
//   34 }
//   35 
//   36 extern unsigned char obmen_full;
//   37 extern char bit_registr1;
//   38 extern unsigned char nomer_tab;
//   39 extern unsigned int sost;
//   40 extern char zadan_ys;
//   41 
//   42 char read_ohr(void);
//   43 
//   44 void test_vzat(void);
//   45 void test_snat(void);
//   46 void test_alarm(void);
//   47 void test_t_vhod(void);
//   48 void test_t_vihod(void);
//   49 
//   50 
//   51 
//   52 void refresh_a(char m);
//   53 void RdFromFleshToArrInt(unsigned int adres_flesh, unsigned int *adres_ozu,unsigned int num);
//   54 void WrArrayToFleshInt(unsigned int adres_flesh,  unsigned int *adres_ozu, unsigned int num,unsigned char flag,unsigned int znach); //запись конфигурации кп во флеш
//   55 
//   56 unsigned char crc_485(unsigned char num, unsigned char *p);
//   57 
//   58 extern unsigned char bufer[2];
//   59 
//   60 void lock_it(void);
//   61 extern void write_log_info(unsigned char sost,unsigned char mesto);
//   62 
//   63 
//   64 extern void set_rlt(unsigned char address,unsigned char * data);
//   65 
//   66 void  transform_buf(unsigned char *p,unsigned int kol_byte,unsigned int s_rand);
//   67 
//   68 
//   69 void boot_HUGE(void);
//   70 void r_p_flash(unsigned int adress);
//   71 void reload_apl_HUGE (void);
//   72 
//   73 void send_info(char size,char __flash *p,unsigned char fl_id,unsigned char id);
//   74 
//   75 
//   76 //__flash char gluk[]= {'g','l','u','k'};
//   77 //__flash char gluk1[]= {'g','l','u','k','1'};
//   78 
//   79 

        RSEG NEAR_F:CODE:NOROOT(0)
//   80 __flash char evc_rld[]=            {'E','V','C',':','r','l','d'};
//   81 
//   82 __flash char rec_ctrl_ch[]=             {'R','E','C',':','c','t','r','l',' ','c','h'};
//   83 __flash char rec_evc[]=             {'R','E','C',':','e','v','c'};
//   84 
//   85 __flash char ans_in_ctrl_cl[]={'A','N','S','-','<','c','t','r','l',' ','c','l'};
//   86 
//   87 
//   88 /*
//   89 __flash char req_in_485_1[]={'R','E','Q','-','<','4','8','5','_','1'};
//   90 __flash char req_in_485_2[]={'R','E','Q','-','<','4','8','5','_','2'};
//   91 __flash char req_in_232[]={'R','E','Q','-','<','2','3','2'};
//   92 __flash char req_in_st_contr[]={'R','E','Q','-','<','s','t',' ','c','o','n','t','r'};
//   93 __flash char req_in_config[]={'R','E','Q','-','<','c','o','n','f','i','g'};
//   94 __flash char req_in_prog[]={'R','E','Q','-','<','p','r','o','g'};
//   95 */
//   96 
//   97 __flash char ans_out_485_1[]={'A','N','S','-','>','4','8','5','_','1'};
//   98 __flash char ans_out_485_2[]={'A','N','S','-','>','4','8','5','_','2'};
//   99 __flash char ans_out_232[]={'A','N','S','-','>','2','3','2'};
//  100 __flash char ans_out_st_contr[]={'A','N','S','-','>','s','t',' ','c','o','n','t','r'};
//  101 __flash char ans_out_config[]={'A','N','S','-','>','c','o','n','f','i','g'};
//  102 __flash char ans_out_prog[]={'A','N','S','-','>','p','r','o','g'};
//  103 __flash char ans_out_mbus[]={'A','N','S','-','>','m','b','u','s'};
//  104 
//  105 //__flash char ans_out_ping[]={'A','N','S','-','>','p','i','n','g'};
//  106 
//  107 //__flash char prov1[]={'P','R','O','V','1'};
//  108 //__flash char prov2[]={'P','R','O','V','2'};
//  109 
//  110 
//  111 #define NO_MODEL  0x2
//  112 #define NO_MAP    0x7
//  113 #define DATA_MONTH 0x06
//  114 #define DATA_DATA  0x1a
//  115 #define GOD       0x11
//  116 
//  117 __flash  unsigned char new_version[]={0x06,0xcd,0x00,0x07,0x00,NO_MODEL,0x00,NO_MAP,DATA_MONTH,DATA_DATA,0x00,GOD};
new_version:
        DB 6, 205, 0, 7, 0, 2, 0, 7, 6, 26, 0, 17
evc_rld:
        DB 69, 86, 67, 58, 114, 108, 100
rec_ctrl_ch:
        DB 82, 69, 67, 58, 99, 116, 114, 108, 32, 99, 104
rec_evc:
        DB 82, 69, 67, 58, 101, 118, 99
ans_in_ctrl_cl:
        DB 65, 78, 83, 45, 60, 99, 116, 114, 108, 32, 99, 108
ans_out_485_1:
        DB 65, 78, 83, 45, 62, 52, 56, 53, 95, 49
ans_out_485_2:
        DB 65, 78, 83, 45, 62, 52, 56, 53, 95, 50
ans_out_232:
        DB 65, 78, 83, 45, 62, 50, 51, 50
ans_out_st_contr:
        DB 65, 78, 83, 45, 62, 115, 116, 32, 99, 111, 110, 116, 114
ans_out_config:
        DB 65, 78, 83, 45, 62, 99, 111, 110, 102, 105, 103
ans_out_prog:
        DB 65, 78, 83, 45, 62, 112, 114, 111, 103
ans_out_mbus:
        DB 65, 78, 83, 45, 62, 109, 98, 117, 115
//  118 
//  119 extern unsigned int ust_vhod;
//  120 
//  121 extern unsigned int c_config_tc[SEG8];
//  122 
//  123 extern unsigned char sel_modul;
//  124 
//  125 extern char bit_level,bit_level_psm,sost_psm;
//  126 extern unsigned long int unix;
//  127 
//  128 
//  129 //#include "sec.h"
//  130 
//  131 //enum t_version {VER1 = 1 ,VER2,VER3,VER4};
//  132 //enum t_type {ZAPR,OTV,SOOB,KVIT};
//  133 extern unsigned char simka; //dobavka
//  134 
//  135 extern unsigned int num_self,num_seq_cl,port_udp;
//  136 extern unsigned char ip_ls[4]; 
//  137 
//  138 
//  139 
//  140 extern unsigned long int cnt_no_link, vol_cnt_no_link;//dobavka
//  141 
//  142 void delay(unsigned int period);
//  143 extern unsigned long int burst_ds_r(void);
//  144 unsigned int proc_config(unsigned char *buf_rx_ppp,unsigned char offset,unsigned int count_rx_ppp);
//  145 unsigned char check_ln_conf(unsigned char *buf_rx_ppp,unsigned char offset,unsigned int count_rx_ppp);
//  146 unsigned char check_cont_485_1 (unsigned char *pointer);
//  147 unsigned char check_cont_485_2 (unsigned char *pointer);
//  148 
//  149 extern unsigned char Regim;
//  150 unsigned char proc_udp_data(unsigned char *buf_rx_ppp,unsigned int count_rx_ppp);
//  151 unsigned int crc_m1(unsigned char *ka,unsigned int num,unsigned int crc);
//  152 unsigned int crc_ozu(void);
//  153 extern unsigned int prov_ozu;
//  154 
//  155 unsigned int proc_modbus(unsigned char *pnt_buf,unsigned char length);
//  156 unsigned char proc_kamintel(unsigned char *pnt_buf,unsigned char length);
//  157 
//  158 
//  159 void clr_cntr_nat(void);
//  160 void form_buf_tx_ppp(void);
//  161 
//  162 unsigned char check_cts(void);
//  163 void clr_cntr_link(void);
//  164 
//  165 void RdFromFleshToArr(unsigned int adres_flesh, unsigned char *adres_ozu,unsigned int num);
//  166 void WrArrayToFlesh(unsigned int adres_flesh,  unsigned char *adres_ozu, unsigned int num,unsigned char flag,unsigned char znach);
//  167 
//  168 void send_err485(unsigned char port,unsigned char err,unsigned char id,unsigned int dst);
//  169 
//  170 

        RSEG NEAR_Z:DATA:NOROOT(0)
        REQUIRE `?<Segment init: NEAR_Z>`
//  171 unsigned char compress_off;
//  172 
//  173 extern unsigned long int cnt_outcom,cnt_incom;
//  174 
//  175 extern unsigned char point_log_buf;
//  176 
//  177   struct
//  178   {
//  179   unsigned char  ip         :1;
//  180   unsigned char  udp        :1;
//  181   unsigned char  num_self   :1;
//  182   unsigned char cnt_reset;
//  183   }fl_rewrite;
//  184 
//  185 ///!!!!!!!!!!!!!!!!!!!!!!!!!!!!!!!!!!!для РРР
//  186 extern  struct
//  187  {
//  188   unsigned char data[VOL_RX_PPP];//сам буфер
//  189   unsigned int ln_data;  // длина данных
//  190   enum bool rec; // пакет принят
//  191   enum bool busy;// буфер занят
//  192   enum bool check_busy;// проверка занят ли буфер
//  193  }Buf1_rx_ppp,Buf2_rx_ppp; // 
//  194 
//  195 
//  196 extern struct
//  197 {
//  198  
//  199   unsigned char tek_pin :1;
//  200   unsigned char old_pin :1;
//  201   unsigned char fl_ch_tc :1;
//  202   unsigned char real_tc;
//  203   unsigned int count_tc; 
//  204   unsigned char type;
//  205   unsigned char cnt_block_tc;
//  206 }struct_tcc1,struct_tcc2;
//  207 
//  208 extern struct
//  209 {
//  210   unsigned char tc:1;
//  211   unsigned char tc_old :1;
//  212 }sv1,sv2;
//  213 
//  214 
//  215 
//  216 
//  217 extern enum t_event_modem event_modem;
//  218 
//  219 extern unsigned char buf_tx_232[VOL_TX_PPP];
//  220 extern unsigned int count_tx_ppp,vol_tx_ppp;
//  221 extern unsigned char layer_PPP;
//  222 
//  223 struct
//  224  {
//  225   unsigned char act_lcp_end :1;  
//  226   unsigned char lcp_tm_out_en :1;
//  227   unsigned char t0_pl:1;
//  228   unsigned char t0_mi:1;
//  229  }fl_lcp; 
//  230  
//  231 
//  232 struct
//  233  {
//  234   unsigned char act_ipcp_end :1;  
//  235   unsigned char ipcp_tm_out_en :1;
//  236   unsigned char t0_pl:1;
//  237   unsigned char t0_mi:1;
//  238  }fl_ipcp; 
//  239 
//  240 struct
//  241  {
//  242   unsigned char act_ip_end :1; 
//  243   unsigned char ip_tm_cntr_en :1; 
//  244   unsigned char ip_tm_nat_en :1;
//  245  }fl_ip;
//  246 
//  247 
//  248 
//  249   
//  250 struct
//  251  {
//  252   unsigned char act_pap_end :1;  
//  253   unsigned char pap_tm_out_en:1;
//  254   unsigned char t0_pl:1;
//  255   unsigned char t0_mi:1;  
//  256   unsigned char up: 1; 
//  257  }fl_pap; 
//  258 
//  259 
//  260  struct
//  261  {
//  262   unsigned char up :1;  
//  263   unsigned char down :1;
//  264  }fl_lcp1; 
//  265 
//  266 
//  267 struct
//  268  {
//  269   unsigned char up :1;  
//  270   unsigned char down :1;
//  271  }fl_ipcp1;
//  272  
//  273  struct
//  274  {
//  275   unsigned char nac_rej :1; // reject - 1 
//  276  }fl_lcp2;
//  277    
//  278  struct
//  279  {
//  280   unsigned char nac_rej :1; // reject - 1 
//  281  }fl_ipcp2;
//  282  
//  283  
//  284 struct
//  285  {
//  286   unsigned char time_485_1;
//  287   unsigned int client_485_1;
//  288   unsigned char start_485_1;
//  289   unsigned char time_485_2;
//  290   unsigned int client_485_2;
//  291   unsigned char start_485_2;
//  292   unsigned char time_232_2;
//  293   unsigned int client_232_2;
//  294   unsigned char start_232_2;
//  295  }Life; 
//  296  
//  297 
//  298 unsigned char pap_act_buf,PAP_state,PAP_event;
//  299 unsigned char LCP_state, LCP_event,LCP_act_buf[LCP_ACT_VOL];
//  300 unsigned char IPCP_state, IPCP_event,IPCP_act_buf[IPCP_ACT_VOL];
//  301 unsigned char uk_in_act_LCP,uk_out_act_LCP,uk_in_act_IPCP,uk_out_act_IPCP;
//  302 
//  303 unsigned char cnt_rst_lcp,vol_cnt_rst_lcp;
//  304 unsigned char cnt_rst_ipcp,vol_cnt_rst_ipcp;                       
//  305 unsigned char cnt_rst_pap,vol_cnt_rst_pap;       
//  306                       
//  307                         
//  308 unsigned int cnt_lcp_tm_out,cnt_ipcp_tm_out;
cnt_lcp_tm_out:
        DS 2
compress_off:
        DS 1
fl_lcp:
        DS 1
fl_ipcp:
        DS 1
fl_ip:
        DS 1
fl_pap:
        DS 1
fl_lcp2:
        DS 1
pap_act_buf:
        DS 1
PAP_state:
        DS 1
LCP_act_buf:
        DS 15
uk_in_act_LCP:
        DS 1
uk_out_act_LCP:
        DS 1
uk_in_act_IPCP:
        DS 1
uk_out_act_IPCP:
        DS 1
//  309 unsigned int cnt_pap_tm_out;
//  310 unsigned long int cnt_ip_tm_cntr;
//  311 unsigned char rcvd_protokol;
//  312 
//  313 unsigned char  i_scr_lcp,i_scan_lcp;
i_scr_lcp:
        DS 1
i_scan_lcp:
        DS 1
//  314 unsigned char  i_scj_lcp;//идентификаторы lcp
//  315 unsigned char  i_str_lcp,i_sta_lcp;
//  316  
//  317 unsigned char  i_scr_ipcp,i_scan_ipcp;
//  318 unsigned char  i_scj_ipcp;//идентификаторы ipcp
//  319 unsigned char  i_str_ipcp,i_sta_ipcp; 
//  320  
//  321   
//  322 unsigned char  i_scr_pap;
i_scr_pap:
        DS 1
//  323 
//  324 
//  325 unsigned char buf_rejc_opt_lcp[MAX_DL_LCP-6];
//  326 unsigned char buf_ack_opt_lcp[MAX_DL_LCP-12];
buf_ack_opt_lcp:
        DS 28
//  327 unsigned char buf_nak_opt_lcp[MAX_DL_LCP-12];
//  328 unsigned char buf_rej_opt_lcp[MAX_DL_LCP-12];
//  329 
//  330 unsigned char buf_rejc_opt_ipcp[MAX_DL_IPCP-4];
//  331 unsigned char buf_ack_opt_ipcp[MAX_DL_IPCP-10];
//  332 unsigned char buf_nak_opt_ipcp[MAX_DL_IPCP-10];
//  333 unsigned char buf_rej_opt_ipcp[MAX_DL_IPCP-10];
//  334  
//  335 
//  336 unsigned char ln_rejc_lcp,ln_rej_lcp,ln_ack_lcp,ln_nak_lcp;
ln_rej_lcp:
        DS 1
ln_ack_lcp:
        DS 1
ln_nak_lcp:
        DS 1
//  337 
//  338 unsigned char ln_rejc_ipcp,ln_rej_ipcp,ln_ack_ipcp,ln_nak_ipcp;
//  339 
//  340 
//  341 
//  342 
//  343 extern struct                   //структура, описывающая объект передачи по PPP 
//  344   {  
//  345   enum bool link_no ; //связи нет
//  346   enum bool link_waits; //ожидание квитка на контроль связи
//  347   enum bool link;      //контроль связи    
//  348   enum bool nat;      //контроль nat 
//  349   unsigned int cnt_link; // счетчик
//  350   unsigned int cnt_nat; // счетчик
//  351   unsigned int vol_link; // значение  
//  352   unsigned int vol_nat; // //значение 
//  353   unsigned int vol_waits; // значение времени квитка ожидания контроля связи
//  354   unsigned char cnt_try; // счетчик попыток получить квиток
//  355   unsigned char vol_try; // rjkbxtcndj попыток получить квиток
//  356   unsigned int vol_nat_r; // счетчик
//  357   }Control;
//  358  char ip_change;
//  359  extern unsigned char ip_self[4];
//  360  unsigned char ip_pri_dns[4],ip_sec_dns[4]; 
//  361   //EEEEEEEEEEEEEEEEEEEEEEEEEEEEEEEEEEEEEEEEE 
//  362 
//  363  
//  364  
//  365  
//  366    //!!!!!!!!!!!!!!!!!!!!!!!!!!!!!структуры приложения
//  367 extern struct
//  368 {
//  369 unsigned char id;
//  370 unsigned int p_in;// указатель свободной ячейки
//  371 unsigned int p_out;
//  372 unsigned int p_out_kv;
//  373 unsigned int crc;
//  374 unsigned int cnt_waits; // счетчик ожидания квитка
//  375 unsigned char cnt_try; // счетчик попыток получить квиток 
//  376 unsigned int l_data; // длина посылаемых данных
//  377 unsigned char state;
//  378 unsigned char event;
//  379 unsigned int tm_vzat;
//  380 unsigned int vol_tm_vzat;
//  381 enum bool cntr_cl;
//  382 enum bool en_cntr_cl;
//  383 unsigned int cnt_cntr_cl;
//  384 unsigned int vol_cntr_cl;
//  385 }Appl_seq;
//  386 
//  387 extern unsigned char Appl_seq_des;
//  388 extern unsigned char state_seq;
//  389 
//  390 
//  391 
//  392 extern struct
//  393 {
//  394 unsigned char en_tx :1;
//  395 unsigned char kv_waits :1;
//  396 unsigned char en_povtor:1;
//  397 }fl_appl_seq;
//  398 
//  399 extern struct
//  400 {
//  401 unsigned char over_buf :1;
//  402 unsigned char send_state :1;
//  403 unsigned char enable:1; 
//  404 }fl_appl_seq1; 
//  405 
//  406 
//  407 
//  408 
//  409 extern unsigned int func_crc_tii(void);
//  410 extern __no_init unsigned int crc_tii;
//  411 extern __no_init unsigned int cnt_tii[8];
//  412 
//  413 extern unsigned char cnt_tu1, cnt_tu2;
//  414 
//  415 extern unsigned int modbus_mem1[SEG1];
//  416 
//  417 
//  418 extern struct
//  419         { // в двоичном коде
//  420           char r_sec;
//  421           char r_min;
//  422           char r_hor;
//  423           char r_day;
//  424           char r_date;
//  425           char r_month;
//  426           char r_year;
//  427           char r_control;
//  428         }  real_time; 
//  429 
//  430 
//  431 //extern unsigned char byte_state_net;
//  432 
//  433   //EEEEEEEEEEEEEEEEEEEEEEEEEEEEEEEEEEEEEEEEE
//  434  
//  435  unsigned int  delay_pre_tx;
//  436  
//  437  
//  438 //!!!!!!!!!!!!!!!11удаленная загрузка 

        ASEGN ABSOLUTE:DATA:NOROOT,0e60H
//  439 __no_init unsigned int pagee @ 0xe60;
pagee:
        DS 2

        ASEGN ABSOLUTE:DATA:NOROOT,0e62H
//  440 __no_init unsigned char *array_in_232 @ 0xe62; 
array_in_232:
        DS 2

        ASEGN ABSOLUTE:DATA:NOROOT,0e6aH
//  441 __no_init unsigned char off_buf @ 0xe6a;
off_buf:
        DS 1

        ASEGN ABSOLUTE:DATA:NOROOT,0e6bH
//  442 __no_init unsigned int total_kol_page @ 0xe6b;   // счетчик страниц словный
total_kol_page:
        DS 2

        ASEGN ABSOLUTE:DATA:NOROOT,0e6dH
//  443 __no_init unsigned char contr_gluk1 @ 0xe6d; 
contr_gluk1:
        DS 1

        ASEGN ABSOLUTE:DATA:NOROOT,0e6eH
//  444 __no_init unsigned char contr_gluk2 @ 0xe6e;
contr_gluk2:
        DS 1
//  445 
//  446 #pragma dataseg=MY_STACK1

        RSEG MY_STACK1:DATA:NOROOT(0)
//  447 __no_init unsigned char saver_global_var[2];
saver_global_var:
        DS 2

        RSEG NEAR_Z:DATA:NOROOT(0)
        REQUIRE `?<Segment init: NEAR_Z>`
//  448 #pragma dataseg=default
//  449 
//  450 /*
//  451 // компилятор не поддерживает ICALL вызовы
//  452 // придется писать программу на ассмблере
//  453 // надо выцарапать данные с дальней области
//  454   __farfunc char proba_1(char a, char b) @ "BOOTLOADER"
//  455 {
//  456   return(a+b);
//  457 }
//  458 */
//  459 
//  460 
//  461 
//  462 
//  463 void move_to_saver(void);
//  464 void pop_from_saver(void);
//  465 
//  466 unsigned char reboot_byte;
//  467  
//  468  struct
//  469  {
//  470  unsigned char  end_pg      :1;// флаг последней страницы
//  471  unsigned char  ch_crc      :1;// флаг проверки crc
//  472  unsigned char  send_kv     :1;//флаг отсылки квитка
//  473  unsigned char  cor_pg      :1;// флаг корректной страницы дальше
//  474  unsigned char  first_pg    :1;//флаг первой страницы
//  475  unsigned char  hold_pg     :1;// флаг захвата данных
//  476  unsigned char  send_crc     :1;// флаг посылки опции СРС
//  477  //unsigned char  yes_crc     :1;// верный crc
//  478  }fl_pg_out;
//  479  
//  480  unsigned int pg_crc; //значение crc куска данных
//  481  unsigned int cnt_pg;// реальный счетчик страниц
//  482  unsigned int cnt_pg_i;//  счетчик страниц
//  483  unsigned char id_pg_kp;//циклический идентификатор страниц контроллера
//  484  unsigned char id_pg_appl;//циклический идентификатор страниц верхнего приложения
//  485  
//  486  //EEEEEEEEEEEEEEEEEEEEEEEEEEEEEEEEEEE
//  487  
//  488  
//  489 extern unsigned char Appl_RS485_1_data_buf[LN_BUF_485_1];// сам буфер
//  490 extern unsigned char Appl_RS485_2_data_buf[LN_BUF_485_2];// сам буфер
//  491 extern unsigned char Appl_RS232_2_data_buf[LN_BUF_232_2];// сам буфер
//  492  
//  493 extern struct                   //структура описывающая работу приложения "RS485_1" 
//  494   {  
//  495   enum bool fl_data_buf; //имеется ли забуферизированный пакет для передачи в порт RS485_1
//  496   unsigned int ln_data_buf; // забуферизированная длина буфера
//  497   unsigned int dst_buf; // забуферизированный получатель
//  498   unsigned char cont_buf[8];// забуферизированный контекст
//  499   unsigned char id_buf; // забуферизированный id
//  500   unsigned int dst_tek;// текущий получатель
//  501   unsigned char id_tek; // текущий id
//  502   unsigned int pre_tx;//задержка перед передачей
//  503   }Appl_RS485_1,Appl_RS485_2,Appl_RS232_2;
//  504 
//  505 /*  
//  506 extern struct
//  507  {
//  508  unsigned char mon1 : 1;
//  509  unsigned char mon2 : 1;
//  510  } fl_tx485;
//  511 */ 
//  512 
//  513 extern struct
//  514  {
//  515  unsigned char busy : 1;
//  516  unsigned char rec : 1;
//  517  unsigned char tm_out : 1;
//  518  unsigned char tx : 1;
//  519  unsigned char over : 1;
//  520  unsigned char buffed : 1;
//  521  }fl_485_1,fl_485_2,fl_232_2;
//  522 
//  523  
//  524  
//  525 
//  526 
//  527 
//  528  struct                   //структура, описывающая объект передачи по PPP 
//  529   {  
//  530   enum bool prozr;      //версия       
//  531   enum t_version version;      //версия 
//  532   enum t_type   type_pac;     //тип пакета
//  533   unsigned int num_src; // номер отправителя
//  534   unsigned int num_dst; // номер получателя
//  535   unsigned char id_pac; // идентификатор пакета  
//  536   unsigned char * p_opt; // //указатель буфера опций  
//  537   unsigned char l_opt;// длина буфера опций   
//  538   unsigned char kol_opt;// количество опций   
//  539   unsigned char * p_data;  //указатель буфера данных
//  540   unsigned int l_data;   // длина данных
//  541   }Obj_ppp_tx;
Obj_ppp_tx:
        DS 16
Life:
        DS 12
delay_pre_tx:
        DS 2
pg_crc:
        DS 2
cnt_pg:
        DS 2
cnt_pg_i:
        DS 2
fl_rewrite:
        DS 2
reboot_byte:
        DS 1
fl_pg_out:
        DS 1
id_pg_kp:
        DS 1
id_pg_appl:
        DS 1

        RSEG NEAR_Z:DATA:NOROOT(0)
        REQUIRE `?<Segment init: NEAR_Z>`
fl_lcp1:
        DS 1
LCP_state:
        DS 1

        RSEG NEAR_Z:DATA:NOROOT(0)
        REQUIRE `?<Segment init: NEAR_Z>`
ip_pri_dns:
        DS 4
ip_sec_dns:
        DS 4
cnt_ipcp_tm_out:
        DS 2
fl_ipcp1:
        DS 1
fl_ipcp2:
        DS 1
PAP_event:
        DS 1
LCP_event:
        DS 1
IPCP_state:
        DS 1
IPCP_event:
        DS 1
IPCP_act_buf:
        DS 10
cnt_rst_ipcp:
        DS 1
vol_cnt_rst_ipcp:
        DS 1
vol_cnt_rst_pap:
        DS 1
rcvd_protokol:
        DS 1
i_scr_ipcp:
        DS 1
i_scan_ipcp:
        DS 1
buf_ack_opt_ipcp:
        DS 25
ln_rejc_lcp:
        DS 1
ln_rejc_ipcp:
        DS 1
ln_rej_ipcp:
        DS 1
ln_ack_ipcp:
        DS 1
ln_nak_ipcp:
        DS 1
ip_change:
        DS 1

        RSEG NEAR_Z:DATA:NOROOT(0)
        REQUIRE `?<Segment init: NEAR_Z>`
cnt_rst_lcp:
        DS 1

        RSEG NEAR_Z:DATA:NOROOT(0)
        REQUIRE `?<Segment init: NEAR_Z>`
vol_cnt_rst_lcp:
        DS 1

        RSEG NEAR_Z:DATA:NOROOT(0)
        REQUIRE `?<Segment init: NEAR_Z>`
cnt_rst_pap:
        DS 1

        RSEG NEAR_Z:DATA:NOROOT(0)
        REQUIRE `?<Segment init: NEAR_Z>`
cnt_pap_tm_out:
        DS 2

        RSEG NEAR_Z:DATA:NOROOT(0)
        REQUIRE `?<Segment init: NEAR_Z>`
cnt_ip_tm_cntr:
        DS 4

        RSEG NEAR_Z:DATA:NOROOT(0)
        REQUIRE `?<Segment init: NEAR_Z>`
i_scj_lcp:
        DS 1

        RSEG NEAR_Z:DATA:NOROOT(0)
        REQUIRE `?<Segment init: NEAR_Z>`
i_str_lcp:
        DS 1

        RSEG NEAR_Z:DATA:NOROOT(0)
        REQUIRE `?<Segment init: NEAR_Z>`
i_sta_lcp:
        DS 1

        RSEG NEAR_Z:DATA:NOROOT(0)
        REQUIRE `?<Segment init: NEAR_Z>`
i_scj_ipcp:
        DS 1

        RSEG NEAR_Z:DATA:NOROOT(0)
        REQUIRE `?<Segment init: NEAR_Z>`
i_str_ipcp:
        DS 1

        RSEG NEAR_Z:DATA:NOROOT(0)
        REQUIRE `?<Segment init: NEAR_Z>`
i_sta_ipcp:
        DS 1

        RSEG NEAR_Z:DATA:NOROOT(0)
        REQUIRE `?<Segment init: NEAR_Z>`
buf_rejc_opt_lcp:
        DS 34

        RSEG NEAR_Z:DATA:NOROOT(0)
        REQUIRE `?<Segment init: NEAR_Z>`
buf_nak_opt_lcp:
        DS 28
buf_rej_opt_lcp:
        DS 28

        RSEG NEAR_Z:DATA:NOROOT(0)
        REQUIRE `?<Segment init: NEAR_Z>`
buf_rejc_opt_ipcp:
        DS 31

        RSEG NEAR_Z:DATA:NOROOT(0)
        REQUIRE `?<Segment init: NEAR_Z>`
buf_nak_opt_ipcp:
        DS 25
buf_rej_opt_ipcp:
        DS 25
//  542 
//  543  extern unsigned char buf_opt_tr[20]; 
//  544  
//  545  

        RSEG NEAR_F:CODE:NOROOT(0)
//  546  __flash unsigned int fcstab[256] = {
fcstab:
        DW 0, 4489, 8978, 12955, 17956, 22445, 25910, 29887, 35912, 40385
        DW 44890, 48851, 51820, 56293, 59774, 63735, 4225, 264, 13203, 8730
        DW 22181, 18220, 30135, 25662, 40137, 36160, 49115, 44626, 56045, 52068
        DW 63999, 59510, 8450, 12427, 528, 5017, 26406, 30383, 17460, 21949
        DW 44362, 48323, 36440, 40913, 60270, 64231, 51324, 55797, 12675, 8202
        DW 4753, 792, 30631, 26158, 21685, 17724, 48587, 44098, 40665, 36688
        DW 64495, 60006, 55549, 51572, 16900, 21389, 24854, 28831, 1056, 5545
        DW 10034, 14011, 52812, 57285, 60766, 64727, 34920, 39393, 43898, 47859
        DW 21125, 17164, 29079, 24606, 5281, 1320, 14259, 9786, 57037, 53060
        DW 64991, 60502, 39145, 35168, 48123, 43634, 25350, 29327, 16404, 20893
        DW 9506, 13483, 1584, 6073, 61262, 65223, 52316, 56789, 43370, 47331
        DW 35448, 39921, 29575, 25102, 20629, 16668, 13731, 9258, 5809, 1848
        DW 65487, 60998, 56541, 52564, 47595, 43106, 39673, 35696, 33800, 38273
        DW 42778, 46739, 49708, 54181, 57662, 61623, 2112, 6601, 11090, 15067
        DW 20068, 24557, 28022, 31999, 38025, 34048, 47003, 42514, 53933, 49956
        DW 61887, 57398, 6337, 2376, 15315, 10842, 24293, 20332, 32247, 27774
        DW 42250, 46211, 34328, 38801, 58158, 62119, 49212, 53685, 10562, 14539
        DW 2640, 7129, 28518, 32495, 19572, 24061, 46475, 41986, 38553, 34576
        DW 62383, 57894, 53437, 49460, 14787, 10314, 6865, 2904, 32743, 28270
        DW 23797, 19836, 50700, 55173, 58654, 62615, 32808, 37281, 41786, 45747
        DW 19012, 23501, 26966, 30943, 3168, 7657, 12146, 16123, 54925, 50948
        DW 62879, 58390, 37033, 33056, 46011, 41522, 23237, 19276, 31191, 26718
        DW 7393, 3432, 16371, 11898, 59150, 63111, 50204, 54677, 41258, 45219
        DW 33336, 37809, 27462, 31439, 18516, 23005, 11618, 15595, 3696, 8185
        DW 63375, 58886, 54429, 50452, 45483, 40994, 37561, 33584, 31687, 27214
        DW 22741, 18780, 15843, 11370, 7921, 3960
//  547       0x0000, 0x1189, 0x2312, 0x329b, 0x4624, 0x57ad, 0x6536, 0x74bf,
//  548       0x8c48, 0x9dc1, 0xaf5a, 0xbed3, 0xca6c, 0xdbe5, 0xe97e, 0xf8f7,
//  549       0x1081, 0x0108, 0x3393, 0x221a, 0x56a5, 0x472c, 0x75b7, 0x643e,
//  550       0x9cc9, 0x8d40, 0xbfdb, 0xae52, 0xdaed, 0xcb64, 0xf9ff, 0xe876,
//  551       0x2102, 0x308b, 0x0210, 0x1399, 0x6726, 0x76af, 0x4434, 0x55bd,
//  552       0xad4a, 0xbcc3, 0x8e58, 0x9fd1, 0xeb6e, 0xfae7, 0xc87c, 0xd9f5,
//  553       0x3183, 0x200a, 0x1291, 0x0318, 0x77a7, 0x662e, 0x54b5, 0x453c,
//  554       0xbdcb, 0xac42, 0x9ed9, 0x8f50, 0xfbef, 0xea66, 0xd8fd, 0xc974,
//  555       0x4204, 0x538d, 0x6116, 0x709f, 0x0420, 0x15a9, 0x2732, 0x36bb,
//  556       0xce4c, 0xdfc5, 0xed5e, 0xfcd7, 0x8868, 0x99e1, 0xab7a, 0xbaf3,
//  557       0x5285, 0x430c, 0x7197, 0x601e, 0x14a1, 0x0528, 0x37b3, 0x263a,
//  558       0xdecd, 0xcf44, 0xfddf, 0xec56, 0x98e9, 0x8960, 0xbbfb, 0xaa72,
//  559       0x6306, 0x728f, 0x4014, 0x519d, 0x2522, 0x34ab, 0x0630, 0x17b9,
//  560       0xef4e, 0xfec7, 0xcc5c, 0xddd5, 0xa96a, 0xb8e3, 0x8a78, 0x9bf1,
//  561       0x7387, 0x620e, 0x5095, 0x411c, 0x35a3, 0x242a, 0x16b1, 0x0738,
//  562       0xffcf, 0xee46, 0xdcdd, 0xcd54, 0xb9eb, 0xa862, 0x9af9, 0x8b70,
//  563       0x8408, 0x9581, 0xa71a, 0xb693, 0xc22c, 0xd3a5, 0xe13e, 0xf0b7,
//  564       0x0840, 0x19c9, 0x2b52, 0x3adb, 0x4e64, 0x5fed, 0x6d76, 0x7cff,
//  565       0x9489, 0x8500, 0xb79b, 0xa612, 0xd2ad, 0xc324, 0xf1bf, 0xe036,
//  566       0x18c1, 0x0948, 0x3bd3, 0x2a5a, 0x5ee5, 0x4f6c, 0x7df7, 0x6c7e,
//  567       0xa50a, 0xb483, 0x8618, 0x9791, 0xe32e, 0xf2a7, 0xc03c, 0xd1b5,
//  568       0x2942, 0x38cb, 0x0a50, 0x1bd9, 0x6f66, 0x7eef, 0x4c74, 0x5dfd,
//  569       0xb58b, 0xa402, 0x9699, 0x8710, 0xf3af, 0xe226, 0xd0bd, 0xc134,
//  570       0x39c3, 0x284a, 0x1ad1, 0x0b58, 0x7fe7, 0x6e6e, 0x5cf5, 0x4d7c,
//  571       0xc60c, 0xd785, 0xe51e, 0xf497, 0x8028, 0x91a1, 0xa33a, 0xb2b3,
//  572       0x4a44, 0x5bcd, 0x6956, 0x78df, 0x0c60, 0x1de9, 0x2f72, 0x3efb,
//  573       0xd68d, 0xc704, 0xf59f, 0xe416, 0x90a9, 0x8120, 0xb3bb, 0xa232,
//  574       0x5ac5, 0x4b4c, 0x79d7, 0x685e, 0x1ce1, 0x0d68, 0x3ff3, 0x2e7a,
//  575       0xe70e, 0xf687, 0xc41c, 0xd595, 0xa12a, 0xb0a3, 0x8238, 0x93b1,
//  576       0x6b46, 0x7acf, 0x4854, 0x59dd, 0x2d62, 0x3ceb, 0x0e70, 0x1ff9,
//  577       0xf78f, 0xe606, 0xd49d, 0xc514, 0xb1ab, 0xa022, 0x92b9, 0x8330,
//  578       0x7bc7, 0x6a4e, 0x58d5, 0x495c, 0x3de3, 0x2c6a, 0x1ef1, 0x0f78
//  579    };
//  580 
//  581  
//  582  
//  583  
//  584  void com_disp_mbus (void);
//  585 
//  586  
//  587 unsigned long int hash_tabletka2(void )
//  588                {
//  589                int point_pos;
//  590                
//  591                unsigned long int hash_kod;
//  592                union {
//  593                      unsigned long int kod;
//  594                      unsigned char b_kod[4];
//  595                       } hash; 
//  596                
//  597                   
//  598                 //  proba_1(0,0);
//  599                   hash_kod=0;
//  600                    
//  601                   for(point_pos=0;point_pos<(4*253);point_pos=point_pos+4)
//  602                       {
//  603 
//  604                            RdFromFleshToArr(A_SEG6+point_pos,&hash.b_kod[0],4);  
//  605                            hash_kod= hash_kod ^ hash.kod;
//  606 
//  607                       }
//  608                  return(hash_kod);
//  609                  } 
//  610  
//  611  
//  612  
//  613 
//  614  
//  615  void prov_uk_in(void)
//  616    {        
//  617           unsigned char temp;
//  618           
//  619           uk_in_act_LCP++;
//  620           if(uk_in_act_LCP>=LCP_ACT_VOL)uk_in_act_LCP=0;         
//  621           if(uk_out_act_LCP==0)temp=LCP_ACT_VOL-1;else temp=uk_out_act_LCP-1;
//  622        //   if(uk_in_act_LCP==temp){write_log_info(ST_ERROR,ERR3);lock_it();}//переполнение буфера
//  623          if(uk_in_act_LCP==temp)event_modem=EVM_PPP_ERR;//переполнение буфера
//  624     }  
//  625    
//  626    
//  627    void prov_uk_in_ipcp(void)
//  628    {        
//  629           unsigned char temp;
//  630           
//  631           uk_in_act_IPCP++;
//  632           if(uk_in_act_IPCP>=IPCP_ACT_VOL)uk_in_act_IPCP=0;         
//  633           if(uk_out_act_IPCP==0)temp=IPCP_ACT_VOL-1;else temp=uk_out_act_IPCP-1;
//  634         //  if(uk_in_act_IPCP==temp){write_log_info(ST_ERROR,ERR4);lock_it();}//переполнение буфера
//  635           if(uk_in_act_IPCP==temp)event_modem=EVM_PPP_ERR;//переполнение буфера
//  636          
//  637     }   
//  638  
//  639  
//  640  
//  641  
//  642 unsigned int pppfcs16(unsigned int fcs,unsigned char *cp,unsigned int len)
//  643 
//  644    {
//  645 
//  646        while (len--)
//  647            fcs=(fcs >> 8) ^ fcstab[(fcs ^ *cp++) & 0xff];
//  648        return (fcs);
//  649    }
//  650 
//  651 
//  652  void send_terminate_lcp(void)
//  653  
//  654  {
//  655      union
//  656      {
//  657       unsigned char bytes[2]; 
//  658       unsigned int word;
//  659      }temp;              
//  660                  
//  661                  fl_lcp.act_lcp_end=0;
//  662                  buf_tx_232[0]=0x7e; 
//  663                  buf_tx_232[1]=0xff;
//  664                  buf_tx_232[2]=0x03;
//  665                  buf_tx_232[3]=0xc0;
//  666                  buf_tx_232[4]=0x21;
//  667                  
//  668                  buf_tx_232[5]=TERM_REQ; 
//  669                  buf_tx_232[6]=0;   
//  670                  
//  671                  buf_tx_232[7]=0; 
//  672                  buf_tx_232[8]=0x04;
//  673                  
//  674                  
//  675                  
//  676                  temp.word=pppfcs16(PPPINITFCS16,&buf_tx_232[1],buf_tx_232[8]+4) ^ 0xffff;                
//  677                  buf_tx_232[9]=temp.bytes[0];
//  678                  buf_tx_232[10]=temp.bytes[1];
//  679                  
//  680                  buf_tx_232[11]=0x7e; 
//  681                  
//  682                 
//  683                  count_tx_ppp=0;
//  684                  vol_tx_ppp=buf_tx_232[8]+8;               
//  685                 
//  686                  UCSR0A=UCSR0A | TXC; 
//  687                  UCSR0B=UCSR0B | TXEN;
//  688                  UCSR0B=UCSR0B | TXCIE;  
//  689                  S2_RD;
//  690                  UDR0=buf_tx_232[0];
//  691                  if(Regim==RG_DEBAG) UDR3=buf_tx_232[0];
//  692                  
//  693 }
//  694  
//  695  
//  696  
//  697 void run_lcp_act(void)
//  698       {  
//  699        unsigned char i;
//  700        
//  701        union
//  702      {
//  703       unsigned char bytes[2]; 
//  704       unsigned int word;
//  705      }temp;
//  706       
//  707        
//  708        switch (LCP_act_buf[uk_out_act_LCP])
//  709           {
//  710            case TLU:    
//  711                    
//  712                 fl_pap.up=1;
//  713                 fl_lcp.act_lcp_end=0;
//  714                 PAP_state=START_ST;
//  715                 layer_PPP=LAYER_PAP;      
//  716                 fl_lcp.act_lcp_end=1;
//  717               break;
//  718            case TLD:  
//  719                 fl_lcp.act_lcp_end=0;
//  720                 layer_PPP=LAYER_LCP;  
//  721                 fl_lcp.act_lcp_end=1; 
//  722                 break;
//  723            
//  724            case IRC:                   
//  725                 fl_lcp.act_lcp_end=0;
//  726                 cnt_lcp_tm_out=VOL_LCP_TM_OUT; 
//  727               //  cnt_rst_lcp=vol_cnt_rst_lcp;
//  728                 fl_lcp.lcp_tm_out_en=1; 
//  729                 fl_lcp.act_lcp_end=1; 
//  730                      
//  731                 break;
//  732            
//  733            case SCR:    
//  734 
//  735                                             
//  736                  fl_lcp.act_lcp_end=0;
//  737                  buf_tx_232[0]=0x7e; 
//  738                  buf_tx_232[1]=0xff;
//  739                  buf_tx_232[2]=0x03;
//  740                  buf_tx_232[3]=0xc0;
//  741                  buf_tx_232[4]=0x21;
//  742                  
//  743                  buf_tx_232[5]=CONF_REQ; 
//  744                  buf_tx_232[6]=i_scr_lcp;   
//  745 
//  746       //           compress_off=1;               
//  747                  
//  748                  
//  749 if(compress_off==0) 
//  750                   {
//  751                    buf_tx_232[7]=0; 
//  752                    buf_tx_232[8]=0x0e;
//  753                   }
//  754                 else
//  755                 {
//  756                    buf_tx_232[7]=0; 
//  757                    buf_tx_232[8]=0x0a; 
//  758                 }
//  759                  
//  760                  buf_tx_232[9]=2; 
//  761                  buf_tx_232[10]=6;
//  762                 
//  763                  buf_tx_232[11]=0; 
//  764                  buf_tx_232[12]=0x0a; 
//  765                 // buf_tx_232[12]=0; 
//  766                  buf_tx_232[13]=0;
//  767                  buf_tx_232[14]=0;
//  768                 
//  769               
//  770   if(compress_off==0) 
//  771       {
//  772                  
//  773                  buf_tx_232[15]=7;
//  774                  buf_tx_232[16]=2;
//  775                  buf_tx_232[17]=8;
//  776                  buf_tx_232[18]=2;       
//  777                  temp.word=pppfcs16(PPPINITFCS16,&buf_tx_232[1],buf_tx_232[8]+4) ^ 0xffff;                
//  778                  buf_tx_232[19]=temp.bytes[0];
//  779                  buf_tx_232[20]=temp.bytes[1];  
//  780                  buf_tx_232[21]=0x7e; 
//  781           
//  782       }
//  783                  
//  784           else
//  785           {
//  786                  
//  787                  temp.word=pppfcs16(PPPINITFCS16,&buf_tx_232[1],buf_tx_232[8]+4) ^ 0xffff;                
//  788                  buf_tx_232[15]=temp.bytes[0];
//  789                  buf_tx_232[16]=temp.bytes[1];
//  790                  buf_tx_232[17]=0x7e;               
//  791           }       
//  792                  
//  793                  
//  794                  
//  795                  count_tx_ppp=0;
//  796                  vol_tx_ppp=buf_tx_232[8]+8;     
//  797                  
//  798         
//  799               
//  800                  
//  801                 
//  802                  UCSR0A=UCSR0A | TXC; 
//  803                  UCSR0B=UCSR0B | TXEN;
//  804                  UCSR0B=UCSR0B | TXCIE;
//  805                  if(check_cts()==1) return;  
//  806                  S2_RD;
//  807                  UDR0=buf_tx_232[0];
//  808                  if(Regim==RG_DEBAG) UDR3=buf_tx_232[0];
//  809                  
//  810                 
//  811                     
//  812                 break;
//  813            
//  814           case SCA: 
//  815                  fl_lcp.act_lcp_end=0;
//  816                  buf_tx_232[0]=0x7e; 
//  817                  buf_tx_232[1]=0xff;
//  818                  buf_tx_232[2]=0x03;
//  819                  buf_tx_232[3]=0xc0;
//  820                  buf_tx_232[4]=0x21;  
//  821                  
//  822                  buf_tx_232[5]=CONF_ACK;
//  823                  buf_tx_232[6]=i_scan_lcp;
//  824                  
//  825                  temp.word=ln_ack_lcp+4;
//  826                  buf_tx_232[7]=temp.bytes[1]; 
//  827                  buf_tx_232[8]=temp.bytes[0];
//  828                 
//  829                  temp.word=temp.word+4;         
//  830                  vol_tx_ppp=temp.word+4;  
//  831                    
//  832                  for(i=0;i<ln_ack_lcp;i++)buf_tx_232[9+i]=buf_ack_opt_lcp[i];
//  833                  
//  834                  temp.word=pppfcs16(PPPINITFCS16,&buf_tx_232[1],temp.word) ^ 0xffff;                  
//  835                  buf_tx_232[9+ln_ack_lcp]=temp.bytes[0];
//  836                  buf_tx_232[10+ln_ack_lcp]=temp.bytes[1];
//  837                  buf_tx_232[11+ln_ack_lcp]=0x7e;
//  838                  
//  839                  count_tx_ppp=0;                             
//  840                  UCSR0A=UCSR0A | TXC;                            
//  841                  UCSR0B=UCSR0B | TXEN;
//  842                  UCSR0B=UCSR0B | TXCIE;
//  843                  if(check_cts()==1) return;   
//  844                  S2_RD;
//  845                  UDR0=buf_tx_232[0]; 
//  846                  if(Regim==RG_DEBAG) UDR3=buf_tx_232[0];
//  847                
//  848                  
//  849                 
//  850                   
//  851                 break;
//  852            case SCN:  
//  853 
//  854                  fl_lcp.act_lcp_end=0;
//  855                  buf_tx_232[0]=0x7e; 
//  856                  buf_tx_232[1]=0xff;
//  857                  buf_tx_232[2]=0x03;
//  858                  buf_tx_232[3]=0xc0;
//  859                  buf_tx_232[4]=0x21;   
//  860                  
//  861                  if (fl_lcp2.nac_rej==0) 
//  862                      {
//  863                      buf_tx_232[5]=CONF_NAK;                       
//  864                      
//  865                      buf_tx_232[6]=i_scan_lcp;
//  866                  
//  867                      temp.word=ln_nak_lcp+4;
//  868                      buf_tx_232[7]=temp.bytes[1]; 
//  869                      buf_tx_232[8]=temp.bytes[0];
//  870                     
//  871                     temp.word=temp.word+4;         
//  872                     vol_tx_ppp=temp.word+4;
//  873                      
//  874 
//  875                       
//  876                      for(i=0;i<ln_nak_lcp;i++)buf_tx_232[9+i]=buf_nak_opt_lcp[i];
//  877                      temp.word=pppfcs16(PPPINITFCS16,&buf_tx_232[1],temp.word) ^ 0xffff;                  
//  878                      buf_tx_232[9+ln_nak_lcp]=temp.bytes[0];
//  879                      buf_tx_232[10+ln_nak_lcp]=temp.bytes[1];
//  880                      buf_tx_232[11+ln_nak_lcp]=0x7e;
//  881                      
//  882                      count_tx_ppp=0;                             
//  883                      UCSR0A=UCSR0A | TXC;                            
//  884                      UCSR0B=UCSR0B | TXEN;
//  885                      UCSR0B=UCSR0B | TXCIE;
//  886                      if(check_cts()==1) return;   
//  887                      S2_RD;
//  888                      UDR0=buf_tx_232[0];
//  889                      if(Regim==RG_DEBAG) UDR3=buf_tx_232[0];
//  890                      
//  891                      }  
//  892                      else
//  893                      { 
//  894                      fl_lcp2.nac_rej=0;
//  895                      buf_tx_232[5]=CONF_REJ;  
//  896                      buf_tx_232[6]=i_scan_lcp;
//  897                  
//  898                      temp.word=ln_rej_lcp+4;
//  899                      buf_tx_232[7]=temp.bytes[1]; 
//  900                      buf_tx_232[8]=temp.bytes[0];
//  901                                  
//  902                     temp.word=temp.word+4;         
//  903                     vol_tx_ppp=temp.word+4; 
//  904                      
//  905                      for(i=0;i<ln_rej_lcp;i++)buf_tx_232[9+i]=buf_rej_opt_lcp[i];
//  906                      temp.word=pppfcs16(PPPINITFCS16,&buf_tx_232[1],temp.word) ^ 0xffff;                  
//  907                      buf_tx_232[9+ln_rej_lcp]=temp.bytes[0];
//  908                      buf_tx_232[10+ln_rej_lcp]=temp.bytes[1];                     
//  909                      buf_tx_232[11+ln_rej_lcp]=0x7e;                     
//  910                     
//  911                      count_tx_ppp=0;                             
//  912                      UCSR0A=UCSR0A | TXC;                            
//  913                      UCSR0B=UCSR0B | TXEN;
//  914                      UCSR0B=UCSR0B | TXCIE;
//  915                      if(check_cts()==1) return;   
//  916                      S2_RD;
//  917                      UDR0=buf_tx_232[0]; 
//  918                      if(Regim==RG_DEBAG) UDR3=buf_tx_232[0];
//  919                      }   
//  920                      
//  921 
//  922                      
//  923                 break; 
//  924            
//  925           }                  
//  926       }
//  927 
//  928 
//  929 

        RSEG FARCODE:CODE:NOROOT(1)
?Subroutine328:
        CFI Block cfiCond1 Using cfiCommon0
        CFI NoFunction
        CFI Conditional ??CrossCallReturnLabel_844
        CFI R24 Frame(CFA_Y, -4)
        CFI R25 Frame(CFA_Y, -3)
        CFI R26 Frame(CFA_Y, -2)
        CFI R27 Frame(CFA_Y, -1)
        CFI CFA_SP SP+6
        CFI CFA_Y Y+7
        CFI Block cfiCond2 Using cfiCommon0
        CFI (cfiCond2) NoFunction
        CFI (cfiCond2) Conditional ??CrossCallReturnLabel_843
        CFI (cfiCond2) R24 Frame(CFA_Y, -4)
        CFI (cfiCond2) R25 Frame(CFA_Y, -3)
        CFI (cfiCond2) R26 Frame(CFA_Y, -2)
        CFI (cfiCond2) R27 Frame(CFA_Y, -1)
        CFI (cfiCond2) CFA_SP SP+6
        CFI (cfiCond2) CFA_Y Y+7
        CFI Block cfiCond3 Using cfiCommon0
        CFI (cfiCond3) NoFunction
        CFI (cfiCond3) Conditional ??CrossCallReturnLabel_842
        CFI (cfiCond3) R24 Frame(CFA_Y, -4)
        CFI (cfiCond3) R25 Frame(CFA_Y, -3)
        CFI (cfiCond3) R26 Frame(CFA_Y, -2)
        CFI (cfiCond3) R27 Frame(CFA_Y, -1)
        CFI (cfiCond3) CFA_SP SP+6
        CFI (cfiCond3) CFA_Y Y+7
        CFI Block cfiPicker4 Using cfiCommon1
        CFI (cfiPicker4) NoFunction
        CFI (cfiPicker4) Picker
        JMP	?Subroutine40
        CFI EndBlock cfiCond1
        CFI EndBlock cfiCond2
        CFI EndBlock cfiCond3
        CFI EndBlock cfiPicker4

        RSEG FARCODE:CODE:NOROOT(1)
hash_tabletka2:
        CFI Block cfiBlock5 Using cfiCommon0
        CFI Function hash_tabletka2
        FUNCALL hash_tabletka2, RdFromFleshToArr
        LOCFRAME CSTACK, 10, STACK
        LOCFRAME RSTACK, 3, STACK
        CALL	?Subroutine9
        CFI R24 Frame(CFA_Y, -6)
        CFI R25 Frame(CFA_Y, -5)
        CFI R26 Frame(CFA_Y, -4)
        CFI R27 Frame(CFA_Y, -3)
        CFI R4 Frame(CFA_Y, -2)
        CFI R5 Frame(CFA_Y, -1)
        CFI CFA_Y Y+6
??CrossCallReturnLabel_26:
        REQUIRE	?Register_R4_is_cg_reg
        REQUIRE	?Register_R5_is_cg_reg
        SBIW	R29:R28, 4
        CFI CFA_Y Y+10
        CALL	?Subroutine8
??CrossCallReturnLabel_20:
        LDI	R26, 0
        LDI	R27, 0
        CALL	??Subroutine7_0
??CrossCallReturnLabel_8:
        LDI	R20, 4
        LDI	R21, 0
        MOVW	R19:R18, R29:R28
        MOVW	R17:R16, R5:R4
        SUBI	R17, 208
        CALL	??Subroutine287_0
??CrossCallReturnLabel_841:
        CALL	??Subroutine38_1
??CrossCallReturnLabel_64:
        LDD	R18, Y+2
        LDD	R19, Y+3
        EOR	R24, R16
        EOR	R25, R17
        EOR	R26, R18
        EOR	R27, R19
        LDI	R16, 4
        ADD	R4, R16
        LDI	R16, 0
        ADC	R5, R16
        LDI	R16, 244
        CP	R4, R16
        LDI	R16, 3
        CPC	R5, R16
        BRLT	??CrossCallReturnLabel_8
        MOVW	R17:R16, R25:R24
        MOVW	R19:R18, R27:R26
        ADIW	R29:R28, 4
        CFI EndBlock cfiBlock5
        REQUIRE ?Subroutine277
        ;		// Fall through to label ?Subroutine277

        RSEG FARCODE:CODE:NOROOT(1)
?Subroutine277:
        CFI Block cfiBlock6 Using cfiCommon0
        CFI NoFunction
        CFI CFA_Y Y+6
        CFI R4 Frame(CFA_Y, -2)
        CFI R5 Frame(CFA_Y, -1)
        CFI R24 Frame(CFA_Y, -6)
        CFI R25 Frame(CFA_Y, -5)
        CFI R26 Frame(CFA_Y, -4)
        CFI R27 Frame(CFA_Y, -3)
        LDI	R30, 6
        JMP	?EPILOGUE_B6_L09
        CFI EndBlock cfiBlock6

        RSEG FARCODE:CODE:NOROOT(1)
prov_uk_in:
        CFI Block cfiBlock7 Using cfiCommon0
        CFI Function prov_uk_in
        RCALL	?Subroutine55
??CrossCallReturnLabel_89:
        LDD	R16, Z+25
        INC	R16
        STD	Z+25, R16
        CPI	R16, 15
        BRCS	??prov_uk_in_0
        LDI	R16, 0
        STD	Z+25, R16
??prov_uk_in_0:
        LDD	R16, Z+26
        TST	R16
        BRNE	??prov_uk_in_1
        LDI	R16, 14
        RJMP	??prov_uk_in_2
??prov_uk_in_1:
        DEC	R16
??prov_uk_in_2:
        LDD	R17, Z+25
        RJMP	?Subroutine57
        CFI EndBlock cfiBlock7

        RSEG FARCODE:CODE:NOROOT(1)
prov_uk_in_ipcp:
        CFI Block cfiBlock8 Using cfiCommon0
        CFI Function prov_uk_in_ipcp
        RCALL	?Subroutine55
??CrossCallReturnLabel_90:
        LDD	R16, Z+27
        INC	R16
        STD	Z+27, R16
        CPI	R16, 10
        BRCS	??prov_uk_in_ipcp_0
        LDI	R16, 0
        STD	Z+27, R16
??prov_uk_in_ipcp_0:
        LDD	R16, Z+28
        TST	R16
        BRNE	??prov_uk_in_ipcp_1
        LDI	R16, 9
        RJMP	??prov_uk_in_ipcp_2
??prov_uk_in_ipcp_1:
        DEC	R16
??prov_uk_in_ipcp_2:
        LDD	R17, Z+27
        CFI EndBlock cfiBlock8
        REQUIRE ?Subroutine57
        ;		// Fall through to label ?Subroutine57

        RSEG FARCODE:CODE:NOROOT(1)
?Subroutine57:
        CFI Block cfiBlock9 Using cfiCommon0
        CFI NoFunction
        CFI Block cfiPicker10 Using cfiCommon1
        CFI (cfiPicker10) NoFunction
        CFI (cfiPicker10) Picker
        CP	R17, R16
        BRNE	??Subroutine57_0
        LDI	R16, 5
        STS	event_modem, R16
??Subroutine57_0:
        RET
        CFI EndBlock cfiBlock9
        CFI EndBlock cfiPicker10

        RSEG FARCODE:CODE:NOROOT(1)
pppfcs16:
        CFI Block cfiBlock11 Using cfiCommon0
        CFI Function pppfcs16
        RJMP	??pppfcs16_0
??pppfcs16_1:
        MOV	R2, R17
        LDI	R22, LOW(fcstab)
        LDI	R23, (fcstab) >> 8
        MOVW	R31:R30, R19:R18
        LD	R0, Z+
        MOVW	R19:R18, R31:R30
        MOV	R30, R0
        EOR	R30, R16
        LDI	R31, 0
        LSL	R30
        ROL	R31
        ADD	R22, R30
        ADC	R23, R31
        MOVW	R31:R30, R23:R22
        LPM	R16, Z+
        LPM	R17, Z
        EOR	R16, R2
??pppfcs16_0:
        MOVW	R23:R22, R21:R20
        SUBI	R20, 1
        SBCI	R21, 0
        OR	R22, R23
        BRNE	??pppfcs16_1
        RET
        CFI EndBlock cfiBlock11

        RSEG FARCODE:CODE:NOROOT(1)
send_terminate_lcp:
        CFI Block cfiBlock12 Using cfiCommon0
        CFI Function send_terminate_lcp
        FUNCALL send_terminate_lcp, pppfcs16
        LOCFRAME CSTACK, 4, STACK
        LOCFRAME RSTACK, 3, STACK
        RCALL	?Subroutine62
        CFI R26 Frame(CFA_Y, -2)
        CFI R27 Frame(CFA_Y, -1)
        CFI CFA_Y Y+2
??CrossCallReturnLabel_102:
        SBIW	R29:R28, 2
        CFI CFA_Y Y+4
        RCALL	?Subroutine55
??CrossCallReturnLabel_91:
        LDD	R16, Z+3
        ANDI	R16, 0xFE
        STD	Z+3, R16
        RCALL	?Subroutine69
??CrossCallReturnLabel_110:
        LDI	R16, 126
        ST	X+, R16
        LDI	R16, 255
        ST	X+, R16
        LDI	R16, 3
        ST	X+, R16
        LDI	R16, 192
        ST	X+, R16
        LDI	R16, 33
        ST	X+, R16
        LDI	R16, 5
        ST	X+, R16
        LDI	R16, 0
        ST	X+, R16
        ST	X+, R16
        LDI	R16, 4
        ST	X, R16
        SBIW	R27:R26, 8
        LDI	R20, 8
        LDI	R21, 0
        RCALL	?Subroutine53
??CrossCallReturnLabel_80:
        ADIW	R27:R26, 9
        ST	X, R18
        ADIW	R27:R26, 1
        LDD	R16, Y+1
        ST	X+, R16
        LDI	R16, 126
        ST	X, R16
        LDI	R16, 0
        LDI	R17, 0
        LDI	R30, LOW(count_tx_ppp)
        LDI	R31, (count_tx_ppp) >> 8
        ST	Z, R16
        STD	Z+1, R16
        LDI	R16, 12
        RCALL	?Subroutine80
??CrossCallReturnLabel_650:
        CALL	?Subroutine85
??CrossCallReturnLabel_126:
        SBI	0x08, 0x00
        CBI	0x08, 0x01
        LDI	R16, 126
        STS	198, R16
        RCALL	??Subroutine289_0
??CrossCallReturnLabel_806:
        BRNE	??CrossCallReturnLabel_142
        LDI	R16, 126
        RCALL	??Subroutine91_0
??CrossCallReturnLabel_142:
        ADIW	R29:R28, 2
        CFI CFA_Y Y+2
        RJMP	?Subroutine93
        CFI EndBlock cfiBlock12

        RSEG FARCODE:CODE:NOROOT(1)
?Subroutine80:
        CFI Block cfiCond13 Using cfiCommon0
        CFI NoFunction
        CFI Conditional ??CrossCallReturnLabel_650
        CFI R26 Frame(CFA_Y, -2)
        CFI R27 Frame(CFA_Y, -1)
        CFI CFA_SP SP+6
        CFI CFA_Y Y+4
        CFI Block cfiCond14 Using cfiCommon0
        CFI (cfiCond14) NoFunction
        CFI (cfiCond14) Conditional ??CrossCallReturnLabel_651
        CFI (cfiCond14) R24 Frame(CFA_Y, -4)
        CFI (cfiCond14) R25 Frame(CFA_Y, -3)
        CFI (cfiCond14) R26 Frame(CFA_Y, -2)
        CFI (cfiCond14) R27 Frame(CFA_Y, -1)
        CFI (cfiCond14) CFA_SP SP+6
        CFI (cfiCond14) CFA_Y Y+7
        CFI Block cfiCond15 Using cfiCommon0
        CFI (cfiCond15) NoFunction
        CFI (cfiCond15) Conditional ??CrossCallReturnLabel_652
        CFI (cfiCond15) R24 Frame(CFA_Y, -4)
        CFI (cfiCond15) R25 Frame(CFA_Y, -3)
        CFI (cfiCond15) R26 Frame(CFA_Y, -2)
        CFI (cfiCond15) R27 Frame(CFA_Y, -1)
        CFI (cfiCond15) CFA_SP SP+6
        CFI (cfiCond15) CFA_Y Y+6
        CFI Block cfiPicker16 Using cfiCommon1
        CFI (cfiPicker16) NoFunction
        CFI (cfiPicker16) Picker
        LDI	R30, LOW(vol_tx_ppp)
        LDI	R31, (vol_tx_ppp) >> 8
        CFI Block cfiCond17 Using cfiCommon0
        CFI (cfiCond17) NoFunction
        CFI (cfiCond17) Conditional ??CrossCallReturnLabel_653
        CFI (cfiCond17) R24 Frame(CFA_Y, -16)
        CFI (cfiCond17) R25 Frame(CFA_Y, -15)
        CFI (cfiCond17) R26 Frame(CFA_Y, -14)
        CFI (cfiCond17) R27 Frame(CFA_Y, -13)
        CFI (cfiCond17) R4 Frame(CFA_Y, -12)
        CFI (cfiCond17) R5 Frame(CFA_Y, -11)
        CFI (cfiCond17) R6 Frame(CFA_Y, -10)
        CFI (cfiCond17) R7 Frame(CFA_Y, -9)
        CFI (cfiCond17) R8 Frame(CFA_Y, -8)
        CFI (cfiCond17) R9 Frame(CFA_Y, -7)
        CFI (cfiCond17) R10 Frame(CFA_Y, -6)
        CFI (cfiCond17) R11 Frame(CFA_Y, -5)
        CFI (cfiCond17) R12 Frame(CFA_Y, -4)
        CFI (cfiCond17) R13 Frame(CFA_Y, -3)
        CFI (cfiCond17) R14 Frame(CFA_Y, -2)
        CFI (cfiCond17) R15 Frame(CFA_Y, -1)
        CFI (cfiCond17) CFA_SP SP+6
        CFI (cfiCond17) CFA_Y Y+16
        CFI Block cfiCond18 Using cfiCommon0
        CFI (cfiCond18) NoFunction
        CFI (cfiCond18) Conditional ??CrossCallReturnLabel_654
        CFI (cfiCond18) R24 Frame(CFA_Y, -16)
        CFI (cfiCond18) R25 Frame(CFA_Y, -15)
        CFI (cfiCond18) R26 Frame(CFA_Y, -14)
        CFI (cfiCond18) R27 Frame(CFA_Y, -13)
        CFI (cfiCond18) R4 Frame(CFA_Y, -12)
        CFI (cfiCond18) R5 Frame(CFA_Y, -11)
        CFI (cfiCond18) R6 Frame(CFA_Y, -10)
        CFI (cfiCond18) R7 Frame(CFA_Y, -9)
        CFI (cfiCond18) R8 Frame(CFA_Y, -8)
        CFI (cfiCond18) R9 Frame(CFA_Y, -7)
        CFI (cfiCond18) R10 Frame(CFA_Y, -6)
        CFI (cfiCond18) R11 Frame(CFA_Y, -5)
        CFI (cfiCond18) R12 Frame(CFA_Y, -4)
        CFI (cfiCond18) R13 Frame(CFA_Y, -3)
        CFI (cfiCond18) R14 Frame(CFA_Y, -2)
        CFI (cfiCond18) R15 Frame(CFA_Y, -1)
        CFI (cfiCond18) CFA_SP SP+6
        CFI (cfiCond18) CFA_Y Y+88
        CFI Block cfiCond19 Using cfiCommon0
        CFI (cfiCond19) NoFunction
        CFI (cfiCond19) Conditional ??CrossCallReturnLabel_638
        CFI (cfiCond19) R24 Frame(CFA_Y, -16)
        CFI (cfiCond19) R25 Frame(CFA_Y, -15)
        CFI (cfiCond19) R26 Frame(CFA_Y, -14)
        CFI (cfiCond19) R27 Frame(CFA_Y, -13)
        CFI (cfiCond19) R4 Frame(CFA_Y, -12)
        CFI (cfiCond19) R5 Frame(CFA_Y, -11)
        CFI (cfiCond19) R6 Frame(CFA_Y, -10)
        CFI (cfiCond19) R7 Frame(CFA_Y, -9)
        CFI (cfiCond19) R8 Frame(CFA_Y, -8)
        CFI (cfiCond19) R9 Frame(CFA_Y, -7)
        CFI (cfiCond19) R10 Frame(CFA_Y, -6)
        CFI (cfiCond19) R11 Frame(CFA_Y, -5)
        CFI (cfiCond19) R12 Frame(CFA_Y, -4)
        CFI (cfiCond19) R13 Frame(CFA_Y, -3)
        CFI (cfiCond19) R14 Frame(CFA_Y, -2)
        CFI (cfiCond19) R15 Frame(CFA_Y, -1)
        CFI (cfiCond19) CFA_SP SP+6
        CFI (cfiCond19) CFA_Y Y+88
        CFI Block cfiCond20 Using cfiCommon0
        CFI (cfiCond20) NoFunction
        CFI (cfiCond20) Conditional ??CrossCallReturnLabel_639
        CFI (cfiCond20) R24 Frame(CFA_Y, -16)
        CFI (cfiCond20) R25 Frame(CFA_Y, -15)
        CFI (cfiCond20) R26 Frame(CFA_Y, -14)
        CFI (cfiCond20) R27 Frame(CFA_Y, -13)
        CFI (cfiCond20) R4 Frame(CFA_Y, -12)
        CFI (cfiCond20) R5 Frame(CFA_Y, -11)
        CFI (cfiCond20) R6 Frame(CFA_Y, -10)
        CFI (cfiCond20) R7 Frame(CFA_Y, -9)
        CFI (cfiCond20) R8 Frame(CFA_Y, -8)
        CFI (cfiCond20) R9 Frame(CFA_Y, -7)
        CFI (cfiCond20) R10 Frame(CFA_Y, -6)
        CFI (cfiCond20) R11 Frame(CFA_Y, -5)
        CFI (cfiCond20) R12 Frame(CFA_Y, -4)
        CFI (cfiCond20) R13 Frame(CFA_Y, -3)
        CFI (cfiCond20) R14 Frame(CFA_Y, -2)
        CFI (cfiCond20) R15 Frame(CFA_Y, -1)
        CFI (cfiCond20) CFA_SP SP+6
        CFI (cfiCond20) CFA_Y Y+88
        CFI Block cfiCond21 Using cfiCommon0
        CFI (cfiCond21) NoFunction
        CFI (cfiCond21) Conditional ??CrossCallReturnLabel_640
        CFI (cfiCond21) R24 Frame(CFA_Y, -16)
        CFI (cfiCond21) R25 Frame(CFA_Y, -15)
        CFI (cfiCond21) R26 Frame(CFA_Y, -14)
        CFI (cfiCond21) R27 Frame(CFA_Y, -13)
        CFI (cfiCond21) R4 Frame(CFA_Y, -12)
        CFI (cfiCond21) R5 Frame(CFA_Y, -11)
        CFI (cfiCond21) R6 Frame(CFA_Y, -10)
        CFI (cfiCond21) R7 Frame(CFA_Y, -9)
        CFI (cfiCond21) R8 Frame(CFA_Y, -8)
        CFI (cfiCond21) R9 Frame(CFA_Y, -7)
        CFI (cfiCond21) R10 Frame(CFA_Y, -6)
        CFI (cfiCond21) R11 Frame(CFA_Y, -5)
        CFI (cfiCond21) R12 Frame(CFA_Y, -4)
        CFI (cfiCond21) R13 Frame(CFA_Y, -3)
        CFI (cfiCond21) R14 Frame(CFA_Y, -2)
        CFI (cfiCond21) R15 Frame(CFA_Y, -1)
        CFI (cfiCond21) CFA_SP SP+6
        CFI (cfiCond21) CFA_Y Y+88
        CFI Block cfiCond22 Using cfiCommon0
        CFI (cfiCond22) NoFunction
        CFI (cfiCond22) Conditional ??CrossCallReturnLabel_641
        CFI (cfiCond22) R24 Frame(CFA_Y, -16)
        CFI (cfiCond22) R25 Frame(CFA_Y, -15)
        CFI (cfiCond22) R26 Frame(CFA_Y, -14)
        CFI (cfiCond22) R27 Frame(CFA_Y, -13)
        CFI (cfiCond22) R4 Frame(CFA_Y, -12)
        CFI (cfiCond22) R5 Frame(CFA_Y, -11)
        CFI (cfiCond22) R6 Frame(CFA_Y, -10)
        CFI (cfiCond22) R7 Frame(CFA_Y, -9)
        CFI (cfiCond22) R8 Frame(CFA_Y, -8)
        CFI (cfiCond22) R9 Frame(CFA_Y, -7)
        CFI (cfiCond22) R10 Frame(CFA_Y, -6)
        CFI (cfiCond22) R11 Frame(CFA_Y, -5)
        CFI (cfiCond22) R12 Frame(CFA_Y, -4)
        CFI (cfiCond22) R13 Frame(CFA_Y, -3)
        CFI (cfiCond22) R14 Frame(CFA_Y, -2)
        CFI (cfiCond22) R15 Frame(CFA_Y, -1)
        CFI (cfiCond22) CFA_SP SP+6
        CFI (cfiCond22) CFA_Y Y+88
        CFI Block cfiCond23 Using cfiCommon0
        CFI (cfiCond23) NoFunction
        CFI (cfiCond23) Conditional ??CrossCallReturnLabel_642
        CFI (cfiCond23) R24 Frame(CFA_Y, -16)
        CFI (cfiCond23) R25 Frame(CFA_Y, -15)
        CFI (cfiCond23) R26 Frame(CFA_Y, -14)
        CFI (cfiCond23) R27 Frame(CFA_Y, -13)
        CFI (cfiCond23) R4 Frame(CFA_Y, -12)
        CFI (cfiCond23) R5 Frame(CFA_Y, -11)
        CFI (cfiCond23) R6 Frame(CFA_Y, -10)
        CFI (cfiCond23) R7 Frame(CFA_Y, -9)
        CFI (cfiCond23) R8 Frame(CFA_Y, -8)
        CFI (cfiCond23) R9 Frame(CFA_Y, -7)
        CFI (cfiCond23) R10 Frame(CFA_Y, -6)
        CFI (cfiCond23) R11 Frame(CFA_Y, -5)
        CFI (cfiCond23) R12 Frame(CFA_Y, -4)
        CFI (cfiCond23) R13 Frame(CFA_Y, -3)
        CFI (cfiCond23) R14 Frame(CFA_Y, -2)
        CFI (cfiCond23) R15 Frame(CFA_Y, -1)
        CFI (cfiCond23) CFA_SP SP+6
        CFI (cfiCond23) CFA_Y Y+88
        CFI Block cfiCond24 Using cfiCommon0
        CFI (cfiCond24) NoFunction
        CFI (cfiCond24) Conditional ??CrossCallReturnLabel_643
        CFI (cfiCond24) R24 Frame(CFA_Y, -16)
        CFI (cfiCond24) R25 Frame(CFA_Y, -15)
        CFI (cfiCond24) R26 Frame(CFA_Y, -14)
        CFI (cfiCond24) R27 Frame(CFA_Y, -13)
        CFI (cfiCond24) R4 Frame(CFA_Y, -12)
        CFI (cfiCond24) R5 Frame(CFA_Y, -11)
        CFI (cfiCond24) R6 Frame(CFA_Y, -10)
        CFI (cfiCond24) R7 Frame(CFA_Y, -9)
        CFI (cfiCond24) R8 Frame(CFA_Y, -8)
        CFI (cfiCond24) R9 Frame(CFA_Y, -7)
        CFI (cfiCond24) R10 Frame(CFA_Y, -6)
        CFI (cfiCond24) R11 Frame(CFA_Y, -5)
        CFI (cfiCond24) R12 Frame(CFA_Y, -4)
        CFI (cfiCond24) R13 Frame(CFA_Y, -3)
        CFI (cfiCond24) R14 Frame(CFA_Y, -2)
        CFI (cfiCond24) R15 Frame(CFA_Y, -1)
        CFI (cfiCond24) CFA_SP SP+6
        CFI (cfiCond24) CFA_Y Y+88
        CFI Block cfiCond25 Using cfiCommon0
        CFI (cfiCond25) NoFunction
        CFI (cfiCond25) Conditional ??CrossCallReturnLabel_644
        CFI (cfiCond25) R24 Frame(CFA_Y, -16)
        CFI (cfiCond25) R25 Frame(CFA_Y, -15)
        CFI (cfiCond25) R26 Frame(CFA_Y, -14)
        CFI (cfiCond25) R27 Frame(CFA_Y, -13)
        CFI (cfiCond25) R4 Frame(CFA_Y, -12)
        CFI (cfiCond25) R5 Frame(CFA_Y, -11)
        CFI (cfiCond25) R6 Frame(CFA_Y, -10)
        CFI (cfiCond25) R7 Frame(CFA_Y, -9)
        CFI (cfiCond25) R8 Frame(CFA_Y, -8)
        CFI (cfiCond25) R9 Frame(CFA_Y, -7)
        CFI (cfiCond25) R10 Frame(CFA_Y, -6)
        CFI (cfiCond25) R11 Frame(CFA_Y, -5)
        CFI (cfiCond25) R12 Frame(CFA_Y, -4)
        CFI (cfiCond25) R13 Frame(CFA_Y, -3)
        CFI (cfiCond25) R14 Frame(CFA_Y, -2)
        CFI (cfiCond25) R15 Frame(CFA_Y, -1)
        CFI (cfiCond25) CFA_SP SP+6
        CFI (cfiCond25) CFA_Y Y+88
        CFI Block cfiCond26 Using cfiCommon0
        CFI (cfiCond26) NoFunction
        CFI (cfiCond26) Conditional ??CrossCallReturnLabel_645
        CFI (cfiCond26) R24 Frame(CFA_Y, -16)
        CFI (cfiCond26) R25 Frame(CFA_Y, -15)
        CFI (cfiCond26) R26 Frame(CFA_Y, -14)
        CFI (cfiCond26) R27 Frame(CFA_Y, -13)
        CFI (cfiCond26) R4 Frame(CFA_Y, -12)
        CFI (cfiCond26) R5 Frame(CFA_Y, -11)
        CFI (cfiCond26) R6 Frame(CFA_Y, -10)
        CFI (cfiCond26) R7 Frame(CFA_Y, -9)
        CFI (cfiCond26) R8 Frame(CFA_Y, -8)
        CFI (cfiCond26) R9 Frame(CFA_Y, -7)
        CFI (cfiCond26) R10 Frame(CFA_Y, -6)
        CFI (cfiCond26) R11 Frame(CFA_Y, -5)
        CFI (cfiCond26) R12 Frame(CFA_Y, -4)
        CFI (cfiCond26) R13 Frame(CFA_Y, -3)
        CFI (cfiCond26) R14 Frame(CFA_Y, -2)
        CFI (cfiCond26) R15 Frame(CFA_Y, -1)
        CFI (cfiCond26) CFA_SP SP+6
        CFI (cfiCond26) CFA_Y Y+88
        CFI Block cfiCond27 Using cfiCommon0
        CFI (cfiCond27) NoFunction
        CFI (cfiCond27) Conditional ??CrossCallReturnLabel_646
        CFI (cfiCond27) R24 Frame(CFA_Y, -16)
        CFI (cfiCond27) R25 Frame(CFA_Y, -15)
        CFI (cfiCond27) R26 Frame(CFA_Y, -14)
        CFI (cfiCond27) R27 Frame(CFA_Y, -13)
        CFI (cfiCond27) R4 Frame(CFA_Y, -12)
        CFI (cfiCond27) R5 Frame(CFA_Y, -11)
        CFI (cfiCond27) R6 Frame(CFA_Y, -10)
        CFI (cfiCond27) R7 Frame(CFA_Y, -9)
        CFI (cfiCond27) R8 Frame(CFA_Y, -8)
        CFI (cfiCond27) R9 Frame(CFA_Y, -7)
        CFI (cfiCond27) R10 Frame(CFA_Y, -6)
        CFI (cfiCond27) R11 Frame(CFA_Y, -5)
        CFI (cfiCond27) R12 Frame(CFA_Y, -4)
        CFI (cfiCond27) R13 Frame(CFA_Y, -3)
        CFI (cfiCond27) R14 Frame(CFA_Y, -2)
        CFI (cfiCond27) R15 Frame(CFA_Y, -1)
        CFI (cfiCond27) CFA_SP SP+6
        CFI (cfiCond27) CFA_Y Y+88
        CFI Block cfiCond28 Using cfiCommon0
        CFI (cfiCond28) NoFunction
        CFI (cfiCond28) Conditional ??CrossCallReturnLabel_647
        CFI (cfiCond28) R24 Frame(CFA_Y, -16)
        CFI (cfiCond28) R25 Frame(CFA_Y, -15)
        CFI (cfiCond28) R26 Frame(CFA_Y, -14)
        CFI (cfiCond28) R27 Frame(CFA_Y, -13)
        CFI (cfiCond28) R4 Frame(CFA_Y, -12)
        CFI (cfiCond28) R5 Frame(CFA_Y, -11)
        CFI (cfiCond28) R6 Frame(CFA_Y, -10)
        CFI (cfiCond28) R7 Frame(CFA_Y, -9)
        CFI (cfiCond28) R8 Frame(CFA_Y, -8)
        CFI (cfiCond28) R9 Frame(CFA_Y, -7)
        CFI (cfiCond28) R10 Frame(CFA_Y, -6)
        CFI (cfiCond28) R11 Frame(CFA_Y, -5)
        CFI (cfiCond28) R12 Frame(CFA_Y, -4)
        CFI (cfiCond28) R13 Frame(CFA_Y, -3)
        CFI (cfiCond28) R14 Frame(CFA_Y, -2)
        CFI (cfiCond28) R15 Frame(CFA_Y, -1)
        CFI (cfiCond28) CFA_SP SP+6
        CFI (cfiCond28) CFA_Y Y+88
        CFI Block cfiCond29 Using cfiCommon0
        CFI (cfiCond29) NoFunction
        CFI (cfiCond29) Conditional ??CrossCallReturnLabel_648
        CFI (cfiCond29) R24 Frame(CFA_Y, -16)
        CFI (cfiCond29) R25 Frame(CFA_Y, -15)
        CFI (cfiCond29) R26 Frame(CFA_Y, -14)
        CFI (cfiCond29) R27 Frame(CFA_Y, -13)
        CFI (cfiCond29) R4 Frame(CFA_Y, -12)
        CFI (cfiCond29) R5 Frame(CFA_Y, -11)
        CFI (cfiCond29) R6 Frame(CFA_Y, -10)
        CFI (cfiCond29) R7 Frame(CFA_Y, -9)
        CFI (cfiCond29) R8 Frame(CFA_Y, -8)
        CFI (cfiCond29) R9 Frame(CFA_Y, -7)
        CFI (cfiCond29) R10 Frame(CFA_Y, -6)
        CFI (cfiCond29) R11 Frame(CFA_Y, -5)
        CFI (cfiCond29) R12 Frame(CFA_Y, -4)
        CFI (cfiCond29) R13 Frame(CFA_Y, -3)
        CFI (cfiCond29) R14 Frame(CFA_Y, -2)
        CFI (cfiCond29) R15 Frame(CFA_Y, -1)
        CFI (cfiCond29) CFA_SP SP+6
        CFI (cfiCond29) CFA_Y Y+88
        CFI Block cfiCond30 Using cfiCommon0
        CFI (cfiCond30) NoFunction
        CFI (cfiCond30) Conditional ??CrossCallReturnLabel_649
        CFI (cfiCond30) R24 Frame(CFA_Y, -16)
        CFI (cfiCond30) R25 Frame(CFA_Y, -15)
        CFI (cfiCond30) R26 Frame(CFA_Y, -14)
        CFI (cfiCond30) R27 Frame(CFA_Y, -13)
        CFI (cfiCond30) R4 Frame(CFA_Y, -12)
        CFI (cfiCond30) R5 Frame(CFA_Y, -11)
        CFI (cfiCond30) R6 Frame(CFA_Y, -10)
        CFI (cfiCond30) R7 Frame(CFA_Y, -9)
        CFI (cfiCond30) R8 Frame(CFA_Y, -8)
        CFI (cfiCond30) R9 Frame(CFA_Y, -7)
        CFI (cfiCond30) R10 Frame(CFA_Y, -6)
        CFI (cfiCond30) R11 Frame(CFA_Y, -5)
        CFI (cfiCond30) R12 Frame(CFA_Y, -4)
        CFI (cfiCond30) R13 Frame(CFA_Y, -3)
        CFI (cfiCond30) R14 Frame(CFA_Y, -2)
        CFI (cfiCond30) R15 Frame(CFA_Y, -1)
        CFI (cfiCond30) CFA_SP SP+6
        CFI (cfiCond30) CFA_Y Y+88
??Subroutine80_0:
        ST	Z, R16
        STD	Z+1, R17
        RET
        CFI EndBlock cfiCond13
        CFI EndBlock cfiCond14
        CFI EndBlock cfiCond15
        CFI EndBlock cfiPicker16
        CFI EndBlock cfiCond17
        CFI EndBlock cfiCond18
        CFI EndBlock cfiCond19
        CFI EndBlock cfiCond20
        CFI EndBlock cfiCond21
        CFI EndBlock cfiCond22
        CFI EndBlock cfiCond23
        CFI EndBlock cfiCond24
        CFI EndBlock cfiCond25
        CFI EndBlock cfiCond26
        CFI EndBlock cfiCond27
        CFI EndBlock cfiCond28
        CFI EndBlock cfiCond29
        CFI EndBlock cfiCond30

        RSEG FARCODE:CODE:NOROOT(1)
?Subroutine55:
        CFI Block cfiCond31 Using cfiCommon0
        CFI NoFunction
        CFI Conditional ??CrossCallReturnLabel_89
        CFI CFA_SP SP+6
        CFI Block cfiCond32 Using cfiCommon0
        CFI (cfiCond32) NoFunction
        CFI (cfiCond32) Conditional ??CrossCallReturnLabel_90
        CFI (cfiCond32) CFA_SP SP+6
        CFI Block cfiCond33 Using cfiCommon0
        CFI (cfiCond33) NoFunction
        CFI (cfiCond33) Conditional ??CrossCallReturnLabel_91
        CFI (cfiCond33) R26 Frame(CFA_Y, -2)
        CFI (cfiCond33) R27 Frame(CFA_Y, -1)
        CFI (cfiCond33) CFA_SP SP+6
        CFI (cfiCond33) CFA_Y Y+4
        CFI Block cfiCond34 Using cfiCommon0
        CFI (cfiCond34) NoFunction
        CFI (cfiCond34) Conditional ??CrossCallReturnLabel_92
        CFI (cfiCond34) CFA_SP SP+6
        CFI Block cfiCond35 Using cfiCommon0
        CFI (cfiCond35) NoFunction
        CFI (cfiCond35) Conditional ??CrossCallReturnLabel_93
        CFI (cfiCond35) CFA_SP SP+6
        CFI Block cfiPicker36 Using cfiCommon1
        CFI (cfiPicker36) NoFunction
        CFI (cfiPicker36) Picker
        LDI	R30, LOW(cnt_lcp_tm_out)
        LDI	R31, (cnt_lcp_tm_out) >> 8
        RET
        CFI EndBlock cfiCond31
        CFI EndBlock cfiCond32
        CFI EndBlock cfiCond33
        CFI EndBlock cfiCond34
        CFI EndBlock cfiCond35
        CFI EndBlock cfiPicker36

        RSEG FARCODE:CODE:NOROOT(1)
run_lcp_act:
        CFI Block cfiBlock37 Using cfiCommon0
        CFI Function run_lcp_act
        FUNCALL run_lcp_act, pppfcs16
        LOCFRAME CSTACK, 6, STACK
        LOCFRAME RSTACK, 3, STACK
        FUNCALL run_lcp_act, pppfcs16
        LOCFRAME CSTACK, 6, STACK
        LOCFRAME RSTACK, 3, STACK
        FUNCALL run_lcp_act, check_cts
        LOCFRAME CSTACK, 6, STACK
        LOCFRAME RSTACK, 3, STACK
        FUNCALL run_lcp_act, pppfcs16
        LOCFRAME CSTACK, 6, STACK
        LOCFRAME RSTACK, 3, STACK
        FUNCALL run_lcp_act, check_cts
        LOCFRAME CSTACK, 6, STACK
        LOCFRAME RSTACK, 3, STACK
        FUNCALL run_lcp_act, pppfcs16
        LOCFRAME CSTACK, 6, STACK
        LOCFRAME RSTACK, 3, STACK
        FUNCALL run_lcp_act, check_cts
        LOCFRAME CSTACK, 6, STACK
        LOCFRAME RSTACK, 3, STACK
        FUNCALL run_lcp_act, pppfcs16
        LOCFRAME CSTACK, 6, STACK
        LOCFRAME RSTACK, 3, STACK
        FUNCALL run_lcp_act, check_cts
        LOCFRAME CSTACK, 6, STACK
        LOCFRAME RSTACK, 3, STACK
        RCALL	?Subroutine90
        CFI R24 Frame(CFA_Y, -4)
        CFI R25 Frame(CFA_Y, -3)
        CFI R26 Frame(CFA_Y, -2)
        CFI R27 Frame(CFA_Y, -1)
        CFI CFA_Y Y+4
??CrossCallReturnLabel_133:
        SBIW	R29:R28, 2
        CFI CFA_Y Y+6
        LDI	R16, LOW(cnt_lcp_tm_out)
        LDI	R17, (cnt_lcp_tm_out) >> 8
        MOVW	R31:R30, R17:R16
        LDD	R18, Z+30
        RCALL	?Subroutine69
??CrossCallReturnLabel_111:
        LDD	R20, Z+26
        LDI	R21, 0
        ADD	R30, R20
        ADC	R31, R21
        LDD	R19, Z+10
        TST	R19
        BREQ	??run_lcp_act_0
        DEC	R19
        BREQ	??run_lcp_act_1
        SUBI	R19, 3
        BREQ	??run_lcp_act_2
        SUBI	R19, 2
        BREQ	??run_lcp_act_3
        DEC	R19
        BRNE	$+2+2
        RJMP	??run_lcp_act_4
        DEC	R19
        BRNE	$+2+2
        RJMP	??run_lcp_act_5
        RJMP	??run_lcp_act_6
??run_lcp_act_0:
        MOVW	R31:R30, R17:R16
        LDD	R18, Z+6
        ORI	R18, 0x10
        STD	Z+6, R18
        LDI	R18, 1
        STD	Z+9, R18
        LDI	R18, 2
        STS	layer_PPP, R18
??run_lcp_act_7:
        LDD	R16, Z+3
        ORI	R16, 0x01
??run_lcp_act_8:
        STD	Z+3, R16
        RJMP	??run_lcp_act_6
??run_lcp_act_1:
        LDI	R18, 1
        STS	layer_PPP, R18
        MOVW	R31:R30, R17:R16
        RJMP	??run_lcp_act_7
??run_lcp_act_2:
        LDI	R18, 184
        LDI	R19, 11
        MOVW	R31:R30, R17:R16
        RCALL	??Subroutine106_0
??CrossCallReturnLabel_183:
        LDD	R16, Z+3
        ORI	R16, 0x03
        RJMP	??run_lcp_act_8
??run_lcp_act_3:
        MOVW	R31:R30, R17:R16
        LDD	R18, Z+3
        ANDI	R18, 0xFE
        STD	Z+3, R18
        LDI	R18, 126
        ST	X, R18
        RCALL	?Subroutine74
??CrossCallReturnLabel_119:
        LDI	R18, 192
        RCALL	?Subroutine107
??CrossCallReturnLabel_187:
        MOVW	R31:R30, R17:R16
        LDD	R18, Z+29
        MOVW	R31:R30, R27:R26
        STD	Z+6, R18
        MOVW	R31:R30, R17:R16
        LDD	R17, Z+2
        TST	R17
        MOVW	R31:R30, R27:R26
        STD	Z+7, R21
        BRNE	??run_lcp_act_9
        LDI	R16, 14
        RJMP	??run_lcp_act_10
??run_lcp_act_9:
        LDI	R16, 10
??run_lcp_act_10:
        STD	Z+8, R16
        LDI	R16, 2
        STD	Z+9, R16
        LDI	R16, 6
        STD	Z+10, R16
        STD	Z+11, R21
        LDI	R16, 10
        STD	Z+12, R16
        STD	Z+13, R21
        STD	Z+14, R21
        BRNE	??run_lcp_act_11
        LDI	R16, 7
        STD	Z+15, R16
        LDI	R16, 2
        STD	Z+16, R16
        LDI	R16, 8
        STD	Z+17, R16
        LDI	R16, 2
        STD	Z+18, R16
        LDD	R24, Z+8
        LDI	R25, 0
        ADIW	R25:R24, 4
        MOVW	R21:R20, R25:R24
        RCALL	?Subroutine249
??CrossCallReturnLabel_380:
        STD	Z+19, R18
        LDD	R16, Y+1
        STD	Z+20, R16
        LDI	R16, 126
        STD	Z+21, R16
        RJMP	??CrossCallReturnLabel_121
??run_lcp_act_11:
        LDD	R20, Z+8
        SUBI	R20, 252
        SBCI	R21, 255
        RCALL	?Subroutine249
??CrossCallReturnLabel_381:
        RCALL	?Subroutine78
??CrossCallReturnLabel_121:
        RCALL	?Subroutine46
??CrossCallReturnLabel_76:
        MOVW	R31:R30, R27:R26
        LDD	R24, Z+8
        LDI	R25, 0
        ADIW	R25:R24, 8
        RCALL	?Subroutine86
??CrossCallReturnLabel_128:
        ST	Z, R24
        STD	Z+1, R25
        CALL	?Subroutine248
??CrossCallReturnLabel_797:
        BRNE	$+2+2
        RJMP	??run_lcp_act_6
        RCALL	?Subroutine87
??CrossCallReturnLabel_790:
        BREQ	$+2+2
        RJMP	??run_lcp_act_6
??run_lcp_act_12:
        RCALL	?Subroutine91
??CrossCallReturnLabel_143:
        RJMP	??run_lcp_act_6
??run_lcp_act_4:
        RCALL	?Subroutine71
??CrossCallReturnLabel_117:
        LDI	R19, 2
        STD	Z+5, R19
        STD	Z+6, R18
        MOVW	R31:R30, R17:R16
        LDD	R19, Z+61
        MOV	R24, R19
        LDI	R25, 0
        MOVW	R21:R20, R25:R24
        RCALL	?Subroutine133
??CrossCallReturnLabel_218:
        MOVW	R31:R30, R27:R26
        STD	Z+7, R21
        LD	R18, Y
        STD	Z+8, R18
        LD	R20, Y
        LDD	R21, Y+1
        RCALL	?Subroutine133
??CrossCallReturnLabel_219:
        SUBI	R20, 252
        SBCI	R21, 255
        RCALL	?Subroutine86
??CrossCallReturnLabel_129:
        ST	Z, R20
        STD	Z+1, R21
        LDI	R18, 0
        RJMP	??run_lcp_act_13
??run_lcp_act_14:
        MOVW	R31:R30, R17:R16
        ADD	R30, R18
        ADC	R31, R25
        LDD	R22, Z+32
        MOVW	R31:R30, R27:R26
        ADD	R30, R18
        ADC	R31, R25
        STD	Z+9, R22
        INC	R18
??run_lcp_act_13:
        CP	R18, R19
        BRCS	??run_lcp_act_14
??run_lcp_act_15:
        RCALL	?Subroutine51
??CrossCallReturnLabel_804:
        BREQ	??run_lcp_act_6
        RCALL	?Subroutine87
??CrossCallReturnLabel_791:
        BRNE	??run_lcp_act_6
        RJMP	??run_lcp_act_12
??run_lcp_act_5:
        RCALL	?Subroutine71
??CrossCallReturnLabel_118:
        MOVW	R31:R30, R17:R16
        LDD	R19, Z+7
        SBRC	R19, 0
        RJMP	??run_lcp_act_16
        LDI	R19, 3
        MOVW	R31:R30, R27:R26
        STD	Z+5, R19
        STD	Z+6, R18
        SUBI	R16, 194
        RCALL	?Subroutine4
??CrossCallReturnLabel_618:
        RJMP	??CrossCallReturnLabel_191
??run_lcp_act_17:
        RCALL	?Subroutine151
??CrossCallReturnLabel_243:
        LD	R17, Z
        RCALL	?Subroutine117
??CrossCallReturnLabel_191:
        CP	R18, R16
        BRCS	??run_lcp_act_17
        RJMP	??run_lcp_act_15
??run_lcp_act_16:
        ANDI	R19, 0xFE
        STD	Z+7, R19
        LDI	R19, 4
        MOVW	R31:R30, R27:R26
        STD	Z+5, R19
        STD	Z+6, R18
        SUBI	R16, 196
        RCALL	?Subroutine4
??CrossCallReturnLabel_619:
        RJMP	??CrossCallReturnLabel_192
??run_lcp_act_18:
        RCALL	?Subroutine151
??CrossCallReturnLabel_244:
        LDD	R17, Z+28
        RCALL	?Subroutine117
??CrossCallReturnLabel_192:
        CP	R18, R16
        BRCS	??run_lcp_act_18
        RCALL	?Subroutine51
??CrossCallReturnLabel_805:
        BREQ	??run_lcp_act_6
        RCALL	?Subroutine87
??CrossCallReturnLabel_792:
        BRNE	$+2+2
        RJMP	??run_lcp_act_12
??run_lcp_act_6:
        RJMP	?Subroutine278
        CFI EndBlock cfiBlock37

        RSEG FARCODE:CODE:NOROOT(1)
?Subroutine151:
        CFI Block cfiCond38 Using cfiCommon0
        CFI NoFunction
        CFI Conditional ??CrossCallReturnLabel_243
        CFI R24 Frame(CFA_Y, -4)
        CFI R25 Frame(CFA_Y, -3)
        CFI R26 Frame(CFA_Y, -2)
        CFI R27 Frame(CFA_Y, -1)
        CFI CFA_SP SP+6
        CFI CFA_Y Y+6
        CFI Block cfiCond39 Using cfiCommon0
        CFI (cfiCond39) NoFunction
        CFI (cfiCond39) Conditional ??CrossCallReturnLabel_244
        CFI (cfiCond39) R24 Frame(CFA_Y, -4)
        CFI (cfiCond39) R25 Frame(CFA_Y, -3)
        CFI (cfiCond39) R26 Frame(CFA_Y, -2)
        CFI (cfiCond39) R27 Frame(CFA_Y, -1)
        CFI (cfiCond39) CFA_SP SP+6
        CFI (cfiCond39) CFA_Y Y+6
        CFI Block cfiPicker40 Using cfiCommon1
        CFI (cfiPicker40) NoFunction
        CFI (cfiPicker40) Picker
        MOV	R20, R18
        MOVW	R31:R30, R21:R20
        SUBI	R30, LOW((-(buf_nak_opt_lcp) & 0xFFFF))
        SBCI	R31, (-(buf_nak_opt_lcp) & 0xFFFF) >> 8
        RET
        CFI EndBlock cfiCond38
        CFI EndBlock cfiCond39
        CFI EndBlock cfiPicker40

        RSEG FARCODE:CODE:NOROOT(1)
?Subroutine133:
        CFI Block cfiCond41 Using cfiCommon0
        CFI NoFunction
        CFI Conditional ??CrossCallReturnLabel_218
        CFI R24 Frame(CFA_Y, -4)
        CFI R25 Frame(CFA_Y, -3)
        CFI R26 Frame(CFA_Y, -2)
        CFI R27 Frame(CFA_Y, -1)
        CFI CFA_SP SP+6
        CFI CFA_Y Y+6
        CFI Block cfiCond42 Using cfiCommon0
        CFI (cfiCond42) NoFunction
        CFI (cfiCond42) Conditional ??CrossCallReturnLabel_219
        CFI (cfiCond42) R24 Frame(CFA_Y, -4)
        CFI (cfiCond42) R25 Frame(CFA_Y, -3)
        CFI (cfiCond42) R26 Frame(CFA_Y, -2)
        CFI (cfiCond42) R27 Frame(CFA_Y, -1)
        CFI (cfiCond42) CFA_SP SP+6
        CFI (cfiCond42) CFA_Y Y+6
        CFI Block cfiPicker43 Using cfiCommon1
        CFI (cfiPicker43) NoFunction
        CFI (cfiPicker43) Picker
        SUBI	R20, 252
        SBCI	R21, 255
        ST	Y, R20
        STD	Y+1, R21
        RET
        CFI EndBlock cfiCond41
        CFI EndBlock cfiCond42
        CFI EndBlock cfiPicker43

        RSEG FARCODE:CODE:NOROOT(1)
?Subroutine117:
        CFI Block cfiCond44 Using cfiCommon0
        CFI NoFunction
        CFI Conditional ??CrossCallReturnLabel_191
        CFI R24 Frame(CFA_Y, -4)
        CFI R25 Frame(CFA_Y, -3)
        CFI R26 Frame(CFA_Y, -2)
        CFI R27 Frame(CFA_Y, -1)
        CFI CFA_SP SP+6
        CFI CFA_Y Y+6
        CFI Block cfiCond45 Using cfiCommon0
        CFI (cfiCond45) NoFunction
        CFI (cfiCond45) Conditional ??CrossCallReturnLabel_192
        CFI (cfiCond45) R24 Frame(CFA_Y, -4)
        CFI (cfiCond45) R25 Frame(CFA_Y, -3)
        CFI (cfiCond45) R26 Frame(CFA_Y, -2)
        CFI (cfiCond45) R27 Frame(CFA_Y, -1)
        CFI (cfiCond45) CFA_SP SP+6
        CFI (cfiCond45) CFA_Y Y+6
        CFI Block cfiPicker46 Using cfiCommon1
        CFI (cfiPicker46) NoFunction
        CFI (cfiPicker46) Picker
        MOVW	R31:R30, R27:R26
        ADD	R30, R18
        ADC	R31, R21
        STD	Z+9, R17
        INC	R18
        RET
        CFI EndBlock cfiCond44
        CFI EndBlock cfiCond45
        CFI EndBlock cfiPicker46

        RSEG FARCODE:CODE:NOROOT(1)
?Subroutine91:
        CFI Block cfiCond47 Using cfiCommon0
        CFI NoFunction
        CFI Conditional ??CrossCallReturnLabel_143
        CFI R24 Frame(CFA_Y, -4)
        CFI R25 Frame(CFA_Y, -3)
        CFI R26 Frame(CFA_Y, -2)
        CFI R27 Frame(CFA_Y, -1)
        CFI CFA_SP SP+6
        CFI CFA_Y Y+6
        CFI Block cfiCond48 Using cfiCommon0
        CFI (cfiCond48) NoFunction
        CFI (cfiCond48) Conditional ??CrossCallReturnLabel_144
        CFI (cfiCond48) R24 Frame(CFA_Y, -4)
        CFI (cfiCond48) R25 Frame(CFA_Y, -3)
        CFI (cfiCond48) R26 Frame(CFA_Y, -2)
        CFI (cfiCond48) R27 Frame(CFA_Y, -1)
        CFI (cfiCond48) CFA_SP SP+6
        CFI (cfiCond48) CFA_Y Y+7
        CFI Block cfiCond49 Using cfiCommon0
        CFI (cfiCond49) NoFunction
        CFI (cfiCond49) Conditional ??CrossCallReturnLabel_145
        CFI (cfiCond49) R24 Frame(CFA_Y, -4)
        CFI (cfiCond49) R25 Frame(CFA_Y, -3)
        CFI (cfiCond49) R26 Frame(CFA_Y, -2)
        CFI (cfiCond49) R27 Frame(CFA_Y, -1)
        CFI (cfiCond49) CFA_SP SP+6
        CFI (cfiCond49) CFA_Y Y+6
        CFI Block cfiPicker50 Using cfiCommon1
        CFI (cfiPicker50) NoFunction
        CFI (cfiPicker50) Picker
        LD	R16, X
        CFI Block cfiCond51 Using cfiCommon0
        CFI (cfiCond51) NoFunction
        CFI (cfiCond51) Conditional ??CrossCallReturnLabel_142
        CFI (cfiCond51) R26 Frame(CFA_Y, -2)
        CFI (cfiCond51) R27 Frame(CFA_Y, -1)
        CFI (cfiCond51) CFA_SP SP+6
        CFI (cfiCond51) CFA_Y Y+4
        CFI Block cfiCond52 Using cfiCommon0
        CFI (cfiCond52) NoFunction
        CFI (cfiCond52) Conditional ??CrossCallReturnLabel_146
        CFI (cfiCond52) R24 Frame(CFA_Y, -16)
        CFI (cfiCond52) R25 Frame(CFA_Y, -15)
        CFI (cfiCond52) R26 Frame(CFA_Y, -14)
        CFI (cfiCond52) R27 Frame(CFA_Y, -13)
        CFI (cfiCond52) R4 Frame(CFA_Y, -12)
        CFI (cfiCond52) R5 Frame(CFA_Y, -11)
        CFI (cfiCond52) R6 Frame(CFA_Y, -10)
        CFI (cfiCond52) R7 Frame(CFA_Y, -9)
        CFI (cfiCond52) R8 Frame(CFA_Y, -8)
        CFI (cfiCond52) R9 Frame(CFA_Y, -7)
        CFI (cfiCond52) R10 Frame(CFA_Y, -6)
        CFI (cfiCond52) R11 Frame(CFA_Y, -5)
        CFI (cfiCond52) R12 Frame(CFA_Y, -4)
        CFI (cfiCond52) R13 Frame(CFA_Y, -3)
        CFI (cfiCond52) R14 Frame(CFA_Y, -2)
        CFI (cfiCond52) R15 Frame(CFA_Y, -1)
        CFI (cfiCond52) CFA_SP SP+6
        CFI (cfiCond52) CFA_Y Y+88
        CFI Block cfiCond53 Using cfiCommon0
        CFI (cfiCond53) NoFunction
        CFI (cfiCond53) Conditional ??CrossCallReturnLabel_147
        CFI (cfiCond53) R24 Frame(CFA_Y, -16)
        CFI (cfiCond53) R25 Frame(CFA_Y, -15)
        CFI (cfiCond53) R26 Frame(CFA_Y, -14)
        CFI (cfiCond53) R27 Frame(CFA_Y, -13)
        CFI (cfiCond53) R4 Frame(CFA_Y, -12)
        CFI (cfiCond53) R5 Frame(CFA_Y, -11)
        CFI (cfiCond53) R6 Frame(CFA_Y, -10)
        CFI (cfiCond53) R7 Frame(CFA_Y, -9)
        CFI (cfiCond53) R8 Frame(CFA_Y, -8)
        CFI (cfiCond53) R9 Frame(CFA_Y, -7)
        CFI (cfiCond53) R10 Frame(CFA_Y, -6)
        CFI (cfiCond53) R11 Frame(CFA_Y, -5)
        CFI (cfiCond53) R12 Frame(CFA_Y, -4)
        CFI (cfiCond53) R13 Frame(CFA_Y, -3)
        CFI (cfiCond53) R14 Frame(CFA_Y, -2)
        CFI (cfiCond53) R15 Frame(CFA_Y, -1)
        CFI (cfiCond53) CFA_SP SP+6
        CFI (cfiCond53) CFA_Y Y+88
??Subroutine91_0:
        STS	310, R16
        RET
        CFI EndBlock cfiCond47
        CFI EndBlock cfiCond48
        CFI EndBlock cfiCond49
        CFI EndBlock cfiPicker50
        CFI EndBlock cfiCond51
        CFI EndBlock cfiCond52
        CFI EndBlock cfiCond53

        RSEG FARCODE:CODE:NOROOT(1)
?Subroutine71:
        CFI Block cfiCond54 Using cfiCommon0
        CFI NoFunction
        CFI Conditional ??CrossCallReturnLabel_117
        CFI R24 Frame(CFA_Y, -4)
        CFI R25 Frame(CFA_Y, -3)
        CFI R26 Frame(CFA_Y, -2)
        CFI R27 Frame(CFA_Y, -1)
        CFI CFA_SP SP+6
        CFI CFA_Y Y+6
        CFI Block cfiCond55 Using cfiCommon0
        CFI (cfiCond55) NoFunction
        CFI (cfiCond55) Conditional ??CrossCallReturnLabel_118
        CFI (cfiCond55) R24 Frame(CFA_Y, -4)
        CFI (cfiCond55) R25 Frame(CFA_Y, -3)
        CFI (cfiCond55) R26 Frame(CFA_Y, -2)
        CFI (cfiCond55) R27 Frame(CFA_Y, -1)
        CFI (cfiCond55) CFA_SP SP+6
        CFI (cfiCond55) CFA_Y Y+6
        CFI Block cfiPicker56 Using cfiCommon1
        CFI (cfiPicker56) NoFunction
        CFI (cfiPicker56) Picker
        MOVW	R31:R30, R17:R16
        LDD	R19, Z+3
        ANDI	R19, 0xFE
        STD	Z+3, R19
        LDI	R19, 126
        ST	X, R19
        LDI	R19, 255
        MOVW	R31:R30, R27:R26
        STD	Z+1, R19
        LDI	R19, 3
        STD	Z+2, R19
        LDI	R19, 192
        STD	Z+3, R19
        LDI	R19, 33
        STD	Z+4, R19
        RET
        CFI EndBlock cfiCond54
        CFI EndBlock cfiCond55
        CFI EndBlock cfiPicker56

        RSEG FARCODE:CODE:NOROOT(1)
?Subroutine51:
        CFI Block cfiCond57 Using cfiCommon0
        CFI NoFunction
        CFI Conditional ??CrossCallReturnLabel_804
        CFI R24 Frame(CFA_Y, -4)
        CFI R25 Frame(CFA_Y, -3)
        CFI R26 Frame(CFA_Y, -2)
        CFI R27 Frame(CFA_Y, -1)
        CFI CFA_SP SP+6
        CFI CFA_Y Y+6
        CFI Block cfiCond58 Using cfiCommon0
        CFI (cfiCond58) NoFunction
        CFI (cfiCond58) Conditional ??CrossCallReturnLabel_805
        CFI (cfiCond58) R24 Frame(CFA_Y, -4)
        CFI (cfiCond58) R25 Frame(CFA_Y, -3)
        CFI (cfiCond58) R26 Frame(CFA_Y, -2)
        CFI (cfiCond58) R27 Frame(CFA_Y, -1)
        CFI (cfiCond58) CFA_SP SP+6
        CFI (cfiCond58) CFA_Y Y+6
        CFI Block cfiPicker59 Using cfiCommon1
        CFI (cfiPicker59) NoFunction
        CFI (cfiPicker59) Picker
        LD	R20, Y
        LDD	R21, Y+1
        MOVW	R19:R18, R27:R26
        SUBI	R18, 255
        SBCI	R19, 255
        LDI	R16, 255
        LDI	R17, 255
        RCALL	pppfcs16
        LDI	R18, 255
        LDI	R19, 255
        EOR	R18, R16
        EOR	R19, R17
        ST	Y, R18
        STD	Y+1, R19
        MOVW	R31:R30, R27:R26
        ADD	R30, R24
        ADC	R31, R25
        STD	Z+9, R18
        LDD	R18, Y+1
        STD	Z+10, R18
        LDI	R16, 126
        STD	Z+11, R16
        LDI	R30, LOW(count_tx_ppp)
        LDI	R31, (count_tx_ppp) >> 8
        ST	Z, R25
        STD	Z+1, R25
        JMP	?Subroutine248
        CFI EndBlock cfiCond57
        CFI EndBlock cfiCond58
        CFI EndBlock cfiPicker59

        RSEG FARCODE:CODE:NOROOT(1)
?Subroutine4:
        CFI Block cfiCond60 Using cfiCommon0
        CFI NoFunction
        CFI Conditional ??CrossCallReturnLabel_618
        CFI R24 Frame(CFA_Y, -4)
        CFI R25 Frame(CFA_Y, -3)
        CFI R26 Frame(CFA_Y, -2)
        CFI R27 Frame(CFA_Y, -1)
        CFI CFA_SP SP+6
        CFI CFA_Y Y+6
        CFI Block cfiCond61 Using cfiCommon0
        CFI (cfiCond61) NoFunction
        CFI (cfiCond61) Conditional ??CrossCallReturnLabel_619
        CFI (cfiCond61) R24 Frame(CFA_Y, -4)
        CFI (cfiCond61) R25 Frame(CFA_Y, -3)
        CFI (cfiCond61) R26 Frame(CFA_Y, -2)
        CFI (cfiCond61) R27 Frame(CFA_Y, -1)
        CFI (cfiCond61) CFA_SP SP+6
        CFI (cfiCond61) CFA_Y Y+6
        CFI Block cfiPicker62 Using cfiCommon1
        CFI (cfiPicker62) NoFunction
        CFI (cfiPicker62) Picker
        SBCI	R17, 255
        MOVW	R31:R30, R17:R16
        LD	R16, Z
        MOV	R24, R16
        LDI	R25, 0
        MOVW	R19:R18, R25:R24
        SUBI	R18, 252
        SBCI	R19, 255
        ST	Y, R18
        STD	Y+1, R19
        MOVW	R31:R30, R27:R26
        STD	Z+7, R19
        LD	R17, Y
        STD	Z+8, R17
        LD	R18, Y
        LDD	R19, Y+1
        SUBI	R18, 252
        SBCI	R19, 255
        ST	Y, R18
        STD	Y+1, R19
        SUBI	R18, 252
        SBCI	R19, 255
        LDI	R30, LOW(vol_tx_ppp)
        LDI	R31, (vol_tx_ppp) >> 8
        ST	Z, R18
        STD	Z+1, R19
        CFI EndBlock cfiCond60
        CFI EndBlock cfiCond61
        CFI EndBlock cfiPicker62
        REQUIRE ?Subroutine288
        ;		// Fall through to label ?Subroutine288

        RSEG FARCODE:CODE:NOROOT(1)
?Subroutine288:
        CFI Block cfiCond63 Using cfiCommon0
        CFI NoFunction
        CFI Conditional ??CrossCallReturnLabel_618
        CFI R24 Frame(CFA_Y, -4)
        CFI R25 Frame(CFA_Y, -3)
        CFI R26 Frame(CFA_Y, -2)
        CFI R27 Frame(CFA_Y, -1)
        CFI CFA_SP SP+6
        CFI CFA_Y Y+6
        CFI Block cfiCond64 Using cfiCommon0
        CFI (cfiCond64) NoFunction
        CFI (cfiCond64) Conditional ??CrossCallReturnLabel_619
        CFI (cfiCond64) R24 Frame(CFA_Y, -4)
        CFI (cfiCond64) R25 Frame(CFA_Y, -3)
        CFI (cfiCond64) R26 Frame(CFA_Y, -2)
        CFI (cfiCond64) R27 Frame(CFA_Y, -1)
        CFI (cfiCond64) CFA_SP SP+6
        CFI (cfiCond64) CFA_Y Y+6
        CFI Block cfiCond65 Using cfiCommon0
        CFI (cfiCond65) NoFunction
        CFI (cfiCond65) Conditional ??CrossCallReturnLabel_616
        CFI (cfiCond65) R24 Frame(CFA_Y, -16)
        CFI (cfiCond65) R25 Frame(CFA_Y, -15)
        CFI (cfiCond65) R26 Frame(CFA_Y, -14)
        CFI (cfiCond65) R27 Frame(CFA_Y, -13)
        CFI (cfiCond65) R4 Frame(CFA_Y, -12)
        CFI (cfiCond65) R5 Frame(CFA_Y, -11)
        CFI (cfiCond65) R6 Frame(CFA_Y, -10)
        CFI (cfiCond65) R7 Frame(CFA_Y, -9)
        CFI (cfiCond65) R8 Frame(CFA_Y, -8)
        CFI (cfiCond65) R9 Frame(CFA_Y, -7)
        CFI (cfiCond65) R10 Frame(CFA_Y, -6)
        CFI (cfiCond65) R11 Frame(CFA_Y, -5)
        CFI (cfiCond65) R12 Frame(CFA_Y, -4)
        CFI (cfiCond65) R13 Frame(CFA_Y, -3)
        CFI (cfiCond65) R14 Frame(CFA_Y, -2)
        CFI (cfiCond65) R15 Frame(CFA_Y, -1)
        CFI (cfiCond65) CFA_SP SP+6
        CFI (cfiCond65) CFA_Y Y+88
        CFI Block cfiCond66 Using cfiCommon0
        CFI (cfiCond66) NoFunction
        CFI (cfiCond66) Conditional ??CrossCallReturnLabel_617
        CFI (cfiCond66) R24 Frame(CFA_Y, -16)
        CFI (cfiCond66) R25 Frame(CFA_Y, -15)
        CFI (cfiCond66) R26 Frame(CFA_Y, -14)
        CFI (cfiCond66) R27 Frame(CFA_Y, -13)
        CFI (cfiCond66) R4 Frame(CFA_Y, -12)
        CFI (cfiCond66) R5 Frame(CFA_Y, -11)
        CFI (cfiCond66) R6 Frame(CFA_Y, -10)
        CFI (cfiCond66) R7 Frame(CFA_Y, -9)
        CFI (cfiCond66) R8 Frame(CFA_Y, -8)
        CFI (cfiCond66) R9 Frame(CFA_Y, -7)
        CFI (cfiCond66) R10 Frame(CFA_Y, -6)
        CFI (cfiCond66) R11 Frame(CFA_Y, -5)
        CFI (cfiCond66) R12 Frame(CFA_Y, -4)
        CFI (cfiCond66) R13 Frame(CFA_Y, -3)
        CFI (cfiCond66) R14 Frame(CFA_Y, -2)
        CFI (cfiCond66) R15 Frame(CFA_Y, -1)
        CFI (cfiCond66) CFA_SP SP+6
        CFI (cfiCond66) CFA_Y Y+88
        CFI Block cfiPicker67 Using cfiCommon1
        CFI (cfiPicker67) NoFunction
        CFI (cfiPicker67) Picker
        LDI	R18, 0
        RET
        CFI EndBlock cfiCond63
        CFI EndBlock cfiCond64
        CFI EndBlock cfiCond65
        CFI EndBlock cfiCond66
        CFI EndBlock cfiPicker67

        RSEG FARCODE:CODE:NOROOT(1)
//  930 void monitor_act_PAP(void)
monitor_act_PAP:
        CFI Block cfiBlock68 Using cfiCommon0
        CFI Function monitor_act_PAP
//  931       {  
        FUNCALL monitor_act_PAP, RdFromFleshToArr
        LOCFRAME CSTACK, 7, STACK
        LOCFRAME RSTACK, 3, STACK
        FUNCALL monitor_act_PAP, RdFromFleshToArr
        LOCFRAME CSTACK, 7, STACK
        LOCFRAME RSTACK, 3, STACK
        FUNCALL monitor_act_PAP, RdFromFleshToArr
        LOCFRAME CSTACK, 7, STACK
        LOCFRAME RSTACK, 3, STACK
        FUNCALL monitor_act_PAP, RdFromFleshToArr
        LOCFRAME CSTACK, 7, STACK
        LOCFRAME RSTACK, 3, STACK
        FUNCALL monitor_act_PAP, RdFromFleshToArr
        LOCFRAME CSTACK, 7, STACK
        LOCFRAME RSTACK, 3, STACK
        FUNCALL monitor_act_PAP, RdFromFleshToArr
        LOCFRAME CSTACK, 7, STACK
        LOCFRAME RSTACK, 3, STACK
        FUNCALL monitor_act_PAP, RdFromFleshToArr
        LOCFRAME CSTACK, 7, STACK
        LOCFRAME RSTACK, 3, STACK
        FUNCALL monitor_act_PAP, RdFromFleshToArr
        LOCFRAME CSTACK, 7, STACK
        LOCFRAME RSTACK, 3, STACK
        FUNCALL monitor_act_PAP, RdFromFleshToArr
        LOCFRAME CSTACK, 7, STACK
        LOCFRAME RSTACK, 3, STACK
        FUNCALL monitor_act_PAP, RdFromFleshToArr
        LOCFRAME CSTACK, 7, STACK
        LOCFRAME RSTACK, 3, STACK
        FUNCALL monitor_act_PAP, pppfcs16
        LOCFRAME CSTACK, 7, STACK
        LOCFRAME RSTACK, 3, STACK
        FUNCALL monitor_act_PAP, check_cts
        LOCFRAME CSTACK, 7, STACK
        LOCFRAME RSTACK, 3, STACK
        RCALL	?Subroutine90
        CFI R24 Frame(CFA_Y, -4)
        CFI R25 Frame(CFA_Y, -3)
        CFI R26 Frame(CFA_Y, -2)
        CFI R27 Frame(CFA_Y, -1)
        CFI CFA_Y Y+4
??CrossCallReturnLabel_134:
        SBIW	R29:R28, 3
        CFI CFA_Y Y+7
//  932        
//  933        unsigned char k;
//  934        unsigned char temp1;
//  935        
//  936        union
//  937      {
//  938       unsigned char bytes[2]; 
//  939       unsigned int word;
//  940      }temp;
//  941       
//  942        
//  943        if((pap_act_buf==SCR)&&(fl_pap.act_pap_end==1)&&(fl_lcp.act_lcp_end==1)&&(fl_ipcp.act_ipcp_end==1)&&(fl_ip.act_ip_end==1))
        LDI	R24, LOW(cnt_lcp_tm_out)
        LDI	R25, (cnt_lcp_tm_out) >> 8
        MOVW	R31:R30, R25:R24
        LDD	R16, Z+8
        CPI	R16, 6
        BREQ	$+2+2
        RJMP	??CrossCallReturnLabel_144
        LDD	R16, Z+6
        ANDI	R16, 0x01
        LDD	R17, Z+3
        ANDI	R17, 0x01
        AND	R17, R16
        LDD	R16, Z+4
        ANDI	R16, 0x01
        AND	R16, R17
        LDD	R17, Z+5
        ANDI	R17, 0x01
        AND	R17, R16
        BRNE	$+2+2
        RJMP	??CrossCallReturnLabel_144
//  944         {        
//  945                
//  946                 
//  947                 
//  948                  pap_act_buf=NO_EVENT;
        LDI	R16, 255
        STD	Z+8, R16
//  949                   
//  950                  fl_pap.act_pap_end=0;
        LDD	R16, Z+6
        ANDI	R16, 0xFE
        STD	Z+6, R16
//  951                  buf_tx_232[0]=0x7e; 
        RCALL	?Subroutine69
??CrossCallReturnLabel_112:
        LDI	R16, 126
        ST	X, R16
//  952                  buf_tx_232[1]=0xc0;
        LDI	R16, 192
        MOVW	R31:R30, R27:R26
        STD	Z+1, R16
//  953                  buf_tx_232[2]=0x23;
        LDI	R16, 35
        STD	Z+2, R16
//  954                  
//  955                  buf_tx_232[3]=CONF_REQ; 
        LDI	R16, 1
        STD	Z+3, R16
//  956                  
//  957                  i_scr_pap++;
        MOVW	R31:R30, R25:R24
        LDD	R16, Z+31
        INC	R16
        STD	Z+31, R16
//  958                  buf_tx_232[4]=i_scr_pap;         
        MOVW	R31:R30, R27:R26
        STD	Z+4, R16
//  959                  
//  960         
//  961                  if(simka==SIM_BASE)
        LDS	R16, simka
        TST	R16
        LDI	R20, 1
        LDI	R21, 0
        MOVW	R19:R18, R29:R28
        BRNE	??monitor_act_PAP_0
//  962                  {
//  963                  RdFromFleshToArr(A_C_GPRS,&temp1,1);// количество байт APN                 
        SUBI	R18, 254
        SBCI	R19, 255
        LDI	R16, 20
        RCALL	?Subroutine26
//  964                  RdFromFleshToArr(A_C_GPRS+temp1+1,&temp.bytes[0],1);// количество логина
??CrossCallReturnLabel_438:
        SUBI	R16, 235
        RCALL	?Subroutine20
//  965                  RdFromFleshToArr(A_C_GPRS+temp1+temp.bytes[0]+2,&temp.bytes[1],1);// количество пароля
??CrossCallReturnLabel_495:
        SUBI	R16, 234
        RCALL	?Subroutine39
//  966                  
//  967               
//  968                  if((temp.bytes[0]==0)||(temp.bytes[0]>MAX_VOL_US_NAME)) buf_tx_232[7]=0;
??CrossCallReturnLabel_72:
        BREQ	??monitor_act_PAP_1
        CPI	R16, 13
        BRCS	??monitor_act_PAP_2
??monitor_act_PAP_1:
        RCALL	?Subroutine45
??CrossCallReturnLabel_383:
        STD	Z+7, R16
        RJMP	??CrossCallReturnLabel_844
//  969                     else {buf_tx_232[7]=temp.bytes[0];RdFromFleshToArr(A_C_GPRS+temp1+2,&buf_tx_232[8],temp.bytes[0]);}
??monitor_act_PAP_2:
        RCALL	?Subroutine25
??CrossCallReturnLabel_436:
        SUBI	R16, 234
        RCALL	?Subroutine328
//  970                
//  971                  if((temp.bytes[1]==0)||(temp.bytes[1]>MAX_VOL_PSW)) buf_tx_232[8+buf_tx_232[7]]=0;
??CrossCallReturnLabel_844:
        LDD	R20, Y+1
        TST	R20
        BREQ	??monitor_act_PAP_3
        CPI	R20, 13
        BRCS	??monitor_act_PAP_4
??monitor_act_PAP_3:
        RCALL	?Subroutine45
??CrossCallReturnLabel_384:
        LDD	R18, Z+7
        ADD	R30, R18
        ADC	R31, R16
        STD	Z+8, R16
        RJMP	??CrossCallReturnLabel_842
//  972                     else {buf_tx_232[8+buf_tx_232[7]]=temp.bytes[1];RdFromFleshToArr(A_C_GPRS+temp1+temp.bytes[0]+3,&buf_tx_232[9+buf_tx_232[7]],temp.bytes[1]);}
??monitor_act_PAP_4:
        RCALL	?Subroutine19
??CrossCallReturnLabel_34:
        SUBI	R16, 233
        RJMP	??monitor_act_PAP_5
//  973                  }
//  974                  else   //!!!!!!!!!!dobavka
//  975                  {
//  976                  RdFromFleshToArr(A_CR_GPRS,&temp1,1);// количество байт APN                 
??monitor_act_PAP_0:
        SUBI	R18, 254
        SBCI	R19, 255
        LDI	R16, 80
        RCALL	?Subroutine26
//  977                  RdFromFleshToArr(A_CR_GPRS+temp1+1,&temp.bytes[0],1);// количество логина
??CrossCallReturnLabel_439:
        SUBI	R16, 175
        RCALL	?Subroutine20
//  978                  RdFromFleshToArr(A_CR_GPRS+temp1+temp.bytes[0]+2,&temp.bytes[1],1);// количество пароля
??CrossCallReturnLabel_496:
        SUBI	R16, 174
        RCALL	?Subroutine39
//  979                  
//  980               
//  981                  if((temp.bytes[0]==0)||(temp.bytes[0]>MAX_VOL_US_NAME)) buf_tx_232[7]=0;
??CrossCallReturnLabel_73:
        BREQ	??monitor_act_PAP_6
        CPI	R16, 13
        BRCS	??monitor_act_PAP_7
??monitor_act_PAP_6:
        RCALL	?Subroutine45
??CrossCallReturnLabel_385:
        STD	Z+7, R16
        RJMP	??CrossCallReturnLabel_843
//  982                     else {buf_tx_232[7]=temp.bytes[0];RdFromFleshToArr(A_CR_GPRS+temp1+2,&buf_tx_232[8],temp.bytes[0]);}
??monitor_act_PAP_7:
        RCALL	?Subroutine25
??CrossCallReturnLabel_437:
        SUBI	R16, 174
        RCALL	?Subroutine328
//  983                
//  984                  if((temp.bytes[1]==0)||(temp.bytes[1]>MAX_VOL_PSW)) buf_tx_232[8+buf_tx_232[7]]=0;
??CrossCallReturnLabel_843:
        LDD	R20, Y+1
        TST	R20
        BREQ	??monitor_act_PAP_3
        CPI	R20, 13
        BRCC	??monitor_act_PAP_3
//  985                     else {buf_tx_232[8+buf_tx_232[7]]=temp.bytes[1];RdFromFleshToArr(A_CR_GPRS+temp1+temp.bytes[0]+3,&buf_tx_232[9+buf_tx_232[7]],temp.bytes[1]);}
        RCALL	?Subroutine19
??CrossCallReturnLabel_35:
        SUBI	R16, 173
??monitor_act_PAP_5:
        RCALL	?Subroutine328
??CrossCallReturnLabel_842:
        MOVW	R31:R30, R27:R26
        LDD	R18, Z+7
        CALL	?Subroutine138
??CrossCallReturnLabel_230:
        LDD	R30, Z+8
        LDI	R31, 0
        CALL	??Subroutine138_0
??CrossCallReturnLabel_231:
        ADIW	R31:R30, 6
        ST	Y, R30
        STD	Y+1, R31
//  986                  }
//  987                   //!!!!!!!!!!dobavka
//  988                    
//  989                  
//  990                  
//  991                  temp.word=6+buf_tx_232[7]+buf_tx_232[8+buf_tx_232[7]];
//  992                  
//  993                 
//  994                   
//  995                  buf_tx_232[5]=temp.bytes[1]; 
        MOV	R16, R31
        MOVW	R31:R30, R27:R26
        STD	Z+5, R16
//  996                  buf_tx_232[6]=temp.bytes[0]; 
        LD	R16, Y
        STD	Z+6, R16
//  997                  
//  998                  temp.word=temp.word+2;
        CALL	??Subroutine38_1
??CrossCallReturnLabel_65:
        RCALL	?Subroutine171
??CrossCallReturnLabel_515:
        ST	Y, R16
        STD	Y+1, R17
//  999                  vol_tx_ppp=temp.word+4;
        SUBI	R16, 252
        SBCI	R17, 255
        RCALL	?Subroutine80
// 1000                   
// 1001                  if(compress_off==1)
??CrossCallReturnLabel_651:
        MOVW	R31:R30, R25:R24
        LDD	R16, Z+2
        CPI	R16, 1
        BRNE	??CrossCallReturnLabel_44
// 1002                  {
// 1003                    for (k=0;k < (vol_tx_ppp-1);k++)buf_tx_232[vol_tx_ppp+1-k]=buf_tx_232[vol_tx_ppp-1-k];
        LDI	R18, 0
        LDS	R20, vol_tx_ppp
        MOV	R21, R17
        SUBI	R20, 1
        SBCI	R21, 0
        RJMP	??monitor_act_PAP_8
??monitor_act_PAP_9:
        MOVW	R17:R16, R21:R20
        SUB	R16, R18
        SBCI	R17, 0
        RCALL	?Subroutine168
??CrossCallReturnLabel_679:
        LD	R16, Z
        RCALL	?Subroutine86
??CrossCallReturnLabel_130:
        LD	R24, Z
        LDD	R25, Z+1
        ADIW	R25:R24, 1
        SUB	R24, R18
        SBCI	R25, 0
        RCALL	?Subroutine119
??CrossCallReturnLabel_193:
        ST	Z, R16
        INC	R18
??monitor_act_PAP_8:
        MOVW	R23:R22, R19:R18
        CP	R22, R20
        CPC	R23, R21
        BRCS	??monitor_act_PAP_9
// 1004                    buf_tx_232[1]=0xff;
        RCALL	?Subroutine32
// 1005                    buf_tx_232[2]=0x03;
// 1006                    temp.word=temp.word+2;
// 1007                    vol_tx_ppp=temp.word+4;
// 1008                  }
// 1009                  
// 1010                   
// 1011 
// 1012                  temp.word=pppfcs16(PPPINITFCS16,&buf_tx_232[1],temp.word) ^ 0xffff;                  
??CrossCallReturnLabel_44:
        RCALL	?Subroutine43
// 1013                  buf_tx_232[vol_tx_ppp-3]=temp.bytes[0];
// 1014                  buf_tx_232[vol_tx_ppp-2]=temp.bytes[1];
// 1015                  
// 1016                  buf_tx_232[vol_tx_ppp-1]=0x7e; 
// 1017                  
// 1018                 
// 1019 
// 1020       
// 1021                  count_tx_ppp=0;                            
// 1022                  UCSR0A=UCSR0A | TXC;                            
// 1023                  UCSR0B=UCSR0B | TXEN;
// 1024                  UCSR0B=UCSR0B | TXCIE;
// 1025                  if(check_cts()==1) return;    
??CrossCallReturnLabel_801:
        BREQ	??CrossCallReturnLabel_144
// 1026                  
// 1027                  S2_RD;
        RCALL	?Subroutine87
// 1028                  UDR0=buf_tx_232[0];  
// 1029                  if(Regim==RG_DEBAG) UDR3=buf_tx_232[0];
??CrossCallReturnLabel_793:
        BRNE	??CrossCallReturnLabel_144
        RCALL	?Subroutine91
??CrossCallReturnLabel_144:
        ADIW	R29:R28, 3
        CFI CFA_Y Y+4
        RJMP	??Subroutine278_0
        CFI EndBlock cfiBlock68
// 1030                 
// 1031 
// 1032         }
// 1033       }

        RSEG FARCODE:CODE:NOROOT(1)
?Subroutine168:
        CFI Block cfiCond69 Using cfiCommon0
        CFI NoFunction
        CFI Conditional ??CrossCallReturnLabel_679
        CFI R24 Frame(CFA_Y, -4)
        CFI R25 Frame(CFA_Y, -3)
        CFI R26 Frame(CFA_Y, -2)
        CFI R27 Frame(CFA_Y, -1)
        CFI CFA_SP SP+6
        CFI CFA_Y Y+7
        CFI Block cfiCond70 Using cfiCommon0
        CFI (cfiCond70) NoFunction
        CFI (cfiCond70) Conditional ??CrossCallReturnLabel_680
        CFI (cfiCond70) R24 Frame(CFA_Y, -4)
        CFI (cfiCond70) R25 Frame(CFA_Y, -3)
        CFI (cfiCond70) R26 Frame(CFA_Y, -2)
        CFI (cfiCond70) R27 Frame(CFA_Y, -1)
        CFI (cfiCond70) CFA_SP SP+6
        CFI (cfiCond70) CFA_Y Y+6
        CFI Block cfiPicker71 Using cfiCommon1
        CFI (cfiPicker71) NoFunction
        CFI (cfiPicker71) Picker
        MOVW	R31:R30, R27:R26
        CFI Block cfiCond72 Using cfiCommon0
        CFI (cfiCond72) NoFunction
        CFI (cfiCond72) Conditional ??CrossCallReturnLabel_676
        CFI (cfiCond72) R24 Frame(CFA_Y, -16)
        CFI (cfiCond72) R25 Frame(CFA_Y, -15)
        CFI (cfiCond72) R26 Frame(CFA_Y, -14)
        CFI (cfiCond72) R27 Frame(CFA_Y, -13)
        CFI (cfiCond72) R4 Frame(CFA_Y, -12)
        CFI (cfiCond72) R5 Frame(CFA_Y, -11)
        CFI (cfiCond72) R6 Frame(CFA_Y, -10)
        CFI (cfiCond72) R7 Frame(CFA_Y, -9)
        CFI (cfiCond72) R8 Frame(CFA_Y, -8)
        CFI (cfiCond72) R9 Frame(CFA_Y, -7)
        CFI (cfiCond72) R10 Frame(CFA_Y, -6)
        CFI (cfiCond72) R11 Frame(CFA_Y, -5)
        CFI (cfiCond72) R12 Frame(CFA_Y, -4)
        CFI (cfiCond72) R13 Frame(CFA_Y, -3)
        CFI (cfiCond72) R14 Frame(CFA_Y, -2)
        CFI (cfiCond72) R15 Frame(CFA_Y, -1)
        CFI (cfiCond72) CFA_SP SP+6
        CFI (cfiCond72) CFA_Y Y+88
        CFI Block cfiCond73 Using cfiCommon0
        CFI (cfiCond73) NoFunction
        CFI (cfiCond73) Conditional ??CrossCallReturnLabel_677
        CFI (cfiCond73) R24 Frame(CFA_Y, -16)
        CFI (cfiCond73) R25 Frame(CFA_Y, -15)
        CFI (cfiCond73) R26 Frame(CFA_Y, -14)
        CFI (cfiCond73) R27 Frame(CFA_Y, -13)
        CFI (cfiCond73) R4 Frame(CFA_Y, -12)
        CFI (cfiCond73) R5 Frame(CFA_Y, -11)
        CFI (cfiCond73) R6 Frame(CFA_Y, -10)
        CFI (cfiCond73) R7 Frame(CFA_Y, -9)
        CFI (cfiCond73) R8 Frame(CFA_Y, -8)
        CFI (cfiCond73) R9 Frame(CFA_Y, -7)
        CFI (cfiCond73) R10 Frame(CFA_Y, -6)
        CFI (cfiCond73) R11 Frame(CFA_Y, -5)
        CFI (cfiCond73) R12 Frame(CFA_Y, -4)
        CFI (cfiCond73) R13 Frame(CFA_Y, -3)
        CFI (cfiCond73) R14 Frame(CFA_Y, -2)
        CFI (cfiCond73) R15 Frame(CFA_Y, -1)
        CFI (cfiCond73) CFA_SP SP+6
        CFI (cfiCond73) CFA_Y Y+88
        CFI Block cfiCond74 Using cfiCommon0
        CFI (cfiCond74) NoFunction
        CFI (cfiCond74) Conditional ??CrossCallReturnLabel_678
        CFI (cfiCond74) R24 Frame(CFA_Y, -16)
        CFI (cfiCond74) R25 Frame(CFA_Y, -15)
        CFI (cfiCond74) R26 Frame(CFA_Y, -14)
        CFI (cfiCond74) R27 Frame(CFA_Y, -13)
        CFI (cfiCond74) R4 Frame(CFA_Y, -12)
        CFI (cfiCond74) R5 Frame(CFA_Y, -11)
        CFI (cfiCond74) R6 Frame(CFA_Y, -10)
        CFI (cfiCond74) R7 Frame(CFA_Y, -9)
        CFI (cfiCond74) R8 Frame(CFA_Y, -8)
        CFI (cfiCond74) R9 Frame(CFA_Y, -7)
        CFI (cfiCond74) R10 Frame(CFA_Y, -6)
        CFI (cfiCond74) R11 Frame(CFA_Y, -5)
        CFI (cfiCond74) R12 Frame(CFA_Y, -4)
        CFI (cfiCond74) R13 Frame(CFA_Y, -3)
        CFI (cfiCond74) R14 Frame(CFA_Y, -2)
        CFI (cfiCond74) R15 Frame(CFA_Y, -1)
        CFI (cfiCond74) CFA_SP SP+6
        CFI (cfiCond74) CFA_Y Y+88
??Subroutine168_0:
        ADD	R30, R16
        ADC	R31, R17
        RET
        CFI EndBlock cfiCond69
        CFI EndBlock cfiCond70
        CFI EndBlock cfiPicker71
        CFI EndBlock cfiCond72
        CFI EndBlock cfiCond73
        CFI EndBlock cfiCond74

        RSEG FARCODE:CODE:NOROOT(1)
?Subroutine87:
        CFI Block cfiCond75 Using cfiCommon0
        CFI NoFunction
        CFI Conditional ??CrossCallReturnLabel_790
        CFI R24 Frame(CFA_Y, -4)
        CFI R25 Frame(CFA_Y, -3)
        CFI R26 Frame(CFA_Y, -2)
        CFI R27 Frame(CFA_Y, -1)
        CFI CFA_SP SP+6
        CFI CFA_Y Y+6
        CFI Block cfiCond76 Using cfiCommon0
        CFI (cfiCond76) NoFunction
        CFI (cfiCond76) Conditional ??CrossCallReturnLabel_791
        CFI (cfiCond76) R24 Frame(CFA_Y, -4)
        CFI (cfiCond76) R25 Frame(CFA_Y, -3)
        CFI (cfiCond76) R26 Frame(CFA_Y, -2)
        CFI (cfiCond76) R27 Frame(CFA_Y, -1)
        CFI (cfiCond76) CFA_SP SP+6
        CFI (cfiCond76) CFA_Y Y+6
        CFI Block cfiCond77 Using cfiCommon0
        CFI (cfiCond77) NoFunction
        CFI (cfiCond77) Conditional ??CrossCallReturnLabel_792
        CFI (cfiCond77) R24 Frame(CFA_Y, -4)
        CFI (cfiCond77) R25 Frame(CFA_Y, -3)
        CFI (cfiCond77) R26 Frame(CFA_Y, -2)
        CFI (cfiCond77) R27 Frame(CFA_Y, -1)
        CFI (cfiCond77) CFA_SP SP+6
        CFI (cfiCond77) CFA_Y Y+6
        CFI Block cfiCond78 Using cfiCommon0
        CFI (cfiCond78) NoFunction
        CFI (cfiCond78) Conditional ??CrossCallReturnLabel_793
        CFI (cfiCond78) R24 Frame(CFA_Y, -4)
        CFI (cfiCond78) R25 Frame(CFA_Y, -3)
        CFI (cfiCond78) R26 Frame(CFA_Y, -2)
        CFI (cfiCond78) R27 Frame(CFA_Y, -1)
        CFI (cfiCond78) CFA_SP SP+6
        CFI (cfiCond78) CFA_Y Y+7
        CFI Block cfiCond79 Using cfiCommon0
        CFI (cfiCond79) NoFunction
        CFI (cfiCond79) Conditional ??CrossCallReturnLabel_794
        CFI (cfiCond79) R24 Frame(CFA_Y, -4)
        CFI (cfiCond79) R25 Frame(CFA_Y, -3)
        CFI (cfiCond79) R26 Frame(CFA_Y, -2)
        CFI (cfiCond79) R27 Frame(CFA_Y, -1)
        CFI (cfiCond79) CFA_SP SP+6
        CFI (cfiCond79) CFA_Y Y+6
        CFI Block cfiCond80 Using cfiCommon0
        CFI (cfiCond80) NoFunction
        CFI (cfiCond80) Conditional ??CrossCallReturnLabel_795
        CFI (cfiCond80) R24 Frame(CFA_Y, -4)
        CFI (cfiCond80) R25 Frame(CFA_Y, -3)
        CFI (cfiCond80) R26 Frame(CFA_Y, -2)
        CFI (cfiCond80) R27 Frame(CFA_Y, -1)
        CFI (cfiCond80) CFA_SP SP+6
        CFI (cfiCond80) CFA_Y Y+6
        CFI Block cfiCond81 Using cfiCommon0
        CFI (cfiCond81) NoFunction
        CFI (cfiCond81) Conditional ??CrossCallReturnLabel_796
        CFI (cfiCond81) R24 Frame(CFA_Y, -4)
        CFI (cfiCond81) R25 Frame(CFA_Y, -3)
        CFI (cfiCond81) R26 Frame(CFA_Y, -2)
        CFI (cfiCond81) R27 Frame(CFA_Y, -1)
        CFI (cfiCond81) CFA_SP SP+6
        CFI (cfiCond81) CFA_Y Y+6
        CFI Block cfiPicker82 Using cfiCommon1
        CFI (cfiPicker82) NoFunction
        CFI (cfiPicker82) Picker
        SBI	0x08, 0x00
        CBI	0x08, 0x01
        LD	R16, X
        CFI EndBlock cfiCond75
        CFI EndBlock cfiCond76
        CFI EndBlock cfiCond77
        CFI EndBlock cfiCond78
        CFI EndBlock cfiCond79
        CFI EndBlock cfiCond80
        CFI EndBlock cfiCond81
        CFI EndBlock cfiPicker82
        REQUIRE ?Subroutine289
        ;		// Fall through to label ?Subroutine289

        RSEG FARCODE:CODE:NOROOT(1)
?Subroutine289:
        CFI Block cfiCond83 Using cfiCommon0
        CFI NoFunction
        CFI Conditional ??CrossCallReturnLabel_790
        CFI R24 Frame(CFA_Y, -4)
        CFI R25 Frame(CFA_Y, -3)
        CFI R26 Frame(CFA_Y, -2)
        CFI R27 Frame(CFA_Y, -1)
        CFI CFA_SP SP+6
        CFI CFA_Y Y+6
        CFI Block cfiCond84 Using cfiCommon0
        CFI (cfiCond84) NoFunction
        CFI (cfiCond84) Conditional ??CrossCallReturnLabel_791
        CFI (cfiCond84) R24 Frame(CFA_Y, -4)
        CFI (cfiCond84) R25 Frame(CFA_Y, -3)
        CFI (cfiCond84) R26 Frame(CFA_Y, -2)
        CFI (cfiCond84) R27 Frame(CFA_Y, -1)
        CFI (cfiCond84) CFA_SP SP+6
        CFI (cfiCond84) CFA_Y Y+6
        CFI Block cfiCond85 Using cfiCommon0
        CFI (cfiCond85) NoFunction
        CFI (cfiCond85) Conditional ??CrossCallReturnLabel_792
        CFI (cfiCond85) R24 Frame(CFA_Y, -4)
        CFI (cfiCond85) R25 Frame(CFA_Y, -3)
        CFI (cfiCond85) R26 Frame(CFA_Y, -2)
        CFI (cfiCond85) R27 Frame(CFA_Y, -1)
        CFI (cfiCond85) CFA_SP SP+6
        CFI (cfiCond85) CFA_Y Y+6
        CFI Block cfiCond86 Using cfiCommon0
        CFI (cfiCond86) NoFunction
        CFI (cfiCond86) Conditional ??CrossCallReturnLabel_793
        CFI (cfiCond86) R24 Frame(CFA_Y, -4)
        CFI (cfiCond86) R25 Frame(CFA_Y, -3)
        CFI (cfiCond86) R26 Frame(CFA_Y, -2)
        CFI (cfiCond86) R27 Frame(CFA_Y, -1)
        CFI (cfiCond86) CFA_SP SP+6
        CFI (cfiCond86) CFA_Y Y+7
        CFI Block cfiCond87 Using cfiCommon0
        CFI (cfiCond87) NoFunction
        CFI (cfiCond87) Conditional ??CrossCallReturnLabel_794
        CFI (cfiCond87) R24 Frame(CFA_Y, -4)
        CFI (cfiCond87) R25 Frame(CFA_Y, -3)
        CFI (cfiCond87) R26 Frame(CFA_Y, -2)
        CFI (cfiCond87) R27 Frame(CFA_Y, -1)
        CFI (cfiCond87) CFA_SP SP+6
        CFI (cfiCond87) CFA_Y Y+6
        CFI Block cfiCond88 Using cfiCommon0
        CFI (cfiCond88) NoFunction
        CFI (cfiCond88) Conditional ??CrossCallReturnLabel_795
        CFI (cfiCond88) R24 Frame(CFA_Y, -4)
        CFI (cfiCond88) R25 Frame(CFA_Y, -3)
        CFI (cfiCond88) R26 Frame(CFA_Y, -2)
        CFI (cfiCond88) R27 Frame(CFA_Y, -1)
        CFI (cfiCond88) CFA_SP SP+6
        CFI (cfiCond88) CFA_Y Y+6
        CFI Block cfiCond89 Using cfiCommon0
        CFI (cfiCond89) NoFunction
        CFI (cfiCond89) Conditional ??CrossCallReturnLabel_796
        CFI (cfiCond89) R24 Frame(CFA_Y, -4)
        CFI (cfiCond89) R25 Frame(CFA_Y, -3)
        CFI (cfiCond89) R26 Frame(CFA_Y, -2)
        CFI (cfiCond89) R27 Frame(CFA_Y, -1)
        CFI (cfiCond89) CFA_SP SP+6
        CFI (cfiCond89) CFA_Y Y+6
        CFI Block cfiCond90 Using cfiCommon0
        CFI (cfiCond90) NoFunction
        CFI (cfiCond90) Conditional ??CrossCallReturnLabel_782
        CFI (cfiCond90) R24 Frame(CFA_Y, -16)
        CFI (cfiCond90) R25 Frame(CFA_Y, -15)
        CFI (cfiCond90) R26 Frame(CFA_Y, -14)
        CFI (cfiCond90) R27 Frame(CFA_Y, -13)
        CFI (cfiCond90) R4 Frame(CFA_Y, -12)
        CFI (cfiCond90) R5 Frame(CFA_Y, -11)
        CFI (cfiCond90) R6 Frame(CFA_Y, -10)
        CFI (cfiCond90) R7 Frame(CFA_Y, -9)
        CFI (cfiCond90) R8 Frame(CFA_Y, -8)
        CFI (cfiCond90) R9 Frame(CFA_Y, -7)
        CFI (cfiCond90) R10 Frame(CFA_Y, -6)
        CFI (cfiCond90) R11 Frame(CFA_Y, -5)
        CFI (cfiCond90) R12 Frame(CFA_Y, -4)
        CFI (cfiCond90) R13 Frame(CFA_Y, -3)
        CFI (cfiCond90) R14 Frame(CFA_Y, -2)
        CFI (cfiCond90) R15 Frame(CFA_Y, -1)
        CFI (cfiCond90) CFA_SP SP+6
        CFI (cfiCond90) CFA_Y Y+88
        CFI Block cfiCond91 Using cfiCommon0
        CFI (cfiCond91) NoFunction
        CFI (cfiCond91) Conditional ??CrossCallReturnLabel_783
        CFI (cfiCond91) R24 Frame(CFA_Y, -16)
        CFI (cfiCond91) R25 Frame(CFA_Y, -15)
        CFI (cfiCond91) R26 Frame(CFA_Y, -14)
        CFI (cfiCond91) R27 Frame(CFA_Y, -13)
        CFI (cfiCond91) R4 Frame(CFA_Y, -12)
        CFI (cfiCond91) R5 Frame(CFA_Y, -11)
        CFI (cfiCond91) R6 Frame(CFA_Y, -10)
        CFI (cfiCond91) R7 Frame(CFA_Y, -9)
        CFI (cfiCond91) R8 Frame(CFA_Y, -8)
        CFI (cfiCond91) R9 Frame(CFA_Y, -7)
        CFI (cfiCond91) R10 Frame(CFA_Y, -6)
        CFI (cfiCond91) R11 Frame(CFA_Y, -5)
        CFI (cfiCond91) R12 Frame(CFA_Y, -4)
        CFI (cfiCond91) R13 Frame(CFA_Y, -3)
        CFI (cfiCond91) R14 Frame(CFA_Y, -2)
        CFI (cfiCond91) R15 Frame(CFA_Y, -1)
        CFI (cfiCond91) CFA_SP SP+6
        CFI (cfiCond91) CFA_Y Y+88
        CFI Block cfiCond92 Using cfiCommon0
        CFI (cfiCond92) NoFunction
        CFI (cfiCond92) Conditional ??CrossCallReturnLabel_784
        CFI (cfiCond92) R24 Frame(CFA_Y, -16)
        CFI (cfiCond92) R25 Frame(CFA_Y, -15)
        CFI (cfiCond92) R26 Frame(CFA_Y, -14)
        CFI (cfiCond92) R27 Frame(CFA_Y, -13)
        CFI (cfiCond92) R4 Frame(CFA_Y, -12)
        CFI (cfiCond92) R5 Frame(CFA_Y, -11)
        CFI (cfiCond92) R6 Frame(CFA_Y, -10)
        CFI (cfiCond92) R7 Frame(CFA_Y, -9)
        CFI (cfiCond92) R8 Frame(CFA_Y, -8)
        CFI (cfiCond92) R9 Frame(CFA_Y, -7)
        CFI (cfiCond92) R10 Frame(CFA_Y, -6)
        CFI (cfiCond92) R11 Frame(CFA_Y, -5)
        CFI (cfiCond92) R12 Frame(CFA_Y, -4)
        CFI (cfiCond92) R13 Frame(CFA_Y, -3)
        CFI (cfiCond92) R14 Frame(CFA_Y, -2)
        CFI (cfiCond92) R15 Frame(CFA_Y, -1)
        CFI (cfiCond92) CFA_SP SP+6
        CFI (cfiCond92) CFA_Y Y+88
        CFI Block cfiPicker93 Using cfiCommon1
        CFI (cfiPicker93) NoFunction
        CFI (cfiPicker93) Picker
        STS	198, R16
        CFI Block cfiCond94 Using cfiCommon0
        CFI (cfiCond94) NoFunction
        CFI (cfiCond94) Conditional ??CrossCallReturnLabel_806
        CFI (cfiCond94) R26 Frame(CFA_Y, -2)
        CFI (cfiCond94) R27 Frame(CFA_Y, -1)
        CFI (cfiCond94) CFA_SP SP+6
        CFI (cfiCond94) CFA_Y Y+4
        CFI Block cfiCond95 Using cfiCommon0
        CFI (cfiCond95) NoFunction
        CFI (cfiCond95) Conditional ??CrossCallReturnLabel_773
        CFI (cfiCond95) R24 Frame(CFA_Y, -16)
        CFI (cfiCond95) R25 Frame(CFA_Y, -15)
        CFI (cfiCond95) R26 Frame(CFA_Y, -14)
        CFI (cfiCond95) R27 Frame(CFA_Y, -13)
        CFI (cfiCond95) R4 Frame(CFA_Y, -12)
        CFI (cfiCond95) R5 Frame(CFA_Y, -11)
        CFI (cfiCond95) R6 Frame(CFA_Y, -10)
        CFI (cfiCond95) R7 Frame(CFA_Y, -9)
        CFI (cfiCond95) R8 Frame(CFA_Y, -8)
        CFI (cfiCond95) R9 Frame(CFA_Y, -7)
        CFI (cfiCond95) R10 Frame(CFA_Y, -6)
        CFI (cfiCond95) R11 Frame(CFA_Y, -5)
        CFI (cfiCond95) R12 Frame(CFA_Y, -4)
        CFI (cfiCond95) R13 Frame(CFA_Y, -3)
        CFI (cfiCond95) R14 Frame(CFA_Y, -2)
        CFI (cfiCond95) R15 Frame(CFA_Y, -1)
        CFI (cfiCond95) CFA_SP SP+6
        CFI (cfiCond95) CFA_Y Y+88
        CFI Block cfiCond96 Using cfiCommon0
        CFI (cfiCond96) NoFunction
        CFI (cfiCond96) Conditional ??CrossCallReturnLabel_774
        CFI (cfiCond96) R24 Frame(CFA_Y, -16)
        CFI (cfiCond96) R25 Frame(CFA_Y, -15)
        CFI (cfiCond96) R26 Frame(CFA_Y, -14)
        CFI (cfiCond96) R27 Frame(CFA_Y, -13)
        CFI (cfiCond96) R4 Frame(CFA_Y, -12)
        CFI (cfiCond96) R5 Frame(CFA_Y, -11)
        CFI (cfiCond96) R6 Frame(CFA_Y, -10)
        CFI (cfiCond96) R7 Frame(CFA_Y, -9)
        CFI (cfiCond96) R8 Frame(CFA_Y, -8)
        CFI (cfiCond96) R9 Frame(CFA_Y, -7)
        CFI (cfiCond96) R10 Frame(CFA_Y, -6)
        CFI (cfiCond96) R11 Frame(CFA_Y, -5)
        CFI (cfiCond96) R12 Frame(CFA_Y, -4)
        CFI (cfiCond96) R13 Frame(CFA_Y, -3)
        CFI (cfiCond96) R14 Frame(CFA_Y, -2)
        CFI (cfiCond96) R15 Frame(CFA_Y, -1)
        CFI (cfiCond96) CFA_SP SP+6
        CFI (cfiCond96) CFA_Y Y+88
        CFI Block cfiCond97 Using cfiCommon0
        CFI (cfiCond97) NoFunction
        CFI (cfiCond97) Conditional ??CrossCallReturnLabel_775
        CFI (cfiCond97) R24 Frame(CFA_Y, -16)
        CFI (cfiCond97) R25 Frame(CFA_Y, -15)
        CFI (cfiCond97) R26 Frame(CFA_Y, -14)
        CFI (cfiCond97) R27 Frame(CFA_Y, -13)
        CFI (cfiCond97) R4 Frame(CFA_Y, -12)
        CFI (cfiCond97) R5 Frame(CFA_Y, -11)
        CFI (cfiCond97) R6 Frame(CFA_Y, -10)
        CFI (cfiCond97) R7 Frame(CFA_Y, -9)
        CFI (cfiCond97) R8 Frame(CFA_Y, -8)
        CFI (cfiCond97) R9 Frame(CFA_Y, -7)
        CFI (cfiCond97) R10 Frame(CFA_Y, -6)
        CFI (cfiCond97) R11 Frame(CFA_Y, -5)
        CFI (cfiCond97) R12 Frame(CFA_Y, -4)
        CFI (cfiCond97) R13 Frame(CFA_Y, -3)
        CFI (cfiCond97) R14 Frame(CFA_Y, -2)
        CFI (cfiCond97) R15 Frame(CFA_Y, -1)
        CFI (cfiCond97) CFA_SP SP+6
        CFI (cfiCond97) CFA_Y Y+88
??Subroutine289_0:
        LDS	R16, Regim
        JMP	??Subroutine248_0
        CFI EndBlock cfiCond83
        CFI EndBlock cfiCond84
        CFI EndBlock cfiCond85
        CFI EndBlock cfiCond86
        CFI EndBlock cfiCond87
        CFI EndBlock cfiCond88
        CFI EndBlock cfiCond89
        CFI EndBlock cfiCond90
        CFI EndBlock cfiCond91
        CFI EndBlock cfiCond92
        CFI EndBlock cfiPicker93
        CFI EndBlock cfiCond94
        CFI EndBlock cfiCond95
        CFI EndBlock cfiCond96
        CFI EndBlock cfiCond97

        RSEG FARCODE:CODE:NOROOT(1)
?Subroutine86:
        CFI Block cfiCond98 Using cfiCommon0
        CFI NoFunction
        CFI Conditional ??CrossCallReturnLabel_128
        CFI R24 Frame(CFA_Y, -4)
        CFI R25 Frame(CFA_Y, -3)
        CFI R26 Frame(CFA_Y, -2)
        CFI R27 Frame(CFA_Y, -1)
        CFI CFA_SP SP+6
        CFI CFA_Y Y+6
        CFI Block cfiCond99 Using cfiCommon0
        CFI (cfiCond99) NoFunction
        CFI (cfiCond99) Conditional ??CrossCallReturnLabel_129
        CFI (cfiCond99) R24 Frame(CFA_Y, -4)
        CFI (cfiCond99) R25 Frame(CFA_Y, -3)
        CFI (cfiCond99) R26 Frame(CFA_Y, -2)
        CFI (cfiCond99) R27 Frame(CFA_Y, -1)
        CFI (cfiCond99) CFA_SP SP+6
        CFI (cfiCond99) CFA_Y Y+6
        CFI Block cfiCond100 Using cfiCommon0
        CFI (cfiCond100) NoFunction
        CFI (cfiCond100) Conditional ??CrossCallReturnLabel_130
        CFI (cfiCond100) R24 Frame(CFA_Y, -4)
        CFI (cfiCond100) R25 Frame(CFA_Y, -3)
        CFI (cfiCond100) R26 Frame(CFA_Y, -2)
        CFI (cfiCond100) R27 Frame(CFA_Y, -1)
        CFI (cfiCond100) CFA_SP SP+6
        CFI (cfiCond100) CFA_Y Y+7
        CFI Block cfiCond101 Using cfiCommon0
        CFI (cfiCond101) NoFunction
        CFI (cfiCond101) Conditional ??CrossCallReturnLabel_131
        CFI (cfiCond101) R24 Frame(CFA_Y, -4)
        CFI (cfiCond101) R25 Frame(CFA_Y, -3)
        CFI (cfiCond101) R26 Frame(CFA_Y, -2)
        CFI (cfiCond101) R27 Frame(CFA_Y, -1)
        CFI (cfiCond101) CFA_SP SP+6
        CFI (cfiCond101) CFA_Y Y+6
        CFI Block cfiCond102 Using cfiCommon0
        CFI (cfiCond102) NoFunction
        CFI (cfiCond102) Conditional ??CrossCallReturnLabel_132
        CFI (cfiCond102) R24 Frame(CFA_Y, -4)
        CFI (cfiCond102) R25 Frame(CFA_Y, -3)
        CFI (cfiCond102) R26 Frame(CFA_Y, -2)
        CFI (cfiCond102) R27 Frame(CFA_Y, -1)
        CFI (cfiCond102) CFA_SP SP+6
        CFI (cfiCond102) CFA_Y Y+6
        CFI Block cfiPicker103 Using cfiCommon1
        CFI (cfiPicker103) NoFunction
        CFI (cfiPicker103) Picker
        LDI	R30, LOW(vol_tx_ppp)
        LDI	R31, (vol_tx_ppp) >> 8
        RET
        CFI EndBlock cfiCond98
        CFI EndBlock cfiCond99
        CFI EndBlock cfiCond100
        CFI EndBlock cfiCond101
        CFI EndBlock cfiCond102
        CFI EndBlock cfiPicker103

        RSEG FARCODE:CODE:NOROOT(1)
?Subroutine69:
        CFI Block cfiCond104 Using cfiCommon0
        CFI NoFunction
        CFI Conditional ??CrossCallReturnLabel_110
        CFI R26 Frame(CFA_Y, -2)
        CFI R27 Frame(CFA_Y, -1)
        CFI CFA_SP SP+6
        CFI CFA_Y Y+4
        CFI Block cfiCond105 Using cfiCommon0
        CFI (cfiCond105) NoFunction
        CFI (cfiCond105) Conditional ??CrossCallReturnLabel_111
        CFI (cfiCond105) R24 Frame(CFA_Y, -4)
        CFI (cfiCond105) R25 Frame(CFA_Y, -3)
        CFI (cfiCond105) R26 Frame(CFA_Y, -2)
        CFI (cfiCond105) R27 Frame(CFA_Y, -1)
        CFI (cfiCond105) CFA_SP SP+6
        CFI (cfiCond105) CFA_Y Y+6
        CFI Block cfiCond106 Using cfiCommon0
        CFI (cfiCond106) NoFunction
        CFI (cfiCond106) Conditional ??CrossCallReturnLabel_112
        CFI (cfiCond106) R24 Frame(CFA_Y, -4)
        CFI (cfiCond106) R25 Frame(CFA_Y, -3)
        CFI (cfiCond106) R26 Frame(CFA_Y, -2)
        CFI (cfiCond106) R27 Frame(CFA_Y, -1)
        CFI (cfiCond106) CFA_SP SP+6
        CFI (cfiCond106) CFA_Y Y+7
        CFI Block cfiCond107 Using cfiCommon0
        CFI (cfiCond107) NoFunction
        CFI (cfiCond107) Conditional ??CrossCallReturnLabel_113
        CFI (cfiCond107) R24 Frame(CFA_Y, -4)
        CFI (cfiCond107) R25 Frame(CFA_Y, -3)
        CFI (cfiCond107) R26 Frame(CFA_Y, -2)
        CFI (cfiCond107) R27 Frame(CFA_Y, -1)
        CFI (cfiCond107) CFA_SP SP+6
        CFI (cfiCond107) CFA_Y Y+6
        CFI Block cfiCond108 Using cfiCommon0
        CFI (cfiCond108) NoFunction
        CFI (cfiCond108) Conditional ??CrossCallReturnLabel_114
        CFI (cfiCond108) R26 Frame(CFA_Y, -2)
        CFI (cfiCond108) R27 Frame(CFA_Y, -1)
        CFI (cfiCond108) CFA_SP SP+6
        CFI (cfiCond108) CFA_Y Y+2
        CFI Block cfiPicker109 Using cfiCommon1
        CFI (cfiPicker109) NoFunction
        CFI (cfiPicker109) Picker
        LDI	R26, LOW(buf_tx_232)
        LDI	R27, (buf_tx_232) >> 8
        RET
        CFI EndBlock cfiCond104
        CFI EndBlock cfiCond105
        CFI EndBlock cfiCond106
        CFI EndBlock cfiCond107
        CFI EndBlock cfiCond108
        CFI EndBlock cfiPicker109

        RSEG FARCODE:CODE:NOROOT(1)
?Subroutine43:
        CFI Block cfiCond110 Using cfiCommon0
        CFI NoFunction
        CFI Conditional ??CrossCallReturnLabel_801
        CFI R24 Frame(CFA_Y, -4)
        CFI R25 Frame(CFA_Y, -3)
        CFI R26 Frame(CFA_Y, -2)
        CFI R27 Frame(CFA_Y, -1)
        CFI CFA_SP SP+6
        CFI CFA_Y Y+7
        CFI Block cfiCond111 Using cfiCommon0
        CFI (cfiCond111) NoFunction
        CFI (cfiCond111) Conditional ??CrossCallReturnLabel_802
        CFI (cfiCond111) R24 Frame(CFA_Y, -4)
        CFI (cfiCond111) R25 Frame(CFA_Y, -3)
        CFI (cfiCond111) R26 Frame(CFA_Y, -2)
        CFI (cfiCond111) R27 Frame(CFA_Y, -1)
        CFI (cfiCond111) CFA_SP SP+6
        CFI (cfiCond111) CFA_Y Y+6
        CFI Block cfiPicker112 Using cfiCommon1
        CFI (cfiPicker112) NoFunction
        CFI (cfiPicker112) Picker
        LD	R20, Y
        LDD	R21, Y+1
        MOVW	R19:R18, R27:R26
        SUBI	R18, 255
        SBCI	R19, 255
        LDI	R16, 255
        LDI	R17, 255
        RCALL	pppfcs16
        LDI	R18, 255
        LDI	R19, 255
        EOR	R18, R16
        EOR	R19, R17
        ST	Y, R18
        STD	Y+1, R19
        LDI	R30, LOW(vol_tx_ppp)
        LDI	R31, (vol_tx_ppp) >> 8
        LD	R16, Z
        LDD	R17, Z+1
        MOVW	R31:R30, R27:R26
        ADD	R30, R16
        ADC	R31, R17
        SBIW	R31:R30, 3
        ST	Z, R18
        LDD	R18, Y+1
        STD	Z+1, R18
        LDI	R16, 126
        STD	Z+2, R16
        CFI Block cfiCond113 Using cfiCommon0
        CFI (cfiCond113) NoFunction
        CFI (cfiCond113) Conditional ??CrossCallReturnLabel_803
        CFI (cfiCond113) R24 Frame(CFA_Y, -4)
        CFI (cfiCond113) R25 Frame(CFA_Y, -3)
        CFI (cfiCond113) R26 Frame(CFA_Y, -2)
        CFI (cfiCond113) R27 Frame(CFA_Y, -1)
        CFI (cfiCond113) CFA_SP SP+6
        CFI (cfiCond113) CFA_Y Y+6
??Subroutine43_0:
        LDI	R16, 0
        LDI	R30, LOW(count_tx_ppp)
        LDI	R31, (count_tx_ppp) >> 8
        ST	Z, R16
        STD	Z+1, R16
        RJMP	?Subroutine298
        CFI EndBlock cfiCond110
        CFI EndBlock cfiCond111
        CFI EndBlock cfiPicker112
        CFI EndBlock cfiCond113

        RSEG FARCODE:CODE:NOROOT(1)
?Subroutine39:
        CFI Block cfiCond114 Using cfiCommon0
        CFI NoFunction
        CFI Conditional ??CrossCallReturnLabel_72
        CFI R24 Frame(CFA_Y, -4)
        CFI R25 Frame(CFA_Y, -3)
        CFI R26 Frame(CFA_Y, -2)
        CFI R27 Frame(CFA_Y, -1)
        CFI CFA_SP SP+6
        CFI CFA_Y Y+7
        CFI Block cfiCond115 Using cfiCommon0
        CFI (cfiCond115) NoFunction
        CFI (cfiCond115) Conditional ??CrossCallReturnLabel_73
        CFI (cfiCond115) R24 Frame(CFA_Y, -4)
        CFI (cfiCond115) R25 Frame(CFA_Y, -3)
        CFI (cfiCond115) R26 Frame(CFA_Y, -2)
        CFI (cfiCond115) R27 Frame(CFA_Y, -1)
        CFI (cfiCond115) CFA_SP SP+6
        CFI (cfiCond115) CFA_Y Y+7
        CFI Block cfiPicker116 Using cfiCommon1
        CFI (cfiPicker116) NoFunction
        CFI (cfiPicker116) Picker
        SBCI	R17, 255
        CALL	RdFromFleshToArr
        LD	R16, Y
        TST	R16
        RET
        CFI EndBlock cfiCond114
        CFI EndBlock cfiCond115
        CFI EndBlock cfiPicker116

        RSEG FARCODE:CODE:NOROOT(1)
?Subroutine26:
        CFI Block cfiCond117 Using cfiCommon0
        CFI NoFunction
        CFI Conditional ??CrossCallReturnLabel_438
        CFI R24 Frame(CFA_Y, -4)
        CFI R25 Frame(CFA_Y, -3)
        CFI R26 Frame(CFA_Y, -2)
        CFI R27 Frame(CFA_Y, -1)
        CFI CFA_SP SP+6
        CFI CFA_Y Y+7
        CFI Block cfiCond118 Using cfiCommon0
        CFI (cfiCond118) NoFunction
        CFI (cfiCond118) Conditional ??CrossCallReturnLabel_439
        CFI (cfiCond118) R24 Frame(CFA_Y, -4)
        CFI (cfiCond118) R25 Frame(CFA_Y, -3)
        CFI (cfiCond118) R26 Frame(CFA_Y, -2)
        CFI (cfiCond118) R27 Frame(CFA_Y, -1)
        CFI (cfiCond118) CFA_SP SP+6
        CFI (cfiCond118) CFA_Y Y+7
        CFI Block cfiPicker119 Using cfiCommon1
        CFI (cfiPicker119) NoFunction
        CFI (cfiPicker119) Picker
        LDI	R17, 0
        CALL	RdFromFleshToArr
        LDI	R20, 1
        LDI	R21, 0
        MOVW	R19:R18, R29:R28
        CFI EndBlock cfiCond117
        CFI EndBlock cfiCond118
        CFI EndBlock cfiPicker119
        REQUIRE ?Subroutine258
        ;		// Fall through to label ?Subroutine258

        RSEG FARCODE:CODE:NOROOT(1)
?Subroutine258:
        CFI Block cfiCond120 Using cfiCommon0
        CFI NoFunction
        CFI Conditional ??CrossCallReturnLabel_438
        CFI R24 Frame(CFA_Y, -4)
        CFI R25 Frame(CFA_Y, -3)
        CFI R26 Frame(CFA_Y, -2)
        CFI R27 Frame(CFA_Y, -1)
        CFI CFA_SP SP+6
        CFI CFA_Y Y+7
        CFI Block cfiCond121 Using cfiCommon0
        CFI (cfiCond121) NoFunction
        CFI (cfiCond121) Conditional ??CrossCallReturnLabel_439
        CFI (cfiCond121) R24 Frame(CFA_Y, -4)
        CFI (cfiCond121) R25 Frame(CFA_Y, -3)
        CFI (cfiCond121) R26 Frame(CFA_Y, -2)
        CFI (cfiCond121) R27 Frame(CFA_Y, -1)
        CFI (cfiCond121) CFA_SP SP+6
        CFI (cfiCond121) CFA_Y Y+7
        CFI Block cfiCond122 Using cfiCommon0
        CFI (cfiCond122) NoFunction
        CFI (cfiCond122) Conditional ??CrossCallReturnLabel_436
        CFI (cfiCond122) R24 Frame(CFA_Y, -4)
        CFI (cfiCond122) R25 Frame(CFA_Y, -3)
        CFI (cfiCond122) R26 Frame(CFA_Y, -2)
        CFI (cfiCond122) R27 Frame(CFA_Y, -1)
        CFI (cfiCond122) CFA_SP SP+6
        CFI (cfiCond122) CFA_Y Y+7
        CFI Block cfiCond123 Using cfiCommon0
        CFI (cfiCond123) NoFunction
        CFI (cfiCond123) Conditional ??CrossCallReturnLabel_437
        CFI (cfiCond123) R24 Frame(CFA_Y, -4)
        CFI (cfiCond123) R25 Frame(CFA_Y, -3)
        CFI (cfiCond123) R26 Frame(CFA_Y, -2)
        CFI (cfiCond123) R27 Frame(CFA_Y, -1)
        CFI (cfiCond123) CFA_SP SP+6
        CFI (cfiCond123) CFA_Y Y+7
        CFI Block cfiPicker124 Using cfiCommon1
        CFI (cfiPicker124) NoFunction
        CFI (cfiPicker124) Picker
        LDD	R16, Y+2
        LDI	R17, 0
        RET
        CFI EndBlock cfiCond120
        CFI EndBlock cfiCond121
        CFI EndBlock cfiCond122
        CFI EndBlock cfiCond123
        CFI EndBlock cfiPicker124

        RSEG FARCODE:CODE:NOROOT(1)
?Subroutine25:
        CFI Block cfiCond125 Using cfiCommon0
        CFI NoFunction
        CFI Conditional ??CrossCallReturnLabel_436
        CFI R24 Frame(CFA_Y, -4)
        CFI R25 Frame(CFA_Y, -3)
        CFI R26 Frame(CFA_Y, -2)
        CFI R27 Frame(CFA_Y, -1)
        CFI CFA_SP SP+6
        CFI CFA_Y Y+7
        CFI Block cfiCond126 Using cfiCommon0
        CFI (cfiCond126) NoFunction
        CFI (cfiCond126) Conditional ??CrossCallReturnLabel_437
        CFI (cfiCond126) R24 Frame(CFA_Y, -4)
        CFI (cfiCond126) R25 Frame(CFA_Y, -3)
        CFI (cfiCond126) R26 Frame(CFA_Y, -2)
        CFI (cfiCond126) R27 Frame(CFA_Y, -1)
        CFI (cfiCond126) CFA_SP SP+6
        CFI (cfiCond126) CFA_Y Y+7
        CFI Block cfiPicker127 Using cfiCommon1
        CFI (cfiPicker127) NoFunction
        CFI (cfiPicker127) Picker
        MOVW	R31:R30, R27:R26
        STD	Z+7, R16
        LD	R20, Y
        LDI	R21, 0
        MOVW	R19:R18, R27:R26
        SUBI	R18, 248
        SBCI	R19, 255
        RJMP	?Subroutine258
        CFI EndBlock cfiCond125
        CFI EndBlock cfiCond126
        CFI EndBlock cfiPicker127

        RSEG FARCODE:CODE:NOROOT(1)
?Subroutine20:
        CFI Block cfiCond128 Using cfiCommon0
        CFI NoFunction
        CFI Conditional ??CrossCallReturnLabel_495
        CFI R24 Frame(CFA_Y, -4)
        CFI R25 Frame(CFA_Y, -3)
        CFI R26 Frame(CFA_Y, -2)
        CFI R27 Frame(CFA_Y, -1)
        CFI CFA_SP SP+6
        CFI CFA_Y Y+7
        CFI Block cfiCond129 Using cfiCommon0
        CFI (cfiCond129) NoFunction
        CFI (cfiCond129) Conditional ??CrossCallReturnLabel_496
        CFI (cfiCond129) R24 Frame(CFA_Y, -4)
        CFI (cfiCond129) R25 Frame(CFA_Y, -3)
        CFI (cfiCond129) R26 Frame(CFA_Y, -2)
        CFI (cfiCond129) R27 Frame(CFA_Y, -1)
        CFI (cfiCond129) CFA_SP SP+6
        CFI (cfiCond129) CFA_Y Y+7
        CFI Block cfiPicker130 Using cfiCommon1
        CFI (cfiPicker130) NoFunction
        CFI (cfiPicker130) Picker
        SBCI	R17, 255
        CALL	RdFromFleshToArr
        LDI	R20, 1
        LDI	R21, 0
        MOVW	R19:R18, R29:R28
        SUBI	R18, 255
        SBCI	R19, 255
        LDD	R22, Y+2
        LD	R16, Y
        LDI	R17, 0
        ADD	R16, R22
        CFI EndBlock cfiCond128
        CFI EndBlock cfiCond129
        CFI EndBlock cfiPicker130
        REQUIRE ?Subroutine267
        ;		// Fall through to label ?Subroutine267

        RSEG FARCODE:CODE:NOROOT(1)
?Subroutine267:
        CFI Block cfiCond131 Using cfiCommon0
        CFI NoFunction
        CFI Conditional ??CrossCallReturnLabel_495
        CFI R24 Frame(CFA_Y, -4)
        CFI R25 Frame(CFA_Y, -3)
        CFI R26 Frame(CFA_Y, -2)
        CFI R27 Frame(CFA_Y, -1)
        CFI CFA_SP SP+6
        CFI CFA_Y Y+7
        CFI Block cfiCond132 Using cfiCommon0
        CFI (cfiCond132) NoFunction
        CFI (cfiCond132) Conditional ??CrossCallReturnLabel_496
        CFI (cfiCond132) R24 Frame(CFA_Y, -4)
        CFI (cfiCond132) R25 Frame(CFA_Y, -3)
        CFI (cfiCond132) R26 Frame(CFA_Y, -2)
        CFI (cfiCond132) R27 Frame(CFA_Y, -1)
        CFI (cfiCond132) CFA_SP SP+6
        CFI (cfiCond132) CFA_Y Y+7
        CFI Block cfiCond133 Using cfiCommon0
        CFI (cfiCond133) NoFunction
        CFI (cfiCond133) Conditional ??CrossCallReturnLabel_497
        CFI (cfiCond133) R24 Frame(CFA_Y, -4)
        CFI (cfiCond133) R25 Frame(CFA_Y, -3)
        CFI (cfiCond133) R26 Frame(CFA_Y, -2)
        CFI (cfiCond133) R27 Frame(CFA_Y, -1)
        CFI (cfiCond133) CFA_SP SP+6
        CFI (cfiCond133) CFA_Y Y+4
        CFI Block cfiCond134 Using cfiCommon0
        CFI (cfiCond134) NoFunction
        CFI (cfiCond134) Conditional ??CrossCallReturnLabel_498
        CFI (cfiCond134) R24 Frame(CFA_Y, -16)
        CFI (cfiCond134) R25 Frame(CFA_Y, -15)
        CFI (cfiCond134) R26 Frame(CFA_Y, -14)
        CFI (cfiCond134) R27 Frame(CFA_Y, -13)
        CFI (cfiCond134) R4 Frame(CFA_Y, -12)
        CFI (cfiCond134) R5 Frame(CFA_Y, -11)
        CFI (cfiCond134) R6 Frame(CFA_Y, -10)
        CFI (cfiCond134) R7 Frame(CFA_Y, -9)
        CFI (cfiCond134) R8 Frame(CFA_Y, -8)
        CFI (cfiCond134) R9 Frame(CFA_Y, -7)
        CFI (cfiCond134) R10 Frame(CFA_Y, -6)
        CFI (cfiCond134) R11 Frame(CFA_Y, -5)
        CFI (cfiCond134) R12 Frame(CFA_Y, -4)
        CFI (cfiCond134) R13 Frame(CFA_Y, -3)
        CFI (cfiCond134) R14 Frame(CFA_Y, -2)
        CFI (cfiCond134) R15 Frame(CFA_Y, -1)
        CFI (cfiCond134) CFA_SP SP+6
        CFI (cfiCond134) CFA_Y Y+88
        CFI Block cfiCond135 Using cfiCommon0
        CFI (cfiCond135) NoFunction
        CFI (cfiCond135) Conditional ??CrossCallReturnLabel_499
        CFI (cfiCond135) R24 Frame(CFA_Y, -16)
        CFI (cfiCond135) R25 Frame(CFA_Y, -15)
        CFI (cfiCond135) R26 Frame(CFA_Y, -14)
        CFI (cfiCond135) R27 Frame(CFA_Y, -13)
        CFI (cfiCond135) R4 Frame(CFA_Y, -12)
        CFI (cfiCond135) R5 Frame(CFA_Y, -11)
        CFI (cfiCond135) R6 Frame(CFA_Y, -10)
        CFI (cfiCond135) R7 Frame(CFA_Y, -9)
        CFI (cfiCond135) R8 Frame(CFA_Y, -8)
        CFI (cfiCond135) R9 Frame(CFA_Y, -7)
        CFI (cfiCond135) R10 Frame(CFA_Y, -6)
        CFI (cfiCond135) R11 Frame(CFA_Y, -5)
        CFI (cfiCond135) R12 Frame(CFA_Y, -4)
        CFI (cfiCond135) R13 Frame(CFA_Y, -3)
        CFI (cfiCond135) R14 Frame(CFA_Y, -2)
        CFI (cfiCond135) R15 Frame(CFA_Y, -1)
        CFI (cfiCond135) CFA_SP SP+6
        CFI (cfiCond135) CFA_Y Y+88
        CFI Block cfiCond136 Using cfiCommon0
        CFI (cfiCond136) NoFunction
        CFI (cfiCond136) Conditional ??CrossCallReturnLabel_500
        CFI (cfiCond136) R24 Frame(CFA_Y, -16)
        CFI (cfiCond136) R25 Frame(CFA_Y, -15)
        CFI (cfiCond136) R26 Frame(CFA_Y, -14)
        CFI (cfiCond136) R27 Frame(CFA_Y, -13)
        CFI (cfiCond136) R4 Frame(CFA_Y, -12)
        CFI (cfiCond136) R5 Frame(CFA_Y, -11)
        CFI (cfiCond136) R6 Frame(CFA_Y, -10)
        CFI (cfiCond136) R7 Frame(CFA_Y, -9)
        CFI (cfiCond136) R8 Frame(CFA_Y, -8)
        CFI (cfiCond136) R9 Frame(CFA_Y, -7)
        CFI (cfiCond136) R10 Frame(CFA_Y, -6)
        CFI (cfiCond136) R11 Frame(CFA_Y, -5)
        CFI (cfiCond136) R12 Frame(CFA_Y, -4)
        CFI (cfiCond136) R13 Frame(CFA_Y, -3)
        CFI (cfiCond136) R14 Frame(CFA_Y, -2)
        CFI (cfiCond136) R15 Frame(CFA_Y, -1)
        CFI (cfiCond136) CFA_SP SP+6
        CFI (cfiCond136) CFA_Y Y+88
        CFI Block cfiPicker137 Using cfiCommon1
        CFI (cfiPicker137) NoFunction
        CFI (cfiPicker137) Picker
        ADC	R17, R21
        RET
        CFI EndBlock cfiCond131
        CFI EndBlock cfiCond132
        CFI EndBlock cfiCond133
        CFI EndBlock cfiCond134
        CFI EndBlock cfiCond135
        CFI EndBlock cfiCond136
        CFI EndBlock cfiPicker137

        RSEG FARCODE:CODE:NOROOT(1)
?Subroutine19:
        CFI Block cfiCond138 Using cfiCommon0
        CFI NoFunction
        CFI Conditional ??CrossCallReturnLabel_34
        CFI R24 Frame(CFA_Y, -4)
        CFI R25 Frame(CFA_Y, -3)
        CFI R26 Frame(CFA_Y, -2)
        CFI R27 Frame(CFA_Y, -1)
        CFI CFA_SP SP+6
        CFI CFA_Y Y+7
        CFI Block cfiCond139 Using cfiCommon0
        CFI (cfiCond139) NoFunction
        CFI (cfiCond139) Conditional ??CrossCallReturnLabel_35
        CFI (cfiCond139) R24 Frame(CFA_Y, -4)
        CFI (cfiCond139) R25 Frame(CFA_Y, -3)
        CFI (cfiCond139) R26 Frame(CFA_Y, -2)
        CFI (cfiCond139) R27 Frame(CFA_Y, -1)
        CFI (cfiCond139) CFA_SP SP+6
        CFI (cfiCond139) CFA_Y Y+7
        CFI Block cfiPicker140 Using cfiCommon1
        CFI (cfiPicker140) NoFunction
        CFI (cfiPicker140) Picker
        MOVW	R31:R30, R27:R26
        LDD	R16, Z+7
        LDI	R17, 0
        ADD	R30, R16
        ADC	R31, R17
        STD	Z+8, R20
        LDI	R21, 0
        MOVW	R31:R30, R27:R26
        LDD	R16, Z+7
        MOVW	R19:R18, R27:R26
        ADD	R18, R16
        ADC	R19, R21
        SUBI	R18, 247
        SBCI	R19, 255
        LDD	R22, Y+2
        LD	R16, Y
        ADD	R16, R22
        ADC	R17, R17
        RET
        CFI EndBlock cfiCond138
        CFI EndBlock cfiCond139
        CFI EndBlock cfiPicker140
// 1034 
// 1035 
// 1036 
// 1037 

        RSEG FARCODE:CODE:NOROOT(1)
// 1038 void monitor_event_PAP(void)
monitor_event_PAP:
        CFI Block cfiBlock141 Using cfiCommon0
        CFI Function monitor_event_PAP
// 1039     {
        MOVW	R19:R18, R27:R26
// 1040      if (fl_pap.up==1)      //UP
        RCALL	?Subroutine55
??CrossCallReturnLabel_92:
        LDD	R16, Z+9
        LDI	R26, LOW(ip_pri_dns)
        LDI	R27, (ip_pri_dns) >> 8
        LDD	R17, Z+6
        SBRS	R17, 4
        RJMP	??monitor_event_PAP_0
// 1041          {
// 1042          fl_pap.up=0; 
        ANDI	R17, 0xEF
        STD	Z+6, R17
// 1043            switch(PAP_state)
        DEC	R16
        BRNE	??monitor_event_PAP_1
// 1044                {
// 1045                 case START_ST:                                                                
// 1046                             vol_cnt_rst_pap=VOL_PAP_MC;  
        LDI	R16, 5
        ADIW	R27:R26, 28
        ST	X, R16
// 1047                            
// 1048                            // IRC;   //!!!!!!!!!!!!!!111                                            
// 1049                             cnt_pap_tm_out=VOL_PAP_TM_OUT; 
        RCALL	?Subroutine174
// 1050                            // cnt_rst_pap=vol_cnt_rst_pap;
// 1051                             fl_pap.pap_tm_out_en=1; 
// 1052                             fl_pap.act_pap_end=1;  
??CrossCallReturnLabel_278:
        LDD	R16, Z+6
        ORI	R16, 0x03
        STD	Z+6, R16
// 1053                             pap_act_buf=SCR;                    
??monitor_event_PAP_2:
        LDI	R16, 6
        STD	Z+8, R16
// 1054                             PAP_state=SEND_REQ; 
        STD	Z+9, R16
// 1055                 return;
        RJMP	??monitor_event_PAP_1
// 1056                }
// 1057             
// 1058          return;
// 1059          }
// 1060      
// 1061     
// 1062      
// 1063      if(fl_pap.t0_pl==1)        //TO_PL
??monitor_event_PAP_0:
        SBRS	R17, 2
        RJMP	??monitor_event_PAP_3
// 1064         {
// 1065          fl_pap.t0_pl=0; 
        ANDI	R17, 0xFB
        STD	Z+6, R17
// 1066          switch(PAP_state)
        SUBI	R16, 6
        BRNE	??monitor_event_PAP_1
// 1067                {                     
// 1068                                
// 1069                 case SEND_REQ:
// 1070                            // vol_cnt_rst_pap=VOL_PAP_MC;                                                    
// 1071                             cnt_pap_tm_out=VOL_PAP_TM_OUT; 
        RCALL	?Subroutine174
// 1072                             pap_act_buf=SCR;               
??CrossCallReturnLabel_279:
        RJMP	??monitor_event_PAP_2
// 1073                             PAP_state=SEND_REQ;
// 1074                             return;
// 1075                                                                             
// 1076                } 
// 1077             
// 1078          return;
// 1079         }       
// 1080        
// 1081          
// 1082      
// 1083      switch (PAP_event)
??monitor_event_PAP_3:
        ADIW	R27:R26, 12
        LD	R17, X
        SBIW	R27:R26, 12
        SUBI	R17, 8
        BRNE	??monitor_event_PAP_1
// 1084         {
// 1085        
// 1086                
// 1087        
// 1088         case RCA:  
// 1089            
// 1090         
// 1091             PAP_event=NO_EVENT;
        LDI	R17, 255
        ADIW	R27:R26, 12
        ST	X, R17
        SBIW	R27:R26, 12
// 1092             switch(PAP_state)
        SUBI	R16, 6
        BRNE	??monitor_event_PAP_1
// 1093                {                     
// 1094 
// 1095               
// 1096                 case SEND_REQ:                                                                                                     
// 1097                             //TLU;  
// 1098                             
// 1099                             fl_pap.up=0;  
        LDD	R16, Z+6
        ANDI	R16, 0xEF
        STD	Z+6, R16
// 1100                             PAP_state=OPEN_ST; 
        LDI	R16, 9
        STD	Z+9, R16
// 1101                             IPCP_state=START_ST;  
        LDI	R16, 1
        ADIW	R27:R26, 14
        ST	X, R16
        SBIW	R27:R26, 14
// 1102                             fl_ipcp.act_ipcp_end=1; 
        LDD	R16, Z+4
        ORI	R16, 0x01
        STD	Z+4, R16
// 1103                             fl_ipcp1.up=1;
// 1104                             fl_ipcp1.down=0;
        MOVW	R31:R30, R27:R26
        LDD	R16, Z+10
        ANDI	R16, 0xFD
        ORI	R16, 0x01
        STD	Z+10, R16
// 1105                             layer_PPP=LAYER_IPCP;
        LDI	R16, 3
        STS	layer_PPP, R16
// 1106 
// 1107                             return;
??monitor_event_PAP_1:
        MOVW	R27:R26, R19:R18
        RET
        CFI EndBlock cfiBlock141
// 1108                                                                                  
// 1109                }  
// 1110              return; 
// 1111         
// 1112     
// 1113     }
// 1114  }

        RSEG FARCODE:CODE:NOROOT(1)
?Subroutine174:
        CFI Block cfiCond142 Using cfiCommon0
        CFI NoFunction
        CFI Conditional ??CrossCallReturnLabel_278
        CFI CFA_SP SP+6
        CFI Block cfiCond143 Using cfiCommon0
        CFI (cfiCond143) NoFunction
        CFI (cfiCond143) Conditional ??CrossCallReturnLabel_279
        CFI (cfiCond143) CFA_SP SP+6
        CFI Block cfiPicker144 Using cfiCommon1
        CFI (cfiPicker144) NoFunction
        CFI (cfiPicker144) Picker
        LDI	R16, 184
        LDI	R17, 11
        LDI	R26, LOW(cnt_pap_tm_out)
        LDI	R27, (cnt_pap_tm_out) >> 8
        ST	X+, R16
        ST	X, R17
        RET
        CFI EndBlock cfiCond142
        CFI EndBlock cfiCond143
        CFI EndBlock cfiPicker144
// 1115 
// 1116 
// 1117 
// 1118 

        RSEG FARCODE:CODE:NOROOT(1)
// 1119 void monitor_act_LCP(void)
monitor_act_LCP:
        CFI Block cfiBlock145 Using cfiCommon0
        CFI Function monitor_act_LCP
// 1120       {  
        FUNCALL monitor_act_LCP, run_lcp_act
        LOCFRAME CSTACK, 2, STACK
        LOCFRAME RSTACK, 3, STACK
        RCALL	?Subroutine62
        CFI R26 Frame(CFA_Y, -2)
        CFI R27 Frame(CFA_Y, -1)
        CFI CFA_Y Y+2
// 1121        
// 1122        if((uk_in_act_LCP!=uk_out_act_LCP)&&(fl_lcp.act_lcp_end==1)&&(fl_pap.act_pap_end==1)&&(fl_ipcp.act_ipcp_end==1)&&(fl_ip.act_ip_end==1))
??CrossCallReturnLabel_103:
        LDI	R26, LOW((cnt_lcp_tm_out + 25))
        LDI	R27, HIGH((cnt_lcp_tm_out + 25))
        LD	R16, X+
        LD	R17, X
        SBIW	R27:R26, 26
        CP	R16, R17
        BREQ	??monitor_act_LCP_0
        RCALL	?Subroutine132
??CrossCallReturnLabel_216:
        BREQ	??monitor_act_LCP_0
// 1123         {   
// 1124         run_lcp_act();
        RCALL	run_lcp_act
// 1125         uk_out_act_LCP++;  
        ADIW	R27:R26, 26
        LD	R16, X
        INC	R16
        ST	X, R16
// 1126         if (uk_out_act_LCP>=LCP_ACT_VOL)uk_out_act_LCP=0; 
        SBIW	R27:R26, 26
        CPI	R16, 15
        BRCS	??monitor_act_LCP_0
        LDI	R16, 0
        ADIW	R27:R26, 26
        ST	X, R16
// 1127         }
// 1128       }
??monitor_act_LCP_0:
        RJMP	?Subroutine93
        CFI EndBlock cfiBlock145
// 1129  
// 1130  
// 1131   

        RSEG FARCODE:CODE:NOROOT(1)
// 1132 void monitor_event_LCP(void)
monitor_event_LCP:
        CFI Block cfiBlock146 Using cfiCommon0
        CFI Function monitor_event_LCP
// 1133     {
        FUNCALL monitor_event_LCP, prov_uk_in
        LOCFRAME CSTACK, 4, STACK
        LOCFRAME RSTACK, 3, STACK
        FUNCALL monitor_event_LCP, prov_uk_in
        LOCFRAME CSTACK, 4, STACK
        LOCFRAME RSTACK, 3, STACK
        FUNCALL monitor_event_LCP, prov_uk_in
        LOCFRAME CSTACK, 4, STACK
        LOCFRAME RSTACK, 3, STACK
        FUNCALL monitor_event_LCP, prov_uk_in
        LOCFRAME CSTACK, 4, STACK
        LOCFRAME RSTACK, 3, STACK
        FUNCALL monitor_event_LCP, prov_uk_in
        LOCFRAME CSTACK, 4, STACK
        LOCFRAME RSTACK, 3, STACK
        FUNCALL monitor_event_LCP, prov_uk_in
        LOCFRAME CSTACK, 4, STACK
        LOCFRAME RSTACK, 3, STACK
        FUNCALL monitor_event_LCP, prov_uk_in
        LOCFRAME CSTACK, 4, STACK
        LOCFRAME RSTACK, 3, STACK
        FUNCALL monitor_event_LCP, prov_uk_in
        LOCFRAME CSTACK, 4, STACK
        LOCFRAME RSTACK, 3, STACK
        FUNCALL monitor_event_LCP, prov_uk_in
        LOCFRAME CSTACK, 4, STACK
        LOCFRAME RSTACK, 3, STACK
        FUNCALL monitor_event_LCP, prov_uk_in
        LOCFRAME CSTACK, 4, STACK
        LOCFRAME RSTACK, 3, STACK
        FUNCALL monitor_event_LCP, prov_uk_in
        LOCFRAME CSTACK, 4, STACK
        LOCFRAME RSTACK, 3, STACK
        FUNCALL monitor_event_LCP, prov_uk_in
        LOCFRAME CSTACK, 4, STACK
        LOCFRAME RSTACK, 3, STACK
        FUNCALL monitor_event_LCP, prov_uk_in
        LOCFRAME CSTACK, 4, STACK
        LOCFRAME RSTACK, 3, STACK
        FUNCALL monitor_event_LCP, prov_uk_in
        LOCFRAME CSTACK, 4, STACK
        LOCFRAME RSTACK, 3, STACK
        FUNCALL monitor_event_LCP, prov_uk_in
        LOCFRAME CSTACK, 4, STACK
        LOCFRAME RSTACK, 3, STACK
        FUNCALL monitor_event_LCP, prov_uk_in
        LOCFRAME CSTACK, 4, STACK
        LOCFRAME RSTACK, 3, STACK
        FUNCALL monitor_event_LCP, prov_uk_in
        LOCFRAME CSTACK, 4, STACK
        LOCFRAME RSTACK, 3, STACK
        FUNCALL monitor_event_LCP, prov_uk_in
        LOCFRAME CSTACK, 4, STACK
        LOCFRAME RSTACK, 3, STACK
        FUNCALL monitor_event_LCP, prov_uk_in
        LOCFRAME CSTACK, 4, STACK
        LOCFRAME RSTACK, 3, STACK
        FUNCALL monitor_event_LCP, prov_uk_in
        LOCFRAME CSTACK, 4, STACK
        LOCFRAME RSTACK, 3, STACK
        FUNCALL monitor_event_LCP, prov_uk_in
        LOCFRAME CSTACK, 4, STACK
        LOCFRAME RSTACK, 3, STACK
        FUNCALL monitor_event_LCP, prov_uk_in
        LOCFRAME CSTACK, 4, STACK
        LOCFRAME RSTACK, 3, STACK
        RCALL	?Subroutine90
        CFI R24 Frame(CFA_Y, -4)
        CFI R25 Frame(CFA_Y, -3)
        CFI R26 Frame(CFA_Y, -2)
        CFI R27 Frame(CFA_Y, -1)
        CFI CFA_Y Y+4
// 1134      if (fl_lcp1.up==1)      //UP
??CrossCallReturnLabel_135:
        LDI	R24, LOW(fl_lcp1)
        LDI	R25, (fl_lcp1) >> 8
        MOVW	R31:R30, R25:R24
        LDD	R18, Z+1
        LDI	R26, LOW(cnt_lcp_tm_out)
        LDI	R27, (cnt_lcp_tm_out) >> 8
        LD	R16, Z
        SBRS	R16, 0
        RJMP	??monitor_event_LCP_0
// 1135          {  
// 1136          
// 1137           
// 1138          fl_lcp1.up=0; 
        ANDI	R16, 0xFE
        ST	Z, R16
// 1139            switch(LCP_state)
        DEC	R18
        BRNE	??monitor_event_LCP_1
// 1140                {
// 1141                 case START_ST:                                                                
// 1142 
// 1143                            // vol_cnt_rst_lcp=VOL_LCP_MC;  
// 1144                             LCP_act_buf[uk_in_act_LCP]=IRC;  
??monitor_event_LCP_2:
        LDI	R16, 4
??monitor_event_LCP_3:
        MOVW	R31:R30, R27:R26
        LDD	R18, Z+25
        CALL	?Subroutine138
??CrossCallReturnLabel_232:
        RCALL	?Subroutine279
// 1145                             prov_uk_in();                    
// 1146                             LCP_act_buf[uk_in_act_LCP]=SCR;  
??CrossCallReturnLabel_567:
        LDI	R16, 6
??monitor_event_LCP_4:
        RCALL	?Subroutine115
// 1147                             prov_uk_in();                    
// 1148                             LCP_state=SEND_REQ;  
??CrossCallReturnLabel_565:
        LDI	R16, 6
??monitor_event_LCP_5:
        MOVW	R31:R30, R25:R24
        STD	Z+1, R16
// 1149                             
// 1150              
// 1151                            
// 1152                 return;
??monitor_event_LCP_1:
        RJMP	??Subroutine278_0
// 1153                }
// 1154             
// 1155          return;
// 1156          }
// 1157      
// 1158     
// 1159      
// 1160      if(fl_lcp.t0_pl==1)        //TO_PL
??monitor_event_LCP_0:
        MOVW	R31:R30, R27:R26
        LDD	R20, Z+25
        LDI	R21, 0
        MOVW	R17:R16, R27:R26
        CALL	?Subroutine176
??CrossCallReturnLabel_497:
        LDD	R19, Z+3
        SBRS	R19, 2
        RJMP	??monitor_event_LCP_6
// 1161         {
// 1162          fl_lcp.t0_pl=0; 
        ANDI	R19, 0xFB
        STD	Z+3, R19
// 1163          switch(LCP_state)
        SUBI	R18, 6
        BREQ	??monitor_event_LCP_2
        DEC	R18
        BREQ	??monitor_event_LCP_2
        DEC	R18
        BRNE	??monitor_event_LCP_1
// 1164                {                     
// 1165                                
// 1166                 
// 1167                 case SEND_REQ:
// 1168                           //  vol_cnt_rst_lcp=VOL_LCP_MC;                                                    
// 1169                             LCP_act_buf[uk_in_act_LCP]=IRC;  
// 1170                             prov_uk_in();
// 1171                             LCP_act_buf[uk_in_act_LCP]=SCR;  
// 1172                             prov_uk_in();                 
// 1173                             LCP_state=SEND_REQ;
// 1174                             return;
// 1175                 case REC_ACK:      
// 1176                            // vol_cnt_rst_lcp=VOL_LCP_MC;                                              
// 1177                             LCP_act_buf[uk_in_act_LCP]=IRC;  
// 1178                             prov_uk_in();
// 1179                             LCP_act_buf[uk_in_act_LCP]=SCR;  
// 1180                             prov_uk_in();                 
// 1181                             LCP_state=SEND_REQ;
// 1182                             return;
// 1183                 case SEND_ACK: 
// 1184                            // vol_cnt_rst_lcp=VOL_LCP_MC;                                                   
// 1185                             LCP_act_buf[uk_in_act_LCP]=IRC;  
??monitor_event_LCP_7:
        RCALL	?Subroutine95
// 1186                             prov_uk_in();
// 1187                             LCP_act_buf[uk_in_act_LCP]=SCR;  
??CrossCallReturnLabel_561:
        LDI	R16, 6
??monitor_event_LCP_8:
        RCALL	?Subroutine115
// 1188                             prov_uk_in();                 
// 1189                             LCP_state=SEND_ACK;
??CrossCallReturnLabel_564:
        LDI	R16, 8
        RJMP	??monitor_event_LCP_5
// 1190                             return;                                                              
// 1191                } 
// 1192             
// 1193          return;
// 1194         }  
// 1195      
// 1196      switch (LCP_event)
??monitor_event_LCP_6:
        LDI	R30, LOW(ip_pri_dns)
        LDI	R31, (ip_pri_dns) >> 8
        LDD	R19, Z+13
        SUBI	R19, 6
        BREQ	??monitor_event_LCP_9
        DEC	R19
        BREQ	??monitor_event_LCP_10
        DEC	R19
        BREQ	??monitor_event_LCP_11
        DEC	R19
        BREQ	??monitor_event_LCP_12
        RJMP	??monitor_event_LCP_1
// 1197         {
// 1198         case RCR_PL:  
// 1199             LCP_event=NO_EVENT; 
??monitor_event_LCP_9:
        RCALL	?Subroutine72
// 1200             switch(LCP_state)
??CrossCallReturnLabel_505:
        BREQ	??monitor_event_LCP_13
        DEC	R18
        BREQ	??monitor_event_LCP_14
        DEC	R18
        BREQ	??monitor_event_LCP_13
        DEC	R18
        BREQ	??monitor_event_LCP_15
        RJMP	??monitor_event_LCP_1
// 1201                {                     
// 1202                
// 1203                 case SEND_REQ:                                                                
// 1204                             LCP_act_buf[uk_in_act_LCP]=SCA;  
??monitor_event_LCP_13:
        LDI	R16, 7
        RJMP	??monitor_event_LCP_8
// 1205                             prov_uk_in();                 
// 1206                             LCP_state=SEND_ACK;   
// 1207 
// 1208                             return;
// 1209                 case REC_ACK:
// 1210         
// 1211                             LCP_act_buf[uk_in_act_LCP]=SCA;  
??monitor_event_LCP_14:
        LDI	R18, 7
??monitor_event_LCP_16:
        RCALL	??Subroutine95_0
// 1212                             prov_uk_in();       
// 1213                             LCP_act_buf[uk_in_act_LCP]=TLU;  
??CrossCallReturnLabel_559:
        RCALL	?Subroutine45
??CrossCallReturnLabel_386:
        LDD	R18, Z+25
        ADD	R26, R18
        ADC	R27, R16
        MOVW	R31:R30, R27:R26
        RCALL	?Subroutine279
// 1214                             prov_uk_in();          
// 1215                             LCP_state=OPEN_ST;  
??CrossCallReturnLabel_566:
        LDI	R16, 9
        RJMP	??monitor_event_LCP_5
// 1216                            
// 1217                             return;
// 1218                 case SEND_ACK:                                                                
// 1219                             LCP_act_buf[uk_in_act_LCP]=SCA;  
// 1220                             prov_uk_in();                 
// 1221                             LCP_state=SEND_ACK; 
// 1222                    
// 1223                             return;
// 1224                 case OPEN_ST:      
// 1225                             LCP_act_buf[uk_in_act_LCP]=TLD;  
??monitor_event_LCP_15:
        RCALL	?Subroutine41
// 1226                             prov_uk_in();
// 1227                             LCP_act_buf[uk_in_act_LCP]=IRC;  
// 1228                             prov_uk_in();
// 1229                         //    vol_cnt_rst_lcp=VOL_LCP_MC; 
// 1230                             LCP_act_buf[uk_in_act_LCP]=SCR;  
// 1231                             prov_uk_in();                                                                
??CrossCallReturnLabel_563:
        RJMP	??monitor_event_LCP_13
// 1232                             LCP_act_buf[uk_in_act_LCP]=SCA;  
// 1233                             prov_uk_in();                 
// 1234                             LCP_state=SEND_ACK; 
// 1235                    
// 1236                             return;                                                                    
// 1237                }  
// 1238              return; 
// 1239         case RCR_MI: 
// 1240             
// 1241             LCP_event=NO_EVENT;
??monitor_event_LCP_10:
        RCALL	?Subroutine72
// 1242             switch(LCP_state)
??CrossCallReturnLabel_506:
        BREQ	??monitor_event_LCP_17
        DEC	R18
        BREQ	??monitor_event_LCP_18
        DEC	R18
        BREQ	??monitor_event_LCP_17
        DEC	R18
        BREQ	??monitor_event_LCP_19
        RJMP	??monitor_event_LCP_1
// 1243                {                     
// 1244 
// 1245                
// 1246                 case SEND_REQ:                                                                
// 1247                             
// 1248                        
// 1249                             LCP_act_buf[uk_in_act_LCP]=SCN;  
??monitor_event_LCP_17:
        LDI	R16, 8
        RJMP	??monitor_event_LCP_4
// 1250                             prov_uk_in();                 
// 1251                             LCP_state=SEND_REQ;    
// 1252                      
// 1253                             return;
// 1254                 case REC_ACK:                                                                
// 1255                             LCP_act_buf[uk_in_act_LCP]=SCN;  
??monitor_event_LCP_18:
        LDI	R18, 8
??monitor_event_LCP_20:
        RCALL	??Subroutine95_0
// 1256                             prov_uk_in();              
// 1257                             LCP_state=REC_ACK;     
??CrossCallReturnLabel_558:
        LDI	R16, 7
        RJMP	??monitor_event_LCP_5
// 1258                            
// 1259                             return;
// 1260                 case SEND_ACK:                                                                
// 1261                             LCP_act_buf[uk_in_act_LCP]=SCN;  
// 1262                             prov_uk_in();                 
// 1263                             LCP_state=SEND_REQ;
// 1264                          
// 1265                             return;
// 1266                 case OPEN_ST:      
// 1267                             LCP_act_buf[uk_in_act_LCP]=TLD;  
??monitor_event_LCP_19:
        RCALL	?Subroutine41
// 1268                             prov_uk_in();   
// 1269                        //     vol_cnt_rst_lcp=VOL_LCP_MC;
// 1270                             LCP_act_buf[uk_in_act_LCP]=IRC;  
// 1271                             prov_uk_in();
// 1272                             LCP_act_buf[uk_in_act_LCP]=SCR;  
// 1273                             prov_uk_in();                                                                
??CrossCallReturnLabel_562:
        RJMP	??monitor_event_LCP_17
// 1274                             LCP_act_buf[uk_in_act_LCP]=SCN;  
// 1275                             prov_uk_in();                 
// 1276                             LCP_state=SEND_REQ;
// 1277                           
// 1278                             return;                                                                    
// 1279                }  
// 1280              return; 
// 1281         case RCA:    
// 1282  
// 1283   
// 1284   
// 1285             LCP_event=NO_EVENT;
??monitor_event_LCP_11:
        RCALL	?Subroutine72
// 1286             switch(LCP_state)
??CrossCallReturnLabel_507:
        BREQ	??monitor_event_LCP_21
        DEC	R18
        BRNE	$+2+2
        RJMP	??monitor_event_LCP_2
        DEC	R18
        BREQ	??monitor_event_LCP_22
        DEC	R18
        BREQ	??monitor_event_LCP_23
        RJMP	??monitor_event_LCP_1
// 1287                {                     
// 1288                 
// 1289               
// 1290                 case SEND_REQ: 
// 1291                             
// 1292                           //  vol_cnt_rst_lcp=VOL_LCP_MC;  
// 1293                             LCP_act_buf[uk_in_act_LCP]=IRC;  
??monitor_event_LCP_21:
        LDI	R18, 4
        RJMP	??monitor_event_LCP_20
// 1294                             prov_uk_in();                                        
// 1295                             LCP_state=REC_ACK; 
// 1296                      
// 1297                             return;
// 1298                 case REC_ACK:       
// 1299                         //    vol_cnt_rst_lcp=VOL_LCP_MC;                                             
// 1300                             LCP_act_buf[uk_in_act_LCP]=IRC;  
// 1301                             prov_uk_in();
// 1302                             LCP_act_buf[uk_in_act_LCP]=SCR;  
// 1303                             prov_uk_in();                 
// 1304                             LCP_state=SEND_REQ;
// 1305                             return;
// 1306                 case SEND_ACK:                                                                
// 1307                          //   vol_cnt_rst_lcp=VOL_LCP_MC;  
// 1308                             LCP_act_buf[uk_in_act_LCP]=IRC;  
??monitor_event_LCP_22:
        LDI	R18, 4
        RJMP	??monitor_event_LCP_16
// 1309                             prov_uk_in();                                        
// 1310                             LCP_act_buf[uk_in_act_LCP]=TLU;  
// 1311                             prov_uk_in();
// 1312                             LCP_state=OPEN_ST;
// 1313 
// 1314                             return;
// 1315                 case OPEN_ST:
// 1316                         //    vol_cnt_rst_lcp=VOL_LCP_MC;
// 1317                             LCP_act_buf[uk_in_act_LCP]=IRC;  
??monitor_event_LCP_23:
        RCALL	?Subroutine95
// 1318                             prov_uk_in();
// 1319                             LCP_act_buf[uk_in_act_LCP]=TLD;  
??CrossCallReturnLabel_560:
        LDI	R16, 1
        RJMP	??monitor_event_LCP_3
// 1320                             prov_uk_in();   
// 1321                             LCP_act_buf[uk_in_act_LCP]=SCR;  
// 1322                             prov_uk_in();                                                                               
// 1323                             LCP_state=SEND_REQ;
// 1324                          
// 1325                             return;                                                                    
// 1326                }  
// 1327              return; 
// 1328         case RCN: 
// 1329                 LCP_event=NO_EVENT;
??monitor_event_LCP_12:
        RCALL	?Subroutine72
// 1330         switch(LCP_state)
??CrossCallReturnLabel_508:
        BRNE	$+2+2
        RJMP	??monitor_event_LCP_2
        DEC	R18
        BRNE	$+2+2
        RJMP	??monitor_event_LCP_2
        DEC	R18
        BRNE	$+2+2
        RJMP	??monitor_event_LCP_7
        DEC	R18
        BREQ	$+2+2
        RJMP	??monitor_event_LCP_1
// 1331                {                     
// 1332 
// 1333                 
// 1334                 case SEND_REQ:                                                                
// 1335                          //   vol_cnt_rst_lcp=VOL_LCP_MC;  
// 1336                             LCP_act_buf[uk_in_act_LCP]=IRC;  
// 1337                             prov_uk_in(); 
// 1338                             LCP_act_buf[uk_in_act_LCP]=SCR;  
// 1339                             prov_uk_in();                                       
// 1340                             LCP_state=SEND_REQ;
// 1341                           
// 1342                             return;
// 1343                 case REC_ACK:     
// 1344                         //    vol_cnt_rst_lcp=VOL_LCP_MC;                                               
// 1345                             LCP_act_buf[uk_in_act_LCP]=IRC;  
// 1346                             prov_uk_in();
// 1347                             LCP_act_buf[uk_in_act_LCP]=SCR;  
// 1348                             prov_uk_in();                 
// 1349                             LCP_state=SEND_REQ;
// 1350                           
// 1351                             return;
// 1352                 case SEND_ACK:                                                                
// 1353                         //    vol_cnt_rst_lcp=VOL_LCP_MC;  
// 1354                             LCP_act_buf[uk_in_act_LCP]=IRC;  
// 1355                             prov_uk_in();                                        
// 1356                             LCP_act_buf[uk_in_act_LCP]=SCR;  
// 1357                             prov_uk_in();
// 1358                             LCP_state=SEND_ACK;
// 1359                         
// 1360                             return;
// 1361                 case OPEN_ST:      
// 1362                             LCP_act_buf[uk_in_act_LCP]=TLD;  
        LDI	R18, 1
        RCALL	??Subroutine95_0
// 1363                             prov_uk_in(); 
??CrossCallReturnLabel_557:
        RJMP	??monitor_event_LCP_2
        CFI EndBlock cfiBlock146
// 1364                        //     vol_cnt_rst_lcp=VOL_LCP_MC;  
// 1365                             LCP_act_buf[uk_in_act_LCP]=IRC;  
// 1366                             prov_uk_in();
// 1367                             LCP_act_buf[uk_in_act_LCP]=SCR;  
// 1368                             prov_uk_in();                                                                               
// 1369                             LCP_state=SEND_REQ;
// 1370                       
// 1371                             return;                                                                    
// 1372                }  
// 1373                                       
// 1374         }
// 1375     
// 1376     }

        RSEG FARCODE:CODE:NOROOT(1)
?Subroutine115:
        CFI Block cfiCond147 Using cfiCommon0
        CFI NoFunction
        CFI Conditional ??CrossCallReturnLabel_565
        CFI R24 Frame(CFA_Y, -4)
        CFI R25 Frame(CFA_Y, -3)
        CFI R26 Frame(CFA_Y, -2)
        CFI R27 Frame(CFA_Y, -1)
        CFI CFA_SP SP+6
        CFI CFA_Y Y+4
        CFI Block cfiCond148 Using cfiCommon0
        CFI (cfiCond148) NoFunction
        CFI (cfiCond148) Conditional ??CrossCallReturnLabel_564
        CFI (cfiCond148) R24 Frame(CFA_Y, -4)
        CFI (cfiCond148) R25 Frame(CFA_Y, -3)
        CFI (cfiCond148) R26 Frame(CFA_Y, -2)
        CFI (cfiCond148) R27 Frame(CFA_Y, -1)
        CFI (cfiCond148) CFA_SP SP+6
        CFI (cfiCond148) CFA_Y Y+4
        CFI Block cfiPicker149 Using cfiCommon1
        CFI (cfiPicker149) NoFunction
        CFI (cfiPicker149) Picker
        MOVW	R31:R30, R27:R26
        LDD	R18, Z+25
        LDI	R19, 0
        ADD	R26, R18
        ADC	R27, R19
        MOVW	R31:R30, R27:R26
        RJMP	?Subroutine279
        CFI EndBlock cfiCond147
        CFI EndBlock cfiCond148
        CFI EndBlock cfiPicker149

        RSEG FARCODE:CODE:NOROOT(1)
?Subroutine95:
        CFI Block cfiCond150 Using cfiCommon0
        CFI NoFunction
        CFI Conditional ??CrossCallReturnLabel_561
        CFI R24 Frame(CFA_Y, -4)
        CFI R25 Frame(CFA_Y, -3)
        CFI R26 Frame(CFA_Y, -2)
        CFI R27 Frame(CFA_Y, -1)
        CFI CFA_SP SP+6
        CFI CFA_Y Y+4
        CFI Block cfiCond151 Using cfiCommon0
        CFI (cfiCond151) NoFunction
        CFI (cfiCond151) Conditional ??CrossCallReturnLabel_560
        CFI (cfiCond151) R24 Frame(CFA_Y, -4)
        CFI (cfiCond151) R25 Frame(CFA_Y, -3)
        CFI (cfiCond151) R26 Frame(CFA_Y, -2)
        CFI (cfiCond151) R27 Frame(CFA_Y, -1)
        CFI (cfiCond151) CFA_SP SP+6
        CFI (cfiCond151) CFA_Y Y+4
        CFI Block cfiPicker152 Using cfiCommon1
        CFI (cfiPicker152) NoFunction
        CFI (cfiPicker152) Picker
        LDI	R18, 4
        CFI Block cfiCond153 Using cfiCommon0
        CFI (cfiCond153) NoFunction
        CFI (cfiCond153) Conditional ??CrossCallReturnLabel_559
        CFI (cfiCond153) R24 Frame(CFA_Y, -4)
        CFI (cfiCond153) R25 Frame(CFA_Y, -3)
        CFI (cfiCond153) R26 Frame(CFA_Y, -2)
        CFI (cfiCond153) R27 Frame(CFA_Y, -1)
        CFI (cfiCond153) CFA_SP SP+6
        CFI (cfiCond153) CFA_Y Y+4
        CFI Block cfiCond154 Using cfiCommon0
        CFI (cfiCond154) NoFunction
        CFI (cfiCond154) Conditional ??CrossCallReturnLabel_558
        CFI (cfiCond154) R24 Frame(CFA_Y, -4)
        CFI (cfiCond154) R25 Frame(CFA_Y, -3)
        CFI (cfiCond154) R26 Frame(CFA_Y, -2)
        CFI (cfiCond154) R27 Frame(CFA_Y, -1)
        CFI (cfiCond154) CFA_SP SP+6
        CFI (cfiCond154) CFA_Y Y+4
        CFI Block cfiCond155 Using cfiCommon0
        CFI (cfiCond155) NoFunction
        CFI (cfiCond155) Conditional ??CrossCallReturnLabel_557
        CFI (cfiCond155) R24 Frame(CFA_Y, -4)
        CFI (cfiCond155) R25 Frame(CFA_Y, -3)
        CFI (cfiCond155) R26 Frame(CFA_Y, -2)
        CFI (cfiCond155) R27 Frame(CFA_Y, -1)
        CFI (cfiCond155) CFA_SP SP+6
        CFI (cfiCond155) CFA_Y Y+4
??Subroutine95_0:
        MOVW	R31:R30, R17:R16
        STD	Z+10, R18
        RJMP	??Subroutine279_0
        CFI EndBlock cfiCond150
        CFI EndBlock cfiCond151
        CFI EndBlock cfiPicker152
        CFI EndBlock cfiCond153
        CFI EndBlock cfiCond154
        CFI EndBlock cfiCond155

        RSEG FARCODE:CODE:NOROOT(1)
?Subroutine72:
        CFI Block cfiCond156 Using cfiCommon0
        CFI NoFunction
        CFI Conditional ??CrossCallReturnLabel_505
        CFI R24 Frame(CFA_Y, -4)
        CFI R25 Frame(CFA_Y, -3)
        CFI R26 Frame(CFA_Y, -2)
        CFI R27 Frame(CFA_Y, -1)
        CFI CFA_SP SP+6
        CFI CFA_Y Y+4
        CFI Block cfiCond157 Using cfiCommon0
        CFI (cfiCond157) NoFunction
        CFI (cfiCond157) Conditional ??CrossCallReturnLabel_506
        CFI (cfiCond157) R24 Frame(CFA_Y, -4)
        CFI (cfiCond157) R25 Frame(CFA_Y, -3)
        CFI (cfiCond157) R26 Frame(CFA_Y, -2)
        CFI (cfiCond157) R27 Frame(CFA_Y, -1)
        CFI (cfiCond157) CFA_SP SP+6
        CFI (cfiCond157) CFA_Y Y+4
        CFI Block cfiCond158 Using cfiCommon0
        CFI (cfiCond158) NoFunction
        CFI (cfiCond158) Conditional ??CrossCallReturnLabel_507
        CFI (cfiCond158) R24 Frame(CFA_Y, -4)
        CFI (cfiCond158) R25 Frame(CFA_Y, -3)
        CFI (cfiCond158) R26 Frame(CFA_Y, -2)
        CFI (cfiCond158) R27 Frame(CFA_Y, -1)
        CFI (cfiCond158) CFA_SP SP+6
        CFI (cfiCond158) CFA_Y Y+4
        CFI Block cfiCond159 Using cfiCommon0
        CFI (cfiCond159) NoFunction
        CFI (cfiCond159) Conditional ??CrossCallReturnLabel_508
        CFI (cfiCond159) R24 Frame(CFA_Y, -4)
        CFI (cfiCond159) R25 Frame(CFA_Y, -3)
        CFI (cfiCond159) R26 Frame(CFA_Y, -2)
        CFI (cfiCond159) R27 Frame(CFA_Y, -1)
        CFI (cfiCond159) CFA_SP SP+6
        CFI (cfiCond159) CFA_Y Y+4
        CFI Block cfiPicker160 Using cfiCommon1
        CFI (cfiPicker160) NoFunction
        CFI (cfiPicker160) Picker
        LDI	R19, 255
        STD	Z+13, R19
        CFI EndBlock cfiCond156
        CFI EndBlock cfiCond157
        CFI EndBlock cfiCond158
        CFI EndBlock cfiCond159
        CFI EndBlock cfiPicker160
        REQUIRE ?Subroutine268
        ;		// Fall through to label ?Subroutine268

        RSEG FARCODE:CODE:NOROOT(1)
?Subroutine268:
        CFI Block cfiCond161 Using cfiCommon0
        CFI NoFunction
        CFI Conditional ??CrossCallReturnLabel_505
        CFI R24 Frame(CFA_Y, -4)
        CFI R25 Frame(CFA_Y, -3)
        CFI R26 Frame(CFA_Y, -2)
        CFI R27 Frame(CFA_Y, -1)
        CFI CFA_SP SP+6
        CFI CFA_Y Y+4
        CFI Block cfiCond162 Using cfiCommon0
        CFI (cfiCond162) NoFunction
        CFI (cfiCond162) Conditional ??CrossCallReturnLabel_506
        CFI (cfiCond162) R24 Frame(CFA_Y, -4)
        CFI (cfiCond162) R25 Frame(CFA_Y, -3)
        CFI (cfiCond162) R26 Frame(CFA_Y, -2)
        CFI (cfiCond162) R27 Frame(CFA_Y, -1)
        CFI (cfiCond162) CFA_SP SP+6
        CFI (cfiCond162) CFA_Y Y+4
        CFI Block cfiCond163 Using cfiCommon0
        CFI (cfiCond163) NoFunction
        CFI (cfiCond163) Conditional ??CrossCallReturnLabel_507
        CFI (cfiCond163) R24 Frame(CFA_Y, -4)
        CFI (cfiCond163) R25 Frame(CFA_Y, -3)
        CFI (cfiCond163) R26 Frame(CFA_Y, -2)
        CFI (cfiCond163) R27 Frame(CFA_Y, -1)
        CFI (cfiCond163) CFA_SP SP+6
        CFI (cfiCond163) CFA_Y Y+4
        CFI Block cfiCond164 Using cfiCommon0
        CFI (cfiCond164) NoFunction
        CFI (cfiCond164) Conditional ??CrossCallReturnLabel_508
        CFI (cfiCond164) R24 Frame(CFA_Y, -4)
        CFI (cfiCond164) R25 Frame(CFA_Y, -3)
        CFI (cfiCond164) R26 Frame(CFA_Y, -2)
        CFI (cfiCond164) R27 Frame(CFA_Y, -1)
        CFI (cfiCond164) CFA_SP SP+6
        CFI (cfiCond164) CFA_Y Y+4
        CFI Block cfiCond165 Using cfiCommon0
        CFI (cfiCond165) NoFunction
        CFI (cfiCond165) Conditional ??CrossCallReturnLabel_501
        CFI (cfiCond165) R24 Frame(CFA_Y, -4)
        CFI (cfiCond165) R25 Frame(CFA_Y, -3)
        CFI (cfiCond165) R26 Frame(CFA_Y, -2)
        CFI (cfiCond165) R27 Frame(CFA_Y, -1)
        CFI (cfiCond165) CFA_SP SP+6
        CFI (cfiCond165) CFA_Y Y+4
        CFI Block cfiCond166 Using cfiCommon0
        CFI (cfiCond166) NoFunction
        CFI (cfiCond166) Conditional ??CrossCallReturnLabel_502
        CFI (cfiCond166) R24 Frame(CFA_Y, -4)
        CFI (cfiCond166) R25 Frame(CFA_Y, -3)
        CFI (cfiCond166) R26 Frame(CFA_Y, -2)
        CFI (cfiCond166) R27 Frame(CFA_Y, -1)
        CFI (cfiCond166) CFA_SP SP+6
        CFI (cfiCond166) CFA_Y Y+4
        CFI Block cfiCond167 Using cfiCommon0
        CFI (cfiCond167) NoFunction
        CFI (cfiCond167) Conditional ??CrossCallReturnLabel_503
        CFI (cfiCond167) R24 Frame(CFA_Y, -4)
        CFI (cfiCond167) R25 Frame(CFA_Y, -3)
        CFI (cfiCond167) R26 Frame(CFA_Y, -2)
        CFI (cfiCond167) R27 Frame(CFA_Y, -1)
        CFI (cfiCond167) CFA_SP SP+6
        CFI (cfiCond167) CFA_Y Y+4
        CFI Block cfiCond168 Using cfiCommon0
        CFI (cfiCond168) NoFunction
        CFI (cfiCond168) Conditional ??CrossCallReturnLabel_504
        CFI (cfiCond168) R24 Frame(CFA_Y, -4)
        CFI (cfiCond168) R25 Frame(CFA_Y, -3)
        CFI (cfiCond168) R26 Frame(CFA_Y, -2)
        CFI (cfiCond168) R27 Frame(CFA_Y, -1)
        CFI (cfiCond168) CFA_SP SP+6
        CFI (cfiCond168) CFA_Y Y+4
        CFI Block cfiPicker169 Using cfiCommon1
        CFI (cfiPicker169) NoFunction
        CFI (cfiPicker169) Picker
        SUBI	R18, 6
        RET
        CFI EndBlock cfiCond161
        CFI EndBlock cfiCond162
        CFI EndBlock cfiCond163
        CFI EndBlock cfiCond164
        CFI EndBlock cfiCond165
        CFI EndBlock cfiCond166
        CFI EndBlock cfiCond167
        CFI EndBlock cfiCond168
        CFI EndBlock cfiPicker169

        RSEG FARCODE:CODE:NOROOT(1)
?Subroutine41:
        CFI Block cfiCond170 Using cfiCommon0
        CFI NoFunction
        CFI Conditional ??CrossCallReturnLabel_563
        CFI R24 Frame(CFA_Y, -4)
        CFI R25 Frame(CFA_Y, -3)
        CFI R26 Frame(CFA_Y, -2)
        CFI R27 Frame(CFA_Y, -1)
        CFI CFA_SP SP+6
        CFI CFA_Y Y+4
        CFI Block cfiCond171 Using cfiCommon0
        CFI (cfiCond171) NoFunction
        CFI (cfiCond171) Conditional ??CrossCallReturnLabel_562
        CFI (cfiCond171) R24 Frame(CFA_Y, -4)
        CFI (cfiCond171) R25 Frame(CFA_Y, -3)
        CFI (cfiCond171) R26 Frame(CFA_Y, -2)
        CFI (cfiCond171) R27 Frame(CFA_Y, -1)
        CFI (cfiCond171) CFA_SP SP+6
        CFI (cfiCond171) CFA_Y Y+4
        CFI Block cfiPicker172 Using cfiCommon1
        CFI (cfiPicker172) NoFunction
        CFI (cfiPicker172) Picker
        LDI	R18, 1
        MOVW	R31:R30, R17:R16
        STD	Z+10, R18
        RCALL	prov_uk_in
        LDI	R16, 4
        MOVW	R31:R30, R27:R26
        LDD	R18, Z+25
        LDI	R19, 0
        ADD	R30, R18
        ADC	R31, R19
        STD	Z+10, R16
        RCALL	prov_uk_in
        LDI	R16, 6
        MOVW	R31:R30, R27:R26
        LDD	R18, Z+25
        LDI	R19, 0
        ADD	R30, R18
        ADC	R31, R19
        CFI EndBlock cfiCond170
        CFI EndBlock cfiCond171
        CFI EndBlock cfiPicker172
        REQUIRE ?Subroutine279
        ;		// Fall through to label ?Subroutine279

        RSEG FARCODE:CODE:NOROOT(1)
?Subroutine279:
        CFI Block cfiCond173 Using cfiCommon0
        CFI NoFunction
        CFI Conditional ??CrossCallReturnLabel_567
        CFI R24 Frame(CFA_Y, -4)
        CFI R25 Frame(CFA_Y, -3)
        CFI R26 Frame(CFA_Y, -2)
        CFI R27 Frame(CFA_Y, -1)
        CFI CFA_SP SP+6
        CFI CFA_Y Y+4
        CFI Block cfiCond174 Using cfiCommon0
        CFI (cfiCond174) NoFunction
        CFI (cfiCond174) Conditional ??CrossCallReturnLabel_566
        CFI (cfiCond174) R24 Frame(CFA_Y, -4)
        CFI (cfiCond174) R25 Frame(CFA_Y, -3)
        CFI (cfiCond174) R26 Frame(CFA_Y, -2)
        CFI (cfiCond174) R27 Frame(CFA_Y, -1)
        CFI (cfiCond174) CFA_SP SP+6
        CFI (cfiCond174) CFA_Y Y+4
        CFI Block cfiCond175 Using cfiCommon0
        CFI (cfiCond175) NoFunction
        CFI (cfiCond175) Conditional ??CrossCallReturnLabel_565
        CFI (cfiCond175) R24 Frame(CFA_Y, -4)
        CFI (cfiCond175) R25 Frame(CFA_Y, -3)
        CFI (cfiCond175) R26 Frame(CFA_Y, -2)
        CFI (cfiCond175) R27 Frame(CFA_Y, -1)
        CFI (cfiCond175) CFA_SP SP+6
        CFI (cfiCond175) CFA_Y Y+4
        CFI Block cfiCond176 Using cfiCommon0
        CFI (cfiCond176) NoFunction
        CFI (cfiCond176) Conditional ??CrossCallReturnLabel_564
        CFI (cfiCond176) R24 Frame(CFA_Y, -4)
        CFI (cfiCond176) R25 Frame(CFA_Y, -3)
        CFI (cfiCond176) R26 Frame(CFA_Y, -2)
        CFI (cfiCond176) R27 Frame(CFA_Y, -1)
        CFI (cfiCond176) CFA_SP SP+6
        CFI (cfiCond176) CFA_Y Y+4
        CFI Block cfiCond177 Using cfiCommon0
        CFI (cfiCond177) NoFunction
        CFI (cfiCond177) Conditional ??CrossCallReturnLabel_563
        CFI (cfiCond177) R24 Frame(CFA_Y, -4)
        CFI (cfiCond177) R25 Frame(CFA_Y, -3)
        CFI (cfiCond177) R26 Frame(CFA_Y, -2)
        CFI (cfiCond177) R27 Frame(CFA_Y, -1)
        CFI (cfiCond177) CFA_SP SP+6
        CFI (cfiCond177) CFA_Y Y+4
        CFI Block cfiCond178 Using cfiCommon0
        CFI (cfiCond178) NoFunction
        CFI (cfiCond178) Conditional ??CrossCallReturnLabel_562
        CFI (cfiCond178) R24 Frame(CFA_Y, -4)
        CFI (cfiCond178) R25 Frame(CFA_Y, -3)
        CFI (cfiCond178) R26 Frame(CFA_Y, -2)
        CFI (cfiCond178) R27 Frame(CFA_Y, -1)
        CFI (cfiCond178) CFA_SP SP+6
        CFI (cfiCond178) CFA_Y Y+4
        CFI Block cfiPicker179 Using cfiCommon1
        CFI (cfiPicker179) NoFunction
        CFI (cfiPicker179) Picker
        STD	Z+10, R16
        CFI Block cfiCond180 Using cfiCommon0
        CFI (cfiCond180) NoFunction
        CFI (cfiCond180) Conditional ??CrossCallReturnLabel_561
        CFI (cfiCond180) R24 Frame(CFA_Y, -4)
        CFI (cfiCond180) R25 Frame(CFA_Y, -3)
        CFI (cfiCond180) R26 Frame(CFA_Y, -2)
        CFI (cfiCond180) R27 Frame(CFA_Y, -1)
        CFI (cfiCond180) CFA_SP SP+6
        CFI (cfiCond180) CFA_Y Y+4
        CFI Block cfiCond181 Using cfiCommon0
        CFI (cfiCond181) NoFunction
        CFI (cfiCond181) Conditional ??CrossCallReturnLabel_560
        CFI (cfiCond181) R24 Frame(CFA_Y, -4)
        CFI (cfiCond181) R25 Frame(CFA_Y, -3)
        CFI (cfiCond181) R26 Frame(CFA_Y, -2)
        CFI (cfiCond181) R27 Frame(CFA_Y, -1)
        CFI (cfiCond181) CFA_SP SP+6
        CFI (cfiCond181) CFA_Y Y+4
        CFI Block cfiCond182 Using cfiCommon0
        CFI (cfiCond182) NoFunction
        CFI (cfiCond182) Conditional ??CrossCallReturnLabel_559
        CFI (cfiCond182) R24 Frame(CFA_Y, -4)
        CFI (cfiCond182) R25 Frame(CFA_Y, -3)
        CFI (cfiCond182) R26 Frame(CFA_Y, -2)
        CFI (cfiCond182) R27 Frame(CFA_Y, -1)
        CFI (cfiCond182) CFA_SP SP+6
        CFI (cfiCond182) CFA_Y Y+4
        CFI Block cfiCond183 Using cfiCommon0
        CFI (cfiCond183) NoFunction
        CFI (cfiCond183) Conditional ??CrossCallReturnLabel_558
        CFI (cfiCond183) R24 Frame(CFA_Y, -4)
        CFI (cfiCond183) R25 Frame(CFA_Y, -3)
        CFI (cfiCond183) R26 Frame(CFA_Y, -2)
        CFI (cfiCond183) R27 Frame(CFA_Y, -1)
        CFI (cfiCond183) CFA_SP SP+6
        CFI (cfiCond183) CFA_Y Y+4
        CFI Block cfiCond184 Using cfiCommon0
        CFI (cfiCond184) NoFunction
        CFI (cfiCond184) Conditional ??CrossCallReturnLabel_557
        CFI (cfiCond184) R24 Frame(CFA_Y, -4)
        CFI (cfiCond184) R25 Frame(CFA_Y, -3)
        CFI (cfiCond184) R26 Frame(CFA_Y, -2)
        CFI (cfiCond184) R27 Frame(CFA_Y, -1)
        CFI (cfiCond184) CFA_SP SP+6
        CFI (cfiCond184) CFA_Y Y+4
??Subroutine279_0:
        RJMP	prov_uk_in
        CFI EndBlock cfiCond173
        CFI EndBlock cfiCond174
        CFI EndBlock cfiCond175
        CFI EndBlock cfiCond176
        CFI EndBlock cfiCond177
        CFI EndBlock cfiCond178
        CFI EndBlock cfiPicker179
        CFI EndBlock cfiCond180
        CFI EndBlock cfiCond181
        CFI EndBlock cfiCond182
        CFI EndBlock cfiCond183
        CFI EndBlock cfiCond184
// 1377   
// 1378   
// 1379   ////////////////мониторы IPCP        
// 1380   

        RSEG FARCODE:CODE:NOROOT(1)
// 1381   void run_ipcp_act(void)
run_ipcp_act:
        CFI Block cfiBlock185 Using cfiCommon0
        CFI Function run_ipcp_act
// 1382       {  
        FUNCALL run_ipcp_act, clr_cntr_nat
        LOCFRAME CSTACK, 6, STACK
        LOCFRAME RSTACK, 3, STACK
        FUNCALL run_ipcp_act, pppfcs16
        LOCFRAME CSTACK, 6, STACK
        LOCFRAME RSTACK, 3, STACK
        FUNCALL run_ipcp_act, pppfcs16
        LOCFRAME CSTACK, 6, STACK
        LOCFRAME RSTACK, 3, STACK
        FUNCALL run_ipcp_act, check_cts
        LOCFRAME CSTACK, 6, STACK
        LOCFRAME RSTACK, 3, STACK
        FUNCALL run_ipcp_act, pppfcs16
        LOCFRAME CSTACK, 6, STACK
        LOCFRAME RSTACK, 3, STACK
        FUNCALL run_ipcp_act, check_cts
        LOCFRAME CSTACK, 6, STACK
        LOCFRAME RSTACK, 3, STACK
        FUNCALL run_ipcp_act, pppfcs16
        LOCFRAME CSTACK, 6, STACK
        LOCFRAME RSTACK, 3, STACK
        FUNCALL run_ipcp_act, check_cts
        LOCFRAME CSTACK, 6, STACK
        LOCFRAME RSTACK, 3, STACK
        FUNCALL run_ipcp_act, pppfcs16
        LOCFRAME CSTACK, 6, STACK
        LOCFRAME RSTACK, 3, STACK
        FUNCALL run_ipcp_act, check_cts
        LOCFRAME CSTACK, 6, STACK
        LOCFRAME RSTACK, 3, STACK
        RCALL	?Subroutine90
        CFI R24 Frame(CFA_Y, -4)
        CFI R25 Frame(CFA_Y, -3)
        CFI R26 Frame(CFA_Y, -2)
        CFI R27 Frame(CFA_Y, -1)
        CFI CFA_Y Y+4
??CrossCallReturnLabel_136:
        SBIW	R29:R28, 2
        CFI CFA_Y Y+6
// 1383        unsigned char i;
// 1384        
// 1385        union
// 1386      {
// 1387       unsigned char bytes[2]; 
// 1388       unsigned int word;
// 1389      }temp;
// 1390       
// 1391        
// 1392        switch (IPCP_act_buf[uk_out_act_IPCP])
        LDI	R22, LOW(cnt_lcp_tm_out)
        LDI	R23, (cnt_lcp_tm_out) >> 8
        MOVW	R31:R30, R23:R22
        LDD	R21, Z+2
        LDI	R18, LOW(ip_pri_dns)
        LDI	R19, (ip_pri_dns) >> 8
        MOVW	R31:R30, R19:R18
        LDD	R16, Z+31
        RCALL	?Subroutine69
??CrossCallReturnLabel_113:
        MOVW	R31:R30, R23:R22
        LDD	R0, Z+28
        CLR	R1
        MOVW	R31:R30, R19:R18
        ADD	R30, R0
        ADC	R31, R1
        LDD	R17, Z+16
        TST	R17
        BREQ	??run_ipcp_act_0
        SUBI	R17, 4
        BREQ	??run_ipcp_act_1
        SUBI	R17, 2
        BRNE	$+2+2
        RJMP	??run_ipcp_act_2
        DEC	R17
        BRNE	$+2+2
        RJMP	??run_ipcp_act_3
        DEC	R17
        BRNE	$+2+2
        RJMP	??run_ipcp_act_4
        RJMP	??run_ipcp_act_5
// 1393           {
// 1394            case TLU:     
// 1395 
// 1396                 event_modem=EVM_PPP_OK;
??run_ipcp_act_0:
        LDI	R16, 4
        STS	event_modem, R16
// 1397  
// 1398                 layer_PPP=LAYER_IP;   
        STS	layer_PPP, R16
// 1399                 fl_ip.act_ip_end=1;   
        MOVW	R31:R30, R23:R22
        LDD	R16, Z+5
        ORI	R16, 0x01
        STD	Z+5, R16
// 1400                 fl_ipcp.act_ipcp_end=1; 
        LDD	R16, Z+4
        ORI	R16, 0x01
        STD	Z+4, R16
// 1401              
// 1402                   Control.link_waits=FALSE; 
        LDI	R26, LOW(Control)
        LDI	R27, (Control) >> 8
        MOVW	R31:R30, R27:R26
        STD	Z+1, R1
// 1403                   Control.link=FALSE;  
        STD	Z+2, R1
// 1404                   Control.nat=FALSE;
        STD	Z+3, R1
// 1405                 
// 1406                if(Control.vol_link!=0)fl_ip.ip_tm_cntr_en=1;
        LDD	R16, Z+8
        LDD	R17, Z+9
        OR	R16, R17
        BREQ	??run_ipcp_act_6
        MOVW	R31:R30, R23:R22
        LDD	R16, Z+5
        ORI	R16, 0x02
        STD	Z+5, R16
// 1407                if(Control.vol_nat!=0)fl_ip.ip_tm_nat_en=1;
??run_ipcp_act_6:
        MOVW	R31:R30, R27:R26
        LDD	R16, Z+10
        LDD	R17, Z+11
        OR	R16, R17
        BREQ	??run_ipcp_act_7
        MOVW	R31:R30, R23:R22
        LDD	R16, Z+5
        ORI	R16, 0x04
        STD	Z+5, R16
// 1408                Control.cnt_try=0;
??run_ipcp_act_7:
        MOVW	R31:R30, R27:R26
        STD	Z+14, R1
// 1409                Control.cnt_link=BEG_CNTR_LINK;
        LDI	R16, 10
        STD	Z+4, R16
        STD	Z+5, R1
// 1410                clr_cntr_nat();
        RCALL	?Subroutine307
// 1411                
// 1412                Control.cnt_nat=BEG_CNTR_LINK-1; // пустой пакет!!!!
??CrossCallReturnLabel_741:
        LDI	R16, 9
        LDI	R17, 0
        MOVW	R31:R30, R27:R26
        STD	Z+6, R16
        STD	Z+7, R17
        RJMP	??run_ipcp_act_5
// 1413                
// 1414               break;
// 1415            
// 1416           
// 1417          
// 1418            case IRC:                   
// 1419                 fl_ipcp.act_ipcp_end=0;
// 1420                 cnt_ipcp_tm_out=VOL_IPCP_TM_OUT; 
??run_ipcp_act_1:
        LDI	R16, 184
        LDI	R17, 11
        MOVW	R31:R30, R19:R18
        CALL	?Subroutine128
// 1421                 cnt_rst_ipcp=vol_cnt_rst_ipcp;
??CrossCallReturnLabel_208:
        LDD	R16, Z+27
        STD	Z+26, R16
// 1422                 fl_ipcp.ipcp_tm_out_en=1; 
// 1423                 fl_ipcp.act_ipcp_end=1; 
        MOVW	R31:R30, R23:R22
        LDD	R16, Z+4
        ORI	R16, 0x03
        STD	Z+4, R16
        RJMP	??run_ipcp_act_5
// 1424                      
// 1425                 break;
// 1426            
// 1427            case SCR:    
// 1428 
// 1429                  fl_ipcp.act_ipcp_end=0;
??run_ipcp_act_2:
        MOVW	R31:R30, R23:R22
        LDD	R16, Z+4
        ANDI	R16, 0xFE
        STD	Z+4, R16
// 1430                  
// 1431                  
// 1432                  
// 1433                  
// 1434                  buf_tx_232[0]=0x7e;               
        LDI	R16, 126
        ST	X, R16
// 1435                  
// 1436                  
// 1437                  if(compress_off==0)
        LDI	R16, LOW(ip_self)
        LDI	R17, (ip_self) >> 8
        MOVW	R31:R30, R17:R16
        LDD	R23, Z+3
        LDD	R22, Z+2
        LDD	R20, Z+1
        MOVW	R31:R30, R19:R18
        LDD	R19, Z+30
        TST	R21
        BRNE	??run_ipcp_act_8
// 1438                  {
// 1439                  buf_tx_232[1]=0x80;
        LDI	R18, 128
        MOVW	R31:R30, R27:R26
        STD	Z+1, R18
// 1440                  buf_tx_232[2]=0x21;
        LDI	R18, 33
        STD	Z+2, R18
// 1441                  
// 1442                  buf_tx_232[3]=CONF_REQ; 
        LDI	R18, 1
        STD	Z+3, R18
// 1443                  buf_tx_232[4]=i_scr_ipcp;   
        STD	Z+4, R19
// 1444  
// 1445                  
// 1446                  buf_tx_232[5]=0;
        STD	Z+5, R1
// 1447                  buf_tx_232[6]=10;//без DNS
        LDI	R18, 10
        STD	Z+6, R18
// 1448                   
// 1449                //  buf_tx_232[6]=22;//c DNS 
// 1450                               
// 1451                  buf_tx_232[7]=3;      //запрос IP контроллера
        LDI	R18, 3
        STD	Z+7, R18
// 1452                  buf_tx_232[8]=6;
        LDI	R18, 6
        STD	Z+8, R18
// 1453                  buf_tx_232[9]=ip_self[0]; 
        MOVW	R31:R30, R17:R16
        LD	R16, Z
        MOVW	R31:R30, R27:R26
        STD	Z+9, R16
// 1454                  buf_tx_232[10]=ip_self[1]; 
        STD	Z+10, R20
// 1455                  buf_tx_232[11]=ip_self[2];
        STD	Z+11, R22
// 1456                  buf_tx_232[12]=ip_self[3];
        STD	Z+12, R23
// 1457                  
// 1458                  
// 1459                //  buf_tx_232[13]=0x81;      //запрос IP_PRI_DNS
// 1460                //  buf_tx_232[14]=6;
// 1461                //  buf_tx_232[15]=ip_pri_dns[0]; 
// 1462                //  buf_tx_232[16]=ip_pri_dns[1]; 
// 1463                 // buf_tx_232[17]=ip_pri_dns[2];
// 1464                 // buf_tx_232[18]=ip_pri_dns[3];
// 1465                  
// 1466                 // buf_tx_232[19]=0x83;      //запрос IP_SEC_DNS
// 1467                 // buf_tx_232[20]=6;
// 1468                 // buf_tx_232[21]=ip_sec_dns[0]; 
// 1469                 // buf_tx_232[22]=ip_sec_dns[1]; 
// 1470                 // buf_tx_232[23]=ip_sec_dns[2];
// 1471                 // buf_tx_232[24]=ip_sec_dns[3];
// 1472                                   
// 1473                  
// 1474                  temp.word=pppfcs16(PPPINITFCS16,&buf_tx_232[1],buf_tx_232[6]+2) ^ 0xffff;                  
        LDI	R20, 12
        RCALL	?Subroutine17
// 1475                  buf_tx_232[13]=temp.bytes[0];//без DNS
??CrossCallReturnLabel_378:
        STD	Z+13, R18
// 1476                  buf_tx_232[14]=temp.bytes[1];//без DNS
        LDD	R16, Y+1
        STD	Z+14, R16
// 1477                  
// 1478                  buf_tx_232[15]=0x7e; //без DNS
        LDI	R16, 126
        STD	Z+15, R16
// 1479                //  buf_tx_232[25]=temp.bytes[0];//c DNS 
// 1480                //  buf_tx_232[26]=temp.bytes[1]; //c DNS              
// 1481                //  buf_tx_232[27]=0x7e; //c DNS 
// 1482                 
// 1483                
// 1484                  vol_tx_ppp=buf_tx_232[6]+6;               
        LDI	R16, 16
        RJMP	??run_ipcp_act_9
// 1485                  }
// 1486                  
// 1487                  
// 1488                  else
// 1489                  {
// 1490                  buf_tx_232[1]=0xff;
??run_ipcp_act_8:
        RCALL	?Subroutine74
// 1491                  buf_tx_232[2]=0x03;
// 1492                  buf_tx_232[3]=0x80;
??CrossCallReturnLabel_120:
        LDI	R18, 128
        RCALL	?Subroutine107
// 1493                  buf_tx_232[4]=0x21;
// 1494                  
// 1495                  buf_tx_232[5]=CONF_REQ; 
// 1496                  buf_tx_232[6]=i_scr_ipcp;   
??CrossCallReturnLabel_188:
        STD	Z+6, R19
// 1497  
// 1498                  
// 1499                  buf_tx_232[7]=0;
        STD	Z+7, R1
// 1500                  buf_tx_232[8]=10;//без DNS
        LDI	R18, 10
        STD	Z+8, R18
// 1501                   
// 1502                //  buf_tx_232[6]=22;//c DNS 
// 1503                               
// 1504                  buf_tx_232[9]=3;      //запрос IP контроллера
        LDI	R18, 3
        STD	Z+9, R18
// 1505                  buf_tx_232[10]=6;
        LDI	R18, 6
        STD	Z+10, R18
// 1506                  buf_tx_232[11]=ip_self[0]; 
        MOVW	R31:R30, R17:R16
        LD	R16, Z
        MOVW	R31:R30, R27:R26
        STD	Z+11, R16
// 1507                  buf_tx_232[12]=ip_self[1]; 
        STD	Z+12, R20
// 1508                  buf_tx_232[13]=ip_self[2];
        STD	Z+13, R22
// 1509                  buf_tx_232[14]=ip_self[3];
        STD	Z+14, R23
// 1510                  
// 1511                  
// 1512                //  buf_tx_232[13]=0x81;      //запрос IP_PRI_DNS
// 1513                //  buf_tx_232[14]=6;
// 1514                //  buf_tx_232[15]=ip_pri_dns[0]; 
// 1515                //  buf_tx_232[16]=ip_pri_dns[1]; 
// 1516                 // buf_tx_232[17]=ip_pri_dns[2];
// 1517                 // buf_tx_232[18]=ip_pri_dns[3];
// 1518                  
// 1519                 // buf_tx_232[19]=0x83;      //запрос IP_SEC_DNS
// 1520                 // buf_tx_232[20]=6;
// 1521                 // buf_tx_232[21]=ip_sec_dns[0]; 
// 1522                 // buf_tx_232[22]=ip_sec_dns[1]; 
// 1523                 // buf_tx_232[23]=ip_sec_dns[2];
// 1524                 // buf_tx_232[24]=ip_sec_dns[3];
// 1525                                   
// 1526                  
// 1527                  temp.word=pppfcs16(PPPINITFCS16,&buf_tx_232[1],buf_tx_232[8]+4) ^ 0xffff;                  
        LDI	R20, 14
        RCALL	?Subroutine17
// 1528                  buf_tx_232[15]=temp.bytes[0];//без DNS
??CrossCallReturnLabel_379:
        RCALL	?Subroutine78
// 1529                  buf_tx_232[16]=temp.bytes[1];//без DNS
// 1530                  
// 1531                  buf_tx_232[17]=0x7e; //без DNS
// 1532                //  buf_tx_232[25]=temp.bytes[0];//c DNS 
// 1533                //  buf_tx_232[26]=temp.bytes[1]; //c DNS              
// 1534                //  buf_tx_232[27]=0x7e; //c DNS 
// 1535                
// 1536                  vol_tx_ppp=buf_tx_232[8]+8;               
??CrossCallReturnLabel_122:
        LDI	R16, 18
??run_ipcp_act_9:
        LDI	R17, 0
        RCALL	?Subroutine80
// 1537                  }
// 1538                  
// 1539                  
// 1540                   count_tx_ppp=0;
??CrossCallReturnLabel_652:
        RCALL	??Subroutine43_0
// 1541                  
// 1542                  UCSR0A=UCSR0A | TXC;                            
// 1543                  UCSR0B=UCSR0B | TXEN;
// 1544                  UCSR0B=UCSR0B | TXCIE;
// 1545                  if(check_cts()==1) return;   
??CrossCallReturnLabel_803:
        BRNE	$+2+2
        RJMP	??run_ipcp_act_5
// 1546                  S2_RD;
        RCALL	?Subroutine87
// 1547                  UDR0=buf_tx_232[0]; 
// 1548                  if(Regim==RG_DEBAG) UDR3=buf_tx_232[0];
??CrossCallReturnLabel_794:
        BREQ	$+2+2
        RJMP	??run_ipcp_act_5
??run_ipcp_act_10:
        RCALL	?Subroutine91
??CrossCallReturnLabel_145:
        RJMP	??run_ipcp_act_5
// 1549                
// 1550                  
// 1551                
// 1552                 break; 
// 1553                  
// 1554            case SCA: 
// 1555                  fl_ipcp.act_ipcp_end=0;
??run_ipcp_act_3:
        RCALL	?Subroutine59
// 1556                  buf_tx_232[0]=0x7e; 
// 1557                  buf_tx_232[1]=0x80;
// 1558                  buf_tx_232[2]=0x21;
// 1559                                  
// 1560                  buf_tx_232[3]=CONF_ACK;
??CrossCallReturnLabel_96:
        LDI	R17, 2
        STD	Z+3, R17
// 1561                  buf_tx_232[4]=i_scan_ipcp;
        STD	Z+4, R16
// 1562                  
// 1563                  temp.word=ln_ack_ipcp+4;
        MOVW	R31:R30, R19:R18
        LDD	R20, Z+60
        MOV	R24, R20
        RCALL	?Subroutine5
// 1564                  buf_tx_232[5]=temp.bytes[1]; 
// 1565                  buf_tx_232[6]=temp.bytes[0];
// 1566                 
// 1567                  temp.word=temp.word+2;         
// 1568                  vol_tx_ppp=temp.word+4;  
// 1569                   
// 1570                  for(i=0;i<ln_ack_ipcp;i++)buf_tx_232[7+i]=buf_ack_opt_ipcp[i];
??CrossCallReturnLabel_513:
        RJMP	??CrossCallReturnLabel_511
??run_ipcp_act_11:
        MOVW	R31:R30, R19:R18
        ADD	R30, R16
        ADC	R31, R1
        LDD	R17, Z+32
        RCALL	?Subroutine118
??CrossCallReturnLabel_511:
        CP	R16, R20
        BRCS	??run_ipcp_act_11
// 1571                  
// 1572                  
// 1573                  
// 1574                   if(compress_off==1)
        CPI	R21, 1
        BRNE	??CrossCallReturnLabel_45
// 1575                  {
// 1576                    for (i=0;i < (vol_tx_ppp-1);i++)buf_tx_232[vol_tx_ppp+1-i]=buf_tx_232[vol_tx_ppp-1-i];
        RCALL	?Subroutine44
// 1577                    buf_tx_232[1]=0xff;
??CrossCallReturnLabel_74:
        RCALL	?Subroutine32
// 1578                    buf_tx_232[2]=0x03;
// 1579                    temp.word=temp.word+2;
// 1580                    vol_tx_ppp=temp.word+4;
// 1581                  }
// 1582                  
// 1583                  
// 1584                  
// 1585                  
// 1586                  temp.word=pppfcs16(PPPINITFCS16,&buf_tx_232[1],temp.word) ^ 0xffff;                  
??CrossCallReturnLabel_45:
        LD	R20, Y
        LDD	R21, Y+1
        RCALL	?Subroutine53
// 1587                  
// 1588                  
// 1589                  /*
// 1590                  buf_tx_232[7+ln_ack_ipcp]=temp.bytes[0];
// 1591                  buf_tx_232[8+ln_ack_ipcp]=temp.bytes[1];
// 1592                  buf_tx_232[9+ln_ack_ipcp]=0x7e;
// 1593                  */
// 1594                
// 1595                  buf_tx_232[vol_tx_ppp-3]=temp.bytes[0];
??CrossCallReturnLabel_81:
        RCALL	?Subroutine86
??CrossCallReturnLabel_131:
        RCALL	?Subroutine308
??CrossCallReturnLabel_742:
        RCALL	?Subroutine168
??CrossCallReturnLabel_680:
        SBIW	R31:R30, 3
        ST	Z, R18
// 1596                  buf_tx_232[vol_tx_ppp-2]=temp.bytes[1];
        LDD	R18, Y+1
        STD	Z+1, R18
// 1597                  buf_tx_232[vol_tx_ppp-1]=0x7e;
        LDI	R16, 126
        STD	Z+2, R16
// 1598              
// 1599                  
// 1600                  
// 1601                  count_tx_ppp=0;                             
        RCALL	?Subroutine46
// 1602                      UCSR0A=UCSR0A | TXC;                            
??CrossCallReturnLabel_77:
        RCALL	?Subroutine298
// 1603                      UCSR0B=UCSR0B | TXEN;
// 1604                      UCSR0B=UCSR0B | TXCIE;
// 1605                      if(check_cts()==1) return;
??CrossCallReturnLabel_798:
        BRNE	$+2+2
        RJMP	??run_ipcp_act_5
// 1606                  S2_RD;
        RCALL	?Subroutine87
// 1607                  UDR0=buf_tx_232[0]; 
// 1608                  if(Regim==RG_DEBAG) UDR3=buf_tx_232[0];
??CrossCallReturnLabel_795:
        BREQ	$+2+2
        RJMP	??run_ipcp_act_5
        RJMP	??run_ipcp_act_10
// 1609                
// 1610                 
// 1611                   
// 1612                 break;
// 1613            case SCN:  
// 1614                 
// 1615                 
// 1616 
// 1617                  fl_ipcp.act_ipcp_end=0;
??run_ipcp_act_4:
        RCALL	?Subroutine59
// 1618                  buf_tx_232[0]=0x7e; 
// 1619                  buf_tx_232[1]=0x80;
// 1620                  buf_tx_232[2]=0x21;
// 1621 
// 1622                  
// 1623                  if (fl_ipcp2.nac_rej==0) 
??CrossCallReturnLabel_97:
        MOVW	R31:R30, R19:R18
        LDD	R17, Z+11
        SBRC	R17, 0
        RJMP	??run_ipcp_act_12
// 1624                      {
// 1625                      buf_tx_232[3]=CONF_NAK;                       
        LDI	R17, 3
        MOVW	R31:R30, R27:R26
        STD	Z+3, R17
// 1626                      
// 1627                      buf_tx_232[4]=i_scan_ipcp;
        STD	Z+4, R16
// 1628                  
// 1629                      temp.word=ln_nak_ipcp+4;
        SUBI	R18, 195
        SBCI	R19, 255
        MOVW	R31:R30, R19:R18
        LD	R17, Z
        MOV	R24, R17
        LDI	R25, 0
        MOVW	R19:R18, R25:R24
        SUBI	R18, 252
        SBCI	R19, 255
        ST	Y, R18
        STD	Y+1, R19
// 1630                      buf_tx_232[5]=temp.bytes[1]; 
        MOVW	R31:R30, R27:R26
        STD	Z+5, R19
// 1631                      buf_tx_232[6]=temp.bytes[0];
        LD	R16, Y
        STD	Z+6, R16
// 1632                     
// 1633                     temp.word=temp.word+2;         
        CALL	?Subroutine136
??CrossCallReturnLabel_224:
        SUBI	R18, 254
        SBCI	R19, 255
        ST	Y, R18
        STD	Y+1, R19
// 1634                     vol_tx_ppp=temp.word+4;
        SUBI	R18, 252
        SBCI	R19, 255
        RCALL	?Subroutine86
??CrossCallReturnLabel_132:
        RCALL	??Subroutine106_0
// 1635                      
// 1636 
// 1637                       
// 1638                      for(i=0;i<ln_nak_ipcp;i++)buf_tx_232[7+i]=buf_nak_opt_ipcp[i];
??CrossCallReturnLabel_184:
        LDI	R16, 0
        RJMP	??run_ipcp_act_13
??run_ipcp_act_14:
        MOV	R18, R16
        LDI	R19, 0
        MOVW	R31:R30, R19:R18
        SUBI	R30, LOW((-(buf_nak_opt_ipcp) & 0xFFFF))
        SBCI	R31, (-(buf_nak_opt_ipcp) & 0xFFFF) >> 8
        LD	R20, Z
        MOVW	R31:R30, R27:R26
        ADD	R30, R16
        ADC	R31, R1
        STD	Z+7, R20
        INC	R16
??run_ipcp_act_13:
        CP	R16, R17
        BRCS	??run_ipcp_act_14
// 1639                      temp.word=pppfcs16(PPPINITFCS16,&buf_tx_232[1],temp.word) ^ 0xffff;                  
        LD	R20, Y
        LDD	R21, Y+1
        RCALL	?Subroutine249
// 1640                      buf_tx_232[7+ln_nak_ipcp]=temp.bytes[0];
??CrossCallReturnLabel_382:
        ADD	R30, R24
        ADC	R31, R25
        STD	Z+7, R18
// 1641                      buf_tx_232[8+ln_nak_ipcp]=temp.bytes[1];
        LDD	R18, Y+1
        STD	Z+8, R18
// 1642                      buf_tx_232[9+ln_nak_ipcp]=0x7e;
        LDI	R16, 126
        STD	Z+9, R16
// 1643                      
// 1644                      count_tx_ppp=0;                             
        LDI	R30, LOW(count_tx_ppp)
        LDI	R31, (count_tx_ppp) >> 8
        ST	Z, R25
        STD	Z+1, R25
// 1645                      UCSR0A=UCSR0A | TXC;                            
        RJMP	??CrossCallReturnLabel_77
// 1646                      UCSR0B=UCSR0B | TXEN;
// 1647                      UCSR0B=UCSR0B | TXCIE;
// 1648                      if(check_cts()==1) return;
// 1649                      S2_RD;
// 1650                      UDR0=buf_tx_232[0];
// 1651                      if(Regim==RG_DEBAG) UDR3=buf_tx_232[0];
// 1652                      
// 1653                      }  
// 1654                      else
// 1655                      { 
// 1656                      fl_ipcp2.nac_rej=0;
??run_ipcp_act_12:
        ANDI	R17, 0xFE
        STD	Z+11, R17
// 1657                      buf_tx_232[3]=CONF_REJ;  
        LDI	R17, 4
        MOVW	R31:R30, R27:R26
        STD	Z+3, R17
// 1658                      buf_tx_232[4]=i_scan_ipcp;
        STD	Z+4, R16
// 1659                  
// 1660                      temp.word=ln_rej_ipcp+4;
        MOVW	R31:R30, R19:R18
        LDD	R18, Z+59
        MOV	R24, R18
        RCALL	?Subroutine5
// 1661                      buf_tx_232[5]=temp.bytes[1]; 
// 1662                      buf_tx_232[6]=temp.bytes[0];
// 1663                                  
// 1664                     temp.word=temp.word+2;         
// 1665                     vol_tx_ppp=temp.word+4; 
// 1666                      
// 1667                      for(i=0;i<ln_rej_ipcp;i++)buf_tx_232[7+i]=buf_rej_opt_ipcp[i];
??CrossCallReturnLabel_514:
        RJMP	??CrossCallReturnLabel_512
??run_ipcp_act_15:
        MOV	R22, R16
        LDI	R23, 0
        MOVW	R31:R30, R23:R22
        SUBI	R30, LOW((-(buf_nak_opt_ipcp) & 0xFFFF))
        SBCI	R31, (-(buf_nak_opt_ipcp) & 0xFFFF) >> 8
        LDD	R17, Z+25
        RCALL	?Subroutine118
??CrossCallReturnLabel_512:
        CP	R16, R18
        BRCS	??run_ipcp_act_15
// 1668                      
// 1669                      
// 1670                   if(compress_off==1)
        CPI	R21, 1
        BRNE	??CrossCallReturnLabel_46
// 1671                  {
// 1672                    for (i=0;i < (vol_tx_ppp-1);i++)buf_tx_232[vol_tx_ppp+1-i]=buf_tx_232[vol_tx_ppp-1-i];
        RCALL	?Subroutine44
// 1673                    buf_tx_232[1]=0xff;
??CrossCallReturnLabel_75:
        RCALL	?Subroutine32
// 1674                    buf_tx_232[2]=0x03;
// 1675                    temp.word=temp.word+2;
// 1676                    vol_tx_ppp=temp.word+4;
// 1677                  }
// 1678                  
// 1679                  
// 1680                  
// 1681                  
// 1682                  temp.word=pppfcs16(PPPINITFCS16,&buf_tx_232[1],temp.word) ^ 0xffff;                  
??CrossCallReturnLabel_46:
        RCALL	?Subroutine43
// 1683                  
// 1684                  
// 1685                  /*
// 1686                      buf_tx_232[7+ln_rej_ipcp]=temp.bytes[0];
// 1687                      buf_tx_232[8+ln_rej_ipcp]=temp.bytes[1];                     
// 1688                      buf_tx_232[9+ln_rej_ipcp]=0x7e;        
// 1689                  */
// 1690                
// 1691                  buf_tx_232[vol_tx_ppp-3]=temp.bytes[0];
// 1692                  buf_tx_232[vol_tx_ppp-2]=temp.bytes[1];
// 1693                  buf_tx_232[vol_tx_ppp-1]=0x7e;
// 1694                      
// 1695                             
// 1696                               
// 1697                     
// 1698                      count_tx_ppp=0;                             
// 1699                      UCSR0A=UCSR0A | TXC;                            
// 1700                      UCSR0B=UCSR0B | TXEN;
// 1701                      UCSR0B=UCSR0B | TXCIE;
// 1702                      if(check_cts()==1) return;                 
??CrossCallReturnLabel_802:
        BREQ	??run_ipcp_act_5
// 1703                      S2_RD;
        RCALL	?Subroutine87
// 1704                      UDR0=buf_tx_232[0]; 
// 1705                      if(Regim==RG_DEBAG) UDR3=buf_tx_232[0];
??CrossCallReturnLabel_796:
        BRNE	$+2+2
        RJMP	??run_ipcp_act_10
??run_ipcp_act_5:
        RJMP	?Subroutine278
        CFI EndBlock cfiBlock185
// 1706                      }   
// 1707                      
// 1708 
// 1709                      
// 1710                 break; 
// 1711           
// 1712                      
// 1713           
// 1714           }                  
// 1715       }

        RSEG FARCODE:CODE:NOROOT(1)
?Subroutine118:
        CFI Block cfiCond186 Using cfiCommon0
        CFI NoFunction
        CFI Conditional ??CrossCallReturnLabel_511
        CFI R24 Frame(CFA_Y, -4)
        CFI R25 Frame(CFA_Y, -3)
        CFI R26 Frame(CFA_Y, -2)
        CFI R27 Frame(CFA_Y, -1)
        CFI CFA_SP SP+6
        CFI CFA_Y Y+6
        CFI Block cfiCond187 Using cfiCommon0
        CFI (cfiCond187) NoFunction
        CFI (cfiCond187) Conditional ??CrossCallReturnLabel_512
        CFI (cfiCond187) R24 Frame(CFA_Y, -4)
        CFI (cfiCond187) R25 Frame(CFA_Y, -3)
        CFI (cfiCond187) R26 Frame(CFA_Y, -2)
        CFI (cfiCond187) R27 Frame(CFA_Y, -1)
        CFI (cfiCond187) CFA_SP SP+6
        CFI (cfiCond187) CFA_Y Y+6
        CFI Block cfiPicker188 Using cfiCommon1
        CFI (cfiPicker188) NoFunction
        CFI (cfiPicker188) Picker
        MOVW	R31:R30, R27:R26
        ADD	R30, R16
        ADC	R31, R1
        STD	Z+7, R17
        CFI EndBlock cfiCond186
        CFI EndBlock cfiCond187
        CFI EndBlock cfiPicker188
        REQUIRE ?Subroutine269
        ;		// Fall through to label ?Subroutine269

        RSEG FARCODE:CODE:NOROOT(1)
?Subroutine269:
        CFI Block cfiCond189 Using cfiCommon0
        CFI NoFunction
        CFI Conditional ??CrossCallReturnLabel_511
        CFI R24 Frame(CFA_Y, -4)
        CFI R25 Frame(CFA_Y, -3)
        CFI R26 Frame(CFA_Y, -2)
        CFI R27 Frame(CFA_Y, -1)
        CFI CFA_SP SP+6
        CFI CFA_Y Y+6
        CFI Block cfiCond190 Using cfiCommon0
        CFI (cfiCond190) NoFunction
        CFI (cfiCond190) Conditional ??CrossCallReturnLabel_512
        CFI (cfiCond190) R24 Frame(CFA_Y, -4)
        CFI (cfiCond190) R25 Frame(CFA_Y, -3)
        CFI (cfiCond190) R26 Frame(CFA_Y, -2)
        CFI (cfiCond190) R27 Frame(CFA_Y, -1)
        CFI (cfiCond190) CFA_SP SP+6
        CFI (cfiCond190) CFA_Y Y+6
        CFI Block cfiCond191 Using cfiCommon0
        CFI (cfiCond191) NoFunction
        CFI (cfiCond191) Conditional ??CrossCallReturnLabel_509
        CFI (cfiCond191) CFA_SP SP+6
        CFI Block cfiCond192 Using cfiCommon0
        CFI (cfiCond192) NoFunction
        CFI (cfiCond192) Conditional ??CrossCallReturnLabel_510
        CFI (cfiCond192) CFA_SP SP+6
        CFI Block cfiPicker193 Using cfiCommon1
        CFI (cfiPicker193) NoFunction
        CFI (cfiPicker193) Picker
        INC	R16
        RET
        CFI EndBlock cfiCond189
        CFI EndBlock cfiCond190
        CFI EndBlock cfiCond191
        CFI EndBlock cfiCond192
        CFI EndBlock cfiPicker193

        RSEG FARCODE:CODE:NOROOT(1)
?Subroutine107:
        CFI Block cfiCond194 Using cfiCommon0
        CFI NoFunction
        CFI Conditional ??CrossCallReturnLabel_187
        CFI R24 Frame(CFA_Y, -4)
        CFI R25 Frame(CFA_Y, -3)
        CFI R26 Frame(CFA_Y, -2)
        CFI R27 Frame(CFA_Y, -1)
        CFI CFA_SP SP+6
        CFI CFA_Y Y+6
        CFI Block cfiCond195 Using cfiCommon0
        CFI (cfiCond195) NoFunction
        CFI (cfiCond195) Conditional ??CrossCallReturnLabel_188
        CFI (cfiCond195) R24 Frame(CFA_Y, -4)
        CFI (cfiCond195) R25 Frame(CFA_Y, -3)
        CFI (cfiCond195) R26 Frame(CFA_Y, -2)
        CFI (cfiCond195) R27 Frame(CFA_Y, -1)
        CFI (cfiCond195) CFA_SP SP+6
        CFI (cfiCond195) CFA_Y Y+6
        CFI Block cfiPicker196 Using cfiCommon1
        CFI (cfiPicker196) NoFunction
        CFI (cfiPicker196) Picker
        STD	Z+3, R18
        LDI	R18, 33
        STD	Z+4, R18
        LDI	R18, 1
        STD	Z+5, R18
        RET
        CFI EndBlock cfiCond194
        CFI EndBlock cfiCond195
        CFI EndBlock cfiPicker196

        RSEG FARCODE:CODE:NOROOT(1)
?Subroutine106:
        CFI Block cfiCond197 Using cfiCommon0
        CFI NoFunction
        CFI Conditional ??CrossCallReturnLabel_185
        CFI R24 Frame(CFA_Y, -16)
        CFI R25 Frame(CFA_Y, -15)
        CFI R26 Frame(CFA_Y, -14)
        CFI R27 Frame(CFA_Y, -13)
        CFI R4 Frame(CFA_Y, -12)
        CFI R5 Frame(CFA_Y, -11)
        CFI R6 Frame(CFA_Y, -10)
        CFI R7 Frame(CFA_Y, -9)
        CFI R8 Frame(CFA_Y, -8)
        CFI R9 Frame(CFA_Y, -7)
        CFI R10 Frame(CFA_Y, -6)
        CFI R11 Frame(CFA_Y, -5)
        CFI R12 Frame(CFA_Y, -4)
        CFI R13 Frame(CFA_Y, -3)
        CFI R14 Frame(CFA_Y, -2)
        CFI R15 Frame(CFA_Y, -1)
        CFI CFA_SP SP+6
        CFI CFA_Y Y+88
        CFI Block cfiCond198 Using cfiCommon0
        CFI (cfiCond198) NoFunction
        CFI (cfiCond198) Conditional ??CrossCallReturnLabel_186
        CFI (cfiCond198) R24 Frame(CFA_Y, -16)
        CFI (cfiCond198) R25 Frame(CFA_Y, -15)
        CFI (cfiCond198) R26 Frame(CFA_Y, -14)
        CFI (cfiCond198) R27 Frame(CFA_Y, -13)
        CFI (cfiCond198) R4 Frame(CFA_Y, -12)
        CFI (cfiCond198) R5 Frame(CFA_Y, -11)
        CFI (cfiCond198) R6 Frame(CFA_Y, -10)
        CFI (cfiCond198) R7 Frame(CFA_Y, -9)
        CFI (cfiCond198) R8 Frame(CFA_Y, -8)
        CFI (cfiCond198) R9 Frame(CFA_Y, -7)
        CFI (cfiCond198) R10 Frame(CFA_Y, -6)
        CFI (cfiCond198) R11 Frame(CFA_Y, -5)
        CFI (cfiCond198) R12 Frame(CFA_Y, -4)
        CFI (cfiCond198) R13 Frame(CFA_Y, -3)
        CFI (cfiCond198) R14 Frame(CFA_Y, -2)
        CFI (cfiCond198) R15 Frame(CFA_Y, -1)
        CFI (cfiCond198) CFA_SP SP+6
        CFI (cfiCond198) CFA_Y Y+88
        CFI Block cfiPicker199 Using cfiCommon1
        CFI (cfiPicker199) NoFunction
        CFI (cfiPicker199) Picker
        ADD	R30, R16
        ADC	R31, R17
        SUBI	R30, 160
        SBCI	R31, 2
        CFI Block cfiCond200 Using cfiCommon0
        CFI (cfiCond200) NoFunction
        CFI (cfiCond200) Conditional ??CrossCallReturnLabel_183
        CFI (cfiCond200) R24 Frame(CFA_Y, -4)
        CFI (cfiCond200) R25 Frame(CFA_Y, -3)
        CFI (cfiCond200) R26 Frame(CFA_Y, -2)
        CFI (cfiCond200) R27 Frame(CFA_Y, -1)
        CFI (cfiCond200) CFA_SP SP+6
        CFI (cfiCond200) CFA_Y Y+6
        CFI Block cfiCond201 Using cfiCommon0
        CFI (cfiCond201) NoFunction
        CFI (cfiCond201) Conditional ??CrossCallReturnLabel_184
        CFI (cfiCond201) R24 Frame(CFA_Y, -4)
        CFI (cfiCond201) R25 Frame(CFA_Y, -3)
        CFI (cfiCond201) R26 Frame(CFA_Y, -2)
        CFI (cfiCond201) R27 Frame(CFA_Y, -1)
        CFI (cfiCond201) CFA_SP SP+6
        CFI (cfiCond201) CFA_Y Y+6
??Subroutine106_0:
        ST	Z, R18
        STD	Z+1, R19
        RET
        CFI EndBlock cfiCond197
        CFI EndBlock cfiCond198
        CFI EndBlock cfiPicker199
        CFI EndBlock cfiCond200
        CFI EndBlock cfiCond201

        RSEG FARCODE:CODE:NOROOT(1)
?Subroutine78:
        CFI Block cfiCond202 Using cfiCommon0
        CFI NoFunction
        CFI Conditional ??CrossCallReturnLabel_121
        CFI R24 Frame(CFA_Y, -4)
        CFI R25 Frame(CFA_Y, -3)
        CFI R26 Frame(CFA_Y, -2)
        CFI R27 Frame(CFA_Y, -1)
        CFI CFA_SP SP+6
        CFI CFA_Y Y+6
        CFI Block cfiCond203 Using cfiCommon0
        CFI (cfiCond203) NoFunction
        CFI (cfiCond203) Conditional ??CrossCallReturnLabel_122
        CFI (cfiCond203) R24 Frame(CFA_Y, -4)
        CFI (cfiCond203) R25 Frame(CFA_Y, -3)
        CFI (cfiCond203) R26 Frame(CFA_Y, -2)
        CFI (cfiCond203) R27 Frame(CFA_Y, -1)
        CFI (cfiCond203) CFA_SP SP+6
        CFI (cfiCond203) CFA_Y Y+6
        CFI Block cfiPicker204 Using cfiCommon1
        CFI (cfiPicker204) NoFunction
        CFI (cfiPicker204) Picker
        STD	Z+15, R18
        LDD	R16, Y+1
        STD	Z+16, R16
        LDI	R16, 126
        STD	Z+17, R16
        RET
        CFI EndBlock cfiCond202
        CFI EndBlock cfiCond203
        CFI EndBlock cfiPicker204

        RSEG FARCODE:CODE:NOROOT(1)
?Subroutine74:
        CFI Block cfiCond205 Using cfiCommon0
        CFI NoFunction
        CFI Conditional ??CrossCallReturnLabel_119
        CFI R24 Frame(CFA_Y, -4)
        CFI R25 Frame(CFA_Y, -3)
        CFI R26 Frame(CFA_Y, -2)
        CFI R27 Frame(CFA_Y, -1)
        CFI CFA_SP SP+6
        CFI CFA_Y Y+6
        CFI Block cfiCond206 Using cfiCommon0
        CFI (cfiCond206) NoFunction
        CFI (cfiCond206) Conditional ??CrossCallReturnLabel_120
        CFI (cfiCond206) R24 Frame(CFA_Y, -4)
        CFI (cfiCond206) R25 Frame(CFA_Y, -3)
        CFI (cfiCond206) R26 Frame(CFA_Y, -2)
        CFI (cfiCond206) R27 Frame(CFA_Y, -1)
        CFI (cfiCond206) CFA_SP SP+6
        CFI (cfiCond206) CFA_Y Y+6
        CFI Block cfiPicker207 Using cfiCommon1
        CFI (cfiPicker207) NoFunction
        CFI (cfiPicker207) Picker
        LDI	R18, 255
        MOVW	R31:R30, R27:R26
        STD	Z+1, R18
        LDI	R18, 3
        STD	Z+2, R18
        RET
        CFI EndBlock cfiCond205
        CFI EndBlock cfiCond206
        CFI EndBlock cfiPicker207

        RSEG FARCODE:CODE:NOROOT(1)
?Subroutine59:
        CFI Block cfiCond208 Using cfiCommon0
        CFI NoFunction
        CFI Conditional ??CrossCallReturnLabel_96
        CFI R24 Frame(CFA_Y, -4)
        CFI R25 Frame(CFA_Y, -3)
        CFI R26 Frame(CFA_Y, -2)
        CFI R27 Frame(CFA_Y, -1)
        CFI CFA_SP SP+6
        CFI CFA_Y Y+6
        CFI Block cfiCond209 Using cfiCommon0
        CFI (cfiCond209) NoFunction
        CFI (cfiCond209) Conditional ??CrossCallReturnLabel_97
        CFI (cfiCond209) R24 Frame(CFA_Y, -4)
        CFI (cfiCond209) R25 Frame(CFA_Y, -3)
        CFI (cfiCond209) R26 Frame(CFA_Y, -2)
        CFI (cfiCond209) R27 Frame(CFA_Y, -1)
        CFI (cfiCond209) CFA_SP SP+6
        CFI (cfiCond209) CFA_Y Y+6
        CFI Block cfiPicker210 Using cfiCommon1
        CFI (cfiPicker210) NoFunction
        CFI (cfiPicker210) Picker
        MOVW	R31:R30, R23:R22
        LDD	R17, Z+4
        ANDI	R17, 0xFE
        STD	Z+4, R17
        LDI	R17, 126
        ST	X, R17
        LDI	R17, 128
        MOVW	R31:R30, R27:R26
        STD	Z+1, R17
        LDI	R17, 33
        STD	Z+2, R17
        RET
        CFI EndBlock cfiCond208
        CFI EndBlock cfiCond209
        CFI EndBlock cfiPicker210

        RSEG FARCODE:CODE:NOROOT(1)
?Subroutine53:
        CFI Block cfiCond211 Using cfiCommon0
        CFI NoFunction
        CFI Conditional ??CrossCallReturnLabel_80
        CFI R26 Frame(CFA_Y, -2)
        CFI R27 Frame(CFA_Y, -1)
        CFI CFA_SP SP+6
        CFI CFA_Y Y+4
        CFI Block cfiCond212 Using cfiCommon0
        CFI (cfiCond212) NoFunction
        CFI (cfiCond212) Conditional ??CrossCallReturnLabel_81
        CFI (cfiCond212) R24 Frame(CFA_Y, -4)
        CFI (cfiCond212) R25 Frame(CFA_Y, -3)
        CFI (cfiCond212) R26 Frame(CFA_Y, -2)
        CFI (cfiCond212) R27 Frame(CFA_Y, -1)
        CFI (cfiCond212) CFA_SP SP+6
        CFI (cfiCond212) CFA_Y Y+6
        CFI Block cfiPicker213 Using cfiCommon1
        CFI (cfiPicker213) NoFunction
        CFI (cfiPicker213) Picker
        MOVW	R19:R18, R27:R26
        SUBI	R18, 255
        SBCI	R19, 255
        LDI	R16, 255
        LDI	R17, 255
        RCALL	pppfcs16
        LDI	R18, 255
        LDI	R19, 255
        EOR	R18, R16
        EOR	R19, R17
        ST	Y, R18
        STD	Y+1, R19
        RET
        CFI EndBlock cfiCond211
        CFI EndBlock cfiCond212
        CFI EndBlock cfiPicker213

        RSEG FARCODE:CODE:NOROOT(1)
?Subroutine46:
        CFI Block cfiCond214 Using cfiCommon0
        CFI NoFunction
        CFI Conditional ??CrossCallReturnLabel_76
        CFI R24 Frame(CFA_Y, -4)
        CFI R25 Frame(CFA_Y, -3)
        CFI R26 Frame(CFA_Y, -2)
        CFI R27 Frame(CFA_Y, -1)
        CFI CFA_SP SP+6
        CFI CFA_Y Y+6
        CFI Block cfiCond215 Using cfiCommon0
        CFI (cfiCond215) NoFunction
        CFI (cfiCond215) Conditional ??CrossCallReturnLabel_77
        CFI (cfiCond215) R24 Frame(CFA_Y, -4)
        CFI (cfiCond215) R25 Frame(CFA_Y, -3)
        CFI (cfiCond215) R26 Frame(CFA_Y, -2)
        CFI (cfiCond215) R27 Frame(CFA_Y, -1)
        CFI (cfiCond215) CFA_SP SP+6
        CFI (cfiCond215) CFA_Y Y+6
        CFI Block cfiPicker216 Using cfiCommon1
        CFI (cfiPicker216) NoFunction
        CFI (cfiPicker216) Picker
        LDI	R16, 0
        LDI	R30, LOW(count_tx_ppp)
        LDI	R31, (count_tx_ppp) >> 8
        ST	Z, R16
        STD	Z+1, R16
        RET
        CFI EndBlock cfiCond214
        CFI EndBlock cfiCond215
        CFI EndBlock cfiPicker216

        RSEG FARCODE:CODE:NOROOT(1)
?Subroutine44:
        CFI Block cfiCond217 Using cfiCommon0
        CFI NoFunction
        CFI Conditional ??CrossCallReturnLabel_74
        CFI R24 Frame(CFA_Y, -4)
        CFI R25 Frame(CFA_Y, -3)
        CFI R26 Frame(CFA_Y, -2)
        CFI R27 Frame(CFA_Y, -1)
        CFI CFA_SP SP+6
        CFI CFA_Y Y+6
        CFI Block cfiCond218 Using cfiCommon0
        CFI (cfiCond218) NoFunction
        CFI (cfiCond218) Conditional ??CrossCallReturnLabel_75
        CFI (cfiCond218) R24 Frame(CFA_Y, -4)
        CFI (cfiCond218) R25 Frame(CFA_Y, -3)
        CFI (cfiCond218) R26 Frame(CFA_Y, -2)
        CFI (cfiCond218) R27 Frame(CFA_Y, -1)
        CFI (cfiCond218) CFA_SP SP+6
        CFI (cfiCond218) CFA_Y Y+6
        CFI Block cfiPicker219 Using cfiCommon1
        CFI (cfiPicker219) NoFunction
        CFI (cfiPicker219) Picker
        LDI	R16, 0
        LDI	R30, LOW(vol_tx_ppp)
        LDI	R31, (vol_tx_ppp) >> 8
        LD	R24, Z
        LDD	R25, Z+1
        SBIW	R25:R24, 1
        RJMP	??Subroutine44_0
??Subroutine44_1:
        MOVW	R19:R18, R25:R24
        SUB	R18, R16
        SBCI	R19, 0
        MOVW	R31:R30, R27:R26
        ADD	R30, R18
        ADC	R31, R19
        LD	R17, Z
        LDI	R30, LOW(vol_tx_ppp)
        LDI	R31, (vol_tx_ppp) >> 8
        LD	R18, Z
        LDD	R19, Z+1
        SUBI	R18, 255
        SBCI	R19, 255
        SUB	R18, R16
        SBCI	R19, 0
        MOVW	R31:R30, R27:R26
        ADD	R30, R18
        ADC	R31, R19
        ST	Z, R17
        INC	R16
??Subroutine44_0:
        MOV	R20, R16
        LDI	R21, 0
        CP	R20, R24
        CPC	R21, R25
        BRCS	??Subroutine44_1
        RET
        CFI EndBlock cfiCond217
        CFI EndBlock cfiCond218
        CFI EndBlock cfiPicker219

        RSEG FARCODE:CODE:NOROOT(1)
?Subroutine32:
        CFI Block cfiCond220 Using cfiCommon0
        CFI NoFunction
        CFI Conditional ??CrossCallReturnLabel_44
        CFI R24 Frame(CFA_Y, -4)
        CFI R25 Frame(CFA_Y, -3)
        CFI R26 Frame(CFA_Y, -2)
        CFI R27 Frame(CFA_Y, -1)
        CFI CFA_SP SP+6
        CFI CFA_Y Y+7
        CFI Block cfiCond221 Using cfiCommon0
        CFI (cfiCond221) NoFunction
        CFI (cfiCond221) Conditional ??CrossCallReturnLabel_45
        CFI (cfiCond221) R24 Frame(CFA_Y, -4)
        CFI (cfiCond221) R25 Frame(CFA_Y, -3)
        CFI (cfiCond221) R26 Frame(CFA_Y, -2)
        CFI (cfiCond221) R27 Frame(CFA_Y, -1)
        CFI (cfiCond221) CFA_SP SP+6
        CFI (cfiCond221) CFA_Y Y+6
        CFI Block cfiCond222 Using cfiCommon0
        CFI (cfiCond222) NoFunction
        CFI (cfiCond222) Conditional ??CrossCallReturnLabel_46
        CFI (cfiCond222) R24 Frame(CFA_Y, -4)
        CFI (cfiCond222) R25 Frame(CFA_Y, -3)
        CFI (cfiCond222) R26 Frame(CFA_Y, -2)
        CFI (cfiCond222) R27 Frame(CFA_Y, -1)
        CFI (cfiCond222) CFA_SP SP+6
        CFI (cfiCond222) CFA_Y Y+6
        CFI Block cfiPicker223 Using cfiCommon1
        CFI (cfiPicker223) NoFunction
        CFI (cfiPicker223) Picker
        LDI	R16, 255
        MOVW	R31:R30, R27:R26
        STD	Z+1, R16
        LDI	R16, 3
        STD	Z+2, R16
        LD	R16, Y
        LDD	R17, Y+1
        SUBI	R16, 254
        SBCI	R17, 255
        ST	Y, R16
        STD	Y+1, R17
        MOVW	R25:R24, R17:R16
        ADIW	R25:R24, 4
        LDI	R30, LOW(vol_tx_ppp)
        LDI	R31, (vol_tx_ppp) >> 8
        ST	Z, R24
        STD	Z+1, R25
        RET
        CFI EndBlock cfiCond220
        CFI EndBlock cfiCond221
        CFI EndBlock cfiCond222
        CFI EndBlock cfiPicker223
// 1716   
// 1717   
// 1718 
// 1719   
// 1720    
// 1721   void monitor_act_IPCP(void)
// 1722       {  
// 1723        
// 1724        if((uk_in_act_IPCP!=uk_out_act_IPCP)&&(fl_lcp.act_lcp_end==1)&&(fl_pap.act_pap_end==1)&&(fl_ipcp.act_ipcp_end==1)&&(fl_ip.act_ip_end==1))
// 1725         {   
// 1726         run_ipcp_act();
// 1727         uk_out_act_IPCP++;  
// 1728         if (uk_out_act_IPCP>=IPCP_ACT_VOL)uk_out_act_IPCP=0; 
// 1729         }
// 1730       }
// 1731  
// 1732  
// 1733   
// 1734 void monitor_event_IPCP(void)
// 1735     {
// 1736      if (fl_ipcp1.up==1)      //UP
// 1737          {  
// 1738          
// 1739           
// 1740          fl_ipcp1.up=0; 
// 1741            switch(IPCP_state)
// 1742                {
// 1743                 case START_ST:                                                                
// 1744                             //vol_cnt_rst_ipcp=VOL_IPCP_MC;  
// 1745                             IPCP_act_buf[uk_in_act_IPCP]=IRC;  
// 1746                             prov_uk_in_ipcp();                    
// 1747                             IPCP_act_buf[uk_in_act_IPCP]=SCR;  
// 1748                             prov_uk_in_ipcp();                    
// 1749                             IPCP_state=SEND_REQ; 
// 1750                            
// 1751                 return;
// 1752                }
// 1753             
// 1754          return;
// 1755          }
// 1756      
// 1757     
// 1758      
// 1759      if(fl_ipcp.t0_pl==1)        //TO_PL
// 1760         {
// 1761          fl_ipcp.t0_pl=0; 
// 1762          switch(IPCP_state)
// 1763                {                     
// 1764                                
// 1765                 
// 1766                 case SEND_REQ:
// 1767                            // vol_cnt_rst_ipcp=VOL_IPCP_MC;                                                    
// 1768                             IPCP_act_buf[uk_in_act_IPCP]=IRC;  
// 1769                             prov_uk_in_ipcp();                
// 1770                             IPCP_act_buf[uk_in_act_IPCP]=SCR;  
// 1771                             prov_uk_in_ipcp();                 
// 1772                             IPCP_state=SEND_REQ;
// 1773                             return;
// 1774                 case REC_ACK:      
// 1775                             //vol_cnt_rst_ipcp=VOL_IPCP_MC;                                              
// 1776                             IPCP_act_buf[uk_in_act_IPCP]=IRC;  
// 1777                             prov_uk_in_ipcp();                
// 1778                             IPCP_act_buf[uk_in_act_IPCP]=SCR;  
// 1779                             prov_uk_in_ipcp();                 
// 1780                             IPCP_state=SEND_REQ;
// 1781                             return;
// 1782                 case SEND_ACK: 
// 1783                           //  vol_cnt_rst_ipcp=VOL_IPCP_MC;                                                   
// 1784                             IPCP_act_buf[uk_in_act_IPCP]=IRC;  
// 1785                             prov_uk_in_ipcp();                 
// 1786                             IPCP_act_buf[uk_in_act_IPCP]=SCR;  
// 1787                             prov_uk_in_ipcp();                 
// 1788                             IPCP_state=SEND_ACK;
// 1789                             return;                                                              
// 1790                } 
// 1791             
// 1792          return;
// 1793         }  
// 1794    
// 1795      switch (IPCP_event)
// 1796         {
// 1797         case RCR_PL:  
// 1798             IPCP_event=NO_EVENT; 
// 1799             switch(IPCP_state)
// 1800                {                     
// 1801 
// 1802                
// 1803                 case SEND_REQ:                                                                
// 1804                             IPCP_act_buf[uk_in_act_IPCP]=SCA;  
// 1805                             prov_uk_in_ipcp();                 
// 1806                             IPCP_state=SEND_ACK;   
// 1807                          
// 1808                             return;
// 1809                 case REC_ACK:
// 1810         
// 1811                             IPCP_act_buf[uk_in_act_IPCP]=SCA;  
// 1812                             prov_uk_in_ipcp();       
// 1813                             IPCP_act_buf[uk_in_act_IPCP]=TLU;  
// 1814                             prov_uk_in_ipcp();          
// 1815                             IPCP_state=OPEN_ST;  
// 1816                            
// 1817                             return;
// 1818                 case SEND_ACK:                                                                
// 1819                             IPCP_act_buf[uk_in_act_IPCP]=SCA;  
// 1820                             prov_uk_in_ipcp();                 
// 1821                             IPCP_state=SEND_ACK; 
// 1822                    
// 1823                             return;
// 1824                 case OPEN_ST:      
// 1825                                                                               
// 1826                             IPCP_act_buf[uk_in_act_IPCP]=IRC;  
// 1827                             prov_uk_in_ipcp(); 
// 1828                             IPCP_act_buf[uk_in_act_IPCP]=SCA;  
// 1829                             prov_uk_in_ipcp();                 
// 1830                    
// 1831                             return;                                                                    
// 1832                }  
// 1833              return; 
// 1834         case RCR_MI: 
// 1835            
// 1836             
// 1837             
// 1838             IPCP_event=NO_EVENT;
// 1839             switch(IPCP_state)
// 1840                {                     
// 1841 
// 1842                
// 1843                 case SEND_REQ:                                                                
// 1844                             
// 1845                        
// 1846                             IPCP_act_buf[uk_in_act_IPCP]=SCN;  
// 1847                             prov_uk_in_ipcp();                 
// 1848                             IPCP_state=SEND_REQ;    
// 1849                      
// 1850                             return;
// 1851                 case REC_ACK:                                                                
// 1852                             IPCP_act_buf[uk_in_act_IPCP]=SCN;  
// 1853                             prov_uk_in_ipcp();              
// 1854                             IPCP_state=REC_ACK;     
// 1855                            
// 1856                             return;
// 1857                 case SEND_ACK:                                                                
// 1858                             IPCP_act_buf[uk_in_act_IPCP]=SCN;  
// 1859                             prov_uk_in_ipcp();                 
// 1860                             IPCP_state=SEND_REQ;
// 1861                          
// 1862                             return;
// 1863                 
// 1864                /*
// 1865                case OPEN_ST:      
// 1866                           
// 1867                            // vol_cnt_rst_ipcp=VOL_IPCP_MC;
// 1868                             IPCP_act_buf[uk_in_act_IPCP]=IRC;  
// 1869                             prov_uk_in_ipcp(); 
// 1870                             IPCP_act_buf[uk_in_act_IPCP]=SCR;  
// 1871                             prov_uk_in_ipcp();                                                                
// 1872                             IPCP_act_buf[uk_in_act_IPCP]=SCN;  
// 1873                             prov_uk_in_ipcp();                 
// 1874                             IPCP_state=SEND_REQ;
// 1875                
// 1876                             
// 1877                             return;  
// 1878                  */           
// 1879                }  
// 1880              return; 
// 1881         case RCA:  
// 1882             
// 1883             
// 1884            
// 1885             
// 1886             IPCP_event=NO_EVENT;
// 1887             switch(IPCP_state)
// 1888                {                     
// 1889 
// 1890                 
// 1891                 case SEND_REQ: 
// 1892                             
// 1893                            // vol_cnt_rst_ipcp=VOL_IPCP_MC;  
// 1894                             IPCP_act_buf[uk_in_act_IPCP]=IRC;  
// 1895                             prov_uk_in_ipcp();                                        
// 1896                             IPCP_state=REC_ACK; 
// 1897                      
// 1898                             return;
// 1899                 case REC_ACK:       
// 1900                             IPCP_act_buf[uk_in_act_IPCP]=IRC;  
// 1901                             prov_uk_in_ipcp(); 
// 1902                            // vol_cnt_rst_ipcp=VOL_IPCP_MC;                                             
// 1903                             IPCP_act_buf[uk_in_act_IPCP]=SCR;  
// 1904                             prov_uk_in_ipcp();                 
// 1905                             IPCP_state=SEND_REQ;
// 1906                      
// 1907                             return;
// 1908                 case SEND_ACK:                                                                
// 1909 
// 1910                             
// 1911                             vol_cnt_rst_ipcp=VOL_IPCP_MC;  
// 1912                             IPCP_act_buf[uk_in_act_IPCP]=IRC;  
// 1913                             prov_uk_in_ipcp();                                        
// 1914                             IPCP_act_buf[uk_in_act_IPCP]=TLU;  
// 1915                             prov_uk_in_ipcp();
// 1916                             IPCP_state=OPEN_ST;
// 1917                   
// 1918                             return;
// 1919                /*
// 1920                case OPEN_ST:
// 1921                            // vol_cnt_rst_ipcp=VOL_IPCP_MC;
// 1922               //подумать    ?????????????????????????????
// 1923                            
// 1924                             IPCP_act_buf[uk_in_act_IPCP]=IRC;  
// 1925                             prov_uk_in_ipcp(); 
// 1926                             IPCP_act_buf[uk_in_act_IPCP]=SCR;  
// 1927                             prov_uk_in_ipcp();                                                                               
// 1928                             IPCP_state=SEND_REQ;
// 1929                          
// 1930                             
// 1931                             return;
// 1932                             */
// 1933                             
// 1934                }  
// 1935              return; 
// 1936         case RCN: 
// 1937                 IPCP_event=NO_EVENT;
// 1938         switch(IPCP_state)
// 1939                {                     
// 1940 
// 1941                 
// 1942                 case SEND_REQ:                                                                
// 1943                             vol_cnt_rst_ipcp=VOL_IPCP_MC;  
// 1944                             IPCP_act_buf[uk_in_act_IPCP]=IRC;  
// 1945                             prov_uk_in_ipcp(); 
// 1946                             IPCP_act_buf[uk_in_act_IPCP]=SCR;  
// 1947                             prov_uk_in_ipcp();                                       
// 1948                             IPCP_state=SEND_REQ;
// 1949                           
// 1950                             return;
// 1951                 case REC_ACK:     
// 1952                            // vol_cnt_rst_ipcp=VOL_IPCP_MC;                                               
// 1953                             IPCP_act_buf[uk_in_act_IPCP]=IRC;  
// 1954                             prov_uk_in_ipcp(); 
// 1955                             IPCP_act_buf[uk_in_act_IPCP]=SCR;  
