##############################################################################
#                                                                            #
#                                                      14/Nov/2007  18:01:15 #
# IAR Atmel AVR C/C++ Compiler V4.12A/W32, Evaluation Version                #
# Copyright 1996-2005 IAR Systems. All rights reserved.                      #
#                                                                            #
#    Source file  =  D:\PRJIAR\NSS141107\fppp2.c                             #
#    Command line =  D:\PRJIAR\NSS141107\fppp2.c --cpu=m1280 -ms -o          #
#                    D:\PRJIAR\NSS141107\Debug\Obj\ -lCN                     #
#                    D:\PRJIAR\NSS141107\Debug\List\ -lA                     #
#                    D:\PRJIAR\NSS141107\Debug\List\ -y                      #
#                    --initializers_in_flash -z6 --no_inline                 #
#                    --no_cross_call --no_tbaa --debug -e -I "D:\Program     #
#                    Files\IAR Systems\Embedded Workbench 4.0                #
#                    Evaluation\avr\INC\" -I "D:\Program Files\IAR           #
#                    Systems\Embedded Workbench 4.0                          #
#                    Evaluation\avr\INC\DLIB\" --eeprom_size 4096            #
#                    --dlib_config "D:\Program Files\IAR Systems\Embedded    #
#                    Workbench 4.0 Evaluation\avr\LIB\DLIB\dlAVR-3s-ec-n.h"  #
#    List file    =  D:\PRJIAR\NSS141107\Debug\List\fppp2.lst                #
#    Object file  =  D:\PRJIAR\NSS141107\Debug\Obj\fppp2.r90                 #
#                                                                            #
#                                                                            #
##############################################################################

D:\PRJIAR\NSS141107\fppp2.c
      1          #include <iom1280.h> 

   \                                 In segment ABSOLUTE, at 0x136
   \   union <unnamed> volatile __ext_io _A_UDR3
   \                     _A_UDR3:
   \   00000000                      DS 1

   \                                 In segment ABSOLUTE, at 0xc6
   \   union <unnamed> volatile __io _A_UDR0
   \                     _A_UDR0:
   \   00000000                      DS 1

   \                                 In segment ABSOLUTE, at 0xc1
   \   union <unnamed> volatile __io _A_UCSR0B
   \                     _A_UCSR0B:
   \   00000000                      DS 1

   \                                 In segment ABSOLUTE, at 0xc0
   \   union <unnamed> volatile __io _A_UCSR0A
   \                     _A_UCSR0A:
   \   00000000                      DS 1

   \                                 In segment ABSOLUTE, at 0x60
   \   union <unnamed> volatile __io _A_WDTCSR
   \                     _A_WDTCSR:
   \   00000000                      DS 1

   \                                 In segment ABSOLUTE, at 0x5f
   \   union <unnamed> volatile __io _A_SREG
   \                     _A_SREG:
   \   00000000                      DS 1

   \                                 In segment ABSOLUTE, at 0x5b
   \   union <unnamed> volatile __io _A_RAMPZ
   \                     _A_RAMPZ:
   \   00000000                      DS 1

   \                                 In segment ABSOLUTE, at 0x28
   \   union <unnamed> volatile __io _A_PORTC
   \                     _A_PORTC:
   \   00000000                      DS 1
      2          #include <inavr.h>
      3          #include "dfpin.h"
      4          #include "dfproc.h"
      5          #include "def_prot.h"
      6          #include "def_conf.h"
      7          #include "map_ef.h"
      8          #include "ozu_map.h"
      9          #include "def_at.h"
     10          #include "def_link.h"
     11          #include "dfcnst.h"
     12          
     13          //ŕäîďňčđîâŕííűé îáđĺçŕííűé ńňĺę PPP 14.09.07
     14          
     15          #define C_GLUK1    0x55   
     16          #define C_GLUK2    0xaa
     17          
     18          void  transform_buf(unsigned char *p,unsigned int kol_byte,unsigned int s_rand);
     19          
     20          
     21          void boot(void);
     22          void r_p_flash(unsigned int adress);
     23          void reload_apl (void);
     24          
     25          void send_info(char size,char __flash *p,unsigned char fl_id,unsigned char id);
     26          

   \                                 In segment NEAR_F, align 1, keep-with-next
     27          __flash char evc_rld[]=            {'E','V','C',':','r','l','d'};
   \                     evc_rld:
   \   00000000   56453A436C72       DB 69, 86, 67, 58, 114, 108, 100
   \              64          
     28          
     29          __flash char rec_ctrl_ch[]=             {'R','E','C',':','c','t','r','l',' ','c','h'};
   \                     rec_ctrl_ch:
   \   00000007   45523A437463       DB 82, 69, 67, 58, 99, 116, 114, 108, 32, 99, 104
   \              6C72632068  
     30          __flash char rec_evc[]=             {'R','E','C',':','e','v','c'};
   \                     rec_evc:
   \   00000012   45523A437665       DB 82, 69, 67, 58, 101, 118, 99
   \              63          
     31          
     32          __flash char ans_in_ctrl_cl[]={'A','N','S','-','<','c','t','r','l',' ','c','l'};
   \                     ans_in_ctrl_cl:
   \   00000019   4E412D53633C       DB 65, 78, 83, 45, 60, 99, 116, 114, 108, 32, 99, 108
   \              7274206C6C63
     33          
     34          
     35          /*
     36          __flash char req_in_485_1[]={'R','E','Q','-','<','4','8','5','_','1'};
     37          __flash char req_in_485_2[]={'R','E','Q','-','<','4','8','5','_','2'};
     38          __flash char req_in_232[]={'R','E','Q','-','<','2','3','2'};
     39          __flash char req_in_st_contr[]={'R','E','Q','-','<','s','t',' ','c','o','n','t','r'};
     40          __flash char req_in_config[]={'R','E','Q','-','<','c','o','n','f','i','g'};
     41          __flash char req_in_prog[]={'R','E','Q','-','<','p','r','o','g'};
     42          */
     43          
     44          __flash char ans_out_485_1[]={'A','N','S','-','>','4','8','5','_','1'};
   \                     ans_out_485_1:
   \   00000025   4E412D53343E       DB 65, 78, 83, 45, 62, 52, 56, 53, 95, 49
   \              3538315F    
     45          __flash char ans_out_485_2[]={'A','N','S','-','>','4','8','5','_','2'};
   \                     ans_out_485_2:
   \   0000002F   4E412D53343E       DB 65, 78, 83, 45, 62, 52, 56, 53, 95, 50
   \              3538325F    
     46          __flash char ans_out_232[]={'A','N','S','-','>','2','3','2'};
   \                     ans_out_232:
   \   00000039   4E412D53323E       DB 65, 78, 83, 45, 62, 50, 51, 50
   \              3233        
     47          __flash char ans_out_st_contr[]={'A','N','S','-','>','s','t',' ','c','o','n','t','r'};
   \                     ans_out_st_contr:
   \   00000041   4E412D53733E       DB 65, 78, 83, 45, 62, 115, 116, 32, 99, 111, 110, 116, 114
   \              20746F63746E
   \              72          
     48          __flash char ans_out_config[]={'A','N','S','-','>','c','o','n','f','i','g'};
   \                     ans_out_config:
   \   0000004E   4E412D53633E       DB 65, 78, 83, 45, 62, 99, 111, 110, 102, 105, 103
   \              6E6F696667  
     49          __flash char ans_out_prog[]={'A','N','S','-','>','p','r','o','g'};
   \                     ans_out_prog:
   \   00000059   4E412D53703E       DB 65, 78, 83, 45, 62, 112, 114, 111, 103
   \              6F7267      
     50          
     51          //__flash char ans_out_ping[]={'A','N','S','-','>','p','i','n','g'};
     52          
     53          
     54          //#include "sec.h"
     55          
     56          //enum t_version {VER1 = 1 ,VER2,VER3,VER4};
     57          //enum t_type {ZAPR,OTV,SOOB,KVIT};
     58          extern unsigned char simka; //dobavka
     59          
     60          extern unsigned int num_self,num_seq_cl,port_udp;
     61          extern unsigned char ip_ls[4]; 
     62          
     63          
     64          extern unsigned long int cnt_no_link, vol_cnt_no_link;//dobavka
     65          
     66          void delay(unsigned int period);
     67          extern unsigned long int burst_ds_r(void);
     68          unsigned int proc_config(unsigned char *buf_rx_ppp,unsigned char offset,unsigned int count_rx_ppp);
     69          unsigned char check_ln_conf(unsigned char *buf_rx_ppp,unsigned char offset,unsigned int count_rx_ppp);
     70          unsigned char check_cont_485_1 (unsigned char *pointer);
     71          unsigned char check_cont_485_2 (unsigned char *pointer);
     72          
     73          extern unsigned char Regim;
     74          unsigned char proc_udp_data(unsigned char *buf_rx_ppp,unsigned int count_rx_ppp);
     75          unsigned int crc_m1(unsigned char *ka,unsigned int num,unsigned int crc);
     76          unsigned int crc_ozu(void);
     77          extern unsigned int prov_ozu;
     78          
     79          void clr_cntr_nat(void);
     80          void form_buf_tx_ppp(void);
     81          
     82          unsigned char check_cts(void);
     83          void clr_cntr_link(void);
     84          
     85          void RdFromFleshToArr(unsigned int adres_flesh, unsigned char *adres_ozu,unsigned int num);
     86          void WrArrayToFlesh(unsigned int adres_flesh,  unsigned char *adres_ozu, unsigned int num,unsigned char flag,unsigned char znach);
     87          
     88          void send_err485(unsigned char port,unsigned char err,unsigned char id,unsigned int dst);
     89          
     90          
     91          extern unsigned char point_log_buf;
     92          
     93            struct
     94            {
     95            unsigned char  ip         :1;
     96            unsigned char  udp        :1;
     97            unsigned char  num_self   :1;
     98            unsigned char cnt_reset;

   \                                 In segment NEAR_Z, align 1, keep-with-next
   \   00000000                      REQUIRE `?<Segment init: NEAR_Z>`
     99            }fl_rewrite;
    100          
    101          ///!!!!!!!!!!!!!!!!!!!!!!!!!!!!!!!!!!!äë˙ ĐĐĐ
    102          extern  struct
    103           {
    104            unsigned char data[VOL_RX_PPP];//ńŕě áóôĺđ
    105            unsigned int ln_data;  // äëčíŕ äŕííűő
    106            enum bool rec; // ďŕęĺň ďđčí˙ň
    107            enum bool busy;// áóôĺđ çŕí˙ň
    108            enum bool check_busy;// ďđîâĺđęŕ çŕí˙ň ëč áóôĺđ
    109           }Buf1_rx_ppp,Buf2_rx_ppp; // 
    110          
    111          
    112          extern struct
    113          {
    114           
    115            unsigned char tek_pin :1;
    116            unsigned char old_pin :1;
    117            unsigned char fl_ch_tc :1;
    118            unsigned char real_tc;
    119            unsigned int count_tc; 
    120            unsigned char type;
    121            unsigned char cnt_block_tc;
    122          }struct_tcc1,struct_tcc2;
    123          
    124          extern struct
    125          {
    126            unsigned char tc:1;
    127            unsigned char tc_old :1;
    128          }sv1,sv2;
    129          
    130          
    131          
    132          
    133          extern enum t_event_modem event_modem;
    134          
    135          extern unsigned char buf_tx_232[VOL_TX_PPP];
    136          extern unsigned int count_tx_ppp,vol_tx_ppp;
    137          extern unsigned char layer_PPP;
    138          
    139          struct
    140           {
    141            unsigned char act_lcp_end :1;  
    142            unsigned char lcp_tm_out_en :1;
    143            unsigned char t0_pl:1;
    144            unsigned char t0_mi:1;
    145           }fl_lcp; 
    146           
    147          
    148          struct
    149           {
    150            unsigned char act_ipcp_end :1;  
    151            unsigned char ipcp_tm_out_en :1;
    152            unsigned char t0_pl:1;
    153            unsigned char t0_mi:1;
    154           }fl_ipcp; 
    155          
    156          struct
    157           {
    158            unsigned char act_ip_end :1; 
    159            unsigned char ip_tm_cntr_en :1; 
    160            unsigned char ip_tm_nat_en :1;
    161           }fl_ip;
    162          
    163          
    164          
    165            
    166          struct
    167           {
    168            unsigned char act_pap_end :1;  
    169            unsigned char pap_tm_out_en:1;
    170            unsigned char t0_pl:1;
    171            unsigned char t0_mi:1;  
    172            unsigned char up: 1; 
    173           }fl_pap; 
    174          
    175          
    176           struct
    177           {
    178            unsigned char up :1;  
    179            unsigned char down :1;
    180           }fl_lcp1; 
    181          
    182          
    183          struct
    184           {
    185            unsigned char up :1;  
    186            unsigned char down :1;
    187           }fl_ipcp1;
    188           
    189           struct
    190           {
    191            unsigned char nac_rej :1; // reject - 1 
    192           }fl_lcp2;
    193             
    194           struct
    195           {
    196            unsigned char nac_rej :1; // reject - 1 
    197           }fl_ipcp2;
    198           
    199           
    200          
    201          unsigned char pap_act_buf,PAP_state,PAP_event;
    202          unsigned char LCP_state, LCP_event,LCP_act_buf[LCP_ACT_VOL];
    203          unsigned char IPCP_state, IPCP_event,IPCP_act_buf[IPCP_ACT_VOL];
    204          unsigned char uk_in_act_LCP,uk_out_act_LCP,uk_in_act_IPCP,uk_out_act_IPCP;
    205          
    206          unsigned char cnt_rst_lcp,vol_cnt_rst_lcp;
    207          unsigned char cnt_rst_ipcp,vol_cnt_rst_ipcp;                       
    208          unsigned char cnt_rst_pap,vol_cnt_rst_pap;       
    209                                
    210                                  
    211          unsigned int cnt_lcp_tm_out,cnt_ipcp_tm_out;
    212          unsigned int cnt_pap_tm_out;
    213          unsigned long int cnt_ip_tm_cntr;
    214          unsigned char rcvd_protokol;
    215          
    216          unsigned char  i_scr_lcp,i_scan_lcp;
    217          unsigned char  i_scj_lcp;//čäĺíňčôčęŕňîđű lcp
    218          unsigned char  i_str_lcp,i_sta_lcp;
    219           
    220          unsigned char  i_scr_ipcp,i_scan_ipcp;
    221          unsigned char  i_scj_ipcp;//čäĺíňčôčęŕňîđű ipcp
    222          unsigned char  i_str_ipcp,i_sta_ipcp; 
    223           
    224            
    225          unsigned char  i_scr_pap;
    226          
    227          
    228          unsigned char buf_rejc_opt_lcp[MAX_DL_LCP-6];
    229          unsigned char buf_ack_opt_lcp[MAX_DL_LCP-12];
    230          unsigned char buf_nak_opt_lcp[MAX_DL_LCP-12];
    231          unsigned char buf_rej_opt_lcp[MAX_DL_LCP-12];
    232          
    233          unsigned char buf_rejc_opt_ipcp[MAX_DL_IPCP-4];
    234          unsigned char buf_ack_opt_ipcp[MAX_DL_IPCP-10];
    235          unsigned char buf_nak_opt_ipcp[MAX_DL_IPCP-10];
    236          unsigned char buf_rej_opt_ipcp[MAX_DL_IPCP-10];
    237           
    238          
    239          unsigned char ln_rejc_lcp,ln_rej_lcp,ln_ack_lcp,ln_nak_lcp;
    240          
    241          unsigned char ln_rejc_ipcp,ln_rej_ipcp,ln_ack_ipcp,ln_nak_ipcp;
    242          
    243          
    244          extern struct                   //ńňđóęňóđŕ, îďčńűâŕţůŕ˙ îáúĺęň ďĺđĺäŕ÷č ďî PPP 
    245            {  
    246            enum bool link_no ; //ńâ˙çč íĺň
    247            enum bool link_waits; //îćčäŕíčĺ ęâčňęŕ íŕ ęîíňđîëü ńâ˙çč
    248            enum bool link;      //ęîíňđîëü ńâ˙çč    
    249            enum bool nat;      //ęîíňđîëü nat 
    250            unsigned int cnt_link; // ń÷ĺň÷čę
    251            unsigned int cnt_nat; // ń÷ĺň÷čę
    252            unsigned int vol_link; // çíŕ÷ĺíčĺ  
    253            unsigned int vol_nat; // //çíŕ÷ĺíčĺ 
    254            unsigned int vol_waits; // çíŕ÷ĺíčĺ âđĺěĺíč ęâčňęŕ îćčäŕíč˙ ęîíňđîë˙ ńâ˙çč
    255            unsigned char cnt_try; // ń÷ĺň÷čę ďîďűňîę ďîëó÷čňü ęâčňîę
    256            unsigned char vol_try; // rjkbxtcndj ďîďűňîę ďîëó÷čňü ęâčňîę
    257            unsigned int vol_nat_r; // ń÷ĺň÷čę
    258            }Control;
    259          
    260           extern unsigned char ip_self[4];
    261           unsigned char ip_pri_dns[4],ip_sec_dns[4]; 
    262            //EEEEEEEEEEEEEEEEEEEEEEEEEEEEEEEEEEEEEEEEE 
    263          
    264           
    265           
    266           
    267             //!!!!!!!!!!!!!!!!!!!!!!!!!!!!!ńňđóęňóđű ďđčëîćĺíč˙
    268          extern struct
    269          {
    270          unsigned char id;
    271          unsigned int p_in;// óęŕçŕňĺëü ńâîáîäíîé ˙÷ĺéęč
    272          unsigned int p_out;
    273          unsigned int p_out_kv;
    274          unsigned int crc;
    275          unsigned int cnt_waits; // ń÷ĺň÷čę îćčäŕíč˙ ęâčňęŕ
    276          unsigned char cnt_try; // ń÷ĺň÷čę ďîďűňîę ďîëó÷čňü ęâčňîę 
    277          unsigned int l_data; // äëčíŕ ďîńűëŕĺěűő äŕííűő
    278          unsigned char state;
    279          unsigned char event;
    280          unsigned int tm_vzat;
    281          unsigned int vol_tm_vzat;
    282          enum bool cntr_cl;
    283          enum bool en_cntr_cl;
    284          unsigned int cnt_cntr_cl;
    285          unsigned int vol_cntr_cl;
    286          }Appl_seq;
    287          
    288          extern unsigned char Appl_seq_des;
    289          extern unsigned char state_seq;
    290          
    291          
    292          
    293          extern struct
    294          {
    295          unsigned char en_tx :1;
    296          unsigned char kv_waits :1;
    297          unsigned char en_povtor:1;
    298          }fl_appl_seq;
    299          
    300          extern struct
    301          {
    302          unsigned char over_buf :1;
    303          unsigned char send_state :1;
    304          unsigned char enable:1; 
    305          }fl_appl_seq1; 
    306          
    307          
    308          //extern unsigned char byte_state_net;
    309          
    310            //EEEEEEEEEEEEEEEEEEEEEEEEEEEEEEEEEEEEEEEEE
    311           
    312           unsigned int  delay_pre_tx;
    313           
    314           
    315          //!!!!!!!!!!!!!!!11óäŕëĺííŕ˙ çŕăđóçęŕ 
    316          unsigned char off_buf,total_kol_page;
    317          unsigned int pagee;
    318          unsigned char contr_gluk1, contr_gluk2;
    319          unsigned char *array_in_232; 
    320          unsigned char reboot_byte;
    321           
    322           struct
    323           {
    324           unsigned char  end_pg      :1;// ôëŕă ďîńëĺäíĺé ńňđŕíčöű
    325           unsigned char  ch_crc      :1;// ôëŕă ďđîâĺđęč crc
    326           unsigned char  send_kv     :1;//ôëŕă îňńűëęč ęâčňęŕ
    327           unsigned char  cor_pg      :1;// ôëŕă ęîđđĺęňíîé ńňđŕíčöű äŕëüřĺ
    328           unsigned char  first_pg    :1;//ôëŕă ďĺđâîé ńňđŕíčöű
    329           unsigned char  hold_pg     :1;// ôëŕă çŕőâŕňŕ äŕííűő
    330           unsigned char  send_crc     :1;// ôëŕă ďîńűëęč îďöčč ŃĐŃ
    331           //unsigned char  yes_crc     :1;// âĺđíűé crc
    332           }fl_pg_out;
    333           
    334           unsigned int pg_crc; //çíŕ÷ĺíčĺ crc ęóńęŕ äŕííűő
    335           unsigned int cnt_pg;// đĺŕëüíűé ń÷ĺň÷čę ńňđŕíčö
    336           unsigned char id_pg_kp;//öčęëč÷ĺńęčé čäĺíňčôčęŕňîđ ńňđŕíčö ęîíňđîëëĺđŕ
    337           unsigned char id_pg_appl;//öčęëč÷ĺńęčé čäĺíňčôčęŕňîđ ńňđŕíčö âĺđőíĺăî ďđčëîćĺíč˙
    338           
    339           //EEEEEEEEEEEEEEEEEEEEEEEEEEEEEEEEEEE
    340           
    341           
    342          extern unsigned char Appl_RS485_1_data_buf[LN_BUF_485_1];// ńŕě áóôĺđ
    343          extern unsigned char Appl_RS485_2_data_buf[LN_BUF_485_2];// ńŕě áóôĺđ
    344          extern unsigned char Appl_RS232_2_data_buf[LN_BUF_232_2];// ńŕě áóôĺđ
    345           
    346          extern struct                   //ńňđóęňóđŕ îďčńűâŕţůŕ˙ đŕáîňó ďđčëîćĺíč˙ "RS485_1" 
    347            {  
    348            enum bool fl_data_buf; //čěĺĺňń˙ ëč çŕáóôĺđčçčđîâŕííűé ďŕęĺň äë˙ ďĺđĺäŕ÷č â ďîđň RS485_1
    349            unsigned int ln_data_buf; // çŕáóôĺđčçčđîâŕííŕ˙ äëčíŕ áóôĺđŕ
    350            unsigned int dst_buf; // çŕáóôĺđčçčđîâŕííűé ďîëó÷ŕňĺëü
    351            unsigned char cont_buf[8];// çŕáóôĺđčçčđîâŕííűé ęîíňĺęńň
    352            unsigned char id_buf; // çŕáóôĺđčçčđîâŕííűé id
    353            unsigned int dst_tek;// ňĺęóůčé ďîëó÷ŕňĺëü
    354            unsigned char id_tek; // ňĺęóůčé id
    355            unsigned int pre_tx;//çŕäĺđćęŕ ďĺđĺä ďĺđĺäŕ÷ĺé
    356            }Appl_RS485_1,Appl_RS485_2,Appl_RS232_2;
    357          
    358          /*  
    359          extern struct
    360           {
    361           unsigned char mon1 : 1;
    362           unsigned char mon2 : 1;
    363           } fl_tx485;
    364          */ 
    365          
    366          extern struct
    367           {
    368           unsigned char busy : 1;
    369           unsigned char rec : 1;
    370           unsigned char tm_out : 1;
    371           unsigned char tx : 1;
    372           unsigned char over : 1;
    373           unsigned char buffed : 1;
    374           }fl_485_1,fl_485_2,fl_232_2;
    375          
    376           
    377           
    378          
    379          
    380          
    381           struct                   //ńňđóęňóđŕ, îďčńűâŕţůŕ˙ îáúĺęň ďĺđĺäŕ÷č ďî PPP 
    382            {  
    383            enum bool prozr;      //âĺđńč˙       
    384            enum t_version version;      //âĺđńč˙ 
    385            enum t_type   type_pac;     //ňčď ďŕęĺňŕ
    386            unsigned int num_src; // íîěĺđ îňďđŕâčňĺë˙
    387            unsigned int num_dst; // íîěĺđ ďîëó÷ŕňĺë˙
    388            unsigned char id_pac; // čäĺíňčôčęŕňîđ ďŕęĺňŕ  
    389            unsigned char * p_opt; // //óęŕçŕňĺëü áóôĺđŕ îďöčé  
    390            unsigned char l_opt;// äëčíŕ áóôĺđŕ îďöčé   
    391            unsigned char kol_opt;// ęîëč÷ĺńňâî îďöčé   
    392            unsigned char * p_data;  //óęŕçŕňĺëü áóôĺđŕ äŕííűő
    393            unsigned int l_data;   // äëčíŕ äŕííűő
    394            }Obj_ppp_tx;
   \                     Obj_ppp_tx:
   \   00000000                      DS 16
   \                     delay_pre_tx:
   \   00000010                      DS 2
   \                     pagee:
   \   00000012                      DS 2
   \                     array_in_232:
   \   00000014                      DS 2
   \                     pg_crc:
   \   00000016                      DS 2
   \                     cnt_pg:
   \   00000018                      DS 2
   \                     fl_rewrite:
   \   0000001A                      DS 2
   \                     off_buf:
   \   0000001C                      DS 1
   \                     total_kol_page:
   \   0000001D                      DS 1
   \                     contr_gluk1:
   \   0000001E                      DS 1
   \                     contr_gluk2:
   \   0000001F                      DS 1
   \                     reboot_byte:
   \   00000020                      DS 1
   \                     fl_pg_out:
   \   00000021                      DS 1
   \                     id_pg_kp:
   \   00000022                      DS 1
   \                     id_pg_appl:
   \   00000023                      DS 1

   \                                 In segment NEAR_Z, align 1, keep-with-next
   \   00000000                      REQUIRE `?<Segment init: NEAR_Z>`
   \                     cnt_pap_tm_out:
   \   00000000                      DS 2
   \                     fl_lcp:
   \   00000002                      DS 1
   \                     fl_ipcp:
   \   00000003                      DS 1
   \                     fl_ip:
   \   00000004                      DS 1
   \                     fl_pap:
   \   00000005                      DS 1
   \                     fl_ipcp1:
   \   00000006                      DS 1
   \                     pap_act_buf:
   \   00000007                      DS 1
   \                     PAP_state:
   \   00000008                      DS 1
   \                     PAP_event:
   \   00000009                      DS 1
   \                     IPCP_state:
   \   0000000A                      DS 1
   \                     IPCP_event:
   \   0000000B                      DS 1
   \                     IPCP_act_buf:
   \   0000000C                      DS 10
   \                     uk_in_act_LCP:
   \   00000016                      DS 1
   \                     uk_out_act_LCP:
   \   00000017                      DS 1
   \                     uk_in_act_IPCP:
   \   00000018                      DS 1
   \                     uk_out_act_IPCP:
   \   00000019                      DS 1
   \                     vol_cnt_rst_ipcp:
   \   0000001A                      DS 1
   \                     vol_cnt_rst_pap:
   \   0000001B                      DS 1
   \                     i_scr_lcp:
   \   0000001C                      DS 1
   \                     i_scan_lcp:
   \   0000001D                      DS 1
   \                     i_scr_ipcp:
   \   0000001E                      DS 1
   \                     i_scan_ipcp:
   \   0000001F                      DS 1
   \                     i_scr_pap:
   \   00000020                      DS 1
   \                     buf_ack_opt_ipcp:
   \   00000021                      DS 25
   \                     ln_rej_lcp:
   \   0000003A                      DS 1
   \                     ln_ack_lcp:
   \   0000003B                      DS 1
   \                     ln_rej_ipcp:
   \   0000003C                      DS 1
   \                     ln_ack_ipcp:
   \   0000003D                      DS 1
   \                     ln_nak_ipcp:
   \   0000003E                      DS 1

   \                                 In segment NEAR_Z, align 1, keep-with-next
   \   00000000                      REQUIRE `?<Segment init: NEAR_Z>`
   \                     fl_lcp1:
   \   00000000                      DS 1
   \                     LCP_state:
   \   00000001                      DS 1
   \                     LCP_act_buf:
   \   00000002                      DS 15
   \                     buf_rej_opt_lcp:
   \   00000011                      DS 28

   \                                 In segment NEAR_Z, align 1, keep-with-next
   \   00000000                      REQUIRE `?<Segment init: NEAR_Z>`
   \                     cnt_lcp_tm_out:
   \   00000000                      DS 2
   \                     fl_lcp2:
   \   00000002                      DS 1
   \                     LCP_event:
   \   00000003                      DS 1
   \                     rcvd_protokol:
   \   00000004                      DS 1
   \                     buf_ack_opt_lcp:
   \   00000005                      DS 28
   \                     buf_nak_opt_lcp:
   \   00000021                      DS 28
   \                     ln_rejc_lcp:
   \   0000003D                      DS 1
   \                     ln_nak_lcp:
   \   0000003E                      DS 1

   \                                 In segment NEAR_Z, align 1, keep-with-next
   \   00000000                      REQUIRE `?<Segment init: NEAR_Z>`
   \                     cnt_ipcp_tm_out:
   \   00000000                      DS 2
   \                     fl_ipcp2:
   \   00000002                      DS 1
   \                     cnt_rst_ipcp:
   \   00000003                      DS 1
   \                     buf_nak_opt_ipcp:
   \   00000004                      DS 25
   \                     buf_rej_opt_ipcp:
   \   0000001D                      DS 25

   \                                 In segment NEAR_Z, align 1, keep-with-next
   \   00000000                      REQUIRE `?<Segment init: NEAR_Z>`
   \                     cnt_rst_lcp:
   \   00000000                      DS 1

   \                                 In segment NEAR_Z, align 1, keep-with-next
   \   00000000                      REQUIRE `?<Segment init: NEAR_Z>`
   \                     vol_cnt_rst_lcp:
   \   00000000                      DS 1

   \                                 In segment NEAR_Z, align 1, keep-with-next
   \   00000000                      REQUIRE `?<Segment init: NEAR_Z>`
   \                     cnt_rst_pap:
   \   00000000                      DS 1

   \                                 In segment NEAR_Z, align 1, keep-with-next
   \   00000000                      REQUIRE `?<Segment init: NEAR_Z>`
   \                     cnt_ip_tm_cntr:
   \   00000000                      DS 4

   \                                 In segment NEAR_Z, align 1, keep-with-next
   \   00000000                      REQUIRE `?<Segment init: NEAR_Z>`
   \                     i_scj_lcp:
   \   00000000                      DS 1

   \                                 In segment NEAR_Z, align 1, keep-with-next
   \   00000000                      REQUIRE `?<Segment init: NEAR_Z>`
   \                     i_str_lcp:
   \   00000000                      DS 1

   \                                 In segment NEAR_Z, align 1, keep-with-next
   \   00000000                      REQUIRE `?<Segment init: NEAR_Z>`
   \                     i_sta_lcp:
   \   00000000                      DS 1

   \                                 In segment NEAR_Z, align 1, keep-with-next
   \   00000000                      REQUIRE `?<Segment init: NEAR_Z>`
   \                     i_scj_ipcp:
   \   00000000                      DS 1

   \                                 In segment NEAR_Z, align 1, keep-with-next
   \   00000000                      REQUIRE `?<Segment init: NEAR_Z>`
   \                     i_str_ipcp:
   \   00000000                      DS 1

   \                                 In segment NEAR_Z, align 1, keep-with-next
   \   00000000                      REQUIRE `?<Segment init: NEAR_Z>`
   \                     i_sta_ipcp:
   \   00000000                      DS 1

   \                                 In segment NEAR_Z, align 1, keep-with-next
   \   00000000                      REQUIRE `?<Segment init: NEAR_Z>`
   \                     buf_rejc_opt_lcp:
   \   00000000                      DS 34

   \                                 In segment NEAR_Z, align 1, keep-with-next
   \   00000000                      REQUIRE `?<Segment init: NEAR_Z>`
   \                     buf_rejc_opt_ipcp:
   \   00000000                      DS 31

   \                                 In segment NEAR_Z, align 1, keep-with-next
   \   00000000                      REQUIRE `?<Segment init: NEAR_Z>`
   \                     ip_pri_dns:
   \   00000000                      DS 4
   \                     ip_sec_dns:
   \   00000004                      DS 4
   \                     ln_rejc_ipcp:
   \   00000008                      DS 1
    395          
    396           extern unsigned char buf_opt_tr[20]; 
    397           
    398           

   \                                 In segment NEAR_F, align 1, keep-with-next
    399           __flash unsigned int fcstab[256] = {
   \                     fcstab:
   \   00000000   000011892312       DW 0, 4489, 8978, 12955, 17956, 22445, 25910, 29887, 35912, 40385
   \              329B462457AD
   \              653674BF8C48
   \              9DC1        
   \   00000014   AF5ABED3CA6C       DW 44890, 48851, 51820, 56293, 59774, 63735, 4225, 264, 13203, 8730
   \              DBE5E97EF8F7
   \              108101083393
   \              221A        
   \   00000028   56A5472C75B7       DW 22181, 18220, 30135, 25662, 40137, 36160, 49115, 44626, 56045, 52068
   \              643E9CC98D40
   \              BFDBAE52DAED
   \              CB64        
   \   0000003C   F9FFE8762102       DW 63999, 59510, 8450, 12427, 528, 5017, 26406, 30383, 17460, 21949
   \              308B02101399
   \              672676AF4434
   \              55BD        
   \   00000050   AD4ABCC38E58       DW 44362, 48323, 36440, 40913, 60270, 64231, 51324, 55797, 12675, 8202
   \              9FD1EB6EFAE7
   \              C87CD9F53183
   \              200A        
   \   00000064   1291031877A7       DW 4753, 792, 30631, 26158, 21685, 17724, 48587, 44098, 40665, 36688
   \              662E54B5453C
   \              BDCBAC429ED9
   \              8F50        
   \   00000078   FBEFEA66D8FD       DW 64495, 60006, 55549, 51572, 16900, 21389, 24854, 28831, 1056, 5545
   \              C9744204538D
   \              6116709F0420
   \              15A9        
   \   0000008C   273236BBCE4C       DW 10034, 14011, 52812, 57285, 60766, 64727, 34920, 39393, 43898, 47859
   \              DFC5ED5EFCD7
   \              886899E1AB7A
   \              BAF3        
   \   000000A0   5285430C7197       DW 21125, 17164, 29079, 24606, 5281, 1320, 14259, 9786, 57037, 53060
   \              601E14A10528
   \              37B3263ADECD
   \              CF44        
   \   000000B4   FDDFEC5698E9       DW 64991, 60502, 39145, 35168, 48123, 43634, 25350, 29327, 16404, 20893
   \              8960BBFBAA72
   \              6306728F4014
   \              519D        
   \   000000C8   252234AB0630       DW 9506, 13483, 1584, 6073, 61262, 65223, 52316, 56789, 43370, 47331
   \              17B9EF4EFEC7
   \              CC5CDDD5A96A
   \              B8E3        
   \   000000DC   8A789BF17387       DW 35448, 39921, 29575, 25102, 20629, 16668, 13731, 9258, 5809, 1848
   \              620E5095411C
   \              35A3242A16B1
   \              0738        
   \   000000F0   FFCFEE46DCDD       DW 65487, 60998, 56541, 52564, 47595, 43106, 39673, 35696, 33800, 38273
   \              CD54B9EBA862
   \              9AF98B708408
   \              9581        
   \   00000104   A71AB693C22C       DW 42778, 46739, 49708, 54181, 57662, 61623, 2112, 6601, 11090, 15067
   \              D3A5E13EF0B7
   \              084019C92B52
   \              3ADB        
   \   00000118   4E645FED6D76       DW 20068, 24557, 28022, 31999, 38025, 34048, 47003, 42514, 53933, 49956
   \              7CFF94898500
   \              B79BA612D2AD
   \              C324        
   \   0000012C   F1BFE03618C1       DW 61887, 57398, 6337, 2376, 15315, 10842, 24293, 20332, 32247, 27774
   \              09483BD32A5A
   \              5EE54F6C7DF7
   \              6C7E        
   \   00000140   A50AB4838618       DW 42250, 46211, 34328, 38801, 58158, 62119, 49212, 53685, 10562, 14539
   \              9791E32EF2A7
   \              C03CD1B52942
   \              38CB        
   \   00000154   0A501BD96F66       DW 2640, 7129, 28518, 32495, 19572, 24061, 46475, 41986, 38553, 34576
   \              7EEF4C745DFD
   \              B58BA4029699
   \              8710        
   \   00000168   F3AFE226D0BD       DW 62383, 57894, 53437, 49460, 14787, 10314, 6865, 2904, 32743, 28270
   \              C13439C3284A
   \              1AD10B587FE7
   \              6E6E        
   \   0000017C   5CF54D7CC60C       DW 23797, 19836, 50700, 55173, 58654, 62615, 32808, 37281, 41786, 45747
   \              D785E51EF497
   \              802891A1A33A
   \              B2B3        
   \   00000190   4A445BCD6956       DW 19012, 23501, 26966, 30943, 3168, 7657, 12146, 16123, 54925, 50948
   \              78DF0C601DE9
   \              2F723EFBD68D
   \              C704        
   \   000001A4   F59FE41690A9       DW 62879, 58390, 37033, 33056, 46011, 41522, 23237, 19276, 31191, 26718
   \              8120B3BBA232
   \              5AC54B4C79D7
   \              685E        
   \   000001B8   1CE10D683FF3       DW 7393, 3432, 16371, 11898, 59150, 63111, 50204, 54677, 41258, 45219
   \              2E7AE70EF687
   \              C41CD595A12A
   \              B0A3        
   \   000001CC   823893B16B46       DW 33336, 37809, 27462, 31439, 18516, 23005, 11618, 15595, 3696, 8185
   \              7ACF485459DD
   \              2D623CEB0E70
   \              1FF9        
   \   000001E0   F78FE606D49D       DW 63375, 58886, 54429, 50452, 45483, 40994, 37561, 33584, 31687, 27214
   \              C514B1ABA022
   \              92B983307BC7
   \              6A4E        
   \   000001F4   58D5495C3DE3       DW 22741, 18780, 15843, 11370, 7921, 3960
   \              2C6A1EF10F78
    400                0x0000, 0x1189, 0x2312, 0x329b, 0x4624, 0x57ad, 0x6536, 0x74bf,
    401                0x8c48, 0x9dc1, 0xaf5a, 0xbed3, 0xca6c, 0xdbe5, 0xe97e, 0xf8f7,
    402                0x1081, 0x0108, 0x3393, 0x221a, 0x56a5, 0x472c, 0x75b7, 0x643e,
    403                0x9cc9, 0x8d40, 0xbfdb, 0xae52, 0xdaed, 0xcb64, 0xf9ff, 0xe876,
    404                0x2102, 0x308b, 0x0210, 0x1399, 0x6726, 0x76af, 0x4434, 0x55bd,
    405                0xad4a, 0xbcc3, 0x8e58, 0x9fd1, 0xeb6e, 0xfae7, 0xc87c, 0xd9f5,
    406                0x3183, 0x200a, 0x1291, 0x0318, 0x77a7, 0x662e, 0x54b5, 0x453c,
    407                0xbdcb, 0xac42, 0x9ed9, 0x8f50, 0xfbef, 0xea66, 0xd8fd, 0xc974,
    408                0x4204, 0x538d, 0x6116, 0x709f, 0x0420, 0x15a9, 0x2732, 0x36bb,
    409                0xce4c, 0xdfc5, 0xed5e, 0xfcd7, 0x8868, 0x99e1, 0xab7a, 0xbaf3,
    410                0x5285, 0x430c, 0x7197, 0x601e, 0x14a1, 0x0528, 0x37b3, 0x263a,
    411                0xdecd, 0xcf44, 0xfddf, 0xec56, 0x98e9, 0x8960, 0xbbfb, 0xaa72,
    412                0x6306, 0x728f, 0x4014, 0x519d, 0x2522, 0x34ab, 0x0630, 0x17b9,
    413                0xef4e, 0xfec7, 0xcc5c, 0xddd5, 0xa96a, 0xb8e3, 0x8a78, 0x9bf1,
    414                0x7387, 0x620e, 0x5095, 0x411c, 0x35a3, 0x242a, 0x16b1, 0x0738,
    415                0xffcf, 0xee46, 0xdcdd, 0xcd54, 0xb9eb, 0xa862, 0x9af9, 0x8b70,
    416                0x8408, 0x9581, 0xa71a, 0xb693, 0xc22c, 0xd3a5, 0xe13e, 0xf0b7,
    417                0x0840, 0x19c9, 0x2b52, 0x3adb, 0x4e64, 0x5fed, 0x6d76, 0x7cff,
    418                0x9489, 0x8500, 0xb79b, 0xa612, 0xd2ad, 0xc324, 0xf1bf, 0xe036,
    419                0x18c1, 0x0948, 0x3bd3, 0x2a5a, 0x5ee5, 0x4f6c, 0x7df7, 0x6c7e,
    420                0xa50a, 0xb483, 0x8618, 0x9791, 0xe32e, 0xf2a7, 0xc03c, 0xd1b5,
    421                0x2942, 0x38cb, 0x0a50, 0x1bd9, 0x6f66, 0x7eef, 0x4c74, 0x5dfd,
    422                0xb58b, 0xa402, 0x9699, 0x8710, 0xf3af, 0xe226, 0xd0bd, 0xc134,
    423                0x39c3, 0x284a, 0x1ad1, 0x0b58, 0x7fe7, 0x6e6e, 0x5cf5, 0x4d7c,
    424                0xc60c, 0xd785, 0xe51e, 0xf497, 0x8028, 0x91a1, 0xa33a, 0xb2b3,
    425                0x4a44, 0x5bcd, 0x6956, 0x78df, 0x0c60, 0x1de9, 0x2f72, 0x3efb,
    426                0xd68d, 0xc704, 0xf59f, 0xe416, 0x90a9, 0x8120, 0xb3bb, 0xa232,
    427                0x5ac5, 0x4b4c, 0x79d7, 0x685e, 0x1ce1, 0x0d68, 0x3ff3, 0x2e7a,
    428                0xe70e, 0xf687, 0xc41c, 0xd595, 0xa12a, 0xb0a3, 0x8238, 0x93b1,
    429                0x6b46, 0x7acf, 0x4854, 0x59dd, 0x2d62, 0x3ceb, 0x0e70, 0x1ff9,
    430                0xf78f, 0xe606, 0xd49d, 0xc514, 0xb1ab, 0xa022, 0x92b9, 0x8330,
    431                0x7bc7, 0x6a4e, 0x58d5, 0x495c, 0x3de3, 0x2c6a, 0x1ef1, 0x0f78
    432             };
    433          
    434          
    435           

   \                                 In segment CODE, align 2, keep-with-next
    436           void prov_uk_in(void)
   \                     prov_uk_in:
    437             {        
    438                    unsigned char temp;
    439                    
    440                    uk_in_act_LCP++;
   \   00000000   ....               LDI     R30, LOW(cnt_pap_tm_out)
   \   00000002   ....               LDI     R31, (cnt_pap_tm_out) >> 8
   \   00000004   8906               LDD     R16, Z+22
   \   00000006   9503               INC     R16
   \   00000008   8B06               STD     Z+22, R16
    441                    if(uk_in_act_LCP>=LCP_ACT_VOL)uk_in_act_LCP=0;         
   \   0000000A   8906               LDD     R16, Z+22
   \   0000000C   300F               CPI     R16, 15
   \   0000000E   F010               BRCS    ??prov_uk_in_0
   \   00000010   E000               LDI     R16, 0
   \   00000012   8B06               STD     Z+22, R16
    442                    if(uk_out_act_LCP==0)temp=LCP_ACT_VOL-1;else temp=uk_out_act_LCP-1;
   \                     ??prov_uk_in_0:
   \   00000014   8907               LDD     R16, Z+23
   \   00000016   2300               TST     R16
   \   00000018   F411               BRNE    ??prov_uk_in_1
   \   0000001A   E00E               LDI     R16, 14
   \   0000001C   C001               RJMP    ??prov_uk_in_2
   \                     ??prov_uk_in_1:
   \   0000001E   950A               DEC     R16
    443                 //   if(uk_in_act_LCP==temp){write_log_info(ST_ERROR,ERR3);lock_it();}//ďĺđĺďîëíĺíčĺ áóôĺđŕ
    444                   if(uk_in_act_LCP==temp)event_modem=EVM_PPP_ERR;//ďĺđĺďîëíĺíčĺ áóôĺđŕ
   \                     ??prov_uk_in_2:
   \   00000020   8916               LDD     R17, Z+22
   \   00000022   1710               CP      R17, R16
   \   00000024   F419               BRNE    ??prov_uk_in_3
   \   00000026   E005               LDI     R16, 5
   \   00000028   9300....           STS     event_modem, R16
    445              }  
   \                     ??prov_uk_in_3:
   \   0000002C   9508               RET
    446             
    447             

   \                                 In segment CODE, align 2, keep-with-next
    448             void prov_uk_in_ipcp(void)
   \                     prov_uk_in_ipcp:
    449             {        
    450                    unsigned char temp;
    451                    
    452                    uk_in_act_IPCP++;
   \   00000000   ....               LDI     R30, LOW(cnt_pap_tm_out)
   \   00000002   ....               LDI     R31, (cnt_pap_tm_out) >> 8
   \   00000004   8D00               LDD     R16, Z+24
   \   00000006   9503               INC     R16
   \   00000008   8F00               STD     Z+24, R16
    453                    if(uk_in_act_IPCP>=IPCP_ACT_VOL)uk_in_act_IPCP=0;         
   \   0000000A   8D00               LDD     R16, Z+24
   \   0000000C   300A               CPI     R16, 10
   \   0000000E   F010               BRCS    ??prov_uk_in_ipcp_0
   \   00000010   E000               LDI     R16, 0
   \   00000012   8F00               STD     Z+24, R16
    454                    if(uk_out_act_IPCP==0)temp=IPCP_ACT_VOL-1;else temp=uk_out_act_IPCP-1;
   \                     ??prov_uk_in_ipcp_0:
   \   00000014   8D01               LDD     R16, Z+25
   \   00000016   2300               TST     R16
   \   00000018   F411               BRNE    ??prov_uk_in_ipcp_1
   \   0000001A   E009               LDI     R16, 9
   \   0000001C   C001               RJMP    ??prov_uk_in_ipcp_2
   \                     ??prov_uk_in_ipcp_1:
   \   0000001E   950A               DEC     R16
    455                  //  if(uk_in_act_IPCP==temp){write_log_info(ST_ERROR,ERR4);lock_it();}//ďĺđĺďîëíĺíčĺ áóôĺđŕ
    456                    if(uk_in_act_IPCP==temp)event_modem=EVM_PPP_ERR;//ďĺđĺďîëíĺíčĺ áóôĺđŕ
   \                     ??prov_uk_in_ipcp_2:
   \   00000020   8D10               LDD     R17, Z+24
   \   00000022   1710               CP      R17, R16
   \   00000024   F419               BRNE    ??prov_uk_in_ipcp_3
   \   00000026   E005               LDI     R16, 5
   \   00000028   9300....           STS     event_modem, R16
    457                   
    458              }   
   \                     ??prov_uk_in_ipcp_3:
   \   0000002C   9508               RET
    459           
    460           
    461           
    462           

   \                                 In segment CODE, align 2, keep-with-next
    463          unsigned int pppfcs16(unsigned int fcs,unsigned char *cp,unsigned int len)
   \                     pppfcs16:
    464          
    465             {
   \   00000000   C011               RJMP    ??pppfcs16_0
    466          
    467                 while (len--)
    468                     fcs=(fcs >> 8) ^ fcstab[(fcs ^ *cp++) & 0xff];
   \                     ??pppfcs16_1:
   \   00000002   0118               MOVW    R3:R2, R17:R16
   \   00000004   ....               LDI     R22, LOW(fcstab)
   \   00000006   ....               LDI     R23, (fcstab) >> 8
   \   00000008   01F9               MOVW    R31:R30, R19:R18
   \   0000000A   9001               LD      R0, Z+
   \   0000000C   019F               MOVW    R19:R18, R31:R30
   \   0000000E   2DE0               MOV     R30, R0
   \   00000010   25E2               EOR     R30, R2
   \   00000012   E0F0               LDI     R31, 0
   \   00000014   0FEE               LSL     R30
   \   00000016   1FFF               ROL     R31
   \   00000018   0F6E               ADD     R22, R30
   \   0000001A   1F7F               ADC     R23, R31
   \   0000001C   01FB               MOVW    R31:R30, R23:R22
   \   0000001E   9105               LPM     R16, Z+
   \   00000020   9114               LPM     R17, Z
   \   00000022   2503               EOR     R16, R3
   \                     ??pppfcs16_0:
   \   00000024   01BA               MOVW    R23:R22, R21:R20
   \   00000026   5041               SUBI    R20, 1
   \   00000028   4050               SBCI    R21, 0
   \   0000002A   2B67               OR      R22, R23
   \   0000002C   F751               BRNE    ??pppfcs16_1
    469                 return (fcs);
   \   0000002E   9508               RET
    470             }
    471          
    472          

   \                                 In segment CODE, align 2, keep-with-next
    473          void run_lcp_act(void)
   \                     run_lcp_act:
    474                {  
   \   00000000   ........           CALL    ?PROLOGUE4_L09
   \   00000004   9722               SBIW    R29:R28, 2
    475                 unsigned char i;
    476                 
    477                 union
    478               {
    479                unsigned char bytes[2]; 
    480                unsigned int word;
    481               }temp;
    482                
    483                 
    484                 switch (LCP_act_buf[uk_out_act_LCP])
   \   00000006   ....               LDI     R16, LOW(cnt_pap_tm_out)
   \   00000008   ....               LDI     R17, (cnt_pap_tm_out) >> 8
   \   0000000A   01F8               MOVW    R31:R30, R17:R16
   \   0000000C   8D45               LDD     R20, Z+29
   \   0000000E   ....               LDI     R18, LOW(cnt_lcp_tm_out)
   \   00000010   ....               LDI     R19, (cnt_lcp_tm_out) >> 8
   \   00000012   ....               LDI     R26, LOW(buf_tx_232)
   \   00000014   ....               LDI     R27, (buf_tx_232) >> 8
   \   00000016   8967               LDD     R22, Z+23
   \   00000018   E070               LDI     R23, 0
   \   0000001A   01FB               MOVW    R31:R30, R23:R22
   \   0000001C   ....               SUBI    R30, LOW((-(fl_lcp1) & 0xFFFF))
   \   0000001E   ....               SBCI    R31, (-(fl_lcp1) & 0xFFFF) >> 8
   \   00000020   8152               LDD     R21, Z+2
   \   00000022   5050               SUBI    R21, 0
   \   00000024   F069               BREQ    ??run_lcp_act_0
   \   00000026   955A               DEC     R21
   \   00000028   F0C1               BREQ    ??run_lcp_act_1
   \   0000002A   5053               SUBI    R21, 3
   \   0000002C   F0D9               BREQ    ??run_lcp_act_2
   \   0000002E   5052               SUBI    R21, 2
   \   00000030   F119               BREQ    ??run_lcp_act_3
   \   00000032   955A               DEC     R21
   \   00000034   F409               BRNE    $+2+2
   \   00000036   C08B               RJMP    ??run_lcp_act_4
   \   00000038   955A               DEC     R21
   \   0000003A   F409               BRNE    $+2+2
   \   0000003C   C0FE               RJMP    ??run_lcp_act_5
   \   0000003E   C1AA               RJMP    ??run_lcp_act_6
    485                    {
    486                     case TLU:    
    487                             
    488                          fl_pap.up=1;
   \                     ??run_lcp_act_0:
   \   00000040   01F8               MOVW    R31:R30, R17:R16
   \   00000042   8125               LDD     R18, Z+5
   \   00000044   6120               ORI     R18, 0x10
   \   00000046   8325               STD     Z+5, R18
    489                          fl_lcp.act_lcp_end=0;
    490                          PAP_state=START_ST;
   \   00000048   E021               LDI     R18, 1
   \   0000004A   8720               STD     Z+8, R18
    491                          layer_PPP=LAYER_PAP;      
   \   0000004C   E022               LDI     R18, 2
   \   0000004E   9320....           STS     layer_PPP, R18
    492                          fl_lcp.act_lcp_end=1;
   \                     ??run_lcp_act_7:
   \   00000052   8102               LDD     R16, Z+2
   \   00000054   6001               ORI     R16, 0x01
   \   00000056   8302               STD     Z+2, R16
   \   00000058   C19D               RJMP    ??run_lcp_act_6
    493                        break;
    494                     case TLD:  
    495                          fl_lcp.act_lcp_end=0;
    496                          layer_PPP=LAYER_LCP;  
   \                     ??run_lcp_act_1:
   \   0000005A   E021               LDI     R18, 1
   \   0000005C   9320....           STS     layer_PPP, R18
    497                          fl_lcp.act_lcp_end=1; 
   \   00000060   01F8               MOVW    R31:R30, R17:R16
   \   00000062   CFF7               RJMP    ??run_lcp_act_7
    498                          break;
    499                     
    500                     case IRC:                   
    501                          fl_lcp.act_lcp_end=0;
    502                          cnt_lcp_tm_out=VOL_LCP_TM_OUT; 
   \                     ??run_lcp_act_2:
   \   00000064   EB48               LDI     R20, 184
   \   00000066   E05B               LDI     R21, 11
   \   00000068   01F9               MOVW    R31:R30, R19:R18
   \   0000006A   8340               ST      Z, R20
   \   0000006C   8351               STD     Z+1, R21
    503                        //  cnt_rst_lcp=vol_cnt_rst_lcp;
    504                          fl_lcp.lcp_tm_out_en=1; 
    505                          fl_lcp.act_lcp_end=1; 
   \   0000006E   01F8               MOVW    R31:R30, R17:R16
   \   00000070   8102               LDD     R16, Z+2
   \   00000072   6003               ORI     R16, 0x03
   \   00000074   8302               STD     Z+2, R16
   \   00000076   C18E               RJMP    ??run_lcp_act_6
    506                               
    507                          break;
    508                     
    509                     case SCR:    
    510          
    511                                                      
    512                           fl_lcp.act_lcp_end=0;
   \                     ??run_lcp_act_3:
   \   00000078   01F8               MOVW    R31:R30, R17:R16
   \   0000007A   8122               LDD     R18, Z+2
   \   0000007C   7F2E               ANDI    R18, 0xFE
   \   0000007E   8322               STD     Z+2, R18
    513                           buf_tx_232[0]=0x7e; 
   \   00000080   E72E               LDI     R18, 126
   \   00000082   932C               ST      X, R18
    514                           buf_tx_232[1]=0xff;
   \   00000084   EF2F               LDI     R18, 255
   \   00000086   01FD               MOVW    R31:R30, R27:R26
   \   00000088   8321               STD     Z+1, R18
    515                           buf_tx_232[2]=0x03;
   \   0000008A   E023               LDI     R18, 3
   \   0000008C   8322               STD     Z+2, R18
    516                           buf_tx_232[3]=0xc0;
   \   0000008E   EC20               LDI     R18, 192
   \   00000090   8323               STD     Z+3, R18
    517                           buf_tx_232[4]=0x21;
   \   00000092   E221               LDI     R18, 33
   \   00000094   8324               STD     Z+4, R18
    518                           
    519                           buf_tx_232[5]=CONF_REQ; 
   \   00000096   E021               LDI     R18, 1
   \   00000098   8325               STD     Z+5, R18
    520                           buf_tx_232[6]=i_scr_lcp;   
   \   0000009A   01F8               MOVW    R31:R30, R17:R16
   \   0000009C   8D04               LDD     R16, Z+28
   \   0000009E   01FD               MOVW    R31:R30, R27:R26
   \   000000A0   8306               STD     Z+6, R16
    521                           
    522                           buf_tx_232[7]=0; 
   \   000000A2   8377               STD     Z+7, R23
    523                           buf_tx_232[8]=0x0e;
   \   000000A4   E00E               LDI     R16, 14
   \   000000A6   8700               STD     Z+8, R16
    524                           
    525                           buf_tx_232[9]=2; 
   \   000000A8   E002               LDI     R16, 2
   \   000000AA   8701               STD     Z+9, R16
    526                           buf_tx_232[10]=6;
   \   000000AC   E006               LDI     R16, 6
   \   000000AE   8702               STD     Z+10, R16
    527                          
    528                           buf_tx_232[11]=0; 
   \   000000B0   8773               STD     Z+11, R23
    529                           buf_tx_232[12]=0x0a; 
   \   000000B2   E00A               LDI     R16, 10
   \   000000B4   8704               STD     Z+12, R16
    530                          // buf_tx_232[12]=0; 
    531                           buf_tx_232[13]=0;
   \   000000B6   8775               STD     Z+13, R23
    532                           buf_tx_232[14]=0;
   \   000000B8   8776               STD     Z+14, R23
    533                          
    534                        
    535                          
    536                           
    537                           buf_tx_232[15]=7;
   \   000000BA   E007               LDI     R16, 7
   \   000000BC   8707               STD     Z+15, R16
    538                           buf_tx_232[16]=2;
   \   000000BE   E002               LDI     R16, 2
   \   000000C0   8B00               STD     Z+16, R16
    539                           
    540                           buf_tx_232[17]=8;
   \   000000C2   E008               LDI     R16, 8
   \   000000C4   8B01               STD     Z+17, R16
    541                           buf_tx_232[18]=2;
   \   000000C6   E002               LDI     R16, 2
   \   000000C8   8B02               STD     Z+18, R16
    542                           
    543                           temp.word=pppfcs16(PPPINITFCS16,&buf_tx_232[1],buf_tx_232[8]+4) ^ 0xffff;                
   \   000000CA   E142               LDI     R20, 18
   \   000000CC   E050               LDI     R21, 0
   \   000000CE   019D               MOVW    R19:R18, R27:R26
   \   000000D0   5F2F               SUBI    R18, 255
   \   000000D2   4F3F               SBCI    R19, 255
   \   000000D4   EF0F               LDI     R16, 255
   \   000000D6   EF1F               LDI     R17, 255
   \   000000D8   ....               RCALL   pppfcs16
   \   000000DA   EF2F               LDI     R18, 255
   \   000000DC   EF3F               LDI     R19, 255
   \   000000DE   2720               EOR     R18, R16
   \   000000E0   2731               EOR     R19, R17
   \   000000E2   8328               ST      Y, R18
   \   000000E4   8339               STD     Y+1, R19
    544                           buf_tx_232[19]=temp.bytes[0];
   \   000000E6   8108               LD      R16, Y
   \   000000E8   01FD               MOVW    R31:R30, R27:R26
   \   000000EA   8B03               STD     Z+19, R16
    545                           buf_tx_232[20]=temp.bytes[1];
   \   000000EC   8109               LDD     R16, Y+1
   \   000000EE   8B04               STD     Z+20, R16
    546                           
    547                           buf_tx_232[21]=0x7e; 
   \   000000F0   E70E               LDI     R16, 126
   \   000000F2   8B05               STD     Z+21, R16
    548                           
    549                          
    550                           count_tx_ppp=0;
   \   000000F4   E000               LDI     R16, 0
   \   000000F6   E010               LDI     R17, 0
   \   000000F8   ....               LDI     R30, LOW(count_tx_ppp)
   \   000000FA   ....               LDI     R31, (count_tx_ppp) >> 8
   \   000000FC   8300               ST      Z, R16
   \   000000FE   8301               STD     Z+1, R16
    551                           vol_tx_ppp=buf_tx_232[8]+8;               
   \   00000100   E106               LDI     R16, 22
   \   00000102   ....               LDI     R30, LOW(vol_tx_ppp)
   \   00000104   ....               LDI     R31, (vol_tx_ppp) >> 8
   \   00000106   8300               ST      Z, R16
   \   00000108   8311               STD     Z+1, R17
    552                          
    553                           UCSR0A=UCSR0A | TXC; 
   \   0000010A   910000C0           LDS     R16, 192
   \   0000010E   6400               ORI     R16, 0x40
   \   00000110   930000C0           STS     192, R16
    554                           UCSR0B=UCSR0B | TXEN;
   \   00000114   910000C1           LDS     R16, 193
   \   00000118   6008               ORI     R16, 0x08
   \   0000011A   930000C1           STS     193, R16
    555                           UCSR0B=UCSR0B | TXCIE;
   \   0000011E   910000C1           LDS     R16, 193
   \   00000122   6400               ORI     R16, 0x40
   \   00000124   930000C1           STS     193, R16
    556                           if(check_cts()==1) return;  
   \   00000128   ........           CALL    check_cts
   \   0000012C   3001               CPI     R16, 1
   \   0000012E   F409               BRNE    $+2+2
   \   00000130   C131               RJMP    ??run_lcp_act_6
    557                           S2_RD;
   \   00000132   9A40               SBI     0x08, 0x00
   \   00000134   9841               CBI     0x08, 0x01
    558                           UDR0=buf_tx_232[0];
   \   00000136   910C               LD      R16, X
   \   00000138   930000C6           STS     198, R16
    559                           if(Regim==RG_DEBAG) UDR3=buf_tx_232[0];
   \   0000013C   9100....           LDS     R16, Regim
   \   00000140   3001               CPI     R16, 1
   \   00000142   F009               BREQ    $+2+2
   \   00000144   C127               RJMP    ??run_lcp_act_6
   \                     ??run_lcp_act_8:
   \   00000146   910C               LD      R16, X
   \   00000148   93000136           STS     310, R16
   \   0000014C   C123               RJMP    ??run_lcp_act_6
    560                           
    561                          
    562                              
    563                          break;
    564                     
    565                    case SCA: 
    566                           fl_lcp.act_lcp_end=0;
   \                     ??run_lcp_act_4:
   \   0000014E   01F8               MOVW    R31:R30, R17:R16
   \   00000150   8152               LDD     R21, Z+2
   \   00000152   7F5E               ANDI    R21, 0xFE
   \   00000154   8352               STD     Z+2, R21
    567                           buf_tx_232[0]=0x7e; 
   \   00000156   E75E               LDI     R21, 126
   \   00000158   935C               ST      X, R21
    568                           buf_tx_232[1]=0xff;
   \   0000015A   EF5F               LDI     R21, 255
   \   0000015C   01FD               MOVW    R31:R30, R27:R26
   \   0000015E   8351               STD     Z+1, R21
    569                           buf_tx_232[2]=0x03;
   \   00000160   E053               LDI     R21, 3
   \   00000162   8352               STD     Z+2, R21
    570                           buf_tx_232[3]=0xc0;
   \   00000164   EC50               LDI     R21, 192
   \   00000166   8353               STD     Z+3, R21
    571                           buf_tx_232[4]=0x21;  
   \   00000168   E251               LDI     R21, 33
   \   0000016A   8354               STD     Z+4, R21
    572                           
    573                           buf_tx_232[5]=CONF_ACK;
   \   0000016C   E052               LDI     R21, 2
   \   0000016E   8355               STD     Z+5, R21
    574                           buf_tx_232[6]=i_scan_lcp;
   \   00000170   8346               STD     Z+6, R20
    575                           
    576                           temp.word=ln_ack_lcp+4;
   \   00000172   01F8               MOVW    R31:R30, R17:R16
   \   00000174   AD13               LDD     R17, Z+59
   \   00000176   2F81               MOV     R24, R17
   \   00000178   E090               LDI     R25, 0
   \   0000017A   01AC               MOVW    R21:R20, R25:R24
   \   0000017C   5F4C               SUBI    R20, 252
   \   0000017E   4F5F               SBCI    R21, 255
   \   00000180   8348               ST      Y, R20
   \   00000182   8359               STD     Y+1, R21
    577                           buf_tx_232[7]=temp.bytes[1]; 
   \   00000184   8109               LDD     R16, Y+1
   \   00000186   01FD               MOVW    R31:R30, R27:R26
   \   00000188   8307               STD     Z+7, R16
    578                           buf_tx_232[8]=temp.bytes[0];
   \   0000018A   8108               LD      R16, Y
   \   0000018C   8700               STD     Z+8, R16
    579                          
    580                           temp.word=temp.word+4;         
   \   0000018E   8148               LD      R20, Y
   \   00000190   8159               LDD     R21, Y+1
   \   00000192   5F4C               SUBI    R20, 252
   \   00000194   4F5F               SBCI    R21, 255
   \   00000196   8348               ST      Y, R20
   \   00000198   8359               STD     Y+1, R21
    581                           vol_tx_ppp=temp.word+4;  
   \   0000019A   8148               LD      R20, Y
   \   0000019C   8159               LDD     R21, Y+1
   \   0000019E   5F4C               SUBI    R20, 252
   \   000001A0   4F5F               SBCI    R21, 255
   \   000001A2   ....               LDI     R30, LOW(vol_tx_ppp)
   \   000001A4   ....               LDI     R31, (vol_tx_ppp) >> 8
   \   000001A6   8340               ST      Z, R20
   \   000001A8   8351               STD     Z+1, R21
    582                             
    583                           for(i=0;i<ln_ack_lcp;i++)buf_tx_232[9+i]=buf_ack_opt_lcp[i];
   \   000001AA   E000               LDI     R16, 0
   \   000001AC   C00A               RJMP    ??run_lcp_act_9
   \                     ??run_lcp_act_10:
   \   000001AE   2F40               MOV     R20, R16
   \   000001B0   01F9               MOVW    R31:R30, R19:R18
   \   000001B2   0FE4               ADD     R30, R20
   \   000001B4   1FF7               ADC     R31, R23
   \   000001B6   8165               LDD     R22, Z+5
   \   000001B8   01FD               MOVW    R31:R30, R27:R26
   \   000001BA   0FE4               ADD     R30, R20
   \   000001BC   1FF7               ADC     R31, R23
   \   000001BE   8761               STD     Z+9, R22
   \   000001C0   9503               INC     R16
   \                     ??run_lcp_act_9:
   \   000001C2   1701               CP      R16, R17
   \   000001C4   F3A0               BRCS    ??run_lcp_act_10
    584                           
    585                           temp.word=pppfcs16(PPPINITFCS16,&buf_tx_232[1],temp.word) ^ 0xffff;                  
   \                     ??run_lcp_act_11:
   \   000001C6   8148               LD      R20, Y
   \   000001C8   8159               LDD     R21, Y+1
   \   000001CA   019D               MOVW    R19:R18, R27:R26
   \   000001CC   5F2F               SUBI    R18, 255
   \   000001CE   4F3F               SBCI    R19, 255
   \   000001D0   EF0F               LDI     R16, 255
   \   000001D2   EF1F               LDI     R17, 255
   \   000001D4   ....               RCALL   pppfcs16
   \   000001D6   EF2F               LDI     R18, 255
   \   000001D8   EF3F               LDI     R19, 255
   \   000001DA   2720               EOR     R18, R16
   \   000001DC   2731               EOR     R19, R17
   \   000001DE   8328               ST      Y, R18
   \   000001E0   8339               STD     Y+1, R19
    586                           buf_tx_232[9+ln_ack_lcp]=temp.bytes[0];
   \   000001E2   01FD               MOVW    R31:R30, R27:R26
   \   000001E4   0FE8               ADD     R30, R24
   \   000001E6   1FF9               ADC     R31, R25
   \   000001E8   8128               LD      R18, Y
   \   000001EA   8721               STD     Z+9, R18
    587                           buf_tx_232[10+ln_ack_lcp]=temp.bytes[1];
   \   000001EC   8129               LDD     R18, Y+1
   \   000001EE   8722               STD     Z+10, R18
    588                           buf_tx_232[11+ln_ack_lcp]=0x7e;
   \   000001F0   E70E               LDI     R16, 126
   \   000001F2   8703               STD     Z+11, R16
    589                           
    590                           count_tx_ppp=0;                             
   \   000001F4   ....               LDI     R30, LOW(count_tx_ppp)
   \   000001F6   ....               LDI     R31, (count_tx_ppp) >> 8
   \   000001F8   8390               ST      Z, R25
   \   000001FA   8391               STD     Z+1, R25
    591                           UCSR0A=UCSR0A | TXC;                            
   \   000001FC   910000C0           LDS     R16, 192
   \   00000200   6400               ORI     R16, 0x40
   \   00000202   930000C0           STS     192, R16
    592                           UCSR0B=UCSR0B | TXEN;
   \   00000206   910000C1           LDS     R16, 193
   \   0000020A   6008               ORI     R16, 0x08
   \   0000020C   930000C1           STS     193, R16
    593                           UCSR0B=UCSR0B | TXCIE;
   \   00000210   910000C1           LDS     R16, 193
   \   00000214   6400               ORI     R16, 0x40
   \   00000216   930000C1           STS     193, R16
    594                           if(check_cts()==1) return;   
   \   0000021A   ........           CALL    check_cts
   \   0000021E   3001               CPI     R16, 1
   \   00000220   F409               BRNE    $+2+2
   \   00000222   C0B8               RJMP    ??run_lcp_act_6
    595                           S2_RD;
   \   00000224   9A40               SBI     0x08, 0x00
   \   00000226   9841               CBI     0x08, 0x01
    596                           UDR0=buf_tx_232[0]; 
   \   00000228   910C               LD      R16, X
   \   0000022A   930000C6           STS     198, R16
    597                           if(Regim==RG_DEBAG) UDR3=buf_tx_232[0];
   \   0000022E   9100....           LDS     R16, Regim
   \   00000232   3001               CPI     R16, 1
   \   00000234   F009               BREQ    $+2+2
   \   00000236   C0AE               RJMP    ??run_lcp_act_6
   \   00000238   CF86               RJMP    ??run_lcp_act_8
    598                         
    599                           
    600                          
    601                            
    602                          break;
    603                     case SCN:  
    604          
    605                           fl_lcp.act_lcp_end=0;
   \                     ??run_lcp_act_5:
   \   0000023A   01F8               MOVW    R31:R30, R17:R16
   \   0000023C   8152               LDD     R21, Z+2
   \   0000023E   7F5E               ANDI    R21, 0xFE
   \   00000240   8352               STD     Z+2, R21
    606                           buf_tx_232[0]=0x7e; 
   \   00000242   E75E               LDI     R21, 126
   \   00000244   935C               ST      X, R21
    607                           buf_tx_232[1]=0xff;
   \   00000246   EF5F               LDI     R21, 255
   \   00000248   01FD               MOVW    R31:R30, R27:R26
   \   0000024A   8351               STD     Z+1, R21
    608                           buf_tx_232[2]=0x03;
   \   0000024C   E053               LDI     R21, 3
   \   0000024E   8352               STD     Z+2, R21
    609                           buf_tx_232[3]=0xc0;
   \   00000250   EC50               LDI     R21, 192
   \   00000252   8353               STD     Z+3, R21
    610                           buf_tx_232[4]=0x21;   
   \   00000254   E251               LDI     R21, 33
   \   00000256   8354               STD     Z+4, R21
    611                           
    612                           if (fl_lcp2.nac_rej==0) 
   \   00000258   01F9               MOVW    R31:R30, R19:R18
   \   0000025A   8152               LDD     R21, Z+2
   \   0000025C   FD50               SBRC    R21, 0
   \   0000025E   C030               RJMP    ??run_lcp_act_12
    613                               {
    614                               buf_tx_232[5]=CONF_NAK;                       
   \   00000260   E003               LDI     R16, 3
   \   00000262   01FD               MOVW    R31:R30, R27:R26
   \   00000264   8305               STD     Z+5, R16
    615                               
    616                               buf_tx_232[6]=i_scan_lcp;
   \   00000266   8346               STD     Z+6, R20
    617                           
    618                               temp.word=ln_nak_lcp+4;
   \   00000268   01F9               MOVW    R31:R30, R19:R18
   \   0000026A   96FE               ADIW    R31:R30, 62
   \   0000026C   8110               LD      R17, Z
   \   0000026E   2F81               MOV     R24, R17
   \   00000270   E090               LDI     R25, 0
   \   00000272   01AC               MOVW    R21:R20, R25:R24
   \   00000274   5F4C               SUBI    R20, 252
   \   00000276   4F5F               SBCI    R21, 255
   \   00000278   8348               ST      Y, R20
   \   0000027A   8359               STD     Y+1, R21
    619                               buf_tx_232[7]=temp.bytes[1]; 
   \   0000027C   8109               LDD     R16, Y+1
   \   0000027E   01FD               MOVW    R31:R30, R27:R26
   \   00000280   8307               STD     Z+7, R16
    620                               buf_tx_232[8]=temp.bytes[0];
   \   00000282   8108               LD      R16, Y
   \   00000284   8700               STD     Z+8, R16
    621                              
    622                              temp.word=temp.word+4;         
   \   00000286   8148               LD      R20, Y
   \   00000288   8159               LDD     R21, Y+1
   \   0000028A   5F4C               SUBI    R20, 252
   \   0000028C   4F5F               SBCI    R21, 255
   \   0000028E   8348               ST      Y, R20
   \   00000290   8359               STD     Y+1, R21
    623                              vol_tx_ppp=temp.word+4;
   \   00000292   8148               LD      R20, Y
   \   00000294   8159               LDD     R21, Y+1
   \   00000296   5F4C               SUBI    R20, 252
   \   00000298   4F5F               SBCI    R21, 255
   \   0000029A   ....               LDI     R30, LOW(vol_tx_ppp)
   \   0000029C   ....               LDI     R31, (vol_tx_ppp) >> 8
   \   0000029E   8340               ST      Z, R20
   \   000002A0   8351               STD     Z+1, R21
    624                               
    625          
    626                                
    627                               for(i=0;i<ln_nak_lcp;i++)buf_tx_232[9+i]=buf_nak_opt_lcp[i];
   \   000002A2   E000               LDI     R16, 0
   \   000002A4   C00A               RJMP    ??run_lcp_act_13
   \                     ??run_lcp_act_14:
   \   000002A6   2F40               MOV     R20, R16
   \   000002A8   01F9               MOVW    R31:R30, R19:R18
   \   000002AA   0FE4               ADD     R30, R20
   \   000002AC   1FF7               ADC     R31, R23
   \   000002AE   A161               LDD     R22, Z+33
   \   000002B0   01FD               MOVW    R31:R30, R27:R26
   \   000002B2   0FE4               ADD     R30, R20
   \   000002B4   1FF7               ADC     R31, R23
   \   000002B6   8761               STD     Z+9, R22
   \   000002B8   9503               INC     R16
   \                     ??run_lcp_act_13:
   \   000002BA   1701               CP      R16, R17
   \   000002BC   F3A0               BRCS    ??run_lcp_act_14
    628                               temp.word=pppfcs16(PPPINITFCS16,&buf_tx_232[1],temp.word) ^ 0xffff;                  
   \   000002BE   CF83               RJMP    ??run_lcp_act_11
    629                               buf_tx_232[9+ln_nak_lcp]=temp.bytes[0];
    630                               buf_tx_232[10+ln_nak_lcp]=temp.bytes[1];
    631                               buf_tx_232[11+ln_nak_lcp]=0x7e;
    632                               
    633                               count_tx_ppp=0;                             
    634                               UCSR0A=UCSR0A | TXC;                            
    635                               UCSR0B=UCSR0B | TXEN;
    636                               UCSR0B=UCSR0B | TXCIE;
    637                               if(check_cts()==1) return;   
    638                               S2_RD;
    639                               UDR0=buf_tx_232[0];
    640                               if(Regim==RG_DEBAG) UDR3=buf_tx_232[0];
    641                               
    642                               }  
    643                               else
    644                               { 
    645                               fl_lcp2.nac_rej=0;
   \                     ??run_lcp_act_12:
   \   000002C0   8122               LDD     R18, Z+2
   \   000002C2   7F2E               ANDI    R18, 0xFE
   \   000002C4   8322               STD     Z+2, R18
    646                               buf_tx_232[5]=CONF_REJ;  
   \   000002C6   E024               LDI     R18, 4
   \   000002C8   01FD               MOVW    R31:R30, R27:R26
   \   000002CA   8325               STD     Z+5, R18
    647                               buf_tx_232[6]=i_scan_lcp;
   \   000002CC   8346               STD     Z+6, R20
    648                           
    649                               temp.word=ln_rej_lcp+4;
   \   000002CE   01F8               MOVW    R31:R30, R17:R16
   \   000002D0   AD12               LDD     R17, Z+58
   \   000002D2   2F81               MOV     R24, R17
   \   000002D4   E090               LDI     R25, 0
   \   000002D6   019C               MOVW    R19:R18, R25:R24
   \   000002D8   5F2C               SUBI    R18, 252
   \   000002DA   4F3F               SBCI    R19, 255
   \   000002DC   8328               ST      Y, R18
   \   000002DE   8339               STD     Y+1, R19
    650                               buf_tx_232[7]=temp.bytes[1]; 
   \   000002E0   8109               LDD     R16, Y+1
   \   000002E2   01FD               MOVW    R31:R30, R27:R26
   \   000002E4   8307               STD     Z+7, R16
    651                               buf_tx_232[8]=temp.bytes[0];
   \   000002E6   8108               LD      R16, Y
   \   000002E8   8700               STD     Z+8, R16
    652                                           
    653                              temp.word=temp.word+4;         
   \   000002EA   8128               LD      R18, Y
   \   000002EC   8139               LDD     R19, Y+1
   \   000002EE   5F2C               SUBI    R18, 252
   \   000002F0   4F3F               SBCI    R19, 255
   \   000002F2   8328               ST      Y, R18
   \   000002F4   8339               STD     Y+1, R19
    654                              vol_tx_ppp=temp.word+4; 
   \   000002F6   8128               LD      R18, Y
   \   000002F8   8139               LDD     R19, Y+1
   \   000002FA   5F2C               SUBI    R18, 252
   \   000002FC   4F3F               SBCI    R19, 255
   \   000002FE   ....               LDI     R30, LOW(vol_tx_ppp)
   \   00000300   ....               LDI     R31, (vol_tx_ppp) >> 8
   \   00000302   8320               ST      Z, R18
   \   00000304   8331               STD     Z+1, R19
    655                               
    656                               for(i=0;i<ln_rej_lcp;i++)buf_tx_232[9+i]=buf_rej_opt_lcp[i];
   \   00000306   E000               LDI     R16, 0
   \   00000308   C00B               RJMP    ??run_lcp_act_15
   \                     ??run_lcp_act_16:
   \   0000030A   2F20               MOV     R18, R16
   \   0000030C   E030               LDI     R19, 0
   \   0000030E   01F9               MOVW    R31:R30, R19:R18
   \   00000310   ....               SUBI    R30, LOW((-(fl_lcp1) & 0xFFFF))
   \   00000312   ....               SBCI    R31, (-(fl_lcp1) & 0xFFFF) >> 8
   \   00000314   8941               LDD     R20, Z+17
   \   00000316   01FD               MOVW    R31:R30, R27:R26
   \   00000318   0FE2               ADD     R30, R18
   \   0000031A   1FF7               ADC     R31, R23
   \   0000031C   8741               STD     Z+9, R20
   \   0000031E   9503               INC     R16
   \                     ??run_lcp_act_15:
   \   00000320   1701               CP      R16, R17
   \   00000322   F398               BRCS    ??run_lcp_act_16
    657                               temp.word=pppfcs16(PPPINITFCS16,&buf_tx_232[1],temp.word) ^ 0xffff;                  
   \   00000324   8148               LD      R20, Y
   \   00000326   8159               LDD     R21, Y+1
   \   00000328   019D               MOVW    R19:R18, R27:R26
   \   0000032A   5F2F               SUBI    R18, 255
   \   0000032C   4F3F               SBCI    R19, 255
   \   0000032E   EF0F               LDI     R16, 255
   \   00000330   EF1F               LDI     R17, 255
   \   00000332   ....               RCALL   pppfcs16
   \   00000334   EF2F               LDI     R18, 255
   \   00000336   EF3F               LDI     R19, 255
   \   00000338   2720               EOR     R18, R16
   \   0000033A   2731               EOR     R19, R17
   \   0000033C   8328               ST      Y, R18
   \   0000033E   8339               STD     Y+1, R19
    658                               buf_tx_232[9+ln_rej_lcp]=temp.bytes[0];
   \   00000340   01FD               MOVW    R31:R30, R27:R26
   \   00000342   0FE8               ADD     R30, R24
   \   00000344   1FF9               ADC     R31, R25
   \   00000346   8128               LD      R18, Y
   \   00000348   8721               STD     Z+9, R18
    659                               buf_tx_232[10+ln_rej_lcp]=temp.bytes[1];                     
   \   0000034A   8129               LDD     R18, Y+1
   \   0000034C   8722               STD     Z+10, R18
    660                               buf_tx_232[11+ln_rej_lcp]=0x7e;                     
   \   0000034E   E70E               LDI     R16, 126
   \   00000350   8703               STD     Z+11, R16
    661                              
    662                               count_tx_ppp=0;                             
   \   00000352   ....               LDI     R30, LOW(count_tx_ppp)
   \   00000354   ....               LDI     R31, (count_tx_ppp) >> 8
   \   00000356   8390               ST      Z, R25
   \   00000358   8391               STD     Z+1, R25
    663                               UCSR0A=UCSR0A | TXC;                            
   \   0000035A   910000C0           LDS     R16, 192
   \   0000035E   6400               ORI     R16, 0x40
   \   00000360   930000C0           STS     192, R16
    664                               UCSR0B=UCSR0B | TXEN;
   \   00000364   910000C1           LDS     R16, 193
   \   00000368   6008               ORI     R16, 0x08
   \   0000036A   930000C1           STS     193, R16
    665                               UCSR0B=UCSR0B | TXCIE;
   \   0000036E   910000C1           LDS     R16, 193
   \   00000372   6400               ORI     R16, 0x40
   \   00000374   930000C1           STS     193, R16
    666                               if(check_cts()==1) return;   
   \   00000378   ........           CALL    check_cts
   \   0000037C   3001               CPI     R16, 1
   \   0000037E   F051               BREQ    ??run_lcp_act_6
    667                               S2_RD;
   \   00000380   9A40               SBI     0x08, 0x00
   \   00000382   9841               CBI     0x08, 0x01
    668                               UDR0=buf_tx_232[0]; 
   \   00000384   910C               LD      R16, X
   \   00000386   930000C6           STS     198, R16
    669                               if(Regim==RG_DEBAG) UDR3=buf_tx_232[0];
   \   0000038A   9100....           LDS     R16, Regim
   \   0000038E   3001               CPI     R16, 1
   \   00000390   F409               BRNE    $+2+2
   \   00000392   CED9               RJMP    ??run_lcp_act_8
   \                     ??run_lcp_act_6:
   \   00000394   9622               ADIW    R29:R28, 2
   \   00000396   E0E4               LDI     R30, 4
   \   00000398   ........           JMP     ?EPILOGUE_B4_L09
    670                               }   
    671                               
    672          
    673                               
    674                          break; 
    675                     
    676                    }                  
    677                }
    678          
    679          
    680          

   \                                 In segment CODE, align 2, keep-with-next
    681          void monitor_act_PAP(void)
   \                     monitor_act_PAP:
    682                {  
   \   00000000   ........           CALL    ?PROLOGUE4_L09
   \   00000004   9723               SBIW    R29:R28, 3
    683                 
    684                // unsigned char i;
    685                 unsigned char temp1;
    686                 
    687                 union
    688               {
    689                unsigned char bytes[2]; 
    690                unsigned int word;
    691               }temp;
    692                
    693                 
    694                 if((pap_act_buf==SCR)&&(fl_pap.act_pap_end==1)&&(fl_lcp.act_lcp_end==1)&&(fl_ipcp.act_ipcp_end==1)&&(fl_ip.act_ip_end==1))
   \   00000006   ....               LDI     R16, LOW(cnt_pap_tm_out)
   \   00000008   ....               LDI     R17, (cnt_pap_tm_out) >> 8
   \   0000000A   01F8               MOVW    R31:R30, R17:R16
   \   0000000C   8127               LDD     R18, Z+7
   \   0000000E   3026               CPI     R18, 6
   \   00000010   F009               BREQ    $+2+2
   \   00000012   C131               RJMP    ??monitor_act_PAP_0
   \   00000014   8125               LDD     R18, Z+5
   \   00000016   7021               ANDI    R18, 0x01
   \   00000018   8132               LDD     R19, Z+2
   \   0000001A   7031               ANDI    R19, 0x01
   \   0000001C   2332               AND     R19, R18
   \   0000001E   8123               LDD     R18, Z+3
   \   00000020   7021               ANDI    R18, 0x01
   \   00000022   2323               AND     R18, R19
   \   00000024   8134               LDD     R19, Z+4
   \   00000026   7031               ANDI    R19, 0x01
   \   00000028   2332               AND     R19, R18
   \   0000002A   F409               BRNE    $+2+2
   \   0000002C   C124               RJMP    ??monitor_act_PAP_0
    695                  {        
    696                         
    697                          
    698                          
    699                           pap_act_buf=NO_EVENT;
   \   0000002E   EF2F               LDI     R18, 255
   \   00000030   8327               STD     Z+7, R18
    700                            
    701                           fl_pap.act_pap_end=0;
   \   00000032   8125               LDD     R18, Z+5
   \   00000034   7F2E               ANDI    R18, 0xFE
   \   00000036   8325               STD     Z+5, R18
    702                           buf_tx_232[0]=0x7e; 
   \   00000038   ....               LDI     R26, LOW(buf_tx_232)
   \   0000003A   ....               LDI     R27, (buf_tx_232) >> 8
   \   0000003C   E72E               LDI     R18, 126
   \   0000003E   932C               ST      X, R18
    703                           buf_tx_232[1]=0xc0;
   \   00000040   EC20               LDI     R18, 192
   \   00000042   01FD               MOVW    R31:R30, R27:R26
   \   00000044   8321               STD     Z+1, R18
    704                           buf_tx_232[2]=0x23;
   \   00000046   E223               LDI     R18, 35
   \   00000048   8322               STD     Z+2, R18
    705                           
    706                           buf_tx_232[3]=CONF_REQ; 
   \   0000004A   E021               LDI     R18, 1
   \   0000004C   8323               STD     Z+3, R18
    707                           
    708                           i_scr_pap++;
   \   0000004E   01F8               MOVW    R31:R30, R17:R16
   \   00000050   A120               LDD     R18, Z+32
   \   00000052   9523               INC     R18
   \   00000054   A320               STD     Z+32, R18
    709                           buf_tx_232[4]=i_scr_pap;         
   \   00000056   A100               LDD     R16, Z+32
   \   00000058   01FD               MOVW    R31:R30, R27:R26
   \   0000005A   8304               STD     Z+4, R16
    710                           
    711                  
    712                           if(simka==SIM_BASE)
   \   0000005C   9100....           LDS     R16, simka
   \   00000060   2300               TST     R16
   \   00000062   E041               LDI     R20, 1
   \   00000064   E050               LDI     R21, 0
   \   00000066   019E               MOVW    R19:R18, R29:R28
   \   00000068   F009               BREQ    $+2+2
   \   0000006A   C055               RJMP    ??monitor_act_PAP_1
    713                           {
    714                           RdFromFleshToArr(A_C_GPRS,&temp1,1);// ęîëč÷ĺńňâî áŕéň APN                 
   \   0000006C   5F2E               SUBI    R18, 254
   \   0000006E   4F3F               SBCI    R19, 255
   \   00000070   E104               LDI     R16, 20
   \   00000072   E010               LDI     R17, 0
   \   00000074   ........           CALL    RdFromFleshToArr
    715                           RdFromFleshToArr(A_C_GPRS+temp1+1,&temp.bytes[0],1);// ęîëč÷ĺńňâî ëîăčíŕ
   \   00000078   E041               LDI     R20, 1
   \   0000007A   E050               LDI     R21, 0
   \   0000007C   019E               MOVW    R19:R18, R29:R28
   \   0000007E   810A               LDD     R16, Y+2
   \   00000080   E010               LDI     R17, 0
   \   00000082   5E0B               SUBI    R16, 235
   \   00000084   4F1F               SBCI    R17, 255
   \   00000086   ........           CALL    RdFromFleshToArr
    716                           RdFromFleshToArr(A_C_GPRS+temp1+temp.bytes[0]+2,&temp.bytes[1],1);// ęîëč÷ĺńňâî ďŕđîë˙
   \   0000008A   E041               LDI     R20, 1
   \   0000008C   E050               LDI     R21, 0
   \   0000008E   019E               MOVW    R19:R18, R29:R28
   \   00000090   5F2F               SUBI    R18, 255
   \   00000092   4F3F               SBCI    R19, 255
   \   00000094   816A               LDD     R22, Y+2
   \   00000096   8108               LD      R16, Y
   \   00000098   E010               LDI     R17, 0
   \   0000009A   0F06               ADD     R16, R22
   \   0000009C   1F15               ADC     R17, R21
   \   0000009E   5E0A               SUBI    R16, 234
   \   000000A0   4F1F               SBCI    R17, 255
   \   000000A2   ........           CALL    RdFromFleshToArr
    717                           
    718                        
    719                           if((temp.bytes[0]==0)||(temp.bytes[0]>MAX_VOL_US_NAME)) buf_tx_232[7]=0;
   \   000000A6   8108               LD      R16, Y
   \   000000A8   2300               TST     R16
   \   000000AA   F019               BREQ    ??monitor_act_PAP_2
   \   000000AC   8108               LD      R16, Y
   \   000000AE   300D               CPI     R16, 13
   \   000000B0   F020               BRCS    ??monitor_act_PAP_3
   \                     ??monitor_act_PAP_2:
   \   000000B2   E000               LDI     R16, 0
   \   000000B4   01FD               MOVW    R31:R30, R27:R26
   \   000000B6   8307               STD     Z+7, R16
   \   000000B8   C00E               RJMP    ??monitor_act_PAP_4
    720                              else {buf_tx_232[7]=temp.bytes[0];RdFromFleshToArr(A_C_GPRS+temp1+2,&buf_tx_232[8],temp.bytes[0]);}
   \                     ??monitor_act_PAP_3:
   \   000000BA   8108               LD      R16, Y
   \   000000BC   01FD               MOVW    R31:R30, R27:R26
   \   000000BE   8307               STD     Z+7, R16
   \   000000C0   8148               LD      R20, Y
   \   000000C2   E050               LDI     R21, 0
   \   000000C4   019D               MOVW    R19:R18, R27:R26
   \   000000C6   5F28               SUBI    R18, 248
   \   000000C8   4F3F               SBCI    R19, 255
   \   000000CA   810A               LDD     R16, Y+2
   \   000000CC   E010               LDI     R17, 0
   \   000000CE   5E0A               SUBI    R16, 234
   \   000000D0   4F1F               SBCI    R17, 255
   \   000000D2   ........           CALL    RdFromFleshToArr
    721                         
    722                           if((temp.bytes[1]==0)||(temp.bytes[1]>MAX_VOL_PSW)) buf_tx_232[8+buf_tx_232[7]]=0;
   \                     ??monitor_act_PAP_4:
   \   000000D6   8149               LDD     R20, Y+1
   \   000000D8   2344               TST     R20
   \   000000DA   F011               BREQ    ??monitor_act_PAP_5
   \   000000DC   304D               CPI     R20, 13
   \   000000DE   F038               BRCS    ??monitor_act_PAP_6
   \                     ??monitor_act_PAP_5:
   \   000000E0   E000               LDI     R16, 0
   \   000000E2   01FD               MOVW    R31:R30, R27:R26
   \   000000E4   8127               LDD     R18, Z+7
   \   000000E6   0FE2               ADD     R30, R18
   \   000000E8   1FF0               ADC     R31, R16
   \   000000EA   8700               STD     Z+8, R16
   \   000000EC   C066               RJMP    ??monitor_act_PAP_7
    723                              else {buf_tx_232[8+buf_tx_232[7]]=temp.bytes[1];RdFromFleshToArr(A_C_GPRS+temp1+temp.bytes[0]+3,&buf_tx_232[9+buf_tx_232[7]],temp.bytes[1]);}
   \                     ??monitor_act_PAP_6:
   \   000000EE   01FD               MOVW    R31:R30, R27:R26
   \   000000F0   8107               LDD     R16, Z+7
   \   000000F2   E010               LDI     R17, 0
   \   000000F4   0FE0               ADD     R30, R16
   \   000000F6   1FF1               ADC     R31, R17
   \   000000F8   8740               STD     Z+8, R20
   \   000000FA   E050               LDI     R21, 0
   \   000000FC   01FD               MOVW    R31:R30, R27:R26
   \   000000FE   8107               LDD     R16, Z+7
   \   00000100   019D               MOVW    R19:R18, R27:R26
   \   00000102   0F20               ADD     R18, R16
   \   00000104   1F35               ADC     R19, R21
   \   00000106   5F27               SUBI    R18, 247
   \   00000108   4F3F               SBCI    R19, 255
   \   0000010A   816A               LDD     R22, Y+2
   \   0000010C   8108               LD      R16, Y
   \   0000010E   0F06               ADD     R16, R22
   \   00000110   1F15               ADC     R17, R21
   \   00000112   5E09               SUBI    R16, 233
   \   00000114   C04F               RJMP    ??monitor_act_PAP_8
    724                           }
    725                           else   //!!!!!!!!!!dobavka
    726                           {
    727                           RdFromFleshToArr(A_CR_GPRS,&temp1,1);// ęîëč÷ĺńňâî áŕéň APN                 
   \                     ??monitor_act_PAP_1:
   \   00000116   5F2E               SUBI    R18, 254
   \   00000118   4F3F               SBCI    R19, 255
   \   0000011A   E500               LDI     R16, 80
   \   0000011C   E010               LDI     R17, 0
   \   0000011E   ........           CALL    RdFromFleshToArr
    728                           RdFromFleshToArr(A_CR_GPRS+temp1+1,&temp.bytes[0],1);// ęîëč÷ĺńňâî ëîăčíŕ
   \   00000122   E041               LDI     R20, 1
   \   00000124   E050               LDI     R21, 0
   \   00000126   019E               MOVW    R19:R18, R29:R28
   \   00000128   810A               LDD     R16, Y+2
   \   0000012A   E010               LDI     R17, 0
   \   0000012C   5A0F               SUBI    R16, 175
   \   0000012E   4F1F               SBCI    R17, 255
   \   00000130   ........           CALL    RdFromFleshToArr
    729                           RdFromFleshToArr(A_CR_GPRS+temp1+temp.bytes[0]+2,&temp.bytes[1],1);// ęîëč÷ĺńňâî ďŕđîë˙
   \   00000134   E041               LDI     R20, 1
   \   00000136   E050               LDI     R21, 0
   \   00000138   019E               MOVW    R19:R18, R29:R28
   \   0000013A   5F2F               SUBI    R18, 255
   \   0000013C   4F3F               SBCI    R19, 255
   \   0000013E   816A               LDD     R22, Y+2
   \   00000140   8108               LD      R16, Y
   \   00000142   E010               LDI     R17, 0
   \   00000144   0F06               ADD     R16, R22
   \   00000146   1F15               ADC     R17, R21
   \   00000148   5A0E               SUBI    R16, 174
   \   0000014A   4F1F               SBCI    R17, 255
   \   0000014C   ........           CALL    RdFromFleshToArr
    730                           
    731                        
    732                           if((temp.bytes[0]==0)||(temp.bytes[0]>MAX_VOL_US_NAME)) buf_tx_232[7]=0;
   \   00000150   8108               LD      R16, Y
   \   00000152   2300               TST     R16
   \   00000154   F019               BREQ    ??monitor_act_PAP_9
   \   00000156   8108               LD      R16, Y
   \   00000158   300D               CPI     R16, 13
   \   0000015A   F020               BRCS    ??monitor_act_PAP_10
   \                     ??monitor_act_PAP_9:
   \   0000015C   E000               LDI     R16, 0
   \   0000015E   01FD               MOVW    R31:R30, R27:R26
   \   00000160   8307               STD     Z+7, R16
   \   00000162   C00E               RJMP    ??monitor_act_PAP_11
    733                              else {buf_tx_232[7]=temp.bytes[0];RdFromFleshToArr(A_CR_GPRS+temp1+2,&buf_tx_232[8],temp.bytes[0]);}
   \                     ??monitor_act_PAP_10:
   \   00000164   8108               LD      R16, Y
   \   00000166   01FD               MOVW    R31:R30, R27:R26
   \   00000168   8307               STD     Z+7, R16
   \   0000016A   8148               LD      R20, Y
   \   0000016C   E050               LDI     R21, 0
   \   0000016E   019D               MOVW    R19:R18, R27:R26
   \   00000170   5F28               SUBI    R18, 248
   \   00000172   4F3F               SBCI    R19, 255
   \   00000174   810A               LDD     R16, Y+2
   \   00000176   E010               LDI     R17, 0
   \   00000178   5A0E               SUBI    R16, 174
   \   0000017A   4F1F               SBCI    R17, 255
   \   0000017C   ........           CALL    RdFromFleshToArr
    734                         
    735                           if((temp.bytes[1]==0)||(temp.bytes[1]>MAX_VOL_PSW)) buf_tx_232[8+buf_tx_232[7]]=0;
   \                     ??monitor_act_PAP_11:
   \   00000180   8149               LDD     R20, Y+1
   \   00000182   2344               TST     R20
   \   00000184   F409               BRNE    $+2+2
   \   00000186   CFAC               RJMP    ??monitor_act_PAP_5
   \   00000188   304D               CPI     R20, 13
   \   0000018A   F008               BRCS    $+2+2
   \   0000018C   CFA9               RJMP    ??monitor_act_PAP_5
    736                              else {buf_tx_232[8+buf_tx_232[7]]=temp.bytes[1];RdFromFleshToArr(A_CR_GPRS+temp1+temp.bytes[0]+3,&buf_tx_232[9+buf_tx_232[7]],temp.bytes[1]);}
   \   0000018E   01FD               MOVW    R31:R30, R27:R26
   \   00000190   8107               LDD     R16, Z+7
   \   00000192   E010               LDI     R17, 0
   \   00000194   0FE0               ADD     R30, R16
   \   00000196   1FF1               ADC     R31, R17
   \   00000198   8740               STD     Z+8, R20
   \   0000019A   E050               LDI     R21, 0
   \   0000019C   01FD               MOVW    R31:R30, R27:R26
   \   0000019E   8107               LDD     R16, Z+7
   \   000001A0   019D               MOVW    R19:R18, R27:R26
   \   000001A2   0F20               ADD     R18, R16
   \   000001A4   1F35               ADC     R19, R21
   \   000001A6   5F27               SUBI    R18, 247
   \   000001A8   4F3F               SBCI    R19, 255
   \   000001AA   816A               LDD     R22, Y+2
   \   000001AC   8108               LD      R16, Y
   \   000001AE   0F06               ADD     R16, R22
   \   000001B0   1F15               ADC     R17, R21
   \   000001B2   5A0D               SUBI    R16, 173
   \                     ??monitor_act_PAP_8:
   \   000001B4   4F1F               SBCI    R17, 255
   \   000001B6   ........           CALL    RdFromFleshToArr
   \                     ??monitor_act_PAP_7:
   \   000001BA   01FD               MOVW    R31:R30, R27:R26
   \   000001BC   8107               LDD     R16, Z+7
   \   000001BE   E010               LDI     R17, 0
   \   000001C0   0FE0               ADD     R30, R16
   \   000001C2   1FF1               ADC     R31, R17
   \   000001C4   8580               LDD     R24, Z+8
   \   000001C6   E090               LDI     R25, 0
   \   000001C8   0F80               ADD     R24, R16
   \   000001CA   1F91               ADC     R25, R17
   \   000001CC   9606               ADIW    R25:R24, 6
   \   000001CE   8388               ST      Y, R24
   \   000001D0   8399               STD     Y+1, R25
    737                           }
    738                            //!!!!!!!!!!dobavka
    739                             
    740                           
    741                           
    742                           temp.word=6+buf_tx_232[7]+buf_tx_232[8+buf_tx_232[7]];
    743                           
    744                          
    745                            
    746                           buf_tx_232[5]=temp.bytes[1]; 
   \   000001D2   8109               LDD     R16, Y+1
   \   000001D4   01FD               MOVW    R31:R30, R27:R26
   \   000001D6   8305               STD     Z+5, R16
    747                           buf_tx_232[6]=temp.bytes[0]; 
   \   000001D8   8108               LD      R16, Y
   \   000001DA   8306               STD     Z+6, R16
    748                           
    749                           temp.word=temp.word+2;
   \   000001DC   8108               LD      R16, Y
   \   000001DE   8119               LDD     R17, Y+1
   \   000001E0   5F0E               SUBI    R16, 254
   \   000001E2   4F1F               SBCI    R17, 255
   \   000001E4   8308               ST      Y, R16
   \   000001E6   8319               STD     Y+1, R17
    750                           vol_tx_ppp=temp.word+4;
   \   000001E8   8188               LD      R24, Y
   \   000001EA   8199               LDD     R25, Y+1
   \   000001EC   9604               ADIW    R25:R24, 4
   \   000001EE   ....               LDI     R30, LOW(vol_tx_ppp)
   \   000001F0   ....               LDI     R31, (vol_tx_ppp) >> 8
   \   000001F2   8380               ST      Z, R24
   \   000001F4   8391               STD     Z+1, R25
    751                            
    752                           
    753                           
    754                            
    755          
    756                           temp.word=pppfcs16(PPPINITFCS16,&buf_tx_232[1],temp.word) ^ 0xffff;                  
   \   000001F6   8148               LD      R20, Y
   \   000001F8   8159               LDD     R21, Y+1
   \   000001FA   019D               MOVW    R19:R18, R27:R26
   \   000001FC   5F2F               SUBI    R18, 255
   \   000001FE   4F3F               SBCI    R19, 255
   \   00000200   EF0F               LDI     R16, 255
   \   00000202   EF1F               LDI     R17, 255
   \   00000204   ....               RCALL   pppfcs16
   \   00000206   EF2F               LDI     R18, 255
   \   00000208   EF3F               LDI     R19, 255
   \   0000020A   2720               EOR     R18, R16
   \   0000020C   2731               EOR     R19, R17
   \   0000020E   8328               ST      Y, R18
   \   00000210   8339               STD     Y+1, R19
    757                           buf_tx_232[vol_tx_ppp-3]=temp.bytes[0];
   \   00000212   ....               LDI     R30, LOW(vol_tx_ppp)
   \   00000214   ....               LDI     R31, (vol_tx_ppp) >> 8
   \   00000216   8100               LD      R16, Z
   \   00000218   8111               LDD     R17, Z+1
   \   0000021A   01FD               MOVW    R31:R30, R27:R26
   \   0000021C   0FE0               ADD     R30, R16
   \   0000021E   1FF1               ADC     R31, R17
   \   00000220   9733               SBIW    R31:R30, 3
   \   00000222   8128               LD      R18, Y
   \   00000224   8320               ST      Z, R18
    758                           buf_tx_232[vol_tx_ppp-2]=temp.bytes[1];
   \   00000226   8129               LDD     R18, Y+1
   \   00000228   8321               STD     Z+1, R18
    759                           
    760                           buf_tx_232[vol_tx_ppp-1]=0x7e; 
   \   0000022A   E70E               LDI     R16, 126
   \   0000022C   8302               STD     Z+2, R16
    761                           
    762                          
    763          
    764                
    765                           count_tx_ppp=0;                            
   \   0000022E   E000               LDI     R16, 0
   \   00000230   ....               LDI     R30, LOW(count_tx_ppp)
   \   00000232   ....               LDI     R31, (count_tx_ppp) >> 8
   \   00000234   8300               ST      Z, R16
   \   00000236   8301               STD     Z+1, R16
    766                           UCSR0A=UCSR0A | TXC;                            
   \   00000238   910000C0           LDS     R16, 192
   \   0000023C   6400               ORI     R16, 0x40
   \   0000023E   930000C0           STS     192, R16
    767                           UCSR0B=UCSR0B | TXEN;
   \   00000242   910000C1           LDS     R16, 193
   \   00000246   6008               ORI     R16, 0x08
   \   00000248   930000C1           STS     193, R16
    768                           UCSR0B=UCSR0B | TXCIE;
   \   0000024C   910000C1           LDS     R16, 193
   \   00000250   6400               ORI     R16, 0x40
   \   00000252   930000C1           STS     193, R16
    769                           if(check_cts()==1) return;    
   \   00000256   ........           CALL    check_cts
   \   0000025A   3001               CPI     R16, 1
   \   0000025C   F061               BREQ    ??monitor_act_PAP_0
    770                           
    771                           S2_RD;
   \   0000025E   9A40               SBI     0x08, 0x00
   \   00000260   9841               CBI     0x08, 0x01
    772                           UDR0=buf_tx_232[0];  
   \   00000262   910C               LD      R16, X
   \   00000264   930000C6           STS     198, R16
    773                           if(Regim==RG_DEBAG) UDR3=buf_tx_232[0];
   \   00000268   9100....           LDS     R16, Regim
   \   0000026C   3001               CPI     R16, 1
   \   0000026E   F419               BRNE    ??monitor_act_PAP_0
   \   00000270   910C               LD      R16, X
   \   00000272   93000136           STS     310, R16
   \                     ??monitor_act_PAP_0:
   \   00000276   9623               ADIW    R29:R28, 3
   \   00000278   E0E4               LDI     R30, 4
   \   0000027A   ........           JMP     ?EPILOGUE_B4_L09
    774                          
    775          
    776                  }
    777                }
    778          
    779          
    780          
    781          

   \                                 In segment CODE, align 2, keep-with-next
    782          void monitor_event_PAP(void)
   \                     monitor_event_PAP:
    783              {
    784               if (fl_pap.up==1)      //UP
   \   00000000   ....               LDI     R30, LOW(cnt_pap_tm_out)
   \   00000002   ....               LDI     R31, (cnt_pap_tm_out) >> 8
   \   00000004   8510               LDD     R17, Z+8
   \   00000006   8105               LDD     R16, Z+5
   \   00000008   FF04               SBRS    R16, 4
   \   0000000A   C00F               RJMP    ??monitor_event_PAP_0
    785                   {
    786                   fl_pap.up=0; 
   \   0000000C   8105               LDD     R16, Z+5
   \   0000000E   7E0F               ANDI    R16, 0xEF
   \   00000010   8305               STD     Z+5, R16
    787                     switch(PAP_state)
   \   00000012   5011               SUBI    R17, 1
   \   00000014   F591               BRNE    ??monitor_event_PAP_1
    788                         {
    789                          case START_ST:                                                                
    790                                      vol_cnt_rst_pap=VOL_PAP_MC;  
   \   00000016   E005               LDI     R16, 5
   \   00000018   8F03               STD     Z+27, R16
    791                                     
    792                                     // IRC;   //!!!!!!!!!!!!!!111                                            
    793                                      cnt_pap_tm_out=VOL_PAP_TM_OUT; 
   \   0000001A   EB08               LDI     R16, 184
   \   0000001C   E01B               LDI     R17, 11
   \   0000001E   8300               ST      Z, R16
   \   00000020   8311               STD     Z+1, R17
    794                                     // cnt_rst_pap=vol_cnt_rst_pap;
    795                                      fl_pap.pap_tm_out_en=1; 
    796                                      fl_pap.act_pap_end=1;  
   \   00000022   8105               LDD     R16, Z+5
   \   00000024   6003               ORI     R16, 0x03
   \   00000026   8305               STD     Z+5, R16
    797                                      pap_act_buf=SCR;                    
   \   00000028   C00C               RJMP    ??monitor_event_PAP_2
    798                                      PAP_state=SEND_REQ; 
    799                          return;
    800                         }
    801                      
    802                   return;
    803                   }
    804               
    805              
    806               
    807               if(fl_pap.t0_pl==1)        //TO_PL
   \                     ??monitor_event_PAP_0:
   \   0000002A   8105               LDD     R16, Z+5
   \   0000002C   FF02               SBRS    R16, 2
   \   0000002E   C00D               RJMP    ??monitor_event_PAP_3
    808                  {
    809                   fl_pap.t0_pl=0; 
   \   00000030   8105               LDD     R16, Z+5
   \   00000032   7F0B               ANDI    R16, 0xFB
   \   00000034   8305               STD     Z+5, R16
    810                   switch(PAP_state)
   \   00000036   5016               SUBI    R17, 6
   \   00000038   F501               BRNE    ??monitor_event_PAP_1
    811                         {                     
    812                                         
    813                          case SEND_REQ:
    814                                     // vol_cnt_rst_pap=VOL_PAP_MC;                                                    
    815                                      cnt_pap_tm_out=VOL_PAP_TM_OUT; 
   \   0000003A   EB08               LDI     R16, 184
   \   0000003C   E01B               LDI     R17, 11
   \   0000003E   8300               ST      Z, R16
   \   00000040   8311               STD     Z+1, R17
    816                                      pap_act_buf=SCR;               
   \                     ??monitor_event_PAP_2:
   \   00000042   E006               LDI     R16, 6
   \   00000044   8307               STD     Z+7, R16
    817                                      PAP_state=SEND_REQ;
   \   00000046   8700               STD     Z+8, R16
    818                                      return;
   \   00000048   9508               RET
    819                                                                                      
    820                         } 
    821                      
    822                   return;
    823                  }       
    824                 
    825                   
    826               
    827               switch (PAP_event)
   \                     ??monitor_event_PAP_3:
   \   0000004A   8501               LDD     R16, Z+9
   \   0000004C   5008               SUBI    R16, 8
   \   0000004E   F4A9               BRNE    ??monitor_event_PAP_1
    828                  {
    829                 
    830                         
    831                 
    832                  case RCA:  
    833                     
    834                  
    835                      PAP_event=NO_EVENT;
   \   00000050   EF0F               LDI     R16, 255
   \   00000052   8701               STD     Z+9, R16
    836                      switch(PAP_state)
   \   00000054   5016               SUBI    R17, 6
   \   00000056   F489               BRNE    ??monitor_event_PAP_1
    837                         {                     
    838          
    839                        
    840                          case SEND_REQ:                                                                                                     
    841                                      //TLU;  
    842                                      
    843                                      fl_pap.up=0;  
   \   00000058   8105               LDD     R16, Z+5
   \   0000005A   7E0F               ANDI    R16, 0xEF
   \   0000005C   8305               STD     Z+5, R16
    844                                      PAP_state=OPEN_ST; 
   \   0000005E   E009               LDI     R16, 9
   \   00000060   8700               STD     Z+8, R16
    845                                      IPCP_state=START_ST;  
   \   00000062   E001               LDI     R16, 1
   \   00000064   8702               STD     Z+10, R16
    846                                      fl_ipcp.act_ipcp_end=1; 
   \   00000066   8103               LDD     R16, Z+3
   \   00000068   6001               ORI     R16, 0x01
   \   0000006A   8303               STD     Z+3, R16
    847                                      fl_ipcp1.up=1;
    848                                      fl_ipcp1.down=0;
   \   0000006C   8106               LDD     R16, Z+6
   \   0000006E   7F0D               ANDI    R16, 0xFD
   \   00000070   6001               ORI     R16, 0x01
   \   00000072   8306               STD     Z+6, R16
    849                                      layer_PPP=LAYER_IPCP;
   \   00000074   E003               LDI     R16, 3
   \   00000076   9300....           STS     layer_PPP, R16
    850          
    851                                      return;
   \                     ??monitor_event_PAP_1:
   \   0000007A   9508               RET
    852                                                                                           
    853                         }  
    854                       return; 
    855                  
    856              
    857              }
    858           }
    859          
    860          
    861          
    862          

   \                                 In segment CODE, align 2, keep-with-next
    863          void monitor_act_LCP(void)
   \                     monitor_act_LCP:
    864                {  
   \   00000000   93BA               ST      -Y, R27
   \   00000002   93AA               ST      -Y, R26
    865                 
    866                 if((uk_in_act_LCP!=uk_out_act_LCP)&&(fl_lcp.act_lcp_end==1)&&(fl_pap.act_pap_end==1)&&(fl_ipcp.act_ipcp_end==1)&&(fl_ip.act_ip_end==1))
   \   00000004   ....               LDI     R26, LOW(cnt_pap_tm_out)
   \   00000006   ....               LDI     R27, (cnt_pap_tm_out) >> 8
   \   00000008   9656               ADIW    R27:R26, 22
   \   0000000A   910C               LD      R16, X
   \   0000000C   9756               SBIW    R27:R26, 22
   \   0000000E   9657               ADIW    R27:R26, 23
   \   00000010   911C               LD      R17, X
   \   00000012   9757               SBIW    R27:R26, 23
   \   00000014   1701               CP      R16, R17
   \   00000016   F111               BREQ    ??monitor_act_LCP_0
   \   00000018   9612               ADIW    R27:R26, 2
   \   0000001A   910C               LD      R16, X
   \   0000001C   9712               SBIW    R27:R26, 2
   \   0000001E   7001               ANDI    R16, 0x01
   \   00000020   9615               ADIW    R27:R26, 5
   \   00000022   911C               LD      R17, X
   \   00000024   9715               SBIW    R27:R26, 5
   \   00000026   7011               ANDI    R17, 0x01
   \   00000028   2310               AND     R17, R16
   \   0000002A   9613               ADIW    R27:R26, 3
   \   0000002C   910C               LD      R16, X
   \   0000002E   9713               SBIW    R27:R26, 3
   \   00000030   7001               ANDI    R16, 0x01
   \   00000032   2301               AND     R16, R17
   \   00000034   9614               ADIW    R27:R26, 4
   \   00000036   911C               LD      R17, X
   \   00000038   9714               SBIW    R27:R26, 4
   \   0000003A   7011               ANDI    R17, 0x01
   \   0000003C   2310               AND     R17, R16
   \   0000003E   F071               BREQ    ??monitor_act_LCP_0
    867                  {   
    868                  run_lcp_act();
   \   00000040   ....               RCALL   run_lcp_act
    869                  uk_out_act_LCP++;  
   \   00000042   9657               ADIW    R27:R26, 23
   \   00000044   910C               LD      R16, X
   \   00000046   9503               INC     R16
   \   00000048   930C               ST      X, R16
   \   0000004A   9757               SBIW    R27:R26, 23
    870                  if (uk_out_act_LCP>=LCP_ACT_VOL)uk_out_act_LCP=0; 
   \   0000004C   9657               ADIW    R27:R26, 23
   \   0000004E   910C               LD      R16, X
   \   00000050   9757               SBIW    R27:R26, 23
   \   00000052   300F               CPI     R16, 15
   \   00000054   F018               BRCS    ??monitor_act_LCP_0
   \   00000056   E000               LDI     R16, 0
   \   00000058   9657               ADIW    R27:R26, 23
   \   0000005A   930C               ST      X, R16
    871                  }
    872                }
   \                     ??monitor_act_LCP_0:
   \   0000005C   91A9               LD      R26, Y+
   \   0000005E   91B9               LD      R27, Y+
   \   00000060   9508               RET
    873           
    874           
    875            

   \                                 In segment CODE, align 2, keep-with-next
    876          void monitor_event_LCP(void)
   \                     monitor_event_LCP:
    877              {
   \   00000000   ........           CALL    ?PROLOGUE4_L09
    878               if (fl_lcp1.up==1)      //UP
   \   00000004   ....               LDI     R26, LOW(fl_lcp1)
   \   00000006   ....               LDI     R27, (fl_lcp1) >> 8
   \   00000008   01FD               MOVW    R31:R30, R27:R26
   \   0000000A   8121               LDD     R18, Z+1
   \   0000000C   ....               LDI     R24, LOW(cnt_pap_tm_out)
   \   0000000E   ....               LDI     R25, (cnt_pap_tm_out) >> 8
   \   00000010   910C               LD      R16, X
   \   00000012   FF00               SBRS    R16, 0
   \   00000014   C01D               RJMP    ??monitor_event_LCP_0
    879                   {  
    880                   
    881                    
    882                   fl_lcp1.up=0; 
   \   00000016   910C               LD      R16, X
   \   00000018   7F0E               ANDI    R16, 0xFE
   \   0000001A   930C               ST      X, R16
    883                     switch(LCP_state)
   \   0000001C   5021               SUBI    R18, 1
   \   0000001E   F4A9               BRNE    ??monitor_event_LCP_1
    884                         {
    885                          case START_ST:                                                                
    886          
    887                                     // vol_cnt_rst_lcp=VOL_LCP_MC;  
    888                                      LCP_act_buf[uk_in_act_LCP]=IRC;  
   \                     ??monitor_event_LCP_2:
   \   00000020   E004               LDI     R16, 4
   \                     ??monitor_event_LCP_3:
   \   00000022   01FC               MOVW    R31:R30, R25:R24
   \   00000024   8926               LDD     R18, Z+22
   \   00000026   E030               LDI     R19, 0
   \   00000028   01FD               MOVW    R31:R30, R27:R26
   \   0000002A   0FE2               ADD     R30, R18
   \   0000002C   1FF3               ADC     R31, R19
   \   0000002E   8302               STD     Z+2, R16
    889                                      prov_uk_in();                    
   \   00000030   ....               RCALL   prov_uk_in
    890                                      LCP_act_buf[uk_in_act_LCP]=SCR;  
   \   00000032   E006               LDI     R16, 6
   \                     ??monitor_event_LCP_4:
   \   00000034   01FC               MOVW    R31:R30, R25:R24
   \   00000036   8926               LDD     R18, Z+22
   \   00000038   E030               LDI     R19, 0
   \   0000003A   01FD               MOVW    R31:R30, R27:R26
   \   0000003C   0FE2               ADD     R30, R18
   \   0000003E   1FF3               ADC     R31, R19
   \   00000040   8302               STD     Z+2, R16
    891                                      prov_uk_in();                    
   \   00000042   ....               RCALL   prov_uk_in
    892                                      LCP_state=SEND_REQ;  
   \   00000044   E006               LDI     R16, 6
   \                     ??monitor_event_LCP_5:
   \   00000046   01FD               MOVW    R31:R30, R27:R26
   \   00000048   8301               STD     Z+1, R16
    893                                      
    894                       
    895                                     
    896                          return;
   \                     ??monitor_event_LCP_1:
   \   0000004A   E0E4               LDI     R30, 4
   \   0000004C   ........           JMP     ?EPILOGUE_B4_L09
    897                         }
    898                      
    899                   return;
    900                   }
    901               
    902              
    903               
    904               if(fl_lcp.t0_pl==1)        //TO_PL
   \                     ??monitor_event_LCP_0:
   \   00000050   01FC               MOVW    R31:R30, R25:R24
   \   00000052   8946               LDD     R20, Z+22
   \   00000054   E050               LDI     R21, 0
   \   00000056   018D               MOVW    R17:R16, R27:R26
   \   00000058   0F04               ADD     R16, R20
   \   0000005A   1F15               ADC     R17, R21
   \   0000005C   8132               LDD     R19, Z+2
   \   0000005E   FF32               SBRS    R19, 2
   \   00000060   C018               RJMP    ??monitor_event_LCP_6
    905                  {
    906                   fl_lcp.t0_pl=0; 
   \   00000062   8132               LDD     R19, Z+2
   \   00000064   7F3B               ANDI    R19, 0xFB
   \   00000066   8332               STD     Z+2, R19
    907                   switch(LCP_state)
   \   00000068   5026               SUBI    R18, 6
   \   0000006A   F2D1               BREQ    ??monitor_event_LCP_2
   \   0000006C   952A               DEC     R18
   \   0000006E   F2C1               BREQ    ??monitor_event_LCP_2
   \   00000070   952A               DEC     R18
   \   00000072   F759               BRNE    ??monitor_event_LCP_1
    908                         {                     
    909                                         
    910                          
    911                          case SEND_REQ:
    912                                    //  vol_cnt_rst_lcp=VOL_LCP_MC;                                                    
    913                                      LCP_act_buf[uk_in_act_LCP]=IRC;  
    914                                      prov_uk_in();
    915                                      LCP_act_buf[uk_in_act_LCP]=SCR;  
    916                                      prov_uk_in();                 
    917                                      LCP_state=SEND_REQ;
    918                                      return;
    919                          case REC_ACK:      
    920                                     // vol_cnt_rst_lcp=VOL_LCP_MC;                                              
    921                                      LCP_act_buf[uk_in_act_LCP]=IRC;  
    922                                      prov_uk_in();
    923                                      LCP_act_buf[uk_in_act_LCP]=SCR;  
    924                                      prov_uk_in();                 
    925                                      LCP_state=SEND_REQ;
    926                                      return;
    927                          case SEND_ACK: 
    928                                     // vol_cnt_rst_lcp=VOL_LCP_MC;                                                   
    929                                      LCP_act_buf[uk_in_act_LCP]=IRC;  
   \                     ??monitor_event_LCP_7:
   \   00000074   E024               LDI     R18, 4
   \   00000076   01F8               MOVW    R31:R30, R17:R16
   \   00000078   8322               STD     Z+2, R18
    930                                      prov_uk_in();
   \   0000007A   ....               RCALL   prov_uk_in
    931                                      LCP_act_buf[uk_in_act_LCP]=SCR;  
   \   0000007C   E006               LDI     R16, 6
   \                     ??monitor_event_LCP_8:
   \   0000007E   01FC               MOVW    R31:R30, R25:R24
   \   00000080   8926               LDD     R18, Z+22
   \   00000082   E030               LDI     R19, 0
   \   00000084   01FD               MOVW    R31:R30, R27:R26
   \   00000086   0FE2               ADD     R30, R18
   \   00000088   1FF3               ADC     R31, R19
   \   0000008A   8302               STD     Z+2, R16
    932                                      prov_uk_in();                 
   \   0000008C   ....               RCALL   prov_uk_in
    933                                      LCP_state=SEND_ACK;
   \   0000008E   E008               LDI     R16, 8
   \   00000090   CFDA               RJMP    ??monitor_event_LCP_5
    934                                      return;                                                              
    935                         } 
    936                      
    937                   return;
    938                  }  
    939               
    940               switch (LCP_event)
   \                     ??monitor_event_LCP_6:
   \   00000092   ....               LDI     R30, LOW(cnt_lcp_tm_out)
   \   00000094   ....               LDI     R31, (cnt_lcp_tm_out) >> 8
   \   00000096   8133               LDD     R19, Z+3
   \   00000098   5036               SUBI    R19, 6
   \   0000009A   F049               BREQ    ??monitor_event_LCP_9
   \   0000009C   953A               DEC     R19
   \   0000009E   F1C9               BREQ    ??monitor_event_LCP_10
   \   000000A0   953A               DEC     R19
   \   000000A2   F409               BRNE    $+2+2
   \   000000A4   C060               RJMP    ??monitor_event_LCP_11
   \   000000A6   953A               DEC     R19
   \   000000A8   F409               BRNE    $+2+2
   \   000000AA   C073               RJMP    ??monitor_event_LCP_12
   \   000000AC   CFCE               RJMP    ??monitor_event_LCP_1
    941                  {
    942                  case RCR_PL:  
    943                      LCP_event=NO_EVENT; 
   \                     ??monitor_event_LCP_9:
   \   000000AE   EF3F               LDI     R19, 255
   \   000000B0   8333               STD     Z+3, R19
    944                      switch(LCP_state)
   \   000000B2   5026               SUBI    R18, 6
   \   000000B4   F039               BREQ    ??monitor_event_LCP_13
   \   000000B6   952A               DEC     R18
   \   000000B8   F039               BREQ    ??monitor_event_LCP_14
   \   000000BA   952A               DEC     R18
   \   000000BC   F019               BREQ    ??monitor_event_LCP_13
   \   000000BE   952A               DEC     R18
   \   000000C0   F089               BREQ    ??monitor_event_LCP_15
   \   000000C2   CFC3               RJMP    ??monitor_event_LCP_1
    945                         {                     
    946                         
    947                          case SEND_REQ:                                                                
    948                                      LCP_act_buf[uk_in_act_LCP]=SCA;  
   \                     ??monitor_event_LCP_13:
   \   000000C4   E007               LDI     R16, 7
   \   000000C6   CFDB               RJMP    ??monitor_event_LCP_8
    949                                      prov_uk_in();                 
    950                                      LCP_state=SEND_ACK;   
    951          
    952                                      return;
    953                          case REC_ACK:
    954                  
    955                                      LCP_act_buf[uk_in_act_LCP]=SCA;  
   \                     ??monitor_event_LCP_14:
   \   000000C8   E027               LDI     R18, 7
   \                     ??monitor_event_LCP_16:
   \   000000CA   01F8               MOVW    R31:R30, R17:R16
   \   000000CC   8322               STD     Z+2, R18
    956                                      prov_uk_in();       
   \   000000CE   ....               RCALL   prov_uk_in
    957                                      LCP_act_buf[uk_in_act_LCP]=TLU;  
   \   000000D0   E000               LDI     R16, 0
   \   000000D2   01FC               MOVW    R31:R30, R25:R24
   \   000000D4   8926               LDD     R18, Z+22
   \   000000D6   01FD               MOVW    R31:R30, R27:R26
   \   000000D8   0FE2               ADD     R30, R18
   \   000000DA   1FF0               ADC     R31, R16
   \   000000DC   8302               STD     Z+2, R16
    958                                      prov_uk_in();          
   \   000000DE   ....               RCALL   prov_uk_in
    959                                      LCP_state=OPEN_ST;  
   \   000000E0   E009               LDI     R16, 9
   \   000000E2   CFB1               RJMP    ??monitor_event_LCP_5
    960                                     
    961                                      return;
    962                          case SEND_ACK:                                                                
    963                                      LCP_act_buf[uk_in_act_LCP]=SCA;  
    964                                      prov_uk_in();                 
    965                                      LCP_state=SEND_ACK; 
    966                             
    967                                      return;
    968                          case OPEN_ST:      
    969                                      LCP_act_buf[uk_in_act_LCP]=TLD;  
   \                     ??monitor_event_LCP_15:
   \   000000E4   E021               LDI     R18, 1
   \   000000E6   01F8               MOVW    R31:R30, R17:R16
   \   000000E8   8322               STD     Z+2, R18
    970                                      prov_uk_in();
   \   000000EA   ....               RCALL   prov_uk_in
    971                                      LCP_act_buf[uk_in_act_LCP]=IRC;  
   \   000000EC   E004               LDI     R16, 4
   \   000000EE   01FC               MOVW    R31:R30, R25:R24
   \   000000F0   8926               LDD     R18, Z+22
   \   000000F2   E030               LDI     R19, 0
   \   000000F4   01FD               MOVW    R31:R30, R27:R26
   \   000000F6   0FE2               ADD     R30, R18
   \   000000F8   1FF3               ADC     R31, R19
   \   000000FA   8302               STD     Z+2, R16
    972                                      prov_uk_in();
   \   000000FC   ....               RCALL   prov_uk_in
    973                                  //    vol_cnt_rst_lcp=VOL_LCP_MC; 
    974                                      LCP_act_buf[uk_in_act_LCP]=SCR;  
   \   000000FE   E006               LDI     R16, 6
   \   00000100   01FC               MOVW    R31:R30, R25:R24
   \   00000102   8926               LDD     R18, Z+22
   \   00000104   E030               LDI     R19, 0
   \   00000106   01FD               MOVW    R31:R30, R27:R26
   \   00000108   0FE2               ADD     R30, R18
   \   0000010A   1FF3               ADC     R31, R19
   \   0000010C   8302               STD     Z+2, R16
    975                                      prov_uk_in();                                                                
   \   0000010E   ....               RCALL   prov_uk_in
   \   00000110   CFD9               RJMP    ??monitor_event_LCP_13
    976                                      LCP_act_buf[uk_in_act_LCP]=SCA;  
    977                                      prov_uk_in();                 
    978                                      LCP_state=SEND_ACK; 
    979                             
    980                                      return;                                                                    
    981                         }  
    982                       return; 
    983                  case RCR_MI: 
    984                      
    985                      LCP_event=NO_EVENT;
   \                     ??monitor_event_LCP_10:
   \   00000112   EF3F               LDI     R19, 255
   \   00000114   8333               STD     Z+3, R19
    986                      switch(LCP_state)
   \   00000116   5026               SUBI    R18, 6
   \   00000118   F039               BREQ    ??monitor_event_LCP_17
   \   0000011A   952A               DEC     R18
   \   0000011C   F039               BREQ    ??monitor_event_LCP_18
   \   0000011E   952A               DEC     R18
   \   00000120   F019               BREQ    ??monitor_event_LCP_17
   \   00000122   952A               DEC     R18
   \   00000124   F049               BREQ    ??monitor_event_LCP_19
   \   00000126   CF91               RJMP    ??monitor_event_LCP_1
    987                         {                     
    988          
    989                         
    990                          case SEND_REQ:                                                                
    991                                      
    992                                 
    993                                      LCP_act_buf[uk_in_act_LCP]=SCN;  
   \                     ??monitor_event_LCP_17:
   \   00000128   E008               LDI     R16, 8
   \   0000012A   CF84               RJMP    ??monitor_event_LCP_4
    994                                      prov_uk_in();                 
    995                                      LCP_state=SEND_REQ;    
    996                               
    997                                      return;
    998                          case REC_ACK:                                                                
    999                                      LCP_act_buf[uk_in_act_LCP]=SCN;  
   \                     ??monitor_event_LCP_18:
   \   0000012C   E028               LDI     R18, 8
   \                     ??monitor_event_LCP_20:
   \   0000012E   01F8               MOVW    R31:R30, R17:R16
   \   00000130   8322               STD     Z+2, R18
   1000                                      prov_uk_in();              
   \   00000132   ....               RCALL   prov_uk_in
   1001                                      LCP_state=REC_ACK;     
   \   00000134   E007               LDI     R16, 7
   \   00000136   CF87               RJMP    ??monitor_event_LCP_5
   1002                                     
   1003                                      return;
   1004                          case SEND_ACK:                                                                
   1005                                      LCP_act_buf[uk_in_act_LCP]=SCN;  
   1006                                      prov_uk_in();                 
   1007                                      LCP_state=SEND_REQ;
   1008                                   
   1009                                      return;
   1010                          case OPEN_ST:      
   1011                                      LCP_act_buf[uk_in_act_LCP]=TLD;  
   \                     ??monitor_event_LCP_19:
   \   00000138   E021               LDI     R18, 1
   \   0000013A   01F8               MOVW    R31:R30, R17:R16
   \   0000013C   8322               STD     Z+2, R18
   1012                                      prov_uk_in();   
   \   0000013E   ....               RCALL   prov_uk_in
   1013                                 //     vol_cnt_rst_lcp=VOL_LCP_MC;
   1014                                      LCP_act_buf[uk_in_act_LCP]=IRC;  
   \   00000140   E004               LDI     R16, 4
   \   00000142   01FC               MOVW    R31:R30, R25:R24
   \   00000144   8926               LDD     R18, Z+22
   \   00000146   E030               LDI     R19, 0
   \   00000148   01FD               MOVW    R31:R30, R27:R26
   \   0000014A   0FE2               ADD     R30, R18
   \   0000014C   1FF3               ADC     R31, R19
   \   0000014E   8302               STD     Z+2, R16
   1015                                      prov_uk_in();
   \   00000150   ....               RCALL   prov_uk_in
   1016                                      LCP_act_buf[uk_in_act_LCP]=SCR;  
   \   00000152   E006               LDI     R16, 6
   \   00000154   01FC               MOVW    R31:R30, R25:R24
   \   00000156   8926               LDD     R18, Z+22
   \   00000158   E030               LDI     R19, 0
   \   0000015A   01FD               MOVW    R31:R30, R27:R26
   \   0000015C   0FE2               ADD     R30, R18
   \   0000015E   1FF3               ADC     R31, R19
   \   00000160   8302               STD     Z+2, R16
   1017                                      prov_uk_in();                                                                
   \   00000162   ....               RCALL   prov_uk_in
   \   00000164   CFE1               RJMP    ??monitor_event_LCP_17
   1018                                      LCP_act_buf[uk_in_act_LCP]=SCN;  
   1019                                      prov_uk_in();                 
   1020                                      LCP_state=SEND_REQ;
   1021                                    
   1022                                      return;                                                                    
   1023                         }  
   1024                       return; 
   1025                  case RCA:    
   1026           
   1027            
   1028            
   1029                      LCP_event=NO_EVENT;
   \                     ??monitor_event_LCP_11:
   \   00000166   EF3F               LDI     R19, 255
   \   00000168   8333               STD     Z+3, R19
   1030                      switch(LCP_state)
   \   0000016A   5026               SUBI    R18, 6
   \   0000016C   F041               BREQ    ??monitor_event_LCP_21
   \   0000016E   952A               DEC     R18
   \   00000170   F409               BRNE    $+2+2
   \   00000172   CF56               RJMP    ??monitor_event_LCP_2
   \   00000174   952A               DEC     R18
   \   00000176   F029               BREQ    ??monitor_event_LCP_22
   \   00000178   952A               DEC     R18
   \   0000017A   F029               BREQ    ??monitor_event_LCP_23
   \   0000017C   CF66               RJMP    ??monitor_event_LCP_1
   1031                         {                     
   1032                          
   1033                        
   1034                          case SEND_REQ: 
   1035                                      
   1036                                    //  vol_cnt_rst_lcp=VOL_LCP_MC;  
   1037                                      LCP_act_buf[uk_in_act_LCP]=IRC;  
   \                     ??monitor_event_LCP_21:
   \   0000017E   E024               LDI     R18, 4
   \   00000180   CFD6               RJMP    ??monitor_event_LCP_20
   1038                                      prov_uk_in();                                        
   1039                                      LCP_state=REC_ACK; 
   1040                               
   1041                                      return;
   1042                          case REC_ACK:       
   1043                                  //    vol_cnt_rst_lcp=VOL_LCP_MC;                                             
   1044                                      LCP_act_buf[uk_in_act_LCP]=IRC;  
   1045                                      prov_uk_in();
   1046                                      LCP_act_buf[uk_in_act_LCP]=SCR;  
   1047                                      prov_uk_in();                 
   1048                                      LCP_state=SEND_REQ;
   1049                                      return;
   1050                          case SEND_ACK:                                                                
   1051                                   //   vol_cnt_rst_lcp=VOL_LCP_MC;  
   1052                                      LCP_act_buf[uk_in_act_LCP]=IRC;  
   \                     ??monitor_event_LCP_22:
   \   00000182   E024               LDI     R18, 4
   \   00000184   CFA2               RJMP    ??monitor_event_LCP_16
   1053                                      prov_uk_in();                                        
   1054                                      LCP_act_buf[uk_in_act_LCP]=TLU;  
   1055                                      prov_uk_in();
   1056                                      LCP_state=OPEN_ST;
   1057          
   1058                                      return;
   1059                          case OPEN_ST:
   1060                                  //    vol_cnt_rst_lcp=VOL_LCP_MC;
   1061                                      LCP_act_buf[uk_in_act_LCP]=IRC;  
   \                     ??monitor_event_LCP_23:
   \   00000186   E024               LDI     R18, 4
   \   00000188   01F8               MOVW    R31:R30, R17:R16
   \   0000018A   8322               STD     Z+2, R18
   1062                                      prov_uk_in();
   \   0000018C   ....               RCALL   prov_uk_in
   1063                                      LCP_act_buf[uk_in_act_LCP]=TLD;  
   \   0000018E   E001               LDI     R16, 1
   \   00000190   CF48               RJMP    ??monitor_event_LCP_3
   1064                                      prov_uk_in();   
   1065                                      LCP_act_buf[uk_in_act_LCP]=SCR;  
   1066                                      prov_uk_in();                                                                               
   1067                                      LCP_state=SEND_REQ;
   1068                                   
   1069                                      return;                                                                    
   1070                         }  
   1071                       return; 
   1072                  case RCN: 
   1073                          LCP_event=NO_EVENT;
   \                     ??monitor_event_LCP_12:
   \   00000192   EF3F               LDI     R19, 255
   \   00000194   8333               STD     Z+3, R19
   1074                  switch(LCP_state)
   \   00000196   5026               SUBI    R18, 6
   \   00000198   F409               BRNE    $+2+2
   \   0000019A   CF42               RJMP    ??monitor_event_LCP_2
   \   0000019C   952A               DEC     R18
   \   0000019E   F409               BRNE    $+2+2
   \   000001A0   CF3F               RJMP    ??monitor_event_LCP_2
   \   000001A2   952A               DEC     R18
   \   000001A4   F409               BRNE    $+2+2
   \   000001A6   CF66               RJMP    ??monitor_event_LCP_7
   \   000001A8   952A               DEC     R18
   \   000001AA   F009               BREQ    $+2+2
   \   000001AC   CF4E               RJMP    ??monitor_event_LCP_1
   1075                         {                     
   1076          
   1077                          
   1078                          case SEND_REQ:                                                                
   1079                                   //   vol_cnt_rst_lcp=VOL_LCP_MC;  
   1080                                      LCP_act_buf[uk_in_act_LCP]=IRC;  
   1081                                      prov_uk_in(); 
   1082                                      LCP_act_buf[uk_in_act_LCP]=SCR;  
   1083                                      prov_uk_in();                                       
   1084                                      LCP_state=SEND_REQ;
   1085                                    
   1086                                      return;
   1087                          case REC_ACK:     
   1088                                  //    vol_cnt_rst_lcp=VOL_LCP_MC;                                               
   1089                                      LCP_act_buf[uk_in_act_LCP]=IRC;  
   1090                                      prov_uk_in();
   1091                                      LCP_act_buf[uk_in_act_LCP]=SCR;  
   1092                                      prov_uk_in();                 
   1093                                      LCP_state=SEND_REQ;
   1094                                    
   1095                                      return;
   1096                          case SEND_ACK:                                                                
   1097                                  //    vol_cnt_rst_lcp=VOL_LCP_MC;  
   1098                                      LCP_act_buf[uk_in_act_LCP]=IRC;  
   1099                                      prov_uk_in();                                        
   1100                                      LCP_act_buf[uk_in_act_LCP]=SCR;  
   1101                                      prov_uk_in();
   1102                                      LCP_state=SEND_ACK;
   1103                                  
   1104                                      return;
   1105                          case OPEN_ST:      
   1106                                      LCP_act_buf[uk_in_act_LCP]=TLD;  
   \   000001AE   E021               LDI     R18, 1
   \   000001B0   01F8               MOVW    R31:R30, R17:R16
   \   000001B2   8322               STD     Z+2, R18
   1107                                      prov_uk_in(); 
   \   000001B4   ....               RCALL   prov_uk_in
   \   000001B6   CF34               RJMP    ??monitor_event_LCP_2
   1108                                 //     vol_cnt_rst_lcp=VOL_LCP_MC;  
   1109                                      LCP_act_buf[uk_in_act_LCP]=IRC;  
   1110                                      prov_uk_in();
   1111                                      LCP_act_buf[uk_in_act_LCP]=SCR;  
   1112                                      prov_uk_in();                                                                               
   1113                                      LCP_state=SEND_REQ;
   1114                                
   1115                                      return;                                                                    
   1116                         }  
   1117                                                
   1118                  }
   1119              
   1120              }
   1121            
   1122            
   1123            ////////////////ěîíčňîđű IPCP        
   1124            

   \                                 In segment CODE, align 2, keep-with-next
   1125            void run_ipcp_act(void)
   \                     run_ipcp_act:
   1126                {  
   \   00000000   ........           CALL    ?PROLOGUE4_L09
   \   00000004   9722               SBIW    R29:R28, 2
   1127                 unsigned char i;
   1128                 
   1129                 union
   1130               {
   1131                unsigned char bytes[2]; 
   1132                unsigned int word;
   1133               }temp;
   1134                
   1135                 
   1136                 switch (IPCP_act_buf[uk_out_act_IPCP])
   \   00000006   ....               LDI     R16, LOW(cnt_pap_tm_out)
   \   00000008   ....               LDI     R17, (cnt_pap_tm_out) >> 8
   \   0000000A   01F8               MOVW    R31:R30, R17:R16
   \   0000000C   8D47               LDD     R20, Z+31
   \   0000000E   ....               LDI     R18, LOW(cnt_ipcp_tm_out)
   \   00000010   ....               LDI     R19, (cnt_ipcp_tm_out) >> 8
   \   00000012   ....               LDI     R26, LOW(buf_tx_232)
   \   00000014   ....               LDI     R27, (buf_tx_232) >> 8
   \   00000016   8D61               LDD     R22, Z+25
   \   00000018   E070               LDI     R23, 0
   \   0000001A   0FE6               ADD     R30, R22
   \   0000001C   1FF7               ADC     R31, R23
   \   0000001E   8554               LDD     R21, Z+12
   \   00000020   5050               SUBI    R21, 0
   \   00000022   F061               BREQ    ??run_ipcp_act_0
   \   00000024   5054               SUBI    R21, 4
   \   00000026   F1D1               BREQ    ??run_ipcp_act_1
   \   00000028   5052               SUBI    R21, 2
   \   0000002A   F409               BRNE    $+2+2
   \   0000002C   C045               RJMP    ??run_ipcp_act_2
   \   0000002E   955A               DEC     R21
   \   00000030   F409               BRNE    $+2+2
   \   00000032   C0AE               RJMP    ??run_ipcp_act_3
   \   00000034   955A               DEC     R21
   \   00000036   F409               BRNE    $+2+2
   \   00000038   C11E               RJMP    ??run_ipcp_act_4
   \   0000003A   C1C8               RJMP    ??run_ipcp_act_5
   1137                    {
   1138                     case TLU:     
   1139          
   1140                          event_modem=EVM_PPP_OK;
   \                     ??run_ipcp_act_0:
   \   0000003C   E024               LDI     R18, 4
   \   0000003E   9320....           STS     event_modem, R18
   1141           
   1142                          layer_PPP=LAYER_IP;   
   \   00000042   9320....           STS     layer_PPP, R18
   1143                          fl_ip.act_ip_end=1;   
   \   00000046   01F8               MOVW    R31:R30, R17:R16
   \   00000048   8124               LDD     R18, Z+4
   \   0000004A   6021               ORI     R18, 0x01
   \   0000004C   8324               STD     Z+4, R18
   1144                          fl_ipcp.act_ipcp_end=1; 
   \   0000004E   8123               LDD     R18, Z+3
   \   00000050   6021               ORI     R18, 0x01
   \   00000052   8323               STD     Z+3, R18
   1145                       
   1146                            Control.link_waits=FALSE; 
   \   00000054   ....               LDI     R26, LOW(Control)
   \   00000056   ....               LDI     R27, (Control) >> 8
   \   00000058   01FD               MOVW    R31:R30, R27:R26
   \   0000005A   8371               STD     Z+1, R23
   1147                            Control.link=FALSE;  
   \   0000005C   8372               STD     Z+2, R23
   1148                            Control.nat=FALSE;
   \   0000005E   8373               STD     Z+3, R23
   1149                          
   1150                         if(Control.vol_link!=0)fl_ip.ip_tm_cntr_en=1;
   \   00000060   8520               LDD     R18, Z+8
   \   00000062   8531               LDD     R19, Z+9
   \   00000064   2B23               OR      R18, R19
   \   00000066   F021               BREQ    ??run_ipcp_act_6
   \   00000068   01F8               MOVW    R31:R30, R17:R16
   \   0000006A   8124               LDD     R18, Z+4
   \   0000006C   6022               ORI     R18, 0x02
   \   0000006E   8324               STD     Z+4, R18
   1151                         if(Control.vol_nat!=0)fl_ip.ip_tm_nat_en=1;
   \                     ??run_ipcp_act_6:
   \   00000070   01FD               MOVW    R31:R30, R27:R26
   \   00000072   8522               LDD     R18, Z+10
   \   00000074   8533               LDD     R19, Z+11
   \   00000076   2B23               OR      R18, R19
   \   00000078   F021               BREQ    ??run_ipcp_act_7
   \   0000007A   01F8               MOVW    R31:R30, R17:R16
   \   0000007C   8104               LDD     R16, Z+4
   \   0000007E   6004               ORI     R16, 0x04
   \   00000080   8304               STD     Z+4, R16
   1152                         Control.cnt_try=0;
   \                     ??run_ipcp_act_7:
   \   00000082   01FD               MOVW    R31:R30, R27:R26
   \   00000084   8776               STD     Z+14, R23
   1153                         Control.cnt_link=BEG_CNTR_LINK;
   \   00000086   E00A               LDI     R16, 10
   \   00000088   8304               STD     Z+4, R16
   \   0000008A   8375               STD     Z+5, R23
   1154                         clr_cntr_nat();
   \   0000008C   ........           CALL    clr_cntr_nat
   1155                         
   1156                         Control.cnt_nat=BEG_CNTR_LINK-1; // ďóńňîé ďŕęĺň!!!!
   \   00000090   E009               LDI     R16, 9
   \   00000092   E010               LDI     R17, 0
   \   00000094   01FD               MOVW    R31:R30, R27:R26
   \   00000096   8306               STD     Z+6, R16
   \   00000098   8317               STD     Z+7, R17
   \   0000009A   C198               RJMP    ??run_ipcp_act_5
   1157                         
   1158                        break;
   1159                     
   1160                    
   1161                   
   1162                     case IRC:                   
   1163                          fl_ipcp.act_ipcp_end=0;
   1164                          cnt_ipcp_tm_out=VOL_IPCP_TM_OUT; 
   \                     ??run_ipcp_act_1:
   \   0000009C   EB48               LDI     R20, 184
   \   0000009E   E05B               LDI     R21, 11
   \   000000A0   01F9               MOVW    R31:R30, R19:R18
   \   000000A2   8340               ST      Z, R20
   \   000000A4   8351               STD     Z+1, R21
   1165                          cnt_rst_ipcp=vol_cnt_rst_ipcp;
   \   000000A6   01F8               MOVW    R31:R30, R17:R16
   \   000000A8   8D42               LDD     R20, Z+26
   \   000000AA   01F9               MOVW    R31:R30, R19:R18
   \   000000AC   8343               STD     Z+3, R20
   1166                          fl_ipcp.ipcp_tm_out_en=1; 
   1167                          fl_ipcp.act_ipcp_end=1; 
   \   000000AE   01F8               MOVW    R31:R30, R17:R16
   \   000000B0   8103               LDD     R16, Z+3
   \   000000B2   6003               ORI     R16, 0x03
   \   000000B4   8303               STD     Z+3, R16
   \   000000B6   C18A               RJMP    ??run_ipcp_act_5
   1168                               
   1169                          break;
   1170                     
   1171                     case SCR:    
   1172          
   1173                           fl_ipcp.act_ipcp_end=0;
   \                     ??run_ipcp_act_2:
   \   000000B8   01F8               MOVW    R31:R30, R17:R16
   \   000000BA   8123               LDD     R18, Z+3
   \   000000BC   7F2E               ANDI    R18, 0xFE
   \   000000BE   8323               STD     Z+3, R18
   1174                           buf_tx_232[0]=0x7e;               
   \   000000C0   E72E               LDI     R18, 126
   \   000000C2   932C               ST      X, R18
   1175                           buf_tx_232[1]=0x80;
   \   000000C4   E820               LDI     R18, 128
   \   000000C6   01FD               MOVW    R31:R30, R27:R26
   \   000000C8   8321               STD     Z+1, R18
   1176                           buf_tx_232[2]=0x21;
   \   000000CA   E221               LDI     R18, 33
   \   000000CC   8322               STD     Z+2, R18
   1177                           
   1178                           buf_tx_232[3]=CONF_REQ; 
   \   000000CE   E021               LDI     R18, 1
   \   000000D0   8323               STD     Z+3, R18
   1179                           buf_tx_232[4]=i_scr_ipcp;   
   \   000000D2   01F8               MOVW    R31:R30, R17:R16
   \   000000D4   8D06               LDD     R16, Z+30
   \   000000D6   01FD               MOVW    R31:R30, R27:R26
   \   000000D8   8304               STD     Z+4, R16
   1180           
   1181                           
   1182                           buf_tx_232[5]=0;
   \   000000DA   8375               STD     Z+5, R23
   1183                           buf_tx_232[6]=10;//áĺç DNS
   \   000000DC   E00A               LDI     R16, 10
   \   000000DE   8306               STD     Z+6, R16
   1184                            
   1185                         //  buf_tx_232[6]=22;//c DNS 
   1186                                        
   1187                           buf_tx_232[7]=3;      //çŕďđîń IP ęîíňđîëëĺđŕ
   \   000000E0   E003               LDI     R16, 3
   \   000000E2   8307               STD     Z+7, R16
   1188                           buf_tx_232[8]=6;
   \   000000E4   E006               LDI     R16, 6
   \   000000E6   8700               STD     Z+8, R16
   1189                           buf_tx_232[9]=ip_self[0]; 
   \   000000E8   ....               LDI     R16, LOW(ip_self)
   \   000000EA   ....               LDI     R17, (ip_self) >> 8
   \   000000EC   01F8               MOVW    R31:R30, R17:R16
   \   000000EE   8120               LD      R18, Z
   \   000000F0   01FD               MOVW    R31:R30, R27:R26
   \   000000F2   8721               STD     Z+9, R18
   1190                           buf_tx_232[10]=ip_self[1]; 
   \   000000F4   01F8               MOVW    R31:R30, R17:R16
   \   000000F6   8121               LDD     R18, Z+1
   \   000000F8   01FD               MOVW    R31:R30, R27:R26
   \   000000FA   8722               STD     Z+10, R18
   1191                           buf_tx_232[11]=ip_self[2];
   \   000000FC   01F8               MOVW    R31:R30, R17:R16
   \   000000FE   8122               LDD     R18, Z+2
   \   00000100   01FD               MOVW    R31:R30, R27:R26
   \   00000102   8723               STD     Z+11, R18
   1192                           buf_tx_232[12]=ip_self[3];
   \   00000104   01F8               MOVW    R31:R30, R17:R16
   \   00000106   8103               LDD     R16, Z+3
   \   00000108   01FD               MOVW    R31:R30, R27:R26
   \   0000010A   8704               STD     Z+12, R16
   1193                           
   1194                           
   1195                         //  buf_tx_232[13]=0x81;      //çŕďđîń IP_PRI_DNS
   1196                         //  buf_tx_232[14]=6;
   1197                         //  buf_tx_232[15]=ip_pri_dns[0]; 
   1198                         //  buf_tx_232[16]=ip_pri_dns[1]; 
   1199                          // buf_tx_232[17]=ip_pri_dns[2];
   1200                          // buf_tx_232[18]=ip_pri_dns[3];
   1201                           
   1202                          // buf_tx_232[19]=0x83;      //çŕďđîń IP_SEC_DNS
   1203                          // buf_tx_232[20]=6;
   1204                          // buf_tx_232[21]=ip_sec_dns[0]; 
   1205                          // buf_tx_232[22]=ip_sec_dns[1]; 
   1206                          // buf_tx_232[23]=ip_sec_dns[2];
   1207                          // buf_tx_232[24]=ip_sec_dns[3];
   1208                                            
   1209                           
   1210                           temp.word=pppfcs16(PPPINITFCS16,&buf_tx_232[1],buf_tx_232[6]+2) ^ 0xffff;                  
   \   0000010C   E04C               LDI     R20, 12
   \   0000010E   E050               LDI     R21, 0
   \   00000110   019D               MOVW    R19:R18, R27:R26
   \   00000112   5F2F               SUBI    R18, 255
   \   00000114   4F3F               SBCI    R19, 255
   \   00000116   EF0F               LDI     R16, 255
   \   00000118   EF1F               LDI     R17, 255
   \   0000011A   ....               RCALL   pppfcs16
   \   0000011C   EF2F               LDI     R18, 255
   \   0000011E   EF3F               LDI     R19, 255
   \   00000120   2720               EOR     R18, R16
   \   00000122   2731               EOR     R19, R17
   \   00000124   8328               ST      Y, R18
   \   00000126   8339               STD     Y+1, R19
   1211                           buf_tx_232[13]=temp.bytes[0];//áĺç DNS
   \   00000128   8108               LD      R16, Y
   \   0000012A   01FD               MOVW    R31:R30, R27:R26
   \   0000012C   8705               STD     Z+13, R16
   1212                           buf_tx_232[14]=temp.bytes[1];//áĺç DNS
   \   0000012E   8109               LDD     R16, Y+1
   \   00000130   8706               STD     Z+14, R16
   1213                           
   1214                           buf_tx_232[15]=0x7e; //áĺç DNS
   \   00000132   E70E               LDI     R16, 126
   \   00000134   8707               STD     Z+15, R16
   1215                         //  buf_tx_232[25]=temp.bytes[0];//c DNS 
   1216                         //  buf_tx_232[26]=temp.bytes[1]; //c DNS              
   1217                         //  buf_tx_232[27]=0x7e; //c DNS 
   1218                          
   1219                           count_tx_ppp=0;
   \   00000136   E000               LDI     R16, 0
   \   00000138   E010               LDI     R17, 0
   \   0000013A   ....               LDI     R30, LOW(count_tx_ppp)
   \   0000013C   ....               LDI     R31, (count_tx_ppp) >> 8
   \   0000013E   8300               ST      Z, R16
   \   00000140   8301               STD     Z+1, R16
   1220                           vol_tx_ppp=buf_tx_232[6]+6;               
   \   00000142   E100               LDI     R16, 16
   \   00000144   ....               LDI     R30, LOW(vol_tx_ppp)
   \   00000146   ....               LDI     R31, (vol_tx_ppp) >> 8
   \   00000148   8300               ST      Z, R16
   \   0000014A   8311               STD     Z+1, R17
   1221                           UCSR0A=UCSR0A | TXC;                            
   \   0000014C   910000C0           LDS     R16, 192
   \   00000150   6400               ORI     R16, 0x40
   \   00000152   930000C0           STS     192, R16
   1222                           UCSR0B=UCSR0B | TXEN;
   \   00000156   910000C1           LDS     R16, 193
   \   0000015A   6008               ORI     R16, 0x08
   \   0000015C   930000C1           STS     193, R16
   1223                           UCSR0B=UCSR0B | TXCIE;
   \   00000160   910000C1           LDS     R16, 193
   \   00000164   6400               ORI     R16, 0x40
   \   00000166   930000C1           STS     193, R16
   1224                           if(check_cts()==1) return;   
   \   0000016A   ........           CALL    check_cts
   \   0000016E   3001               CPI     R16, 1
   \   00000170   F409               BRNE    $+2+2
   \   00000172   C12C               RJMP    ??run_ipcp_act_5
   1225                           S2_RD;
   \   00000174   9A40               SBI     0x08, 0x00
   \   00000176   9841               CBI     0x08, 0x01
   1226                           UDR0=buf_tx_232[0]; 
   \   00000178   910C               LD      R16, X
   \   0000017A   930000C6           STS     198, R16
   1227                           if(Regim==RG_DEBAG) UDR3=buf_tx_232[0];
   \   0000017E   9100....           LDS     R16, Regim
   \   00000182   3001               CPI     R16, 1
   \   00000184   F009               BREQ    $+2+2
   \   00000186   C122               RJMP    ??run_ipcp_act_5
   \                     ??run_ipcp_act_8:
   \   00000188   910C               LD      R16, X
   \   0000018A   93000136           STS     310, R16
   \   0000018E   C11E               RJMP    ??run_ipcp_act_5
   1228                         
   1229                           
   1230                         
   1231                          break; 
   1232                           
   1233                     case SCA: 
   1234                           fl_ipcp.act_ipcp_end=0;
   \                     ??run_ipcp_act_3:
   \   00000190   01F8               MOVW    R31:R30, R17:R16
   \   00000192   8123               LDD     R18, Z+3
   \   00000194   7F2E               ANDI    R18, 0xFE
   \   00000196   8323               STD     Z+3, R18
   1235                           buf_tx_232[0]=0x7e; 
   \   00000198   E72E               LDI     R18, 126
   \   0000019A   932C               ST      X, R18
   1236                           buf_tx_232[1]=0x80;
   \   0000019C   E820               LDI     R18, 128
   \   0000019E   01FD               MOVW    R31:R30, R27:R26
   \   000001A0   8321               STD     Z+1, R18
   1237                           buf_tx_232[2]=0x21;
   \   000001A2   E221               LDI     R18, 33
   \   000001A4   8322               STD     Z+2, R18
   1238                                           
   1239                           buf_tx_232[3]=CONF_ACK;
   \   000001A6   E022               LDI     R18, 2
   \   000001A8   8323               STD     Z+3, R18
   1240                           buf_tx_232[4]=i_scan_ipcp;
   \   000001AA   8344               STD     Z+4, R20
   1241                           
   1242                           temp.word=ln_ack_ipcp+4;
   \   000001AC   01F8               MOVW    R31:R30, R17:R16
   \   000001AE   96FD               ADIW    R31:R30, 61
   \   000001B0   8120               LD      R18, Z
   \   000001B2   2F82               MOV     R24, R18
   \   000001B4   E090               LDI     R25, 0
   \   000001B6   01AC               MOVW    R21:R20, R25:R24
   \   000001B8   5F4C               SUBI    R20, 252
   \   000001BA   4F5F               SBCI    R21, 255
   \   000001BC   8348               ST      Y, R20
   \   000001BE   8359               STD     Y+1, R21
   1243                           buf_tx_232[5]=temp.bytes[1]; 
   \   000001C0   8139               LDD     R19, Y+1
   \   000001C2   01FD               MOVW    R31:R30, R27:R26
   \   000001C4   8335               STD     Z+5, R19
   1244                           buf_tx_232[6]=temp.bytes[0];
   \   000001C6   8138               LD      R19, Y
   \   000001C8   8336               STD     Z+6, R19
   1245                          
   1246                           temp.word=temp.word+2;         
   \   000001CA   8148               LD      R20, Y
   \   000001CC   8159               LDD     R21, Y+1
   \   000001CE   5F4E               SUBI    R20, 254
   \   000001D0   4F5F               SBCI    R21, 255
   \   000001D2   8348               ST      Y, R20
   \   000001D4   8359               STD     Y+1, R21
   1247                           vol_tx_ppp=temp.word+4;  
   \   000001D6   8148               LD      R20, Y
   \   000001D8   8159               LDD     R21, Y+1
   \   000001DA   5F4C               SUBI    R20, 252
   \   000001DC   4F5F               SBCI    R21, 255
   \   000001DE   ....               LDI     R30, LOW(vol_tx_ppp)
   \   000001E0   ....               LDI     R31, (vol_tx_ppp) >> 8
   \   000001E2   8340               ST      Z, R20
   \   000001E4   8351               STD     Z+1, R21
   1248                             
   1249                           for(i=0;i<ln_ack_ipcp;i++)buf_tx_232[7+i]=buf_ack_opt_ipcp[i];
   \   000001E6   E040               LDI     R20, 0
   \   000001E8   C00A               RJMP    ??run_ipcp_act_9
   \                     ??run_ipcp_act_10:
   \   000001EA   2F64               MOV     R22, R20
   \   000001EC   01F8               MOVW    R31:R30, R17:R16
   \   000001EE   0FE6               ADD     R30, R22
   \   000001F0   1FF7               ADC     R31, R23
   \   000001F2   A131               LDD     R19, Z+33
   \   000001F4   01FD               MOVW    R31:R30, R27:R26
   \   000001F6   0FE6               ADD     R30, R22
   \   000001F8   1FF7               ADC     R31, R23
   \   000001FA   8337               STD     Z+7, R19
   \   000001FC   9543               INC     R20
   \                     ??run_ipcp_act_9:
   \   000001FE   1742               CP      R20, R18
   \   00000200   F3A0               BRCS    ??run_ipcp_act_10
   1250                           
   1251                           temp.word=pppfcs16(PPPINITFCS16,&buf_tx_232[1],temp.word) ^ 0xffff;                  
   \                     ??run_ipcp_act_11:
   \   00000202   8148               LD      R20, Y
   \   00000204   8159               LDD     R21, Y+1
   \   00000206   019D               MOVW    R19:R18, R27:R26
   \   00000208   5F2F               SUBI    R18, 255
   \   0000020A   4F3F               SBCI    R19, 255
   \   0000020C   EF0F               LDI     R16, 255
   \   0000020E   EF1F               LDI     R17, 255
   \   00000210   ....               RCALL   pppfcs16
   \   00000212   EF2F               LDI     R18, 255
   \   00000214   EF3F               LDI     R19, 255
   \   00000216   2720               EOR     R18, R16
   \   00000218   2731               EOR     R19, R17
   \   0000021A   8328               ST      Y, R18
   \   0000021C   8339               STD     Y+1, R19
   1252                           buf_tx_232[7+ln_ack_ipcp]=temp.bytes[0];
   \   0000021E   01FD               MOVW    R31:R30, R27:R26
   \   00000220   0FE8               ADD     R30, R24
   \   00000222   1FF9               ADC     R31, R25
   \   00000224   8128               LD      R18, Y
   \   00000226   8327               STD     Z+7, R18
   1253                           buf_tx_232[8+ln_ack_ipcp]=temp.bytes[1];
   \   00000228   8129               LDD     R18, Y+1
   \   0000022A   8720               STD     Z+8, R18
   1254                           buf_tx_232[9+ln_ack_ipcp]=0x7e;
   \   0000022C   E70E               LDI     R16, 126
   \   0000022E   8701               STD     Z+9, R16
   1255                           
   1256                           count_tx_ppp=0;                             
   \   00000230   ....               LDI     R30, LOW(count_tx_ppp)
   \   00000232   ....               LDI     R31, (count_tx_ppp) >> 8
   \   00000234   8390               ST      Z, R25
   \   00000236   8391               STD     Z+1, R25
   1257                               UCSR0A=UCSR0A | TXC;                            
   \   00000238   910000C0           LDS     R16, 192
   \   0000023C   6400               ORI     R16, 0x40
   \   0000023E   930000C0           STS     192, R16
   1258                               UCSR0B=UCSR0B | TXEN;
   \   00000242   910000C1           LDS     R16, 193
   \   00000246   6008               ORI     R16, 0x08
   \   00000248   930000C1           STS     193, R16
   1259                               UCSR0B=UCSR0B | TXCIE;
   \   0000024C   910000C1           LDS     R16, 193
   \   00000250   6400               ORI     R16, 0x40
   \   00000252   930000C1           STS     193, R16
   1260                               if(check_cts()==1) return;
   \   00000256   ........           CALL    check_cts
   \   0000025A   3001               CPI     R16, 1
   \   0000025C   F409               BRNE    $+2+2
   \   0000025E   C0B6               RJMP    ??run_ipcp_act_5
   1261                           S2_RD;
   \   00000260   9A40               SBI     0x08, 0x00
   \   00000262   9841               CBI     0x08, 0x01
   1262                           UDR0=buf_tx_232[0]; 
   \   00000264   910C               LD      R16, X
   \   00000266   930000C6           STS     198, R16
   1263                           if(Regim==RG_DEBAG) UDR3=buf_tx_232[0];
   \   0000026A   9100....           LDS     R16, Regim
   \   0000026E   3001               CPI     R16, 1
   \   00000270   F009               BREQ    $+2+2
   \   00000272   C0AC               RJMP    ??run_ipcp_act_5
   \   00000274   CF89               RJMP    ??run_ipcp_act_8
   1264                         
   1265                          
   1266                            
   1267                          break;
   1268                     case SCN:  
   1269                          
   1270                          
   1271          
   1272                           fl_ipcp.act_ipcp_end=0;
   \                     ??run_ipcp_act_4:
   \   00000276   01F8               MOVW    R31:R30, R17:R16
   \   00000278   8153               LDD     R21, Z+3
   \   0000027A   7F5E               ANDI    R21, 0xFE
   \   0000027C   8353               STD     Z+3, R21
   1273                           buf_tx_232[0]=0x7e; 
   \   0000027E   E75E               LDI     R21, 126
   \   00000280   935C               ST      X, R21
   1274                           buf_tx_232[1]=0x80;
   \   00000282   E850               LDI     R21, 128
   \   00000284   01FD               MOVW    R31:R30, R27:R26
   \   00000286   8351               STD     Z+1, R21
   1275                           buf_tx_232[2]=0x21;
   \   00000288   E251               LDI     R21, 33
   \   0000028A   8352               STD     Z+2, R21
   1276          
   1277                           
   1278                           if (fl_ipcp2.nac_rej==0) 
   \   0000028C   01F9               MOVW    R31:R30, R19:R18
   \   0000028E   8152               LDD     R21, Z+2
   \   00000290   FD50               SBRC    R21, 0
   \   00000292   C031               RJMP    ??run_ipcp_act_12
   1279                               {
   1280                               buf_tx_232[3]=CONF_NAK;                       
   \   00000294   E053               LDI     R21, 3
   \   00000296   01FD               MOVW    R31:R30, R27:R26
   \   00000298   8353               STD     Z+3, R21
   1281                               
   1282                               buf_tx_232[4]=i_scan_ipcp;
   \   0000029A   8344               STD     Z+4, R20
   1283                           
   1284                               temp.word=ln_nak_ipcp+4;
   \   0000029C   5C02               SUBI    R16, 194
   \   0000029E   4F1F               SBCI    R17, 255
   \   000002A0   01F8               MOVW    R31:R30, R17:R16
   \   000002A2   8100               LD      R16, Z
   \   000002A4   2F80               MOV     R24, R16
   \   000002A6   E090               LDI     R25, 0
   \   000002A8   01AC               MOVW    R21:R20, R25:R24
   \   000002AA   5F4C               SUBI    R20, 252
   \   000002AC   4F5F               SBCI    R21, 255
   \   000002AE   8348               ST      Y, R20
   \   000002B0   8359               STD     Y+1, R21
   1285                               buf_tx_232[5]=temp.bytes[1]; 
   \   000002B2   8119               LDD     R17, Y+1
   \   000002B4   01FD               MOVW    R31:R30, R27:R26
   \   000002B6   8315               STD     Z+5, R17
   1286                               buf_tx_232[6]=temp.bytes[0];
   \   000002B8   8118               LD      R17, Y
   \   000002BA   8316               STD     Z+6, R17
   1287                              
   1288                              temp.word=temp.word+2;         
   \   000002BC   8148               LD      R20, Y
   \   000002BE   8159               LDD     R21, Y+1
   \   000002C0   5F4E               SUBI    R20, 254
   \   000002C2   4F5F               SBCI    R21, 255
   \   000002C4   8348               ST      Y, R20
   \   000002C6   8359               STD     Y+1, R21
   1289                              vol_tx_ppp=temp.word+4;
   \   000002C8   8148               LD      R20, Y
   \   000002CA   8159               LDD     R21, Y+1
   \   000002CC   5F4C               SUBI    R20, 252
   \   000002CE   4F5F               SBCI    R21, 255
   \   000002D0   ....               LDI     R30, LOW(vol_tx_ppp)
   \   000002D2   ....               LDI     R31, (vol_tx_ppp) >> 8
   \   000002D4   8340               ST      Z, R20
   \   000002D6   8351               STD     Z+1, R21
   1290                               
   1291          
   1292                                
   1293                               for(i=0;i<ln_nak_ipcp;i++)buf_tx_232[7+i]=buf_nak_opt_ipcp[i];
   \   000002D8   E040               LDI     R20, 0
   \   000002DA   C00A               RJMP    ??run_ipcp_act_13
   \                     ??run_ipcp_act_14:
   \   000002DC   2F64               MOV     R22, R20
   \   000002DE   01F9               MOVW    R31:R30, R19:R18
   \   000002E0   0FE6               ADD     R30, R22
   \   000002E2   1FF7               ADC     R31, R23
   \   000002E4   8114               LDD     R17, Z+4
   \   000002E6   01FD               MOVW    R31:R30, R27:R26
   \   000002E8   0FE6               ADD     R30, R22
   \   000002EA   1FF7               ADC     R31, R23
   \   000002EC   8317               STD     Z+7, R17
   \   000002EE   9543               INC     R20
   \                     ??run_ipcp_act_13:
   \   000002F0   1740               CP      R20, R16
   \   000002F2   F3A0               BRCS    ??run_ipcp_act_14
   1294                               temp.word=pppfcs16(PPPINITFCS16,&buf_tx_232[1],temp.word) ^ 0xffff;                  
   \   000002F4   CF86               RJMP    ??run_ipcp_act_11
   1295                               buf_tx_232[7+ln_nak_ipcp]=temp.bytes[0];
   1296                               buf_tx_232[8+ln_nak_ipcp]=temp.bytes[1];
   1297                               buf_tx_232[9+ln_nak_ipcp]=0x7e;
   1298                               
   1299                               count_tx_ppp=0;                             
   1300                               UCSR0A=UCSR0A | TXC;                            
   1301                               UCSR0B=UCSR0B | TXEN;
   1302                               UCSR0B=UCSR0B | TXCIE;
   1303                               if(check_cts()==1) return;
   1304                               S2_RD;
   1305                               UDR0=buf_tx_232[0];
   1306                               if(Regim==RG_DEBAG) UDR3=buf_tx_232[0];
   1307                               
   1308                               }  
   1309                               else
   1310                               { 
   1311                               fl_ipcp2.nac_rej=0;
   \                     ??run_ipcp_act_12:
   \   000002F6   8152               LDD     R21, Z+2
   \   000002F8   7F5E               ANDI    R21, 0xFE
   \   000002FA   8352               STD     Z+2, R21
   1312                               buf_tx_232[3]=CONF_REJ;  
   \   000002FC   E054               LDI     R21, 4
   \   000002FE   01FD               MOVW    R31:R30, R27:R26
   \   00000300   8353               STD     Z+3, R21
   1313                               buf_tx_232[4]=i_scan_ipcp;
   \   00000302   8344               STD     Z+4, R20
   1314                           
   1315                               temp.word=ln_rej_ipcp+4;
   \   00000304   5C04               SUBI    R16, 196
   \   00000306   4F1F               SBCI    R17, 255
   \   00000308   01F8               MOVW    R31:R30, R17:R16
   \   0000030A   8100               LD      R16, Z
   \   0000030C   2F80               MOV     R24, R16
   \   0000030E   E090               LDI     R25, 0
   \   00000310   01AC               MOVW    R21:R20, R25:R24
   \   00000312   5F4C               SUBI    R20, 252
   \   00000314   4F5F               SBCI    R21, 255
   \   00000316   8348               ST      Y, R20
   \   00000318   8359               STD     Y+1, R21
   1316                               buf_tx_232[5]=temp.bytes[1]; 
   \   0000031A   8119               LDD     R17, Y+1
   \   0000031C   01FD               MOVW    R31:R30, R27:R26
   \   0000031E   8315               STD     Z+5, R17
   1317                               buf_tx_232[6]=temp.bytes[0];
   \   00000320   8118               LD      R17, Y
   \   00000322   8316               STD     Z+6, R17
   1318                                           
   1319                              temp.word=temp.word+2;         
   \   00000324   8148               LD      R20, Y
   \   00000326   8159               LDD     R21, Y+1
   \   00000328   5F4E               SUBI    R20, 254
   \   0000032A   4F5F               SBCI    R21, 255
   \   0000032C   8348               ST      Y, R20
   \   0000032E   8359               STD     Y+1, R21
   1320                              vol_tx_ppp=temp.word+4; 
   \   00000330   8148               LD      R20, Y
   \   00000332   8159               LDD     R21, Y+1
   \   00000334   5F4C               SUBI    R20, 252
   \   00000336   4F5F               SBCI    R21, 255
   \   00000338   ....               LDI     R30, LOW(vol_tx_ppp)
   \   0000033A   ....               LDI     R31, (vol_tx_ppp) >> 8
   \   0000033C   8340               ST      Z, R20
   \   0000033E   8351               STD     Z+1, R21
   1321                               
   1322                               for(i=0;i<ln_rej_ipcp;i++)buf_tx_232[7+i]=buf_rej_opt_ipcp[i];
   \   00000340   E040               LDI     R20, 0
   \   00000342   C00A               RJMP    ??run_ipcp_act_15
   \                     ??run_ipcp_act_16:
   \   00000344   2F64               MOV     R22, R20
   \   00000346   01F9               MOVW    R31:R30, R19:R18
   \   00000348   0FE6               ADD     R30, R22
   \   0000034A   1FF7               ADC     R31, R23
   \   0000034C   8D15               LDD     R17, Z+29
   \   0000034E   01FD               MOVW    R31:R30, R27:R26
   \   00000350   0FE6               ADD     R30, R22
   \   00000352   1FF7               ADC     R31, R23
   \   00000354   8317               STD     Z+7, R17
   \   00000356   9543               INC     R20
   \                     ??run_ipcp_act_15:
   \   00000358   1740               CP      R20, R16
   \   0000035A   F3A0               BRCS    ??run_ipcp_act_16
   1323                               temp.word=pppfcs16(PPPINITFCS16,&buf_tx_232[1],temp.word) ^ 0xffff;                  
   \   0000035C   8148               LD      R20, Y
   \   0000035E   8159               LDD     R21, Y+1
   \   00000360   019D               MOVW    R19:R18, R27:R26
   \   00000362   5F2F               SUBI    R18, 255
   \   00000364   4F3F               SBCI    R19, 255
   \   00000366   EF0F               LDI     R16, 255
   \   00000368   EF1F               LDI     R17, 255
   \   0000036A   ....               RCALL   pppfcs16
   \   0000036C   EF2F               LDI     R18, 255
   \   0000036E   EF3F               LDI     R19, 255
   \   00000370   2720               EOR     R18, R16
   \   00000372   2731               EOR     R19, R17
   \   00000374   8328               ST      Y, R18
   \   00000376   8339               STD     Y+1, R19
   1324                               buf_tx_232[7+ln_rej_ipcp]=temp.bytes[0];
   \   00000378   01FD               MOVW    R31:R30, R27:R26
   \   0000037A   0FE8               ADD     R30, R24
   \   0000037C   1FF9               ADC     R31, R25
   \   0000037E   8128               LD      R18, Y
   \   00000380   8327               STD     Z+7, R18
   1325                               buf_tx_232[8+ln_rej_ipcp]=temp.bytes[1];                     
   \   00000382   8129               LDD     R18, Y+1
   \   00000384   8720               STD     Z+8, R18
   1326                               buf_tx_232[9+ln_rej_ipcp]=0x7e;                     
   \   00000386   E70E               LDI     R16, 126
   \   00000388   8701               STD     Z+9, R16
   1327                              
   1328                               count_tx_ppp=0;                             
   \   0000038A   ....               LDI     R30, LOW(count_tx_ppp)
   \   0000038C   ....               LDI     R31, (count_tx_ppp) >> 8
   \   0000038E   8390               ST      Z, R25
   \   00000390   8391               STD     Z+1, R25
   1329                               UCSR0A=UCSR0A | TXC;                            
   \   00000392   910000C0           LDS     R16, 192
   \   00000396   6400               ORI     R16, 0x40
   \   00000398   930000C0           STS     192, R16
   1330                               UCSR0B=UCSR0B | TXEN;
   \   0000039C   910000C1           LDS     R16, 193
   \   000003A0   6008               ORI     R16, 0x08
   \   000003A2   930000C1           STS     193, R16
   1331                               UCSR0B=UCSR0B | TXCIE;
   \   000003A6   910000C1           LDS     R16, 193
   \   000003AA   6400               ORI     R16, 0x40
   \   000003AC   930000C1           STS     193, R16
   1332                               if(check_cts()==1) return;                 
   \   000003B0   ........           CALL    check_cts
   \   000003B4   3001               CPI     R16, 1
   \   000003B6   F051               BREQ    ??run_ipcp_act_5
   1333                               S2_RD;
   \   000003B8   9A40               SBI     0x08, 0x00
   \   000003BA   9841               CBI     0x08, 0x01
   1334                               UDR0=buf_tx_232[0]; 
   \   000003BC   910C               LD      R16, X
   \   000003BE   930000C6           STS     198, R16
   1335                               if(Regim==RG_DEBAG) UDR3=buf_tx_232[0];
   \   000003C2   9100....           LDS     R16, Regim
   \   000003C6   3001               CPI     R16, 1
   \   000003C8   F409               BRNE    $+2+2
   \   000003CA   CEDE               RJMP    ??run_ipcp_act_8
   \                     ??run_ipcp_act_5:
   \   000003CC   9622               ADIW    R29:R28, 2
   \   000003CE   E0E4               LDI     R30, 4
   \   000003D0   ........           JMP     ?EPILOGUE_B4_L09
   1336                               }   
   1337                               
   1338          
   1339                               
   1340                          break; 
   1341                    
   1342                               
   1343                    
   1344                    }                  
   1345                }
   1346            
   1347            
   1348          
   1349            
   1350             

   \                                 In segment CODE, align 2, keep-with-next
   1351            void monitor_act_IPCP(void)
   \                     monitor_act_IPCP:
   1352                {  
   \   00000000   93BA               ST      -Y, R27
   \   00000002   93AA               ST      -Y, R26
   1353                 
   1354                 if((uk_in_act_IPCP!=uk_out_act_IPCP)&&(fl_lcp.act_lcp_end==1)&&(fl_pap.act_pap_end==1)&&(fl_ipcp.act_ipcp_end==1)&&(fl_ip.act_ip_end==1))
   \   00000004   ....               LDI     R26, LOW(cnt_pap_tm_out)
   \   00000006   ....               LDI     R27, (cnt_pap_tm_out) >> 8
   \   00000008   9658               ADIW    R27:R26, 24
   \   0000000A   910C               LD      R16, X
   \   0000000C   9758               SBIW    R27:R26, 24
   \   0000000E   9659               ADIW    R27:R26, 25
   \   00000010   911C               LD      R17, X
   \   00000012   9759               SBIW    R27:R26, 25
   \   00000014   1701               CP      R16, R17
   \   00000016   F111               BREQ    ??monitor_act_IPCP_0
   \   00000018   9612               ADIW    R27:R26, 2
   \   0000001A   910C               LD      R16, X
   \   0000001C   9712               SBIW    R27:R26, 2
   \   0000001E   7001               ANDI    R16, 0x01
   \   00000020   9615               ADIW    R27:R26, 5
   \   00000022   911C               LD      R17, X
   \   00000024   9715               SBIW    R27:R26, 5
   \   00000026   7011               ANDI    R17, 0x01
   \   00000028   2310               AND     R17, R16
   \   0000002A   9613               ADIW    R27:R26, 3
   \   0000002C   910C               LD      R16, X
   \   0000002E   9713               SBIW    R27:R26, 3
   \   00000030   7001               ANDI    R16, 0x01
   \   00000032   2301               AND     R16, R17
   \   00000034   9614               ADIW    R27:R26, 4
   \   00000036   911C               LD      R17, X
   \   00000038   9714               SBIW    R27:R26, 4
   \   0000003A   7011               ANDI    R17, 0x01
   \   0000003C   2310               AND     R17, R16
   \   0000003E   F071               BREQ    ??monitor_act_IPCP_0
   1355                  {   
   1356                  run_ipcp_act();
   \   00000040   ....               RCALL   run_ipcp_act
   1357                  uk_out_act_IPCP++;  
   \   00000042   9659               ADIW    R27:R26, 25
   \   00000044   910C               LD      R16, X
   \   00000046   9503               INC     R16
   \   00000048   930C               ST      X, R16
   \   0000004A   9759               SBIW    R27:R26, 25
   1358                  if (uk_out_act_IPCP>=IPCP_ACT_VOL)uk_out_act_IPCP=0; 
   \   0000004C   9659               ADIW    R27:R26, 25
   \   0000004E   910C               LD      R16, X
   \   00000050   9759               SBIW    R27:R26, 25
   \   00000052   300A               CPI     R16, 10
   \   00000054   F018               BRCS    ??monitor_act_IPCP_0
   \   00000056   E000               LDI     R16, 0
   \   00000058   9659               ADIW    R27:R26, 25
   \   0000005A   930C               ST      X, R16
   1359                  }
   1360                }
   \                     ??monitor_act_IPCP_0:
   \   0000005C   91A9               LD      R26, Y+
   \   0000005E   91B9               LD      R27, Y+
   \   00000060   9508               RET
   1361           
   1362           
   1363            

   \                                 In segment CODE, align 2, keep-with-next
   1364          void monitor_event_IPCP(void)
   \                     monitor_event_IPCP:
   1365              {
   \   00000000   93BA               ST      -Y, R27
   \   00000002   93AA               ST      -Y, R26
   1366               if (fl_ipcp1.up==1)      //UP
   \   00000004   ....               LDI     R26, LOW(cnt_pap_tm_out)
   \   00000006   ....               LDI     R27, (cnt_pap_tm_out) >> 8
   \   00000008   01FD               MOVW    R31:R30, R27:R26
   \   0000000A   8D20               LDD     R18, Z+24
   \   0000000C   E030               LDI     R19, 0
   \   0000000E   018D               MOVW    R17:R16, R27:R26
   \   00000010   0F02               ADD     R16, R18
   \   00000012   1F13               ADC     R17, R19
   \   00000014   8522               LDD     R18, Z+10
   \   00000016   8136               LDD     R19, Z+6
   \   00000018   FF30               SBRS    R19, 0
   \   0000001A   C017               RJMP    ??monitor_event_IPCP_0
   1367                   {  
   1368                   
   1369                    
   1370                   fl_ipcp1.up=0; 
   \   0000001C   8136               LDD     R19, Z+6
   \   0000001E   7F3E               ANDI    R19, 0xFE
   \   00000020   8336               STD     Z+6, R19
   1371                     switch(IPCP_state)
   \   00000022   5021               SUBI    R18, 1
   \   00000024   F479               BRNE    ??monitor_event_IPCP_1
   1372                         {
   1373                          case START_ST:                                                                
   1374                                      //vol_cnt_rst_ipcp=VOL_IPCP_MC;  
   1375                                      IPCP_act_buf[uk_in_act_IPCP]=IRC;  
   \                     ??monitor_event_IPCP_2:
   \   00000026   E024               LDI     R18, 4
   \   00000028   01F8               MOVW    R31:R30, R17:R16
   \   0000002A   8724               STD     Z+12, R18
   1376                                      prov_uk_in_ipcp();                    
   \   0000002C   ....               RCALL   prov_uk_in_ipcp
   1377                                      IPCP_act_buf[uk_in_act_IPCP]=SCR;  
   \   0000002E   E006               LDI     R16, 6
   \   00000030   01FD               MOVW    R31:R30, R27:R26
   \   00000032   8D20               LDD     R18, Z+24
   \   00000034   E030               LDI     R19, 0
   \   00000036   0FE2               ADD     R30, R18
   \   00000038   1FF3               ADC     R31, R19
   \   0000003A   8704               STD     Z+12, R16
   1378                                      prov_uk_in_ipcp();                    
   \                     ??monitor_event_IPCP_3:
   \   0000003C   ....               RCALL   prov_uk_in_ipcp
   1379                                      IPCP_state=SEND_REQ; 
   \   0000003E   E006               LDI     R16, 6
   \                     ??monitor_event_IPCP_4:
   \   00000040   01FD               MOVW    R31:R30, R27:R26
   \   00000042   8702               STD     Z+10, R16
   1380                                     
   1381                          return;
   \                     ??monitor_event_IPCP_1:
   \   00000044   91A9               LD      R26, Y+
   \   00000046   91B9               LD      R27, Y+
   \   00000048   9508               RET
   1382                         }
   1383                      
   1384                   return;
   1385                   }
   1386               
   1387              
   1388               
   1389               if(fl_ipcp.t0_pl==1)        //TO_PL
   \                     ??monitor_event_IPCP_0:
   \   0000004A   8133               LDD     R19, Z+3
   \   0000004C   FF32               SBRS    R19, 2
   \   0000004E   C017               RJMP    ??monitor_event_IPCP_5
   1390                  {
   1391                   fl_ipcp.t0_pl=0; 
   \   00000050   8133               LDD     R19, Z+3
   \   00000052   7F3B               ANDI    R19, 0xFB
   \   00000054   8333               STD     Z+3, R19
   1392                   switch(IPCP_state)
   \   00000056   5026               SUBI    R18, 6
   \   00000058   F331               BREQ    ??monitor_event_IPCP_2
   \   0000005A   952A               DEC     R18
   \   0000005C   F321               BREQ    ??monitor_event_IPCP_2
   \   0000005E   952A               DEC     R18
   \   00000060   F789               BRNE    ??monitor_event_IPCP_1
   1393                         {                     
   1394                                         
   1395                          
   1396                          case SEND_REQ:
   1397                                     // vol_cnt_rst_ipcp=VOL_IPCP_MC;                                                    
   1398                                      IPCP_act_buf[uk_in_act_IPCP]=IRC;  
   1399                                      prov_uk_in_ipcp();                
   1400                                      IPCP_act_buf[uk_in_act_IPCP]=SCR;  
   1401                                      prov_uk_in_ipcp();                 
   1402                                      IPCP_state=SEND_REQ;
   1403                                      return;
   1404                          case REC_ACK:      
   1405                                      //vol_cnt_rst_ipcp=VOL_IPCP_MC;                                              
   1406                                      IPCP_act_buf[uk_in_act_IPCP]=IRC;  
   1407                                      prov_uk_in_ipcp();                
   1408                                      IPCP_act_buf[uk_in_act_IPCP]=SCR;  
   1409                                      prov_uk_in_ipcp();                 
   1410                                      IPCP_state=SEND_REQ;
   1411                                      return;
   1412                          case SEND_ACK: 
   1413                                    //  vol_cnt_rst_ipcp=VOL_IPCP_MC;                                                   
   1414                                      IPCP_act_buf[uk_in_act_IPCP]=IRC;  
   \                     ??monitor_event_IPCP_6:
   \   00000062   E024               LDI     R18, 4
   \   00000064   01F8               MOVW    R31:R30, R17:R16
   \   00000066   8724               STD     Z+12, R18
   1415                                      prov_uk_in_ipcp();                 
   \   00000068   ....               RCALL   prov_uk_in_ipcp
   1416                                      IPCP_act_buf[uk_in_act_IPCP]=SCR;  
   \   0000006A   E006               LDI     R16, 6
   \   0000006C   01FD               MOVW    R31:R30, R27:R26
   \   0000006E   8D20               LDD     R18, Z+24
   \   00000070   E030               LDI     R19, 0
   \   00000072   0FE2               ADD     R30, R18
   \   00000074   1FF3               ADC     R31, R19
   \   00000076   8704               STD     Z+12, R16
   1417                                      prov_uk_in_ipcp();                 
   \                     ??monitor_event_IPCP_7:
   \   00000078   ....               RCALL   prov_uk_in_ipcp
   1418                                      IPCP_state=SEND_ACK;
   \   0000007A   E008               LDI     R16, 8
   \   0000007C   CFE1               RJMP    ??monitor_event_IPCP_4
   1419                                      return;                                                              
   1420                         } 
   1421                      
   1422                   return;
   1423                  }  
   1424             
   1425               switch (IPCP_event)
   \                     ??monitor_event_IPCP_5:
   \   0000007E   8533               LDD     R19, Z+11
   \   00000080   5036               SUBI    R19, 6
   \   00000082   F049               BREQ    ??monitor_event_IPCP_8
   \   00000084   953A               DEC     R19
   \   00000086   F189               BREQ    ??monitor_event_IPCP_9
   \   00000088   953A               DEC     R19
   \   0000008A   F409               BRNE    $+2+2
   \   0000008C   C041               RJMP    ??monitor_event_IPCP_10
   \   0000008E   953A               DEC     R19
   \   00000090   F409               BRNE    $+2+2
   \   00000092   C04E               RJMP    ??monitor_event_IPCP_11
   \   00000094   CFD7               RJMP    ??monitor_event_IPCP_1
   1426                  {
   1427                  case RCR_PL:  
   1428                      IPCP_event=NO_EVENT; 
   \                     ??monitor_event_IPCP_8:
   \   00000096   EF3F               LDI     R19, 255
   \   00000098   8733               STD     Z+11, R19
   1429                      switch(IPCP_state)
   \   0000009A   5026               SUBI    R18, 6
   \   0000009C   F039               BREQ    ??monitor_event_IPCP_12
   \   0000009E   952A               DEC     R18
   \   000000A0   F049               BREQ    ??monitor_event_IPCP_13
   \   000000A2   952A               DEC     R18
   \   000000A4   F019               BREQ    ??monitor_event_IPCP_12
   \   000000A6   952A               DEC     R18
   \   000000A8   F091               BREQ    ??monitor_event_IPCP_14
   \   000000AA   CFCC               RJMP    ??monitor_event_IPCP_1
   1430                         {                     
   1431          
   1432                         
   1433                          case SEND_REQ:                                                                
   1434                                      IPCP_act_buf[uk_in_act_IPCP]=SCA;  
   \                     ??monitor_event_IPCP_12:
   \   000000AC   E027               LDI     R18, 7
   \   000000AE   01F8               MOVW    R31:R30, R17:R16
   \   000000B0   8724               STD     Z+12, R18
   1435                                      prov_uk_in_ipcp();                 
   \   000000B2   CFE2               RJMP    ??monitor_event_IPCP_7
   1436                                      IPCP_state=SEND_ACK;   
   1437                                   
   1438                                      return;
   1439                          case REC_ACK:
   1440                  
   1441                                      IPCP_act_buf[uk_in_act_IPCP]=SCA;  
   \                     ??monitor_event_IPCP_13:
   \   000000B4   E027               LDI     R18, 7
   \                     ??monitor_event_IPCP_15:
   \   000000B6   01F8               MOVW    R31:R30, R17:R16
   \   000000B8   8724               STD     Z+12, R18
   1442                                      prov_uk_in_ipcp();       
   \   000000BA   ....               RCALL   prov_uk_in_ipcp
   1443                                      IPCP_act_buf[uk_in_act_IPCP]=TLU;  
   \   000000BC   E000               LDI     R16, 0
   \   000000BE   01FD               MOVW    R31:R30, R27:R26
   \   000000C0   8D20               LDD     R18, Z+24
   \   000000C2   0FE2               ADD     R30, R18
   \   000000C4   1FF0               ADC     R31, R16
   \   000000C6   8704               STD     Z+12, R16
   1444                                      prov_uk_in_ipcp();          
   \   000000C8   ....               RCALL   prov_uk_in_ipcp
   1445                                      IPCP_state=OPEN_ST;  
   \   000000CA   E009               LDI     R16, 9
   \   000000CC   CFB9               RJMP    ??monitor_event_IPCP_4
   1446                                     
   1447                                      return;
   1448                          case SEND_ACK:                                                                
   1449                                      IPCP_act_buf[uk_in_act_IPCP]=SCA;  
   1450                                      prov_uk_in_ipcp();                 
   1451                                      IPCP_state=SEND_ACK; 
   1452                             
   1453                                      return;
   1454                          case OPEN_ST:      
   1455                                                                                        
   1456                                      IPCP_act_buf[uk_in_act_IPCP]=IRC;  
   \                     ??monitor_event_IPCP_14:
   \   000000CE   E024               LDI     R18, 4
   \   000000D0   01F8               MOVW    R31:R30, R17:R16
   \   000000D2   8724               STD     Z+12, R18
   1457                                      prov_uk_in_ipcp(); 
   \   000000D4   ....               RCALL   prov_uk_in_ipcp
   1458                                      IPCP_act_buf[uk_in_act_IPCP]=SCA;  
   \   000000D6   E007               LDI     R16, 7
   \   000000D8   01FD               MOVW    R31:R30, R27:R26
   \   000000DA   8D20               LDD     R18, Z+24
   \   000000DC   E030               LDI     R19, 0
   \   000000DE   0FA2               ADD     R26, R18
   \   000000E0   1FB3               ADC     R27, R19
   \   000000E2   01FD               MOVW    R31:R30, R27:R26
   \   000000E4   8704               STD     Z+12, R16
   1459                                      prov_uk_in_ipcp();                 
   \   000000E6   ....               RCALL   prov_uk_in_ipcp
   1460                             
   1461                                      return;                                                                    
   \   000000E8   CFAD               RJMP    ??monitor_event_IPCP_1
   1462                         }  
   1463                       return; 
   1464                  case RCR_MI: 
   1465                     
   1466                      
   1467                      
   1468                      IPCP_event=NO_EVENT;
   \                     ??monitor_event_IPCP_9:
   \   000000EA   EF3F               LDI     R19, 255
   \   000000EC   8733               STD     Z+11, R19
   1469                      switch(IPCP_state)
   \   000000EE   5026               SUBI    R18, 6
   \   000000F0   F029               BREQ    ??monitor_event_IPCP_16
   \   000000F2   952A               DEC     R18
   \   000000F4   F039               BREQ    ??monitor_event_IPCP_17
   \   000000F6   952A               DEC     R18
   \   000000F8   F009               BREQ    $+2+2
   \   000000FA   CFA4               RJMP    ??monitor_event_IPCP_1
   1470                         {                     
   1471          
   1472                         
   1473                          case SEND_REQ:                                                                
   1474                                      
   1475                                 
   1476                                      IPCP_act_buf[uk_in_act_IPCP]=SCN;  
   \                     ??monitor_event_IPCP_16:
   \   000000FC   E028               LDI     R18, 8
   \   000000FE   01F8               MOVW    R31:R30, R17:R16
   \   00000100   8724               STD     Z+12, R18
   1477                                      prov_uk_in_ipcp();                 
   \   00000102   CF9C               RJMP    ??monitor_event_IPCP_3
   1478                                      IPCP_state=SEND_REQ;    
   1479                               
   1480                                      return;
   1481                          case REC_ACK:                                                                
   1482                                      IPCP_act_buf[uk_in_act_IPCP]=SCN;  
   \                     ??monitor_event_IPCP_17:
   \   00000104   E028               LDI     R18, 8
   \                     ??monitor_event_IPCP_18:
   \   00000106   01F8               MOVW    R31:R30, R17:R16
   \   00000108   8724               STD     Z+12, R18
   1483                                      prov_uk_in_ipcp();              
   \   0000010A   ....               RCALL   prov_uk_in_ipcp
   1484                                      IPCP_state=REC_ACK;     
   \   0000010C   E007               LDI     R16, 7
   \   0000010E   CF98               RJMP    ??monitor_event_IPCP_4
   1485                                     
   1486                                      return;
   1487                          case SEND_ACK:                                                                
   1488                                      IPCP_act_buf[uk_in_act_IPCP]=SCN;  
   1489                                      prov_uk_in_ipcp();                 
   1490                                      IPCP_state=SEND_REQ;
   1491                                   
   1492                                      return;
   1493                          
   1494                         /*
   1495                         case OPEN_ST:      
   1496                                    
   1497                                     // vol_cnt_rst_ipcp=VOL_IPCP_MC;
   1498                                      IPCP_act_buf[uk_in_act_IPCP]=IRC;  
   1499                                      prov_uk_in_ipcp(); 
   1500                                      IPCP_act_buf[uk_in_act_IPCP]=SCR;  
   1501                                      prov_uk_in_ipcp();                                                                
   1502                                      IPCP_act_buf[uk_in_act_IPCP]=SCN;  
   1503                                      prov_uk_in_ipcp();                 
   1504                                      IPCP_state=SEND_REQ;
   1505                         
   1506                                      
   1507                                      return;  
   1508                           */           
   1509                         }  
   1510                       return; 
   1511                  case RCA:  
   1512                      
   1513                      
   1514                     
   1515                      
   1516                      IPCP_event=NO_EVENT;
   \                     ??monitor_event_IPCP_10:
   \   00000110   EF3F               LDI     R19, 255
   \   00000112   8733               STD     Z+11, R19
   1517                      switch(IPCP_state)
   \   00000114   5026               SUBI    R18, 6
   \   00000116   F031               BREQ    ??monitor_event_IPCP_19
   \   00000118   952A               DEC     R18
   \   0000011A   F409               BRNE    $+2+2
   \   0000011C   CF84               RJMP    ??monitor_event_IPCP_2
   \   0000011E   952A               DEC     R18
   \   00000120   F019               BREQ    ??monitor_event_IPCP_20
   \   00000122   CF90               RJMP    ??monitor_event_IPCP_1
   1518                         {                     
   1519          
   1520                          
   1521                          case SEND_REQ: 
   1522                                      
   1523                                     // vol_cnt_rst_ipcp=VOL_IPCP_MC;  
   1524                                      IPCP_act_buf[uk_in_act_IPCP]=IRC;  
   \                     ??monitor_event_IPCP_19:
   \   00000124   E024               LDI     R18, 4
   \   00000126   CFEF               RJMP    ??monitor_event_IPCP_18
   1525                                      prov_uk_in_ipcp();                                        
   1526                                      IPCP_state=REC_ACK; 
   1527                               
   1528                                      return;
   1529                          case REC_ACK:       
   1530                                      IPCP_act_buf[uk_in_act_IPCP]=IRC;  
   1531                                      prov_uk_in_ipcp(); 
   1532                                     // vol_cnt_rst_ipcp=VOL_IPCP_MC;                                             
   1533                                      IPCP_act_buf[uk_in_act_IPCP]=SCR;  
   1534                                      prov_uk_in_ipcp();                 
   1535                                      IPCP_state=SEND_REQ;
   1536                               
   1537                                      return;
   1538                          case SEND_ACK:                                                                
   1539          
   1540                                      
   1541                                      vol_cnt_rst_ipcp=VOL_IPCP_MC;  
   \                     ??monitor_event_IPCP_20:
   \   00000128   E02A               LDI     R18, 10
   \   0000012A   8F22               STD     Z+26, R18
   1542                                      IPCP_act_buf[uk_in_act_IPCP]=IRC;  
   \   0000012C   E024               LDI     R18, 4
   \   0000012E   CFC3               RJMP    ??monitor_event_IPCP_15
   1543                                      prov_uk_in_ipcp();                                        
   1544                                      IPCP_act_buf[uk_in_act_IPCP]=TLU;  
   1545                                      prov_uk_in_ipcp();
   1546                                      IPCP_state=OPEN_ST;
   1547                            
   1548                                      return;
   1549                         /*
   1550                         case OPEN_ST:
   1551                                     // vol_cnt_rst_ipcp=VOL_IPCP_MC;
   1552                        //ďîäóěŕňü    ?????????????????????????????
   1553                                     
   1554                                      IPCP_act_buf[uk_in_act_IPCP]=IRC;  
   1555                                      prov_uk_in_ipcp(); 
   1556                                      IPCP_act_buf[uk_in_act_IPCP]=SCR;  
   1557                                      prov_uk_in_ipcp();                                                                               
   1558                                      IPCP_state=SEND_REQ;
   1559                                   
   1560                                      
   1561                                      return;
   1562                                      */
   1563                                      
   1564                         }  
   1565                       return; 
   1566                  case RCN: 
   1567                          IPCP_event=NO_EVENT;
   \                     ??monitor_event_IPCP_11:
   \   00000130   EF3F               LDI     R19, 255
   \   00000132   8733               STD     Z+11, R19
   1568                  switch(IPCP_state)
   \   00000134   5026               SUBI    R18, 6
   \   00000136   F051               BREQ    ??monitor_event_IPCP_21
   \   00000138   952A               DEC     R18
   \   0000013A   F409               BRNE    $+2+2
   \   0000013C   CF74               RJMP    ??monitor_event_IPCP_2
   \   0000013E   952A               DEC     R18
   \   00000140   F409               BRNE    $+2+2
   \   00000142   CF8F               RJMP    ??monitor_event_IPCP_6
   \   00000144   952A               DEC     R18
   \   00000146   F409               BRNE    $+2+2
   \   00000148   CF6E               RJMP    ??monitor_event_IPCP_2
   \   0000014A   CF7C               RJMP    ??monitor_event_IPCP_1
   1569                         {                     
   1570          
   1571                          
   1572                          case SEND_REQ:                                                                
   1573                                      vol_cnt_rst_ipcp=VOL_IPCP_MC;  
   \                     ??monitor_event_IPCP_21:
   \   0000014C   E02A               LDI     R18, 10
   \   0000014E   8F22               STD     Z+26, R18
   \   00000150   CF6A               RJMP    ??monitor_event_IPCP_2
   1574                                      IPCP_act_buf[uk_in_act_IPCP]=IRC;  
   1575                                      prov_uk_in_ipcp(); 
   1576                                      IPCP_act_buf[uk_in_act_IPCP]=SCR;  
   1577                                      prov_uk_in_ipcp();                                       
   1578                                      IPCP_state=SEND_REQ;
   1579                                    
   1580                                      return;
   1581                          case REC_ACK:     
   1582                                     // vol_cnt_rst_ipcp=VOL_IPCP_MC;                                               
   1583                                      IPCP_act_buf[uk_in_act_IPCP]=IRC;  
   1584                                      prov_uk_in_ipcp(); 
   1585                                      IPCP_act_buf[uk_in_act_IPCP]=SCR;  
   1586                                      prov_uk_in_ipcp();                 
   1587                                      IPCP_state=SEND_REQ;
   1588                                    
   1589                                      return;
   1590                          case SEND_ACK:                                                                
   1591                                     // vol_cnt_rst_ipcp=VOL_IPCP_MC;   
   1592                                      IPCP_act_buf[uk_in_act_IPCP]=IRC;  
   1593                                      prov_uk_in_ipcp();                                        
   1594                                      IPCP_act_buf[uk_in_act_IPCP]=SCR;  
   1595                                      prov_uk_in_ipcp();
   1596                                      IPCP_state=SEND_ACK;
   1597                                  
   1598                                      return;
   1599                          
   1600                         case OPEN_ST:      
   1601                                      IPCP_act_buf[uk_in_act_IPCP]=IRC;  
   1602                                      prov_uk_in_ipcp(); 
   1603                                     // vol_cnt_rst_ipcp=VOL_IPCP_MC;  
   1604                                      IPCP_act_buf[uk_in_act_IPCP]=SCR;  
   1605                                      prov_uk_in_ipcp();                                                                               
   1606                                      IPCP_state=SEND_REQ;
   1607                                
   1608                                      return;  
   1609                                      
   1610                                      
   1611                         }  
   1612                       return; 
   1613                 
   1614                 
   1615                                      
   1616                  }
   1617              
   1618              }
   1619            
   1620            
   1621            ////////////////  ęîíĺö ěîíčňîđű IPCP 
   1622          

   \                                 In segment CODE, align 2, keep-with-next
   1623            unsigned int calc_crc_ip(unsigned char *p,unsigned int count)
   \                     calc_crc_ip:
   1624                {      
   \   00000000   9726               SBIW    R29:R28, 6
   \   00000002   01F8               MOVW    R31:R30, R17:R16
   1625                
   1626                    union          
   1627                    {
   1628                     unsigned char bytes[2]; 
   1629                     unsigned int word;
   1630                    }temp1; 
   1631                   
   1632                    union
   1633                    {
   1634                     unsigned char bytes[4]; 
   1635                     unsigned long int long_word;
   1636                    }temp2; 
   1637                 
   1638                   temp1.word=0;
   \   00000004   E000               LDI     R16, 0
   \   00000006   E010               LDI     R17, 0
   \   00000008   8308               ST      Y, R16
   \   0000000A   8309               STD     Y+1, R16
   1639                   temp2.long_word=0;
   \   0000000C   830A               STD     Y+2, R16
   \   0000000E   830B               STD     Y+3, R16
   \   00000010   830C               STD     Y+4, R16
   \   00000012   830D               STD     Y+5, R16
   \   00000014   C015               RJMP    ??calc_crc_ip_0
   1640          
   1641                  while( count > 1 )  {
   1642                     /*  This is the inner loop */  
   1643                         temp1.bytes[0]=*p;
   \                     ??calc_crc_ip_1:
   \   00000016   8100               LD      R16, Z
   \   00000018   8308               ST      Y, R16
   1644                         temp1.bytes[1]=*(p+1); 
   \   0000001A   8101               LDD     R16, Z+1
   \   0000001C   8309               STD     Y+1, R16
   1645                         temp2.long_word=temp2.long_word+temp1.word; 
   \   0000001E   8148               LD      R20, Y
   \   00000020   8159               LDD     R21, Y+1
   \   00000022   800A               LDD     R0, Y+2
   \   00000024   801B               LDD     R1, Y+3
   \   00000026   802C               LDD     R2, Y+4
   \   00000028   803D               LDD     R3, Y+5
   \   0000002A   0E04               ADD     R0, R20
   \   0000002C   1E15               ADC     R1, R21
   \   0000002E   1E21               ADC     R2, R17
   \   00000030   1E31               ADC     R3, R17
   \   00000032   820A               STD     Y+2, R0
   \   00000034   821B               STD     Y+3, R1
   \   00000036   822C               STD     Y+4, R2
   \   00000038   823D               STD     Y+5, R3
   1646                         p=p+2;         
   \   0000003A   9632               ADIW    R31:R30, 2
   1647                         count -= 2;
   \   0000003C   5022               SUBI    R18, 2
   \   0000003E   4030               SBCI    R19, 0
   1648                                      }
   \                     ??calc_crc_ip_0:
   \   00000040   3022               CPI     R18, 2
   \   00000042   0731               CPC     R19, R17
   \   00000044   F740               BRCC    ??calc_crc_ip_1
   1649          
   1650                     /*  Add left-over byte, if any */
   1651                 if( count > 0 )   
   \   00000046   2B23               OR      R18, R19
   \   00000048   F109               BREQ    ??calc_crc_ip_2
   1652                         {
   1653                         temp1.bytes[0]=0;
   \   0000004A   8318               ST      Y, R17
   1654                         temp1.bytes[1]=*p; 
   \   0000004C   8100               LD      R16, Z
   \   0000004E   8309               STD     Y+1, R16
   1655                         temp2.long_word=temp2.long_word+temp1.word; 
   \   00000050   8108               LD      R16, Y
   \   00000052   8119               LDD     R17, Y+1
   \   00000054   E020               LDI     R18, 0
   \   00000056   814A               LDD     R20, Y+2
   \   00000058   815B               LDD     R21, Y+3
   \   0000005A   816C               LDD     R22, Y+4
   \   0000005C   817D               LDD     R23, Y+5
   \   0000005E   0F40               ADD     R20, R16
   \   00000060   1F51               ADC     R21, R17
   \   00000062   1F62               ADC     R22, R18
   \   00000064   1F72               ADC     R23, R18
   \   00000066   834A               STD     Y+2, R20
   \   00000068   835B               STD     Y+3, R21
   \   0000006A   836C               STD     Y+4, R22
   \   0000006C   837D               STD     Y+5, R23
   \   0000006E   C00E               RJMP    ??calc_crc_ip_2
   1656                         } 
   1657                    
   1658              
   1659                     /*  Fold 32-bit sum to 16 bits */
   1660                 while (temp2.long_word>>16)
   1661                     temp2.long_word = (temp2.long_word & 0xffff) + (temp2.long_word >> 16);
   \                     ??calc_crc_ip_3:
   \   00000070   811B               LDD     R17, Y+3
   \   00000072   E020               LDI     R18, 0
   \   00000074   816C               LDD     R22, Y+4
   \   00000076   817D               LDD     R23, Y+5
   \   00000078   2F46               MOV     R20, R22
   \   0000007A   2F57               MOV     R21, R23
   \   0000007C   E060               LDI     R22, 0
   \   0000007E   0F40               ADD     R20, R16
   \   00000080   1F51               ADC     R21, R17
   \   00000082   1F62               ADC     R22, R18
   \   00000084   834A               STD     Y+2, R20
   \   00000086   835B               STD     Y+3, R21
   \   00000088   836C               STD     Y+4, R22
   \   0000008A   832D               STD     Y+5, R18
   \                     ??calc_crc_ip_2:
   \   0000008C   812C               LDD     R18, Y+4
   \   0000008E   813D               LDD     R19, Y+5
   \   00000090   E000               LDI     R16, 0
   \   00000092   2B02               OR      R16, R18
   \   00000094   2B03               OR      R16, R19
   \   00000096   810A               LDD     R16, Y+2
   \   00000098   F759               BRNE    ??calc_crc_ip_3
   1662          
   1663                 temp1.bytes[0]=~temp2.bytes[0];
   \   0000009A   9500               COM     R16
   \   0000009C   8308               ST      Y, R16
   1664                 temp1.bytes[1]=~temp2.bytes[1];  
   \   0000009E   810B               LDD     R16, Y+3
   \   000000A0   9500               COM     R16
   \   000000A2   8309               STD     Y+1, R16
   1665                 
   1666            
   1667                    
   1668                 return(temp1.word);
   \   000000A4   8108               LD      R16, Y
   \   000000A6   8119               LDD     R17, Y+1
   \   000000A8   9626               ADIW    R29:R28, 6
   \   000000AA   9508               RET
   1669                }
   1670                 
   1671          
   1672          
   1673          
   1674           

   \                                 In segment CODE, align 2, keep-with-next
   1675           unsigned int calc_crc_udp_2(unsigned char *buf_rx_ppp,unsigned int count)
   \                     calc_crc_udp_2:
   1676                {      
   \   00000000   ........           CALL    ?PROLOGUE4_L09
   \   00000004   9726               SBIW    R29:R28, 6
   \   00000006   01D8               MOVW    R27:R26, R17:R16
   \   00000008   01C9               MOVW    R25:R24, R19:R18
   1677                    unsigned char *p;
   1678                
   1679                    union          
   1680                    {
   1681                     unsigned char bytes[2]; 
   1682                     unsigned int word;
   1683                    }temp1; 
   1684                   
   1685                    union
   1686                    {
   1687                     unsigned char bytes[4]; 
   1688                     unsigned long int long_word;
   1689                    }temp2; 
   1690                   p=buf_rx_ppp+22;
   \   0000000A   01FD               MOVW    R31:R30, R27:R26
   \   0000000C   9676               ADIW    R31:R30, 22
   1691                   temp1.word=0;
   \   0000000E   E020               LDI     R18, 0
   \   00000010   E030               LDI     R19, 0
   \   00000012   8328               ST      Y, R18
   \   00000014   8329               STD     Y+1, R18
   1692                   temp2.long_word=0;
   \   00000016   832A               STD     Y+2, R18
   \   00000018   832B               STD     Y+3, R18
   \   0000001A   832C               STD     Y+4, R18
   \   0000001C   832D               STD     Y+5, R18
   \   0000001E   C014               RJMP    ??calc_crc_udp_2_0
   1693          
   1694                  while( count > 1 )  {
   1695                     /*  This is the inner loop */  
   1696                         temp1.bytes[0]=*p;
   \                     ??calc_crc_udp_2_1:
   \   00000020   8120               LD      R18, Z
   \   00000022   8328               ST      Y, R18
   1697                         temp1.bytes[1]=*(p+1); 
   \   00000024   8121               LDD     R18, Z+1
   \   00000026   8329               STD     Y+1, R18
   1698                         temp2.long_word=temp2.long_word+temp1.word; 
   \   00000028   8148               LD      R20, Y
   \   0000002A   8159               LDD     R21, Y+1
   \   0000002C   800A               LDD     R0, Y+2
   \   0000002E   801B               LDD     R1, Y+3
   \   00000030   802C               LDD     R2, Y+4
   \   00000032   803D               LDD     R3, Y+5
   \   00000034   0E04               ADD     R0, R20
   \   00000036   1E15               ADC     R1, R21
   \   00000038   1E23               ADC     R2, R19
   \   0000003A   1E33               ADC     R3, R19
   \   0000003C   820A               STD     Y+2, R0
   \   0000003E   821B               STD     Y+3, R1
   \   00000040   822C               STD     Y+4, R2
   \   00000042   823D               STD     Y+5, R3
   1699                         p=p+2;         
   \   00000044   9632               ADIW    R31:R30, 2
   1700                         count -= 2;
   \   00000046   9702               SBIW    R25:R24, 2
   1701                                      }
   \                     ??calc_crc_udp_2_0:
   \   00000048   3082               CPI     R24, 2
   \   0000004A   0793               CPC     R25, R19
   \   0000004C   F748               BRCC    ??calc_crc_udp_2_1
   1702          
   1703                     /*  Add left-over byte, if any */
   1704                 if( count > 0 )   
   \   0000004E   2B89               OR      R24, R25
   \   00000050   F089               BREQ    ??calc_crc_udp_2_2
   1705                         {
   1706                         //temp1.bytes[0]=0;
   1707                         //temp1.bytes[1]=*p; 
   1708                         temp1.bytes[0]=*p; 
   \   00000052   8100               LD      R16, Z
   \   00000054   8308               ST      Y, R16
   1709                         temp1.bytes[1]=0;
   \   00000056   8339               STD     Y+1, R19
   1710                         temp2.long_word=temp2.long_word+temp1.word; 
   \   00000058   8108               LD      R16, Y
   \   0000005A   8119               LDD     R17, Y+1
   \   0000005C   814A               LDD     R20, Y+2
   \   0000005E   815B               LDD     R21, Y+3
   \   00000060   816C               LDD     R22, Y+4
   \   00000062   817D               LDD     R23, Y+5
   \   00000064   0F40               ADD     R20, R16
   \   00000066   1F51               ADC     R21, R17
   \   00000068   1F63               ADC     R22, R19
   \   0000006A   1F73               ADC     R23, R19
   \   0000006C   834A               STD     Y+2, R20
   \   0000006E   835B               STD     Y+3, R21
   \   00000070   836C               STD     Y+4, R22
   \   00000072   837D               STD     Y+5, R23
   1711                         } 
   1712                    
   1713                    
   1714                    
   1715                    temp1.bytes[0]=buf_rx_ppp[14];
   \                     ??calc_crc_udp_2_2:
   \   00000074   01FD               MOVW    R31:R30, R27:R26
   \   00000076   8506               LDD     R16, Z+14
   \   00000078   8308               ST      Y, R16
   1716                    temp1.bytes[1]=buf_rx_ppp[15]; 
   \   0000007A   8507               LDD     R16, Z+15
   \   0000007C   8309               STD     Y+1, R16
   1717                    temp2.long_word=temp2.long_word+temp1.word;  
   \   0000007E   8108               LD      R16, Y
   \   00000080   8119               LDD     R17, Y+1
   \   00000082   814A               LDD     R20, Y+2
   \   00000084   815B               LDD     R21, Y+3
   \   00000086   816C               LDD     R22, Y+4
   \   00000088   817D               LDD     R23, Y+5
   \   0000008A   0F40               ADD     R20, R16
   \   0000008C   1F51               ADC     R21, R17
   \   0000008E   1F63               ADC     R22, R19
   \   00000090   1F73               ADC     R23, R19
   \   00000092   834A               STD     Y+2, R20
   \   00000094   835B               STD     Y+3, R21
   \   00000096   836C               STD     Y+4, R22
   \   00000098   837D               STD     Y+5, R23
   1718                    temp1.bytes[0]=buf_rx_ppp[16];
   \   0000009A   8900               LDD     R16, Z+16
   \   0000009C   8308               ST      Y, R16
   1719                    temp1.bytes[1]=buf_rx_ppp[17]; 
   \   0000009E   8901               LDD     R16, Z+17
   \   000000A0   8309               STD     Y+1, R16
   1720                    temp2.long_word=temp2.long_word+temp1.word;  
   \   000000A2   8108               LD      R16, Y
   \   000000A4   8119               LDD     R17, Y+1
   \   000000A6   814A               LDD     R20, Y+2
   \   000000A8   815B               LDD     R21, Y+3
   \   000000AA   816C               LDD     R22, Y+4
   \   000000AC   817D               LDD     R23, Y+5
   \   000000AE   0F40               ADD     R20, R16
   \   000000B0   1F51               ADC     R21, R17
   \   000000B2   1F63               ADC     R22, R19
   \   000000B4   1F73               ADC     R23, R19
   \   000000B6   834A               STD     Y+2, R20
   \   000000B8   835B               STD     Y+3, R21
   \   000000BA   836C               STD     Y+4, R22
   \   000000BC   837D               STD     Y+5, R23
   1721                    
   1722                    temp1.bytes[0]=buf_rx_ppp[18];
   \   000000BE   8902               LDD     R16, Z+18
   \   000000C0   8308               ST      Y, R16
   1723                    temp1.bytes[1]=buf_rx_ppp[19]; 
   \   000000C2   8903               LDD     R16, Z+19
   \   000000C4   8309               STD     Y+1, R16
   1724                    temp2.long_word=temp2.long_word+temp1.word;  
   \   000000C6   8108               LD      R16, Y
   \   000000C8   8119               LDD     R17, Y+1
   \   000000CA   814A               LDD     R20, Y+2
   \   000000CC   815B               LDD     R21, Y+3
   \   000000CE   816C               LDD     R22, Y+4
   \   000000D0   817D               LDD     R23, Y+5
   \   000000D2   0F40               ADD     R20, R16
   \   000000D4   1F51               ADC     R21, R17
   \   000000D6   1F63               ADC     R22, R19
   \   000000D8   1F73               ADC     R23, R19
   \   000000DA   834A               STD     Y+2, R20
   \   000000DC   835B               STD     Y+3, R21
   \   000000DE   836C               STD     Y+4, R22
   \   000000E0   837D               STD     Y+5, R23
   1725                    temp1.bytes[0]=buf_rx_ppp[20];
   \   000000E2   8904               LDD     R16, Z+20
   \   000000E4   8308               ST      Y, R16
   1726                    temp1.bytes[1]=buf_rx_ppp[21]; 
   \   000000E6   8905               LDD     R16, Z+21
   \   000000E8   8309               STD     Y+1, R16
   1727                    temp2.long_word=temp2.long_word+temp1.word;  
   \   000000EA   8108               LD      R16, Y
   \   000000EC   8119               LDD     R17, Y+1
   \   000000EE   814A               LDD     R20, Y+2
   \   000000F0   815B               LDD     R21, Y+3
   \   000000F2   816C               LDD     R22, Y+4
   \   000000F4   817D               LDD     R23, Y+5
   \   000000F6   0F40               ADD     R20, R16
   \   000000F8   1F51               ADC     R21, R17
   \   000000FA   1F63               ADC     R22, R19
   \   000000FC   1F73               ADC     R23, R19
   \   000000FE   834A               STD     Y+2, R20
   \   00000100   835B               STD     Y+3, R21
   \   00000102   836C               STD     Y+4, R22
   \   00000104   837D               STD     Y+5, R23
   1728                    
   1729                               
   1730                
   1731                    temp1.bytes[0]=0;
   \   00000106   8338               ST      Y, R19
   1732                    temp1.bytes[1]=0x11; 
   \   00000108   E101               LDI     R16, 17
   \   0000010A   8309               STD     Y+1, R16
   1733                    temp2.long_word=temp2.long_word+temp1.word;  
   \   0000010C   8108               LD      R16, Y
   \   0000010E   8119               LDD     R17, Y+1
   \   00000110   814A               LDD     R20, Y+2
   \   00000112   815B               LDD     R21, Y+3
   \   00000114   816C               LDD     R22, Y+4
   \   00000116   817D               LDD     R23, Y+5
   \   00000118   0F40               ADD     R20, R16
   \   0000011A   1F51               ADC     R21, R17
   \   0000011C   1F63               ADC     R22, R19
   \   0000011E   1F73               ADC     R23, R19
   \   00000120   834A               STD     Y+2, R20
   \   00000122   835B               STD     Y+3, R21
   \   00000124   836C               STD     Y+4, R22
   \   00000126   837D               STD     Y+5, R23
   1734                     
   1735                    temp1.bytes[0]=buf_rx_ppp[26];                                //äëčíŕ
   \   00000128   8D02               LDD     R16, Z+26
   \   0000012A   8308               ST      Y, R16
   1736                    temp1.bytes[1]=buf_rx_ppp[27]; 
   \   0000012C   8D03               LDD     R16, Z+27
   \   0000012E   8309               STD     Y+1, R16
   1737                    temp2.long_word=temp2.long_word+temp1.word; 
   \   00000130   8108               LD      R16, Y
   \   00000132   8119               LDD     R17, Y+1
   \   00000134   814A               LDD     R20, Y+2
   \   00000136   815B               LDD     R21, Y+3
   \   00000138   816C               LDD     R22, Y+4
   \   0000013A   817D               LDD     R23, Y+5
   \   0000013C   0F40               ADD     R20, R16
   \   0000013E   1F51               ADC     R21, R17
   \   00000140   1F63               ADC     R22, R19
   \   00000142   1F73               ADC     R23, R19
   \   00000144   834A               STD     Y+2, R20
   \   00000146   835B               STD     Y+3, R21
   \   00000148   836C               STD     Y+4, R22
   \   0000014A   837D               STD     Y+5, R23
   \   0000014C   C00E               RJMP    ??calc_crc_udp_2_3
   1738                   
   1739                
   1740                    
   1741                   
   1742                    
   1743              
   1744                     /*  Fold 32-bit sum to 16 bits */
   1745                 while (temp2.long_word>>16)
   1746                     temp2.long_word = (temp2.long_word & 0xffff) + (temp2.long_word >> 16);
   \                     ??calc_crc_udp_2_4:
   \   0000014E   811B               LDD     R17, Y+3
   \   00000150   E020               LDI     R18, 0
   \   00000152   816C               LDD     R22, Y+4
   \   00000154   817D               LDD     R23, Y+5
   \   00000156   2F46               MOV     R20, R22
   \   00000158   2F57               MOV     R21, R23
   \   0000015A   E060               LDI     R22, 0
   \   0000015C   0F40               ADD     R20, R16
   \   0000015E   1F51               ADC     R21, R17
   \   00000160   1F62               ADC     R22, R18
   \   00000162   834A               STD     Y+2, R20
   \   00000164   835B               STD     Y+3, R21
   \   00000166   836C               STD     Y+4, R22
   \   00000168   832D               STD     Y+5, R18
   \                     ??calc_crc_udp_2_3:
   \   0000016A   812C               LDD     R18, Y+4
   \   0000016C   813D               LDD     R19, Y+5
   \   0000016E   E000               LDI     R16, 0
   \   00000170   2B02               OR      R16, R18
   \   00000172   2B03               OR      R16, R19
   \   00000174   810A               LDD     R16, Y+2
   \   00000176   F759               BRNE    ??calc_crc_udp_2_4
   1747          
   1748                temp1.bytes[0]=~temp2.bytes[0];
   \   00000178   9500               COM     R16
   \   0000017A   8308               ST      Y, R16
   1749                temp1.bytes[1]=~temp2.bytes[1]; 
   \   0000017C   810B               LDD     R16, Y+3
   \   0000017E   9500               COM     R16
   \   00000180   8309               STD     Y+1, R16
   1750                    
   1751                 return(temp1.word);
   \   00000182   8108               LD      R16, Y
   \   00000184   8119               LDD     R17, Y+1
   \   00000186   9626               ADIW    R29:R28, 6
   \   00000188   E0E4               LDI     R30, 4
   \   0000018A   ........           JMP     ?EPILOGUE_B4_L09
   1752                }
   1753           
   1754           
   1755           
   1756           

   \                                 In segment CODE, align 2, keep-with-next
   1757           unsigned char proc_ppp_packet(unsigned char *buf_rx_ppp,unsigned int count_rx_ppp)
   \                     proc_ppp_packet:
   1758           {                
   \   00000000   ........           CALL    ?PROLOGUE10_L09
   \   00000004                      REQUIRE ?Register_R4_is_cg_reg
   \   00000004                      REQUIRE ?Register_R5_is_cg_reg
   \   00000004                      REQUIRE ?Register_R6_is_cg_reg
   \   00000004                      REQUIRE ?Register_R8_is_cg_reg
   \   00000004                      REQUIRE ?Register_R9_is_cg_reg
   \   00000004   9724               SBIW    R29:R28, 4
   \   00000006   01D8               MOVW    R27:R26, R17:R16
   \   00000008   0129               MOVW    R5:R4, R19:R18
   1759              unsigned int i;
   1760              unsigned char vol_length_opt;
   1761              unsigned char ind_opt,count_length_opt;
   1762               
   1763               struct
   1764           {
   1765            unsigned char mru :1;  
   1766            unsigned char accm :1; 
   1767            unsigned char aut_prot :1; 
   1768            unsigned char pfc :1;
   1769            unsigned char acfc :1;
   1770            unsigned char zap_opt:1;
   1771            unsigned char ip_self:1;
   1772            unsigned char ip_pri_dns:1;
   1773           }fl_opt;     
   1774                                     
   1775            
   1776            
   1777            union
   1778           {
   1779           unsigned char bytes[2]; 
   1780           unsigned int word;
   1781           } Crc_out,temp,length;
   1782              
   1783              
   1784             
   1785           
   1786            if(count_rx_ppp<=5)return(1); 
   \   0000000A   3026               CPI     R18, 6
   \   0000000C   E000               LDI     R16, 0
   \   0000000E   0650               CPC     R5, R16
   \   00000010   F428               BRCC    ??proc_ppp_packet_0
   \                     ??proc_ppp_packet_1:
   \   00000012   E001               LDI     R16, 1
   \   00000014   9624               ADIW    R29:R28, 4
   \   00000016   E0EA               LDI     R30, 10
   \   00000018   ........           JMP     ?EPILOGUE_B10_L09
   1787             
   1788              //ďîäń÷ĺň FCS      
   1789            if (pppfcs16(PPPINITFCS16,&buf_rx_ppp[1],count_rx_ppp-2)!=PPPGOODFCS16)return(1);       
   \                     ??proc_ppp_packet_0:
   \   0000001C   01A2               MOVW    R21:R20, R5:R4
   \   0000001E   5042               SUBI    R20, 2
   \   00000020   4050               SBCI    R21, 0
   \   00000022   019D               MOVW    R19:R18, R27:R26
   \   00000024   5F2F               SUBI    R18, 255
   \   00000026   4F3F               SBCI    R19, 255
   \   00000028   EF0F               LDI     R16, 255
   \   0000002A   EF1F               LDI     R17, 255
   \   0000002C   ........           CALL    pppfcs16
   \   00000030   3B08               CPI     R16, 184
   \   00000032   EF20               LDI     R18, 240
   \   00000034   0712               CPC     R17, R18
   \   00000036   F769               BRNE    ??proc_ppp_packet_1
   1790           
   1791           
   1792            if ((buf_rx_ppp[1]==0xff)&&(buf_rx_ppp[2]==0x03)&&(buf_rx_ppp[3]==0xc0)&&(buf_rx_ppp[4]==0x21)&&(layer_PPP!=LAYER_HW))rcvd_protokol=PR_LCP; 
   \   00000038   ....               LDI     R16, LOW(cnt_lcp_tm_out)
   \   0000003A   ....               LDI     R17, (cnt_lcp_tm_out) >> 8
   \   0000003C   01FD               MOVW    R31:R30, R27:R26
   \   0000003E   8121               LDD     R18, Z+1
   \   00000040   3F2F               CPI     R18, 255
   \   00000042   F481               BRNE    ??proc_ppp_packet_2
   \   00000044   8122               LDD     R18, Z+2
   \   00000046   3023               CPI     R18, 3
   \   00000048   F469               BRNE    ??proc_ppp_packet_2
   \   0000004A   8123               LDD     R18, Z+3
   \   0000004C   3C20               CPI     R18, 192
   \   0000004E   F451               BRNE    ??proc_ppp_packet_2
   \   00000050   8124               LDD     R18, Z+4
   \   00000052   3221               CPI     R18, 33
   \   00000054   F439               BRNE    ??proc_ppp_packet_2
   \   00000056   9120....           LDS     R18, layer_PPP
   \   0000005A   2322               TST     R18
   \   0000005C   F019               BREQ    ??proc_ppp_packet_2
   \   0000005E   E020               LDI     R18, 0
   \   00000060   01F8               MOVW    R31:R30, R17:R16
   \   00000062   8324               STD     Z+4, R18
   1793            if ((buf_rx_ppp[1]==0xc0)&&(buf_rx_ppp[2]==0x23)&&(layer_PPP==LAYER_PAP))rcvd_protokol=PR_PAP;
   \                     ??proc_ppp_packet_2:
   \   00000064   01FD               MOVW    R31:R30, R27:R26
   \   00000066   8121               LDD     R18, Z+1
   \   00000068   3C20               CPI     R18, 192
   \   0000006A   F451               BRNE    ??proc_ppp_packet_3
   \   0000006C   8122               LDD     R18, Z+2
   \   0000006E   3223               CPI     R18, 35
   \   00000070   F439               BRNE    ??proc_ppp_packet_3
   \   00000072   9120....           LDS     R18, layer_PPP
   \   00000076   3022               CPI     R18, 2
   \   00000078   F419               BRNE    ??proc_ppp_packet_3
   \   0000007A   E021               LDI     R18, 1
   \   0000007C   01F8               MOVW    R31:R30, R17:R16
   \   0000007E   8324               STD     Z+4, R18
   1794            if ((buf_rx_ppp[1]==0x80)&&(buf_rx_ppp[2]==0x21)&&((layer_PPP==LAYER_IP)||(layer_PPP==LAYER_IPCP)))rcvd_protokol=PR_IPCP; 
   \                     ??proc_ppp_packet_3:
   \   00000080   01FD               MOVW    R31:R30, R27:R26
   \   00000082   8121               LDD     R18, Z+1
   \   00000084   3820               CPI     R18, 128
   \   00000086   F471               BRNE    ??proc_ppp_packet_4
   \   00000088   8122               LDD     R18, Z+2
   \   0000008A   3221               CPI     R18, 33
   \   0000008C   F459               BRNE    ??proc_ppp_packet_4
   \   0000008E   9120....           LDS     R18, layer_PPP
   \   00000092   3024               CPI     R18, 4
   \   00000094   F021               BREQ    ??proc_ppp_packet_5
   \   00000096   9120....           LDS     R18, layer_PPP
   \   0000009A   3023               CPI     R18, 3
   \   0000009C   F419               BRNE    ??proc_ppp_packet_4
   \                     ??proc_ppp_packet_5:
   \   0000009E   E022               LDI     R18, 2
   \   000000A0   01F8               MOVW    R31:R30, R17:R16
   \   000000A2   8324               STD     Z+4, R18
   1795            if ((buf_rx_ppp[1]==0x21)&&(layer_PPP==LAYER_IP))rcvd_protokol=PR_IP; 
   \                     ??proc_ppp_packet_4:
   \   000000A4   01FD               MOVW    R31:R30, R27:R26
   \   000000A6   8121               LDD     R18, Z+1
   \   000000A8   3221               CPI     R18, 33
   \   000000AA   F439               BRNE    ??proc_ppp_packet_6
   \   000000AC   9120....           LDS     R18, layer_PPP
   \   000000B0   3024               CPI     R18, 4
   \   000000B2   F419               BRNE    ??proc_ppp_packet_6
   \   000000B4   E023               LDI     R18, 3
   \   000000B6   01F8               MOVW    R31:R30, R17:R16
   \   000000B8   8324               STD     Z+4, R18
   1796            
   1797            
   1798          
   1799           
   1800            
   1801               
   1802               switch (rcvd_protokol) 
   \                     ??proc_ppp_packet_6:
   \   000000BA   0192               MOVW    R19:R18, R5:R4
   \   000000BC   5026               SUBI    R18, 6
   \   000000BE   4030               SBCI    R19, 0
   \   000000C0   ....               LDI     R20, LOW(cnt_pap_tm_out)
   \   000000C2   ....               LDI     R21, (cnt_pap_tm_out) >> 8
   \   000000C4   ....               LDI     R24, LOW(ip_self)
   \   000000C6   ....               LDI     R25, (ip_self) >> 8
   \   000000C8   01F8               MOVW    R31:R30, R17:R16
   \   000000CA   8164               LDD     R22, Z+4
   \   000000CC   5060               SUBI    R22, 0
   \   000000CE   F051               BREQ    ??proc_ppp_packet_7
   \   000000D0   956A               DEC     R22
   \   000000D2   F409               BRNE    $+2+2
   \   000000D4   C0FD               RJMP    ??proc_ppp_packet_8
   \   000000D6   956A               DEC     R22
   \   000000D8   F409               BRNE    $+2+2
   \   000000DA   C118               RJMP    ??proc_ppp_packet_9
   \   000000DC   956A               DEC     R22
   \   000000DE   F409               BRNE    $+2+2
   \   000000E0   C1CD               RJMP    ??proc_ppp_packet_10
   \   000000E2   CF97               RJMP    ??proc_ppp_packet_1
   1803                {
   1804                 case PR_LCP:
   1805           
   1806                     
   1807                        // çäĺńü  ďđîâĺđęŕ îáůĺé äëčíű     
   1808                        length.bytes[1]=buf_rx_ppp[7];
   \                     ??proc_ppp_packet_7:
   \   000000E4   01FD               MOVW    R31:R30, R27:R26
   \   000000E6   8127               LDD     R18, Z+7
   \   000000E8   8329               STD     Y+1, R18
   1809                        length.bytes[0]=buf_rx_ppp[8];
   \   000000EA   8520               LDD     R18, Z+8
   \   000000EC   8328               ST      Y, R18
   1810                        if (length.word!=count_rx_ppp-8)return(1);
   \   000000EE   8128               LD      R18, Y
   \   000000F0   8139               LDD     R19, Y+1
   \   000000F2   01C2               MOVW    R25:R24, R5:R4
   \   000000F4   9708               SBIW    R25:R24, 8
   \   000000F6   1728               CP      R18, R24
   \   000000F8   0739               CPC     R19, R25
   \   000000FA   F009               BREQ    $+2+2
   \   000000FC   CF8A               RJMP    ??proc_ppp_packet_1
   1811                        if (count_rx_ppp>MAX_DL_LCP)return(1);//íĺ âîńďđčíčěŕňü äëčííűĺ ďŕęĺňű                           
   \   000000FE   E229               LDI     R18, 41
   \   00000100   1642               CP      R4, R18
   \   00000102   E020               LDI     R18, 0
   \   00000104   0652               CPC     R5, R18
   \   00000106   F008               BRCS    $+2+2
   \   00000108   CF84               RJMP    ??proc_ppp_packet_1
   1812                        
   1813                        vol_length_opt=count_rx_ppp-12;
   \   0000010A   EF24               LDI     R18, 244
   \   0000010C   0E42               ADD     R4, R18
   1814                        count_length_opt=0;
   \   0000010E   2422               CLR     R2
   1815                        ind_opt=9;  
   \   00000110   E079               LDI     R23, 9
   1816                       
   1817                        ln_rejc_lcp=0;
   \   00000112   01F8               MOVW    R31:R30, R17:R16
   \   00000114   96FD               ADIW    R31:R30, 61
   \   00000116   8220               ST      Z, R2
   1818                        ln_ack_lcp=0;
   \   00000118   01FA               MOVW    R31:R30, R21:R20
   \   0000011A   AE23               STD     Z+59, R2
   1819                        ln_nak_lcp=0;
   \   0000011C   01F8               MOVW    R31:R30, R17:R16
   \   0000011E   96FE               ADIW    R31:R30, 62
   \   00000120   8220               ST      Z, R2
   1820                        ln_rej_lcp=0; 
   \   00000122   01FA               MOVW    R31:R30, R21:R20
   \   00000124   AE22               STD     Z+58, R2
   1821                        
   1822                                            
   1823                       
   1824                                     
   1825                        switch (buf_rx_ppp[5])      
   \   00000126   8D24               LDD     R18, Z+28
   \   00000128   01FD               MOVW    R31:R30, R27:R26
   \   0000012A   8135               LDD     R19, Z+5
   \   0000012C   5031               SUBI    R19, 1
   \   0000012E   F051               BREQ    ??proc_ppp_packet_11
   \   00000130   953A               DEC     R19
   \   00000132   F409               BRNE    $+2+2
   \   00000134   C0B6               RJMP    ??proc_ppp_packet_12
   \   00000136   953A               DEC     R19
   \   00000138   F409               BRNE    $+2+2
   \   0000013A   C0BF               RJMP    ??proc_ppp_packet_13
   \   0000013C   953A               DEC     R19
   \   0000013E   F409               BRNE    $+2+2
   \   00000140   C0BC               RJMP    ??proc_ppp_packet_13
   \   00000142   CF67               RJMP    ??proc_ppp_packet_1
   1826                            {
   1827                            case CONF_REQ :          
   1828                           // (ĺńëč âîîáůĺ íĺ ňĺ îďöčč ňî ńáđîń ęîäŕ äŕňü) 
   1829                                //ďđîâĺđęŕ ďđĺäëîćĺííîé ęîíôčăóđŕöčč îň ńĺđâĺđŕ    
   1830                                //ĺńëč íóćíŕ˙ ęîíôčăóđŕöč˙ ňî ńîáűňčĺ RCR+                  
   1831                                //ĺńëč íĺň ňî RCR-;                       
   1832                              
   1833                       /*
   1834                             for(i=0;i<vol_length_opt;i++)              //ńîăëŕřĺíčĺ íŕ ëţáóţ ęîíôčăóđŕöčţ
   1835                                 {
   1836                                 buf_ack_opt_lcp[ln_ack_lcp]=buf_rx_ppp[ind_opt];
   1837                                 ln_ack_lcp++;
   1838                                 //count_length_opt++;
   1839                                 ind_opt++;
   1840                                 }
   1841                            
   1842                            LCP_event=RCR_PL;
   1843                            i_scan_lcp=buf_rx_ppp[6];    // ďđčńâîĺíčĺ čäĺíňčôčęŕňîđŕ                   
   1844                            return(1); 
   1845                               */
   1846                          
   1847                              fl_opt.zap_opt=0;  
   \                     ??proc_ppp_packet_11:
   \   00000144   94E8               CLT
   \   00000146   F865               BLD     R6, 5
   \   00000148   C01C               RJMP    ??proc_ppp_packet_14
   1848                          
   1849          next_opt_lcp_11:  if(count_length_opt==vol_length_opt) goto end_pcp_opt_11;
   1850                                                                          //îáđŕáîňŕíű âńĺ îďöčč
   1851                  switch(buf_rx_ppp[ind_opt])
   1852                  {
   1853                     case AUT_PROT:
   1854          
   1855                          if ((buf_rx_ppp[ind_opt+2]!=0xc0)||(buf_rx_ppp[ind_opt+3]!=0x23))
   1856                          {
   1857                            fl_opt.zap_opt=1;
   1858                            
   1859                                                    
   1860                            buf_nak_opt_lcp[ln_nak_lcp]=3;
   1861                            ln_nak_lcp++;                                        
   1862                            buf_nak_opt_lcp[ln_nak_lcp]=4;
   1863                            ln_nak_lcp++;
   1864                            buf_nak_opt_lcp[ln_nak_lcp]=0xc0; 
   1865                            ln_nak_lcp++;                     
   1866                            buf_nak_opt_lcp[ln_nak_lcp]=0x23; 
   1867                            ln_nak_lcp++;        
   1868                           
   1869                          //  count_length_opt=count_length_opt+buf_rx_ppp[ind_opt+1];        
   1870                          //  ind_opt=ind_opt+buf_rx_ppp[ind_opt+1];      
   1871                          }
   1872                          else for(i=0;i<buf_rx_ppp[ind_opt+1];i++){buf_ack_opt_lcp[ln_ack_lcp]=buf_rx_ppp[ind_opt+i];ln_ack_lcp++;}
   \                     ??proc_ppp_packet_15:
   \   0000014A   014C               MOVW    R9:R8, R25:R24
   \   0000014C   0C80               ADD     R8, R0
   \   0000014E   1C91               ADC     R9, R1
   \   00000150   01FD               MOVW    R31:R30, R27:R26
   \   00000152   0DE8               ADD     R30, R8
   \   00000154   1DF9               ADC     R31, R9
   \   00000156   8160               LD      R22, Z
   \   00000158   01FA               MOVW    R31:R30, R21:R20
   \   0000015A   AC83               LDD     R8, Z+59
   \   0000015C   01F8               MOVW    R31:R30, R17:R16
   \   0000015E   0DE8               ADD     R30, R8
   \   00000160   1DF1               ADC     R31, R1
   \   00000162   8365               STD     Z+5, R22
   \   00000164   01FA               MOVW    R31:R30, R21:R20
   \   00000166   AD63               LDD     R22, Z+59
   \   00000168   9563               INC     R22
   \   0000016A   AF63               STD     Z+59, R22
   \   0000016C   9601               ADIW    R25:R24, 1
   \                     ??proc_ppp_packet_16:
   \   0000016E   01F9               MOVW    R31:R30, R19:R18
   \   00000170   8161               LDD     R22, Z+1
   \   00000172   1786               CP      R24, R22
   \   00000174   0591               CPC     R25, R1
   \   00000176   F348               BRCS    ??proc_ppp_packet_15
   1873                          
   1874                      count_length_opt=count_length_opt+buf_rx_ppp[ind_opt+1];        
   \                     ??proc_ppp_packet_17:
   \   00000178   01F9               MOVW    R31:R30, R19:R18
   \   0000017A   8161               LDD     R22, Z+1
   \   0000017C   0E26               ADD     R2, R22
   1875                      ind_opt=ind_opt+buf_rx_ppp[ind_opt+1];     
   \   0000017E   8121               LDD     R18, Z+1
   \   00000180   0F72               ADD     R23, R18
   1876                      goto next_opt_lcp_11;                                  
   \                     ??proc_ppp_packet_14:
   \   00000182   1424               CP      R2, R4
   \   00000184   F409               BRNE    $+2+2
   \   00000186   C081               RJMP    ??proc_ppp_packet_18
   \   00000188   2E07               MOV     R0, R23
   \   0000018A   2411               CLR     R1
   \   0000018C   019D               MOVW    R19:R18, R27:R26
   \   0000018E   0D20               ADD     R18, R0
   \   00000190   1D31               ADC     R19, R1
   \   00000192   01F9               MOVW    R31:R30, R19:R18
   \   00000194   8160               LD      R22, Z
   \   00000196   5063               SUBI    R22, 3
   \   00000198   F009               BREQ    $+2+2
   \   0000019A   C040               RJMP    ??proc_ppp_packet_19
   \   0000019C   8162               LDD     R22, Z+2
   \   0000019E   3C60               CPI     R22, 192
   \   000001A0   F419               BRNE    ??proc_ppp_packet_20
   \   000001A2   8163               LDD     R22, Z+3
   \   000001A4   3263               CPI     R22, 35
   \   000001A6   F1B9               BREQ    ??proc_ppp_packet_21
   \                     ??proc_ppp_packet_20:
   \   000001A8   9468               SET
   \   000001AA   F865               BLD     R6, 5
   \   000001AC   E063               LDI     R22, 3
   \   000001AE   01F8               MOVW    R31:R30, R17:R16
   \   000001B0   96FE               ADIW    R31:R30, 62
   \   000001B2   8000               LD      R0, Z
   \   000001B4   01F8               MOVW    R31:R30, R17:R16
   \   000001B6   0DE0               ADD     R30, R0
   \   000001B8   1DF1               ADC     R31, R1
   \   000001BA   A361               STD     Z+33, R22
   \   000001BC   01F8               MOVW    R31:R30, R17:R16
   \   000001BE   96FE               ADIW    R31:R30, 62
   \   000001C0   8160               LD      R22, Z
   \   000001C2   9563               INC     R22
   \   000001C4   8360               ST      Z, R22
   \   000001C6   E064               LDI     R22, 4
   \   000001C8   01F8               MOVW    R31:R30, R17:R16
   \   000001CA   96FE               ADIW    R31:R30, 62
   \   000001CC   8000               LD      R0, Z
   \   000001CE   01F8               MOVW    R31:R30, R17:R16
   \   000001D0   0DE0               ADD     R30, R0
   \   000001D2   1DF1               ADC     R31, R1
   \   000001D4   A361               STD     Z+33, R22
   \   000001D6   01F8               MOVW    R31:R30, R17:R16
   \   000001D8   96FE               ADIW    R31:R30, 62
   \   000001DA   8160               LD      R22, Z
   \   000001DC   9563               INC     R22
   \   000001DE   8360               ST      Z, R22
   \   000001E0   EC60               LDI     R22, 192
   \   000001E2   01F8               MOVW    R31:R30, R17:R16
   \   000001E4   96FE               ADIW    R31:R30, 62
   \   000001E6   8000               LD      R0, Z
   \   000001E8   01F8               MOVW    R31:R30, R17:R16
   \   000001EA   0DE0               ADD     R30, R0
   \   000001EC   1DF1               ADC     R31, R1
   \   000001EE   A361               STD     Z+33, R22
   \   000001F0   01F8               MOVW    R31:R30, R17:R16
   \   000001F2   96FE               ADIW    R31:R30, 62
   \   000001F4   8160               LD      R22, Z
   \   000001F6   9563               INC     R22
   \   000001F8   8360               ST      Z, R22
   \   000001FA   E263               LDI     R22, 35
   \   000001FC   01F8               MOVW    R31:R30, R17:R16
   \   000001FE   96FE               ADIW    R31:R30, 62
   \   00000200   8000               LD      R0, Z
   \   00000202   01F8               MOVW    R31:R30, R17:R16
   \   00000204   0DE0               ADD     R30, R0
   \   00000206   1DF1               ADC     R31, R1
   \   00000208   A361               STD     Z+33, R22
   \   0000020A   01F8               MOVW    R31:R30, R17:R16
   \   0000020C   96FE               ADIW    R31:R30, 62
   \   0000020E   8160               LD      R22, Z
   \   00000210   9563               INC     R22
   \   00000212   8360               ST      Z, R22
   \   00000214   CFB1               RJMP    ??proc_ppp_packet_17
   \                     ??proc_ppp_packet_21:
   \   00000216   E080               LDI     R24, 0
   \   00000218   E090               LDI     R25, 0
   \   0000021A   CFA9               RJMP    ??proc_ppp_packet_16
   1877                     
   1878                       default:             
   1879                       for(i=0;i<buf_rx_ppp[ind_opt+1];i++){buf_ack_opt_lcp[ln_ack_lcp]=buf_rx_ppp[ind_opt+i];ln_ack_lcp++;}
   \                     ??proc_ppp_packet_19:
   \   0000021C   E080               LDI     R24, 0
   \   0000021E   E090               LDI     R25, 0
   \   00000220   C012               RJMP    ??proc_ppp_packet_22
   \                     ??proc_ppp_packet_23:
   \   00000222   014C               MOVW    R9:R8, R25:R24
   \   00000224   0C80               ADD     R8, R0
   \   00000226   1C91               ADC     R9, R1
   \   00000228   01FD               MOVW    R31:R30, R27:R26
   \   0000022A   0DE8               ADD     R30, R8
   \   0000022C   1DF9               ADC     R31, R9
   \   0000022E   8160               LD      R22, Z
   \   00000230   01FA               MOVW    R31:R30, R21:R20
   \   00000232   AC83               LDD     R8, Z+59
   \   00000234   01F8               MOVW    R31:R30, R17:R16
   \   00000236   0DE8               ADD     R30, R8
   \   00000238   1DF1               ADC     R31, R1
   \   0000023A   8365               STD     Z+5, R22
   \   0000023C   01FA               MOVW    R31:R30, R21:R20
   \   0000023E   AD63               LDD     R22, Z+59
   \   00000240   9563               INC     R22
   \   00000242   AF63               STD     Z+59, R22
   \   00000244   9601               ADIW    R25:R24, 1
   \                     ??proc_ppp_packet_22:
   \   00000246   01F9               MOVW    R31:R30, R19:R18
   \   00000248   8161               LDD     R22, Z+1
   \   0000024A   1786               CP      R24, R22
   \   0000024C   0591               CPC     R25, R1
   \   0000024E   F348               BRCS    ??proc_ppp_packet_23
   1880                       for(i=0;i<buf_rx_ppp[ind_opt+1];i++){buf_nak_opt_lcp[ln_nak_lcp]=buf_rx_ppp[ind_opt+i];ln_nak_lcp++;}
   \   00000250   E080               LDI     R24, 0
   \   00000252   E090               LDI     R25, 0
   \                     ??proc_ppp_packet_24:
   \   00000254   01F9               MOVW    R31:R30, R19:R18
   \   00000256   8161               LDD     R22, Z+1
   \   00000258   1786               CP      R24, R22
   \   0000025A   0591               CPC     R25, R1
   \   0000025C   F008               BRCS    $+2+2
   \   0000025E   CF8C               RJMP    ??proc_ppp_packet_17
   \   00000260   014C               MOVW    R9:R8, R25:R24
   \   00000262   0C80               ADD     R8, R0
   \   00000264   1C91               ADC     R9, R1
   \   00000266   01FD               MOVW    R31:R30, R27:R26
   \   00000268   0DE8               ADD     R30, R8
   \   0000026A   1DF9               ADC     R31, R9
   \   0000026C   8030               LD      R3, Z
   \   0000026E   01F8               MOVW    R31:R30, R17:R16
   \   00000270   96FE               ADIW    R31:R30, 62
   \   00000272   8080               LD      R8, Z
   \   00000274   01F8               MOVW    R31:R30, R17:R16
   \   00000276   0DE8               ADD     R30, R8
   \   00000278   1DF1               ADC     R31, R1
   \   0000027A   A231               STD     Z+33, R3
   \   0000027C   01F8               MOVW    R31:R30, R17:R16
   \   0000027E   96FE               ADIW    R31:R30, 62
   \   00000280   8160               LD      R22, Z
   \   00000282   9563               INC     R22
   \   00000284   8360               ST      Z, R22
   \   00000286   9601               ADIW    R25:R24, 1
   \   00000288   CFE5               RJMP    ??proc_ppp_packet_24
   1881                       count_length_opt=count_length_opt+buf_rx_ppp[ind_opt+1];        
   1882                       ind_opt=ind_opt+buf_rx_ppp[ind_opt+1];   
   1883                       goto next_opt_lcp_11; 
   1884                  }
   1885                                   
   1886             end_pcp_opt_11:                     
   1887                          
   1888                            if(fl_opt.zap_opt==0)LCP_event=RCR_PL;else LCP_event=RCR_MI;
   \                     ??proc_ppp_packet_18:
   \   0000028A   FA65               BST     R6, 5
   \   0000028C   F016               BRTS    ??proc_ppp_packet_25
   \   0000028E   E026               LDI     R18, 6
   \   00000290   C001               RJMP    ??proc_ppp_packet_26
   \                     ??proc_ppp_packet_25:
   \   00000292   E027               LDI     R18, 7
   \                     ??proc_ppp_packet_26:
   \   00000294   01F8               MOVW    R31:R30, R17:R16
   \   00000296   8323               STD     Z+3, R18
   1889                            fl_opt.zap_opt=0;
   1890                            i_scan_lcp=buf_rx_ppp[6];    // ďđčńâîĺíčĺ čäĺíňčôčęŕňîđŕ                   
   \   00000298   01FD               MOVW    R31:R30, R27:R26
   \   0000029A   8106               LDD     R16, Z+6
   \   0000029C   01FA               MOVW    R31:R30, R21:R20
   \   0000029E   8F05               STD     Z+29, R16
   \   000002A0   CEB8               RJMP    ??proc_ppp_packet_1
   1891                            return(1); 
   1892                               
   1893               /*              
   1894                            
   1895                 next_opt_lcp_1:  if(count_length_opt==vol_length_opt) { 
   1896              
   1897                                                                       goto end_pcp_opt_1;
   1898                                                                       }   //îáđŕáîňŕíű âńĺ îďöčč
   1899                                 
   1900                                 switch(buf_rx_ppp[ind_opt])
   1901                                    {
   1902                                      case MRU: 
   1903             
   1904                                           if (buf_rx_ppp[ind_opt+1]!=4)
   1905                                                {                                        
   1906                                                  for(i=5;i<=count_rx_ppp-4;i++){buf_rejc_opt_lcp[ln_rejc_lcp]=buf_rx_ppp[i];ln_rejc_lcp++;}
   1907                                                  LCP_event=RUC;
   1908                                                  return(1);
   1909                                                  } 
   1910                                           if ((buf_rx_ppp[ind_opt+2]==DL_PPP_IN_HI)&&(buf_rx_ppp[ind_opt+3]==DL_PPP_IN_LO)) 
   1911                                                 {    
   1912                                                  fl_opt.mru=1;
   1913                                                  buf_ack_opt_lcp[ln_ack_lcp]=buf_rx_ppp[ind_opt];
   1914                                                  ln_ack_lcp++;
   1915                                                  
   1916                                                  buf_ack_opt_lcp[ln_ack_lcp]=buf_rx_ppp[ind_opt+1];
   1917                                                  ln_ack_lcp++;
   1918                                                  
   1919                                                  buf_ack_opt_lcp[ln_ack_lcp]=buf_rx_ppp[ind_opt+2]; 
   1920                                                  ln_ack_lcp++;  
   1921                                                  
   1922                                                  buf_ack_opt_lcp[ln_ack_lcp]=buf_rx_ppp[ind_opt+3]; 
   1923                                                  ln_ack_lcp++; 
   1924                                                 }
   1925                                               else   
   1926                                                  {
   1927                                                  buf_nak_opt_lcp[ln_nak_lcp]=buf_rx_ppp[ind_opt];
   1928                                                  ln_nak_lcp++;
   1929                                                  
   1930                                                  buf_nak_opt_lcp[ln_nak_lcp]=buf_rx_ppp[ind_opt+1];
   1931                                                  ln_nak_lcp++;
   1932                                                  
   1933                                                  buf_nak_opt_lcp[ln_nak_lcp]=buf_rx_ppp[ind_opt+2]; 
   1934                                                  ln_nak_lcp++;  
   1935                                                  
   1936                                                  buf_nak_opt_lcp[ln_nak_lcp]=buf_rx_ppp[ind_opt+3]; 
   1937                                                  ln_nak_lcp++; 
   1938                                                  }  
   1939                                           count_length_opt=count_length_opt+buf_rx_ppp[ind_opt+1];        
   1940                                           ind_opt=ind_opt+buf_rx_ppp[ind_opt+1];
   1941                                           goto next_opt_lcp_1;   
   1942                                           
   1943                                      case ACCM:       
   1944                                            if (buf_rx_ppp[ind_opt+1]!=6)
   1945                                                {
   1946                                                  for(i=5;i<=count_rx_ppp-4;i++){buf_rejc_opt_lcp[ln_rejc_lcp]=buf_rx_ppp[i];ln_rejc_lcp++;}
   1947                                                  LCP_event=RUC;
   1948                                                  return(1);
   1949                                                  } 
   1950                                              
   1951                                              if ( 
   1952                                                     (buf_rx_ppp[ind_opt+2]==0)&&
   1953                                                     (buf_rx_ppp[ind_opt+3]==0)&& 
   1954                                                     (buf_rx_ppp[ind_opt+4]==0)&&
   1955                                                     (buf_rx_ppp[ind_opt+5]==0) 
   1956                                                  ) 
   1957                                                 
   1958                                                 {   
   1959                                                 
   1960                                                  fl_opt.accm=1;
   1961                                                  buf_ack_opt_lcp[ln_ack_lcp]=buf_rx_ppp[ind_opt];
   1962                                                  ln_ack_lcp++;
   1963                                                  
   1964                                                  buf_ack_opt_lcp[ln_ack_lcp]=buf_rx_ppp[ind_opt+1];
   1965                                                  ln_ack_lcp++;
   1966                                                  
   1967                                                  buf_ack_opt_lcp[ln_ack_lcp]=buf_rx_ppp[ind_opt+2]; 
   1968                                                  ln_ack_lcp++;  
   1969                                                  
   1970                                                  buf_ack_opt_lcp[ln_ack_lcp]=buf_rx_ppp[ind_opt+3]; 
   1971                                                  ln_ack_lcp++; 
   1972                                                  
   1973                                                  buf_ack_opt_lcp[ln_ack_lcp]=buf_rx_ppp[ind_opt+4]; 
   1974                                                  ln_ack_lcp++;
   1975                                                  
   1976                                                  buf_ack_opt_lcp[ln_ack_lcp]=buf_rx_ppp[ind_opt+5]; 
   1977                                                  ln_ack_lcp++;
   1978                                                 }
   1979                                               else   
   1980                                                  {
   1981                                                  buf_nak_opt_lcp[ln_nak_lcp]=buf_rx_ppp[ind_opt];
   1982                                                  ln_nak_lcp++;
   1983                                                  
   1984                                                  buf_nak_opt_lcp[ln_nak_lcp]=buf_rx_ppp[ind_opt+1];
   1985                                                  ln_nak_lcp++;
   1986                                                  
   1987                                                  buf_nak_opt_lcp[ln_nak_lcp]=buf_rx_ppp[ind_opt+2]; 
   1988                                                  ln_nak_lcp++;  
   1989                                                  
   1990                                                  buf_nak_opt_lcp[ln_nak_lcp]=buf_rx_ppp[ind_opt+3]; 
   1991                                                  ln_nak_lcp++;    
   1992                                                  
   1993                                                  buf_nak_opt_lcp[ln_nak_lcp]=buf_rx_ppp[ind_opt+4]; 
   1994                                                  ln_nak_lcp++;  
   1995                                                  
   1996                                                  buf_nak_opt_lcp[ln_nak_lcp]=buf_rx_ppp[ind_opt+5]; 
   1997                                                  ln_nak_lcp++; 
   1998                                                  }  
   1999                                           count_length_opt=count_length_opt+buf_rx_ppp[ind_opt+1];        
   2000                                           ind_opt=ind_opt+buf_rx_ppp[ind_opt+1];
   2001                                           goto next_opt_lcp_1;                                       
   2002          
   2003                                               
   2004                                      
   2005                                      case AUT_PROT:
   2006                                                if (((buf_rx_ppp[ind_opt+1]-2)%2)!=0) 
   2007                                                    {
   2008                                                     for(i=5;i<=count_rx_ppp-4;i++){buf_rejc_opt_lcp[ln_rejc_lcp]=buf_rx_ppp[i];ln_rejc_lcp++;}
   2009                                                     LCP_event=RUC;
   2010                                                     return(1);
   2011                                                    }  
   2012                                                for(i=0;i<(buf_rx_ppp[ind_opt+1]-2);i=i+2)               
   2013                                                   {
   2014                                                   if ((buf_rx_ppp[ind_opt+2+i]==0xc0)&&(buf_rx_ppp[ind_opt+3+i]==0x23)) 
   2015                                                        {
   2016                                                         
   2017                                                         fl_opt.aut_prot=1;
   2018                                                         
   2019                                                         buf_ack_opt_lcp[ln_ack_lcp]=buf_rx_ppp[ind_opt];
   2020                                                         ln_ack_lcp++;
   2021                                             
   2022                                                         buf_ack_opt_lcp[ln_ack_lcp]=buf_rx_ppp[ind_opt+1];
   2023                                                         ln_ack_lcp++;
   2024                                                  
   2025                                                         buf_ack_opt_lcp[ln_ack_lcp]=buf_rx_ppp[ind_opt+2+i]; 
   2026                                                         ln_ack_lcp++;  
   2027                                                  
   2028                                                         buf_ack_opt_lcp[ln_ack_lcp]=buf_rx_ppp[ind_opt+3+i]; 
   2029                                                         ln_ack_lcp++; 
   2030                                                        }
   2031                                                      else   
   2032                                                       {
   2033                                                       
   2034                                                       if (fl_opt.zap_opt==0)
   2035                                                           {
   2036                                                            fl_opt.zap_opt=1;                                            
   2037                                                            buf_nak_opt_lcp[ln_nak_lcp]=buf_rx_ppp[ind_opt];
   2038                                                            ln_nak_lcp++;                                        
   2039                                                            buf_nak_opt_lcp[ln_nak_lcp]=buf_rx_ppp[ind_opt+1];
   2040                                                            ln_nak_lcp++;
   2041                                                            }
   2042                                                       buf_nak_opt_lcp[ln_nak_lcp]=buf_rx_ppp[ind_opt+2+i]; 
   2043                                                       ln_nak_lcp++;                     
   2044                                                        buf_nak_opt_lcp[ln_nak_lcp]=buf_rx_ppp[ind_opt+3+i]; 
   2045                                                       ln_nak_lcp++;                                             
   2046                                                      }              
   2047                                                      
   2048                                                     }  
   2049                                           count_length_opt=count_length_opt+buf_rx_ppp[ind_opt+1];        
   2050                                           ind_opt=ind_opt+buf_rx_ppp[ind_opt+1];          
   2051                                           goto next_opt_lcp_1;                   
   2052                                            
   2053                                      case PFC:
   2054                                            if (buf_rx_ppp[ind_opt+1]!=2)
   2055                                                {                                        
   2056                                                  for(i=5;i<=count_rx_ppp-4;i++){buf_rejc_opt_lcp[ln_rejc_lcp]=buf_rx_ppp[i];ln_rejc_lcp++;}
   2057                                                  LCP_event=RUC;
   2058                                                  return(1);
   2059                                                  } 
   2060          
   2061          
   2062                                                  fl_opt.pfc=1;
   2063                                                  buf_ack_opt_lcp[ln_ack_lcp]=buf_rx_ppp[ind_opt];
   2064                                                  ln_ack_lcp++;
   2065                                                  
   2066                                                  buf_ack_opt_lcp[ln_ack_lcp]=buf_rx_ppp[ind_opt+1];
   2067                                                  ln_ack_lcp++;                                        
   2068                                                  
   2069                                                  count_length_opt=count_length_opt+buf_rx_ppp[ind_opt+1];        
   2070                                                  ind_opt=ind_opt+buf_rx_ppp[ind_opt+1];          
   2071                                                  goto next_opt_lcp_1;   
   2072                                                   
   2073                                            
   2074                                      case ACFC:      
   2075                                             if (buf_rx_ppp[ind_opt+1]!=2)
   2076                                                {                                        
   2077                                                  for(i=5;i<=count_rx_ppp-4;i++){buf_rejc_opt_lcp[ln_rejc_lcp]=buf_rx_ppp[i];ln_rejc_lcp++;}
   2078                                                  LCP_event=RUC;
   2079                                                  return(1);
   2080                                                  } 
   2081                                                  
   2082                                                  
   2083                                                  fl_opt.acfc=1;
   2084                                                  buf_ack_opt_lcp[ln_ack_lcp]=buf_rx_ppp[ind_opt];
   2085                                                  ln_ack_lcp++;
   2086                                                  
   2087                                                  buf_ack_opt_lcp[ln_ack_lcp]=buf_rx_ppp[ind_opt+1];
   2088                                                  ln_ack_lcp++;                                        
   2089                                                  
   2090                                                  count_length_opt=count_length_opt+buf_rx_ppp[ind_opt+1];        
   2091                                                  ind_opt=ind_opt+buf_rx_ppp[ind_opt+1];          
   2092                                                  goto next_opt_lcp_1;   
   2093                                      
   2094                                      default:
   2095          
   2096                                                  for(i=0;i<buf_rx_ppp[ind_opt+1];i++){buf_rej_opt_lcp[ln_rej_lcp]=buf_rx_ppp[ind_opt+i];ln_rej_lcp++;}
   2097                                                  count_length_opt=count_length_opt+buf_rx_ppp[ind_opt+1];        
   2098                                                  ind_opt=ind_opt+buf_rx_ppp[ind_opt+1];      
   2099                                            goto next_opt_lcp_1;        
   2100                                    }
   2101                                                      
   2102           end_pcp_opt_1:        
   2103                                 
   2104                             
   2105                                                                                          
   2106                                 
   2107                                 if (ln_rej_lcp!=0)                    
   2108                                   {
   2109               
   2110                                   LCP_event=RCR_MI;
   2111                                   fl_lcp2.nac_rej=1;
   2112                                   return(1); 
   2113                                   }
   2114                                 
   2115                                 
   2116                                
   2117                                     
   2118                                if(fl_opt.accm==0) 
   2119                                      {  
   2120                                      buf_nak_opt_lcp[ln_nak_lcp]=ACCM;
   2121                                      ln_nak_lcp++;                                        
   2122                                      buf_nak_opt_lcp[ln_nak_lcp]=6;
   2123                                      ln_nak_lcp++;
   2124                                      buf_nak_opt_lcp[ln_nak_lcp]=0; 
   2125                                      ln_nak_lcp++;  
   2126                                      buf_nak_opt_lcp[ln_nak_lcp]=0; 
   2127                                      ln_nak_lcp++;             
   2128                                      buf_nak_opt_lcp[ln_nak_lcp]=0; 
   2129                                      ln_nak_lcp++;                              
   2130                                      buf_nak_opt_lcp[ln_nak_lcp]=0; 
   2131                                      ln_nak_lcp++; 
   2132                                      }
   2133                                               
   2134                                if(fl_opt.aut_prot==0) 
   2135                                      {    
   2136                                        
   2137                                
   2138                                   
   2139                                       
   2140                                      buf_nak_opt_lcp[ln_nak_lcp]=AUT_PROT;
   2141                                      ln_nak_lcp++;
   2142                                                  
   2143                                      buf_nak_opt_lcp[ln_nak_lcp]=4;
   2144                                      ln_nak_lcp++;
   2145                                                  
   2146                                      buf_nak_opt_lcp[ln_nak_lcp]=0xc0; 
   2147                                      ln_nak_lcp++;  
   2148                                      
   2149                                      buf_nak_opt_lcp[ln_nak_lcp]=0x23; 
   2150                                      ln_nak_lcp++;                    
   2151                                      }   
   2152                                if(fl_opt.pfc==0) 
   2153                                      { 
   2154                                      buf_nak_opt_lcp[ln_nak_lcp]=PFC;
   2155                                      ln_nak_lcp++;
   2156                                                  
   2157                                      buf_nak_opt_lcp[ln_nak_lcp]=2;
   2158                                      ln_nak_lcp++; 
   2159                                      }                  
   2160                               if(fl_opt.acfc==0) 
   2161                                      { 
   2162                                       buf_nak_opt_lcp[ln_nak_lcp]=ACFC;
   2163                                      ln_nak_lcp++;
   2164                                                  
   2165                                      buf_nak_opt_lcp[ln_nak_lcp]=2;
   2166                                      ln_nak_lcp++; 
   2167                                      }                   
   2168                                   
   2169                          
   2170                           
   2171                                                   
   2172                                   if (ln_nak_lcp!=0)                    
   2173                                   { 
   2174                 
   2175                                   LCP_event=RCR_MI;
   2176                                   fl_lcp2.nac_rej=0;  
   2177                                   i_scan_lcp=buf_rx_ppp[6];     // ďđčńâîĺíčĺ čäĺíňčôčęŕňîđŕ                 
   2178                                   return(1); 
   2179                                   } 
   2180                                 
   2181                                   if (ln_ack_lcp!=0)                    
   2182                                   {
   2183                                   
   2184                                   
   2185                                   LCP_event=RCR_PL;
   2186                                   i_scan_lcp=buf_rx_ppp[6];    // ďđčńâîĺíčĺ čäĺíňčôčęŕňîđŕ                   
   2187                                   return(1); 
   2188                                   }  
   2189                                
   2190                                
   2191                                  
   2192                                break; 
   2193                                */
   2194                                 
   2195                            case CONF_ACK : 
   2196                                //ďđîâĺđęŕ îďöčé (ĺńëč âîîáůĺ íĺ ňĺ îďöčč ňî ńáđîń ęîäŕ äŕňü)
   2197                                //îďöčč ňŕ, ňî ńîáűňčĺ RCA
   2198                              
   2199                              if(buf_rx_ppp[6]!=i_scr_lcp)return(1); //ďđîâĺđęŕ čäĺíňčôčęŕňîđŕ
   \                     ??proc_ppp_packet_12:
   \   000002A2   8136               LDD     R19, Z+6
   \   000002A4   1732               CP      R19, R18
   \   000002A6   F009               BREQ    $+2+2
   \   000002A8   CEB4               RJMP    ??proc_ppp_packet_1
   2200                              //íĺ îáđŕáŕňűâŕňü îďöčč
   2201                              //ńđŕçó RCA
   2202                              LCP_event=RCA;
   \   000002AA   E028               LDI     R18, 8
   \   000002AC   01F8               MOVW    R31:R30, R17:R16
   \   000002AE   8323               STD     Z+3, R18
   2203                              i_scr_lcp++;//ďđčđŕůĺíčĺ čäĺíňčôčęŕňîđŕ                      
   \   000002B0   01FA               MOVW    R31:R30, R21:R20
   \   000002B2   8D04               LDD     R16, Z+28
   \   000002B4   9503               INC     R16
   \   000002B6   8F04               STD     Z+28, R16
   \   000002B8   CEAC               RJMP    ??proc_ppp_packet_1
   2204                              return(1);  
   2205                              
   2206                              /*
   2207             next_opt_lcp_2:  if(count_length_opt==vol_length_opt) goto end_pcp_opt_2;   //îáđŕáîňŕíű âńĺ îďöčč
   2208                                 
   2209                                 switch(buf_rx_ppp[ind_opt])
   2210                                    {
   2211                                      case ACCM:       
   2212                                            if (buf_rx_ppp[ind_opt+1]!=6)
   2213                                                {
   2214                                                  for(i=5;i<=count_rx_ppp-4;i++){buf_rejc_opt_lcp[ln_rejc_lcp]=buf_rx_ppp[i];ln_rejc_lcp++;}
   2215                                                  LCP_event=RUC;
   2216                                                  return(1);
   2217                                                  } 
   2218                                              
   2219                                              if ( 
   2220                                                     (buf_rx_ppp[ind_opt+2]==0)&&
   2221                                                     (buf_rx_ppp[ind_opt+3]==0x0a)&& 
   2222                                                     (buf_rx_ppp[ind_opt+4]==0)&&
   2223                                                     (buf_rx_ppp[ind_opt+5]==0) 
   2224                                                  )  fl_opt.accm=1;                                        
   2225                                               
   2226                                                 
   2227                                               
   2228                                                
   2229                                           count_length_opt=count_length_opt+buf_rx_ppp[ind_opt+1];        
   2230                                           ind_opt=ind_opt+buf_rx_ppp[ind_opt+1];
   2231                                           goto next_opt_lcp_2;     
   2232                                        
   2233                                        case PFC:
   2234                                            if (buf_rx_ppp[ind_opt+1]!=2)
   2235                                                {                                        
   2236                                                  for(i=5;i<=count_rx_ppp-4;i++){buf_rejc_opt_lcp[ln_rejc_lcp]=buf_rx_ppp[i];ln_rejc_lcp++;}
   2237                                                  LCP_event=RUC;
   2238                                                  return(1);
   2239                                                  } 
   2240          
   2241                                                  fl_opt.pfc=1;
   2242                                                  count_length_opt=count_length_opt+buf_rx_ppp[ind_opt+1];        
   2243                                                  ind_opt=ind_opt+buf_rx_ppp[ind_opt+1];          
   2244                                                  goto next_opt_lcp_2;   
   2245                                                   
   2246                                            
   2247                                      case ACFC:      
   2248                                             if (buf_rx_ppp[ind_opt+1]!=2)
   2249                                                {                                        
   2250                                                  for(i=5;i<=count_rx_ppp-4;i++){buf_rejc_opt_lcp[ln_rejc_lcp]=buf_rx_ppp[i];ln_rejc_lcp++;}
   2251                                                  LCP_event=RUC;
   2252                                                  return(1);
   2253                                                  } 
   2254          
   2255                                                  fl_opt.acfc=1;
   2256                                                                                      
   2257                                                  
   2258                                                  count_length_opt=count_length_opt+buf_rx_ppp[ind_opt+1];        
   2259                                                  ind_opt=ind_opt+buf_rx_ppp[ind_opt+1];          
   2260                                                  goto next_opt_lcp_2;      
   2261                                      
   2262                                      default:    for(i=5;i<=count_rx_ppp-4;i++){buf_rejc_opt_lcp[ln_rejc_lcp]=buf_rx_ppp[i];ln_rejc_lcp++;}
   2263                                                  LCP_event=RUC;
   2264                                                  return(1);    
   2265                                            
   2266                                    }
   2267                                
   2268                                
   2269            end_pcp_opt_2:      if((fl_opt.accm==1)&&(fl_opt.acfc==1)&&(fl_opt.pfc==1))
   2270                                  {       
   2271                                            
   2272                                   LCP_event=RCA;
   2273                                   i_scr_lcp++;//ďđčđŕůĺíčĺ čäĺíňčôčęŕňîđŕ                      
   2274                                   return(1);      
   2275                                  } 
   2276                                  else
   2277                                  {
   2278                                  for(i=5;i<=count_rx_ppp-4;i++){buf_rejc_opt_lcp[ln_rejc_lcp]=buf_rx_ppp[i];ln_rejc_lcp++;}
   2279                                  LCP_event=RUC;
   2280                                  return(1);               
   2281                                  }
   2282                                  */        
   2283                                 
   2284                            case CONF_NAK : 
   2285                                    //!!!!! ďîäóěŕňü                    
   2286                                  // ňî RCN íî âńĺ đŕâíî çŕďđîń ňĺő ćĺ îďöčé  
   2287                                if(buf_rx_ppp[6]!=i_scr_lcp)return(1);                        //ďđîâĺđęŕ čäĺíňčôčęŕňîđŕ
   \                     ??proc_ppp_packet_13:
   \   000002BA   8136               LDD     R19, Z+6
   \   000002BC   1732               CP      R19, R18
   \   000002BE   F009               BREQ    $+2+2
   \   000002C0   CEA8               RJMP    ??proc_ppp_packet_1
   2288                                i_scr_lcp++;//ďđčđŕůĺíčĺ čäĺíňčôčęŕňîđŕ
   \   000002C2   01FA               MOVW    R31:R30, R21:R20
   \   000002C4   8D24               LDD     R18, Z+28
   \   000002C6   9523               INC     R18
   \   000002C8   8F24               STD     Z+28, R18
   2289                                LCP_event=RCN; 
   \   000002CA   01F8               MOVW    R31:R30, R17:R16
   \   000002CC   8373               STD     Z+3, R23
   \   000002CE   CEA1               RJMP    ??proc_ppp_packet_1
   2290                                
   2291                                
   2292                                return(1); 
   2293                            case CONF_REJ :
   2294                                  // !!!!! ďîäóěŕňü!!!!!!!!
   2295                                 // ňî RCN íî âńĺ đŕâíî çŕďđîń ňĺő ćĺ îďöčé 
   2296                                if(buf_rx_ppp[6]!=i_scr_lcp)return(1);                        //ďđîâĺđęŕ čäĺíňčôčęŕňîđŕ
   2297                                i_scr_lcp++;//ďđčđŕůĺíčĺ čäĺíňčôčęŕňîđŕ
   2298                                LCP_event=RCN;
   2299          
   2300                                return(1);          
   2301                                           
   2302                            } 
   2303                              
   2304                 break;
   2305                 
   2306                 case PR_PAP:   
   2307                      
   2308                      
   2309                      
   2310                    
   2311            
   2312                         
   2313                      // çäĺńü  ďđîâĺđęŕ îáůĺé äëčíű     
   2314                        length.bytes[1]=buf_rx_ppp[5];
   \                     ??proc_ppp_packet_8:
   \   000002D0   01FD               MOVW    R31:R30, R27:R26
   \   000002D2   8105               LDD     R16, Z+5
   \   000002D4   8309               STD     Y+1, R16
   2315                        length.bytes[0]=buf_rx_ppp[6];
   \   000002D6   8106               LDD     R16, Z+6
   \   000002D8   8308               ST      Y, R16
   2316                        if (length.word!=count_rx_ppp-6)return(1);
   \   000002DA   8108               LD      R16, Y
   \   000002DC   8119               LDD     R17, Y+1
   \   000002DE   1702               CP      R16, R18
   \   000002E0   0713               CPC     R17, R19
   \   000002E2   F009               BREQ    $+2+2
   \   000002E4   CE96               RJMP    ??proc_ppp_packet_1
   2317                        if (count_rx_ppp>MAX_DL_PAP)return(1);//íĺ âîńďđčíčěŕňü äëčííűĺ ďŕęĺňű                           
   \   000002E6   E30D               LDI     R16, 61
   \   000002E8   1640               CP      R4, R16
   \   000002EA   E000               LDI     R16, 0
   \   000002EC   0650               CPC     R5, R16
   \   000002EE   F008               BRCS    $+2+2
   \   000002F0   CE90               RJMP    ??proc_ppp_packet_1
   2318                          
   2319          
   2320                                     
   2321                        switch (buf_rx_ppp[3])      
   \   000002F2   8103               LDD     R16, Z+3
   \   000002F4   5002               SUBI    R16, 2
   \   000002F6   F009               BREQ    $+2+2
   \   000002F8   CE8C               RJMP    ??proc_ppp_packet_1
   2322                            {
   2323                            case CONF_ACK :
   2324                                 if(buf_rx_ppp[4]!=i_scr_pap)return(1);     //ďđîâĺđęŕ čäĺíňčôčęŕňîđŕ
   \   000002FA   8104               LDD     R16, Z+4
   \   000002FC   01FA               MOVW    R31:R30, R21:R20
   \   000002FE   A110               LDD     R17, Z+32
   \   00000300   1701               CP      R16, R17
   \   00000302   F009               BREQ    $+2+2
   \   00000304   CE86               RJMP    ??proc_ppp_packet_1
   2325                                 PAP_event=RCA; 
   \   00000306   E008               LDI     R16, 8
   \   00000308   8701               STD     Z+9, R16
   \   0000030A   CE83               RJMP    ??proc_ppp_packet_1
   2326                                 return(1);                 
   2327                            } 
   2328                  
   2329                 break;
   2330                 
   2331                 
   2332                 case PR_IPCP: 
   2333                 
   2334                       
   2335                        
   2336                        // çäĺńü  ďđîâĺđęŕ îáůĺé äëčíű     
   2337                        length.bytes[1]=buf_rx_ppp[5];
   \                     ??proc_ppp_packet_9:
   \   0000030C   01FD               MOVW    R31:R30, R27:R26
   \   0000030E   8105               LDD     R16, Z+5
   \   00000310   8309               STD     Y+1, R16
   2338                        length.bytes[0]=buf_rx_ppp[6];
   \   00000312   8106               LDD     R16, Z+6
   \   00000314   8308               ST      Y, R16
   2339                        if (length.word!=count_rx_ppp-6)return(1);
   \   00000316   8108               LD      R16, Y
   \   00000318   8119               LDD     R17, Y+1
   \   0000031A   1702               CP      R16, R18
   \   0000031C   0713               CPC     R17, R19
   \   0000031E   F009               BREQ    $+2+2
   \   00000320   CE78               RJMP    ??proc_ppp_packet_1
   2340                        if (count_rx_ppp>MAX_DL_IPCP)return(1);//íĺ âîńďđčíčěŕňü äëčííűĺ ďŕęĺňű                           
   \   00000322   E204               LDI     R16, 36
   \   00000324   1640               CP      R4, R16
   \   00000326   E000               LDI     R16, 0
   \   00000328   0650               CPC     R5, R16
   \   0000032A   F008               BRCS    $+2+2
   \   0000032C   CE72               RJMP    ??proc_ppp_packet_1
   2341                        
   2342                        vol_length_opt=count_rx_ppp-10;
   \   0000032E   EF06               LDI     R16, 246
   \   00000330   0E40               ADD     R4, R16
   2343                        count_length_opt=0;
   \   00000332   2422               CLR     R2
   2344                        ind_opt=7;  
   \   00000334   E077               LDI     R23, 7
   2345                       
   2346                        ln_rejc_ipcp=0;
   \   00000336   ....               LDI     R18, LOW(ip_pri_dns)
   \   00000338   ....               LDI     R19, (ip_pri_dns) >> 8
   \   0000033A   01F9               MOVW    R31:R30, R19:R18
   \   0000033C   8620               STD     Z+8, R2
   2347                        ln_ack_ipcp=0;
   \   0000033E   01FA               MOVW    R31:R30, R21:R20
   \   00000340   96FD               ADIW    R31:R30, 61
   \   00000342   8220               ST      Z, R2
   2348                        ln_nak_ipcp=0;
   \   00000344   01FA               MOVW    R31:R30, R21:R20
   \   00000346   96FE               ADIW    R31:R30, 62
   \   00000348   8220               ST      Z, R2
   2349                        ln_rej_ipcp=0; 
   \   0000034A   01FA               MOVW    R31:R30, R21:R20
   \   0000034C   96FC               ADIW    R31:R30, 60
   \   0000034E   8220               ST      Z, R2
   2350                        
   2351                       
   2352                                     
   2353                        switch (buf_rx_ppp[3])      
   \   00000350   01FA               MOVW    R31:R30, R21:R20
   \   00000352   8D16               LDD     R17, Z+30
   \   00000354   01FD               MOVW    R31:R30, R27:R26
   \   00000356   8103               LDD     R16, Z+3
   \   00000358   5001               SUBI    R16, 1
   \   0000035A   F041               BREQ    ??proc_ppp_packet_27
   \   0000035C   950A               DEC     R16
   \   0000035E   F129               BREQ    ??proc_ppp_packet_28
   \   00000360   950A               DEC     R16
   \   00000362   F171               BREQ    ??proc_ppp_packet_29
   \   00000364   950A               DEC     R16
   \   00000366   F409               BRNE    $+2+2
   \   00000368   C07E               RJMP    ??proc_ppp_packet_30
   \   0000036A   CE53               RJMP    ??proc_ppp_packet_1
   2354                            {
   2355                            case CONF_REQ : 
   2356                                   
   2357                                     
   2358                           // (ĺńëč âîîáůĺ íĺ ňĺ îďöčč ňî ńáđîń ęîäŕ äŕňü) 
   2359                                //ďđîâĺđęŕ ďđĺäëîćĺííîé ęîíôčăóđŕöčč îň ńĺđâĺđŕ    
   2360                                //ĺńëč íóćíŕ˙ ęîíôčăóđŕöč˙ ňî ńîáűňčĺ RCR+                  
   2361                                //ĺńëč íĺň ňî RCR-;                       
   2362                               
   2363                              for(i=0;i<vol_length_opt;i++){buf_ack_opt_ipcp[ln_ack_ipcp]=buf_rx_ppp[ind_opt+i];ln_ack_ipcp++;}
   \                     ??proc_ppp_packet_27:
   \   0000036C   E080               LDI     R24, 0
   \   0000036E   E090               LDI     R25, 0
   \   00000370   C011               RJMP    ??proc_ppp_packet_31
   \                     ??proc_ppp_packet_32:
   \   00000372   01FD               MOVW    R31:R30, R27:R26
   \   00000374   0FE8               ADD     R30, R24
   \   00000376   1FF9               ADC     R31, R25
   \   00000378   8127               LDD     R18, Z+7
   \   0000037A   01FA               MOVW    R31:R30, R21:R20
   \   0000037C   96FD               ADIW    R31:R30, 61
   \   0000037E   8100               LD      R16, Z
   \   00000380   01FA               MOVW    R31:R30, R21:R20
   \   00000382   0FE0               ADD     R30, R16
   \   00000384   1DF2               ADC     R31, R2
   \   00000386   A321               STD     Z+33, R18
   \   00000388   01FA               MOVW    R31:R30, R21:R20
   \   0000038A   96FD               ADIW    R31:R30, 61
   \   0000038C   8100               LD      R16, Z
   \   0000038E   9503               INC     R16
   \   00000390   8300               ST      Z, R16
   \   00000392   9601               ADIW    R25:R24, 1
   \                     ??proc_ppp_packet_31:
   \   00000394   1584               CP      R24, R4
   \   00000396   0592               CPC     R25, R2
   \   00000398   F360               BRCS    ??proc_ppp_packet_32
   2364                              IPCP_event=RCR_PL;
   \   0000039A   E006               LDI     R16, 6
   \   0000039C   01FA               MOVW    R31:R30, R21:R20
   \   0000039E   8703               STD     Z+11, R16
   2365                              i_scan_ipcp=buf_rx_ppp[4];    // ďđčńâîĺíčĺ čäĺíňčôčęŕňîđŕ                   
   \   000003A0   01FD               MOVW    R31:R30, R27:R26
   \   000003A2   8104               LDD     R16, Z+4
   \   000003A4   01FA               MOVW    R31:R30, R21:R20
   \   000003A6   8F07               STD     Z+31, R16
   \   000003A8   CE34               RJMP    ??proc_ppp_packet_1
   2366                              return(1);  
   2367                              
   2368                              //Ďîäňâĺđćäŕňü âńĺ!!!!!!!!!!
   2369                              
   2370          
   2371                                 
   2372                            case CONF_ACK : 
   2373                                //ďđîâĺđęŕ îďöčé (ĺńëč âîîáůĺ íĺ ňĺ îďöčč ňî ńáđîń ęîäŕ äŕňü)
   2374                                //îďöčč ňŕ, ňî ńîáűňčĺ RCA
   2375                            //  led2_on;    //ďîęŕ
   2376                            //  lock_it();    // ďîęŕ
   2377                              
   2378                             
   2379                                                   
   2380                              
   2381                              
   2382                              if(buf_rx_ppp[4]!=i_scr_ipcp)return(1);                        //ďđîâĺđęŕ čäĺíňčôčęŕňîđŕ
   \                     ??proc_ppp_packet_28:
   \   000003AA   8104               LDD     R16, Z+4
   \   000003AC   1701               CP      R16, R17
   \   000003AE   F009               BREQ    $+2+2
   \   000003B0   CE30               RJMP    ??proc_ppp_packet_1
   2383                                
   2384                               IPCP_event=RCA;
   \   000003B2   E008               LDI     R16, 8
   \   000003B4   01FA               MOVW    R31:R30, R21:R20
   \   000003B6   8703               STD     Z+11, R16
   2385                               i_scr_ipcp++;//ďđčđŕůĺíčĺ čäĺíňčôčęŕňîđŕ                      
   \   000003B8   8D06               LDD     R16, Z+30
   \   000003BA   9503               INC     R16
   \   000003BC   8F06               STD     Z+30, R16
   \   000003BE   CE29               RJMP    ??proc_ppp_packet_1
   2386                               return(1);  
   2387                               //ÍČ×ĹĂÎ ÄŔËÜŘĹ ÍĹ ĐŔÇÁČĐŔŇÜ!!!!!!!!!
   2388                        
   2389                                 
   2390                            case CONF_NAK :                     
   2391                                  // ňî RCN íî âńĺ đŕâíî çŕďđîń ňĺő ćĺ îďöčé  
   2392          
   2393                                if(buf_rx_ppp[4]!=i_scr_ipcp)return(1);                        //ďđîâĺđęŕ čäĺíňčôčęŕňîđŕ
   \                     ??proc_ppp_packet_29:
   \   000003C0   8104               LDD     R16, Z+4
   \   000003C2   1701               CP      R16, R17
   \   000003C4   F0C9               BREQ    ??proc_ppp_packet_33
   \   000003C6   CE25               RJMP    ??proc_ppp_packet_1
   2394                               
   2395                               
   2396              next_opt_ipcp_3:  if(count_length_opt==vol_length_opt) goto end_ipcp_opt_3;   //îáđŕáîňŕíű âńĺ îďöčč
   2397                                 
   2398                                 switch(buf_rx_ppp[ind_opt])
   2399                                    { 
   2400                                    
   2401                                      case IP_SELF:       
   2402                                            if (buf_rx_ppp[ind_opt+1]!=6)
   \                     ??proc_ppp_packet_34:
   \   000003C8   8161               LDD     R22, Z+1
   \   000003CA   3066               CPI     R22, 6
   \   000003CC   F009               BREQ    $+2+2
   \   000003CE   CE21               RJMP    ??proc_ppp_packet_1
   2403                                                {
   2404                                                 // for(i=3;i<=count_rx_ppp-4;i++){buf_rejc_opt_ipcp[ln_rejc_ipcp]=buf_rx_ppp[i];ln_rejc_ipcp++;}
   2405                                                 // IPCP_event=RUC;
   2406                                                  return(1);
   2407                                                  } 
   2408                                                   
   2409          
   2410                                                                                            
   2411                                                    
   2412                                                            
   2413                                                   
   2414                                                    ip_self[0]=buf_rx_ppp[ind_opt+2];
   \   000003D0   8162               LDD     R22, Z+2
   \   000003D2   01FC               MOVW    R31:R30, R25:R24
   \   000003D4   8360               ST      Z, R22
   2415                                                    ip_self[1]=buf_rx_ppp[ind_opt+3];
   \   000003D6   01F8               MOVW    R31:R30, R17:R16
   \   000003D8   8163               LDD     R22, Z+3
   \   000003DA   01FC               MOVW    R31:R30, R25:R24
   \   000003DC   8361               STD     Z+1, R22
   2416                                                    ip_self[2]=buf_rx_ppp[ind_opt+4];
   \   000003DE   01F8               MOVW    R31:R30, R17:R16
   \   000003E0   8164               LDD     R22, Z+4
   \   000003E2   01FC               MOVW    R31:R30, R25:R24
   \   000003E4   8362               STD     Z+2, R22
   2417                                                    ip_self[3]=buf_rx_ppp[ind_opt+5]; 
   \   000003E6   01F8               MOVW    R31:R30, R17:R16
   \   000003E8   8165               LDD     R22, Z+5
   \   000003EA   01FC               MOVW    R31:R30, R25:R24
   \                     ??proc_ppp_packet_35:
   \   000003EC   8363               STD     Z+3, R22
   2418                                                    
   2419                                                    fl_opt.ip_self=1;                                        
   2420                                                
   2421                                           count_length_opt=count_length_opt+buf_rx_ppp[ind_opt+1];        
   \                     ??proc_ppp_packet_36:
   \   000003EE   01F8               MOVW    R31:R30, R17:R16
   \   000003F0   8161               LDD     R22, Z+1
   \   000003F2   0E26               ADD     R2, R22
   2422                                           ind_opt=ind_opt+buf_rx_ppp[ind_opt+1];
   \   000003F4   8101               LDD     R16, Z+1
   \   000003F6   0F70               ADD     R23, R16
   2423                                           goto next_opt_ipcp_3;  
   \                     ??proc_ppp_packet_33:
   \   000003F8   1424               CP      R2, R4
   \   000003FA   F1C9               BREQ    ??proc_ppp_packet_37
   \   000003FC   2E07               MOV     R0, R23
   \   000003FE   2411               CLR     R1
   \   00000400   018D               MOVW    R17:R16, R27:R26
   \   00000402   0D00               ADD     R16, R0
   \   00000404   1D11               ADC     R17, R1
   \   00000406   01F8               MOVW    R31:R30, R17:R16
   \   00000408   8160               LD      R22, Z
   \   0000040A   5861               SUBI    R22, 129
   \   0000040C   F029               BREQ    ??proc_ppp_packet_38
   \   0000040E   5062               SUBI    R22, 2
   \   00000410   F0B1               BREQ    ??proc_ppp_packet_39
   \   00000412   5860               SUBI    R22, 128
   \   00000414   F2C9               BREQ    ??proc_ppp_packet_34
   \   00000416   CDFD               RJMP    ??proc_ppp_packet_1
   2424                                       
   2425                                       
   2426                                      case IP_PRI_DNS:       
   2427                                            if (buf_rx_ppp[ind_opt+1]!=6)
   \                     ??proc_ppp_packet_38:
   \   00000418   8161               LDD     R22, Z+1
   \   0000041A   3066               CPI     R22, 6
   \   0000041C   F009               BREQ    $+2+2
   \   0000041E   CDF9               RJMP    ??proc_ppp_packet_1
   2428                                                {
   2429                                               //   for(i=3;i<=count_rx_ppp-4;i++){buf_rejc_opt_ipcp[ln_rejc_ipcp]=buf_rx_ppp[i];ln_rejc_ipcp++;}
   2430                                               //   IPCP_event=RUC;
   2431                                                  return(1);
   2432                                                  } 
   2433                                                     
   2434                                                    ip_pri_dns[0]=buf_rx_ppp[ind_opt+2];
   \   00000420   8162               LDD     R22, Z+2
   \   00000422   01F9               MOVW    R31:R30, R19:R18
   \   00000424   8360               ST      Z, R22
   2435                                                    ip_pri_dns[1]=buf_rx_ppp[ind_opt+3];
   \   00000426   01F8               MOVW    R31:R30, R17:R16
   \   00000428   8163               LDD     R22, Z+3
   \   0000042A   01F9               MOVW    R31:R30, R19:R18
   \   0000042C   8361               STD     Z+1, R22
   2436                                                    ip_pri_dns[2]=buf_rx_ppp[ind_opt+4];
   \   0000042E   01F8               MOVW    R31:R30, R17:R16
   \   00000430   8164               LDD     R22, Z+4
   \   00000432   01F9               MOVW    R31:R30, R19:R18
   \   00000434   8362               STD     Z+2, R22
   2437                                                    ip_pri_dns[3]=buf_rx_ppp[ind_opt+5]; 
   \   00000436   01F8               MOVW    R31:R30, R17:R16
   \   00000438   8165               LDD     R22, Z+5
   \   0000043A   01F9               MOVW    R31:R30, R19:R18
   \   0000043C   CFD7               RJMP    ??proc_ppp_packet_35
   2438                            
   2439                                                    fl_opt.ip_pri_dns=1;                                        
   2440                                                
   2441                                           count_length_opt=count_length_opt+buf_rx_ppp[ind_opt+1];        
   2442                                           ind_opt=ind_opt+buf_rx_ppp[ind_opt+1];
   2443                                           goto next_opt_ipcp_3; 
   2444                                       
   2445                                      
   2446                                      case IP_SEC_DNS:       
   2447                                            if (buf_rx_ppp[ind_opt+1]!=6)
   \                     ??proc_ppp_packet_39:
   \   0000043E   8161               LDD     R22, Z+1
   \   00000440   3066               CPI     R22, 6
   \   00000442   F009               BREQ    $+2+2
   \   00000444   CDE6               RJMP    ??proc_ppp_packet_1
   2448                                                {
   2449                                                //  for(i=3;i<=count_rx_ppp-4;i++){buf_rejc_opt_ipcp[ln_rejc_ipcp]=buf_rx_ppp[i];ln_rejc_ipcp++;}
   2450                                                //  IPCP_event=RUC;
   2451                                                  return(1);
   2452                                                  } 
   2453                                              
   2454                                                    ip_sec_dns[0]=buf_rx_ppp[ind_opt+2];
   \   00000446   8162               LDD     R22, Z+2
   \   00000448   01F9               MOVW    R31:R30, R19:R18
   \   0000044A   8364               STD     Z+4, R22
   2455                                                    ip_sec_dns[1]=buf_rx_ppp[ind_opt+3];
   \   0000044C   01F8               MOVW    R31:R30, R17:R16
   \   0000044E   8163               LDD     R22, Z+3
   \   00000450   01F9               MOVW    R31:R30, R19:R18
   \   00000452   8365               STD     Z+5, R22
   2456                                                    ip_sec_dns[2]=buf_rx_ppp[ind_opt+4];
   \   00000454   01F8               MOVW    R31:R30, R17:R16
   \   00000456   8164               LDD     R22, Z+4
   \   00000458   01F9               MOVW    R31:R30, R19:R18
   \   0000045A   8366               STD     Z+6, R22
   2457                                                    ip_sec_dns[3]=buf_rx_ppp[ind_opt+5]; 
   \   0000045C   01F8               MOVW    R31:R30, R17:R16
   \   0000045E   8165               LDD     R22, Z+5
   \   00000460   01F9               MOVW    R31:R30, R19:R18
   \   00000462   8367               STD     Z+7, R22
   2458                                                    fl_opt.mru=1;                                        
   2459                                                
   2460                                           count_length_opt=count_length_opt+buf_rx_ppp[ind_opt+1];        
   \   00000464   CFC4               RJMP    ??proc_ppp_packet_36
   2461                                           ind_opt=ind_opt+buf_rx_ppp[ind_opt+1];
   2462                                           goto next_opt_ipcp_3; 
   2463                                       
   2464          
   2465                                      
   2466                                      default:   // for(i=3;i<=count_rx_ppp-4;i++){buf_rejc_opt_ipcp[ln_rejc_ipcp]=buf_rx_ppp[i];ln_rejc_ipcp++;}
   2467                                                 // IPCP_event=RUC;
   2468                                                  return(1);    
   2469                                            
   2470                                    }
   2471                                
   2472                                
   2473            end_ipcp_opt_3:                                        
   2474                                i_scr_ipcp++;//ďđčđŕůĺíčĺ čäĺíňčôčęŕňîđŕ
   2475                                IPCP_event=RCN;                                             
   2476                                return(1);         
   2477                                 
   2478                                
   2479                            case CONF_REJ :
   2480                                 // ňî RCN íî âńĺ đŕâíî çŕďđîń ňĺő ćĺ îďöčé 
   2481                                if(buf_rx_ppp[4]!=i_scr_ipcp)return(1);                        //ďđîâĺđęŕ čäĺíňčôčęŕňîđŕ
   \                     ??proc_ppp_packet_30:
   \   00000466   8104               LDD     R16, Z+4
   \   00000468   1701               CP      R16, R17
   \   0000046A   F009               BREQ    $+2+2
   \   0000046C   CDD2               RJMP    ??proc_ppp_packet_1
   \                     ??proc_ppp_packet_37:
   \   0000046E   01FA               MOVW    R31:R30, R21:R20
   \   00000470   8D06               LDD     R16, Z+30
   \   00000472   9503               INC     R16
   \   00000474   8F06               STD     Z+30, R16
   \   00000476   E009               LDI     R16, 9
   \   00000478   8703               STD     Z+11, R16
   \   0000047A   CDCB               RJMP    ??proc_ppp_packet_1
   2482                                i_scr_ipcp++;//ďđčđŕůĺíčĺ čäĺíňčôčęŕňîđŕ
   2483                                IPCP_event=RCN;
   2484          
   2485                                return(1);      
   2486                            
   2487                              
   2488                            } 
   2489                                      
   2490                 break;        
   2491                     
   2492                  
   2493                 case PR_IP:            
   2494             
   2495             
   2496            
   2497            if(count_rx_ppp<(33+MIN_TR_HEAD))return(1); 
   \                     ??proc_ppp_packet_10:
   \   0000047C   E20D               LDI     R16, 45
   \   0000047E   1640               CP      R4, R16
   \   00000480   E000               LDI     R16, 0
   \   00000482   0650               CPC     R5, R16
   \   00000484   F408               BRCC    $+2+2
   \   00000486   CDC5               RJMP    ??proc_ppp_packet_1
   2498                 
   2499            Crc_out.bytes[0]=buf_rx_ppp[12];    //ďđîâĺđęŕ CRC IP 
   \   00000488   01FD               MOVW    R31:R30, R27:R26
   \   0000048A   8504               LDD     R16, Z+12
   \   0000048C   830A               STD     Y+2, R16
   2500            Crc_out.bytes[1]=buf_rx_ppp[13];  
   \   0000048E   8505               LDD     R16, Z+13
   \   00000490   830B               STD     Y+3, R16
   2501            buf_rx_ppp[12]=0; 
   \   00000492   E000               LDI     R16, 0
   \   00000494   8704               STD     Z+12, R16
   2502            buf_rx_ppp[13]=0; 
   \   00000496   8705               STD     Z+13, R16
   2503            temp.word=calc_crc_ip(&buf_rx_ppp[2],20);
   \   00000498   E124               LDI     R18, 20
   \   0000049A   E030               LDI     R19, 0
   \   0000049C   018D               MOVW    R17:R16, R27:R26
   \   0000049E   5F0E               SUBI    R16, 254
   \   000004A0   4F1F               SBCI    R17, 255
   \   000004A2   ....               RCALL   calc_crc_ip
   \   000004A4   8308               ST      Y, R16
   \   000004A6   8319               STD     Y+1, R17
   2504            if(Crc_out.word!=temp.word)return(1);
   \   000004A8   810A               LDD     R16, Y+2
   \   000004AA   811B               LDD     R17, Y+3
   \   000004AC   8128               LD      R18, Y
   \   000004AE   8139               LDD     R19, Y+1
   \   000004B0   1702               CP      R16, R18
   \   000004B2   0713               CPC     R17, R19
   \   000004B4   F009               BREQ    $+2+2
   \   000004B6   CDAD               RJMP    ??proc_ppp_packet_1
   2505          
   2506          
   2507            
   2508            
   2509            if((buf_rx_ppp[18]!=ip_self[0])||       //ńâĺđęŕ ńî ńâîčě IP
   2510             (buf_rx_ppp[19]!=ip_self[1])|| 
   2511             (buf_rx_ppp[20]!=ip_self[2])|| 
   2512             (buf_rx_ppp[21]!=ip_self[3]))return(1);
   \   000004B8   01FD               MOVW    R31:R30, R27:R26
   \   000004BA   8902               LDD     R16, Z+18
   \   000004BC   01FC               MOVW    R31:R30, R25:R24
   \   000004BE   8110               LD      R17, Z
   \   000004C0   1701               CP      R16, R17
   \   000004C2   F009               BREQ    $+2+2
   \   000004C4   CDA6               RJMP    ??proc_ppp_packet_1
   \   000004C6   01FD               MOVW    R31:R30, R27:R26
   \   000004C8   8903               LDD     R16, Z+19
   \   000004CA   01FC               MOVW    R31:R30, R25:R24
   \   000004CC   8111               LDD     R17, Z+1
   \   000004CE   1701               CP      R16, R17
   \   000004D0   F009               BREQ    $+2+2
   \   000004D2   CD9F               RJMP    ??proc_ppp_packet_1
   \   000004D4   01FD               MOVW    R31:R30, R27:R26
   \   000004D6   8904               LDD     R16, Z+20
   \   000004D8   01FC               MOVW    R31:R30, R25:R24
   \   000004DA   8112               LDD     R17, Z+2
   \   000004DC   1701               CP      R16, R17
   \   000004DE   F009               BREQ    $+2+2
   \   000004E0   CD98               RJMP    ??proc_ppp_packet_1
   \   000004E2   01FD               MOVW    R31:R30, R27:R26
   \   000004E4   8905               LDD     R16, Z+21
   \   000004E6   01FC               MOVW    R31:R30, R25:R24
   \   000004E8   8113               LDD     R17, Z+3
   \   000004EA   1701               CP      R16, R17
   \   000004EC   F009               BREQ    $+2+2
   \   000004EE   CD91               RJMP    ??proc_ppp_packet_1
   2513            
   2514           
   2515            
   2516            if(buf_rx_ppp[11]!=0x11)return(1);  //ńâĺđęŕ ń ďđîňîęîëîě UDP
   \   000004F0   01FD               MOVW    R31:R30, R27:R26
   \   000004F2   8503               LDD     R16, Z+11
   \   000004F4   3101               CPI     R16, 17
   \   000004F6   F009               BREQ    $+2+2
   \   000004F8   CD8C               RJMP    ??proc_ppp_packet_1
   2517            
   2518            
   2519          
   2520            
   2521            Crc_out.bytes[0]=buf_rx_ppp[28];    //ďđîâĺđęŕ CRC UDP 
   \   000004FA   8D04               LDD     R16, Z+28
   \   000004FC   830A               STD     Y+2, R16
   2522            Crc_out.bytes[1]=buf_rx_ppp[29];  
   \   000004FE   8D05               LDD     R16, Z+29
   \   00000500   830B               STD     Y+3, R16
   2523            buf_rx_ppp[28]=0; 
   \   00000502   E000               LDI     R16, 0
   \   00000504   8F04               STD     Z+28, R16
   2524            buf_rx_ppp[29]=0; 
   \   00000506   8F05               STD     Z+29, R16
   2525            temp.bytes[1]=buf_rx_ppp[26]; 
   \   00000508   8D02               LDD     R16, Z+26
   \   0000050A   8309               STD     Y+1, R16
   2526            temp.bytes[0]=buf_rx_ppp[27]; 
   \   0000050C   8D03               LDD     R16, Z+27
   \   0000050E   8308               ST      Y, R16
   2527            temp.word=calc_crc_udp_2(&buf_rx_ppp[0],temp.word);
   \   00000510   8128               LD      R18, Y
   \   00000512   8139               LDD     R19, Y+1
   \   00000514   018D               MOVW    R17:R16, R27:R26
   \   00000516   ....               RCALL   calc_crc_udp_2
   \   00000518   8308               ST      Y, R16
   \   0000051A   8319               STD     Y+1, R17
   2528            if(Crc_out.word!=temp.word)return(1); 
   \   0000051C   810A               LDD     R16, Y+2
   \   0000051E   811B               LDD     R17, Y+3
   \   00000520   8128               LD      R18, Y
   \   00000522   8139               LDD     R19, Y+1
   \   00000524   1702               CP      R16, R18
   \   00000526   0713               CPC     R17, R19
   \   00000528   F009               BREQ    $+2+2
   \   0000052A   CD73               RJMP    ??proc_ppp_packet_1
   2529             
   2530            
   2531             Crc_out.bytes[1]=port_udp>>8;
   \   0000052C   ....               LDI     R30, LOW(port_udp)
   \   0000052E   ....               LDI     R31, (port_udp) >> 8
   \   00000530   8111               LDD     R17, Z+1
   \   00000532   831B               STD     Y+3, R17
   2532             Crc_out.bytes[0]=port_udp;
   \   00000534   8100               LD      R16, Z
   \   00000536   830A               STD     Y+2, R16
   2533             if((buf_rx_ppp[24]!=Crc_out.bytes[1])||       //ďđîâĺđęŕ UDP ďîđňŕ 
   2534                (buf_rx_ppp[25]!=Crc_out.bytes[0]))return(1); 
   \   00000538   01FD               MOVW    R31:R30, R27:R26
   \   0000053A   8D00               LDD     R16, Z+24
   \   0000053C   811B               LDD     R17, Y+3
   \   0000053E   1701               CP      R16, R17
   \   00000540   F009               BREQ    $+2+2
   \   00000542   CD67               RJMP    ??proc_ppp_packet_1
   \   00000544   8D01               LDD     R16, Z+25
   \   00000546   811A               LDD     R17, Y+2
   \   00000548   1701               CP      R16, R17
   \   0000054A   F009               BREQ    $+2+2
   \   0000054C   CD62               RJMP    ??proc_ppp_packet_1
   2535            
   2536              
   2537            
   2538             
   2539             if(proc_udp_data(buf_rx_ppp,count_rx_ppp)==0)return(1); 
   \   0000054E   0192               MOVW    R19:R18, R5:R4
   \   00000550   018D               MOVW    R17:R16, R27:R26
   \   00000552   ....               RCALL   proc_udp_data
   \   00000554   CD5E               RJMP    ??proc_ppp_packet_1
   2540           
   2541                           
   2542              break;
   2543                } 
   2544           
   2545           return(1);  
   2546           }
   2547           
   2548           
   2549           
   2550           //!!!!!!!!!!!!!!!!!!!!!!!!!!!!!!!!!!!!!!!!!!!!!!!!!!!!!!!!!!!!!!
   2551           

   \                                 In segment CODE, align 2, keep-with-next
   2552           void send_no_sinc(unsigned char id,unsigned int dst,unsigned char error)
   \                     send_no_sinc:
   2553              {
   \   00000000   ........           CALL    ?PROLOGUE4_L09
   \   00000004   2FB0               MOV     R27, R16
   \   00000006   01C9               MOVW    R25:R24, R19:R18
   \   00000008   2FA1               MOV     R26, R17
   2554                 if(fl_ip.act_ip_end!=1)return;
   \   0000000A   ....               LDI     R30, LOW(cnt_pap_tm_out)
   \   0000000C   ....               LDI     R31, (cnt_pap_tm_out) >> 8
   \   0000000E   8104               LDD     R16, Z+4
   \   00000010   FF00               SBRS    R16, 0
   \   00000012   C051               RJMP    ??send_no_sinc_0
   2555                    fl_ip.act_ip_end=0;      
   \   00000014   8104               LDD     R16, Z+4
   \   00000016   7F0E               ANDI    R16, 0xFE
   \   00000018   8304               STD     Z+4, R16
   2556                    clr_cntr_nat();
   \   0000001A   ........           CALL    clr_cntr_nat
   2557                    clr_cntr_link();
   \   0000001E   ........           CALL    clr_cntr_link
   2558                    Obj_ppp_tx.prozr=FALSE;            
   \   00000022   ....               LDI     R16, LOW(Obj_ppp_tx)
   \   00000024   ....               LDI     R17, (Obj_ppp_tx) >> 8
   \   00000026   E020               LDI     R18, 0
   \   00000028   01F8               MOVW    R31:R30, R17:R16
   \   0000002A   8320               ST      Z, R18
   2559                    Obj_ppp_tx.version=VER2;      //âĺđńč˙ 
   \   0000002C   E022               LDI     R18, 2
   \   0000002E   8321               STD     Z+1, R18
   2560                    Obj_ppp_tx.type_pac=OTV;     //ňčď ďŕęĺňŕ
   \   00000030   E021               LDI     R18, 1
   \   00000032   8322               STD     Z+2, R18
   2561                    Obj_ppp_tx.num_src=num_self; // íîěĺđ îňďđŕâčňĺë˙
   \   00000034   ....               LDI     R30, LOW(num_self)
   \   00000036   ....               LDI     R31, (num_self) >> 8
   \   00000038   8120               LD      R18, Z
   \   0000003A   8131               LDD     R19, Z+1
   \   0000003C   01F8               MOVW    R31:R30, R17:R16
   \   0000003E   8323               STD     Z+3, R18
   \   00000040   8334               STD     Z+4, R19
   2562                    Obj_ppp_tx.num_dst=dst; // íîěĺđ ďîëó÷ŕňĺë˙
   \   00000042   8385               STD     Z+5, R24
   \   00000044   8396               STD     Z+6, R25
   2563                   
   2564                    Obj_ppp_tx.id_pac=id; // čäĺíňčôčęŕňîđ ďŕęĺňŕ  
   \   00000046   83B7               STD     Z+7, R27
   2565                    Obj_ppp_tx.p_opt=&buf_opt_tr[0]; // //óęŕçŕňĺëü áóôĺđŕ îďöčé          
   \   00000048   ....               LDI     R18, LOW(buf_opt_tr)
   \   0000004A   ....               LDI     R19, (buf_opt_tr) >> 8
   \   0000004C   8720               STD     Z+8, R18
   \   0000004E   8731               STD     Z+9, R19
   2566                    
   2567                    
   2568                  Obj_ppp_tx.l_opt=3;// äëčíŕ áóôĺđŕ îďöčé   
   \   00000050   E043               LDI     R20, 3
   \   00000052   8742               STD     Z+10, R20
   2569                  buf_opt_tr[0]=KOD_OP_ERROR;
   \   00000054   E044               LDI     R20, 4
   \   00000056   01F9               MOVW    R31:R30, R19:R18
   \   00000058   8340               ST      Z, R20
   2570                  buf_opt_tr[1]=3;
   \   0000005A   E043               LDI     R20, 3
   \   0000005C   8341               STD     Z+1, R20
   2571                  buf_opt_tr[2]=error;
   \   0000005E   83A2               STD     Z+2, R26
   2572                  
   2573                  //Obj_ppp_tx.kol_opt=1;// ęîëč÷ĺńňâî îďöčé     
   2574                 
   2575                 
   2576                   Obj_ppp_tx.l_data=0;   // äëčíŕ äŕííűő
   \   00000060   E020               LDI     R18, 0
   \   00000062   01F8               MOVW    R31:R30, R17:R16
   \   00000064   8726               STD     Z+14, R18
   \   00000066   8727               STD     Z+15, R18
   2577                   Obj_ppp_tx.p_data=&buf_tx_232[TR_OP_DATA+C1_PROT];  //óęŕçŕňĺëü áóôĺđŕ äŕííűő
   \   00000068   ....               LDI     R18, LOW((buf_tx_232 + 42))
   \   0000006A   ....               LDI     R19, HIGH((buf_tx_232 + 42))
   \   0000006C   8724               STD     Z+12, R18
   \   0000006E   8735               STD     Z+13, R19
   2578                  
   2579                   form_buf_tx_ppp();                            
   \   00000070   ........           CALL    form_buf_tx_ppp
   2580                   UCSR0A=UCSR0A | TXC;                            
   \   00000074   910000C0           LDS     R16, 192
   \   00000078   6400               ORI     R16, 0x40
   \   0000007A   930000C0           STS     192, R16
   2581                   UCSR0B=UCSR0B | TXEN;
   \   0000007E   910000C1           LDS     R16, 193
   \   00000082   6008               ORI     R16, 0x08
   \   00000084   930000C1           STS     193, R16
   2582                   UCSR0B=UCSR0B | TXCIE;
   \   00000088   910000C1           LDS     R16, 193
   \   0000008C   6400               ORI     R16, 0x40
   \   0000008E   930000C1           STS     193, R16
   2583                   if(check_cts()==1) return;                
   \   00000092   ........           CALL    check_cts
   \   00000096   3001               CPI     R16, 1
   \   00000098   F071               BREQ    ??send_no_sinc_0
   2584                   S2_RD;
   \   0000009A   9A40               SBI     0x08, 0x00
   \   0000009C   9841               CBI     0x08, 0x01
   2585                   UDR0=buf_tx_232[0];
   \   0000009E   9100....           LDS     R16, buf_tx_232
   \   000000A2   930000C6           STS     198, R16
   2586                   if(Regim==RG_DEBAG) UDR3=buf_tx_232[0];
   \   000000A6   9100....           LDS     R16, Regim
   \   000000AA   3001               CPI     R16, 1
   \   000000AC   F421               BRNE    ??send_no_sinc_0
   \   000000AE   9100....           LDS     R16, buf_tx_232
   \   000000B2   93000136           STS     310, R16
   \                     ??send_no_sinc_0:
   \   000000B6   E0E4               LDI     R30, 4
   \   000000B8   ........           JMP     ?EPILOGUE_B4_L09
   2587                   return;     
   2588              }
   2589          
   2590          

   \                                 In segment CODE, align 2, keep-with-next
   2591          unsigned char proc_paging(void)
   \                     proc_paging:
   2592          { 
   \   00000000   01AC               MOVW    R21:R20, R25:R24
   2593           if(fl_pg_out.hold_pg==1)
   \   00000002   ....               LDI     R30, LOW(Obj_ppp_tx)
   \   00000004   ....               LDI     R31, (Obj_ppp_tx) >> 8
   \   00000006   A123               LDD     R18, Z+35
   \   00000008   A101               LDD     R16, Z+33
   \   0000000A   FF05               SBRS    R16, 5
   \   0000000C   C041               RJMP    ??proc_paging_0
   2594              {
   2595              
   2596                   if((fl_pg_out.first_pg==1)&&(cnt_pg==0))
   \   0000000E   8D00               LDD     R16, Z+24
   \   00000010   8D11               LDD     R17, Z+25
   \   00000012   A131               LDD     R19, Z+33
   \   00000014   FF34               SBRS    R19, 4
   \   00000016   C008               RJMP    ??proc_paging_1
   \   00000018   2F30               MOV     R19, R16
   \   0000001A   2B31               OR      R19, R17
   \   0000001C   F429               BRNE    ??proc_paging_1
   2597                   { 
   2598                   cnt_pg=0;
   2599                   fl_pg_out.first_pg=0;
   2600                   fl_pg_out.end_pg=0;
   2601                   fl_pg_out.hold_pg=0;
   2602                   fl_pg_out.ch_crc=0;
   2603                   fl_pg_out.cor_pg=0;
   \                     ??proc_paging_2:
   \   0000001E   A101               LDD     R16, Z+33
   \   00000020   7C04               ANDI    R16, 0xC4
   \   00000022   A301               STD     Z+33, R16
   2604                   // äŕňü îřčáęó đŕńńčíőđîíčçŕöč˙ 
   2605                   return(1);
   \   00000024   E001               LDI     R16, 1
   \   00000026   C015               RJMP    ??proc_paging_3
   2606                   }
   2607              
   2608                  if((fl_pg_out.first_pg==1)&&(cnt_pg!=0))
   \                     ??proc_paging_1:
   \   00000028   A131               LDD     R19, Z+33
   \   0000002A   FF34               SBRS    R19, 4
   \   0000002C   C014               RJMP    ??proc_paging_4
   \   0000002E   2B01               OR      R16, R17
   \   00000030   F091               BREQ    ??proc_paging_4
   2609                   {                                      // ýňî â ńëó÷ŕĺ ęîăäŕ ďđîöĺńń ďđĺđâŕí ŕ ďîňîě çŕíîâî âîçîáíîâë˙ĺňń˙
   2610                    fl_pg_out.hold_pg=1;
   2611                    fl_pg_out.first_pg=0;
   2612                    cnt_pg=0;
   \                     ??proc_paging_5:
   \   00000032   E000               LDI     R16, 0
   \   00000034   8F00               STD     Z+24, R16
   \   00000036   8F01               STD     Z+25, R16
   2613                    id_pg_kp=id_pg_appl+1;
   \   00000038   9523               INC     R18
   \   0000003A   A322               STD     Z+34, R18
   2614                    fl_pg_out.cor_pg=1;
   \   0000003C   A101               LDD     R16, Z+33
   \   0000003E   7E0F               ANDI    R16, 0xEF
   \   00000040   6208               ORI     R16, 0x28
   \                     ??proc_paging_6:
   \   00000042   A301               STD     Z+33, R16
   2615                    goto check_end_pg;
   2616                   }
   2617                
   2618              
   2619               
   2620                
   2621                
   2622                if(id_pg_kp==id_pg_appl)
   2623                   {
   2624                    cnt_pg++;
   2625                    id_pg_kp++;
   2626                    fl_pg_out.cor_pg=1;
   2627                    goto check_end_pg;
   2628                   }
   2629                   else
   2630                   {
   2631                    fl_pg_out.cor_pg=0;
   2632                    if(id_pg_appl==(id_pg_kp-1))goto check_end_pg;
   2633                       else
   2634                       {
   2635                        cnt_pg=0;
   2636                        fl_pg_out.first_pg=0;
   2637                        fl_pg_out.end_pg=0;
   2638                        fl_pg_out.hold_pg=0;
   2639                        fl_pg_out.ch_crc=0;
   2640                        fl_pg_out.cor_pg=0;
   2641                        // äŕňü îřčáęó đŕńńčíőđîíčçŕöč˙ 
   2642                        return(1);
   2643                       }
   2644                   }   
   2645                   
   2646              }
   2647              else
   2648              {
   2649                if(fl_pg_out.first_pg==1)
   2650                   {
   2651                    fl_pg_out.hold_pg=1;
   2652                    fl_pg_out.first_pg=0;
   2653                    cnt_pg=0;
   2654                    id_pg_kp=id_pg_appl+1;
   2655                    fl_pg_out.cor_pg=1;
   2656                    goto check_end_pg;
   2657                   }
   2658                   else
   2659                   {
   2660                   cnt_pg=0;
   2661                   fl_pg_out.first_pg=0;
   2662                   fl_pg_out.end_pg=0;
   2663                   fl_pg_out.hold_pg=0;
   2664                   fl_pg_out.ch_crc=0;
   2665                   fl_pg_out.cor_pg=0;
   2666                   // äŕňü îřčáęó đŕńńčíőđîíčçŕöč˙ 
   2667                   return(1);
   2668                   }
   2669              }
   2670              
   2671          check_end_pg:
   2672              
   2673              if(fl_pg_out.end_pg==1)
   \                     ??proc_paging_7:
   \   00000044   A101               LDD     R16, Z+33
   \   00000046   FF00               SBRS    R16, 0
   \   00000048   C003               RJMP    ??proc_paging_8
   2674                 {
   2675                   fl_pg_out.hold_pg=0;
   2676                   fl_pg_out.first_pg=0;
   \   0000004A   A101               LDD     R16, Z+33
   \   0000004C   7C0F               ANDI    R16, 0xCF
   \   0000004E   A301               STD     Z+33, R16
   2677                 }
   2678                    
   2679          return(0);
   \                     ??proc_paging_8:
   \   00000050   E000               LDI     R16, 0
   \                     ??proc_paging_3:
   \   00000052   01CA               MOVW    R25:R24, R21:R20
   \   00000054   9508               RET
   \                     ??proc_paging_4:
   \   00000056   A182               LDD     R24, Z+34
   \   00000058   1782               CP      R24, R18
   \   0000005A   F461               BRNE    ??proc_paging_9
   \   0000005C   8D00               LDD     R16, Z+24
   \   0000005E   8D11               LDD     R17, Z+25
   \   00000060   5F0F               SUBI    R16, 255
   \   00000062   4F1F               SBCI    R17, 255
   \   00000064   8F00               STD     Z+24, R16
   \   00000066   8F11               STD     Z+25, R17
   \   00000068   A102               LDD     R16, Z+34
   \   0000006A   9503               INC     R16
   \   0000006C   A302               STD     Z+34, R16
   \   0000006E   A101               LDD     R16, Z+33
   \   00000070   6008               ORI     R16, 0x08
   \   00000072   CFE7               RJMP    ??proc_paging_6
   \                     ??proc_paging_9:
   \   00000074   A101               LDD     R16, Z+33
   \   00000076   7F07               ANDI    R16, 0xF7
   \   00000078   A301               STD     Z+33, R16
   \   0000007A   2F02               MOV     R16, R18
   \   0000007C   E010               LDI     R17, 0
   \   0000007E   E090               LDI     R25, 0
   \   00000080   9701               SBIW    R25:R24, 1
   \   00000082   1708               CP      R16, R24
   \   00000084   0719               CPC     R17, R25
   \   00000086   F2F1               BREQ    ??proc_paging_7
   \                     ??proc_paging_10:
   \   00000088   E000               LDI     R16, 0
   \   0000008A   8F00               STD     Z+24, R16
   \   0000008C   8F01               STD     Z+25, R16
   \   0000008E   CFC7               RJMP    ??proc_paging_2
   \                     ??proc_paging_0:
   \   00000090   A101               LDD     R16, Z+33
   \   00000092   FD04               SBRC    R16, 4
   \   00000094   CFCE               RJMP    ??proc_paging_5
   \   00000096   CFF8               RJMP    ??proc_paging_10
   2680          }
   2681           
   2682           

   \                                 In segment CODE, align 2, keep-with-next
   2683           unsigned char proc_option(unsigned char *buf_rx_ppp,unsigned int ind,unsigned int count_rx_opt)
   \                     proc_option:
   2684           {
   \   00000000   ........           CALL    ?PROLOGUE10_L09
   \   00000004                      REQUIRE ?Register_R4_is_cg_reg
   \   00000004                      REQUIRE ?Register_R5_is_cg_reg
   \   00000004                      REQUIRE ?Register_R6_is_cg_reg
   \   00000004                      REQUIRE ?Register_R7_is_cg_reg
   \   00000004                      REQUIRE ?Register_R8_is_cg_reg
   \   00000004                      REQUIRE ?Register_R9_is_cg_reg
   \   00000004   01C8               MOVW    R25:R24, R17:R16
   \   00000006   0129               MOVW    R5:R4, R19:R18
   \   00000008   014A               MOVW    R9:R8, R21:R20
   2685          
   2686           unsigned char tt;
   2687          //return 0 îřčáęŕ, čăíîđčđîâŕňü, âĺńü íĺęîđđĺęňíűé ďŕęĺň
   2688          // return 1 - ďđî÷čňŕíű âńĺ îďöčč (ďđč ďîńňóďčâřĺě çŕďđîńĺ) äŕëüřĺ âűőîä č âűäŕ÷ŕ îňâĺň íŕ çŕďđîń 
   2689          // return 2 - îňâĺňčňü ńđŕçó đŕçěĺđîě ńňđŕíčöű
   2690          unsigned char cnt=0;
   \   0000000A   2466               CLR     R6
   \   0000000C   C037               RJMP    ??proc_option_0
   2691           
   2692           next_option: 
   2693                         
   2694                         switch(buf_rx_ppp[ind])
   2695                           {
   2696                           case KOD_OP_ERROR:  
   2697                                            
   2698                                            if(buf_rx_ppp[ind+1]!=L_ERR_NO_INTABL)return(0);   
   2699                                            if(buf_rx_ppp[ind+2]!=ERR_NO_INTABL)return(0);
   2700                                            if(((buf_rx_ppp[TR_V]>>4)&0x03)!=KVIT)return(0);
   2701                                            if(*(unsigned int*)&buf_rx_ppp[ind+3]==num_seq_cl)
   2702                                             {
   2703                                      
   2704                                              Appl_seq.cnt_cntr_cl=0;
   2705                                              Appl_seq.cntr_cl=TRUE;
   2706                                              Appl_seq.en_cntr_cl=TRUE;
   2707                                              Appl_seq.cnt_try=0;
   2708                                              fl_appl_seq.en_povtor=0; 
   2709                                              Appl_seq.l_data=0; 
   2710                                              Appl_seq.cnt_waits=0;
   2711                                              fl_appl_seq.kv_waits=0;
   2712                                              }
   2713                                      
   2714                                               cnt_no_link=vol_cnt_no_link;//dobavka
   2715                                            
   2716                                               Control.link_waits=FALSE;
   2717                                               Control.cnt_link=Control.vol_link;                  
   2718                                               Control.link=FALSE; 
   2719                                     
   2720                                               Control.cnt_try=0;
   2721                                               Control.link_no=FALSE;
   2722                                               return(0);
   2723                           
   2724                           case KOD_OP_LUFKIN: 
   2725                                               if(buf_rx_ppp[ind+1]!=L_OP_LUFKIN)return(0);  
   2726                                               if(((buf_rx_ppp[TR_V]>>4)&0x03)!=ZAPR)return(0);
   2727                                               delay_pre_tx=*(unsigned int*)&buf_rx_ppp[ind+2]; 
   2728                                               if(delay_pre_tx>5000){delay_pre_tx=0;return(0); }//5 ńĺęóíä                                       
   2729                                               return(1);
   2730                            
   2731                           case KOD_OP_SIZE_PG: 
   2732                                                if(buf_rx_ppp[ind+1]!=L_OP_SIZE_PG)return(0);   
   2733                                                if(((buf_rx_ppp[TR_V]>>4)&0x03)!=ZAPR)return(0);                                                             
   2734                                                return(2); 
   2735                           
   2736                           case KOD_WR_PG: 
   2737                                                if(buf_rx_ppp[ind+1]!=L_OP_WR_PG)return(0);   
   2738                                                if(((buf_rx_ppp[TR_V]>>4)&0x03)!=ZAPR)return(0);
   2739                                                if (buf_rx_ppp[ind+2] & FIRST_PG) fl_pg_out.first_pg=1;else fl_pg_out.first_pg=0; 
   2740                                                if (buf_rx_ppp[ind+2] & NO_END_PG) fl_pg_out.end_pg=0;else fl_pg_out.end_pg=1;                                                        
   2741                                                if (buf_rx_ppp[ind+2] & NADO_KV) fl_pg_out.send_kv=1;else fl_pg_out.send_kv=0;
   2742                                                id_pg_appl=buf_rx_ppp[ind+3];
   2743                                                break;
   2744                                                            
   2745                           case KOD_WR_PG_CRC: 
   2746                                               
   2747                                                fl_pg_out.ch_crc=0;
   \                     ??proc_option_1:
   \   0000000E   01F8               MOVW    R31:R30, R17:R16
   \   00000010   A121               LDD     R18, Z+33
   \   00000012   7F2D               ANDI    R18, 0xFD
   \   00000014   A321               STD     Z+33, R18
   2748                                                if(buf_rx_ppp[ind+1]!=L_OP_WR_PG_CRC)return(0);   
   \   00000016   01FD               MOVW    R31:R30, R27:R26
   \   00000018   8121               LDD     R18, Z+1
   \   0000001A   3024               CPI     R18, 4
   \   0000001C   F009               BREQ    $+2+2
   \   0000001E   C047               RJMP    ??proc_option_2
   2749                                                if(((buf_rx_ppp[TR_V]>>4)&0x03)!=ZAPR)return(0); 
   \   00000020   01FC               MOVW    R31:R30, R25:R24
   \   00000022   A124               LDD     R18, Z+36
   \   00000024   9522               SWAP    R18
   \   00000026   702F               ANDI    R18, 0x0F
   \   00000028   7023               ANDI    R18, 0x03
   \   0000002A   F009               BREQ    $+2+2
   \   0000002C   C040               RJMP    ??proc_option_2
   2750                                                fl_pg_out.ch_crc=1;
   \   0000002E   01F8               MOVW    R31:R30, R17:R16
   \   00000030   A121               LDD     R18, Z+33
   \   00000032   6022               ORI     R18, 0x02
   \   00000034   A321               STD     Z+33, R18
   2751                                                pg_crc=*(unsigned int*)&buf_rx_ppp[ind+2];                                                            
   \   00000036   01FD               MOVW    R31:R30, R27:R26
   \   00000038   8122               LDD     R18, Z+2
   \   0000003A   8133               LDD     R19, Z+3
   \   0000003C   01F8               MOVW    R31:R30, R17:R16
   \   0000003E   8B26               STD     Z+22, R18
   \   00000040   8B37               STD     Z+23, R19
   2752                                                break;
   2753                           
   2754                                            
   2755                           default:  return(0);   
   2756                                        
   2757                           }
   2758           
   2759           //çäĺńü âűń÷čňűâŕĺňń˙ äëčíŕ çŕďîëíčňĺë˙              
   2760           tt=4-((buf_rx_ppp[ind+1]+4)%4);
   \                     ??proc_option_3:
   \   00000042   01FD               MOVW    R31:R30, R27:R26
   \   00000044   8101               LDD     R16, Z+1
   \   00000046   E010               LDI     R17, 0
   \   00000048   5F0C               SUBI    R16, 252
   \   0000004A   4F1F               SBCI    R17, 255
   \   0000004C   E044               LDI     R20, 4
   \   0000004E   E050               LDI     R21, 0
   \   00000050   ........           CALL    ?SS_DIVMOD_L02
   \   00000054   E004               LDI     R16, 4
   \   00000056   1B04               SUB     R16, R20
   2761           if(tt==4)tt=0;           
   \   00000058   3004               CPI     R16, 4
   \   0000005A   F409               BRNE    ??proc_option_4
   \   0000005C   E000               LDI     R16, 0
   2762           ///////////////
   2763           
   2764           cnt=cnt+buf_rx_ppp[ind+1]+tt;
   \                     ??proc_option_4:
   \   0000005E   01FD               MOVW    R31:R30, R27:R26
   \   00000060   8111               LDD     R17, Z+1
   \   00000062   0F10               ADD     R17, R16
   \   00000064   0E61               ADD     R6, R17
   2765           if(cnt>=count_rx_opt)return(1);//âńĺ îďöčč ďđîń÷čňŕíű
   \   00000066   2477               CLR     R7
   \   00000068   1468               CP      R6, R8
   \   0000006A   0479               CPC     R7, R9
   \   0000006C   F008               BRCS    $+2+2
   \   0000006E   C07D               RJMP    ??proc_option_5
   2766                  
   2767           ind=ind+buf_rx_ppp[ind+1]+tt;               
   \   00000070   8121               LDD     R18, Z+1
   \   00000072   E010               LDI     R17, 0
   \   00000074   0F02               ADD     R16, R18
   \   00000076   1D17               ADC     R17, R7
   \   00000078   0E40               ADD     R4, R16
   \   0000007A   1E51               ADC     R5, R17
   2768           //if(ind>=count_rx_opt)return(1);
   2769           goto next_option;
   \                     ??proc_option_0:
   \   0000007C   01DC               MOVW    R27:R26, R25:R24
   \   0000007E   0DA4               ADD     R26, R4
   \   00000080   1DB5               ADC     R27, R5
   \   00000082   ....               LDI     R16, LOW(Obj_ppp_tx)
   \   00000084   ....               LDI     R17, (Obj_ppp_tx) >> 8
   \   00000086   912C               LD      R18, X
   \   00000088   5021               SUBI    R18, 1
   \   0000008A   F409               BRNE    $+2+2
   \   0000008C   C070               RJMP    ??proc_option_6
   \   0000008E   952A               DEC     R18
   \   00000090   F409               BRNE    $+2+2
   \   00000092   C07B               RJMP    ??proc_option_7
   \   00000094   952A               DEC     R18
   \   00000096   F409               BRNE    $+2+2
   \   00000098   CFBA               RJMP    ??proc_option_1
   \   0000009A   952A               DEC     R18
   \   0000009C   F021               BREQ    ??proc_option_8
   \   0000009E   5022               SUBI    R18, 2
   \   000000A0   F409               BRNE    $+2+2
   \   000000A2   C049               RJMP    ??proc_option_9
   \   000000A4   C004               RJMP    ??proc_option_2
   \                     ??proc_option_8:
   \   000000A6   01FD               MOVW    R31:R30, R27:R26
   \   000000A8   8101               LDD     R16, Z+1
   \   000000AA   3005               CPI     R16, 5
   \   000000AC   F021               BREQ    ??proc_option_10
   \                     ??proc_option_2:
   \   000000AE   E000               LDI     R16, 0
   \                     ??proc_option_11:
   \   000000B0   E0EA               LDI     R30, 10
   \   000000B2   ........           JMP     ?EPILOGUE_B10_L09
   \                     ??proc_option_10:
   \   000000B6   8102               LDD     R16, Z+2
   \   000000B8   3001               CPI     R16, 1
   \   000000BA   F7C9               BRNE    ??proc_option_2
   \   000000BC   01FC               MOVW    R31:R30, R25:R24
   \   000000BE   A104               LDD     R16, Z+36
   \   000000C0   9502               SWAP    R16
   \   000000C2   700F               ANDI    R16, 0x0F
   \   000000C4   7003               ANDI    R16, 0x03
   \   000000C6   3003               CPI     R16, 3
   \   000000C8   F791               BRNE    ??proc_option_2
   \   000000CA   01FD               MOVW    R31:R30, R27:R26
   \   000000CC   8103               LDD     R16, Z+3
   \   000000CE   8114               LDD     R17, Z+4
   \   000000D0   ....               LDI     R30, LOW(num_seq_cl)
   \   000000D2   ....               LDI     R31, (num_seq_cl) >> 8
   \   000000D4   8120               LD      R18, Z
   \   000000D6   8131               LDD     R19, Z+1
   \   000000D8   1702               CP      R16, R18
   \   000000DA   0713               CPC     R17, R19
   \   000000DC   F499               BRNE    ??proc_option_12
   \   000000DE   ....               LDI     R30, LOW(Appl_seq)
   \   000000E0   ....               LDI     R31, (Appl_seq) >> 8
   \   000000E2   E000               LDI     R16, 0
   \   000000E4   E010               LDI     R17, 0
   \   000000E6   8B06               STD     Z+22, R16
   \   000000E8   8B07               STD     Z+23, R16
   \   000000EA   E001               LDI     R16, 1
   \   000000EC   8B04               STD     Z+20, R16
   \   000000EE   8B05               STD     Z+21, R16
   \   000000F0   8713               STD     Z+11, R17
   \   000000F2   8714               STD     Z+12, R17
   \   000000F4   8715               STD     Z+13, R17
   \   000000F6   8711               STD     Z+9, R17
   \   000000F8   8712               STD     Z+10, R17
   \   000000FA   ....               LDI     R30, LOW(fl_appl_seq)
   \   000000FC   ....               LDI     R31, (fl_appl_seq) >> 8
   \   000000FE   8100               LD      R16, Z
   \   00000100   7F09               ANDI    R16, 0xF9
   \   00000102   8300               ST      Z, R16
   \                     ??proc_option_12:
   \   00000104   ....               LDI     R30, LOW(vol_cnt_no_link)
   \   00000106   ....               LDI     R31, (vol_cnt_no_link) >> 8
   \   00000108   8100               LD      R16, Z
   \   0000010A   8111               LDD     R17, Z+1
   \   0000010C   8122               LDD     R18, Z+2
   \   0000010E   8133               LDD     R19, Z+3
   \   00000110   ....               LDI     R30, LOW(cnt_no_link)
   \   00000112   ....               LDI     R31, (cnt_no_link) >> 8
   \   00000114   8300               ST      Z, R16
   \   00000116   8311               STD     Z+1, R17
   \   00000118   8322               STD     Z+2, R18
   \   0000011A   8333               STD     Z+3, R19
   \   0000011C   ....               LDI     R30, LOW(Control)
   \   0000011E   ....               LDI     R31, (Control) >> 8
   \   00000120   E000               LDI     R16, 0
   \   00000122   8301               STD     Z+1, R16
   \   00000124   8500               LDD     R16, Z+8
   \   00000126   8511               LDD     R17, Z+9
   \   00000128   8304               STD     Z+4, R16
   \   0000012A   8315               STD     Z+5, R17
   \   0000012C   E000               LDI     R16, 0
   \   0000012E   8302               STD     Z+2, R16
   \   00000130   8706               STD     Z+14, R16
   \   00000132   8300               ST      Z, R16
   \   00000134   CFBC               RJMP    ??proc_option_2
   \                     ??proc_option_9:
   \   00000136   01FD               MOVW    R31:R30, R27:R26
   \   00000138   8121               LDD     R18, Z+1
   \   0000013A   3024               CPI     R18, 4
   \   0000013C   F009               BREQ    $+2+2
   \   0000013E   CFB7               RJMP    ??proc_option_2
   \   00000140   01FC               MOVW    R31:R30, R25:R24
   \   00000142   A124               LDD     R18, Z+36
   \   00000144   9522               SWAP    R18
   \   00000146   702F               ANDI    R18, 0x0F
   \   00000148   7023               ANDI    R18, 0x03
   \   0000014A   F009               BREQ    $+2+2
   \   0000014C   CFB0               RJMP    ??proc_option_2
   \   0000014E   01FD               MOVW    R31:R30, R27:R26
   \   00000150   8122               LDD     R18, Z+2
   \   00000152   8133               LDD     R19, Z+3
   \   00000154   01F8               MOVW    R31:R30, R17:R16
   \   00000156   8B20               STD     Z+16, R18
   \   00000158   8B31               STD     Z+17, R19
   \   0000015A   3829               CPI     R18, 137
   \   0000015C   E143               LDI     R20, 19
   \   0000015E   0734               CPC     R19, R20
   \   00000160   F020               BRCS    ??proc_option_5
   \   00000162   E020               LDI     R18, 0
   \   00000164   8B20               STD     Z+16, R18
   \   00000166   8B21               STD     Z+17, R18
   \   00000168   CFA2               RJMP    ??proc_option_2
   \                     ??proc_option_5:
   \   0000016A   E001               LDI     R16, 1
   \   0000016C   CFA1               RJMP    ??proc_option_11
   \                     ??proc_option_6:
   \   0000016E   01FD               MOVW    R31:R30, R27:R26
   \   00000170   8101               LDD     R16, Z+1
   \   00000172   3003               CPI     R16, 3
   \   00000174   F009               BREQ    $+2+2
   \   00000176   CF9B               RJMP    ??proc_option_2
   \   00000178   01FC               MOVW    R31:R30, R25:R24
   \   0000017A   A104               LDD     R16, Z+36
   \   0000017C   9502               SWAP    R16
   \   0000017E   700F               ANDI    R16, 0x0F
   \   00000180   7003               ANDI    R16, 0x03
   \   00000182   F009               BREQ    $+2+2
   \   00000184   CF94               RJMP    ??proc_option_2
   \   00000186   E002               LDI     R16, 2
   \   00000188   CF93               RJMP    ??proc_option_11
   \                     ??proc_option_7:
   \   0000018A   01FD               MOVW    R31:R30, R27:R26
   \   0000018C   8121               LDD     R18, Z+1
   \   0000018E   3024               CPI     R18, 4
   \   00000190   F009               BREQ    $+2+2
   \   00000192   CF8D               RJMP    ??proc_option_2
   \   00000194   01FC               MOVW    R31:R30, R25:R24
   \   00000196   A124               LDD     R18, Z+36
   \   00000198   9522               SWAP    R18
   \   0000019A   702F               ANDI    R18, 0x0F
   \   0000019C   7023               ANDI    R18, 0x03
   \   0000019E   F009               BREQ    $+2+2
   \   000001A0   CF86               RJMP    ??proc_option_2
   \   000001A2   01FD               MOVW    R31:R30, R27:R26
   \   000001A4   8122               LDD     R18, Z+2
   \   000001A6   01F8               MOVW    R31:R30, R17:R16
   \   000001A8   FF20               SBRS    R18, 0
   \   000001AA   C003               RJMP    ??proc_option_13
   \   000001AC   A121               LDD     R18, Z+33
   \   000001AE   6120               ORI     R18, 0x10
   \   000001B0   C002               RJMP    ??proc_option_14
   \                     ??proc_option_13:
   \   000001B2   A121               LDD     R18, Z+33
   \   000001B4   7E2F               ANDI    R18, 0xEF
   \                     ??proc_option_14:
   \   000001B6   A321               STD     Z+33, R18
   \   000001B8   01FD               MOVW    R31:R30, R27:R26
   \   000001BA   8122               LDD     R18, Z+2
   \   000001BC   01F8               MOVW    R31:R30, R17:R16
   \   000001BE   FF21               SBRS    R18, 1
   \   000001C0   C003               RJMP    ??proc_option_15
   \   000001C2   A121               LDD     R18, Z+33
   \   000001C4   7F2E               ANDI    R18, 0xFE
   \   000001C6   C002               RJMP    ??proc_option_16
   \                     ??proc_option_15:
   \   000001C8   A121               LDD     R18, Z+33
   \   000001CA   6021               ORI     R18, 0x01
   \                     ??proc_option_16:
   \   000001CC   A321               STD     Z+33, R18
   \   000001CE   01FD               MOVW    R31:R30, R27:R26
   \   000001D0   8122               LDD     R18, Z+2
   \   000001D2   01F8               MOVW    R31:R30, R17:R16
   \   000001D4   FF22               SBRS    R18, 2
   \   000001D6   C003               RJMP    ??proc_option_17
   \   000001D8   A121               LDD     R18, Z+33
   \   000001DA   6024               ORI     R18, 0x04
   \   000001DC   C002               RJMP    ??proc_option_18
   \                     ??proc_option_17:
   \   000001DE   A121               LDD     R18, Z+33
   \   000001E0   7F2B               ANDI    R18, 0xFB
   \                     ??proc_option_18:
   \   000001E2   A321               STD     Z+33, R18
   \   000001E4   01FD               MOVW    R31:R30, R27:R26
   \   000001E6   8123               LDD     R18, Z+3
   \   000001E8   01F8               MOVW    R31:R30, R17:R16
   \   000001EA   A323               STD     Z+35, R18
   \   000001EC   CF2A               RJMP    ??proc_option_3
   2770           } 
   2771           
   2772           
   2773           

   \                                 In segment CODE, align 2, keep-with-next
   2774           void send_size_pg(unsigned char id,unsigned int dst)
   \                     send_size_pg:
   2775              {
   \   00000000   ........           CALL    ?PROLOGUE4_L09
   \   00000004   2FA0               MOV     R26, R16
   \   00000006   01C9               MOVW    R25:R24, R19:R18
   2776                 if(fl_ip.act_ip_end!=1)return;
   \   00000008   ....               LDI     R30, LOW(cnt_pap_tm_out)
   \   0000000A   ....               LDI     R31, (cnt_pap_tm_out) >> 8
   \   0000000C   8104               LDD     R16, Z+4
   \   0000000E   FF00               SBRS    R16, 0
   \   00000010   C056               RJMP    ??send_size_pg_0
   2777                    fl_ip.act_ip_end=0;      
   \   00000012   8104               LDD     R16, Z+4
   \   00000014   7F0E               ANDI    R16, 0xFE
   \   00000016   8304               STD     Z+4, R16
   2778                    clr_cntr_nat();
   \   00000018   ........           CALL    clr_cntr_nat
   2779                    clr_cntr_link();
   \   0000001C   ........           CALL    clr_cntr_link
   2780                    Obj_ppp_tx.prozr=FALSE;            
   \   00000020   ....               LDI     R16, LOW(Obj_ppp_tx)
   \   00000022   ....               LDI     R17, (Obj_ppp_tx) >> 8
   \   00000024   E020               LDI     R18, 0
   \   00000026   01F8               MOVW    R31:R30, R17:R16
   \   00000028   8320               ST      Z, R18
   2781                    Obj_ppp_tx.version=VER2;      //âĺđńč˙ 
   \   0000002A   E022               LDI     R18, 2
   \   0000002C   8321               STD     Z+1, R18
   2782                    Obj_ppp_tx.type_pac=OTV;     //ňčď ďŕęĺňŕ
   \   0000002E   E021               LDI     R18, 1
   \   00000030   8322               STD     Z+2, R18
   2783                    Obj_ppp_tx.num_src=num_self; // íîěĺđ îňďđŕâčňĺë˙
   \   00000032   ....               LDI     R30, LOW(num_self)
   \   00000034   ....               LDI     R31, (num_self) >> 8
   \   00000036   8120               LD      R18, Z
   \   00000038   8131               LDD     R19, Z+1
   \   0000003A   01F8               MOVW    R31:R30, R17:R16
   \   0000003C   8323               STD     Z+3, R18
   \   0000003E   8334               STD     Z+4, R19
   2784                    Obj_ppp_tx.num_dst=dst; // íîěĺđ ďîëó÷ŕňĺë˙
   \   00000040   8385               STD     Z+5, R24
   \   00000042   8396               STD     Z+6, R25
   2785                   
   2786                    Obj_ppp_tx.id_pac=id; // čäĺíňčôčęŕňîđ ďŕęĺňŕ  
   \   00000044   83A7               STD     Z+7, R26
   2787                    Obj_ppp_tx.p_opt=&buf_opt_tr[0]; // //óęŕçŕňĺëü áóôĺđŕ îďöčé          
   \   00000046   ....               LDI     R30, LOW(buf_opt_tr)
   \   00000048   ....               LDI     R31, (buf_opt_tr) >> 8
   \   0000004A   01D8               MOVW    R27:R26, R17:R16
   \   0000004C   9618               ADIW    R27:R26, 8
   \   0000004E   93ED               ST      X+, R30
   \   00000050   93FC               ST      X, R31
   2788                    
   2789                    
   2790                  Obj_ppp_tx.l_opt=4;// äëčíŕ áóôĺđŕ îďöčé   
   \   00000052   E024               LDI     R18, 4
   \   00000054   01D8               MOVW    R27:R26, R17:R16
   \   00000056   961A               ADIW    R27:R26, 10
   \   00000058   932C               ST      X, R18
   2791                  buf_opt_tr[0]=KOD_OP_SIZE_PG;
   \   0000005A   E021               LDI     R18, 1
   \   0000005C   8320               ST      Z, R18
   2792                  buf_opt_tr[1]=L_OP_SIZE_PG_OTV;
   \   0000005E   E024               LDI     R18, 4
   \   00000060   8321               STD     Z+1, R18
   2793                  *(unsigned int*)&buf_opt_tr[2]=256;  
   \   00000062   E020               LDI     R18, 0
   \   00000064   E031               LDI     R19, 1
   \   00000066   8322               STD     Z+2, R18
   \   00000068   8333               STD     Z+3, R19
   2794                  
   2795                  //Obj_ppp_tx.kol_opt=1;// ęîëč÷ĺńňâî îďöčé     
   2796                 
   2797                 
   2798                   Obj_ppp_tx.l_data=0;   // äëčíŕ äŕííűő
   \   0000006A   01F8               MOVW    R31:R30, R17:R16
   \   0000006C   8726               STD     Z+14, R18
   \   0000006E   8727               STD     Z+15, R18
   2799                   Obj_ppp_tx.p_data=&buf_tx_232[TR_OP_DATA+C1_PROT];  //óęŕçŕňĺëü áóôĺđŕ äŕííűő
   \   00000070   ....               LDI     R18, LOW((buf_tx_232 + 42))
   \   00000072   ....               LDI     R19, HIGH((buf_tx_232 + 42))
   \   00000074   8724               STD     Z+12, R18
   \   00000076   8735               STD     Z+13, R19
   2800                  
   2801                   form_buf_tx_ppp();                            
   \   00000078   ........           CALL    form_buf_tx_ppp
   2802                   UCSR0A=UCSR0A | TXC;                            
   \   0000007C   910000C0           LDS     R16, 192
   \   00000080   6400               ORI     R16, 0x40
   \   00000082   930000C0           STS     192, R16
   2803                   UCSR0B=UCSR0B | TXEN;
   \   00000086   910000C1           LDS     R16, 193
   \   0000008A   6008               ORI     R16, 0x08
   \   0000008C   930000C1           STS     193, R16
   2804                   UCSR0B=UCSR0B | TXCIE;
   \   00000090   910000C1           LDS     R16, 193
   \   00000094   6400               ORI     R16, 0x40
   \   00000096   930000C1           STS     193, R16
   2805                   if(check_cts()==1) return;                
   \   0000009A   ........           CALL    check_cts
   \   0000009E   3001               CPI     R16, 1
   \   000000A0   F071               BREQ    ??send_size_pg_0
   2806                   S2_RD;
   \   000000A2   9A40               SBI     0x08, 0x00
   \   000000A4   9841               CBI     0x08, 0x01
   2807                   UDR0=buf_tx_232[0];
   \   000000A6   9100....           LDS     R16, buf_tx_232
   \   000000AA   930000C6           STS     198, R16
   2808                   if(Regim==RG_DEBAG) UDR3=buf_tx_232[0];
   \   000000AE   9100....           LDS     R16, Regim
   \   000000B2   3001               CPI     R16, 1
   \   000000B4   F421               BRNE    ??send_size_pg_0
   \   000000B6   9100....           LDS     R16, buf_tx_232
   \   000000BA   93000136           STS     310, R16
   \                     ??send_size_pg_0:
   \   000000BE   E0E4               LDI     R30, 4
   \   000000C0   ........           JMP     ?EPILOGUE_B4_L09
   2809                   return;     
   2810              }
   2811           
   2812          /* 
   2813           void send_otv_ping(unsigned char id,unsigned int dst)
   2814              {
   2815                 if(fl_ip.act_ip_end!=1)return;
   2816                    fl_ip.act_ip_end=0;      
   2817                    clr_cntr_nat();
   2818                    clr_cntr_link();
   2819                    Obj_ppp_tx.prozr=FALSE;            
   2820                    Obj_ppp_tx.version=VER2;      //âĺđńč˙ 
   2821                    Obj_ppp_tx.type_pac=OTV;     //ňčď ďŕęĺňŕ
   2822                    Obj_ppp_tx.num_src=num_self; // íîěĺđ îňďđŕâčňĺë˙
   2823                    Obj_ppp_tx.num_dst=dst; // íîěĺđ ďîëó÷ŕňĺë˙
   2824                   
   2825                    Obj_ppp_tx.id_pac=id; // čäĺíňčôčęŕňîđ ďŕęĺňŕ  
   2826                        
   2827                    Obj_ppp_tx.kol_opt=0;// ęîëč÷ĺńňâî îďöčé   
   2828                    Obj_ppp_tx.l_opt=0;// äëčíŕ áóôĺđŕ îďöčé   
   2829                  
   2830                    Obj_ppp_tx.l_data=0;   // äëčíŕ äŕííűő
   2831                   
   2832                    
   2833                   form_buf_tx_ppp();                            
   2834                   UCSR0A=UCSR0A | TXC;                            
   2835                   UCSR0B=UCSR0B | TXEN;
   2836                   UCSR0B=UCSR0B | TXCIE;
   2837                   if(check_cts()==1) return;                
   2838                   S2_RD;
   2839                   UDR0=buf_tx_232[0];
   2840                   if(Regim==RG_DEBAG) UDR3=buf_tx_232[0];
   2841                   return;     
   2842              }
   2843           
   2844           */
   2845           

   \                                 In segment CODE, align 2, keep-with-next
   2846            unsigned char proc_udp_data(unsigned char *buf_rx_ppp,unsigned int count_rx_ppp)
   \                     proc_udp_data:
   2847                         {
   \   00000000   ........           CALL    ?PROLOGUE16_L09
   \   00000004                      REQUIRE ?Register_R4_is_cg_reg
   \   00000004                      REQUIRE ?Register_R5_is_cg_reg
   \   00000004                      REQUIRE ?Register_R6_is_cg_reg
   \   00000004                      REQUIRE ?Register_R7_is_cg_reg
   \   00000004                      REQUIRE ?Register_R8_is_cg_reg
   \   00000004                      REQUIRE ?Register_R9_is_cg_reg
   \   00000004                      REQUIRE ?Register_R10_is_cg_reg
   \   00000004                      REQUIRE ?Register_R11_is_cg_reg
   \   00000004                      REQUIRE ?Register_R12_is_cg_reg
   \   00000004                      REQUIRE ?Register_R13_is_cg_reg
   \   00000004                      REQUIRE ?Register_R14_is_cg_reg
   \   00000004                      REQUIRE ?Register_R15_is_cg_reg
   \   00000004   9722               SBIW    R29:R28, 2
   \   00000006   8328               ST      Y, R18
   \   00000008   8339               STD     Y+1, R19
   \   0000000A   01D8               MOVW    R27:R26, R17:R16
   2848                         unsigned int length,crc;
   2849                        // unsigned char *p_data;
   2850                         unsigned char length_head;
   2851                         unsigned char offset,i;
   2852                        // unsigned int ii;
   2853                       
   2854                        
   2855                         
   2856                         
   2857                         //ďđîâĺđęŕ äëčíű äŕííűő UDP 
   2858                         length=*(unsigned int*)&buf_rx_ppp[UDP_LN];
   2859                         if(length<MIN_TR_HEAD)return(0);
   \   0000000C   01FD               MOVW    R31:R30, R27:R26
   \   0000000E   8D82               LDD     R24, Z+26
   \   00000010   8D93               LDD     R25, Z+27
   \   00000012   308C               CPI     R24, 12
   \   00000014   4090               SBCI    R25, 0
   \   00000016   F428               BRCC    ??proc_udp_data_0
   \                     ??proc_udp_data_1:
   \   00000018   E000               LDI     R16, 0
   \                     ??proc_udp_data_2:
   \   0000001A   9622               ADIW    R29:R28, 2
   \   0000001C   E1E0               LDI     R30, 16
   \   0000001E   ........           JMP     ?EPILOGUE_B16_L09
   2860                         
   2861                         // ďđîâĺđęŕ äëčíű ňđŕíńďîđňŕ
   2862                         length=*(unsigned int*)&buf_rx_ppp[TR_LEN];
   \                     ??proc_udp_data_0:
   \   00000022   A0E0               LDD     R14, Z+32
   \   00000024   A0F1               LDD     R15, Z+33
   2863                         if (length<MIN_TR_HEAD) return(0);
   \   00000026   E00C               LDI     R16, 12
   \   00000028   16E0               CP      R14, R16
   \   0000002A   E000               LDI     R16, 0
   \   0000002C   06F0               CPC     R15, R16
   \   0000002E   F3A0               BRCS    ??proc_udp_data_1
   2864                         if (length>count_rx_ppp-5-20-8)return(0);
   \   00000030   8188               LD      R24, Y
   \   00000032   8199               LDD     R25, Y+1
   \   00000034   9781               SBIW    R25:R24, 33
   \   00000036   158E               CP      R24, R14
   \   00000038   059F               CPC     R25, R15
   \   0000003A   F370               BRCS    ??proc_udp_data_1
   2865                     
   2866                         transform_buf(&buf_rx_ppp[TR_ID],*(unsigned int*)&buf_rx_ppp[TR_LEN]-7,*(unsigned int*)&buf_rx_ppp[TR_KOD]);
   \   0000003C   A142               LDD     R20, Z+34
   \   0000003E   A153               LDD     R21, Z+35
   \   00000040   A120               LDD     R18, Z+32
   \   00000042   A131               LDD     R19, Z+33
   \   00000044   5027               SUBI    R18, 7
   \   00000046   4030               SBCI    R19, 0
   \   00000048   018D               MOVW    R17:R16, R27:R26
   \   0000004A   5D0B               SUBI    R16, 219
   \   0000004C   4F1F               SBCI    R17, 255
   \   0000004E   ........           CALL    transform_buf
   2867                         
   2868                         *(unsigned int*)&buf_rx_ppp[TR_KOD]=0;
   \   00000052   E000               LDI     R16, 0
   \   00000054   01FD               MOVW    R31:R30, R27:R26
   \   00000056   A302               STD     Z+34, R16
   \   00000058   A303               STD     Z+35, R16
   2869                          
   2870                         crc=*(unsigned int*)&buf_rx_ppp[TR_CRC];
   \   0000005A   A046               LDD     R4, Z+38
   \   0000005C   A057               LDD     R5, Z+39
   2871                         *(unsigned int*)&buf_rx_ppp[TR_CRC]=0;
   \   0000005E   A306               STD     Z+38, R16
   \   00000060   A307               STD     Z+39, R16
   2872                         
   2873                         //ďđîâĺđęŕ crc
   2874                          if(crc!=crc_m1(&buf_rx_ppp[TR_SRC],*(unsigned int*)&buf_rx_ppp[TR_LEN],0xffff))return(0);         
   \   00000062   EF4F               LDI     R20, 255
   \   00000064   EF5F               LDI     R21, 255
   \   00000066   A120               LDD     R18, Z+32
   \   00000068   A131               LDD     R19, Z+33
   \   0000006A   018D               MOVW    R17:R16, R27:R26
   \   0000006C   5E02               SUBI    R16, 226
   \   0000006E   4F1F               SBCI    R17, 255
   \   00000070   ........           CALL    crc_m1
   \   00000074   1640               CP      R4, R16
   \   00000076   0651               CPC     R5, R17
   \   00000078   F679               BRNE    ??proc_udp_data_1
   2875                                   
   2876                          
   2877                          
   2878          
   2879                         if((buf_rx_ppp[TR_V]>>6)==VER2)// âĺđńč˙ ďđîňîęîëŕ VER2
   \   0000007A   01FD               MOVW    R31:R30, R27:R26
   \   0000007C   A104               LDD     R16, Z+36
   \   0000007E   7C00               ANDI    R16, 0xC0
   \   00000080   3800               CPI     R16, 128
   \   00000082   F651               BRNE    ??proc_udp_data_1
   2880                         { 
   2881                         
   2882                         
   2883                         if(*(unsigned int*)&buf_rx_ppp[TR_DST]!=num_self)return(0); 
   \   00000084   A500               LDD     R16, Z+40
   \   00000086   A511               LDD     R17, Z+41
   \   00000088   ....               LDI     R30, LOW(num_self)
   \   0000008A   ....               LDI     R31, (num_self) >> 8
   \   0000008C   8120               LD      R18, Z
   \   0000008E   8131               LDD     R19, Z+1
   \   00000090   1702               CP      R16, R18
   \   00000092   0713               CPC     R17, R19
   \   00000094   F609               BRNE    ??proc_udp_data_1
   2884                         
   2885                         
   2886                         
   2887                         length_head=(buf_rx_ppp[TR_V]&0x0f)*4;
   \   00000096   01FD               MOVW    R31:R30, R27:R26
   \   00000098   A0A4               LDD     R10, Z+36
   \   0000009A   E00F               LDI     R16, 15
   \   0000009C   22A0               AND     R10, R16
   \   0000009E   0CAA               LSL     R10
   \   000000A0   0CAA               LSL     R10
   2888                         
   2889                         
   2890                         if(length_head<MIN_TR_HEAD)return(0);
   \   000000A2   E00C               LDI     R16, 12
   \   000000A4   16A0               CP      R10, R16
   \   000000A6   F408               BRCC    $+2+2
   \   000000A8   CFB7               RJMP    ??proc_udp_data_1
   2891                         if(length_head>50)return(0);// ďîęŕ îăđŕíč÷čë
   \   000000AA   E303               LDI     R16, 51
   \   000000AC   16A0               CP      R10, R16
   \   000000AE   F008               BRCS    $+2+2
   \   000000B0   CFB3               RJMP    ??proc_udp_data_1
   2892                         
   2893                         
   2894                        
   2895                        
   2896                      
   2897                         
   2898                         length=count_rx_ppp-5-20-8-length_head;
   \   000000B2   017C               MOVW    R15:R14, R25:R24
   \   000000B4   24BB               CLR     R11
   \   000000B6   18EA               SUB     R14, R10
   \   000000B8   08FB               SBC     R15, R11
   2899                         
   2900                         
   2901                       
   2902                         if(length==0) //ĺńëč äëčíŕ äŕííűő 0 ňî ęîíňđîëü ńâ˙çč č ďđîâĺđęŕ
   \   000000BA   2CCA               MOV     R12, R10
   \   000000BC   24DD               CLR     R13
   \   000000BE   EF04               LDI     R16, 244
   \   000000C0   0EC0               ADD     R12, R16
   \   000000C2   EF0F               LDI     R16, 255
   \   000000C4   1ED0               ADC     R13, R16
   \   000000C6   2D0E               MOV     R16, R14
   \   000000C8   290F               OR      R16, R15
   \   000000CA   F009               BREQ    $+2+2
   \   000000CC   C040               RJMP    ??proc_udp_data_3
   2903                            {
   2904                             
   2905                            if(length_head>MIN_TR_HEAD)
   \   000000CE   E00D               LDI     R16, 13
   \   000000D0   16A0               CP      R10, R16
   \   000000D2   F070               BRCS    ??proc_udp_data_4
   2906                              {
   2907                               if (proc_option(buf_rx_ppp,TR_OP_DATA,length_head-MIN_TR_HEAD)==2)
   \   000000D4   01A6               MOVW    R21:R20, R13:R12
   \   000000D6   E22A               LDI     R18, 42
   \   000000D8   E030               LDI     R19, 0
   \   000000DA   018D               MOVW    R17:R16, R27:R26
   \   000000DC   ....               RCALL   proc_option
   \   000000DE   3002               CPI     R16, 2
   \   000000E0   F009               BREQ    $+2+2
   \   000000E2   CF9A               RJMP    ??proc_udp_data_1
   2908                                 {
   2909                                  send_size_pg(buf_rx_ppp[TR_ID],*(unsigned int*)&buf_rx_ppp[TR_SRC]);
   \   000000E4   01FD               MOVW    R31:R30, R27:R26
   \   000000E6   8D26               LDD     R18, Z+30
   \   000000E8   8D37               LDD     R19, Z+31
   \   000000EA   A105               LDD     R16, Z+37
   \   000000EC   ....               RCALL   send_size_pg
   \   000000EE   CF94               RJMP    ??proc_udp_data_1
   2910                                 }
   2911                                return(0);
   2912                              }
   2913                            
   2914                            
   2915                          
   2916                            /*
   2917                            if(((buf_rx_ppp[TR_V]>>4)&0x03)==ZAPR)
   2918                            { 
   2919                              send_otv_ping(buf_rx_ppp[TR_ID],*(unsigned int*)&buf_rx_ppp[TR_SRC]);
   2920                              send_info(sizeof(ans_out_ping),ans_out_ping,1,buf_rx_ppp[TR_ID]);
   2921                              return(0); 
   2922                            }
   2923                            
   2924                            */
   2925          
   2926                             if(*(unsigned int*)&buf_rx_ppp[TR_SRC]!=NUM_SRV_LINK)return(0);
   \                     ??proc_udp_data_4:
   \   000000F0   8D06               LDD     R16, Z+30
   \   000000F2   8D17               LDD     R17, Z+31
   \   000000F4   2B01               OR      R16, R17
   \   000000F6   F009               BREQ    $+2+2
   \   000000F8   CF8F               RJMP    ??proc_udp_data_1
   2927          //                  if(buf_rx_ppp[TR_ID]!=ID_CC)return(0);
   2928          
   2929                            if(((buf_rx_ppp[TR_V]>>4)&0x03)!=KVIT)return(0); 
   \   000000FA   A104               LDD     R16, Z+36
   \   000000FC   9502               SWAP    R16
   \   000000FE   700F               ANDI    R16, 0x0F
   \   00000100   7003               ANDI    R16, 0x03
   \   00000102   3003               CPI     R16, 3
   \   00000104   F009               BREQ    $+2+2
   \   00000106   CF88               RJMP    ??proc_udp_data_1
   2930                             
   2931                            send_info(sizeof(rec_ctrl_ch),rec_ctrl_ch,1,buf_rx_ppp[TR_ID]);
   \   00000108   A145               LDD     R20, Z+37
   \   0000010A   E011               LDI     R17, 1
   \   0000010C   ....               LDI     R18, LOW((evc_rld + 7))
   \   0000010E   ....               LDI     R19, HIGH((evc_rld + 7))
   \   00000110   E00B               LDI     R16, 11
   \   00000112   ........           CALL    send_info
   2932                            
   2933                            if(Control.link_waits==TRUE)
   \   00000116   ....               LDI     R30, LOW(Control)
   \   00000118   ....               LDI     R31, (Control) >> 8
   \   0000011A   8101               LDD     R16, Z+1
   \   0000011C   3001               CPI     R16, 1
   \   0000011E   F009               BREQ    $+2+2
   \   00000120   CF7B               RJMP    ??proc_udp_data_1
   2934                               {   
   2935                               cnt_no_link=vol_cnt_no_link;//dobavka  
   \   00000122   ....               LDI     R30, LOW(vol_cnt_no_link)
   \   00000124   ....               LDI     R31, (vol_cnt_no_link) >> 8
   \   00000126   8100               LD      R16, Z
   \   00000128   8111               LDD     R17, Z+1
   \   0000012A   8122               LDD     R18, Z+2
   \   0000012C   8133               LDD     R19, Z+3
   \   0000012E   ....               LDI     R30, LOW(cnt_no_link)
   \   00000130   ....               LDI     R31, (cnt_no_link) >> 8
   \   00000132   8300               ST      Z, R16
   \   00000134   8311               STD     Z+1, R17
   \   00000136   8322               STD     Z+2, R18
   \   00000138   8333               STD     Z+3, R19
   2936                               Control.link_waits=FALSE;
   \   0000013A   ....               LDI     R30, LOW(Control)
   \   0000013C   ....               LDI     R31, (Control) >> 8
   \   0000013E   82B1               STD     Z+1, R11
   2937                               Control.cnt_link=Control.vol_link;                   
   \   00000140   8500               LDD     R16, Z+8
   \   00000142   8511               LDD     R17, Z+9
   \   00000144   8304               STD     Z+4, R16
   \   00000146   8315               STD     Z+5, R17
   2938                               Control.cnt_try=0;
   \   00000148   86B6               STD     Z+14, R11
   2939                               Control.link_no=FALSE;
   \   0000014A   82B0               ST      Z, R11
   \   0000014C   C39C               RJMP    ??proc_udp_data_5
   2940                               return(1); 
   2941                               }
   2942                            return(0);
   2943                            } 
   2944                          
   2945                           
   2946                        
   2947                        
   2948                        
   2949                          // äŕëüíĺéřčé đŕçáîđ
   2950                           
   2951                           
   2952                           clr_cntr_nat();
   \                     ??proc_udp_data_3:
   \   0000014E   ........           CALL    clr_cntr_nat
   2953                           
   2954                           offset=2+20+8+length_head;
   \   00000152   2CBA               MOV     R11, R10
   \   00000154   E10E               LDI     R16, 30
   \   00000156   0EB0               ADD     R11, R16
   \   00000158   E010               LDI     R17, 0
   \   0000015A   012D               MOVW    R5:R4, R27:R26
   \   0000015C   0C4B               ADD     R4, R11
   \   0000015E   1E51               ADC     R5, R17
   \   00000160   ....               LDI     R16, LOW(Appl_seq)
   \   00000162   ....               LDI     R17, (Appl_seq) >> 8
   \   00000164   01F2               MOVW    R31:R30, R5:R4
   \   00000166   8120               LD      R18, Z
   \   00000168   3023               CPI     R18, 3
   \   0000016A   F009               BREQ    $+2+2
   \   0000016C   C049               RJMP    ??proc_udp_data_6
   2955                        
   2956                          
   2957                          
   2958                          
   2959                          if(buf_rx_ppp[offset+SL_LS_PROT]==PROT_SL_LS)
   2960                            {
   2961                              //đŕçáîđ ęîěŕíä
   2962                              //ďîęŕ îäíŕ ęîěŕíäŕ - íŕëč÷čĺ îňńóňńňâčĺ ęëčĺíňŕ â ňŕáëčöĺ ěŕđřđóňčçŕöčč
   2963                              if(((buf_rx_ppp[TR_V]>>4)&0x03)!=OTV)return(0);
   \   0000016E   01FD               MOVW    R31:R30, R27:R26
   \   00000170   A124               LDD     R18, Z+36
   \   00000172   9522               SWAP    R18
   \   00000174   702F               ANDI    R18, 0x0F
   \   00000176   7023               ANDI    R18, 0x03
   \   00000178   3021               CPI     R18, 1
   \   0000017A   F009               BREQ    $+2+2
   \   0000017C   CF4D               RJMP    ??proc_udp_data_1
   2964                              if(buf_rx_ppp[offset+SL_LS_PROT+1]!=COM_CNTR_CL)return(0);
   \   0000017E   01F2               MOVW    R31:R30, R5:R4
   \   00000180   8121               LDD     R18, Z+1
   \   00000182   3022               CPI     R18, 2
   \   00000184   F009               BREQ    $+2+2
   \   00000186   CF48               RJMP    ??proc_udp_data_1
   2965                              if(*(unsigned int*)&buf_rx_ppp[offset+SL_LS_PROT+2]!=L_OTV_CNTR_CL)return(0);
   \   00000188   8122               LDD     R18, Z+2
   \   0000018A   8133               LDD     R19, Z+3
   \   0000018C   3023               CPI     R18, 3
   \   0000018E   E040               LDI     R20, 0
   \   00000190   0734               CPC     R19, R20
   \   00000192   F009               BREQ    $+2+2
   \   00000194   CF41               RJMP    ??proc_udp_data_1
   2966                              if(*(unsigned int*)&buf_rx_ppp[offset+SL_LS_PROT+4]!=num_seq_cl)return(0);
   \   00000196   8124               LDD     R18, Z+4
   \   00000198   8135               LDD     R19, Z+5
   \   0000019A   ....               LDI     R30, LOW(num_seq_cl)
   \   0000019C   ....               LDI     R31, (num_seq_cl) >> 8
   \   0000019E   8140               LD      R20, Z
   \   000001A0   8151               LDD     R21, Z+1
   \   000001A2   1724               CP      R18, R20
   \   000001A4   0735               CPC     R19, R21
   \   000001A6   F009               BREQ    $+2+2
   \   000001A8   CF37               RJMP    ??proc_udp_data_1
   2967                              if(buf_rx_ppp[offset+SL_LS_PROT+6]!=0)
   \   000001AA   01F2               MOVW    R31:R30, R5:R4
   \   000001AC   8126               LDD     R18, Z+6
   \   000001AE   2322               TST     R18
   \   000001B0   F031               BREQ    ??proc_udp_data_7
   2968                                {// ďđčńóňńňâčĺ â ňŕáëčöĺ
   2969                                 
   2970                                 Appl_seq.en_cntr_cl=FALSE;
   \   000001B2   E020               LDI     R18, 0
   \   000001B4   01F8               MOVW    R31:R30, R17:R16
   \   000001B6   8B25               STD     Z+21, R18
   2971                                 Appl_seq.cntr_cl=FALSE;
   \   000001B8   8B24               STD     Z+20, R18
   2972                                 Appl_seq.cnt_cntr_cl=0;
   \   000001BA   8B26               STD     Z+22, R18
   \   000001BC   8B27               STD     Z+23, R18
   2973          
   2974                               // ďđčńóňńňâčĺ â ňŕáëčöĺ
   2975                                 }
   2976                             cnt_no_link=vol_cnt_no_link;//dobavka
   \                     ??proc_udp_data_7:
   \   000001BE   ....               LDI     R30, LOW(vol_cnt_no_link)
   \   000001C0   ....               LDI     R31, (vol_cnt_no_link) >> 8
   \   000001C2   8100               LD      R16, Z
   \   000001C4   8111               LDD     R17, Z+1
   \   000001C6   8122               LDD     R18, Z+2
   \   000001C8   8133               LDD     R19, Z+3
   \   000001CA   ....               LDI     R30, LOW(cnt_no_link)
   \   000001CC   ....               LDI     R31, (cnt_no_link) >> 8
   \   000001CE   8300               ST      Z, R16
   \   000001D0   8311               STD     Z+1, R17
   \   000001D2   8322               STD     Z+2, R18
   \   000001D4   8333               STD     Z+3, R19
   2977                             Control.link_waits=FALSE;
   \   000001D6   E000               LDI     R16, 0
   \   000001D8   ....               LDI     R30, LOW(Control)
   \   000001DA   ....               LDI     R31, (Control) >> 8
   \   000001DC   8301               STD     Z+1, R16
   2978                             Control.cnt_link=Control.vol_link;                  
   \   000001DE   8500               LDD     R16, Z+8
   \   000001E0   8511               LDD     R17, Z+9
   \   000001E2   8304               STD     Z+4, R16
   \   000001E4   8315               STD     Z+5, R17
   2979                             Control.link=FALSE;                           
   \   000001E6   E000               LDI     R16, 0
   \   000001E8   8302               STD     Z+2, R16
   2980                             Control.cnt_try=0;
   \   000001EA   8706               STD     Z+14, R16
   2981                             Control.link_no=FALSE;    
   \   000001EC   8300               ST      Z, R16
   2982                            
   2983                            send_info(sizeof(ans_in_ctrl_cl),ans_in_ctrl_cl,1,buf_rx_ppp[TR_ID]);
   \   000001EE   01FD               MOVW    R31:R30, R27:R26
   \   000001F0   A145               LDD     R20, Z+37
   \   000001F2   E011               LDI     R17, 1
   \   000001F4   ....               LDI     R18, LOW((evc_rld + 25))
   \   000001F6   ....               LDI     R19, HIGH((evc_rld + 25))
   \   000001F8   E00C               LDI     R16, 12
   \                     ??proc_udp_data_8:
   \   000001FA   ........           CALL    send_info
   \   000001FE   C343               RJMP    ??proc_udp_data_5
   2984                            return(1);
   2985                            }
   2986                          
   2987                          
   2988                          
   2989                          
   2990                           if(buf_rx_ppp[offset+C1_PROT]!=PROT_C1)return(0);
   \                     ??proc_udp_data_6:
   \   00000200   8120               LD      R18, Z
   \   00000202   3021               CPI     R18, 1
   \   00000204   F009               BREQ    $+2+2
   \   00000206   CF08               RJMP    ??proc_udp_data_1
   \   00000208   ....               LDI     R18, LOW(buf_tx_232)
   \   0000020A   2E62               MOV     R6, R18
   \   0000020C   ....               LDI     R18, (buf_tx_232) >> 8
   \   0000020E   2E72               MOV     R7, R18
   \   00000210   ....               LDI     R24, LOW(Obj_ppp_tx)
   \   00000212   ....               LDI     R25, (Obj_ppp_tx) >> 8
   \   00000214   8121               LDD     R18, Z+1
   \   00000216   5021               SUBI    R18, 1
   \   00000218   F081               BREQ    ??proc_udp_data_9
   \   0000021A   952A               DEC     R18
   \   0000021C   F409               BRNE    $+2+2
   \   0000021E   C0D2               RJMP    ??proc_udp_data_10
   \   00000220   952A               DEC     R18
   \   00000222   F409               BRNE    $+2+2
   \   00000224   C192               RJMP    ??proc_udp_data_11
   \   00000226   952A               DEC     R18
   \   00000228   F409               BRNE    $+2+2
   \   0000022A   C252               RJMP    ??proc_udp_data_12
   \   0000022C   5022               SUBI    R18, 2
   \   0000022E   F409               BRNE    $+2+2
   \   00000230   C38E               RJMP    ??proc_udp_data_13
   \   00000232   952A               DEC     R18
   \   00000234   F409               BRNE    $+2+2
   \   00000236   C4A7               RJMP    ??proc_udp_data_14
   \   00000238   CEEF               RJMP    ??proc_udp_data_1
   2991                            
   2992                           
   2993                           
   2994                            
   2995                            
   2996                            switch(buf_rx_ppp[offset+C1_PORT])
   2997                                {
   2998                                 case PORT485_1:
   2999             
   3000                                      
   3001                                      if(length<11) 
   \                     ??proc_udp_data_9:
   \   0000023A   E00B               LDI     R16, 11
   \   0000023C   16E0               CP      R14, R16
   \   0000023E   E000               LDI     R16, 0
   \   00000240   06F0               CPC     R15, R16
   \   00000242   F488               BRCC    ??proc_udp_data_15
   3002                                            {
   3003                                              // ěîćíî îňďđŕâčü ńîîáůĺíčĺ îá îřčáęĺ "íĺęîđđĺęňíűĺ äŕííűĺ"
   3004                                             send_info(sizeof(ans_out_485_1),ans_out_485_1,1,buf_rx_ppp[TR_ID]);
   \   00000244   01FD               MOVW    R31:R30, R27:R26
   \   00000246   A145               LDD     R20, Z+37
   \   00000248   E011               LDI     R17, 1
   \   0000024A   ....               LDI     R18, LOW((evc_rld + 37))
   \   0000024C   ....               LDI     R19, HIGH((evc_rld + 37))
   \   0000024E   E00A               LDI     R16, 10
   \   00000250   ........           CALL    send_info
   3005                                             send_err485(NUM_RS485_1,RS_DATA_ERR,buf_rx_ppp[TR_ID],*(unsigned int*)&buf_rx_ppp[TR_SRC]);
   \   00000254   01FD               MOVW    R31:R30, R27:R26
   \   00000256   8D46               LDD     R20, Z+30
   \   00000258   8D57               LDD     R21, Z+31
   \   0000025A   A125               LDD     R18, Z+37
   \   0000025C   E016               LDI     R17, 6
   \                     ??proc_udp_data_16:
   \   0000025E   E001               LDI     R16, 1
   \                     ??proc_udp_data_17:
   \   00000260   ........           CALL    send_err485
   \   00000264   CED9               RJMP    ??proc_udp_data_1
   3006                                             return(0);
   3007                                            }                 
   3008                            
   3009                                       if(length> LN_BUF_485_1+10) 
   \                     ??proc_udp_data_15:
   \   00000266   ED03               LDI     R16, 211
   \   00000268   16E0               CP      R14, R16
   \   0000026A   E000               LDI     R16, 0
   \   0000026C   06F0               CPC     R15, R16
   \   0000026E   F070               BRCS    ??proc_udp_data_18
   3010                                           {
   3011                                          // ěîćíî îňďđŕâčü ńîîáůĺíčĺ îá îřčáęĺ "ńëčřęîě äëčííűĺ äŕííűĺ äë˙ ďđčëîćĺíč˙"
   3012                                             send_info(sizeof(ans_out_485_1),ans_out_485_1,1,buf_rx_ppp[TR_ID]);
   \   00000270   01FD               MOVW    R31:R30, R27:R26
   \   00000272   A145               LDD     R20, Z+37
   \   00000274   E011               LDI     R17, 1
   \   00000276   ....               LDI     R18, LOW((evc_rld + 37))
   \   00000278   ....               LDI     R19, HIGH((evc_rld + 37))
   \   0000027A   E00A               LDI     R16, 10
   \   0000027C   ........           CALL    send_info
   3013                                             send_err485(NUM_RS485_1,RS_OVER_BUF_TX,buf_rx_ppp[TR_ID],*(unsigned int*)&buf_rx_ppp[TR_SRC]);
   \   00000280   01FD               MOVW    R31:R30, R27:R26
   \   00000282   8D46               LDD     R20, Z+30
   \   00000284   8D57               LDD     R21, Z+31
   \   00000286   A125               LDD     R18, Z+37
   \   00000288   E015               LDI     R17, 5
   \   0000028A   CFE9               RJMP    ??proc_udp_data_16
   3014                                             return(0);
   3015                                            } 
   3016                                      
   3017                                    
   3018                                      // çäĺńü äîëćíŕ áűňü ďđîâĺđęŕ ęîíňĺęńňŕ, ĺńëč âńĺ íîđěŕëüíî ňî äŕëüřĺ çŕáčň ęîíňĺęńň
   3019                                      // ňî ěîćíî ďîńëŕňü ńëóćĺáíîĺ ńîîáůĺíčĺ
   3020                                     
   3021                                           if (check_cont_485_1 (&buf_rx_ppp[offset+C1_CONT])==1)
   \                     ??proc_udp_data_18:
   \   0000028C   E002               LDI     R16, 2
   \   0000028E   0E40               ADD     R4, R16
   \   00000290   E000               LDI     R16, 0
   \   00000292   1E50               ADC     R5, R16
   \   00000294   0182               MOVW    R17:R16, R5:R4
   \   00000296   ........           CALL    check_cont_485_1
   \   0000029A   3001               CPI     R16, 1
   \   0000029C   F471               BRNE    ??proc_udp_data_19
   3022                                           {
   3023                                             send_info(sizeof(ans_out_485_1),ans_out_485_1,1,buf_rx_ppp[TR_ID]);
   \   0000029E   01FD               MOVW    R31:R30, R27:R26
   \   000002A0   A145               LDD     R20, Z+37
   \   000002A2   E011               LDI     R17, 1
   \   000002A4   ....               LDI     R18, LOW((evc_rld + 37))
   \   000002A6   ....               LDI     R19, HIGH((evc_rld + 37))
   \   000002A8   E00A               LDI     R16, 10
   \   000002AA   ........           CALL    send_info
   3024                                             send_err485(NUM_RS485_1,RS_NO_CONT,buf_rx_ppp[TR_ID],*(unsigned int*)&buf_rx_ppp[TR_SRC]);
   \   000002AE   01FD               MOVW    R31:R30, R27:R26
   \   000002B0   8D46               LDD     R20, Z+30
   \   000002B2   8D57               LDD     R21, Z+31
   \   000002B4   A125               LDD     R18, Z+37
   \   000002B6   E012               LDI     R17, 2
   \   000002B8   CFD2               RJMP    ??proc_udp_data_16
   3025                                             return(0);
   3026                                            } 
   3027                                     
   3028                                     
   3029                                      if(Appl_RS485_1.fl_data_buf==TRUE)
   \                     ??proc_udp_data_19:
   \   000002BA   ....               LDI     R16, LOW(Appl_RS485_1)
   \   000002BC   2E40               MOV     R4, R16
   \   000002BE   ....               LDI     R16, (Appl_RS485_1) >> 8
   \   000002C0   2E50               MOV     R5, R16
   \   000002C2   01F2               MOVW    R31:R30, R5:R4
   \   000002C4   8100               LD      R16, Z
   \   000002C6   3001               CPI     R16, 1
   \   000002C8   F471               BRNE    ??proc_udp_data_20
   3030                                         {
   3031                                         // ňî ěîćíî ďîńëŕňü ńëóćĺáíîĺ ńîîáůĺíčĺ ÷ňî áóôĺđ ďĺđĺďîëíĺí
   3032                                         send_info(sizeof(ans_out_485_1),ans_out_485_1,1,buf_rx_ppp[TR_ID]);
   \   000002CA   01FD               MOVW    R31:R30, R27:R26
   \   000002CC   A145               LDD     R20, Z+37
   \   000002CE   E011               LDI     R17, 1
   \   000002D0   ....               LDI     R18, LOW((evc_rld + 37))
   \   000002D2   ....               LDI     R19, HIGH((evc_rld + 37))
   \   000002D4   E00A               LDI     R16, 10
   \   000002D6   ........           CALL    send_info
   3033                                         send_err485(NUM_RS485_1,RS_BUSY,buf_rx_ppp[TR_ID],*(unsigned int*)&buf_rx_ppp[TR_SRC]);
   \   000002DA   01FD               MOVW    R31:R30, R27:R26
   \   000002DC   8D46               LDD     R20, Z+30
   \   000002DE   8D57               LDD     R21, Z+31
   \   000002E0   A125               LDD     R18, Z+37
   \   000002E2   E013               LDI     R17, 3
   \   000002E4   CFBC               RJMP    ??proc_udp_data_16
   3034                                         break;
   3035                                         }
   3036                                         
   3037                                          
   3038                                         if(Regim==RG_DEBAG)
   \                     ??proc_udp_data_20:
   \   000002E6   9100....           LDS     R16, Regim
   \   000002EA   3001               CPI     R16, 1
   \   000002EC   F471               BRNE    ??proc_udp_data_21
   3039                                         {// âęëţ÷ĺí ňĺńňîâűé đĺćčě!!!
   3040                                           send_info(sizeof(ans_out_485_1),ans_out_485_1,1,buf_rx_ppp[TR_ID]);
   \   000002EE   01FD               MOVW    R31:R30, R27:R26
   \   000002F0   A145               LDD     R20, Z+37
   \   000002F2   E011               LDI     R17, 1
   \   000002F4   ....               LDI     R18, LOW((evc_rld + 37))
   \   000002F6   ....               LDI     R19, HIGH((evc_rld + 37))
   \   000002F8   E00A               LDI     R16, 10
   \   000002FA   ........           CALL    send_info
   3041                                           send_err485(NUM_RS485_1,RS_TEST,buf_rx_ppp[TR_ID],*(unsigned int*)&buf_rx_ppp[TR_SRC]);
   \   000002FE   01FD               MOVW    R31:R30, R27:R26
   \   00000300   8D46               LDD     R20, Z+30
   \   00000302   8D57               LDD     R21, Z+31
   \   00000304   A125               LDD     R18, Z+37
   \   00000306   E018               LDI     R17, 8
   \   00000308   CFAA               RJMP    ??proc_udp_data_16
   3042                                           return(0);
   3043                                         }
   3044                                      
   3045                                      
   3046                                          Appl_RS485_1.pre_tx=0;
   \                     ??proc_udp_data_21:
   \   0000030A   E000               LDI     R16, 0
   \   0000030C   8B01               STD     Z+17, R16
   \   0000030E   8B02               STD     Z+18, R16
   3047                                          if(length_head>MIN_TR_HEAD)
   \   00000310   E00D               LDI     R16, 13
   \   00000312   16A0               CP      R10, R16
   \   00000314   F070               BRCS    ??proc_udp_data_22
   3048                                            {
   3049                                              if (proc_option(buf_rx_ppp,TR_OP_DATA,length_head-MIN_TR_HEAD)!=1)return(0);                                                                  
   \   00000316   01A6               MOVW    R21:R20, R13:R12
   \   00000318   E22A               LDI     R18, 42
   \   0000031A   E030               LDI     R19, 0
   \   0000031C   018D               MOVW    R17:R16, R27:R26
   \   0000031E   ....               RCALL   proc_option
   \   00000320   3001               CPI     R16, 1
   \   00000322   F009               BREQ    $+2+2
   \   00000324   CE79               RJMP    ??proc_udp_data_1
   3050                                              Appl_RS485_1.pre_tx=delay_pre_tx;//çŕäĺđćęŕ ďĺđĺä ďĺđĺäŕ÷ĺé
   \   00000326   01FC               MOVW    R31:R30, R25:R24
   \   00000328   8900               LDD     R16, Z+16
   \   0000032A   8911               LDD     R17, Z+17
   \   0000032C   01F2               MOVW    R31:R30, R5:R4
   \   0000032E   8B01               STD     Z+17, R16
   \   00000330   8B12               STD     Z+18, R17
   3051                                            } 
   3052                                      
   3053                                         
   3054                                         
   3055                                         if(fl_485_1.busy==1)Appl_RS485_1.fl_data_buf=TRUE;
   \                     ??proc_udp_data_22:
   \   00000332   ....               LDI     R30, LOW(fl_485_1)
   \   00000334   ....               LDI     R31, (fl_485_1) >> 8
   \   00000336   8100               LD      R16, Z
   \   00000338   FF00               SBRS    R16, 0
   \   0000033A   C003               RJMP    ??proc_udp_data_23
   \   0000033C   E001               LDI     R16, 1
   \   0000033E   01F2               MOVW    R31:R30, R5:R4
   \   00000340   C002               RJMP    ??proc_udp_data_24
   3056                                         else fl_485_1.tx=1;
   \                     ??proc_udp_data_23:
   \   00000342   8100               LD      R16, Z
   \   00000344   6008               ORI     R16, 0x08
   \                     ??proc_udp_data_24:
   \   00000346   8300               ST      Z, R16
   3057                                         Appl_RS485_1.dst_buf=*(unsigned int*)&buf_rx_ppp[TR_SRC];
   \   00000348   01FD               MOVW    R31:R30, R27:R26
   \   0000034A   8D06               LDD     R16, Z+30
   \   0000034C   8D17               LDD     R17, Z+31
   \   0000034E   01F2               MOVW    R31:R30, R5:R4
   \   00000350   8303               STD     Z+3, R16
   \   00000352   8314               STD     Z+4, R17
   3058                                         Appl_RS485_1.id_buf=buf_rx_ppp[TR_ID];
   \   00000354   01FD               MOVW    R31:R30, R27:R26
   \   00000356   A105               LDD     R16, Z+37
   \   00000358   01F2               MOVW    R31:R30, R5:R4
   \   0000035A   8705               STD     Z+13, R16
   3059                                         
   3060                                         for(i=0;i<8;i++)Appl_RS485_1.cont_buf[i]=buf_rx_ppp[offset+C1_CONT+i];
   \   0000035C   2488               CLR     R8
   \   0000035E   C00F               RJMP    ??proc_udp_data_25
   \                     ??proc_udp_data_26:
   \   00000360   2D08               MOV     R16, R8
   \   00000362   E010               LDI     R17, 0
   \   00000364   2D2B               MOV     R18, R11
   \   00000366   E030               LDI     R19, 0
   \   00000368   0F20               ADD     R18, R16
   \   0000036A   1F31               ADC     R19, R17
   \   0000036C   01FD               MOVW    R31:R30, R27:R26
   \   0000036E   0FE2               ADD     R30, R18
   \   00000370   1FF3               ADC     R31, R19
   \   00000372   8122               LDD     R18, Z+2
   \   00000374   01F2               MOVW    R31:R30, R5:R4
   \   00000376   0FE0               ADD     R30, R16
   \   00000378   1FF1               ADC     R31, R17
   \   0000037A   8325               STD     Z+5, R18
   \   0000037C   9483               INC     R8
   \                     ??proc_udp_data_25:
   \   0000037E   E008               LDI     R16, 8
   \   00000380   1680               CP      R8, R16
   \   00000382   F370               BRCS    ??proc_udp_data_26
   3061                                         
   3062                                         Appl_RS485_1.ln_data_buf=length-10;
   \   00000384   EF06               LDI     R16, 246
   \   00000386   0EE0               ADD     R14, R16
   \   00000388   EF0F               LDI     R16, 255
   \   0000038A   1EF0               ADC     R15, R16
   \   0000038C   01F2               MOVW    R31:R30, R5:R4
   \   0000038E   82E1               STD     Z+1, R14
   \   00000390   82F2               STD     Z+2, R15
   3063                                         for(i=0;i<Appl_RS485_1.ln_data_buf;i++)Appl_RS485_1_data_buf[i]=buf_rx_ppp[offset+C1_DATA_RS+i];
   \   00000392   2488               CLR     R8
   \                     ??proc_udp_data_27:
   \   00000394   2499               CLR     R9
   \   00000396   01F2               MOVW    R31:R30, R5:R4
   \   00000398   8101               LDD     R16, Z+1
   \   0000039A   8112               LDD     R17, Z+2
   \   0000039C   1680               CP      R8, R16
   \   0000039E   0691               CPC     R9, R17
   \   000003A0   F008               BRCS    $+2+2
   \   000003A2   CE3A               RJMP    ??proc_udp_data_1
   \   000003A4   2D08               MOV     R16, R8
   \   000003A6   E010               LDI     R17, 0
   \   000003A8   2D2B               MOV     R18, R11
   \   000003AA   E030               LDI     R19, 0
   \   000003AC   0F20               ADD     R18, R16
   \   000003AE   1D39               ADC     R19, R9
   \   000003B0   01FD               MOVW    R31:R30, R27:R26
   \   000003B2   0FE2               ADD     R30, R18
   \   000003B4   1FF3               ADC     R31, R19
   \   000003B6   8522               LDD     R18, Z+10
   \   000003B8   01F8               MOVW    R31:R30, R17:R16
   \   000003BA   ....               SUBI    R30, LOW((-(Appl_RS485_1_data_buf) & 0xFFFF))
   \   000003BC   ....               SBCI    R31, (-(Appl_RS485_1_data_buf) & 0xFFFF) >> 8
   \   000003BE   8320               ST      Z, R18
   \   000003C0   9483               INC     R8
   \   000003C2   CFE8               RJMP    ??proc_udp_data_27
   3064                                   
   3065                                      
   3066                                      break;
   3067                                 case PORT485_2:
   3068                                   
   3069             
   3070                                          if(length<11) 
   \                     ??proc_udp_data_10:
   \   000003C4   E00B               LDI     R16, 11
   \   000003C6   16E0               CP      R14, R16
   \   000003C8   E000               LDI     R16, 0
   \   000003CA   06F0               CPC     R15, R16
   \   000003CC   F478               BRCC    ??proc_udp_data_28
   3071                                            {
   3072                                              // ěîćíî îňďđŕâčü ńîîáůĺíčĺ îá îřčáęĺ "íĺęîđđĺęňíűĺ äŕííűĺ"
   3073                                             send_info(sizeof(ans_out_485_2),ans_out_485_2,1,buf_rx_ppp[TR_ID]);
   \   000003CE   01FD               MOVW    R31:R30, R27:R26
   \   000003D0   A145               LDD     R20, Z+37
   \   000003D2   E011               LDI     R17, 1
   \   000003D4   ....               LDI     R18, LOW((evc_rld + 47))
   \   000003D6   ....               LDI     R19, HIGH((evc_rld + 47))
   \   000003D8   E00A               LDI     R16, 10
   \   000003DA   ........           CALL    send_info
   3074                                             send_err485(NUM_RS485_2,RS_DATA_ERR,buf_rx_ppp[TR_ID],*(unsigned int*)&buf_rx_ppp[TR_SRC]);
   \   000003DE   01FD               MOVW    R31:R30, R27:R26
   \   000003E0   8D46               LDD     R20, Z+30
   \   000003E2   8D57               LDD     R21, Z+31
   \   000003E4   A125               LDD     R18, Z+37
   \   000003E6   E016               LDI     R17, 6
   \                     ??proc_udp_data_29:
   \   000003E8   E002               LDI     R16, 2
   \   000003EA   CF3A               RJMP    ??proc_udp_data_17
   3075                                             return(0);
   3076                                            }                 
   3077                            
   3078                                       if(length> LN_BUF_485_2+10) 
   \                     ??proc_udp_data_28:
   \   000003EC   ED03               LDI     R16, 211
   \   000003EE   16E0               CP      R14, R16
   \   000003F0   E000               LDI     R16, 0
   \   000003F2   06F0               CPC     R15, R16
   \   000003F4   F070               BRCS    ??proc_udp_data_30
   3079                                           {
   3080                                          // ěîćíî îňďđŕâčü ńîîáůĺíčĺ îá îřčáęĺ "ńëčřęîě äëčííűĺ äŕííűĺ äë˙ ďđčëîćĺíč˙"
   3081                                             send_info(sizeof(ans_out_485_2),ans_out_485_2,1,buf_rx_ppp[TR_ID]);
   \   000003F6   01FD               MOVW    R31:R30, R27:R26
   \   000003F8   A145               LDD     R20, Z+37
   \   000003FA   E011               LDI     R17, 1
   \   000003FC   ....               LDI     R18, LOW((evc_rld + 47))
   \   000003FE   ....               LDI     R19, HIGH((evc_rld + 47))
   \   00000400   E00A               LDI     R16, 10
   \   00000402   ........           CALL    send_info
   3082                                             send_err485(NUM_RS485_2,RS_OVER_BUF_TX,buf_rx_ppp[TR_ID],*(unsigned int*)&buf_rx_ppp[TR_SRC]);
   \   00000406   01FD               MOVW    R31:R30, R27:R26
   \   00000408   8D46               LDD     R20, Z+30
   \   0000040A   8D57               LDD     R21, Z+31
   \   0000040C   A125               LDD     R18, Z+37
   \   0000040E   E015               LDI     R17, 5
   \   00000410   CFEB               RJMP    ??proc_udp_data_29
   3083                                             return(0);
   3084                                            } 
   3085                                      
   3086                                      
   3087                                      // çäĺńü äîëćíŕ áűňü ďđîâĺđęŕ ęîíňĺęńňŕ, ĺńëč âńĺ íîđěŕëüíî ňî äŕëüřĺ çŕáčň ęîíňĺęńň
   3088                                      // ňî ěîćíî ďîńëŕňü ńëóćĺáíîĺ ńîîáůĺíčĺ
   3089                                       if (check_cont_485_1 (&buf_rx_ppp[offset+C1_CONT])==1)
   \                     ??proc_udp_data_30:
   \   00000412   E002               LDI     R16, 2
   \   00000414   0E40               ADD     R4, R16
   \   00000416   E000               LDI     R16, 0
   \   00000418   1E50               ADC     R5, R16
   \   0000041A   0182               MOVW    R17:R16, R5:R4
   \   0000041C   ........           CALL    check_cont_485_1
   \   00000420   3001               CPI     R16, 1
   \   00000422   F471               BRNE    ??proc_udp_data_31
   3090                                           {
   3091                                             send_info(sizeof(ans_out_485_2),ans_out_485_2,1,buf_rx_ppp[TR_ID]);
   \   00000424   01FD               MOVW    R31:R30, R27:R26
   \   00000426   A145               LDD     R20, Z+37
   \   00000428   E011               LDI     R17, 1
   \   0000042A   ....               LDI     R18, LOW((evc_rld + 47))
   \   0000042C   ....               LDI     R19, HIGH((evc_rld + 47))
   \   0000042E   E00A               LDI     R16, 10
   \   00000430   ........           CALL    send_info
   3092                                             send_err485(NUM_RS485_2,RS_NO_CONT,buf_rx_ppp[TR_ID],*(unsigned int*)&buf_rx_ppp[TR_SRC]);
   \   00000434   01FD               MOVW    R31:R30, R27:R26
   \   00000436   8D46               LDD     R20, Z+30
   \   00000438   8D57               LDD     R21, Z+31
   \   0000043A   A125               LDD     R18, Z+37
   \   0000043C   E012               LDI     R17, 2
   \   0000043E   CFD4               RJMP    ??proc_udp_data_29
   3093                                             return(0);
   3094                                            } 
   3095                                      
   3096                                      
   3097                                      if(Appl_RS485_2.fl_data_buf==TRUE)
   \                     ??proc_udp_data_31:
   \   00000440   ....               LDI     R16, LOW(Appl_RS485_2)
   \   00000442   2E40               MOV     R4, R16
   \   00000444   ....               LDI     R16, (Appl_RS485_2) >> 8
   \   00000446   2E50               MOV     R5, R16
   \   00000448   01F2               MOVW    R31:R30, R5:R4
   \   0000044A   8100               LD      R16, Z
   \   0000044C   3001               CPI     R16, 1
   \   0000044E   F471               BRNE    ??proc_udp_data_32
   3098                                         {
   3099                                         // ňî ěîćíî ďîńëŕňü ńëóćĺáíîĺ ńîîáůĺíčĺ ÷ňî áóôĺđ ďĺđĺďîëíĺí
   3100                                         send_info(sizeof(ans_out_485_2),ans_out_485_2,1,buf_rx_ppp[TR_ID]);
   \   00000450   01FD               MOVW    R31:R30, R27:R26
   \   00000452   A145               LDD     R20, Z+37
   \   00000454   E011               LDI     R17, 1
   \   00000456   ....               LDI     R18, LOW((evc_rld + 47))
   \   00000458   ....               LDI     R19, HIGH((evc_rld + 47))
   \   0000045A   E00A               LDI     R16, 10
   \   0000045C   ........           CALL    send_info
   3101                                         send_err485(NUM_RS485_2,RS_BUSY,buf_rx_ppp[TR_ID],*(unsigned int*)&buf_rx_ppp[TR_SRC]);
   \   00000460   01FD               MOVW    R31:R30, R27:R26
   \   00000462   8D46               LDD     R20, Z+30
   \   00000464   8D57               LDD     R21, Z+31
   \   00000466   A125               LDD     R18, Z+37
   \   00000468   E013               LDI     R17, 3
   \   0000046A   CFBE               RJMP    ??proc_udp_data_29
   3102                                         break;
   3103                                         }
   3104                                         
   3105                                         if(Regim==RG_DEBAG)
   \                     ??proc_udp_data_32:
   \   0000046C   9100....           LDS     R16, Regim
   \   00000470   3001               CPI     R16, 1
   \   00000472   F471               BRNE    ??proc_udp_data_33
   3106                                         {// âęëţ÷ĺí ňĺńňîâűé đĺćčě!!!
   3107                                            send_info(sizeof(ans_out_485_2),ans_out_485_2,1,buf_rx_ppp[TR_ID]);
   \   00000474   01FD               MOVW    R31:R30, R27:R26
   \   00000476   A145               LDD     R20, Z+37
   \   00000478   E011               LDI     R17, 1
   \   0000047A   ....               LDI     R18, LOW((evc_rld + 47))
   \   0000047C   ....               LDI     R19, HIGH((evc_rld + 47))
   \   0000047E   E00A               LDI     R16, 10
   \   00000480   ........           CALL    send_info
   3108                                           send_err485(NUM_RS485_2,RS_TEST,buf_rx_ppp[TR_ID],*(unsigned int*)&buf_rx_ppp[TR_SRC]);
   \   00000484   01FD               MOVW    R31:R30, R27:R26
   \   00000486   8D46               LDD     R20, Z+30
   \   00000488   8D57               LDD     R21, Z+31
   \   0000048A   A125               LDD     R18, Z+37
   \   0000048C   E018               LDI     R17, 8
   \   0000048E   CFAC               RJMP    ??proc_udp_data_29
   3109                                           return(0);
   3110                                         }
   3111                                         
   3112                                         Appl_RS485_2.pre_tx=0;
   \                     ??proc_udp_data_33:
   \   00000490   E000               LDI     R16, 0
   \   00000492   8B01               STD     Z+17, R16
   \   00000494   8B02               STD     Z+18, R16
   3113                                          if(length_head>MIN_TR_HEAD)
   \   00000496   E00D               LDI     R16, 13
   \   00000498   16A0               CP      R10, R16
   \   0000049A   F070               BRCS    ??proc_udp_data_34
   3114                                            {
   3115                                              if (proc_option(buf_rx_ppp,TR_OP_DATA,length_head-MIN_TR_HEAD)!=1)return(0);                                                                  
   \   0000049C   01A6               MOVW    R21:R20, R13:R12
   \   0000049E   E22A               LDI     R18, 42
   \   000004A0   E030               LDI     R19, 0
   \   000004A2   018D               MOVW    R17:R16, R27:R26
   \   000004A4   ....               RCALL   proc_option
   \   000004A6   3001               CPI     R16, 1
   \   000004A8   F009               BREQ    $+2+2
   \   000004AA   CDB6               RJMP    ??proc_udp_data_1
   3116                                              Appl_RS485_2.pre_tx=delay_pre_tx;//çŕäĺđćęŕ ďĺđĺä ďĺđĺäŕ÷ĺé
   \   000004AC   01FC               MOVW    R31:R30, R25:R24
   \   000004AE   8900               LDD     R16, Z+16
   \   000004B0   8911               LDD     R17, Z+17
   \   000004B2   01F2               MOVW    R31:R30, R5:R4
   \   000004B4   8B01               STD     Z+17, R16
   \   000004B6   8B12               STD     Z+18, R17
   3117                                            } 
   3118                                         
   3119                                         
   3120                                         if(fl_485_2.busy==1)Appl_RS485_2.fl_data_buf=TRUE;
   \                     ??proc_udp_data_34:
   \   000004B8   ....               LDI     R30, LOW(fl_485_2)
   \   000004BA   ....               LDI     R31, (fl_485_2) >> 8
   \   000004BC   8100               LD      R16, Z
   \   000004BE   FF00               SBRS    R16, 0
   \   000004C0   C003               RJMP    ??proc_udp_data_35
   \   000004C2   E001               LDI     R16, 1
   \   000004C4   01F2               MOVW    R31:R30, R5:R4
   \   000004C6   C002               RJMP    ??proc_udp_data_36
   3121                                         else fl_485_2.tx=1;
   \                     ??proc_udp_data_35:
   \   000004C8   8100               LD      R16, Z
   \   000004CA   6008               ORI     R16, 0x08
   \                     ??proc_udp_data_36:
   \   000004CC   8300               ST      Z, R16
   3122                                         Appl_RS485_2.dst_buf=*(unsigned int*)&buf_rx_ppp[TR_SRC];
   \   000004CE   01FD               MOVW    R31:R30, R27:R26
   \   000004D0   8D06               LDD     R16, Z+30
   \   000004D2   8D17               LDD     R17, Z+31
   \   000004D4   01F2               MOVW    R31:R30, R5:R4
   \   000004D6   8303               STD     Z+3, R16
   \   000004D8   8314               STD     Z+4, R17
   3123                                         Appl_RS485_2.id_buf=buf_rx_ppp[TR_ID];
   \   000004DA   01FD               MOVW    R31:R30, R27:R26
   \   000004DC   A105               LDD     R16, Z+37
   \   000004DE   01F2               MOVW    R31:R30, R5:R4
   \   000004E0   8705               STD     Z+13, R16
   3124                                         for(i=0;i<8;i++)Appl_RS485_2.cont_buf[i]=buf_rx_ppp[offset+C1_CONT+i];
   \   000004E2   2488               CLR     R8
   \   000004E4   C00F               RJMP    ??proc_udp_data_37
   \                     ??proc_udp_data_38:
   \   000004E6   2D08               MOV     R16, R8
   \   000004E8   E010               LDI     R17, 0
   \   000004EA   2D2B               MOV     R18, R11
   \   000004EC   E030               LDI     R19, 0
   \   000004EE   0F20               ADD     R18, R16
   \   000004F0   1F31               ADC     R19, R17
   \   000004F2   01FD               MOVW    R31:R30, R27:R26
   \   000004F4   0FE2               ADD     R30, R18
   \   000004F6   1FF3               ADC     R31, R19
   \   000004F8   8122               LDD     R18, Z+2
   \   000004FA   01F2               MOVW    R31:R30, R5:R4
   \   000004FC   0FE0               ADD     R30, R16
   \   000004FE   1FF1               ADC     R31, R17
   \   00000500   8325               STD     Z+5, R18
   \   00000502   9483               INC     R8
   \                     ??proc_udp_data_37:
   \   00000504   E008               LDI     R16, 8
   \   00000506   1680               CP      R8, R16
   \   00000508   F370               BRCS    ??proc_udp_data_38
   3125                                         Appl_RS485_2.ln_data_buf=length-10;
   \   0000050A   EF06               LDI     R16, 246
   \   0000050C   0EE0               ADD     R14, R16
   \   0000050E   EF0F               LDI     R16, 255
   \   00000510   1EF0               ADC     R15, R16
   \   00000512   01F2               MOVW    R31:R30, R5:R4
   \   00000514   82E1               STD     Z+1, R14
   \   00000516   82F2               STD     Z+2, R15
   3126                                         for(i=0;i<Appl_RS485_2.ln_data_buf;i++)Appl_RS485_2_data_buf[i]=buf_rx_ppp[offset+C1_DATA_RS+i];
   \   00000518   2488               CLR     R8
   \                     ??proc_udp_data_39:
   \   0000051A   2499               CLR     R9
   \   0000051C   01F2               MOVW    R31:R30, R5:R4
   \   0000051E   8101               LDD     R16, Z+1
   \   00000520   8112               LDD     R17, Z+2
   \   00000522   1680               CP      R8, R16
   \   00000524   0691               CPC     R9, R17
   \   00000526   F008               BRCS    $+2+2
   \   00000528   CD77               RJMP    ??proc_udp_data_1
   \   0000052A   2D08               MOV     R16, R8
   \   0000052C   E010               LDI     R17, 0
   \   0000052E   2D2B               MOV     R18, R11
   \   00000530   E030               LDI     R19, 0
   \   00000532   0F20               ADD     R18, R16
   \   00000534   1D39               ADC     R19, R9
   \   00000536   01FD               MOVW    R31:R30, R27:R26
   \   00000538   0FE2               ADD     R30, R18
   \   0000053A   1FF3               ADC     R31, R19
   \   0000053C   8522               LDD     R18, Z+10
   \   0000053E   01F8               MOVW    R31:R30, R17:R16
   \   00000540   ....               SUBI    R30, LOW((-(Appl_RS485_2_data_buf) & 0xFFFF))
   \   00000542   ....               SBCI    R31, (-(Appl_RS485_2_data_buf) & 0xFFFF) >> 8
   \   00000544   8320               ST      Z, R18
   \   00000546   9483               INC     R8
   \   00000548   CFE8               RJMP    ??proc_udp_data_39
   3127                                         
   3128                                         
   3129                                      break;
   3130                                 
   3131                                      
   3132                               case PORT232_2:
   3133                                   
   3134             
   3135                                          if(length<11) 
   \                     ??proc_udp_data_11:
   \   0000054A   E00B               LDI     R16, 11
   \   0000054C   16E0               CP      R14, R16
   \   0000054E   E000               LDI     R16, 0
   \   00000550   06F0               CPC     R15, R16
   \   00000552   F478               BRCC    ??proc_udp_data_40
   3136                                            {
   3137                                              // ěîćíî îňďđŕâčü ńîîáůĺíčĺ îá îřčáęĺ "íĺęîđđĺęňíűĺ äŕííűĺ"
   3138                                              send_info(sizeof(ans_out_232),ans_out_232,1,buf_rx_ppp[TR_ID]);
   \   00000554   01FD               MOVW    R31:R30, R27:R26
   \   00000556   A145               LDD     R20, Z+37
   \   00000558   E011               LDI     R17, 1
   \   0000055A   ....               LDI     R18, LOW((evc_rld + 57))
   \   0000055C   ....               LDI     R19, HIGH((evc_rld + 57))
   \   0000055E   E008               LDI     R16, 8
   \   00000560   ........           CALL    send_info
   3139                                              send_err485(NUM_RS232_2,RS_DATA_ERR,buf_rx_ppp[TR_ID],*(unsigned int*)&buf_rx_ppp[TR_SRC]);
   \   00000564   01FD               MOVW    R31:R30, R27:R26
   \   00000566   8D46               LDD     R20, Z+30
   \   00000568   8D57               LDD     R21, Z+31
   \   0000056A   A125               LDD     R18, Z+37
   \   0000056C   E016               LDI     R17, 6
   \                     ??proc_udp_data_41:
   \   0000056E   E003               LDI     R16, 3
   \   00000570   CE77               RJMP    ??proc_udp_data_17
   3140                                             return(0);
   3141                                            }                 
   3142                            
   3143                                       if(length> LN_BUF_232_2+10) 
   \                     ??proc_udp_data_40:
   \   00000572   ED03               LDI     R16, 211
   \   00000574   16E0               CP      R14, R16
   \   00000576   E000               LDI     R16, 0
   \   00000578   06F0               CPC     R15, R16
   \   0000057A   F070               BRCS    ??proc_udp_data_42
   3144                                           {
   3145                                          // ěîćíî îňďđŕâčü ńîîáůĺíčĺ îá îřčáęĺ "ńëčřęîě äëčííűĺ äŕííűĺ äë˙ ďđčëîćĺíč˙"
   3146                                             send_info(sizeof(ans_out_232),ans_out_232,1,buf_rx_ppp[TR_ID]);
   \   0000057C   01FD               MOVW    R31:R30, R27:R26
   \   0000057E   A145               LDD     R20, Z+37
   \   00000580   E011               LDI     R17, 1
   \   00000582   ....               LDI     R18, LOW((evc_rld + 57))
   \   00000584   ....               LDI     R19, HIGH((evc_rld + 57))
   \   00000586   E008               LDI     R16, 8
   \   00000588   ........           CALL    send_info
   3147                                             send_err485(NUM_RS232_2,RS_OVER_BUF_TX,buf_rx_ppp[TR_ID],*(unsigned int*)&buf_rx_ppp[TR_SRC]);
   \   0000058C   01FD               MOVW    R31:R30, R27:R26
   \   0000058E   8D46               LDD     R20, Z+30
   \   00000590   8D57               LDD     R21, Z+31
   \   00000592   A125               LDD     R18, Z+37
   \   00000594   E015               LDI     R17, 5
   \   00000596   CFEB               RJMP    ??proc_udp_data_41
   3148                                             return(0);
   3149                                            } 
   3150                                      
   3151                                      
   3152                                      // çäĺńü äîëćíŕ áűňü ďđîâĺđęŕ ęîíňĺęńňŕ, ĺńëč âńĺ íîđěŕëüíî ňî äŕëüřĺ çŕáčň ęîíňĺęńň
   3153                                      // ňî ěîćíî ďîńëŕňü ńëóćĺáíîĺ ńîîáůĺíčĺ
   3154                                       if (check_cont_485_1 (&buf_rx_ppp[offset+C1_CONT])==1)
   \                     ??proc_udp_data_42:
   \   00000598   E002               LDI     R16, 2
   \   0000059A   0E40               ADD     R4, R16
   \   0000059C   E000               LDI     R16, 0
   \   0000059E   1E50               ADC     R5, R16
   \   000005A0   0182               MOVW    R17:R16, R5:R4
   \   000005A2   ........           CALL    check_cont_485_1
   \   000005A6   3001               CPI     R16, 1
   \   000005A8   F471               BRNE    ??proc_udp_data_43
   3155                                           {
   3156                                             send_info(sizeof(ans_out_232),ans_out_232,1,buf_rx_ppp[TR_ID]);
   \   000005AA   01FD               MOVW    R31:R30, R27:R26
   \   000005AC   A145               LDD     R20, Z+37
   \   000005AE   E011               LDI     R17, 1
   \   000005B0   ....               LDI     R18, LOW((evc_rld + 57))
   \   000005B2   ....               LDI     R19, HIGH((evc_rld + 57))
   \   000005B4   E008               LDI     R16, 8
   \   000005B6   ........           CALL    send_info
   3157                                             send_err485(NUM_RS232_2,RS_NO_CONT,buf_rx_ppp[TR_ID],*(unsigned int*)&buf_rx_ppp[TR_SRC]);
   \   000005BA   01FD               MOVW    R31:R30, R27:R26
   \   000005BC   8D46               LDD     R20, Z+30
   \   000005BE   8D57               LDD     R21, Z+31
   \   000005C0   A125               LDD     R18, Z+37
   \   000005C2   E012               LDI     R17, 2
   \   000005C4   CFD4               RJMP    ??proc_udp_data_41
   3158                                             return(0);
   3159                                            } 
   3160                                      
   3161                                      
   3162                                      if(Appl_RS232_2.fl_data_buf==TRUE)
   \                     ??proc_udp_data_43:
   \   000005C6   ....               LDI     R16, LOW(Appl_RS232_2)
   \   000005C8   2E40               MOV     R4, R16
   \   000005CA   ....               LDI     R16, (Appl_RS232_2) >> 8
   \   000005CC   2E50               MOV     R5, R16
   \   000005CE   01F2               MOVW    R31:R30, R5:R4
   \   000005D0   8100               LD      R16, Z
   \   000005D2   3001               CPI     R16, 1
   \   000005D4   F471               BRNE    ??proc_udp_data_44
   3163                                         {
   3164                                         // ňî ěîćíî ďîńëŕňü ńëóćĺáíîĺ ńîîáůĺíčĺ ÷ňî áóôĺđ ďĺđĺďîëíĺí
   3165                                         send_info(sizeof(ans_out_232),ans_out_232,1,buf_rx_ppp[TR_ID]);
   \   000005D6   01FD               MOVW    R31:R30, R27:R26
   \   000005D8   A145               LDD     R20, Z+37
   \   000005DA   E011               LDI     R17, 1
   \   000005DC   ....               LDI     R18, LOW((evc_rld + 57))
   \   000005DE   ....               LDI     R19, HIGH((evc_rld + 57))
   \   000005E0   E008               LDI     R16, 8
   \   000005E2   ........           CALL    send_info
   3166                                           send_err485(NUM_RS232_2,RS_BUSY,buf_rx_ppp[TR_ID],*(unsigned int*)&buf_rx_ppp[TR_SRC]);
   \   000005E6   01FD               MOVW    R31:R30, R27:R26
   \   000005E8   8D46               LDD     R20, Z+30
   \   000005EA   8D57               LDD     R21, Z+31
   \   000005EC   A125               LDD     R18, Z+37
   \   000005EE   E013               LDI     R17, 3
   \   000005F0   CFBE               RJMP    ??proc_udp_data_41
   3167                                         break;
   3168                                         }
   3169                                         
   3170                                         if(Regim==RG_DEBAG)
   \                     ??proc_udp_data_44:
   \   000005F2   9100....           LDS     R16, Regim
   \   000005F6   3001               CPI     R16, 1
   \   000005F8   F471               BRNE    ??proc_udp_data_45
   3171                                         {// âęëţ÷ĺí ňĺńňîâűé đĺćčě!!!
   3172                                          send_info(sizeof(ans_out_232),ans_out_232,1,buf_rx_ppp[TR_ID]);
   \   000005FA   01FD               MOVW    R31:R30, R27:R26
   \   000005FC   A145               LDD     R20, Z+37
   \   000005FE   E011               LDI     R17, 1
   \   00000600   ....               LDI     R18, LOW((evc_rld + 57))
   \   00000602   ....               LDI     R19, HIGH((evc_rld + 57))
   \   00000604   E008               LDI     R16, 8
   \   00000606   ........           CALL    send_info
   3173                                           send_err485(NUM_RS232_2,RS_TEST,buf_rx_ppp[TR_ID],*(unsigned int*)&buf_rx_ppp[TR_SRC]);
   \   0000060A   01FD               MOVW    R31:R30, R27:R26
   \   0000060C   8D46               LDD     R20, Z+30
   \   0000060E   8D57               LDD     R21, Z+31
   \   00000610   A125               LDD     R18, Z+37
   \   00000612   E018               LDI     R17, 8
   \   00000614   CFAC               RJMP    ??proc_udp_data_41
   3174                                           return(0);
   3175                                         }
   3176                                         
   3177                                         
   3178                                         Appl_RS232_2.pre_tx=0;
   \                     ??proc_udp_data_45:
   \   00000616   E000               LDI     R16, 0
   \   00000618   8B01               STD     Z+17, R16
   \   0000061A   8B02               STD     Z+18, R16
   3179                                          if(length_head>MIN_TR_HEAD)
   \   0000061C   E00D               LDI     R16, 13
   \   0000061E   16A0               CP      R10, R16
   \   00000620   F070               BRCS    ??proc_udp_data_46
   3180                                            {
   3181                                              if (proc_option(buf_rx_ppp,TR_OP_DATA,length_head-MIN_TR_HEAD)!=1)return(0);                                                                  
   \   00000622   01A6               MOVW    R21:R20, R13:R12
   \   00000624   E22A               LDI     R18, 42
   \   00000626   E030               LDI     R19, 0
   \   00000628   018D               MOVW    R17:R16, R27:R26
   \   0000062A   ....               RCALL   proc_option
   \   0000062C   3001               CPI     R16, 1
   \   0000062E   F009               BREQ    $+2+2
   \   00000630   CCF3               RJMP    ??proc_udp_data_1
   3182                                              Appl_RS232_2.pre_tx=delay_pre_tx;//çŕäĺđćęŕ ďĺđĺä ďĺđĺäŕ÷ĺé
   \   00000632   01FC               MOVW    R31:R30, R25:R24
   \   00000634   8900               LDD     R16, Z+16
   \   00000636   8911               LDD     R17, Z+17
   \   00000638   01F2               MOVW    R31:R30, R5:R4
   \   0000063A   8B01               STD     Z+17, R16
   \   0000063C   8B12               STD     Z+18, R17
   3183                                            } 
   3184                                         
   3185                                         
   3186                                         if(fl_232_2.busy==1)Appl_RS232_2.fl_data_buf=TRUE;
   \                     ??proc_udp_data_46:
   \   0000063E   ....               LDI     R30, LOW(fl_232_2)
   \   00000640   ....               LDI     R31, (fl_232_2) >> 8
   \   00000642   8100               LD      R16, Z
   \   00000644   FF00               SBRS    R16, 0
   \   00000646   C003               RJMP    ??proc_udp_data_47
   \   00000648   E001               LDI     R16, 1
   \   0000064A   01F2               MOVW    R31:R30, R5:R4
   \   0000064C   C002               RJMP    ??proc_udp_data_48
   3187                                         else fl_232_2.tx=1;
   \                     ??proc_udp_data_47:
   \   0000064E   8100               LD      R16, Z
   \   00000650   6008               ORI     R16, 0x08
   \                     ??proc_udp_data_48:
   \   00000652   8300               ST      Z, R16
   3188                                         Appl_RS232_2.dst_buf=*(unsigned int*)&buf_rx_ppp[TR_SRC];
   \   00000654   01FD               MOVW    R31:R30, R27:R26
   \   00000656   8D06               LDD     R16, Z+30
   \   00000658   8D17               LDD     R17, Z+31
   \   0000065A   01F2               MOVW    R31:R30, R5:R4
   \   0000065C   8303               STD     Z+3, R16
   \   0000065E   8314               STD     Z+4, R17
   3189                                         Appl_RS232_2.id_buf=buf_rx_ppp[TR_ID];
   \   00000660   01FD               MOVW    R31:R30, R27:R26
   \   00000662   A105               LDD     R16, Z+37
   \   00000664   01F2               MOVW    R31:R30, R5:R4
   \   00000666   8705               STD     Z+13, R16
   3190                                         for(i=0;i<8;i++)Appl_RS232_2.cont_buf[i]=buf_rx_ppp[offset+C1_CONT+i];
   \   00000668   2488               CLR     R8
   \   0000066A   C00F               RJMP    ??proc_udp_data_49
   \                     ??proc_udp_data_50:
   \   0000066C   2D08               MOV     R16, R8
   \   0000066E   E010               LDI     R17, 0
   \   00000670   2D2B               MOV     R18, R11
   \   00000672   E030               LDI     R19, 0
   \   00000674   0F20               ADD     R18, R16
   \   00000676   1F31               ADC     R19, R17
   \   00000678   01FD               MOVW    R31:R30, R27:R26
   \   0000067A   0FE2               ADD     R30, R18
   \   0000067C   1FF3               ADC     R31, R19
   \   0000067E   8122               LDD     R18, Z+2
   \   00000680   01F2               MOVW    R31:R30, R5:R4
   \   00000682   0FE0               ADD     R30, R16
   \   00000684   1FF1               ADC     R31, R17
   \   00000686   8325               STD     Z+5, R18
   \   00000688   9483               INC     R8
   \                     ??proc_udp_data_49:
   \   0000068A   E008               LDI     R16, 8
   \   0000068C   1680               CP      R8, R16
   \   0000068E   F370               BRCS    ??proc_udp_data_50
   3191                                         Appl_RS232_2.ln_data_buf=length-10;
   \   00000690   EF06               LDI     R16, 246
   \   00000692   0EE0               ADD     R14, R16
   \   00000694   EF0F               LDI     R16, 255
   \   00000696   1EF0               ADC     R15, R16
   \   00000698   01F2               MOVW    R31:R30, R5:R4
   \   0000069A   82E1               STD     Z+1, R14
   \   0000069C   82F2               STD     Z+2, R15
   3192                                         for(i=0;i<Appl_RS232_2.ln_data_buf;i++)Appl_RS232_2_data_buf[i]=buf_rx_ppp[offset+C1_DATA_RS+i];
   \   0000069E   2488               CLR     R8
   \                     ??proc_udp_data_51:
   \   000006A0   2499               CLR     R9
   \   000006A2   01F2               MOVW    R31:R30, R5:R4
   \   000006A4   8101               LDD     R16, Z+1
   \   000006A6   8112               LDD     R17, Z+2
   \   000006A8   1680               CP      R8, R16
   \   000006AA   0691               CPC     R9, R17
   \   000006AC   F008               BRCS    $+2+2
   \   000006AE   CCB4               RJMP    ??proc_udp_data_1
   \   000006B0   2D08               MOV     R16, R8
   \   000006B2   E010               LDI     R17, 0
   \   000006B4   2D2B               MOV     R18, R11
   \   000006B6   E030               LDI     R19, 0
   \   000006B8   0F20               ADD     R18, R16
   \   000006BA   1D39               ADC     R19, R9
   \   000006BC   01FD               MOVW    R31:R30, R27:R26
   \   000006BE   0FE2               ADD     R30, R18
   \   000006C0   1FF3               ADC     R31, R19
   \   000006C2   8522               LDD     R18, Z+10
   \   000006C4   01F8               MOVW    R31:R30, R17:R16
   \   000006C6   ....               SUBI    R30, LOW((-(Appl_RS232_2_data_buf) & 0xFFFF))
   \   000006C8   ....               SBCI    R31, (-(Appl_RS232_2_data_buf) & 0xFFFF) >> 8
   \   000006CA   8320               ST      Z, R18
   \   000006CC   9483               INC     R8
   \   000006CE   CFE8               RJMP    ??proc_udp_data_51
   3193                                         
   3194                                         
   3195                                      break;
   3196                                      
   3197                                      
   3198                                      
   3199          
   3200                                 case PORT_SEQ:
   3201                                      if(length<5)return(0);
   \                     ??proc_udp_data_12:
   \   000006D0   E025               LDI     R18, 5
   \   000006D2   16E2               CP      R14, R18
   \   000006D4   E020               LDI     R18, 0
   \   000006D6   06F2               CPC     R15, R18
   \   000006D8   F408               BRCC    $+2+2
   \   000006DA   CC9E               RJMP    ??proc_udp_data_1
   3202                                      if(*(unsigned int*)&buf_rx_ppp[TR_SRC]!=num_seq_cl)return(0);
   \   000006DC   01FD               MOVW    R31:R30, R27:R26
   \   000006DE   8D26               LDD     R18, Z+30
   \   000006E0   8D37               LDD     R19, Z+31
   \   000006E2   ....               LDI     R30, LOW(num_seq_cl)
   \   000006E4   ....               LDI     R31, (num_seq_cl) >> 8
   \   000006E6   8140               LD      R20, Z
   \   000006E8   8151               LDD     R21, Z+1
   \   000006EA   1724               CP      R18, R20
   \   000006EC   0735               CPC     R19, R21
   \   000006EE   F009               BREQ    $+2+2
   \   000006F0   CC93               RJMP    ??proc_udp_data_1
   3203                                         
   3204                                      if(((buf_rx_ppp[TR_V]>>4)&0x03)==KVIT)
   \   000006F2   01FD               MOVW    R31:R30, R27:R26
   \   000006F4   A124               LDD     R18, Z+36
   \   000006F6   9522               SWAP    R18
   \   000006F8   702F               ANDI    R18, 0x0F
   \   000006FA   7023               ANDI    R18, 0x03
   \   000006FC   3023               CPI     R18, 3
   \   000006FE   F481               BRNE    ??proc_udp_data_52
   3205                                          {
   3206                                          if(buf_rx_ppp[offset+C1_DATA]!=KVITOK_SEQ)return(0);
   \   00000700   01F2               MOVW    R31:R30, R5:R4
   \   00000702   8122               LDD     R18, Z+2
   \   00000704   3021               CPI     R18, 1
   \   00000706   F009               BREQ    $+2+2
   \   00000708   CC87               RJMP    ??proc_udp_data_1
   3207                                          if(length!=5)return(0);
   \   0000070A   E025               LDI     R18, 5
   \   0000070C   16E2               CP      R14, R18
   \   0000070E   E020               LDI     R18, 0
   \   00000710   06F2               CPC     R15, R18
   \   00000712   F009               BREQ    $+2+2
   \   00000714   CC81               RJMP    ??proc_udp_data_1
   3208                                          if(*(unsigned int*)&buf_rx_ppp[offset+C1_DATA+1]!=L_KVITOK)return(0);
   \   00000716   8123               LDD     R18, Z+3
   \   00000718   8134               LDD     R19, Z+4
   \   0000071A   2B23               OR      R18, R19
   \   0000071C   F009               BREQ    $+2+2
   \   0000071E   CC7C               RJMP    ??proc_udp_data_1
   3209                                          }
   3210                                      
   3211                                      
   3212                                      if(((buf_rx_ppp[TR_V]>>4)&0x03)==ZAPR)
   \                     ??proc_udp_data_52:
   \   00000720   01FD               MOVW    R31:R30, R27:R26
   \   00000722   A124               LDD     R18, Z+36
   \   00000724   9522               SWAP    R18
   \   00000726   702F               ANDI    R18, 0x0F
   \   00000728   7023               ANDI    R18, 0x03
   \   0000072A   F009               BREQ    $+2+2
   \   0000072C   C0BD               RJMP    ??proc_udp_data_53
   3213                                         {
   3214                                         if(buf_rx_ppp[offset+C1_DATA]!=ZAPR_TC)return(0);
   \   0000072E   01F2               MOVW    R31:R30, R5:R4
   \   00000730   8102               LDD     R16, Z+2
   \   00000732   3006               CPI     R16, 6
   \   00000734   F009               BREQ    $+2+2
   \   00000736   CC70               RJMP    ??proc_udp_data_1
   3215                                         if(length!=5)return(0);
   \   00000738   E005               LDI     R16, 5
   \   0000073A   16E0               CP      R14, R16
   \   0000073C   E000               LDI     R16, 0
   \   0000073E   06F0               CPC     R15, R16
   \   00000740   F009               BREQ    $+2+2
   \   00000742   CC6A               RJMP    ??proc_udp_data_1
   3216                                         if(*(unsigned int*)&buf_rx_ppp[offset+C1_DATA+1]!=L_ZAPR_TC)return(0);
   \   00000744   8103               LDD     R16, Z+3
   \   00000746   8114               LDD     R17, Z+4
   \   00000748   2B01               OR      R16, R17
   \   0000074A   F009               BREQ    $+2+2
   \   0000074C   CC65               RJMP    ??proc_udp_data_1
   3217                                          
   3218                                         if(fl_ip.act_ip_end!=1)return(0);
   \   0000074E   ....               LDI     R30, LOW(cnt_pap_tm_out)
   \   00000750   ....               LDI     R31, (cnt_pap_tm_out) >> 8
   \   00000752   8104               LDD     R16, Z+4
   \   00000754   FF00               SBRS    R16, 0
   \   00000756   CC60               RJMP    ??proc_udp_data_1
   3219                                         fl_ip.act_ip_end=0; 
   \   00000758   8104               LDD     R16, Z+4
   \   0000075A   7F0E               ANDI    R16, 0xFE
   \   0000075C   8304               STD     Z+4, R16
   3220                                         clr_cntr_nat();
   \   0000075E   ........           CALL    clr_cntr_nat
   3221                                         clr_cntr_link();
   \   00000762   ........           CALL    clr_cntr_link
   3222                                         Obj_ppp_tx.prozr=FALSE;            
   \   00000766   E000               LDI     R16, 0
   \   00000768   01FC               MOVW    R31:R30, R25:R24
   \   0000076A   8300               ST      Z, R16
   3223                                         Obj_ppp_tx.version=VER2;      //âĺđńč˙ 
   \   0000076C   E002               LDI     R16, 2
   \   0000076E   8301               STD     Z+1, R16
   3224                                         Obj_ppp_tx.type_pac=OTV;     //ňčď ďŕęĺňŕ
   \   00000770   E001               LDI     R16, 1
   \   00000772   8302               STD     Z+2, R16
   3225                                         Obj_ppp_tx.num_src=num_self; // íîěĺđ îňďđŕâčňĺë˙
   \   00000774   ....               LDI     R30, LOW(num_self)
   \   00000776   ....               LDI     R31, (num_self) >> 8
   \   00000778   8100               LD      R16, Z
   \   0000077A   8111               LDD     R17, Z+1
   \   0000077C   01FC               MOVW    R31:R30, R25:R24
   \   0000077E   8303               STD     Z+3, R16
   \   00000780   8314               STD     Z+4, R17
   3226                                         Obj_ppp_tx.num_dst=*(unsigned int*)&buf_rx_ppp[TR_SRC]; // íîěĺđ ďîëó÷ŕňĺë˙
   \   00000782   01FD               MOVW    R31:R30, R27:R26
   \   00000784   8D06               LDD     R16, Z+30
   \   00000786   8D17               LDD     R17, Z+31
   \   00000788   01FC               MOVW    R31:R30, R25:R24
   \   0000078A   8305               STD     Z+5, R16
   \   0000078C   8316               STD     Z+6, R17
   3227                                         Obj_ppp_tx.id_pac=buf_rx_ppp[TR_ID]; // čäĺíňčôčęŕňîđ ďŕęĺňŕ  
   \   0000078E   01FD               MOVW    R31:R30, R27:R26
   \   00000790   A105               LDD     R16, Z+37
   \   00000792   01FC               MOVW    R31:R30, R25:R24
   \   00000794   8307               STD     Z+7, R16
   3228                                         Obj_ppp_tx.p_opt=&buf_opt_tr[0]; // //óęŕçŕňĺëü áóôĺđŕ îďöčé          
   \   00000796   ....               LDI     R16, LOW(buf_opt_tr)
   \   00000798   ....               LDI     R17, (buf_opt_tr) >> 8
   \   0000079A   8700               STD     Z+8, R16
   \   0000079C   8711               STD     Z+9, R17
   3229                                         Obj_ppp_tx.l_opt=0;// äëčíŕ áóôĺđŕ îďöčé   
   \   0000079E   E000               LDI     R16, 0
   \   000007A0   8702               STD     Z+10, R16
   3230                                         buf_tx_232[TR_OP_DATA+C1_PROT]=PROT_C1;
   \   000007A2   E001               LDI     R16, 1
   \   000007A4   01F3               MOVW    R31:R30, R7:R6
   \   000007A6   A702               STD     Z+42, R16
   3231                                         buf_tx_232[TR_OP_DATA+C1_PORT]=PORT_SEQ;
   \   000007A8   E004               LDI     R16, 4
   \   000007AA   A703               STD     Z+43, R16
   3232                                         buf_tx_232[TR_OP_DATA+C1_DATA]=SEQ_STATE;
   \   000007AC   E006               LDI     R16, 6
   \   000007AE   A704               STD     Z+44, R16
   3233                                          *(unsigned int*)&buf_tx_232[TR_OP_DATA+C1_DATA+1]=L_STATE;
   \   000007B0   E007               LDI     R16, 7
   \   000007B2   E010               LDI     R17, 0
   \   000007B4   A705               STD     Z+45, R16
   \   000007B6   A716               STD     Z+46, R17
   3234                                          *(unsigned long int*)&buf_tx_232[TR_OP_DATA+C1_DATA+3]=burst_ds_r();
   \   000007B8   ........           CALL    burst_ds_r
   \   000007BC   ....               LDI     R30, LOW(buf_tx_232)
   \   000007BE   ....               LDI     R31, (buf_tx_232) >> 8
   \   000007C0   A707               STD     Z+47, R16
   \   000007C2   AB10               STD     Z+48, R17
   \   000007C4   AB21               STD     Z+49, R18
   \   000007C6   AB32               STD     Z+50, R19
   3235                                        
   3236                                          
   3237                                          
   3238                                         if(struct_tcc1.type==TC_SHL) buf_tx_232[TR_OP_DATA+C1_DATA+8]=state_seq;
   \   000007C8   ....               LDI     R16, LOW(struct_tcc1)
   \   000007CA   ....               LDI     R17, (struct_tcc1) >> 8
   \   000007CC   01F8               MOVW    R31:R30, R17:R16
   \   000007CE   8124               LDD     R18, Z+4
   \   000007D0   3022               CPI     R18, 2
   \   000007D2   F431               BRNE    ??proc_udp_data_54
   \   000007D4   9120....           LDS     R18, state_seq
   \   000007D8   ....               LDI     R30, LOW(buf_tx_232)
   \   000007DA   ....               LDI     R31, (buf_tx_232) >> 8
   \   000007DC   AB24               STD     Z+52, R18
   \   000007DE   C004               RJMP    ??proc_udp_data_55
   3239                                             else buf_tx_232[TR_OP_DATA+C1_DATA+7]=DES_SEQ;
   \                     ??proc_udp_data_54:
   \   000007E0   EF2F               LDI     R18, 255
   \   000007E2   ....               LDI     R30, LOW(buf_tx_232)
   \   000007E4   ....               LDI     R31, (buf_tx_232) >> 8
   \   000007E6   AB23               STD     Z+51, R18
   3240                                         
   3241                                         if(Appl_seq_des!=0) buf_tx_232[TR_OP_DATA+C1_DATA+7]=DES_SEQ;
   \                     ??proc_udp_data_55:
   \   000007E8   9120....           LDS     R18, Appl_seq_des
   \   000007EC   2322               TST     R18
   \   000007EE   F011               BREQ    ??proc_udp_data_56
   \   000007F0   EF2F               LDI     R18, 255
   \   000007F2   AB23               STD     Z+51, R18
   3242                                          
   3243                                         if((struct_tcc1.type==TC_SHL)||(struct_tcc1.type==TC_SUHOI))buf_tx_232[TR_OP_DATA+C1_DATA+8]=sv1.tc & 0x01;
   \                     ??proc_udp_data_56:
   \   000007F4   01F8               MOVW    R31:R30, R17:R16
   \   000007F6   8104               LDD     R16, Z+4
   \   000007F8   3002               CPI     R16, 2
   \   000007FA   F011               BREQ    ??proc_udp_data_57
   \   000007FC   3001               CPI     R16, 1
   \   000007FE   F439               BRNE    ??proc_udp_data_58
   \                     ??proc_udp_data_57:
   \   00000800   ....               LDI     R30, LOW(sv1)
   \   00000802   ....               LDI     R31, (sv1) >> 8
   \   00000804   8100               LD      R16, Z
   \   00000806   7001               ANDI    R16, 0x01
   \   00000808   ....               LDI     R30, LOW(buf_tx_232)
   \   0000080A   ....               LDI     R31, (buf_tx_232) >> 8
   \   0000080C   C004               RJMP    ??proc_udp_data_59
   3244                                         else {buf_tx_232[TR_OP_DATA+C1_DATA+7]=DES_SEQ; buf_tx_232[TR_OP_DATA+C1_DATA+8]=DES_SEQ;}
   \                     ??proc_udp_data_58:
   \   0000080E   EF0F               LDI     R16, 255
   \   00000810   ....               LDI     R30, LOW(buf_tx_232)
   \   00000812   ....               LDI     R31, (buf_tx_232) >> 8
   \   00000814   AB03               STD     Z+51, R16
   \                     ??proc_udp_data_59:
   \   00000816   AB04               STD     Z+52, R16
   \   00000818   9100....           LDS     R16, (struct_tcc2 + 4)
   \   0000081C   3002               CPI     R16, 2
   \   0000081E   F011               BREQ    ??proc_udp_data_60
   \   00000820   3001               CPI     R16, 1
   \   00000822   F439               BRNE    ??proc_udp_data_61
   3245                                         
   3246                                         if((struct_tcc2.type==TC_SHL)||(struct_tcc2.type==TC_SUHOI))buf_tx_232[TR_OP_DATA+C1_DATA+9]=sv2.tc & 0x01;
   \                     ??proc_udp_data_60:
   \   00000824   ....               LDI     R30, LOW(sv2)
   \   00000826   ....               LDI     R31, (sv2) >> 8
   \   00000828   8100               LD      R16, Z
   \   0000082A   7001               ANDI    R16, 0x01
   \   0000082C   ....               LDI     R30, LOW(buf_tx_232)
   \   0000082E   ....               LDI     R31, (buf_tx_232) >> 8
   \   00000830   C001               RJMP    ??proc_udp_data_62
   3247                                           else buf_tx_232[TR_OP_DATA+C1_DATA+9]=DES_SEQ;
   \                     ??proc_udp_data_61:
   \   00000832   EF0F               LDI     R16, 255
   \                     ??proc_udp_data_62:
   \   00000834   AB05               STD     Z+53, R16
   3248                                         
   3249                                      /*
   3250                                                
   3251                                         if(Appl_seq_des==0)
   3252                                          {
   3253                                        //   buf_tx_232[TR_OP_DATA+C1_DATA+7]=state_seq;         !!!!!!!!!!!!!!!!!!!!
   3254                                        //   buf_tx_232[TR_OP_DATA+C1_DATA+8]=sv_tc.bytes[0] & 0x01;!!!!!!!!!!!!!!!!!!!
   3255                                           buf_tx_232[TR_OP_DATA+C1_DATA+9]=byte_state_net & 0x01;
   3256                                           }
   3257                                           else buf_tx_232[TR_OP_DATA+C1_DATA+7]=DES_SEQ;
   3258                                         
   3259                                         */
   3260                                          
   3261                                          Obj_ppp_tx.l_data=5+L_STATE;   // äëčíŕ äŕííűő
   \   00000836   E00C               LDI     R16, 12
   \   00000838   E010               LDI     R17, 0
   \   0000083A   01FC               MOVW    R31:R30, R25:R24
   \   0000083C   8706               STD     Z+14, R16
   \   0000083E   8717               STD     Z+15, R17
   3262                                          Obj_ppp_tx.p_data=&buf_tx_232[TR_OP_DATA+C1_PROT];  //óęŕçŕňĺëü áóôĺđŕ äŕííűő
   \   00000840   ....               LDI     R16, LOW(buf_tx_232)
   \   00000842   ....               LDI     R17, (buf_tx_232) >> 8
   \   00000844   5D06               SUBI    R16, 214
   \   00000846   4F1F               SBCI    R17, 255
   \   00000848   8704               STD     Z+12, R16
   \   0000084A   8715               STD     Z+13, R17
   3263                                       
   3264                                         send_info(sizeof(ans_out_st_contr),ans_out_st_contr,1,buf_rx_ppp[TR_ID]);
   \   0000084C   01FD               MOVW    R31:R30, R27:R26
   \   0000084E   A145               LDD     R20, Z+37
   \   00000850   E011               LDI     R17, 1
   \   00000852   ....               LDI     R18, LOW((evc_rld + 65))
   \   00000854   ....               LDI     R19, HIGH((evc_rld + 65))
   \   00000856   E00D               LDI     R16, 13
   \   00000858   ........           CALL    send_info
   3265                                        
   3266                                         form_buf_tx_ppp();                            
   \   0000085C   ........           CALL    form_buf_tx_ppp
   3267                                         UCSR0A=UCSR0A | TXC;                            
   \   00000860   910000C0           LDS     R16, 192
   \   00000864   6400               ORI     R16, 0x40
   \   00000866   930000C0           STS     192, R16
   3268                                         UCSR0B=UCSR0B | TXEN;
   \   0000086A   910000C1           LDS     R16, 193
   \   0000086E   6008               ORI     R16, 0x08
   \   00000870   930000C1           STS     193, R16
   3269                                         UCSR0B=UCSR0B | TXCIE;
   \   00000874   910000C1           LDS     R16, 193
   \   00000878   6400               ORI     R16, 0x40
   \   0000087A   930000C1           STS     193, R16
   3270                                         if(check_cts()==1) return(1);                
   \   0000087E   ........           CALL    check_cts
   \   00000882   3001               CPI     R16, 1
   \   00000884   F411               BRNE    ??proc_udp_data_63
   \                     ??proc_udp_data_5:
   \   00000886   E001               LDI     R16, 1
   \   00000888   CBC8               RJMP    ??proc_udp_data_2
   3271                                         S2_RD
   \                     ??proc_udp_data_63:
   \   0000088A   9A40               SBI     0x08, 0x00
   \   0000088C   9841               CBI     0x08, 0x01
   3272                                         UDR0=buf_tx_232[0]; 
   \   0000088E   ....               LDI     R30, LOW(buf_tx_232)
   \   00000890   ....               LDI     R31, (buf_tx_232) >> 8
   \   00000892   8100               LD      R16, Z
   \   00000894   930000C6           STS     198, R16
   3273                                         if(Regim==RG_DEBAG) UDR3=buf_tx_232[0];
   \   00000898   9100....           LDS     R16, Regim
   \   0000089C   3001               CPI     R16, 1
   \   0000089E   F799               BRNE    ??proc_udp_data_5
   \                     ??proc_udp_data_64:
   \   000008A0   8100               LD      R16, Z
   \   000008A2   93000136           STS     310, R16
   \   000008A6   CFEF               RJMP    ??proc_udp_data_5
   3274                                         return(1);
   3275                                         } 
   3276                                      
   3277                                      
   3278                                      if(fl_appl_seq.kv_waits==1)
   \                     ??proc_udp_data_53:
   \   000008A8   ....               LDI     R30, LOW(fl_appl_seq)
   \   000008AA   ....               LDI     R31, (fl_appl_seq) >> 8
   \   000008AC   8120               LD      R18, Z
   \   000008AE   FF21               SBRS    R18, 1
   \   000008B0   CBB3               RJMP    ??proc_udp_data_1
   3279                                          {  
   3280                                           if(((buf_rx_ppp[TR_V]>>4)&0x03)!=KVIT)return(0); 
   \   000008B2   01FD               MOVW    R31:R30, R27:R26
   \   000008B4   A124               LDD     R18, Z+36
   \   000008B6   9522               SWAP    R18
   \   000008B8   702F               ANDI    R18, 0x0F
   \   000008BA   7023               ANDI    R18, 0x03
   \   000008BC   3023               CPI     R18, 3
   \   000008BE   F009               BREQ    $+2+2
   \   000008C0   CBAB               RJMP    ??proc_udp_data_1
   3281                                           if(Appl_seq.id!=buf_rx_ppp[TR_ID])return(0);// ďđîâĺđęŕ čäĺíňčôčęŕňîđŕ
   \   000008C2   01F8               MOVW    R31:R30, R17:R16
   \   000008C4   8120               LD      R18, Z
   \   000008C6   01FD               MOVW    R31:R30, R27:R26
   \   000008C8   A135               LDD     R19, Z+37
   \   000008CA   1723               CP      R18, R19
   \   000008CC   F009               BREQ    $+2+2
   \   000008CE   CBA4               RJMP    ??proc_udp_data_1
   3282                                          
   3283                                           
   3284                                           
   3285                                           Appl_seq.cnt_waits=0;
   \   000008D0   E020               LDI     R18, 0
   \   000008D2   E030               LDI     R19, 0
   \   000008D4   01F8               MOVW    R31:R30, R17:R16
   \   000008D6   8721               STD     Z+9, R18
   \   000008D8   8722               STD     Z+10, R18
   3286                                           fl_appl_seq.kv_waits=0;
   \   000008DA   ....               LDI     R30, LOW(fl_appl_seq)
   \   000008DC   ....               LDI     R31, (fl_appl_seq) >> 8
   \   000008DE   8120               LD      R18, Z
   \   000008E0   7F2D               ANDI    R18, 0xFD
   \   000008E2   8320               ST      Z, R18
   3287                                           
   3288                                           cnt_no_link=vol_cnt_no_link;//dobavka
   \   000008E4   ....               LDI     R30, LOW(vol_cnt_no_link)
   \   000008E6   ....               LDI     R31, (vol_cnt_no_link) >> 8
   \   000008E8   8140               LD      R20, Z
   \   000008EA   8151               LDD     R21, Z+1
   \   000008EC   8162               LDD     R22, Z+2
   \   000008EE   8173               LDD     R23, Z+3
   \   000008F0   ....               LDI     R30, LOW(cnt_no_link)
   \   000008F2   ....               LDI     R31, (cnt_no_link) >> 8
   \   000008F4   8340               ST      Z, R20
   \   000008F6   8351               STD     Z+1, R21
   \   000008F8   8362               STD     Z+2, R22
   \   000008FA   8373               STD     Z+3, R23
   3289                                           Control.link_waits=FALSE;
   \   000008FC   ....               LDI     R30, LOW(Control)
   \   000008FE   ....               LDI     R31, (Control) >> 8
   \   00000900   8331               STD     Z+1, R19
   3290                                           Control.cnt_link=Control.vol_link;                   
   \   00000902   8520               LDD     R18, Z+8
   \   00000904   8531               LDD     R19, Z+9
   \   00000906   8324               STD     Z+4, R18
   \   00000908   8335               STD     Z+5, R19
   3291                                           Control.cnt_try=0;
   \   0000090A   E020               LDI     R18, 0
   \   0000090C   8726               STD     Z+14, R18
   3292                                           Control.link_no=FALSE;
   \   0000090E   8320               ST      Z, R18
   3293                                           
   3294                                           fl_appl_seq.en_povtor=0;
   \   00000910   ....               LDI     R30, LOW(fl_appl_seq)
   \   00000912   ....               LDI     R31, (fl_appl_seq) >> 8
   \   00000914   8120               LD      R18, Z
   \   00000916   7F2B               ANDI    R18, 0xFB
   \   00000918   8320               ST      Z, R18
   3295                                           // ĘÂČŇČĐÎÂŔÍČĹ
   3296                                           Appl_seq.p_out=Appl_seq.p_out_kv;
   \   0000091A   01F8               MOVW    R31:R30, R17:R16
   \   0000091C   8125               LDD     R18, Z+5
   \   0000091E   8136               LDD     R19, Z+6
   \   00000920   8323               STD     Z+3, R18
   \   00000922   8334               STD     Z+4, R19
   3297                                           Appl_seq.l_data=0;
   \   00000924   E020               LDI     R18, 0
   \   00000926   8724               STD     Z+12, R18
   \   00000928   8725               STD     Z+13, R18
   3298                                           if(fl_appl_seq1.over_buf==1)
   \   0000092A   ....               LDI     R30, LOW(fl_appl_seq1)
   \   0000092C   ....               LDI     R31, (fl_appl_seq1) >> 8
   \   0000092E   8100               LD      R16, Z
   \   00000930   FF00               SBRS    R16, 0
   \   00000932   C006               RJMP    ??proc_udp_data_65
   3299                                              {
   3300                                              fl_appl_seq1.over_buf=0;
   3301                                              fl_appl_seq1.send_state=1;
   \   00000934   9100....           LDS     R16, fl_appl_seq1
   \   00000938   7F0E               ANDI    R16, 0xFE
   \   0000093A   6002               ORI     R16, 0x02
   \   0000093C   9300....           STS     fl_appl_seq1, R16
   3302                                              }
   3303                                           send_info(sizeof(rec_evc),rec_evc,1,buf_rx_ppp[TR_ID]);
   \                     ??proc_udp_data_65:
   \   00000940   01FD               MOVW    R31:R30, R27:R26
   \   00000942   A145               LDD     R20, Z+37
   \   00000944   E011               LDI     R17, 1
   \   00000946   ....               LDI     R18, LOW((evc_rld + 18))
   \   00000948   ....               LDI     R19, HIGH((evc_rld + 18))
   \   0000094A   E007               LDI     R16, 7
   \   0000094C   CC56               RJMP    ??proc_udp_data_8
   3304                                           return(1); 
   3305                                           }
   3306                                           
   3307                                           
   3308                                      break;     
   3309                                 case PORT_SYS:
   3310                                      break;
   3311                                  case PORT_CONF:
   3312                                      if(length<5)return(0);               
   \                     ??proc_udp_data_13:
   \   0000094E   E005               LDI     R16, 5
   \   00000950   16E0               CP      R14, R16
   \   00000952   E000               LDI     R16, 0
   \   00000954   06F0               CPC     R15, R16
   \   00000956   F408               BRCC    $+2+2
   \   00000958   CB5F               RJMP    ??proc_udp_data_1
   3313                                      if(((buf_rx_ppp[TR_V]>>4)&0x03)!=ZAPR)return(0);
   \   0000095A   01FD               MOVW    R31:R30, R27:R26
   \   0000095C   A104               LDD     R16, Z+36
   \   0000095E   9502               SWAP    R16
   \   00000960   700F               ANDI    R16, 0x0F
   \   00000962   7003               ANDI    R16, 0x03
   \   00000964   F009               BREQ    $+2+2
   \   00000966   CB58               RJMP    ??proc_udp_data_1
   3314                                      
   3315                                      if (check_ln_conf(&buf_rx_ppp[0],offset,count_rx_ppp)==1)return(0);
   \   00000968   8148               LD      R20, Y
   \   0000096A   8159               LDD     R21, Y+1
   \   0000096C   2D2B               MOV     R18, R11
   \   0000096E   018D               MOVW    R17:R16, R27:R26
   \   00000970   ........           CALL    check_ln_conf
   \   00000974   3001               CPI     R16, 1
   \   00000976   F409               BRNE    $+2+2
   \   00000978   CB4F               RJMP    ??proc_udp_data_1
   3316                                      
   3317          
   3318                                      
   3319                                      if((buf_rx_ppp[offset+C1_DATA] & 0x7f)==CONF_LOG)
   \   0000097A   01F2               MOVW    R31:R30, R5:R4
   \   0000097C   8102               LDD     R16, Z+2
   \   0000097E   770F               ANDI    R16, 0x7F
   \   00000980   3100               CPI     R16, 16
   \   00000982   F009               BREQ    $+2+2
   \   00000984   C041               RJMP    ??proc_udp_data_66
   3320                                      {
   3321                                           if(length>5)return(0);
   \   00000986   E006               LDI     R16, 6
   \   00000988   16E0               CP      R14, R16
   \   0000098A   E000               LDI     R16, 0
   \   0000098C   06F0               CPC     R15, R16
   \   0000098E   F008               BRCS    $+2+2
   \   00000990   CB43               RJMP    ??proc_udp_data_1
   3322                                           if(*(unsigned int*)&buf_rx_ppp[offset+C1_DATA+1]!=L_CONF_LOG)return(0);
   \   00000992   8103               LDD     R16, Z+3
   \   00000994   8114               LDD     R17, Z+4
   \   00000996   2B01               OR      R16, R17
   \   00000998   F009               BREQ    $+2+2
   \   0000099A   CB3E               RJMP    ??proc_udp_data_1
   3323                                           if((buf_rx_ppp[offset+C1_DATA] & 0x80)==0x80)
   \   0000099C   8102               LDD     R16, Z+2
   \   0000099E   FF07               SBRS    R16, 7
   \   000009A0   C017               RJMP    ??proc_udp_data_67
   3324                                              {
   3325                                              //ńňčđŕíčĺ ëîă ôŕéëŕ          
   3326                                              __watchdog_reset();
   \   000009A2   95A8               WDR
   3327                                               WrArrayToFlesh(BEG_BUF_LOG,0,(L_LOG*6),0x01,0x00);
   \   000009A4   E070               LDI     R23, 0
   \   000009A6   E061               LDI     R22, 1
   \   000009A8   EF40               LDI     R20, 240
   \   000009AA   E050               LDI     R21, 0
   \   000009AC   E020               LDI     R18, 0
   \   000009AE   E030               LDI     R19, 0
   \   000009B0   EF04               LDI     R16, 244
   \   000009B2   E011               LDI     R17, 1
   \   000009B4   ........           CALL    WrArrayToFlesh
   3328                                              __watchdog_reset();
   \   000009B8   95A8               WDR
   3329                                              point_log_buf=0;
   \   000009BA   E000               LDI     R16, 0
   \   000009BC   9300....           STS     point_log_buf, R16
   3330                                              *(unsigned int*)&buf_tx_232[TR_OP_DATA+C1_DATA+1]=L_CONF_LOG+1;
   \   000009C0   E001               LDI     R16, 1
   \   000009C2   E010               LDI     R17, 0
   \   000009C4   ....               LDI     R30, LOW(buf_tx_232)
   \   000009C6   ....               LDI     R31, (buf_tx_232) >> 8
   \   000009C8   A705               STD     Z+45, R16
   \   000009CA   A716               STD     Z+46, R17
   3331                                               Obj_ppp_tx.l_data=5+L_CONF_LOG+1;
   \   000009CC   E006               LDI     R16, 6
   \   000009CE   C011               RJMP    ??proc_udp_data_68
   3332                                            //  ii=0;
   3333                                              }
   3334                                              else
   3335                                              {
   3336                                              //÷ňĺíčĺ 
   3337                                              RdFromFleshToArr(BEG_BUF_LOG,&buf_tx_232[TR_OP_DATA+C1_DATA+4],(L_LOG*6));
   \                     ??proc_udp_data_67:
   \   000009D0   EF40               LDI     R20, 240
   \   000009D2   E050               LDI     R21, 0
   \   000009D4   ....               LDI     R18, LOW(buf_tx_232)
   \   000009D6   ....               LDI     R19, (buf_tx_232) >> 8
   \   000009D8   5D20               SUBI    R18, 208
   \   000009DA   4F3F               SBCI    R19, 255
   \   000009DC   EF04               LDI     R16, 244
   \   000009DE   E011               LDI     R17, 1
   \   000009E0   ........           CALL    RdFromFleshToArr
   3338                                              *(unsigned int*)&buf_tx_232[TR_OP_DATA+C1_DATA+1]=L_CONF_LOG+(L_LOG*6)+1;
   \   000009E4   EF01               LDI     R16, 241
   \   000009E6   E010               LDI     R17, 0
   \   000009E8   ....               LDI     R30, LOW(buf_tx_232)
   \   000009EA   ....               LDI     R31, (buf_tx_232) >> 8
   \   000009EC   A705               STD     Z+45, R16
   \   000009EE   A716               STD     Z+46, R17
   3339                                               Obj_ppp_tx.l_data=5+L_CONF_LOG+(L_LOG*6)+1;
   \   000009F0   EF06               LDI     R16, 246
   \                     ??proc_udp_data_68:
   \   000009F2   01FC               MOVW    R31:R30, R25:R24
   \   000009F4   8706               STD     Z+14, R16
   \   000009F6   8717               STD     Z+15, R17
   3340                                             // ii=;
   3341                                              }
   3342                                          
   3343                                             buf_tx_232[TR_OP_DATA+C1_DATA]=buf_rx_ppp[offset+C1_DATA];
   \   000009F8   01F2               MOVW    R31:R30, R5:R4
   \   000009FA   8102               LDD     R16, Z+2
   \   000009FC   ....               LDI     R30, LOW(buf_tx_232)
   \   000009FE   ....               LDI     R31, (buf_tx_232) >> 8
   \   00000A00   A704               STD     Z+44, R16
   3344                                             buf_tx_232[TR_OP_DATA+C1_DATA+3]=0x00; //OK
   \   00000A02   E000               LDI     R16, 0
   \   00000A04   A707               STD     Z+47, R16
   3345                                             goto otv_conf;                              
   \   00000A06   C00F               RJMP    ??proc_udp_data_69
   3346                                        
   3347                                      }
   3348                                      
   3349                                       
   3350                                       
   3351                                     Obj_ppp_tx.l_data=proc_config(&buf_rx_ppp[0],offset,count_rx_ppp);
   \                     ??proc_udp_data_66:
   \   00000A08   8148               LD      R20, Y
   \   00000A0A   8159               LDD     R21, Y+1
   \   00000A0C   2D2B               MOV     R18, R11
   \   00000A0E   018D               MOVW    R17:R16, R27:R26
   \   00000A10   ........           CALL    proc_config
   \   00000A14   01FC               MOVW    R31:R30, R25:R24
   \   00000A16   8706               STD     Z+14, R16
   \   00000A18   8717               STD     Z+15, R17
   3352                                     Obj_ppp_tx.l_data=Obj_ppp_tx.l_data+2;     
   \   00000A1A   8506               LDD     R16, Z+14
   \   00000A1C   8517               LDD     R17, Z+15
   \   00000A1E   5F0E               SUBI    R16, 254
   \   00000A20   4F1F               SBCI    R17, 255
   \   00000A22   8706               STD     Z+14, R16
   \   00000A24   8717               STD     Z+15, R17
   3353                                    
   3354            
   3355            
   3356            otv_conf:                        
   3357                                     clr_cntr_nat();                                  
   \                     ??proc_udp_data_69:
   \   00000A26   ........           CALL    clr_cntr_nat
   3358                                     if(fl_ip.act_ip_end!=1)return(0);
   \   00000A2A   ....               LDI     R30, LOW(cnt_pap_tm_out)
   \   00000A2C   ....               LDI     R31, (cnt_pap_tm_out) >> 8
   \   00000A2E   8104               LDD     R16, Z+4
   \   00000A30   FF00               SBRS    R16, 0
   \   00000A32   CAF2               RJMP    ??proc_udp_data_1
   3359                                     fl_ip.act_ip_end=0;      
   \   00000A34   8104               LDD     R16, Z+4
   \   00000A36   7F0E               ANDI    R16, 0xFE
   \   00000A38   8304               STD     Z+4, R16
   3360                                     clr_cntr_link();
   \   00000A3A   ........           CALL    clr_cntr_link
   3361                                            Obj_ppp_tx.prozr=FALSE;            
   \   00000A3E   E000               LDI     R16, 0
   \   00000A40   01FC               MOVW    R31:R30, R25:R24
   \   00000A42   8300               ST      Z, R16
   3362                                            Obj_ppp_tx.version=VER2;      //âĺđńč˙ 
   \   00000A44   E002               LDI     R16, 2
   \   00000A46   8301               STD     Z+1, R16
   3363                                            Obj_ppp_tx.type_pac=OTV;     //ňčď ďŕęĺňŕ
   \   00000A48   E001               LDI     R16, 1
   \   00000A4A   8302               STD     Z+2, R16
   3364                                            Obj_ppp_tx.num_src=num_self; // íîěĺđ îňďđŕâčňĺë˙
   \   00000A4C   ....               LDI     R30, LOW(num_self)
   \   00000A4E   ....               LDI     R31, (num_self) >> 8
   \   00000A50   8100               LD      R16, Z
   \   00000A52   8111               LDD     R17, Z+1
   \   00000A54   01FC               MOVW    R31:R30, R25:R24
   \   00000A56   8303               STD     Z+3, R16
   \   00000A58   8314               STD     Z+4, R17
   3365                                            Obj_ppp_tx.num_dst=*(unsigned int*)&buf_rx_ppp[TR_SRC]; // íîěĺđ ďîëó÷ŕňĺë˙
   \   00000A5A   01FD               MOVW    R31:R30, R27:R26
   \   00000A5C   8D06               LDD     R16, Z+30
   \   00000A5E   8D17               LDD     R17, Z+31
   \   00000A60   01FC               MOVW    R31:R30, R25:R24
   \   00000A62   8305               STD     Z+5, R16
   \   00000A64   8316               STD     Z+6, R17
   3366                                            Obj_ppp_tx.id_pac=buf_rx_ppp[TR_ID]; // čäĺíňčôčęŕňîđ ďŕęĺňŕ  
   \   00000A66   01FD               MOVW    R31:R30, R27:R26
   \   00000A68   A105               LDD     R16, Z+37
   \   00000A6A   01FC               MOVW    R31:R30, R25:R24
   \   00000A6C   8307               STD     Z+7, R16
   3367                                            Obj_ppp_tx.p_opt=&buf_opt_tr[0]; // //óęŕçŕňĺëü áóôĺđŕ îďöčé  
   \   00000A6E   ....               LDI     R16, LOW(buf_opt_tr)
   \   00000A70   ....               LDI     R17, (buf_opt_tr) >> 8
   \   00000A72   8700               STD     Z+8, R16
   \   00000A74   8711               STD     Z+9, R17
   3368                                            Obj_ppp_tx.l_opt=0;// äëčíŕ áóôĺđŕ îďöčé   
   \   00000A76   E000               LDI     R16, 0
   \   00000A78   8702               STD     Z+10, R16
   3369                                            Obj_ppp_tx.kol_opt=0;// ęîëč÷ĺńňâî îďöčé   
   \   00000A7A   8703               STD     Z+11, R16
   3370               
   3371                                            buf_tx_232[TR_OP_DATA+C1_PROT]=PROT_C1;
   \   00000A7C   E001               LDI     R16, 1
   \   00000A7E   ....               LDI     R30, LOW(buf_tx_232)
   \   00000A80   ....               LDI     R31, (buf_tx_232) >> 8
   \   00000A82   A702               STD     Z+42, R16
   3372                                            buf_tx_232[TR_OP_DATA+C1_PORT]=PORT_CONF;
   \   00000A84   E006               LDI     R16, 6
   \   00000A86   A703               STD     Z+43, R16
   3373           
   3374                                          
   3375                                           Obj_ppp_tx.p_data=&buf_tx_232[TR_OP_DATA+C1_PROT];  //óęŕçŕňĺëü áóôĺđŕ äŕííűő
   \   00000A88   ....               LDI     R16, LOW(buf_tx_232)
   \   00000A8A   ....               LDI     R17, (buf_tx_232) >> 8
   \   00000A8C   5D06               SUBI    R16, 214
   \   00000A8E   4F1F               SBCI    R17, 255
   \   00000A90   01FC               MOVW    R31:R30, R25:R24
   \   00000A92   8704               STD     Z+12, R16
   \   00000A94   8715               STD     Z+13, R17
   3376                  
   3377                                           
   3378                                          send_info(sizeof(ans_out_config),ans_out_config,1,buf_rx_ppp[TR_ID]); 
   \   00000A96   01FD               MOVW    R31:R30, R27:R26
   \   00000A98   A145               LDD     R20, Z+37
   \   00000A9A   E011               LDI     R17, 1
   \   00000A9C   ....               LDI     R18, LOW((evc_rld + 78))
   \   00000A9E   ....               LDI     R19, HIGH((evc_rld + 78))
   \   00000AA0   E00B               LDI     R16, 11
   \   00000AA2   ........           CALL    send_info
   3379                                          form_buf_tx_ppp();   
   \   00000AA6   ........           CALL    form_buf_tx_ppp
   3380                                          
   3381                                          if((fl_rewrite.udp==1)||(fl_rewrite.udp==1)||(fl_rewrite.num_self==1))
   \   00000AAA   01FC               MOVW    R31:R30, R25:R24
   \   00000AAC   8D02               LDD     R16, Z+26
   \   00000AAE   FD01               SBRC    R16, 1
   \   00000AB0   C004               RJMP    ??proc_udp_data_70
   \   00000AB2   8D02               LDD     R16, Z+26
   \   00000AB4   7006               ANDI    R16, 0x06
   \   00000AB6   F409               BRNE    $+2+2
   \   00000AB8   C045               RJMP    ??proc_udp_data_71
   3382                                             {
   3383                                              RdFromFleshToArr(A_IP_PAR,&buf_rx_ppp[0],L_IP_PAR);
   \                     ??proc_udp_data_70:
   \   00000ABA   E04A               LDI     R20, 10
   \   00000ABC   E050               LDI     R21, 0
   \   00000ABE   019D               MOVW    R19:R18, R27:R26
   \   00000AC0   E80C               LDI     R16, 140
   \   00000AC2   E010               LDI     R17, 0
   \   00000AC4   ........           CALL    RdFromFleshToArr
   3384                                              if(fl_rewrite.num_self==1)num_self=*(unsigned int*)&buf_rx_ppp[OFS_NUM];
   \   00000AC8   01FC               MOVW    R31:R30, R25:R24
   \   00000ACA   8D02               LDD     R16, Z+26
   \   00000ACC   FF02               SBRS    R16, 2
   \   00000ACE   C007               RJMP    ??proc_udp_data_72
   \   00000AD0   01FD               MOVW    R31:R30, R27:R26
   \   00000AD2   8106               LDD     R16, Z+6
   \   00000AD4   8117               LDD     R17, Z+7
   \   00000AD6   ....               LDI     R30, LOW(num_self)
   \   00000AD8   ....               LDI     R31, (num_self) >> 8
   \   00000ADA   8300               ST      Z, R16
   \   00000ADC   8311               STD     Z+1, R17
   3385                                              if(fl_rewrite.udp==1)port_udp=*(unsigned int*)&buf_rx_ppp[OFS_PORT];
   \                     ??proc_udp_data_72:
   \   00000ADE   01FC               MOVW    R31:R30, R25:R24
   \   00000AE0   8D02               LDD     R16, Z+26
   \   00000AE2   FF01               SBRS    R16, 1
   \   00000AE4   C007               RJMP    ??proc_udp_data_73
   \   00000AE6   01FD               MOVW    R31:R30, R27:R26
   \   00000AE8   8104               LDD     R16, Z+4
   \   00000AEA   8115               LDD     R17, Z+5
   \   00000AEC   ....               LDI     R30, LOW(port_udp)
   \   00000AEE   ....               LDI     R31, (port_udp) >> 8
   \   00000AF0   8300               ST      Z, R16
   \   00000AF2   8311               STD     Z+1, R17
   3386                                              if(fl_rewrite.ip==1)
   \                     ??proc_udp_data_73:
   \   00000AF4   01FC               MOVW    R31:R30, R25:R24
   \   00000AF6   8D02               LDD     R16, Z+26
   \   00000AF8   FF00               SBRS    R16, 0
   \   00000AFA   C011               RJMP    ??proc_udp_data_74
   3387                                                    {
   3388                                                    ip_ls[0]=buf_rx_ppp[OFS_IP];
   \   00000AFC   ....               LDI     R16, LOW(ip_ls)
   \   00000AFE   ....               LDI     R17, (ip_ls) >> 8
   \   00000B00   912C               LD      R18, X
   \   00000B02   01F8               MOVW    R31:R30, R17:R16
   \   00000B04   8320               ST      Z, R18
   3389                                                    ip_ls[1]=buf_rx_ppp[OFS_IP+1];
   \   00000B06   01FD               MOVW    R31:R30, R27:R26
   \   00000B08   8121               LDD     R18, Z+1
   \   00000B0A   01F8               MOVW    R31:R30, R17:R16
   \   00000B0C   8321               STD     Z+1, R18
   3390                                                    ip_ls[2]=buf_rx_ppp[OFS_IP+2];
   \   00000B0E   01FD               MOVW    R31:R30, R27:R26
   \   00000B10   8122               LDD     R18, Z+2
   \   00000B12   01F8               MOVW    R31:R30, R17:R16
   \   00000B14   8322               STD     Z+2, R18
   3391                                                    ip_ls[3]=buf_rx_ppp[OFS_IP+3];
   \   00000B16   01FD               MOVW    R31:R30, R27:R26
   \   00000B18   8123               LDD     R18, Z+3
   \   00000B1A   01F8               MOVW    R31:R30, R17:R16
   \   00000B1C   8323               STD     Z+3, R18
   3392                                                    }
   3393                                             fl_rewrite.ip=0;
   3394                                             fl_rewrite.udp=0;
   3395                                             fl_rewrite.num_self=0;
   \                     ??proc_udp_data_74:
   \   00000B1E   01FC               MOVW    R31:R30, R25:R24
   \   00000B20   8D02               LDD     R16, Z+26
   \   00000B22   7F08               ANDI    R16, 0xF8
   \   00000B24   8F02               STD     Z+26, R16
   3396                                             prov_ozu=crc_ozu();
   \   00000B26   ........           CALL    crc_ozu
   \   00000B2A   ....               LDI     R30, LOW(prov_ozu)
   \   00000B2C   ....               LDI     R31, (prov_ozu) >> 8
   \   00000B2E   8300               ST      Z, R16
   \   00000B30   8311               STD     Z+1, R17
   3397                                             
   3398                                             Control.cnt_link=3;
   \   00000B32   E003               LDI     R16, 3
   \   00000B34   E010               LDI     R17, 0
   \   00000B36   ....               LDI     R30, LOW(Control)
   \   00000B38   ....               LDI     R31, (Control) >> 8
   \   00000B3A   8304               STD     Z+4, R16
   \   00000B3C   8315               STD     Z+5, R17
   3399                                             Control.link_waits=FALSE;
   \   00000B3E   8311               STD     Z+1, R17
   3400                                             Control.cnt_try=0;
   \   00000B40   8716               STD     Z+14, R17
   3401                                             Control.link_no=FALSE;
   \   00000B42   8310               ST      Z, R17
   3402                                             }
   3403                                         
   3404                                                                   
   3405                                          UCSR0A=UCSR0A | TXC;                            
   \                     ??proc_udp_data_71:
   \   00000B44   910000C0           LDS     R16, 192
   \   00000B48   6400               ORI     R16, 0x40
   \   00000B4A   930000C0           STS     192, R16
   3406                                          UCSR0B=UCSR0B | TXEN;
   \   00000B4E   910000C1           LDS     R16, 193
   \   00000B52   6008               ORI     R16, 0x08
   \   00000B54   930000C1           STS     193, R16
   3407                                          UCSR0B=UCSR0B | TXCIE;
   \   00000B58   910000C1           LDS     R16, 193
   \   00000B5C   6400               ORI     R16, 0x40
   \   00000B5E   930000C1           STS     193, R16
   3408                                          if(check_cts()==1) return(1);   
   \   00000B62   ........           CALL    check_cts
   \   00000B66   3001               CPI     R16, 1
   \   00000B68   F409               BRNE    $+2+2
   \   00000B6A   CE8D               RJMP    ??proc_udp_data_5
   3409                                          S2_RD             
   \   00000B6C   9A40               SBI     0x08, 0x00
   \   00000B6E   9841               CBI     0x08, 0x01
   3410                                          UDR0=buf_tx_232[0];
   \   00000B70   ....               LDI     R30, LOW(buf_tx_232)
   \   00000B72   ....               LDI     R31, (buf_tx_232) >> 8
   \   00000B74   8100               LD      R16, Z
   \   00000B76   930000C6           STS     198, R16
   3411                                          if(Regim==RG_DEBAG) UDR3=buf_tx_232[0];
   \   00000B7A   9100....           LDS     R16, Regim
   \   00000B7E   3001               CPI     R16, 1
   \   00000B80   F009               BREQ    $+2+2
   \   00000B82   CE81               RJMP    ??proc_udp_data_5
   \   00000B84   CE8D               RJMP    ??proc_udp_data_64
   3412           
   3413                                       return(1);  
   3414                                       
   3415                                           
   3416                                     // break;
   3417                                 
   3418                                 
   3419                                 
   3420                                 
   3421                                 
   3422                                 case PORT_PROG:
   3423                                      
   3424                                      if(((buf_rx_ppp[TR_V]>>4)&0x03)!=ZAPR)return(0);
   \                     ??proc_udp_data_14:
   \   00000B86   01FD               MOVW    R31:R30, R27:R26
   \   00000B88   A104               LDD     R16, Z+36
   \   00000B8A   9502               SWAP    R16
   \   00000B8C   700F               ANDI    R16, 0x0F
   \   00000B8E   7003               ANDI    R16, 0x03
   \   00000B90   F009               BREQ    $+2+2
   \   00000B92   CA42               RJMP    ??proc_udp_data_1
   3425                                      
   3426                                      if(length_head==MIN_TR_HEAD)return(0);     
   \   00000B94   E00C               LDI     R16, 12
   \   00000B96   16A0               CP      R10, R16
   \   00000B98   F409               BRNE    $+2+2
   \   00000B9A   CA3E               RJMP    ??proc_udp_data_1
   3427                                      if (proc_option(buf_rx_ppp,TR_OP_DATA,length_head-MIN_TR_HEAD)!=1)return(0); 
   \   00000B9C   01A6               MOVW    R21:R20, R13:R12
   \   00000B9E   E22A               LDI     R18, 42
   \   00000BA0   E030               LDI     R19, 0
   \   00000BA2   018D               MOVW    R17:R16, R27:R26
   \   00000BA4   ....               RCALL   proc_option
   \   00000BA6   3001               CPI     R16, 1
   \   00000BA8   F009               BREQ    $+2+2
   \   00000BAA   CA36               RJMP    ??proc_udp_data_1
   3428                                       
   3429                                      if(length!=5+L_COM_CODE_MEM_Z)return(0);        
   \   00000BAC   E005               LDI     R16, 5
   \   00000BAE   16E0               CP      R14, R16
   \   00000BB0   E001               LDI     R16, 1
   \   00000BB2   06F0               CPC     R15, R16
   \   00000BB4   F009               BREQ    $+2+2
   \   00000BB6   CA30               RJMP    ??proc_udp_data_1
   3430                                      if((buf_rx_ppp[offset+C1_PORT+1])!=COM_CODE_MEM)return(0);
   \   00000BB8   01F2               MOVW    R31:R30, R5:R4
   \   00000BBA   8102               LDD     R16, Z+2
   \   00000BBC   3001               CPI     R16, 1
   \   00000BBE   F009               BREQ    $+2+2
   \   00000BC0   CA2B               RJMP    ??proc_udp_data_1
   3431                                      if((*(unsigned int*)&buf_rx_ppp[offset+C1_PORT+2])!=L_COM_CODE_MEM_Z)return(0);
   \   00000BC2   8103               LDD     R16, Z+3
   \   00000BC4   8114               LDD     R17, Z+4
   \   00000BC6   3000               CPI     R16, 0
   \   00000BC8   E021               LDI     R18, 1
   \   00000BCA   0712               CPC     R17, R18
   \   00000BCC   F009               BREQ    $+2+2
   \   00000BCE   CA24               RJMP    ??proc_udp_data_1
   3432                                      
   3433                                      
   3434                                      
   3435                                      
   3436                                      
   3437                                      if(proc_paging()==1)
   \   00000BD0   ....               RCALL   proc_paging
   \   00000BD2   3001               CPI     R16, 1
   \   00000BD4   F439               BRNE    ??proc_udp_data_75
   3438                                         {
   3439                                         send_no_sinc(buf_rx_ppp[TR_ID],*(unsigned int*)&buf_rx_ppp[TR_SRC],NO_SINC_PG);
   \   00000BD6   E012               LDI     R17, 2
   \                     ??proc_udp_data_76:
   \   00000BD8   01FD               MOVW    R31:R30, R27:R26
   \   00000BDA   8D26               LDD     R18, Z+30
   \   00000BDC   8D37               LDD     R19, Z+31
   \   00000BDE   A105               LDD     R16, Z+37
   \   00000BE0   ....               RCALL   send_no_sinc
   \   00000BE2   CA1A               RJMP    ??proc_udp_data_1
   3440                                         return(0);
   3441                                         }
   3442                                      
   3443                                     
   3444                                      
   3445                                      if(cnt_pg>251)    //(îň 0 äî 251) //ěîćíî ăđóçčňü íĺ áîëĺĺ 252 ńňđ 
   \                     ??proc_udp_data_75:
   \   00000BE4   01FC               MOVW    R31:R30, R25:R24
   \   00000BE6   8D20               LDD     R18, Z+24
   \   00000BE8   8D31               LDD     R19, Z+25
   \   00000BEA   3F2C               CPI     R18, 252
   \   00000BEC   E000               LDI     R16, 0
   \   00000BEE   0730               CPC     R19, R16
   \   00000BF0   F038               BRCS    ??proc_udp_data_77
   3446                                        {
   3447                                        cnt_pg=0;
   \   00000BF2   8F00               STD     Z+24, R16
   \   00000BF4   8F01               STD     Z+25, R16
   3448                                        fl_pg_out.send_crc=0;
   3449                                        fl_pg_out.hold_pg=0;    
   3450                                        fl_pg_out.ch_crc=0; 
   3451                                        fl_pg_out.end_pg=0;
   3452                                        fl_pg_out.cor_pg=0;
   \   00000BF6   A101               LDD     R16, Z+33
   \   00000BF8   7904               ANDI    R16, 0x94
   \   00000BFA   A301               STD     Z+33, R16
   3453                                        send_no_sinc(buf_rx_ppp[TR_ID],*(unsigned int*)&buf_rx_ppp[TR_SRC],OVER_PG);
   \   00000BFC   E013               LDI     R17, 3
   \   00000BFE   CFEC               RJMP    ??proc_udp_data_76
   3454                                        return(0);
   3455                                        }
   3456                                    
   3457                                  
   3458                                        reboot_byte=0; 
   \                     ??proc_udp_data_77:
   \   00000C00   A300               STD     Z+32, R16
   3459                                        
   3460                                        if(fl_pg_out.cor_pg==1)
   \   00000C02   A101               LDD     R16, Z+33
   \   00000C04   FF03               SBRS    R16, 3
   \   00000C06   C058               RJMP    ??proc_udp_data_78
   3461                                           {
   3462                                           fl_pg_out.cor_pg=0;
   \   00000C08   A101               LDD     R16, Z+33
   \   00000C0A   7F07               ANDI    R16, 0xF7
   \   00000C0C   A301               STD     Z+33, R16
   3463                                            
   3464                                            
   3465                                            
   3466                                            //ďđîčçâĺńňč çŕďčńü ńňđŕíčöű
   3467                                                pagee=cnt_pg;
   3468                                                pagee=pagee << 8;
   \   00000C0E   2F32               MOV     R19, R18
   \   00000C10   E020               LDI     R18, 0
   \   00000C12   8B22               STD     Z+18, R18
   \   00000C14   8B33               STD     Z+19, R19
   3469                                                __disable_interrupt();                    
   \   00000C16   94F8               CLI
   3470                                                __watchdog_reset();           
   \   00000C18   95A8               WDR
   3471                                                off_buf=offset+C1_PORT+4;           
   \   00000C1A   E005               LDI     R16, 5
   \   00000C1C   0EB0               ADD     R11, R16
   \   00000C1E   8EB4               STD     Z+28, R11
   3472                                                RAMPZ=1; 
   \   00000C20   E001               LDI     R16, 1
   \   00000C22   BF0B               OUT     0x3B, R16
   3473                                                array_in_232=&buf_rx_ppp[0];
   \   00000C24   8BA4               STD     Z+20, R26
   \   00000C26   8BB5               STD     Z+21, R27
   3474                                                contr_gluk1=C_GLUK1;   
   \   00000C28   E505               LDI     R16, 85
   \   00000C2A   8F06               STD     Z+30, R16
   3475                                                contr_gluk2=C_GLUK2; 
   \   00000C2C   EA0A               LDI     R16, 170
   \   00000C2E   8F07               STD     Z+31, R16
   3476                                                boot(); 
   \   00000C30   ........           CALL    boot
   3477                                                
   3478           
   3479                                                
   3480                                                contr_gluk1=0;   
   \   00000C34   E000               LDI     R16, 0
   \   00000C36   01FC               MOVW    R31:R30, R25:R24
   \   00000C38   8F06               STD     Z+30, R16
   3481                                                contr_gluk2=0; 
   \   00000C3A   8F07               STD     Z+31, R16
   3482                                                RAMPZ=0;  
   \   00000C3C   BF0B               OUT     0x3B, R16
   3483                                                __watchdog_reset();         
   \   00000C3E   95A8               WDR
   3484                                                __enable_interrupt();
   \   00000C40   9478               SEI
   3485                                              
   3486                                           
   3487                                           if(fl_pg_out.end_pg==1)
   \   00000C42   A101               LDD     R16, Z+33
   \   00000C44   FF00               SBRS    R16, 0
   \   00000C46   C038               RJMP    ??proc_udp_data_78
   3488                                            {
   3489                                          
   3490                                              total_kol_page=cnt_pg+1;
   \   00000C48   8D00               LDD     R16, Z+24
   \   00000C4A   9503               INC     R16
   \   00000C4C   8F05               STD     Z+29, R16
   3491                                              fl_pg_out.end_pg=0;
   \   00000C4E   A101               LDD     R16, Z+33
   \   00000C50   7F0E               ANDI    R16, 0xFE
   \   00000C52   A301               STD     Z+33, R16
   3492                                              //fl_pg_out.yes_crc=0; //îáíóëčňü ôëŕă ďĺđĺçŕăđóçęč
   3493                                              if (fl_pg_out.ch_crc==1)
   \   00000C54   A101               LDD     R16, Z+33
   \   00000C56   FF01               SBRS    R16, 1
   \   00000C58   C02C               RJMP    ??proc_udp_data_79
   3494                                              {
   3495                                              
   3496                                                 //çäĺńü ďđîâĺđęŕ crc âńĺăî ęóńęŕ
   3497                                                
   3498                                                 length=0xffff;
   \   00000C5A   24EE               CLR     R14
   \   00000C5C   94EA               DEC     R14
   \   00000C5E   2CFE               MOV     R15, R14
   3499                                                 __disable_interrupt();
   \   00000C60   94F8               CLI
   3500                                                 
   3501                                                 
   3502                                                 
   3503                                                 for (i=0;i<total_kol_page;i++)
   \   00000C62   2488               CLR     R8
   \   00000C64   C014               RJMP    ??proc_udp_data_80
   3504                                                     {
   3505                                                      array_in_232=&buf_rx_ppp[offset+C1_PORT+4];
   \                     ??proc_udp_data_81:
   \   00000C66   0182               MOVW    R17:R16, R5:R4
   \   00000C68   5F0B               SUBI    R16, 251
   \   00000C6A   4F1F               SBCI    R17, 255
   \   00000C6C   8B04               STD     Z+20, R16
   \   00000C6E   8B15               STD     Z+21, R17
   3506                                                      r_p_flash(i*256);                                                  
   \   00000C70   2D18               MOV     R17, R8
   \   00000C72   E000               LDI     R16, 0
   \   00000C74   ........           CALL    r_p_flash
   3507                                                      length=crc_m1(&buf_rx_ppp[offset+C1_PORT+4],256,length);
   \   00000C78   01A7               MOVW    R21:R20, R15:R14
   \   00000C7A   E020               LDI     R18, 0
   \   00000C7C   E031               LDI     R19, 1
   \   00000C7E   0182               MOVW    R17:R16, R5:R4
   \   00000C80   5F0B               SUBI    R16, 251
   \   00000C82   4F1F               SBCI    R17, 255
   \   00000C84   ........           CALL    crc_m1
   \   00000C88   0178               MOVW    R15:R14, R17:R16
   3508                                                      __watchdog_reset();
   \   00000C8A   95A8               WDR
   3509                                                     }   
   \   00000C8C   9483               INC     R8
   \                     ??proc_udp_data_80:
   \   00000C8E   01FC               MOVW    R31:R30, R25:R24
   \   00000C90   8D05               LDD     R16, Z+29
   \   00000C92   1680               CP      R8, R16
   \   00000C94   F340               BRCS    ??proc_udp_data_81
   3510                                                  __enable_interrupt();
   \   00000C96   9478               SEI
   3511                        
   3512                                                
   3513                                                 
   3514                                              
   3515                                                 if(length==pg_crc)
   \   00000C98   8906               LDD     R16, Z+22
   \   00000C9A   8917               LDD     R17, Z+23
   \   00000C9C   16E0               CP      R14, R16
   \   00000C9E   06F1               CPC     R15, R17
   \   00000CA0   F411               BRNE    ??proc_udp_data_82
   3516                                                  {
   3517                                                  // fl_pg_out.yes_crc=1;
   3518                                                  // âűńňŕâčňü ôëŕă ďĺđĺçŕăđóçęč áóôĺđîâ
   3519                                                   reboot_byte=0x55;
   \   00000CA2   E505               LDI     R16, 85
   \   00000CA4   C002               RJMP    ??proc_udp_data_83
   3520                                                  }
   3521                                                  else
   3522                                                  {
   3523                                                   total_kol_page=0;
   \                     ??proc_udp_data_82:
   \   00000CA6   E000               LDI     R16, 0
   \   00000CA8   8F05               STD     Z+29, R16
   3524                                                   reboot_byte=0;                                          
   \                     ??proc_udp_data_83:
   \   00000CAA   A300               STD     Z+32, R16
   3525                                                  }
   3526                                              
   3527                                               fl_pg_out.send_crc=1;
   \   00000CAC   A101               LDD     R16, Z+33
   \   00000CAE   6400               ORI     R16, 0x40
   \   00000CB0   A301               STD     Z+33, R16
   3528                                               }    
   3529                                          
   3530                                              fl_pg_out.hold_pg=0;    
   3531                                              fl_pg_out.ch_crc=0; 
   \                     ??proc_udp_data_79:
   \   00000CB2   A101               LDD     R16, Z+33
   \   00000CB4   7D0D               ANDI    R16, 0xDD
   \   00000CB6   A301               STD     Z+33, R16
   3532                                         
   3533                                            }                                                                                                                                
   3534                                           } 
   3535                                        
   3536                                        
   3537                                        
   3538                                        
   3539                                        //fl_pg_out.yes_crc=0;
   3540                                                                     
   3541                                        if(fl_pg_out.send_kv==1)
   \                     ??proc_udp_data_78:
   \   00000CB8   A101               LDD     R16, Z+33
   \   00000CBA   FF02               SBRS    R16, 2
   \   00000CBC   C098               RJMP    ??proc_udp_data_84
   3542                                          {
   3543                                          // âűäŕňü ęâčňîę ń ó÷ĺňîě çŕďčńč îďöčč crc çŕďčńŕííîăî ęóńęŕ 
   3544                                                                         
   3545                                          if(reboot_byte!=0x55)
   \   00000CBE   A100               LDD     R16, Z+32
   \   00000CC0   3505               CPI     R16, 85
   \   00000CC2   F061               BREQ    ??proc_udp_data_85
   3546                                           {
   3547                                           if(fl_ip.act_ip_end!=1){fl_pg_out.send_crc=0; reboot_byte=0; return(0);}
   \   00000CC4   ....               LDI     R30, LOW(cnt_pap_tm_out)
   \   00000CC6   ....               LDI     R31, (cnt_pap_tm_out) >> 8
   \   00000CC8   8104               LDD     R16, Z+4
   \   00000CCA   FD00               SBRC    R16, 0
   \   00000CCC   C007               RJMP    ??proc_udp_data_85
   \   00000CCE   01FC               MOVW    R31:R30, R25:R24
   \   00000CD0   A101               LDD     R16, Z+33
   \   00000CD2   7B0F               ANDI    R16, 0xBF
   \   00000CD4   A301               STD     Z+33, R16
   \   00000CD6   E000               LDI     R16, 0
   \   00000CD8   A300               STD     Z+32, R16
   \   00000CDA   C99E               RJMP    ??proc_udp_data_1
   3548                                           }
   3549                                          
   3550                                          fl_ip.act_ip_end=0;      
   \                     ??proc_udp_data_85:
   \   00000CDC   ....               LDI     R30, LOW(cnt_pap_tm_out)
   \   00000CDE   ....               LDI     R31, (cnt_pap_tm_out) >> 8
   \   00000CE0   8104               LDD     R16, Z+4
   \   00000CE2   7F0E               ANDI    R16, 0xFE
   \   00000CE4   8304               STD     Z+4, R16
   3551                                          clr_cntr_nat();
   \   00000CE6   ........           CALL    clr_cntr_nat
   3552                                          clr_cntr_link();
   \   00000CEA   ........           CALL    clr_cntr_link
   3553                                          Obj_ppp_tx.prozr=FALSE;            
   \   00000CEE   E000               LDI     R16, 0
   \   00000CF0   01FC               MOVW    R31:R30, R25:R24
   \   00000CF2   8300               ST      Z, R16
   3554                                          Obj_ppp_tx.version=VER2;      //âĺđńč˙ 
   \   00000CF4   E002               LDI     R16, 2
   \   00000CF6   8301               STD     Z+1, R16
   3555                                          Obj_ppp_tx.type_pac=OTV;     //ňčď ďŕęĺňŕ
   \   00000CF8   E001               LDI     R16, 1
   \   00000CFA   8302               STD     Z+2, R16
   3556                                          Obj_ppp_tx.num_src=num_self; // íîěĺđ îňďđŕâčňĺë˙
   \   00000CFC   ....               LDI     R30, LOW(num_self)
   \   00000CFE   ....               LDI     R31, (num_self) >> 8
   \   00000D00   8100               LD      R16, Z
   \   00000D02   8111               LDD     R17, Z+1
   \   00000D04   01FC               MOVW    R31:R30, R25:R24
   \   00000D06   8303               STD     Z+3, R16
   \   00000D08   8314               STD     Z+4, R17
   3557                                          Obj_ppp_tx.num_dst=*(unsigned int*)&buf_rx_ppp[TR_SRC]; // íîěĺđ ďîëó÷ŕňĺë˙
   \   00000D0A   01FD               MOVW    R31:R30, R27:R26
   \   00000D0C   8D06               LDD     R16, Z+30
   \   00000D0E   8D17               LDD     R17, Z+31
   \   00000D10   01FC               MOVW    R31:R30, R25:R24
   \   00000D12   8305               STD     Z+5, R16
   \   00000D14   8316               STD     Z+6, R17
   3558                   
   3559                                          Obj_ppp_tx.id_pac=buf_rx_ppp[TR_ID]; // čäĺíňčôčęŕňîđ ďŕęĺňŕ  
   \   00000D16   01FD               MOVW    R31:R30, R27:R26
   \   00000D18   A105               LDD     R16, Z+37
   \   00000D1A   01FC               MOVW    R31:R30, R25:R24
   \   00000D1C   8307               STD     Z+7, R16
   3560                                          Obj_ppp_tx.p_opt=&buf_opt_tr[0]; // //óęŕçŕňĺëü áóôĺđŕ îďöčé          
   \   00000D1E   ....               LDI     R16, LOW(buf_opt_tr)
   \   00000D20   ....               LDI     R17, (buf_opt_tr) >> 8
   \   00000D22   8700               STD     Z+8, R16
   \   00000D24   8711               STD     Z+9, R17
   3561                                          Obj_ppp_tx.l_opt=0;
   \   00000D26   E000               LDI     R16, 0
   \   00000D28   8702               STD     Z+10, R16
   3562                                          
   3563                                          if(fl_pg_out.send_crc==1)
   \   00000D2A   A101               LDD     R16, Z+33
   \   00000D2C   FF06               SBRS    R16, 6
   \   00000D2E   C00C               RJMP    ??proc_udp_data_86
   3564                                            {
   3565                                            Obj_ppp_tx.l_opt=4;// äëčíŕ áóôĺđŕ îďöčé   
   \   00000D30   E004               LDI     R16, 4
   \   00000D32   8702               STD     Z+10, R16
   3566                                            buf_opt_tr[0]=KOD_WR_PG_CRC;
   \   00000D34   E003               LDI     R16, 3
   \   00000D36   9300....           STS     buf_opt_tr, R16
   3567                                            buf_opt_tr[1]=L_OP_WR_PG_CRC;
   \   00000D3A   E004               LDI     R16, 4
   \   00000D3C   9300....           STS     (buf_opt_tr + 1), R16
   3568                                            *(unsigned int*)&buf_opt_tr[2]=length;//ýňî crc
   \   00000D40   ....               LDI     R30, LOW(buf_opt_tr)
   \   00000D42   ....               LDI     R31, (buf_opt_tr) >> 8
   \   00000D44   82E2               STD     Z+2, R14
   \   00000D46   82F3               STD     Z+3, R15
   3569                                            }
   3570                                           fl_pg_out.send_crc=0;  
   \                     ??proc_udp_data_86:
   \   00000D48   01FC               MOVW    R31:R30, R25:R24
   \   00000D4A   A101               LDD     R16, Z+33
   \   00000D4C   7B0F               ANDI    R16, 0xBF
   \   00000D4E   A301               STD     Z+33, R16
   3571                                        //Obj_ppp_tx.kol_opt=1;// ęîëč÷ĺńňâî îďöčé     
   3572                 
   3573                                         buf_tx_232[TR_OP_DATA+C1_PROT+10]=PROT_C1;
   \   00000D50   E001               LDI     R16, 1
   \   00000D52   ....               LDI     R30, LOW(buf_tx_232)
   \   00000D54   ....               LDI     R31, (buf_tx_232) >> 8
   \   00000D56   AB04               STD     Z+52, R16
   3574                                         buf_tx_232[TR_OP_DATA+C1_PROT+11]=PORT_PROG;
   \   00000D58   E007               LDI     R16, 7
   \   00000D5A   AB05               STD     Z+53, R16
   3575                                         buf_tx_232[TR_OP_DATA+C1_PROT+12]=COM_CODE_MEM;
   \   00000D5C   E001               LDI     R16, 1
   \   00000D5E   AB06               STD     Z+54, R16
   3576                                         *(unsigned int*)&buf_tx_232[TR_OP_DATA+C1_PROT+13]=L_COM_CODE_MEM_A;
   \   00000D60   E003               LDI     R16, 3
   \   00000D62   E010               LDI     R17, 0
   \   00000D64   AB07               STD     Z+55, R16
   \   00000D66   AF10               STD     Z+56, R17
   3577                                         buf_tx_232[TR_OP_DATA+C1_PROT+15]=0x00; //OK 
   \   00000D68   AF11               STD     Z+57, R17
   3578                                         *(unsigned int*)&buf_tx_232[TR_OP_DATA+C1_PROT+16]=cnt_pg; //OK 
   \   00000D6A   01FC               MOVW    R31:R30, R25:R24
   \   00000D6C   8D00               LDD     R16, Z+24
   \   00000D6E   8D11               LDD     R17, Z+25
   \   00000D70   ....               LDI     R30, LOW(buf_tx_232)
   \   00000D72   ....               LDI     R31, (buf_tx_232) >> 8
   \   00000D74   AF02               STD     Z+58, R16
   \   00000D76   AF13               STD     Z+59, R17
   3579             
   3580          
   3581                                         Obj_ppp_tx.l_data=5+L_COM_CODE_MEM_A;  // äëčíŕ äŕííűő
   \   00000D78   E008               LDI     R16, 8
   \   00000D7A   E010               LDI     R17, 0
   \   00000D7C   01FC               MOVW    R31:R30, R25:R24
   \   00000D7E   8706               STD     Z+14, R16
   \   00000D80   8717               STD     Z+15, R17
   3582                                         Obj_ppp_tx.p_data=&buf_tx_232[TR_OP_DATA+C1_PROT+10];  //óęŕçŕňĺëü áóôĺđŕ äŕííűő
   \   00000D82   ....               LDI     R16, LOW(buf_tx_232)
   \   00000D84   ....               LDI     R17, (buf_tx_232) >> 8
   \   00000D86   5C0C               SUBI    R16, 204
   \   00000D88   4F1F               SBCI    R17, 255
   \   00000D8A   8704               STD     Z+12, R16
   \   00000D8C   8715               STD     Z+13, R17
   3583                  
   3584                                         send_info(sizeof(ans_out_prog),ans_out_prog,1,buf_rx_ppp[TR_ID]);
   \   00000D8E   01FD               MOVW    R31:R30, R27:R26
   \   00000D90   A145               LDD     R20, Z+37
   \   00000D92   E011               LDI     R17, 1
   \   00000D94   ....               LDI     R18, LOW((evc_rld + 89))
   \   00000D96   ....               LDI     R19, HIGH((evc_rld + 89))
   \   00000D98   E009               LDI     R16, 9
   \   00000D9A   ........           CALL    send_info
   3585                                         
   3586                                         form_buf_tx_ppp();                            
   \   00000D9E   ........           CALL    form_buf_tx_ppp
   3587                                         UCSR0A=UCSR0A | TXC;                            
   \   00000DA2   910000C0           LDS     R16, 192
   \   00000DA6   6400               ORI     R16, 0x40
   \   00000DA8   930000C0           STS     192, R16
   3588                                         UCSR0B=UCSR0B | TXEN;
   \   00000DAC   910000C1           LDS     R16, 193
   \   00000DB0   6008               ORI     R16, 0x08
   \   00000DB2   930000C1           STS     193, R16
   3589                                         UCSR0B=UCSR0B | TXCIE;
   \   00000DB6   910000C1           LDS     R16, 193
   \   00000DBA   6400               ORI     R16, 0x40
   \   00000DBC   930000C1           STS     193, R16
   3590                                      
   3591                                      if(reboot_byte!=0x55)
   \   00000DC0   01FC               MOVW    R31:R30, R25:R24
   \   00000DC2   A100               LDD     R16, Z+32
   \   00000DC4   3505               CPI     R16, 85
   \   00000DC6   F029               BREQ    ??proc_udp_data_87
   3592                                           {   
   3593                                            // if(check_cts()==1){S5_RD; while(1)__watchdog_reset(); return(0);}
   3594                                              if(check_cts()==1) return(0);
   \   00000DC8   ........           CALL    check_cts
   \   00000DCC   3001               CPI     R16, 1
   \   00000DCE   F409               BRNE    $+2+2
   \   00000DD0   C923               RJMP    ??proc_udp_data_1
   3595                                           }                
   3596                                        
   3597                                         S2_RD;
   \                     ??proc_udp_data_87:
   \   00000DD2   9A40               SBI     0x08, 0x00
   \   00000DD4   9841               CBI     0x08, 0x01
   3598                                         UDR0=buf_tx_232[0];
   \   00000DD6   ....               LDI     R30, LOW(buf_tx_232)
   \   00000DD8   ....               LDI     R31, (buf_tx_232) >> 8
   \   00000DDA   8100               LD      R16, Z
   \   00000DDC   930000C6           STS     198, R16
   3599                                         if(Regim==RG_DEBAG) UDR3=buf_tx_232[0];
   \   00000DE0   9100....           LDS     R16, Regim
   \   00000DE4   3001               CPI     R16, 1
   \   00000DE6   F419               BRNE    ??proc_udp_data_84
   \   00000DE8   8100               LD      R16, Z
   \   00000DEA   93000136           STS     310, R16
   3600                                          }                               
   3601                                          
   3602                                       
   3603                                         if(reboot_byte==0x55)
   \                     ??proc_udp_data_84:
   \   00000DEE   01FC               MOVW    R31:R30, R25:R24
   \   00000DF0   A100               LDD     R16, Z+32
   \   00000DF2   3505               CPI     R16, 85
   \   00000DF4   F009               BREQ    $+2+2
   \   00000DF6   CD47               RJMP    ??proc_udp_data_5
   3604                                           {
   3605                                             for(i=0;i<30;i++)
   \   00000DF8   2488               CLR     R8
   \   00000DFA   C006               RJMP    ??proc_udp_data_88
   3606                                              {
   3607                                              __watchdog_reset();
   \                     ??proc_udp_data_89:
   \   00000DFC   95A8               WDR
   3608                                              delay(45000);
   \   00000DFE   EC08               LDI     R16, 200
   \   00000E00   EA1F               LDI     R17, 175
   \   00000E02   ........           CALL    delay
   3609                                              }
   \   00000E06   9483               INC     R8
   \                     ??proc_udp_data_88:
   \   00000E08   E10E               LDI     R16, 30
   \   00000E0A   1680               CP      R8, R16
   \   00000E0C   F3B8               BRCS    ??proc_udp_data_89
   3610                                              
   3611                                             __disable_interrupt();
   \   00000E0E   94F8               CLI
   3612                                             WrArrayToFlesh(BEG_BUF_LOG,0,(L_LOG*6),0x01,0x00);
   \   00000E10   E070               LDI     R23, 0
   \   00000E12   E061               LDI     R22, 1
   \   00000E14   EF40               LDI     R20, 240
   \   00000E16   E050               LDI     R21, 0
   \   00000E18   E020               LDI     R18, 0
   \   00000E1A   E030               LDI     R19, 0
   \   00000E1C   EF04               LDI     R16, 244
   \   00000E1E   E011               LDI     R17, 1
   \   00000E20   ........           CALL    WrArrayToFlesh
   3613          
   3614                                             off_buf=0;
   \   00000E24   E000               LDI     R16, 0
   \   00000E26   01FC               MOVW    R31:R30, R25:R24
   \   00000E28   8F04               STD     Z+28, R16
   3615                                             SREG=0;
   \   00000E2A   BF0F               OUT     0x3F, R16
   3616                                             WDTCSR=0x18;           
   \   00000E2C   E108               LDI     R16, 24
   \   00000E2E   93000060           STS     96, R16
   3617                                             WDTCSR=0x0f;           
   \   00000E32   E00F               LDI     R16, 15
   \   00000E34   93000060           STS     96, R16
   3618                                             __watchdog_reset();   
   \   00000E38   95A8               WDR
   3619                                             contr_gluk1=C_GLUK1;   
   \   00000E3A   E505               LDI     R16, 85
   \   00000E3C   8F06               STD     Z+30, R16
   3620                                             contr_gluk2=C_GLUK2; 
   \   00000E3E   EA0A               LDI     R16, 170
   \   00000E40   8F07               STD     Z+31, R16
   3621                                             send_info(sizeof(evc_rld),evc_rld,0,0);
   \   00000E42   E040               LDI     R20, 0
   \   00000E44   E010               LDI     R17, 0
   \   00000E46   ....               LDI     R18, LOW(evc_rld)
   \   00000E48   ....               LDI     R19, (evc_rld) >> 8
   \   00000E4A   E007               LDI     R16, 7
   \   00000E4C   ........           CALL    send_info
   3622                                             reload_apl(); 
   \   00000E50   ........           CALL    reload_apl
   \   00000E54   CD18               RJMP    ??proc_udp_data_5
   3623                                           }          
   3624                                       
   3625                                          
   3626                                      return(1);                         
   3627                                }
   3628                        
   3629                        
   3630                        
   3631                        
   3632                         }//äë˙ âĺđńčč VER2
   3633                         
   3634                        
   3635                            
   3636                         return(0);
   3637                         } 
   3638           
   3639           ////////////////EEEEEEEEEEEEEEEEEEEEEEEEEEEEEEEEEEEEEEEEEEEEEEEEEEEEEEEEEEEEEEEEEEEEEEE
   3640           
   3641           
   3642           
   3643           
   3644           
   3645           
   3646           
   3647          
   3648           
   3649           
   3650           

   \                                 In segment CODE, align 2, keep-with-next
   3651          void analiz_ppp_rx(void)
   \                     analiz_ppp_rx:
   3652          {
   3653             
   3654            
   3655            
   3656            if(fl_ipcp.act_ipcp_end==0)return;
   3657            if (fl_ip.act_ip_end==0)return;         
   \   00000000   ....               LDI     R30, LOW(cnt_pap_tm_out)
   \   00000002   ....               LDI     R31, (cnt_pap_tm_out) >> 8
   \   00000004   8103               LDD     R16, Z+3
   \   00000006   7001               ANDI    R16, 0x01
   \   00000008   8114               LDD     R17, Z+4
   \   0000000A   7011               ANDI    R17, 0x01
   \   0000000C   2310               AND     R17, R16
   \   0000000E   F159               BREQ    ??analiz_ppp_rx_0
   3658            
   3659            if(Buf1_rx_ppp.rec==TRUE)
   \   00000010   9100....           LDS     R16, (Buf1_rx_ppp + 332)
   \   00000014   3001               CPI     R16, 1
   \   00000016   F491               BRNE    ??analiz_ppp_rx_1
   3660            {
   3661             
   3662            proc_ppp_packet(&Buf1_rx_ppp.data[0],Buf1_rx_ppp.ln_data); 
   \   00000018   ....               LDI     R30, LOW((Buf1_rx_ppp + 330))
   \   0000001A   ....               LDI     R31, HIGH((Buf1_rx_ppp + 330))
   \   0000001C   8120               LD      R18, Z
   \   0000001E   8131               LDD     R19, Z+1
   \   00000020   ....               LDI     R16, LOW(Buf1_rx_ppp)
   \   00000022   ....               LDI     R17, (Buf1_rx_ppp) >> 8
   \   00000024   ........           CALL    proc_ppp_packet
   3663            Buf1_rx_ppp.ln_data=0;
   \   00000028   E000               LDI     R16, 0
   \   0000002A   ....               LDI     R30, LOW((Buf1_rx_ppp + 330))
   \   0000002C   ....               LDI     R31, HIGH((Buf1_rx_ppp + 330))
   \   0000002E   8300               ST      Z, R16
   \   00000030   8301               STD     Z+1, R16
   3664            Buf1_rx_ppp.rec=FALSE;
   \   00000032   9300....           STS     (Buf1_rx_ppp + 332), R16
   3665            Buf1_rx_ppp.busy=FALSE;
   \   00000036   9300....           STS     (Buf1_rx_ppp + 333), R16
   3666            return;
   \   0000003A   9508               RET
   3667            }
   3668            
   3669            if(Buf2_rx_ppp.rec==TRUE)
   \                     ??analiz_ppp_rx_1:
   \   0000003C   9100....           LDS     R16, (Buf2_rx_ppp + 332)
   \   00000040   3001               CPI     R16, 1
   \   00000042   F489               BRNE    ??analiz_ppp_rx_0
   3670            {
   3671            
   3672           
   3673            
   3674            proc_ppp_packet(&Buf2_rx_ppp.data[0],Buf2_rx_ppp.ln_data); 
   \   00000044   ....               LDI     R30, LOW((Buf2_rx_ppp + 330))
   \   00000046   ....               LDI     R31, HIGH((Buf2_rx_ppp + 330))
   \   00000048   8120               LD      R18, Z
   \   0000004A   8131               LDD     R19, Z+1
   \   0000004C   ....               LDI     R16, LOW(Buf2_rx_ppp)
   \   0000004E   ....               LDI     R17, (Buf2_rx_ppp) >> 8
   \   00000050   ........           CALL    proc_ppp_packet
   3675            Buf2_rx_ppp.ln_data=0;
   \   00000054   E000               LDI     R16, 0
   \   00000056   ....               LDI     R30, LOW((Buf2_rx_ppp + 330))
   \   00000058   ....               LDI     R31, HIGH((Buf2_rx_ppp + 330))
   \   0000005A   8300               ST      Z, R16
   \   0000005C   8301               STD     Z+1, R16
   3676            Buf2_rx_ppp.rec=FALSE;
   \   0000005E   9300....           STS     (Buf2_rx_ppp + 332), R16
   3677            Buf2_rx_ppp.busy=FALSE;
   \   00000062   9300....           STS     (Buf2_rx_ppp + 333), R16
   3678            return;
   \                     ??analiz_ppp_rx_0:
   \   00000066   9508               RET
   3679            }        
   3680                    
   3681          }
   3682          

   Maximum stack usage in bytes:

     Function              CSTACK RSTACK
     --------              ------ ------
     analiz_ppp_rx             0      2
       -> proc_ppp_packet      0      2
       -> proc_ppp_packet      0      2
     calc_crc_ip               8      2
     calc_crc_udp_2           10      2
     monitor_act_IPCP          2      2
       -> run_ipcp_act         2      2
     monitor_act_LCP           2      2
       -> run_lcp_act          2      2
     monitor_act_PAP           7      2
       -> RdFromFleshToArr     7      2
       -> RdFromFleshToArr     7      2
       -> RdFromFleshToArr     7      2
       -> RdFromFleshToArr     7      2
       -> RdFromFleshToArr     7      2
       -> RdFromFleshToArr     7      2
       -> RdFromFleshToArr     7      2
       -> RdFromFleshToArr     7      2
       -> RdFromFleshToArr     7      2
       -> RdFromFleshToArr     7      2
       -> pppfcs16             7      2
       -> check_cts            7      2
     monitor_event_IPCP        2      2
       -> prov_uk_in_ipcp      2      2
       -> prov_uk_in_ipcp      2      2
       -> prov_uk_in_ipcp      2      2
       -> prov_uk_in_ipcp      2      2
       -> prov_uk_in_ipcp      2      2
       -> prov_uk_in_ipcp      2      2
       -> prov_uk_in_ipcp      2      2
       -> prov_uk_in_ipcp      2      2
       -> prov_uk_in_ipcp      2      2
       -> prov_uk_in_ipcp      2      2
       -> prov_uk_in_ipcp      2      2
       -> prov_uk_in_ipcp      2      2
       -> prov_uk_in_ipcp      2      2
       -> prov_uk_in_ipcp      2      2
     monitor_event_LCP         4      2
       -> prov_uk_in           4      2
       -> prov_uk_in           4      2
       -> prov_uk_in           4      2
       -> prov_uk_in           4      2
       -> prov_uk_in           4      2
       -> prov_uk_in           4      2
       -> prov_uk_in           4      2
       -> prov_uk_in           4      2
       -> prov_uk_in           4      2
       -> prov_uk_in           4      2
       -> prov_uk_in           4      2
       -> prov_uk_in           4      2
       -> prov_uk_in           4      2
       -> prov_uk_in           4      2
       -> prov_uk_in           4      2
       -> prov_uk_in           4      2
       -> prov_uk_in           4      2
       -> prov_uk_in           4      2
       -> prov_uk_in           4      2
       -> prov_uk_in           4      2
       -> prov_uk_in           4      2
       -> prov_uk_in           4      2
     monitor_event_PAP         0      2
     pppfcs16                  0      2
     proc_option              10      4
     proc_paging               0      2
     proc_ppp_packet          14      2
       -> pppfcs16            14      2
       -> calc_crc_ip         14      2
       -> calc_crc_udp_2      14      2
       -> proc_udp_data       14      2
     proc_udp_data            18      2
       -> transform_buf       18      2
       -> crc_m1              18      2
       -> proc_option         18      2
       -> send_size_pg        18      2
       -> send_info           18      2
       -> clr_cntr_nat        18      2
       -> send_info           18      2
       -> send_info           18      2
       -> send_err485         18      2
       -> send_info           18      2
       -> send_err485         18      2
       -> check_cont_485_1    18      2
       -> send_info           18      2
       -> send_err485         18      2
       -> send_info           18      2
       -> send_err485         18      2
       -> send_info           18      2
       -> send_err485         18      2
       -> proc_option         18      2
       -> send_info           18      2
       -> send_err485         18      2
       -> send_info           18      2
       -> send_err485         18      2
       -> check_cont_485_1    18      2
       -> send_info           18      2
       -> send_err485         18      2
       -> send_info           18      2
       -> send_err485         18      2
       -> send_info           18      2
       -> send_err485         18      2
       -> proc_option         18      2
       -> send_info           18      2
       -> send_err485         18      2
       -> send_info           18      2
       -> send_err485         18      2
       -> check_cont_485_1    18      2
       -> send_info           18      2
       -> send_err485         18      2
       -> send_info           18      2
       -> send_err485         18      2
       -> send_info           18      2
       -> send_err485         18      2
       -> proc_option         18      2
       -> clr_cntr_nat        18      2
       -> clr_cntr_link       18      2
       -> burst_ds_r          18      2
       -> send_info           18      2
       -> form_buf_tx_ppp     18      2
       -> check_cts           18      2
       -> send_info           18      2
       -> check_ln_conf       18      2
       -> WrArrayToFlesh      18      2
       -> RdFromFleshToArr    18      2
       -> proc_config         18      2
       -> clr_cntr_nat        18      2
       -> clr_cntr_link       18      2
       -> send_info           18      2
       -> form_buf_tx_ppp     18      2
       -> RdFromFleshToArr    18      2
       -> crc_ozu             18      2
       -> check_cts           18      2
       -> proc_option         18      2
       -> proc_paging         18      2
       -> send_no_sinc        18      2
       -> send_no_sinc        18      2
       -> boot                18      2
       -> r_p_flash           18      2
       -> crc_m1              18      2
       -> clr_cntr_nat        18      2
       -> clr_cntr_link       18      2
       -> send_info           18      2
       -> form_buf_tx_ppp     18      2
       -> check_cts           18      2
       -> delay               18      2
       -> WrArrayToFlesh      18      2
       -> send_info           18      2
       -> reload_apl          18      2
     prov_uk_in                0      2
     prov_uk_in_ipcp           0      2
     run_ipcp_act              6      2
       -> clr_cntr_nat         6      2
       -> pppfcs16             6      2
       -> check_cts            6      2
       -> pppfcs16             6      2
       -> check_cts            6      2
       -> pppfcs16             6      2
       -> check_cts            6      2
       -> pppfcs16             6      2
       -> check_cts            6      2
     run_lcp_act               6      2
       -> pppfcs16             6      2
       -> check_cts            6      2
       -> pppfcs16             6      2
       -> check_cts            6      2
       -> pppfcs16             6      2
       -> check_cts            6      2
       -> pppfcs16             6      2
       -> check_cts            6      2
     send_no_sinc              4      2
       -> clr_cntr_nat         4      2
       -> clr_cntr_link        4      2
       -> form_buf_tx_ppp      4      2
       -> check_cts            4      2
     send_size_pg              4      2
       -> clr_cntr_nat         4      2
       -> clr_cntr_link        4      2
       -> form_buf_tx_ppp      4      2
       -> check_cts            4      2


   Segment part sizes:

     Function/Label     Bytes
     --------------     -----
     _A_UDR3               1
     _A_UDR0               1
     _A_UCSR0B             1
     _A_UCSR0A             1
     _A_WDTCSR             1
     _A_SREG               1
     _A_RAMPZ              1
     _A_PORTC              1
     evc_rld              98
     Obj_ppp_tx           36
     cnt_pap_tm_out       63
     fl_lcp1              45
     cnt_lcp_tm_out       63
     cnt_ipcp_tm_out      54
     cnt_rst_lcp           1
     vol_cnt_rst_lcp       1
     cnt_rst_pap           1
     cnt_ip_tm_cntr        4
     i_scj_lcp             1
     i_str_lcp             1
     i_sta_lcp             1
     i_scj_ipcp            1
     i_str_ipcp            1
     i_sta_ipcp            1
     buf_rejc_opt_lcp     34
     buf_rejc_opt_ipcp    31
     ip_pri_dns            9
     fcstab              512
     prov_uk_in           46
     prov_uk_in_ipcp      46
     pppfcs16             48
     run_lcp_act         924
     monitor_act_PAP     638
     monitor_event_PAP   124
     monitor_act_LCP      98
     monitor_event_LCP   440
     run_ipcp_act        980
     monitor_act_IPCP     98
     monitor_event_IPCP  338
     calc_crc_ip         172
     calc_crc_udp_2      398
     proc_ppp_packet    1366
     send_no_sinc        188
     proc_paging         152
     proc_option         494
     send_size_pg        196
     proc_udp_data      3670
     analiz_ppp_rx       104
      Others               7

 
      8 bytes in segment ABSOLUTE
 10 520 bytes in segment CODE
      7 bytes in segment INITTAB
    610 bytes in segment NEAR_F
    348 bytes in segment NEAR_Z
 
 11 130 bytes of CODE memory (+ 7 bytes shared)
    348 bytes of DATA memory (+ 8 bytes shared)

Errors: none
Warnings: none
