##############################################################################
#                                                                            #
#                                                      24/Oct/2025  13:29:05 #
# IAR Atmel AVR C/C++ Compiler V4.12A/W32, Evaluation Version                #
# Copyright 1996-2005 IAR Systems. All rights reserved.                      #
#                                                                            #
#    Source file  =  E:\sim800Elam2560_bootnew_i2cerr_a7682e\fppp3.c         #
#    Command line =  E:\sim800Elam2560_bootnew_i2cerr_a7682e\fppp3.c         #
#                    --cpu=m2560 -ms -o E:\sim800Elam2560_bootnew_i2cerr_a76 #
#                    82e\Debug\Obj\ -lCN E:\sim800Elam2560_bootnew_i2cerr_a7 #
#                    682e\Debug\List\ -lA E:\sim800Elam2560_bootnew_i2cerr_a #
#                    7682e\Debug\List\ -y --initializers_in_flash -z9        #
#                    --no_inline --no_tbaa --cross_call_passes=1 --debug -e  #
#                    -I "E:\box\IAR Systems\Embedded Workbench 4.0           #
#                    Evaluation\avr\INC\" -I "E:\box\IAR Systems\Embedded    #
#                    Workbench 4.0 Evaluation\avr\INC\DLIB\" --eeprom_size   #
#                    4096 --dlib_config "E:\box\IAR Systems\Embedded         #
#                    Workbench 4.0 Evaluation\avr\LIB\DLIB\dlAVR-5s-ec-n.h"  #
#    List file    =  E:\sim800Elam2560_bootnew_i2cerr_a7682e\Debug\List\fppp #
#                    3.lst                                                   #
#    Object file  =  E:\sim800Elam2560_bootnew_i2cerr_a7682e\Debug\Obj\fppp3 #
#                    .r90                                                    #
#                                                                            #
#                                                                            #
##############################################################################

E:\sim800Elam2560_bootnew_i2cerr_a7682e\fppp3.c
      1          #include <iom2560.h> 

   \                                 In segment ABSOLUTE, at 0x136
   \   union <unnamed> volatile __ext_io _A_UDR3
   \                     _A_UDR3:
   \   00000000                      DS 1

   \                                 In segment ABSOLUTE, at 0xc6
   \   union <unnamed> volatile __io _A_UDR0
   \                     _A_UDR0:
   \   00000000                      DS 1

   \                                 In segment ABSOLUTE, at 0xc1
   \   union <unnamed> volatile __io _A_UCSR0B
   \                     _A_UCSR0B:
   \   00000000                      DS 1

   \                                 In segment ABSOLUTE, at 0xc0
   \   union <unnamed> volatile __io _A_UCSR0A
   \                     _A_UCSR0A:
   \   00000000                      DS 1

   \                                 In segment ABSOLUTE, at 0x60
   \   union <unnamed> volatile __io _A_WDTCSR
   \                     _A_WDTCSR:
   \   00000000                      DS 1

   \                                 In segment ABSOLUTE, at 0x5f
   \   union <unnamed> volatile __io _A_SREG
   \                     _A_SREG:
   \   00000000                      DS 1

   \                                 In segment ABSOLUTE, at 0x5c
   \   union <unnamed> volatile __io _A_EIND
   \                     _A_EIND:
   \   00000000                      DS 1

   \                                 In segment ABSOLUTE, at 0x5b
   \   union <unnamed> volatile __io _A_RAMPZ
   \                     _A_RAMPZ:
   \   00000000                      DS 1

   \                                 In segment ABSOLUTE, at 0x28
   \   union <unnamed> volatile __io _A_PORTC
   \                     _A_PORTC:
   \   00000000                      DS 1

   \                                 In segment ABSOLUTE, at 0x22
   \   union <unnamed> volatile __io _A_PORTA
   \                     _A_PORTA:
   \   00000000                      DS 1
      2          #include <inavr.h>
      3          #include "dfpin.h"
      4          #include "dfproc.h"
      5          #include "def_prot.h"
      6          #include "def_conf.h"
      7          #include "map_ef.h"
      8          #include "ozu_map.h"
      9          #include "def_at.h"
     10          #include "def_link.h"
     11          #include "dfcnst.h"
     12          #include "def_log.h"
     13          #include "map_mbus.h"
     14          #include "bpa.h"
     15          #include "ver_api.h"
     16          
     17          //ŕäîďňčđîâŕííűé îáđĺçŕííűé ńňĺę PPP 14.09.07
     18          
     19          #define C_GLUK1    0x55   
     20          #define C_GLUK2    0xaa
     21          
     22          extern unsigned char k_a_tit[2];
     23          extern union {
     24                 unsigned char mb[SEG3*2];//áŕéňîâűé ěŕńńčâ
     25                 } c2_byte; //1˙ ńňđŕíčöŕ ęîíôčăóđŕöčč 
     26          
     27          extern union {
     28                 unsigned char mb[SEG99*2];//áŕéňîâűé ěŕńńčâ 
     29                 } c1_byte; // ńňđŕíčöŕ ęîíôčăóđŕöčč ĂÇÓ 
     30          

   \                                 In segment FARCODE, align 2, keep-with-next
     31          unsigned int swap(unsigned int a)
   \                     `swap`:
     32          {
     33            return (a << 8) | (a >> 8);
   \   00000000   2F30               MOV     R19, R16
   \   00000002   2F01               MOV     R16, R17
   \   00000004   2F13               MOV     R17, R19
   \   00000006   9508               RET
     34          }
     35          
     36          extern unsigned char obmen_full;
     37          extern char bit_registr1;
     38          extern unsigned char nomer_tab;
     39          extern unsigned int sost;
     40          extern char zadan_ys;
     41          
     42          char read_ohr(void);
     43          
     44          void test_vzat(void);
     45          void test_snat(void);
     46          void test_alarm(void);
     47          void test_t_vhod(void);
     48          void test_t_vihod(void);
     49          
     50          
     51          
     52          void refresh_a(char m);
     53          void RdFromFleshToArrInt(unsigned int adres_flesh, unsigned int *adres_ozu,unsigned int num);
     54          void WrArrayToFleshInt(unsigned int adres_flesh,  unsigned int *adres_ozu, unsigned int num,unsigned char flag,unsigned int znach); //çŕďčńü ęîíôčăóđŕöčč ęď âî ôëĺř
     55          
     56          unsigned char crc_485(unsigned char num, unsigned char *p);
     57          
     58          extern unsigned char bufer[2];
     59          
     60          void lock_it(void);
     61          extern void write_log_info(unsigned char sost,unsigned char mesto);
     62          
     63          
     64          extern void set_rlt(unsigned char address,unsigned char * data);
     65          
     66          void  transform_buf(unsigned char *p,unsigned int kol_byte,unsigned int s_rand);
     67          
     68          
     69          void boot_HUGE(void);
     70          void r_p_flash(unsigned int adress);
     71          void reload_apl_HUGE (void);
     72          
     73          void send_info(char size,char __flash *p,unsigned char fl_id,unsigned char id);
     74          
     75          
     76          //__flash char gluk[]= {'g','l','u','k'};
     77          //__flash char gluk1[]= {'g','l','u','k','1'};
     78          
     79          

   \                                 In segment NEAR_F, align 1, keep-with-next
     80          __flash char evc_rld[]=            {'E','V','C',':','r','l','d'};
     81          
     82          __flash char rec_ctrl_ch[]=             {'R','E','C',':','c','t','r','l',' ','c','h'};
     83          __flash char rec_evc[]=             {'R','E','C',':','e','v','c'};
     84          
     85          __flash char ans_in_ctrl_cl[]={'A','N','S','-','<','c','t','r','l',' ','c','l'};
     86          
     87          
     88          /*
     89          __flash char req_in_485_1[]={'R','E','Q','-','<','4','8','5','_','1'};
     90          __flash char req_in_485_2[]={'R','E','Q','-','<','4','8','5','_','2'};
     91          __flash char req_in_232[]={'R','E','Q','-','<','2','3','2'};
     92          __flash char req_in_st_contr[]={'R','E','Q','-','<','s','t',' ','c','o','n','t','r'};
     93          __flash char req_in_config[]={'R','E','Q','-','<','c','o','n','f','i','g'};
     94          __flash char req_in_prog[]={'R','E','Q','-','<','p','r','o','g'};
     95          */
     96          
     97          __flash char ans_out_485_1[]={'A','N','S','-','>','4','8','5','_','1'};
     98          __flash char ans_out_485_2[]={'A','N','S','-','>','4','8','5','_','2'};
     99          __flash char ans_out_232[]={'A','N','S','-','>','2','3','2'};
    100          __flash char ans_out_st_contr[]={'A','N','S','-','>','s','t',' ','c','o','n','t','r'};
    101          __flash char ans_out_config[]={'A','N','S','-','>','c','o','n','f','i','g'};
    102          __flash char ans_out_prog[]={'A','N','S','-','>','p','r','o','g'};
    103          __flash char ans_out_mbus[]={'A','N','S','-','>','m','b','u','s'};
    104          
    105          //__flash char ans_out_ping[]={'A','N','S','-','>','p','i','n','g'};
    106          
    107          //__flash char prov1[]={'P','R','O','V','1'};
    108          //__flash char prov2[]={'P','R','O','V','2'};
    109          
    110          
    111          #define NO_MODEL  0x2
    112          #define NO_MAP    0x7
    113          #define DATA_MONTH 0x06
    114          #define DATA_DATA  0x1a
    115          #define GOD       0x11
    116          
    117          __flash  unsigned char new_version[]={0x06,0xcd,0x00,0x07,0x00,NO_MODEL,0x00,NO_MAP,DATA_MONTH,DATA_DATA,0x00,GOD};
   \                     new_version:
   \   00000000   CD0607000200       DB 6, 205, 0, 7, 0, 2, 0, 7, 6, 26, 0, 17
   \              07001A061100
   \                     evc_rld:
   \   0000000C   56453A436C72       DB 69, 86, 67, 58, 114, 108, 100
   \              64          
   \                     rec_ctrl_ch:
   \   00000013   45523A437463       DB 82, 69, 67, 58, 99, 116, 114, 108, 32, 99, 104
   \              6C72632068  
   \                     rec_evc:
   \   0000001E   45523A437665       DB 82, 69, 67, 58, 101, 118, 99
   \              63          
   \                     ans_in_ctrl_cl:
   \   00000025   4E412D53633C       DB 65, 78, 83, 45, 60, 99, 116, 114, 108, 32, 99, 108
   \              7274206C6C63
   \                     ans_out_485_1:
   \   00000031   4E412D53343E       DB 65, 78, 83, 45, 62, 52, 56, 53, 95, 49
   \              3538315F    
   \                     ans_out_485_2:
   \   0000003B   4E412D53343E       DB 65, 78, 83, 45, 62, 52, 56, 53, 95, 50
   \              3538325F    
   \                     ans_out_232:
   \   00000045   4E412D53323E       DB 65, 78, 83, 45, 62, 50, 51, 50
   \              3233        
   \                     ans_out_st_contr:
   \   0000004D   4E412D53733E       DB 65, 78, 83, 45, 62, 115, 116, 32, 99, 111, 110, 116, 114
   \              20746F63746E
   \              72          
   \                     ans_out_config:
   \   0000005A   4E412D53633E       DB 65, 78, 83, 45, 62, 99, 111, 110, 102, 105, 103
   \              6E6F696667  
   \                     ans_out_prog:
   \   00000065   4E412D53703E       DB 65, 78, 83, 45, 62, 112, 114, 111, 103
   \              6F7267      
   \                     ans_out_mbus:
   \   0000006E   4E412D536D3E       DB 65, 78, 83, 45, 62, 109, 98, 117, 115
   \              756273      
    118          
    119          extern unsigned int ust_vhod;
    120          
    121          extern unsigned int c_config_tc[SEG8];
    122          
    123          extern unsigned char sel_modul;
    124          
    125          extern char bit_level,bit_level_psm,sost_psm;
    126          extern unsigned long int unix;
    127          
    128          
    129          //#include "sec.h"
    130          
    131          //enum t_version {VER1 = 1 ,VER2,VER3,VER4};
    132          //enum t_type {ZAPR,OTV,SOOB,KVIT};
    133          extern unsigned char simka; //dobavka
    134          
    135          extern unsigned int num_self,num_seq_cl,port_udp;
    136          extern unsigned char ip_ls[4]; 
    137          
    138          
    139          
    140          extern unsigned long int cnt_no_link, vol_cnt_no_link;//dobavka
    141          
    142          void delay(unsigned int period);
    143          extern unsigned long int burst_ds_r(void);
    144          unsigned int proc_config(unsigned char *buf_rx_ppp,unsigned char offset,unsigned int count_rx_ppp);
    145          unsigned char check_ln_conf(unsigned char *buf_rx_ppp,unsigned char offset,unsigned int count_rx_ppp);
    146          unsigned char check_cont_485_1 (unsigned char *pointer);
    147          unsigned char check_cont_485_2 (unsigned char *pointer);
    148          
    149          extern unsigned char Regim;
    150          unsigned char proc_udp_data(unsigned char *buf_rx_ppp,unsigned int count_rx_ppp);
    151          unsigned int crc_m1(unsigned char *ka,unsigned int num,unsigned int crc);
    152          unsigned int crc_ozu(void);
    153          extern unsigned int prov_ozu;
    154          
    155          unsigned int proc_modbus(unsigned char *pnt_buf,unsigned char length);
    156          unsigned char proc_kamintel(unsigned char *pnt_buf,unsigned char length);
    157          
    158          
    159          void clr_cntr_nat(void);
    160          void form_buf_tx_ppp(void);
    161          
    162          unsigned char check_cts(void);
    163          void clr_cntr_link(void);
    164          
    165          void RdFromFleshToArr(unsigned int adres_flesh, unsigned char *adres_ozu,unsigned int num);
    166          void WrArrayToFlesh(unsigned int adres_flesh,  unsigned char *adres_ozu, unsigned int num,unsigned char flag,unsigned char znach);
    167          
    168          void send_err485(unsigned char port,unsigned char err,unsigned char id,unsigned int dst);
    169          
    170          

   \                                 In segment NEAR_Z, align 1, keep-with-next
   \   00000000                      REQUIRE `?<Segment init: NEAR_Z>`
    171          unsigned char compress_off;
    172          
    173          extern unsigned long int cnt_outcom,cnt_incom;
    174          
    175          extern unsigned char point_log_buf;
    176          
    177            struct
    178            {
    179            unsigned char  ip         :1;
    180            unsigned char  udp        :1;
    181            unsigned char  num_self   :1;
    182            unsigned char cnt_reset;
    183            }fl_rewrite;
    184          
    185          ///!!!!!!!!!!!!!!!!!!!!!!!!!!!!!!!!!!!äë˙ ĐĐĐ
    186          extern  struct
    187           {
    188            unsigned char data[VOL_RX_PPP];//ńŕě áóôĺđ
    189            unsigned int ln_data;  // äëčíŕ äŕííűő
    190            enum bool rec; // ďŕęĺň ďđčí˙ň
    191            enum bool busy;// áóôĺđ çŕí˙ň
    192            enum bool check_busy;// ďđîâĺđęŕ çŕí˙ň ëč áóôĺđ
    193           }Buf1_rx_ppp,Buf2_rx_ppp; // 
    194          
    195          
    196          extern struct
    197          {
    198           
    199            unsigned char tek_pin :1;
    200            unsigned char old_pin :1;
    201            unsigned char fl_ch_tc :1;
    202            unsigned char real_tc;
    203            unsigned int count_tc; 
    204            unsigned char type;
    205            unsigned char cnt_block_tc;
    206          }struct_tcc1,struct_tcc2;
    207          
    208          extern struct
    209          {
    210            unsigned char tc:1;
    211            unsigned char tc_old :1;
    212          }sv1,sv2;
    213          
    214          
    215          
    216          
    217          extern enum t_event_modem event_modem;
    218          
    219          extern unsigned char buf_tx_232[VOL_TX_PPP];
    220          extern unsigned int count_tx_ppp,vol_tx_ppp;
    221          extern unsigned char layer_PPP;
    222          
    223          struct
    224           {
    225            unsigned char act_lcp_end :1;  
    226            unsigned char lcp_tm_out_en :1;
    227            unsigned char t0_pl:1;
    228            unsigned char t0_mi:1;
    229           }fl_lcp; 
    230           
    231          
    232          struct
    233           {
    234            unsigned char act_ipcp_end :1;  
    235            unsigned char ipcp_tm_out_en :1;
    236            unsigned char t0_pl:1;
    237            unsigned char t0_mi:1;
    238           }fl_ipcp; 
    239          
    240          struct
    241           {
    242            unsigned char act_ip_end :1; 
    243            unsigned char ip_tm_cntr_en :1; 
    244            unsigned char ip_tm_nat_en :1;
    245           }fl_ip;
    246          
    247          
    248          
    249            
    250          struct
    251           {
    252            unsigned char act_pap_end :1;  
    253            unsigned char pap_tm_out_en:1;
    254            unsigned char t0_pl:1;
    255            unsigned char t0_mi:1;  
    256            unsigned char up: 1; 
    257           }fl_pap; 
    258          
    259          
    260           struct
    261           {
    262            unsigned char up :1;  
    263            unsigned char down :1;
    264           }fl_lcp1; 
    265          
    266          
    267          struct
    268           {
    269            unsigned char up :1;  
    270            unsigned char down :1;
    271           }fl_ipcp1;
    272           
    273           struct
    274           {
    275            unsigned char nac_rej :1; // reject - 1 
    276           }fl_lcp2;
    277             
    278           struct
    279           {
    280            unsigned char nac_rej :1; // reject - 1 
    281           }fl_ipcp2;
    282           
    283           
    284          struct
    285           {
    286            unsigned char time_485_1;
    287            unsigned int client_485_1;
    288            unsigned char start_485_1;
    289            unsigned char time_485_2;
    290            unsigned int client_485_2;
    291            unsigned char start_485_2;
    292            unsigned char time_232_2;
    293            unsigned int client_232_2;
    294            unsigned char start_232_2;
    295           }Life; 
    296           
    297          
    298          unsigned char pap_act_buf,PAP_state,PAP_event;
    299          unsigned char LCP_state, LCP_event,LCP_act_buf[LCP_ACT_VOL];
    300          unsigned char IPCP_state, IPCP_event,IPCP_act_buf[IPCP_ACT_VOL];
    301          unsigned char uk_in_act_LCP,uk_out_act_LCP,uk_in_act_IPCP,uk_out_act_IPCP;
    302          
    303          unsigned char cnt_rst_lcp,vol_cnt_rst_lcp;
    304          unsigned char cnt_rst_ipcp,vol_cnt_rst_ipcp;                       
    305          unsigned char cnt_rst_pap,vol_cnt_rst_pap;       
    306                                
    307                                  
    308          unsigned int cnt_lcp_tm_out,cnt_ipcp_tm_out;
   \                     cnt_lcp_tm_out:
   \   00000000                      DS 2
   \                     compress_off:
   \   00000002                      DS 1
   \                     fl_lcp:
   \   00000003                      DS 1
   \                     fl_ipcp:
   \   00000004                      DS 1
   \                     fl_ip:
   \   00000005                      DS 1
   \                     fl_pap:
   \   00000006                      DS 1
   \                     fl_lcp2:
   \   00000007                      DS 1
   \                     pap_act_buf:
   \   00000008                      DS 1
   \                     PAP_state:
   \   00000009                      DS 1
   \                     LCP_act_buf:
   \   0000000A                      DS 15
   \                     uk_in_act_LCP:
   \   00000019                      DS 1
   \                     uk_out_act_LCP:
   \   0000001A                      DS 1
   \                     uk_in_act_IPCP:
   \   0000001B                      DS 1
   \                     uk_out_act_IPCP:
   \   0000001C                      DS 1
    309          unsigned int cnt_pap_tm_out;
    310          unsigned long int cnt_ip_tm_cntr;
    311          unsigned char rcvd_protokol;
    312          
    313          unsigned char  i_scr_lcp,i_scan_lcp;
   \                     i_scr_lcp:
   \   0000001D                      DS 1
   \                     i_scan_lcp:
   \   0000001E                      DS 1
    314          unsigned char  i_scj_lcp;//čäĺíňčôčęŕňîđű lcp
    315          unsigned char  i_str_lcp,i_sta_lcp;
    316           
    317          unsigned char  i_scr_ipcp,i_scan_ipcp;
    318          unsigned char  i_scj_ipcp;//čäĺíňčôčęŕňîđű ipcp
    319          unsigned char  i_str_ipcp,i_sta_ipcp; 
    320           
    321            
    322          unsigned char  i_scr_pap;
   \                     i_scr_pap:
   \   0000001F                      DS 1
    323          
    324          
    325          unsigned char buf_rejc_opt_lcp[MAX_DL_LCP-6];
    326          unsigned char buf_ack_opt_lcp[MAX_DL_LCP-12];
   \                     buf_ack_opt_lcp:
   \   00000020                      DS 28
    327          unsigned char buf_nak_opt_lcp[MAX_DL_LCP-12];
    328          unsigned char buf_rej_opt_lcp[MAX_DL_LCP-12];
    329          
    330          unsigned char buf_rejc_opt_ipcp[MAX_DL_IPCP-4];
    331          unsigned char buf_ack_opt_ipcp[MAX_DL_IPCP-10];
    332          unsigned char buf_nak_opt_ipcp[MAX_DL_IPCP-10];
    333          unsigned char buf_rej_opt_ipcp[MAX_DL_IPCP-10];
    334           
    335          
    336          unsigned char ln_rejc_lcp,ln_rej_lcp,ln_ack_lcp,ln_nak_lcp;
   \                     ln_rej_lcp:
   \   0000003C                      DS 1
   \                     ln_ack_lcp:
   \   0000003D                      DS 1
   \                     ln_nak_lcp:
   \   0000003E                      DS 1
    337          
    338          unsigned char ln_rejc_ipcp,ln_rej_ipcp,ln_ack_ipcp,ln_nak_ipcp;
    339          
    340          
    341          
    342          
    343          extern struct                   //ńňđóęňóđŕ, îďčńűâŕţůŕ˙ îáúĺęň ďĺđĺäŕ÷č ďî PPP 
    344            {  
    345            enum bool link_no ; //ńâ˙çč íĺň
    346            enum bool link_waits; //îćčäŕíčĺ ęâčňęŕ íŕ ęîíňđîëü ńâ˙çč
    347            enum bool link;      //ęîíňđîëü ńâ˙çč    
    348            enum bool nat;      //ęîíňđîëü nat 
    349            unsigned int cnt_link; // ń÷ĺň÷čę
    350            unsigned int cnt_nat; // ń÷ĺň÷čę
    351            unsigned int vol_link; // çíŕ÷ĺíčĺ  
    352            unsigned int vol_nat; // //çíŕ÷ĺíčĺ 
    353            unsigned int vol_waits; // çíŕ÷ĺíčĺ âđĺěĺíč ęâčňęŕ îćčäŕíč˙ ęîíňđîë˙ ńâ˙çč
    354            unsigned char cnt_try; // ń÷ĺň÷čę ďîďűňîę ďîëó÷čňü ęâčňîę
    355            unsigned char vol_try; // rjkbxtcndj ďîďűňîę ďîëó÷čňü ęâčňîę
    356            unsigned int vol_nat_r; // ń÷ĺň÷čę
    357            }Control;
    358           char ip_change;
    359           extern unsigned char ip_self[4];
    360           unsigned char ip_pri_dns[4],ip_sec_dns[4]; 
    361            //EEEEEEEEEEEEEEEEEEEEEEEEEEEEEEEEEEEEEEEEE 
    362          
    363           
    364           
    365           
    366             //!!!!!!!!!!!!!!!!!!!!!!!!!!!!!ńňđóęňóđű ďđčëîćĺíč˙
    367          extern struct
    368          {
    369          unsigned char id;
    370          unsigned int p_in;// óęŕçŕňĺëü ńâîáîäíîé ˙÷ĺéęč
    371          unsigned int p_out;
    372          unsigned int p_out_kv;
    373          unsigned int crc;
    374          unsigned int cnt_waits; // ń÷ĺň÷čę îćčäŕíč˙ ęâčňęŕ
    375          unsigned char cnt_try; // ń÷ĺň÷čę ďîďűňîę ďîëó÷čňü ęâčňîę 
    376          unsigned int l_data; // äëčíŕ ďîńűëŕĺěűő äŕííűő
    377          unsigned char state;
    378          unsigned char event;
    379          unsigned int tm_vzat;
    380          unsigned int vol_tm_vzat;
    381          enum bool cntr_cl;
    382          enum bool en_cntr_cl;
    383          unsigned int cnt_cntr_cl;
    384          unsigned int vol_cntr_cl;
    385          }Appl_seq;
    386          
    387          extern unsigned char Appl_seq_des;
    388          extern unsigned char state_seq;
    389          
    390          
    391          
    392          extern struct
    393          {
    394          unsigned char en_tx :1;
    395          unsigned char kv_waits :1;
    396          unsigned char en_povtor:1;
    397          }fl_appl_seq;
    398          
    399          extern struct
    400          {
    401          unsigned char over_buf :1;
    402          unsigned char send_state :1;
    403          unsigned char enable:1; 
    404          }fl_appl_seq1; 
    405          
    406          
    407          
    408          
    409          extern unsigned int func_crc_tii(void);
    410          extern __no_init unsigned int crc_tii;
    411          extern __no_init unsigned int cnt_tii[8];
    412          
    413          extern unsigned char cnt_tu1, cnt_tu2;
    414          
    415          extern unsigned int modbus_mem1[SEG1];
    416          
    417          
    418          extern struct
    419                  { // â äâîč÷íîě ęîäĺ
    420                    char r_sec;
    421                    char r_min;
    422                    char r_hor;
    423                    char r_day;
    424                    char r_date;
    425                    char r_month;
    426                    char r_year;
    427                    char r_control;
    428                  }  real_time; 
    429          
    430          
    431          //extern unsigned char byte_state_net;
    432          
    433            //EEEEEEEEEEEEEEEEEEEEEEEEEEEEEEEEEEEEEEEEE
    434           
    435           unsigned int  delay_pre_tx;
    436           
    437           
    438          //!!!!!!!!!!!!!!!11óäŕëĺííŕ˙ çŕăđóçęŕ 

   \                                 In segment ABSOLUTE, at 0xe60
    439          __no_init unsigned int pagee @ 0xe60;
   \                     pagee:
   \   00000000                      DS 2

   \                                 In segment ABSOLUTE, at 0xe62
    440          __no_init unsigned char *array_in_232 @ 0xe62; 
   \                     array_in_232:
   \   00000000                      DS 2

   \                                 In segment ABSOLUTE, at 0xe6a
    441          __no_init unsigned char off_buf @ 0xe6a;
   \                     off_buf:
   \   00000000                      DS 1

   \                                 In segment ABSOLUTE, at 0xe6b
    442          __no_init unsigned int total_kol_page @ 0xe6b;   // ń÷ĺň÷čę ńňđŕíčö ńëîâíűé
   \                     total_kol_page:
   \   00000000                      DS 2

   \                                 In segment ABSOLUTE, at 0xe6d
    443          __no_init unsigned char contr_gluk1 @ 0xe6d; 
   \                     contr_gluk1:
   \   00000000                      DS 1

   \                                 In segment ABSOLUTE, at 0xe6e
    444          __no_init unsigned char contr_gluk2 @ 0xe6e;
   \                     contr_gluk2:
   \   00000000                      DS 1
    445          
    446          #pragma dataseg=MY_STACK1

   \                                 In segment MY_STACK1, align 1, keep-with-next
    447          __no_init unsigned char saver_global_var[2];
   \                     saver_global_var:
   \   00000000                      DS 2

   \                                 In segment NEAR_Z, align 1, keep-with-next
   \   00000000                      REQUIRE `?<Segment init: NEAR_Z>`
    448          #pragma dataseg=default
    449          
    450          /*
    451          // ęîěďčë˙ňîđ íĺ ďîääĺđćčâŕĺň ICALL âűçîâű
    452          // ďđčäĺňń˙ ďčńŕňü ďđîăđŕěěó íŕ ŕńńěáëĺđĺ
    453          // íŕäî âűöŕđŕďŕňü äŕííűĺ ń äŕëüíĺé îáëŕńňč
    454            __farfunc char proba_1(char a, char b) @ "BOOTLOADER"
    455          {
    456            return(a+b);
    457          }
    458          */
    459          
    460          
    461          
    462          
    463          void move_to_saver(void);
    464          void pop_from_saver(void);
    465          
    466          unsigned char reboot_byte;
    467           
    468           struct
    469           {
    470           unsigned char  end_pg      :1;// ôëŕă ďîńëĺäíĺé ńňđŕíčöű
    471           unsigned char  ch_crc      :1;// ôëŕă ďđîâĺđęč crc
    472           unsigned char  send_kv     :1;//ôëŕă îňńűëęč ęâčňęŕ
    473           unsigned char  cor_pg      :1;// ôëŕă ęîđđĺęňíîé ńňđŕíčöű äŕëüřĺ
    474           unsigned char  first_pg    :1;//ôëŕă ďĺđâîé ńňđŕíčöű
    475           unsigned char  hold_pg     :1;// ôëŕă çŕőâŕňŕ äŕííűő
    476           unsigned char  send_crc     :1;// ôëŕă ďîńűëęč îďöčč ŃĐŃ
    477           //unsigned char  yes_crc     :1;// âĺđíűé crc
    478           }fl_pg_out;
    479           
    480           unsigned int pg_crc; //çíŕ÷ĺíčĺ crc ęóńęŕ äŕííűő
    481           unsigned int cnt_pg;// đĺŕëüíűé ń÷ĺň÷čę ńňđŕíčö
    482           unsigned int cnt_pg_i;//  ń÷ĺň÷čę ńňđŕíčö
    483           unsigned char id_pg_kp;//öčęëč÷ĺńęčé čäĺíňčôčęŕňîđ ńňđŕíčö ęîíňđîëëĺđŕ
    484           unsigned char id_pg_appl;//öčęëč÷ĺńęčé čäĺíňčôčęŕňîđ ńňđŕíčö âĺđőíĺăî ďđčëîćĺíč˙
    485           
    486           //EEEEEEEEEEEEEEEEEEEEEEEEEEEEEEEEEEE
    487           
    488           
    489          extern unsigned char Appl_RS485_1_data_buf[LN_BUF_485_1];// ńŕě áóôĺđ
    490          extern unsigned char Appl_RS485_2_data_buf[LN_BUF_485_2];// ńŕě áóôĺđ
    491          extern unsigned char Appl_RS232_2_data_buf[LN_BUF_232_2];// ńŕě áóôĺđ
    492           
    493          extern struct                   //ńňđóęňóđŕ îďčńűâŕţůŕ˙ đŕáîňó ďđčëîćĺíč˙ "RS485_1" 
    494            {  
    495            enum bool fl_data_buf; //čěĺĺňń˙ ëč çŕáóôĺđčçčđîâŕííűé ďŕęĺň äë˙ ďĺđĺäŕ÷č â ďîđň RS485_1
    496            unsigned int ln_data_buf; // çŕáóôĺđčçčđîâŕííŕ˙ äëčíŕ áóôĺđŕ
    497            unsigned int dst_buf; // çŕáóôĺđčçčđîâŕííűé ďîëó÷ŕňĺëü
    498            unsigned char cont_buf[8];// çŕáóôĺđčçčđîâŕííűé ęîíňĺęńň
    499            unsigned char id_buf; // çŕáóôĺđčçčđîâŕííűé id
    500            unsigned int dst_tek;// ňĺęóůčé ďîëó÷ŕňĺëü
    501            unsigned char id_tek; // ňĺęóůčé id
    502            unsigned int pre_tx;//çŕäĺđćęŕ ďĺđĺä ďĺđĺäŕ÷ĺé
    503            }Appl_RS485_1,Appl_RS485_2,Appl_RS232_2;
    504          
    505          /*  
    506          extern struct
    507           {
    508           unsigned char mon1 : 1;
    509           unsigned char mon2 : 1;
    510           } fl_tx485;
    511          */ 
    512          
    513          extern struct
    514           {
    515           unsigned char busy : 1;
    516           unsigned char rec : 1;
    517           unsigned char tm_out : 1;
    518           unsigned char tx : 1;
    519           unsigned char over : 1;
    520           unsigned char buffed : 1;
    521           }fl_485_1,fl_485_2,fl_232_2;
    522          
    523           
    524           
    525          
    526          
    527          
    528           struct                   //ńňđóęňóđŕ, îďčńűâŕţůŕ˙ îáúĺęň ďĺđĺäŕ÷č ďî PPP 
    529            {  
    530            enum bool prozr;      //âĺđńč˙       
    531            enum t_version version;      //âĺđńč˙ 
    532            enum t_type   type_pac;     //ňčď ďŕęĺňŕ
    533            unsigned int num_src; // íîěĺđ îňďđŕâčňĺë˙
    534            unsigned int num_dst; // íîěĺđ ďîëó÷ŕňĺë˙
    535            unsigned char id_pac; // čäĺíňčôčęŕňîđ ďŕęĺňŕ  
    536            unsigned char * p_opt; // //óęŕçŕňĺëü áóôĺđŕ îďöčé  
    537            unsigned char l_opt;// äëčíŕ áóôĺđŕ îďöčé   
    538            unsigned char kol_opt;// ęîëč÷ĺńňâî îďöčé   
    539            unsigned char * p_data;  //óęŕçŕňĺëü áóôĺđŕ äŕííűő
    540            unsigned int l_data;   // äëčíŕ äŕííűő
    541            }Obj_ppp_tx;
   \                     Obj_ppp_tx:
   \   00000000                      DS 16
   \                     Life:
   \   00000010                      DS 12
   \                     delay_pre_tx:
   \   0000001C                      DS 2
   \                     pg_crc:
   \   0000001E                      DS 2
   \                     cnt_pg:
   \   00000020                      DS 2
   \                     cnt_pg_i:
   \   00000022                      DS 2
   \                     fl_rewrite:
   \   00000024                      DS 2
   \                     reboot_byte:
   \   00000026                      DS 1
   \                     fl_pg_out:
   \   00000027                      DS 1
   \                     id_pg_kp:
   \   00000028                      DS 1
   \                     id_pg_appl:
   \   00000029                      DS 1

   \                                 In segment NEAR_Z, align 1, keep-with-next
   \   00000000                      REQUIRE `?<Segment init: NEAR_Z>`
   \                     fl_lcp1:
   \   00000000                      DS 1
   \                     LCP_state:
   \   00000001                      DS 1

   \                                 In segment NEAR_Z, align 1, keep-with-next
   \   00000000                      REQUIRE `?<Segment init: NEAR_Z>`
   \                     ip_pri_dns:
   \   00000000                      DS 4
   \                     ip_sec_dns:
   \   00000004                      DS 4
   \                     cnt_ipcp_tm_out:
   \   00000008                      DS 2
   \                     fl_ipcp1:
   \   0000000A                      DS 1
   \                     fl_ipcp2:
   \   0000000B                      DS 1
   \                     PAP_event:
   \   0000000C                      DS 1
   \                     LCP_event:
   \   0000000D                      DS 1
   \                     IPCP_state:
   \   0000000E                      DS 1
   \                     IPCP_event:
   \   0000000F                      DS 1
   \                     IPCP_act_buf:
   \   00000010                      DS 10
   \                     cnt_rst_ipcp:
   \   0000001A                      DS 1
   \                     vol_cnt_rst_ipcp:
   \   0000001B                      DS 1
   \                     vol_cnt_rst_pap:
   \   0000001C                      DS 1
   \                     rcvd_protokol:
   \   0000001D                      DS 1
   \                     i_scr_ipcp:
   \   0000001E                      DS 1
   \                     i_scan_ipcp:
   \   0000001F                      DS 1
   \                     buf_ack_opt_ipcp:
   \   00000020                      DS 25
   \                     ln_rejc_lcp:
   \   00000039                      DS 1
   \                     ln_rejc_ipcp:
   \   0000003A                      DS 1
   \                     ln_rej_ipcp:
   \   0000003B                      DS 1
   \                     ln_ack_ipcp:
   \   0000003C                      DS 1
   \                     ln_nak_ipcp:
   \   0000003D                      DS 1
   \                     ip_change:
   \   0000003E                      DS 1

   \                                 In segment NEAR_Z, align 1, keep-with-next
   \   00000000                      REQUIRE `?<Segment init: NEAR_Z>`
   \                     cnt_rst_lcp:
   \   00000000                      DS 1

   \                                 In segment NEAR_Z, align 1, keep-with-next
   \   00000000                      REQUIRE `?<Segment init: NEAR_Z>`
   \                     vol_cnt_rst_lcp:
   \   00000000                      DS 1

   \                                 In segment NEAR_Z, align 1, keep-with-next
   \   00000000                      REQUIRE `?<Segment init: NEAR_Z>`
   \                     cnt_rst_pap:
   \   00000000                      DS 1

   \                                 In segment NEAR_Z, align 1, keep-with-next
   \   00000000                      REQUIRE `?<Segment init: NEAR_Z>`
   \                     cnt_pap_tm_out:
   \   00000000                      DS 2

   \                                 In segment NEAR_Z, align 1, keep-with-next
   \   00000000                      REQUIRE `?<Segment init: NEAR_Z>`
   \                     cnt_ip_tm_cntr:
   \   00000000                      DS 4

   \                                 In segment NEAR_Z, align 1, keep-with-next
   \   00000000                      REQUIRE `?<Segment init: NEAR_Z>`
   \                     i_scj_lcp:
   \   00000000                      DS 1

   \                                 In segment NEAR_Z, align 1, keep-with-next
   \   00000000                      REQUIRE `?<Segment init: NEAR_Z>`
   \                     i_str_lcp:
   \   00000000                      DS 1

   \                                 In segment NEAR_Z, align 1, keep-with-next
   \   00000000                      REQUIRE `?<Segment init: NEAR_Z>`
   \                     i_sta_lcp:
   \   00000000                      DS 1

   \                                 In segment NEAR_Z, align 1, keep-with-next
   \   00000000                      REQUIRE `?<Segment init: NEAR_Z>`
   \                     i_scj_ipcp:
   \   00000000                      DS 1

   \                                 In segment NEAR_Z, align 1, keep-with-next
   \   00000000                      REQUIRE `?<Segment init: NEAR_Z>`
   \                     i_str_ipcp:
   \   00000000                      DS 1

   \                                 In segment NEAR_Z, align 1, keep-with-next
   \   00000000                      REQUIRE `?<Segment init: NEAR_Z>`
   \                     i_sta_ipcp:
   \   00000000                      DS 1

   \                                 In segment NEAR_Z, align 1, keep-with-next
   \   00000000                      REQUIRE `?<Segment init: NEAR_Z>`
   \                     buf_rejc_opt_lcp:
   \   00000000                      DS 34

   \                                 In segment NEAR_Z, align 1, keep-with-next
   \   00000000                      REQUIRE `?<Segment init: NEAR_Z>`
   \                     buf_nak_opt_lcp:
   \   00000000                      DS 28
   \                     buf_rej_opt_lcp:
   \   0000001C                      DS 28

   \                                 In segment NEAR_Z, align 1, keep-with-next
   \   00000000                      REQUIRE `?<Segment init: NEAR_Z>`
   \                     buf_rejc_opt_ipcp:
   \   00000000                      DS 31

   \                                 In segment NEAR_Z, align 1, keep-with-next
   \   00000000                      REQUIRE `?<Segment init: NEAR_Z>`
   \                     buf_nak_opt_ipcp:
   \   00000000                      DS 25
   \                     buf_rej_opt_ipcp:
   \   00000019                      DS 25
    542          
    543           extern unsigned char buf_opt_tr[20]; 
    544           
    545           

   \                                 In segment NEAR_F, align 1, keep-with-next
    546           __flash unsigned int fcstab[256] = {
   \                     fcstab:
   \   00000000   000011892312       DW 0, 4489, 8978, 12955, 17956, 22445, 25910, 29887, 35912, 40385
   \              329B462457AD
   \              653674BF8C48
   \              9DC1        
   \   00000014   AF5ABED3CA6C       DW 44890, 48851, 51820, 56293, 59774, 63735, 4225, 264, 13203, 8730
   \              DBE5E97EF8F7
   \              108101083393
   \              221A        
   \   00000028   56A5472C75B7       DW 22181, 18220, 30135, 25662, 40137, 36160, 49115, 44626, 56045, 52068
   \              643E9CC98D40
   \              BFDBAE52DAED
   \              CB64        
   \   0000003C   F9FFE8762102       DW 63999, 59510, 8450, 12427, 528, 5017, 26406, 30383, 17460, 21949
   \              308B02101399
   \              672676AF4434
   \              55BD        
   \   00000050   AD4ABCC38E58       DW 44362, 48323, 36440, 40913, 60270, 64231, 51324, 55797, 12675, 8202
   \              9FD1EB6EFAE7
   \              C87CD9F53183
   \              200A        
   \   00000064   1291031877A7       DW 4753, 792, 30631, 26158, 21685, 17724, 48587, 44098, 40665, 36688
   \              662E54B5453C
   \              BDCBAC429ED9
   \              8F50        
   \   00000078   FBEFEA66D8FD       DW 64495, 60006, 55549, 51572, 16900, 21389, 24854, 28831, 1056, 5545
   \              C9744204538D
   \              6116709F0420
   \              15A9        
   \   0000008C   273236BBCE4C       DW 10034, 14011, 52812, 57285, 60766, 64727, 34920, 39393, 43898, 47859
   \              DFC5ED5EFCD7
   \              886899E1AB7A
   \              BAF3        
   \   000000A0   5285430C7197       DW 21125, 17164, 29079, 24606, 5281, 1320, 14259, 9786, 57037, 53060
   \              601E14A10528
   \              37B3263ADECD
   \              CF44        
   \   000000B4   FDDFEC5698E9       DW 64991, 60502, 39145, 35168, 48123, 43634, 25350, 29327, 16404, 20893
   \              8960BBFBAA72
   \              6306728F4014
   \              519D        
   \   000000C8   252234AB0630       DW 9506, 13483, 1584, 6073, 61262, 65223, 52316, 56789, 43370, 47331
   \              17B9EF4EFEC7
   \              CC5CDDD5A96A
   \              B8E3        
   \   000000DC   8A789BF17387       DW 35448, 39921, 29575, 25102, 20629, 16668, 13731, 9258, 5809, 1848
   \              620E5095411C
   \              35A3242A16B1
   \              0738        
   \   000000F0   FFCFEE46DCDD       DW 65487, 60998, 56541, 52564, 47595, 43106, 39673, 35696, 33800, 38273
   \              CD54B9EBA862
   \              9AF98B708408
   \              9581        
   \   00000104   A71AB693C22C       DW 42778, 46739, 49708, 54181, 57662, 61623, 2112, 6601, 11090, 15067
   \              D3A5E13EF0B7
   \              084019C92B52
   \              3ADB        
   \   00000118   4E645FED6D76       DW 20068, 24557, 28022, 31999, 38025, 34048, 47003, 42514, 53933, 49956
   \              7CFF94898500
   \              B79BA612D2AD
   \              C324        
   \   0000012C   F1BFE03618C1       DW 61887, 57398, 6337, 2376, 15315, 10842, 24293, 20332, 32247, 27774
   \              09483BD32A5A
   \              5EE54F6C7DF7
   \              6C7E        
   \   00000140   A50AB4838618       DW 42250, 46211, 34328, 38801, 58158, 62119, 49212, 53685, 10562, 14539
   \              9791E32EF2A7
   \              C03CD1B52942
   \              38CB        
   \   00000154   0A501BD96F66       DW 2640, 7129, 28518, 32495, 19572, 24061, 46475, 41986, 38553, 34576
   \              7EEF4C745DFD
   \              B58BA4029699
   \              8710        
   \   00000168   F3AFE226D0BD       DW 62383, 57894, 53437, 49460, 14787, 10314, 6865, 2904, 32743, 28270
   \              C13439C3284A
   \              1AD10B587FE7
   \              6E6E        
   \   0000017C   5CF54D7CC60C       DW 23797, 19836, 50700, 55173, 58654, 62615, 32808, 37281, 41786, 45747
   \              D785E51EF497
   \              802891A1A33A
   \              B2B3        
   \   00000190   4A445BCD6956       DW 19012, 23501, 26966, 30943, 3168, 7657, 12146, 16123, 54925, 50948
   \              78DF0C601DE9
   \              2F723EFBD68D
   \              C704        
   \   000001A4   F59FE41690A9       DW 62879, 58390, 37033, 33056, 46011, 41522, 23237, 19276, 31191, 26718
   \              8120B3BBA232
   \              5AC54B4C79D7
   \              685E        
   \   000001B8   1CE10D683FF3       DW 7393, 3432, 16371, 11898, 59150, 63111, 50204, 54677, 41258, 45219
   \              2E7AE70EF687
   \              C41CD595A12A
   \              B0A3        
   \   000001CC   823893B16B46       DW 33336, 37809, 27462, 31439, 18516, 23005, 11618, 15595, 3696, 8185
   \              7ACF485459DD
   \              2D623CEB0E70
   \              1FF9        
   \   000001E0   F78FE606D49D       DW 63375, 58886, 54429, 50452, 45483, 40994, 37561, 33584, 31687, 27214
   \              C514B1ABA022
   \              92B983307BC7
   \              6A4E        
   \   000001F4   58D5495C3DE3       DW 22741, 18780, 15843, 11370, 7921, 3960
   \              2C6A1EF10F78
    547                0x0000, 0x1189, 0x2312, 0x329b, 0x4624, 0x57ad, 0x6536, 0x74bf,
    548                0x8c48, 0x9dc1, 0xaf5a, 0xbed3, 0xca6c, 0xdbe5, 0xe97e, 0xf8f7,
    549                0x1081, 0x0108, 0x3393, 0x221a, 0x56a5, 0x472c, 0x75b7, 0x643e,
    550                0x9cc9, 0x8d40, 0xbfdb, 0xae52, 0xdaed, 0xcb64, 0xf9ff, 0xe876,
    551                0x2102, 0x308b, 0x0210, 0x1399, 0x6726, 0x76af, 0x4434, 0x55bd,
    552                0xad4a, 0xbcc3, 0x8e58, 0x9fd1, 0xeb6e, 0xfae7, 0xc87c, 0xd9f5,
    553                0x3183, 0x200a, 0x1291, 0x0318, 0x77a7, 0x662e, 0x54b5, 0x453c,
    554                0xbdcb, 0xac42, 0x9ed9, 0x8f50, 0xfbef, 0xea66, 0xd8fd, 0xc974,
    555                0x4204, 0x538d, 0x6116, 0x709f, 0x0420, 0x15a9, 0x2732, 0x36bb,
    556                0xce4c, 0xdfc5, 0xed5e, 0xfcd7, 0x8868, 0x99e1, 0xab7a, 0xbaf3,
    557                0x5285, 0x430c, 0x7197, 0x601e, 0x14a1, 0x0528, 0x37b3, 0x263a,
    558                0xdecd, 0xcf44, 0xfddf, 0xec56, 0x98e9, 0x8960, 0xbbfb, 0xaa72,
    559                0x6306, 0x728f, 0x4014, 0x519d, 0x2522, 0x34ab, 0x0630, 0x17b9,
    560                0xef4e, 0xfec7, 0xcc5c, 0xddd5, 0xa96a, 0xb8e3, 0x8a78, 0x9bf1,
    561                0x7387, 0x620e, 0x5095, 0x411c, 0x35a3, 0x242a, 0x16b1, 0x0738,
    562                0xffcf, 0xee46, 0xdcdd, 0xcd54, 0xb9eb, 0xa862, 0x9af9, 0x8b70,
    563                0x8408, 0x9581, 0xa71a, 0xb693, 0xc22c, 0xd3a5, 0xe13e, 0xf0b7,
    564                0x0840, 0x19c9, 0x2b52, 0x3adb, 0x4e64, 0x5fed, 0x6d76, 0x7cff,
    565                0x9489, 0x8500, 0xb79b, 0xa612, 0xd2ad, 0xc324, 0xf1bf, 0xe036,
    566                0x18c1, 0x0948, 0x3bd3, 0x2a5a, 0x5ee5, 0x4f6c, 0x7df7, 0x6c7e,
    567                0xa50a, 0xb483, 0x8618, 0x9791, 0xe32e, 0xf2a7, 0xc03c, 0xd1b5,
    568                0x2942, 0x38cb, 0x0a50, 0x1bd9, 0x6f66, 0x7eef, 0x4c74, 0x5dfd,
    569                0xb58b, 0xa402, 0x9699, 0x8710, 0xf3af, 0xe226, 0xd0bd, 0xc134,
    570                0x39c3, 0x284a, 0x1ad1, 0x0b58, 0x7fe7, 0x6e6e, 0x5cf5, 0x4d7c,
    571                0xc60c, 0xd785, 0xe51e, 0xf497, 0x8028, 0x91a1, 0xa33a, 0xb2b3,
    572                0x4a44, 0x5bcd, 0x6956, 0x78df, 0x0c60, 0x1de9, 0x2f72, 0x3efb,
    573                0xd68d, 0xc704, 0xf59f, 0xe416, 0x90a9, 0x8120, 0xb3bb, 0xa232,
    574                0x5ac5, 0x4b4c, 0x79d7, 0x685e, 0x1ce1, 0x0d68, 0x3ff3, 0x2e7a,
    575                0xe70e, 0xf687, 0xc41c, 0xd595, 0xa12a, 0xb0a3, 0x8238, 0x93b1,
    576                0x6b46, 0x7acf, 0x4854, 0x59dd, 0x2d62, 0x3ceb, 0x0e70, 0x1ff9,
    577                0xf78f, 0xe606, 0xd49d, 0xc514, 0xb1ab, 0xa022, 0x92b9, 0x8330,
    578                0x7bc7, 0x6a4e, 0x58d5, 0x495c, 0x3de3, 0x2c6a, 0x1ef1, 0x0f78
    579             };
    580          
    581           
    582           
    583           
    584           void com_disp_mbus (void);
    585          
    586           

   \                                 In segment FARCODE, align 2, keep-with-next
    587          unsigned long int hash_tabletka2(void )
   \                     hash_tabletka2:
    588                         {
   \   00000000   ........           CALL    ?Subroutine9
   \                     ??CrossCallReturnLabel_26:
   \   00000004                      REQUIRE ?Register_R4_is_cg_reg
   \   00000004                      REQUIRE ?Register_R5_is_cg_reg
   \   00000004   9724               SBIW    R29:R28, 4
    589                         int point_pos;
    590                         
    591                         unsigned long int hash_kod;
    592                         union {
    593                               unsigned long int kod;
    594                               unsigned char b_kod[4];
    595                                } hash; 
    596                         
    597                            
    598                          //  proba_1(0,0);
    599                            hash_kod=0;
   \   00000006   ........           CALL    ?Subroutine8
   \                     ??CrossCallReturnLabel_20:
   \   0000000A   E0A0               LDI     R26, 0
   \   0000000C   E0B0               LDI     R27, 0
    600                             
    601                            for(point_pos=0;point_pos<(4*253);point_pos=point_pos+4)
   \   0000000E   ........           CALL    ??Subroutine7_0
    602                                {
    603          
    604                                     RdFromFleshToArr(A_SEG6+point_pos,&hash.b_kod[0],4);  
   \                     ??CrossCallReturnLabel_8:
   \   00000012   E044               LDI     R20, 4
   \   00000014   E050               LDI     R21, 0
   \   00000016   019E               MOVW    R19:R18, R29:R28
   \   00000018   0182               MOVW    R17:R16, R5:R4
   \   0000001A   5D10               SUBI    R17, 208
   \   0000001C   ........           CALL    ??Subroutine287_0
    605                                     hash_kod= hash_kod ^ hash.kod;
   \                     ??CrossCallReturnLabel_841:
   \   00000020   ........           CALL    ??Subroutine38_1
   \                     ??CrossCallReturnLabel_64:
   \   00000024   812A               LDD     R18, Y+2
   \   00000026   813B               LDD     R19, Y+3
   \   00000028   2780               EOR     R24, R16
   \   0000002A   2791               EOR     R25, R17
   \   0000002C   27A2               EOR     R26, R18
   \   0000002E   27B3               EOR     R27, R19
    606          
    607                                }
   \   00000030   E004               LDI     R16, 4
   \   00000032   0E40               ADD     R4, R16
   \   00000034   E000               LDI     R16, 0
   \   00000036   1E50               ADC     R5, R16
   \   00000038   EF04               LDI     R16, 244
   \   0000003A   1640               CP      R4, R16
   \   0000003C   E003               LDI     R16, 3
   \   0000003E   0650               CPC     R5, R16
   \   00000040   F344               BRLT    ??CrossCallReturnLabel_8
    608                           return(hash_kod);
   \   00000042   018C               MOVW    R17:R16, R25:R24
   \   00000044   019D               MOVW    R19:R18, R27:R26
   \   00000046   9624               ADIW    R29:R28, 4
   \   00000048                      REQUIRE ?Subroutine277
   \   00000048                      ;               // Fall through to label ?Subroutine277
    609                           } 

   \                                 In segment FARCODE, align 2, keep-with-next
   \                     ?Subroutine277:
   \   00000000   E0E6               LDI     R30, 6
   \   00000002   ........           JMP     ?EPILOGUE_B6_L09

   \                                 In segment FARCODE, align 2, keep-with-next
   \                     ?Subroutine8:
   \   00000000   E080               LDI     R24, 0
   \   00000002   E090               LDI     R25, 0
   \   00000004   9508               RET

   \                                 In segment FARCODE, align 2, keep-with-next
   \                     ?Subroutine38:
   \   00000000   9500               COM     R16
   \   00000002   8308               ST      Y, R16
   \   00000004   810B               LDD     R16, Y+3
   \   00000006   9500               COM     R16
   \                     ??Subroutine38_0:
   \   00000008   8309               STD     Y+1, R16
   \                     ??Subroutine38_1:
   \   0000000A   8108               LD      R16, Y
   \   0000000C   8119               LDD     R17, Y+1
   \   0000000E   9508               RET

   \                                 In segment FARCODE, align 2, keep-with-next
   \                     ?Subroutine287:
   \   00000000   E014               LDI     R17, 4
   \                     ??Subroutine287_0:
   \   00000002   ........           JMP     RdFromFleshToArr

   \                                 In segment FARCODE, align 2, keep-with-next
   \                     ?Subroutine7:
   \   00000000   852B               LDD     R18, Y+11
   \   00000002   853C               LDD     R19, Y+12
   \   00000004   3F2E               CPI     R18, 254
   \   00000006   4038               SBCI    R19, 8
   \                     ??Subroutine7_0:
   \   00000008   2444               CLR     R4
   \   0000000A   2455               CLR     R5
   \   0000000C   9508               RET

   \                                 In segment FARCODE, align 2, keep-with-next
   \                     ?Subroutine9:
   \   00000000   ........           JMP     ?PROLOGUE6_L09
    610           
    611           
    612           
    613          
    614           

   \                                 In segment FARCODE, align 2, keep-with-next
    615           void prov_uk_in(void)
   \                     prov_uk_in:
    616             {        
    617                    unsigned char temp;
    618                    
    619                    uk_in_act_LCP++;
   \   00000000   ....               RCALL   ?Subroutine55
   \                     ??CrossCallReturnLabel_89:
   \   00000002   8D01               LDD     R16, Z+25
   \   00000004   9503               INC     R16
   \   00000006   8F01               STD     Z+25, R16
    620                    if(uk_in_act_LCP>=LCP_ACT_VOL)uk_in_act_LCP=0;         
   \   00000008   300F               CPI     R16, 15
   \   0000000A   F010               BRCS    ??prov_uk_in_0
   \   0000000C   E000               LDI     R16, 0
   \   0000000E   8F01               STD     Z+25, R16
    621                    if(uk_out_act_LCP==0)temp=LCP_ACT_VOL-1;else temp=uk_out_act_LCP-1;
   \                     ??prov_uk_in_0:
   \   00000010   8D02               LDD     R16, Z+26
   \   00000012   2300               TST     R16
   \   00000014   F411               BRNE    ??prov_uk_in_1
   \   00000016   E00E               LDI     R16, 14
   \   00000018   C001               RJMP    ??prov_uk_in_2
   \                     ??prov_uk_in_1:
   \   0000001A   950A               DEC     R16
    622                 //   if(uk_in_act_LCP==temp){write_log_info(ST_ERROR,ERR3);lock_it();}//ďĺđĺďîëíĺíčĺ áóôĺđŕ
    623                   if(uk_in_act_LCP==temp)event_modem=EVM_PPP_ERR;//ďĺđĺďîëíĺíčĺ áóôĺđŕ
   \                     ??prov_uk_in_2:
   \   0000001C   8D11               LDD     R17, Z+25
   \   0000001E   ....               RJMP    ?Subroutine57
    624              }  

   \                                 In segment FARCODE, align 2, keep-with-next
   \                     ?Subroutine57:
   \   00000000   1710               CP      R17, R16
   \   00000002   F419               BRNE    ??Subroutine57_0
   \   00000004   E005               LDI     R16, 5
   \   00000006   9300....           STS     event_modem, R16
   \                     ??Subroutine57_0:
   \   0000000A   9508               RET

   \                                 In segment FARCODE, align 2, keep-with-next
   \                     ?Subroutine55:
   \   00000000   ....               LDI     R30, LOW(cnt_lcp_tm_out)
   \   00000002   ....               LDI     R31, (cnt_lcp_tm_out) >> 8
   \   00000004   9508               RET
    625             
    626             

   \                                 In segment FARCODE, align 2, keep-with-next
    627             void prov_uk_in_ipcp(void)
   \                     prov_uk_in_ipcp:
    628             {        
    629                    unsigned char temp;
    630                    
    631                    uk_in_act_IPCP++;
   \   00000000   ....               RCALL   ?Subroutine55
   \                     ??CrossCallReturnLabel_90:
   \   00000002   8D03               LDD     R16, Z+27
   \   00000004   9503               INC     R16
   \   00000006   8F03               STD     Z+27, R16
    632                    if(uk_in_act_IPCP>=IPCP_ACT_VOL)uk_in_act_IPCP=0;         
   \   00000008   300A               CPI     R16, 10
   \   0000000A   F010               BRCS    ??prov_uk_in_ipcp_0
   \   0000000C   E000               LDI     R16, 0
   \   0000000E   8F03               STD     Z+27, R16
    633                    if(uk_out_act_IPCP==0)temp=IPCP_ACT_VOL-1;else temp=uk_out_act_IPCP-1;
   \                     ??prov_uk_in_ipcp_0:
   \   00000010   8D04               LDD     R16, Z+28
   \   00000012   2300               TST     R16
   \   00000014   F411               BRNE    ??prov_uk_in_ipcp_1
   \   00000016   E009               LDI     R16, 9
   \   00000018   C001               RJMP    ??prov_uk_in_ipcp_2
   \                     ??prov_uk_in_ipcp_1:
   \   0000001A   950A               DEC     R16
    634                  //  if(uk_in_act_IPCP==temp){write_log_info(ST_ERROR,ERR4);lock_it();}//ďĺđĺďîëíĺíčĺ áóôĺđŕ
    635                    if(uk_in_act_IPCP==temp)event_modem=EVM_PPP_ERR;//ďĺđĺďîëíĺíčĺ áóôĺđŕ
   \                     ??prov_uk_in_ipcp_2:
   \   0000001C   8D13               LDD     R17, Z+27
   \   0000001E                      REQUIRE ?Subroutine57
   \   0000001E                      ;               // Fall through to label ?Subroutine57
    636                   
    637              }   
    638           
    639           
    640           
    641           

   \                                 In segment FARCODE, align 2, keep-with-next
    642          unsigned int pppfcs16(unsigned int fcs,unsigned char *cp,unsigned int len)
   \                     pppfcs16:
    643          
    644             {
   \   00000000   C011               RJMP    ??pppfcs16_0
    645          
    646                 while (len--)
    647                     fcs=(fcs >> 8) ^ fcstab[(fcs ^ *cp++) & 0xff];
   \                     ??pppfcs16_1:
   \   00000002   2E21               MOV     R2, R17
   \   00000004   ....               LDI     R22, LOW(fcstab)
   \   00000006   ....               LDI     R23, (fcstab) >> 8
   \   00000008   01F9               MOVW    R31:R30, R19:R18
   \   0000000A   9001               LD      R0, Z+
   \   0000000C   019F               MOVW    R19:R18, R31:R30
   \   0000000E   2DE0               MOV     R30, R0
   \   00000010   27E0               EOR     R30, R16
   \   00000012   E0F0               LDI     R31, 0
   \   00000014   0FEE               LSL     R30
   \   00000016   1FFF               ROL     R31
   \   00000018   0F6E               ADD     R22, R30
   \   0000001A   1F7F               ADC     R23, R31
   \   0000001C   01FB               MOVW    R31:R30, R23:R22
   \   0000001E   9105               LPM     R16, Z+
   \   00000020   9114               LPM     R17, Z
   \   00000022   2502               EOR     R16, R2
   \                     ??pppfcs16_0:
   \   00000024   01BA               MOVW    R23:R22, R21:R20
   \   00000026   5041               SUBI    R20, 1
   \   00000028   4050               SBCI    R21, 0
   \   0000002A   2B67               OR      R22, R23
   \   0000002C   F751               BRNE    ??pppfcs16_1
    648                 return (fcs);
   \   0000002E   9508               RET
    649             }
    650          
    651          

   \                                 In segment FARCODE, align 2, keep-with-next
    652           void send_terminate_lcp(void)
   \                     send_terminate_lcp:
    653           
    654           {
   \   00000000   ....               RCALL   ?Subroutine62
   \                     ??CrossCallReturnLabel_102:
   \   00000002   9722               SBIW    R29:R28, 2
    655               union
    656               {
    657                unsigned char bytes[2]; 
    658                unsigned int word;
    659               }temp;              
    660                           
    661                           fl_lcp.act_lcp_end=0;
   \   00000004   ....               RCALL   ?Subroutine55
   \                     ??CrossCallReturnLabel_91:
   \   00000006   8103               LDD     R16, Z+3
   \   00000008   7F0E               ANDI    R16, 0xFE
   \   0000000A   8303               STD     Z+3, R16
    662                           buf_tx_232[0]=0x7e; 
   \   0000000C   ....               RCALL   ?Subroutine69
   \                     ??CrossCallReturnLabel_110:
   \   0000000E   E70E               LDI     R16, 126
   \   00000010   930D               ST      X+, R16
    663                           buf_tx_232[1]=0xff;
   \   00000012   EF0F               LDI     R16, 255
   \   00000014   930D               ST      X+, R16
    664                           buf_tx_232[2]=0x03;
   \   00000016   E003               LDI     R16, 3
   \   00000018   930D               ST      X+, R16
    665                           buf_tx_232[3]=0xc0;
   \   0000001A   EC00               LDI     R16, 192
   \   0000001C   930D               ST      X+, R16
    666                           buf_tx_232[4]=0x21;
   \   0000001E   E201               LDI     R16, 33
   \   00000020   930D               ST      X+, R16
    667                           
    668                           buf_tx_232[5]=TERM_REQ; 
   \   00000022   E005               LDI     R16, 5
   \   00000024   930D               ST      X+, R16
    669                           buf_tx_232[6]=0;   
   \   00000026   E000               LDI     R16, 0
   \   00000028   930D               ST      X+, R16
    670                           
    671                           buf_tx_232[7]=0; 
   \   0000002A   930D               ST      X+, R16
    672                           buf_tx_232[8]=0x04;
   \   0000002C   E004               LDI     R16, 4
   \   0000002E   930C               ST      X, R16
   \   00000030   9718               SBIW    R27:R26, 8
    673                           
    674                           
    675                           
    676                           temp.word=pppfcs16(PPPINITFCS16,&buf_tx_232[1],buf_tx_232[8]+4) ^ 0xffff;                
   \   00000032   E048               LDI     R20, 8
   \   00000034   E050               LDI     R21, 0
   \   00000036   ....               RCALL   ?Subroutine53
    677                           buf_tx_232[9]=temp.bytes[0];
   \                     ??CrossCallReturnLabel_80:
   \   00000038   9619               ADIW    R27:R26, 9
   \   0000003A   932C               ST      X, R18
   \   0000003C   9611               ADIW    R27:R26, 1
    678                           buf_tx_232[10]=temp.bytes[1];
   \   0000003E   8109               LDD     R16, Y+1
   \   00000040   930D               ST      X+, R16
    679                           
    680                           buf_tx_232[11]=0x7e; 
   \   00000042   E70E               LDI     R16, 126
   \   00000044   930C               ST      X, R16
    681                           
    682                          
    683                           count_tx_ppp=0;
   \   00000046   E000               LDI     R16, 0
   \   00000048   E010               LDI     R17, 0
   \   0000004A   ....               LDI     R30, LOW(count_tx_ppp)
   \   0000004C   ....               LDI     R31, (count_tx_ppp) >> 8
   \   0000004E   8300               ST      Z, R16
   \   00000050   8301               STD     Z+1, R16
    684                           vol_tx_ppp=buf_tx_232[8]+8;               
   \   00000052   E00C               LDI     R16, 12
   \   00000054   ....               RCALL   ?Subroutine80
    685                          
    686                           UCSR0A=UCSR0A | TXC; 
   \                     ??CrossCallReturnLabel_650:
   \   00000056   ........           CALL    ?Subroutine85
    687                           UCSR0B=UCSR0B | TXEN;
    688                           UCSR0B=UCSR0B | TXCIE;  
    689                           S2_RD;
   \                     ??CrossCallReturnLabel_126:
   \   0000005A   9A40               SBI     0x08, 0x00
   \   0000005C   9841               CBI     0x08, 0x01
    690                           UDR0=buf_tx_232[0];
   \   0000005E   E70E               LDI     R16, 126
   \   00000060   930000C6           STS     198, R16
    691                           if(Regim==RG_DEBAG) UDR3=buf_tx_232[0];
   \   00000064   ....               RCALL   ??Subroutine289_0
   \                     ??CrossCallReturnLabel_806:
   \   00000066   F411               BRNE    ??CrossCallReturnLabel_142
   \   00000068   E70E               LDI     R16, 126
   \   0000006A   ....               RCALL   ??Subroutine91_0
    692                           
    693          }
   \                     ??CrossCallReturnLabel_142:
   \   0000006C   9622               ADIW    R29:R28, 2
   \   0000006E   ....               RJMP    ?Subroutine93

   \                                 In segment FARCODE, align 2, keep-with-next
   \                     ?Subroutine80:
   \   00000000   ....               LDI     R30, LOW(vol_tx_ppp)
   \   00000002   ....               LDI     R31, (vol_tx_ppp) >> 8
   \                     ??Subroutine80_0:
   \   00000004   8300               ST      Z, R16
   \   00000006   8311               STD     Z+1, R17
   \   00000008   9508               RET

   \                                 In segment FARCODE, align 2, keep-with-next
   \                     ?Subroutine91:
   \   00000000   910C               LD      R16, X
   \                     ??Subroutine91_0:
   \   00000002   93000136           STS     310, R16
   \   00000006   9508               RET

   \                                 In segment FARCODE, align 2, keep-with-next
   \                     ?Subroutine289:
   \   00000000   930000C6           STS     198, R16
   \                     ??Subroutine289_0:
   \   00000004   9100....           LDS     R16, Regim
   \   00000008   ........           JMP     ??Subroutine248_0

   \                                 In segment FARCODE, align 2, keep-with-next
   \                     ?Subroutine69:
   \   00000000   ....               LDI     R26, LOW(buf_tx_232)
   \   00000002   ....               LDI     R27, (buf_tx_232) >> 8
   \   00000004   9508               RET

   \                                 In segment FARCODE, align 2, keep-with-next
   \                     ?Subroutine53:
   \   00000000   019D               MOVW    R19:R18, R27:R26
   \   00000002   5F2F               SUBI    R18, 255
   \   00000004   4F3F               SBCI    R19, 255
   \   00000006   EF0F               LDI     R16, 255
   \   00000008   EF1F               LDI     R17, 255
   \   0000000A   ....               RCALL   pppfcs16
   \   0000000C   EF2F               LDI     R18, 255
   \   0000000E   EF3F               LDI     R19, 255
   \   00000010   2720               EOR     R18, R16
   \   00000012   2731               EOR     R19, R17
   \   00000014   8328               ST      Y, R18
   \   00000016   8339               STD     Y+1, R19
   \   00000018   9508               RET

   \                                 In segment FARCODE, align 2, keep-with-next
   \                     ?Subroutine93:
   \   00000000   91A9               LD      R26, Y+
   \   00000002   91B9               LD      R27, Y+
   \   00000004   9508               RET

   \                                 In segment FARCODE, align 2, keep-with-next
   \                     ?Subroutine62:
   \   00000000   93BA               ST      -Y, R27
   \   00000002   93AA               ST      -Y, R26
   \   00000004   9508               RET

   \                                 In segment FARCODE, align 2, keep-with-next
   \                     ?Subroutine248:
   \   00000000   910000C0           LDS     R16, 192
   \   00000004   6400               ORI     R16, 0x40
   \   00000006   930000C0           STS     192, R16
   \   0000000A   910000C1           LDS     R16, 193
   \   0000000E   6008               ORI     R16, 0x08
   \   00000010   930000C1           STS     193, R16
   \   00000014   910000C1           LDS     R16, 193
   \   00000018   6400               ORI     R16, 0x40
   \   0000001A   930000C1           STS     193, R16
   \   0000001E   ........           CALL    check_cts
   \                     ??Subroutine248_0:
   \   00000022   3001               CPI     R16, 1
   \   00000024   9508               RET

   \                                 In segment FARCODE, align 2, keep-with-next
   \                     ?Subroutine85:
   \   00000000   910000C0           LDS     R16, 192
   \   00000004   6400               ORI     R16, 0x40
   \   00000006   930000C0           STS     192, R16
   \   0000000A   910000C1           LDS     R16, 193
   \   0000000E   6008               ORI     R16, 0x08
   \   00000010   930000C1           STS     193, R16
   \   00000014   910000C1           LDS     R16, 193
   \   00000018   6400               ORI     R16, 0x40
   \   0000001A   930000C1           STS     193, R16
   \   0000001E   9508               RET
    694           
    695           
    696           

   \                                 In segment FARCODE, align 2, keep-with-next
    697          void run_lcp_act(void)
   \                     run_lcp_act:
    698                {  
   \   00000000   ....               RCALL   ?Subroutine90
   \                     ??CrossCallReturnLabel_133:
   \   00000002   9722               SBIW    R29:R28, 2
    699                 unsigned char i;
    700                 
    701                 union
    702               {
    703                unsigned char bytes[2]; 
    704                unsigned int word;
    705               }temp;
    706                
    707                 
    708                 switch (LCP_act_buf[uk_out_act_LCP])
   \   00000004   ....               LDI     R16, LOW(cnt_lcp_tm_out)
   \   00000006   ....               LDI     R17, (cnt_lcp_tm_out) >> 8
   \   00000008   01F8               MOVW    R31:R30, R17:R16
   \   0000000A   8D26               LDD     R18, Z+30
   \   0000000C   ....               RCALL   ?Subroutine69
   \                     ??CrossCallReturnLabel_111:
   \   0000000E   8D42               LDD     R20, Z+26
   \   00000010   E050               LDI     R21, 0
   \   00000012   0FE4               ADD     R30, R20
   \   00000014   1FF5               ADC     R31, R21
   \   00000016   8532               LDD     R19, Z+10
   \   00000018   2333               TST     R19
   \   0000001A   F069               BREQ    ??run_lcp_act_0
   \   0000001C   953A               DEC     R19
   \   0000001E   F0C1               BREQ    ??run_lcp_act_1
   \   00000020   5033               SUBI    R19, 3
   \   00000022   F0D9               BREQ    ??run_lcp_act_2
   \   00000024   5032               SUBI    R19, 2
   \   00000026   F101               BREQ    ??run_lcp_act_3
   \   00000028   953A               DEC     R19
   \   0000002A   F409               BRNE    $+2+2
   \   0000002C   C067               RJMP    ??run_lcp_act_4
   \   0000002E   953A               DEC     R19
   \   00000030   F409               BRNE    $+2+2
   \   00000032   C08C               RJMP    ??run_lcp_act_5
   \   00000034   C0B0               RJMP    ??run_lcp_act_6
    709                    {
    710                     case TLU:    
    711                             
    712                          fl_pap.up=1;
   \                     ??run_lcp_act_0:
   \   00000036   01F8               MOVW    R31:R30, R17:R16
   \   00000038   8126               LDD     R18, Z+6
   \   0000003A   6120               ORI     R18, 0x10
   \   0000003C   8326               STD     Z+6, R18
    713                          fl_lcp.act_lcp_end=0;
    714                          PAP_state=START_ST;
   \   0000003E   E021               LDI     R18, 1
   \   00000040   8721               STD     Z+9, R18
    715                          layer_PPP=LAYER_PAP;      
   \   00000042   E022               LDI     R18, 2
   \   00000044   9320....           STS     layer_PPP, R18
    716                          fl_lcp.act_lcp_end=1;
   \                     ??run_lcp_act_7:
   \   00000048   8103               LDD     R16, Z+3
   \   0000004A   6001               ORI     R16, 0x01
   \                     ??run_lcp_act_8:
   \   0000004C   8303               STD     Z+3, R16
   \   0000004E   C0A3               RJMP    ??run_lcp_act_6
    717                        break;
    718                     case TLD:  
    719                          fl_lcp.act_lcp_end=0;
    720                          layer_PPP=LAYER_LCP;  
   \                     ??run_lcp_act_1:
   \   00000050   E021               LDI     R18, 1
   \   00000052   9320....           STS     layer_PPP, R18
    721                          fl_lcp.act_lcp_end=1; 
   \   00000056   01F8               MOVW    R31:R30, R17:R16
   \   00000058   CFF7               RJMP    ??run_lcp_act_7
    722                          break;
    723                     
    724                     case IRC:                   
    725                          fl_lcp.act_lcp_end=0;
    726                          cnt_lcp_tm_out=VOL_LCP_TM_OUT; 
   \                     ??run_lcp_act_2:
   \   0000005A   EB28               LDI     R18, 184
   \   0000005C   E03B               LDI     R19, 11
   \   0000005E   01F8               MOVW    R31:R30, R17:R16
   \   00000060   ....               RCALL   ??Subroutine106_0
    727                        //  cnt_rst_lcp=vol_cnt_rst_lcp;
    728                          fl_lcp.lcp_tm_out_en=1; 
    729                          fl_lcp.act_lcp_end=1; 
   \                     ??CrossCallReturnLabel_183:
   \   00000062   8103               LDD     R16, Z+3
   \   00000064   6003               ORI     R16, 0x03
   \   00000066   CFF2               RJMP    ??run_lcp_act_8
    730                               
    731                          break;
    732                     
    733                     case SCR:    
    734          
    735                                                      
    736                           fl_lcp.act_lcp_end=0;
   \                     ??run_lcp_act_3:
   \   00000068   01F8               MOVW    R31:R30, R17:R16
   \   0000006A   8123               LDD     R18, Z+3
   \   0000006C   7F2E               ANDI    R18, 0xFE
   \   0000006E   8323               STD     Z+3, R18
    737                           buf_tx_232[0]=0x7e; 
   \   00000070   E72E               LDI     R18, 126
   \   00000072   932C               ST      X, R18
    738                           buf_tx_232[1]=0xff;
   \   00000074   ....               RCALL   ?Subroutine74
    739                           buf_tx_232[2]=0x03;
    740                           buf_tx_232[3]=0xc0;
   \                     ??CrossCallReturnLabel_119:
   \   00000076   EC20               LDI     R18, 192
   \   00000078   ....               RCALL   ?Subroutine107
    741                           buf_tx_232[4]=0x21;
    742                           
    743                           buf_tx_232[5]=CONF_REQ; 
    744                           buf_tx_232[6]=i_scr_lcp;   
   \                     ??CrossCallReturnLabel_187:
   \   0000007A   01F8               MOVW    R31:R30, R17:R16
   \   0000007C   8D25               LDD     R18, Z+29
   \   0000007E   01FD               MOVW    R31:R30, R27:R26
   \   00000080   8326               STD     Z+6, R18
    745          
    746                //           compress_off=1;               
    747                           
    748                           
    749          if(compress_off==0) 
   \   00000082   01F8               MOVW    R31:R30, R17:R16
   \   00000084   8112               LDD     R17, Z+2
   \   00000086   2311               TST     R17
   \   00000088   01FD               MOVW    R31:R30, R27:R26
   \   0000008A   8357               STD     Z+7, R21
   \   0000008C   F411               BRNE    ??run_lcp_act_9
    750                            {
    751                             buf_tx_232[7]=0; 
    752                             buf_tx_232[8]=0x0e;
   \   0000008E   E00E               LDI     R16, 14
   \   00000090   C001               RJMP    ??run_lcp_act_10
    753                            }
    754                          else
    755                          {
    756                             buf_tx_232[7]=0; 
    757                             buf_tx_232[8]=0x0a; 
   \                     ??run_lcp_act_9:
   \   00000092   E00A               LDI     R16, 10
   \                     ??run_lcp_act_10:
   \   00000094   8700               STD     Z+8, R16
    758                          }
    759                           
    760                           buf_tx_232[9]=2; 
   \   00000096   E002               LDI     R16, 2
   \   00000098   8701               STD     Z+9, R16
    761                           buf_tx_232[10]=6;
   \   0000009A   E006               LDI     R16, 6
   \   0000009C   8702               STD     Z+10, R16
    762                          
    763                           buf_tx_232[11]=0; 
   \   0000009E   8753               STD     Z+11, R21
    764                           buf_tx_232[12]=0x0a; 
   \   000000A0   E00A               LDI     R16, 10
   \   000000A2   8704               STD     Z+12, R16
    765                          // buf_tx_232[12]=0; 
    766                           buf_tx_232[13]=0;
   \   000000A4   8755               STD     Z+13, R21
    767                           buf_tx_232[14]=0;
   \   000000A6   8756               STD     Z+14, R21
    768                          
    769                        
    770            if(compress_off==0) 
   \   000000A8   F499               BRNE    ??run_lcp_act_11
    771                {
    772                           
    773                           buf_tx_232[15]=7;
   \   000000AA   E007               LDI     R16, 7
   \   000000AC   8707               STD     Z+15, R16
    774                           buf_tx_232[16]=2;
   \   000000AE   E002               LDI     R16, 2
   \   000000B0   8B00               STD     Z+16, R16
    775                           buf_tx_232[17]=8;
   \   000000B2   E008               LDI     R16, 8
   \   000000B4   8B01               STD     Z+17, R16
    776                           buf_tx_232[18]=2;       
   \   000000B6   E002               LDI     R16, 2
   \   000000B8   8B02               STD     Z+18, R16
    777                           temp.word=pppfcs16(PPPINITFCS16,&buf_tx_232[1],buf_tx_232[8]+4) ^ 0xffff;                
   \   000000BA   8580               LDD     R24, Z+8
   \   000000BC   E090               LDI     R25, 0
   \   000000BE   9604               ADIW    R25:R24, 4
   \   000000C0   01AC               MOVW    R21:R20, R25:R24
   \   000000C2   ....               RCALL   ?Subroutine249
    778                           buf_tx_232[19]=temp.bytes[0];
   \                     ??CrossCallReturnLabel_380:
   \   000000C4   8B23               STD     Z+19, R18
    779                           buf_tx_232[20]=temp.bytes[1];  
   \   000000C6   8109               LDD     R16, Y+1
   \   000000C8   8B04               STD     Z+20, R16
    780                           buf_tx_232[21]=0x7e; 
   \   000000CA   E70E               LDI     R16, 126
   \   000000CC   8B05               STD     Z+21, R16
   \   000000CE   C005               RJMP    ??CrossCallReturnLabel_121
    781                    
    782                }
    783                           
    784                    else
    785                    {
    786                           
    787                           temp.word=pppfcs16(PPPINITFCS16,&buf_tx_232[1],buf_tx_232[8]+4) ^ 0xffff;                
   \                     ??run_lcp_act_11:
   \   000000D0   8540               LDD     R20, Z+8
   \   000000D2   5F4C               SUBI    R20, 252
   \   000000D4   4F5F               SBCI    R21, 255
   \   000000D6   ....               RCALL   ?Subroutine249
    788                           buf_tx_232[15]=temp.bytes[0];
   \                     ??CrossCallReturnLabel_381:
   \   000000D8   ....               RCALL   ?Subroutine78
    789                           buf_tx_232[16]=temp.bytes[1];
    790                           buf_tx_232[17]=0x7e;               
    791                    }       
    792                           
    793                           
    794                           
    795                           count_tx_ppp=0;
   \                     ??CrossCallReturnLabel_121:
   \   000000DA   ....               RCALL   ?Subroutine46
    796                           vol_tx_ppp=buf_tx_232[8]+8;     
   \                     ??CrossCallReturnLabel_76:
   \   000000DC   01FD               MOVW    R31:R30, R27:R26
   \   000000DE   8580               LDD     R24, Z+8
   \   000000E0   E090               LDI     R25, 0
   \   000000E2   9608               ADIW    R25:R24, 8
   \   000000E4   ....               RCALL   ?Subroutine86
   \                     ??CrossCallReturnLabel_128:
   \   000000E6   8380               ST      Z, R24
   \   000000E8   8391               STD     Z+1, R25
    797                           
    798                  
    799                        
    800                           
    801                          
    802                           UCSR0A=UCSR0A | TXC; 
   \   000000EA   ........           CALL    ?Subroutine248
    803                           UCSR0B=UCSR0B | TXEN;
    804                           UCSR0B=UCSR0B | TXCIE;
    805                           if(check_cts()==1) return;  
   \                     ??CrossCallReturnLabel_797:
   \   000000EE   F409               BRNE    $+2+2
   \   000000F0   C052               RJMP    ??run_lcp_act_6
    806                           S2_RD;
   \   000000F2   ....               RCALL   ?Subroutine87
    807                           UDR0=buf_tx_232[0];
    808                           if(Regim==RG_DEBAG) UDR3=buf_tx_232[0];
   \                     ??CrossCallReturnLabel_790:
   \   000000F4   F009               BREQ    $+2+2
   \   000000F6   C04F               RJMP    ??run_lcp_act_6
   \                     ??run_lcp_act_12:
   \   000000F8   ....               RCALL   ?Subroutine91
   \                     ??CrossCallReturnLabel_143:
   \   000000FA   C04D               RJMP    ??run_lcp_act_6
    809                           
    810                          
    811                              
    812                          break;
    813                     
    814                    case SCA: 
    815                           fl_lcp.act_lcp_end=0;
   \                     ??run_lcp_act_4:
   \   000000FC   ....               RCALL   ?Subroutine71
    816                           buf_tx_232[0]=0x7e; 
    817                           buf_tx_232[1]=0xff;
    818                           buf_tx_232[2]=0x03;
    819                           buf_tx_232[3]=0xc0;
    820                           buf_tx_232[4]=0x21;  
    821                           
    822                           buf_tx_232[5]=CONF_ACK;
   \                     ??CrossCallReturnLabel_117:
   \   000000FE   E032               LDI     R19, 2
   \   00000100   8335               STD     Z+5, R19
    823                           buf_tx_232[6]=i_scan_lcp;
   \   00000102   8326               STD     Z+6, R18
    824                           
    825                           temp.word=ln_ack_lcp+4;
   \   00000104   01F8               MOVW    R31:R30, R17:R16
   \   00000106   AD35               LDD     R19, Z+61
   \   00000108   2F83               MOV     R24, R19
   \   0000010A   E090               LDI     R25, 0
   \   0000010C   01AC               MOVW    R21:R20, R25:R24
   \   0000010E   ....               RCALL   ?Subroutine133
    826                           buf_tx_232[7]=temp.bytes[1]; 
   \                     ??CrossCallReturnLabel_218:
   \   00000110   01FD               MOVW    R31:R30, R27:R26
   \   00000112   8357               STD     Z+7, R21
    827                           buf_tx_232[8]=temp.bytes[0];
   \   00000114   8128               LD      R18, Y
   \   00000116   8720               STD     Z+8, R18
    828                          
    829                           temp.word=temp.word+4;         
   \   00000118   8148               LD      R20, Y
   \   0000011A   8159               LDD     R21, Y+1
   \   0000011C   ....               RCALL   ?Subroutine133
    830                           vol_tx_ppp=temp.word+4;  
   \                     ??CrossCallReturnLabel_219:
   \   0000011E   5F4C               SUBI    R20, 252
   \   00000120   4F5F               SBCI    R21, 255
   \   00000122   ....               RCALL   ?Subroutine86
   \                     ??CrossCallReturnLabel_129:
   \   00000124   8340               ST      Z, R20
   \   00000126   8351               STD     Z+1, R21
    831                             
    832                           for(i=0;i<ln_ack_lcp;i++)buf_tx_232[9+i]=buf_ack_opt_lcp[i];
   \   00000128   E020               LDI     R18, 0
   \   0000012A   C009               RJMP    ??run_lcp_act_13
   \                     ??run_lcp_act_14:
   \   0000012C   01F8               MOVW    R31:R30, R17:R16
   \   0000012E   0FE2               ADD     R30, R18
   \   00000130   1FF9               ADC     R31, R25
   \   00000132   A160               LDD     R22, Z+32
   \   00000134   01FD               MOVW    R31:R30, R27:R26
   \   00000136   0FE2               ADD     R30, R18
   \   00000138   1FF9               ADC     R31, R25
   \   0000013A   8761               STD     Z+9, R22
   \   0000013C   9523               INC     R18
   \                     ??run_lcp_act_13:
   \   0000013E   1723               CP      R18, R19
   \   00000140   F3A8               BRCS    ??run_lcp_act_14
    833                           
    834                           temp.word=pppfcs16(PPPINITFCS16,&buf_tx_232[1],temp.word) ^ 0xffff;                  
   \                     ??run_lcp_act_15:
   \   00000142   ....               RCALL   ?Subroutine51
    835                           buf_tx_232[9+ln_ack_lcp]=temp.bytes[0];
    836                           buf_tx_232[10+ln_ack_lcp]=temp.bytes[1];
    837                           buf_tx_232[11+ln_ack_lcp]=0x7e;
    838                           
    839                           count_tx_ppp=0;                             
    840                           UCSR0A=UCSR0A | TXC;                            
    841                           UCSR0B=UCSR0B | TXEN;
    842                           UCSR0B=UCSR0B | TXCIE;
    843                           if(check_cts()==1) return;   
   \                     ??CrossCallReturnLabel_804:
   \   00000144   F141               BREQ    ??run_lcp_act_6
    844                           S2_RD;
   \   00000146   ....               RCALL   ?Subroutine87
    845                           UDR0=buf_tx_232[0]; 
    846                           if(Regim==RG_DEBAG) UDR3=buf_tx_232[0];
   \                     ??CrossCallReturnLabel_791:
   \   00000148   F531               BRNE    ??run_lcp_act_6
   \   0000014A   CFD6               RJMP    ??run_lcp_act_12
    847                         
    848                           
    849                          
    850                            
    851                          break;
    852                     case SCN:  
    853          
    854                           fl_lcp.act_lcp_end=0;
   \                     ??run_lcp_act_5:
   \   0000014C   ....               RCALL   ?Subroutine71
    855                           buf_tx_232[0]=0x7e; 
    856                           buf_tx_232[1]=0xff;
    857                           buf_tx_232[2]=0x03;
    858                           buf_tx_232[3]=0xc0;
    859                           buf_tx_232[4]=0x21;   
    860                           
    861                           if (fl_lcp2.nac_rej==0) 
   \                     ??CrossCallReturnLabel_118:
   \   0000014E   01F8               MOVW    R31:R30, R17:R16
   \   00000150   8137               LDD     R19, Z+7
   \   00000152   FD30               SBRC    R19, 0
   \   00000154   C00D               RJMP    ??run_lcp_act_16
    862                               {
    863                               buf_tx_232[5]=CONF_NAK;                       
   \   00000156   E033               LDI     R19, 3
   \   00000158   01FD               MOVW    R31:R30, R27:R26
   \   0000015A   8335               STD     Z+5, R19
    864                               
    865                               buf_tx_232[6]=i_scan_lcp;
   \   0000015C   8326               STD     Z+6, R18
    866                           
    867                               temp.word=ln_nak_lcp+4;
   \   0000015E   5C02               SUBI    R16, 194
   \   00000160   ....               RCALL   ?Subroutine4
    868                               buf_tx_232[7]=temp.bytes[1]; 
    869                               buf_tx_232[8]=temp.bytes[0];
    870                              
    871                              temp.word=temp.word+4;         
    872                              vol_tx_ppp=temp.word+4;
    873                               
    874          
    875                                
    876                               for(i=0;i<ln_nak_lcp;i++)buf_tx_232[9+i]=buf_nak_opt_lcp[i];
   \                     ??CrossCallReturnLabel_618:
   \   00000162   C003               RJMP    ??CrossCallReturnLabel_191
   \                     ??run_lcp_act_17:
   \   00000164   ....               RCALL   ?Subroutine151
   \                     ??CrossCallReturnLabel_243:
   \   00000166   8110               LD      R17, Z
   \   00000168   ....               RCALL   ?Subroutine117
   \                     ??CrossCallReturnLabel_191:
   \   0000016A   1720               CP      R18, R16
   \   0000016C   F3D8               BRCS    ??run_lcp_act_17
    877                               temp.word=pppfcs16(PPPINITFCS16,&buf_tx_232[1],temp.word) ^ 0xffff;                  
   \   0000016E   CFE9               RJMP    ??run_lcp_act_15
    878                               buf_tx_232[9+ln_nak_lcp]=temp.bytes[0];
    879                               buf_tx_232[10+ln_nak_lcp]=temp.bytes[1];
    880                               buf_tx_232[11+ln_nak_lcp]=0x7e;
    881                               
    882                               count_tx_ppp=0;                             
    883                               UCSR0A=UCSR0A | TXC;                            
    884                               UCSR0B=UCSR0B | TXEN;
    885                               UCSR0B=UCSR0B | TXCIE;
    886                               if(check_cts()==1) return;   
    887                               S2_RD;
    888                               UDR0=buf_tx_232[0];
    889                               if(Regim==RG_DEBAG) UDR3=buf_tx_232[0];
    890                               
    891                               }  
    892                               else
    893                               { 
    894                               fl_lcp2.nac_rej=0;
   \                     ??run_lcp_act_16:
   \   00000170   7F3E               ANDI    R19, 0xFE
   \   00000172   8337               STD     Z+7, R19
    895                               buf_tx_232[5]=CONF_REJ;  
   \   00000174   E034               LDI     R19, 4
   \   00000176   01FD               MOVW    R31:R30, R27:R26
   \   00000178   8335               STD     Z+5, R19
    896                               buf_tx_232[6]=i_scan_lcp;
   \   0000017A   8326               STD     Z+6, R18
    897                           
    898                               temp.word=ln_rej_lcp+4;
   \   0000017C   5C04               SUBI    R16, 196
   \   0000017E   ....               RCALL   ?Subroutine4
    899                               buf_tx_232[7]=temp.bytes[1]; 
    900                               buf_tx_232[8]=temp.bytes[0];
    901                                           
    902                              temp.word=temp.word+4;         
    903                              vol_tx_ppp=temp.word+4; 
    904                               
    905                               for(i=0;i<ln_rej_lcp;i++)buf_tx_232[9+i]=buf_rej_opt_lcp[i];
   \                     ??CrossCallReturnLabel_619:
   \   00000180   C003               RJMP    ??CrossCallReturnLabel_192
   \                     ??run_lcp_act_18:
   \   00000182   ....               RCALL   ?Subroutine151
   \                     ??CrossCallReturnLabel_244:
   \   00000184   8D14               LDD     R17, Z+28
   \   00000186   ....               RCALL   ?Subroutine117
   \                     ??CrossCallReturnLabel_192:
   \   00000188   1720               CP      R18, R16
   \   0000018A   F3D8               BRCS    ??run_lcp_act_18
    906                               temp.word=pppfcs16(PPPINITFCS16,&buf_tx_232[1],temp.word) ^ 0xffff;                  
   \   0000018C   ....               RCALL   ?Subroutine51
    907                               buf_tx_232[9+ln_rej_lcp]=temp.bytes[0];
    908                               buf_tx_232[10+ln_rej_lcp]=temp.bytes[1];                     
    909                               buf_tx_232[11+ln_rej_lcp]=0x7e;                     
    910                              
    911                               count_tx_ppp=0;                             
    912                               UCSR0A=UCSR0A | TXC;                            
    913                               UCSR0B=UCSR0B | TXEN;
    914                               UCSR0B=UCSR0B | TXCIE;
    915                               if(check_cts()==1) return;   
   \                     ??CrossCallReturnLabel_805:
   \   0000018E   F019               BREQ    ??run_lcp_act_6
    916                               S2_RD;
   \   00000190   ....               RCALL   ?Subroutine87
    917                               UDR0=buf_tx_232[0]; 
    918                               if(Regim==RG_DEBAG) UDR3=buf_tx_232[0];
   \                     ??CrossCallReturnLabel_792:
   \   00000192   F409               BRNE    $+2+2
   \   00000194   CFB1               RJMP    ??run_lcp_act_12
   \                     ??run_lcp_act_6:
   \   00000196   ....               RJMP    ?Subroutine278
    919                               }   
    920                               
    921          
    922                               
    923                          break; 
    924                     
    925                    }                  
    926                }

   \                                 In segment FARCODE, align 2, keep-with-next
   \                     ?Subroutine151:
   \   00000000   2F42               MOV     R20, R18
   \   00000002   01FA               MOVW    R31:R30, R21:R20
   \   00000004   ....               SUBI    R30, LOW((-(buf_nak_opt_lcp) & 0xFFFF))
   \   00000006   ....               SBCI    R31, (-(buf_nak_opt_lcp) & 0xFFFF) >> 8
   \   00000008   9508               RET

   \                                 In segment FARCODE, align 2, keep-with-next
   \                     ?Subroutine133:
   \   00000000   5F4C               SUBI    R20, 252
   \   00000002   4F5F               SBCI    R21, 255
   \   00000004   8348               ST      Y, R20
   \   00000006   8359               STD     Y+1, R21
   \   00000008   9508               RET

   \                                 In segment FARCODE, align 2, keep-with-next
   \                     ?Subroutine117:
   \   00000000   01FD               MOVW    R31:R30, R27:R26
   \   00000002   0FE2               ADD     R30, R18
   \   00000004   1FF5               ADC     R31, R21
   \   00000006   8711               STD     Z+9, R17
   \   00000008   9523               INC     R18
   \   0000000A   9508               RET

   \                                 In segment FARCODE, align 2, keep-with-next
   \                     ?Subroutine71:
   \   00000000   01F8               MOVW    R31:R30, R17:R16
   \   00000002   8133               LDD     R19, Z+3
   \   00000004   7F3E               ANDI    R19, 0xFE
   \   00000006   8333               STD     Z+3, R19
   \   00000008   E73E               LDI     R19, 126
   \   0000000A   933C               ST      X, R19
   \   0000000C   EF3F               LDI     R19, 255
   \   0000000E   01FD               MOVW    R31:R30, R27:R26
   \   00000010   8331               STD     Z+1, R19
   \   00000012   E033               LDI     R19, 3
   \   00000014   8332               STD     Z+2, R19
   \   00000016   EC30               LDI     R19, 192
   \   00000018   8333               STD     Z+3, R19
   \   0000001A   E231               LDI     R19, 33
   \   0000001C   8334               STD     Z+4, R19
   \   0000001E   9508               RET

   \                                 In segment FARCODE, align 2, keep-with-next
   \                     ?Subroutine51:
   \   00000000   8148               LD      R20, Y
   \   00000002   8159               LDD     R21, Y+1
   \   00000004   019D               MOVW    R19:R18, R27:R26
   \   00000006   5F2F               SUBI    R18, 255
   \   00000008   4F3F               SBCI    R19, 255
   \   0000000A   EF0F               LDI     R16, 255
   \   0000000C   EF1F               LDI     R17, 255
   \   0000000E   ....               RCALL   pppfcs16
   \   00000010   EF2F               LDI     R18, 255
   \   00000012   EF3F               LDI     R19, 255
   \   00000014   2720               EOR     R18, R16
   \   00000016   2731               EOR     R19, R17
   \   00000018   8328               ST      Y, R18
   \   0000001A   8339               STD     Y+1, R19
   \   0000001C   01FD               MOVW    R31:R30, R27:R26
   \   0000001E   0FE8               ADD     R30, R24
   \   00000020   1FF9               ADC     R31, R25
   \   00000022   8721               STD     Z+9, R18
   \   00000024   8129               LDD     R18, Y+1
   \   00000026   8722               STD     Z+10, R18
   \   00000028   E70E               LDI     R16, 126
   \   0000002A   8703               STD     Z+11, R16
   \   0000002C   ....               LDI     R30, LOW(count_tx_ppp)
   \   0000002E   ....               LDI     R31, (count_tx_ppp) >> 8
   \   00000030   8390               ST      Z, R25
   \   00000032   8391               STD     Z+1, R25
   \   00000034   ........           JMP     ?Subroutine248

   \                                 In segment FARCODE, align 2, keep-with-next
   \                     ?Subroutine4:
   \   00000000   4F1F               SBCI    R17, 255
   \   00000002   01F8               MOVW    R31:R30, R17:R16
   \   00000004   8100               LD      R16, Z
   \   00000006   2F80               MOV     R24, R16
   \   00000008   E090               LDI     R25, 0
   \   0000000A   019C               MOVW    R19:R18, R25:R24
   \   0000000C   5F2C               SUBI    R18, 252
   \   0000000E   4F3F               SBCI    R19, 255
   \   00000010   8328               ST      Y, R18
   \   00000012   8339               STD     Y+1, R19
   \   00000014   01FD               MOVW    R31:R30, R27:R26
   \   00000016   8337               STD     Z+7, R19
   \   00000018   8118               LD      R17, Y
   \   0000001A   8710               STD     Z+8, R17
   \   0000001C   8128               LD      R18, Y
   \   0000001E   8139               LDD     R19, Y+1
   \   00000020   5F2C               SUBI    R18, 252
   \   00000022   4F3F               SBCI    R19, 255
   \   00000024   8328               ST      Y, R18
   \   00000026   8339               STD     Y+1, R19
   \   00000028   5F2C               SUBI    R18, 252
   \   0000002A   4F3F               SBCI    R19, 255
   \   0000002C   ....               LDI     R30, LOW(vol_tx_ppp)
   \   0000002E   ....               LDI     R31, (vol_tx_ppp) >> 8
   \   00000030   8320               ST      Z, R18
   \   00000032   8331               STD     Z+1, R19
   \   00000034                      REQUIRE ?Subroutine288
   \   00000034                      ;               // Fall through to label ?Subroutine288

   \                                 In segment FARCODE, align 2, keep-with-next
   \                     ?Subroutine288:
   \   00000000   E020               LDI     R18, 0
   \   00000002   9508               RET

   \                                 In segment FARCODE, align 2, keep-with-next
   \                     ?Subroutine87:
   \   00000000   9A40               SBI     0x08, 0x00
   \   00000002   9841               CBI     0x08, 0x01
   \   00000004   910C               LD      R16, X
   \   00000006                      REQUIRE ?Subroutine289
   \   00000006                      ;               // Fall through to label ?Subroutine289

   \                                 In segment FARCODE, align 2, keep-with-next
   \                     ?Subroutine86:
   \   00000000   ....               LDI     R30, LOW(vol_tx_ppp)
   \   00000002   ....               LDI     R31, (vol_tx_ppp) >> 8
   \   00000004   9508               RET

   \                                 In segment FARCODE, align 2, keep-with-next
   \                     ?Subroutine107:
   \   00000000   8323               STD     Z+3, R18
   \   00000002   E221               LDI     R18, 33
   \   00000004   8324               STD     Z+4, R18
   \   00000006   E021               LDI     R18, 1
   \   00000008   8325               STD     Z+5, R18
   \   0000000A   9508               RET

   \                                 In segment FARCODE, align 2, keep-with-next
   \                     ?Subroutine106:
   \   00000000   0FE0               ADD     R30, R16
   \   00000002   1FF1               ADC     R31, R17
   \   00000004   5AE0               SUBI    R30, 160
   \   00000006   40F2               SBCI    R31, 2
   \                     ??Subroutine106_0:
   \   00000008   8320               ST      Z, R18
   \   0000000A   8331               STD     Z+1, R19
   \   0000000C   9508               RET

   \                                 In segment FARCODE, align 2, keep-with-next
   \                     ?Subroutine78:
   \   00000000   8727               STD     Z+15, R18
   \   00000002   8109               LDD     R16, Y+1
   \   00000004   8B00               STD     Z+16, R16
   \   00000006   E70E               LDI     R16, 126
   \   00000008   8B01               STD     Z+17, R16
   \   0000000A   9508               RET

   \                                 In segment FARCODE, align 2, keep-with-next
   \                     ?Subroutine74:
   \   00000000   EF2F               LDI     R18, 255
   \   00000002   01FD               MOVW    R31:R30, R27:R26
   \   00000004   8321               STD     Z+1, R18
   \   00000006   E023               LDI     R18, 3
   \   00000008   8322               STD     Z+2, R18
   \   0000000A   9508               RET

   \                                 In segment FARCODE, align 2, keep-with-next
   \                     ?Subroutine46:
   \   00000000   E000               LDI     R16, 0
   \   00000002   ....               LDI     R30, LOW(count_tx_ppp)
   \   00000004   ....               LDI     R31, (count_tx_ppp) >> 8
   \   00000006   8300               ST      Z, R16
   \   00000008   8301               STD     Z+1, R16
   \   0000000A   9508               RET

   \                                 In segment FARCODE, align 2, keep-with-next
   \                     ?Subroutine90:
   \   00000000   ........           JMP     ?PROLOGUE4_L09

   \                                 In segment FARCODE, align 2, keep-with-next
   \                     ?Subroutine249:
   \   00000000   019D               MOVW    R19:R18, R27:R26
   \   00000002   5F2F               SUBI    R18, 255
   \   00000004   4F3F               SBCI    R19, 255
   \   00000006   EF0F               LDI     R16, 255
   \   00000008   EF1F               LDI     R17, 255
   \   0000000A   ....               RCALL   pppfcs16
   \   0000000C   EF2F               LDI     R18, 255
   \   0000000E   EF3F               LDI     R19, 255
   \   00000010   2720               EOR     R18, R16
   \   00000012   2731               EOR     R19, R17
   \   00000014   8328               ST      Y, R18
   \   00000016   8339               STD     Y+1, R19
   \                     ??Subroutine249_0:
   \   00000018   01FD               MOVW    R31:R30, R27:R26
   \   0000001A   9508               RET

   \                                 In segment FARCODE, align 2, keep-with-next
   \                     ?Subroutine278:
   \   00000000   9622               ADIW    R29:R28, 2
   \                     ??Subroutine278_0:
   \   00000002   E0E4               LDI     R30, 4
   \   00000004   ........           JMP     ?EPILOGUE_B4_L09
    927          
    928          
    929          

   \                                 In segment FARCODE, align 2, keep-with-next
   \                     ?Subroutine328:
   \   00000000   ........           JMP     ?Subroutine40

   \                                 In segment FARCODE, align 2, keep-with-next
    930          void monitor_act_PAP(void)
   \                     monitor_act_PAP:
    931                {  
   \   00000000   ....               RCALL   ?Subroutine90
   \                     ??CrossCallReturnLabel_134:
   \   00000002   9723               SBIW    R29:R28, 3
    932                 
    933                 unsigned char k;
    934                 unsigned char temp1;
    935                 
    936                 union
    937               {
    938                unsigned char bytes[2]; 
    939                unsigned int word;
    940               }temp;
    941                
    942                 
    943                 if((pap_act_buf==SCR)&&(fl_pap.act_pap_end==1)&&(fl_lcp.act_lcp_end==1)&&(fl_ipcp.act_ipcp_end==1)&&(fl_ip.act_ip_end==1))
   \   00000004   ....               LDI     R24, LOW(cnt_lcp_tm_out)
   \   00000006   ....               LDI     R25, (cnt_lcp_tm_out) >> 8
   \   00000008   01FC               MOVW    R31:R30, R25:R24
   \   0000000A   8500               LDD     R16, Z+8
   \   0000000C   3006               CPI     R16, 6
   \   0000000E   F009               BREQ    $+2+2
   \   00000010   C09C               RJMP    ??CrossCallReturnLabel_144
   \   00000012   8106               LDD     R16, Z+6
   \   00000014   7001               ANDI    R16, 0x01
   \   00000016   8113               LDD     R17, Z+3
   \   00000018   7011               ANDI    R17, 0x01
   \   0000001A   2310               AND     R17, R16
   \   0000001C   8104               LDD     R16, Z+4
   \   0000001E   7001               ANDI    R16, 0x01
   \   00000020   2301               AND     R16, R17
   \   00000022   8115               LDD     R17, Z+5
   \   00000024   7011               ANDI    R17, 0x01
   \   00000026   2310               AND     R17, R16
   \   00000028   F409               BRNE    $+2+2
   \   0000002A   C08F               RJMP    ??CrossCallReturnLabel_144
    944                  {        
    945                         
    946                          
    947                          
    948                           pap_act_buf=NO_EVENT;
   \   0000002C   EF0F               LDI     R16, 255
   \   0000002E   8700               STD     Z+8, R16
    949                            
    950                           fl_pap.act_pap_end=0;
   \   00000030   8106               LDD     R16, Z+6
   \   00000032   7F0E               ANDI    R16, 0xFE
   \   00000034   8306               STD     Z+6, R16
    951                           buf_tx_232[0]=0x7e; 
   \   00000036   ....               RCALL   ?Subroutine69
   \                     ??CrossCallReturnLabel_112:
   \   00000038   E70E               LDI     R16, 126
   \   0000003A   930C               ST      X, R16
    952                           buf_tx_232[1]=0xc0;
   \   0000003C   EC00               LDI     R16, 192
   \   0000003E   01FD               MOVW    R31:R30, R27:R26
   \   00000040   8301               STD     Z+1, R16
    953                           buf_tx_232[2]=0x23;
   \   00000042   E203               LDI     R16, 35
   \   00000044   8302               STD     Z+2, R16
    954                           
    955                           buf_tx_232[3]=CONF_REQ; 
   \   00000046   E001               LDI     R16, 1
   \   00000048   8303               STD     Z+3, R16
    956                           
    957                           i_scr_pap++;
   \   0000004A   01FC               MOVW    R31:R30, R25:R24
   \   0000004C   8D07               LDD     R16, Z+31
   \   0000004E   9503               INC     R16
   \   00000050   8F07               STD     Z+31, R16
    958                           buf_tx_232[4]=i_scr_pap;         
   \   00000052   01FD               MOVW    R31:R30, R27:R26
   \   00000054   8304               STD     Z+4, R16
    959                           
    960                  
    961                           if(simka==SIM_BASE)
   \   00000056   9100....           LDS     R16, simka
   \   0000005A   2300               TST     R16
   \   0000005C   E041               LDI     R20, 1
   \   0000005E   E050               LDI     R21, 0
   \   00000060   019E               MOVW    R19:R18, R29:R28
   \   00000062   F4F9               BRNE    ??monitor_act_PAP_0
    962                           {
    963                           RdFromFleshToArr(A_C_GPRS,&temp1,1);// ęîëč÷ĺńňâî áŕéň APN                 
   \   00000064   5F2E               SUBI    R18, 254
   \   00000066   4F3F               SBCI    R19, 255
   \   00000068   E104               LDI     R16, 20
   \   0000006A   ....               RCALL   ?Subroutine26
    964                           RdFromFleshToArr(A_C_GPRS+temp1+1,&temp.bytes[0],1);// ęîëč÷ĺńňâî ëîăčíŕ
   \                     ??CrossCallReturnLabel_438:
   \   0000006C   5E0B               SUBI    R16, 235
   \   0000006E   ....               RCALL   ?Subroutine20
    965                           RdFromFleshToArr(A_C_GPRS+temp1+temp.bytes[0]+2,&temp.bytes[1],1);// ęîëč÷ĺńňâî ďŕđîë˙
   \                     ??CrossCallReturnLabel_495:
   \   00000070   5E0A               SUBI    R16, 234
   \   00000072   ....               RCALL   ?Subroutine39
    966                           
    967                        
    968                           if((temp.bytes[0]==0)||(temp.bytes[0]>MAX_VOL_US_NAME)) buf_tx_232[7]=0;
   \                     ??CrossCallReturnLabel_72:
   \   00000074   F011               BREQ    ??monitor_act_PAP_1
   \   00000076   300D               CPI     R16, 13
   \   00000078   F018               BRCS    ??monitor_act_PAP_2
   \                     ??monitor_act_PAP_1:
   \   0000007A   ....               RCALL   ?Subroutine45
   \                     ??CrossCallReturnLabel_383:
   \   0000007C   8307               STD     Z+7, R16
   \   0000007E   C003               RJMP    ??CrossCallReturnLabel_844
    969                              else {buf_tx_232[7]=temp.bytes[0];RdFromFleshToArr(A_C_GPRS+temp1+2,&buf_tx_232[8],temp.bytes[0]);}
   \                     ??monitor_act_PAP_2:
   \   00000080   ....               RCALL   ?Subroutine25
   \                     ??CrossCallReturnLabel_436:
   \   00000082   5E0A               SUBI    R16, 234
   \   00000084   ....               RCALL   ?Subroutine328
    970                         
    971                           if((temp.bytes[1]==0)||(temp.bytes[1]>MAX_VOL_PSW)) buf_tx_232[8+buf_tx_232[7]]=0;
   \                     ??CrossCallReturnLabel_844:
   \   00000086   8149               LDD     R20, Y+1
   \   00000088   2344               TST     R20
   \   0000008A   F011               BREQ    ??monitor_act_PAP_3
   \   0000008C   304D               CPI     R20, 13
   \   0000008E   F030               BRCS    ??monitor_act_PAP_4
   \                     ??monitor_act_PAP_3:
   \   00000090   ....               RCALL   ?Subroutine45
   \                     ??CrossCallReturnLabel_384:
   \   00000092   8127               LDD     R18, Z+7
   \   00000094   0FE2               ADD     R30, R18
   \   00000096   1FF0               ADC     R31, R16
   \   00000098   8700               STD     Z+8, R16
   \   0000009A   C01C               RJMP    ??CrossCallReturnLabel_842
    972                              else {buf_tx_232[8+buf_tx_232[7]]=temp.bytes[1];RdFromFleshToArr(A_C_GPRS+temp1+temp.bytes[0]+3,&buf_tx_232[9+buf_tx_232[7]],temp.bytes[1]);}
   \                     ??monitor_act_PAP_4:
   \   0000009C   ....               RCALL   ?Subroutine19
   \                     ??CrossCallReturnLabel_34:
   \   0000009E   5E09               SUBI    R16, 233
   \   000000A0   C018               RJMP    ??monitor_act_PAP_5
    973                           }
    974                           else   //!!!!!!!!!!dobavka
    975                           {
    976                           RdFromFleshToArr(A_CR_GPRS,&temp1,1);// ęîëč÷ĺńňâî áŕéň APN                 
   \                     ??monitor_act_PAP_0:
   \   000000A2   5F2E               SUBI    R18, 254
   \   000000A4   4F3F               SBCI    R19, 255
   \   000000A6   E500               LDI     R16, 80
   \   000000A8   ....               RCALL   ?Subroutine26
    977                           RdFromFleshToArr(A_CR_GPRS+temp1+1,&temp.bytes[0],1);// ęîëč÷ĺńňâî ëîăčíŕ
   \                     ??CrossCallReturnLabel_439:
   \   000000AA   5A0F               SUBI    R16, 175
   \   000000AC   ....               RCALL   ?Subroutine20
    978                           RdFromFleshToArr(A_CR_GPRS+temp1+temp.bytes[0]+2,&temp.bytes[1],1);// ęîëč÷ĺńňâî ďŕđîë˙
   \                     ??CrossCallReturnLabel_496:
   \   000000AE   5A0E               SUBI    R16, 174
   \   000000B0   ....               RCALL   ?Subroutine39
    979                           
    980                        
    981                           if((temp.bytes[0]==0)||(temp.bytes[0]>MAX_VOL_US_NAME)) buf_tx_232[7]=0;
   \                     ??CrossCallReturnLabel_73:
   \   000000B2   F011               BREQ    ??monitor_act_PAP_6
   \   000000B4   300D               CPI     R16, 13
   \   000000B6   F018               BRCS    ??monitor_act_PAP_7
   \                     ??monitor_act_PAP_6:
   \   000000B8   ....               RCALL   ?Subroutine45
   \                     ??CrossCallReturnLabel_385:
   \   000000BA   8307               STD     Z+7, R16
   \   000000BC   C003               RJMP    ??CrossCallReturnLabel_843
    982                              else {buf_tx_232[7]=temp.bytes[0];RdFromFleshToArr(A_CR_GPRS+temp1+2,&buf_tx_232[8],temp.bytes[0]);}
   \                     ??monitor_act_PAP_7:
   \   000000BE   ....               RCALL   ?Subroutine25
   \                     ??CrossCallReturnLabel_437:
   \   000000C0   5A0E               SUBI    R16, 174
   \   000000C2   ....               RCALL   ?Subroutine328
    983                         
    984                           if((temp.bytes[1]==0)||(temp.bytes[1]>MAX_VOL_PSW)) buf_tx_232[8+buf_tx_232[7]]=0;
   \                     ??CrossCallReturnLabel_843:
   \   000000C4   8149               LDD     R20, Y+1
   \   000000C6   2344               TST     R20
   \   000000C8   F319               BREQ    ??monitor_act_PAP_3
   \   000000CA   304D               CPI     R20, 13
   \   000000CC   F708               BRCC    ??monitor_act_PAP_3
    985                              else {buf_tx_232[8+buf_tx_232[7]]=temp.bytes[1];RdFromFleshToArr(A_CR_GPRS+temp1+temp.bytes[0]+3,&buf_tx_232[9+buf_tx_232[7]],temp.bytes[1]);}
   \   000000CE   ....               RCALL   ?Subroutine19
   \                     ??CrossCallReturnLabel_35:
   \   000000D0   5A0D               SUBI    R16, 173
   \                     ??monitor_act_PAP_5:
   \   000000D2   ....               RCALL   ?Subroutine328
   \                     ??CrossCallReturnLabel_842:
   \   000000D4   01FD               MOVW    R31:R30, R27:R26
   \   000000D6   8127               LDD     R18, Z+7
   \   000000D8   ........           CALL    ?Subroutine138
   \                     ??CrossCallReturnLabel_230:
   \   000000DC   85E0               LDD     R30, Z+8
   \   000000DE   E0F0               LDI     R31, 0
   \   000000E0   ........           CALL    ??Subroutine138_0
   \                     ??CrossCallReturnLabel_231:
   \   000000E4   9636               ADIW    R31:R30, 6
   \   000000E6   83E8               ST      Y, R30
   \   000000E8   83F9               STD     Y+1, R31
    986                           }
    987                            //!!!!!!!!!!dobavka
    988                             
    989                           
    990                           
    991                           temp.word=6+buf_tx_232[7]+buf_tx_232[8+buf_tx_232[7]];
    992                           
    993                          
    994                            
    995                           buf_tx_232[5]=temp.bytes[1]; 
   \   000000EA   2F0F               MOV     R16, R31
   \   000000EC   01FD               MOVW    R31:R30, R27:R26
   \   000000EE   8305               STD     Z+5, R16
    996                           buf_tx_232[6]=temp.bytes[0]; 
   \   000000F0   8108               LD      R16, Y
   \   000000F2   8306               STD     Z+6, R16
    997                           
    998                           temp.word=temp.word+2;
   \   000000F4   ........           CALL    ??Subroutine38_1
   \                     ??CrossCallReturnLabel_65:
   \   000000F8   ....               RCALL   ?Subroutine171
   \                     ??CrossCallReturnLabel_515:
   \   000000FA   8308               ST      Y, R16
   \   000000FC   8319               STD     Y+1, R17
    999                           vol_tx_ppp=temp.word+4;
   \   000000FE   5F0C               SUBI    R16, 252
   \   00000100   4F1F               SBCI    R17, 255
   \   00000102   ....               RCALL   ?Subroutine80
   1000                            
   1001                           if(compress_off==1)
   \                     ??CrossCallReturnLabel_651:
   \   00000104   01FC               MOVW    R31:R30, R25:R24
   \   00000106   8102               LDD     R16, Z+2
   \   00000108   3001               CPI     R16, 1
   \   0000010A   F4D1               BRNE    ??CrossCallReturnLabel_44
   1002                           {
   1003                             for (k=0;k < (vol_tx_ppp-1);k++)buf_tx_232[vol_tx_ppp+1-k]=buf_tx_232[vol_tx_ppp-1-k];
   \   0000010C   E020               LDI     R18, 0
   \   0000010E   9140....           LDS     R20, vol_tx_ppp
   \   00000112   2F51               MOV     R21, R17
   \   00000114   5041               SUBI    R20, 1
   \   00000116   4050               SBCI    R21, 0
   \   00000118   C00E               RJMP    ??monitor_act_PAP_8
   \                     ??monitor_act_PAP_9:
   \   0000011A   018A               MOVW    R17:R16, R21:R20
   \   0000011C   1B02               SUB     R16, R18
   \   0000011E   4010               SBCI    R17, 0
   \   00000120   ....               RCALL   ?Subroutine168
   \                     ??CrossCallReturnLabel_679:
   \   00000122   8100               LD      R16, Z
   \   00000124   ....               RCALL   ?Subroutine86
   \                     ??CrossCallReturnLabel_130:
   \   00000126   8180               LD      R24, Z
   \   00000128   8191               LDD     R25, Z+1
   \   0000012A   9601               ADIW    R25:R24, 1
   \   0000012C   1B82               SUB     R24, R18
   \   0000012E   4090               SBCI    R25, 0
   \   00000130   ....               RCALL   ?Subroutine119
   \                     ??CrossCallReturnLabel_193:
   \   00000132   8300               ST      Z, R16
   \   00000134   9523               INC     R18
   \                     ??monitor_act_PAP_8:
   \   00000136   01B9               MOVW    R23:R22, R19:R18
   \   00000138   1764               CP      R22, R20
   \   0000013A   0775               CPC     R23, R21
   \   0000013C   F370               BRCS    ??monitor_act_PAP_9
   1004                             buf_tx_232[1]=0xff;
   \   0000013E   ....               RCALL   ?Subroutine32
   1005                             buf_tx_232[2]=0x03;
   1006                             temp.word=temp.word+2;
   1007                             vol_tx_ppp=temp.word+4;
   1008                           }
   1009                           
   1010                            
   1011          
   1012                           temp.word=pppfcs16(PPPINITFCS16,&buf_tx_232[1],temp.word) ^ 0xffff;                  
   \                     ??CrossCallReturnLabel_44:
   \   00000140   ....               RCALL   ?Subroutine43
   1013                           buf_tx_232[vol_tx_ppp-3]=temp.bytes[0];
   1014                           buf_tx_232[vol_tx_ppp-2]=temp.bytes[1];
   1015                           
   1016                           buf_tx_232[vol_tx_ppp-1]=0x7e; 
   1017                           
   1018                          
   1019          
   1020                
   1021                           count_tx_ppp=0;                            
   1022                           UCSR0A=UCSR0A | TXC;                            
   1023                           UCSR0B=UCSR0B | TXEN;
   1024                           UCSR0B=UCSR0B | TXCIE;
   1025                           if(check_cts()==1) return;    
   \                     ??CrossCallReturnLabel_801:
   \   00000142   F019               BREQ    ??CrossCallReturnLabel_144
   1026                           
   1027                           S2_RD;
   \   00000144   ....               RCALL   ?Subroutine87
   1028                           UDR0=buf_tx_232[0];  
   1029                           if(Regim==RG_DEBAG) UDR3=buf_tx_232[0];
   \                     ??CrossCallReturnLabel_793:
   \   00000146   F409               BRNE    ??CrossCallReturnLabel_144
   \   00000148   ....               RCALL   ?Subroutine91
   \                     ??CrossCallReturnLabel_144:
   \   0000014A   9623               ADIW    R29:R28, 3
   \   0000014C   ....               RJMP    ??Subroutine278_0
   1030                          
   1031          
   1032                  }
   1033                }

   \                                 In segment FARCODE, align 2, keep-with-next
   \                     ?Subroutine168:
   \   00000000   01FD               MOVW    R31:R30, R27:R26
   \                     ??Subroutine168_0:
   \   00000002   0FE0               ADD     R30, R16
   \   00000004   1FF1               ADC     R31, R17
   \   00000006   9508               RET

   \                                 In segment FARCODE, align 2, keep-with-next
   \                     ?Subroutine43:
   \   00000000   8148               LD      R20, Y
   \   00000002   8159               LDD     R21, Y+1
   \   00000004   019D               MOVW    R19:R18, R27:R26
   \   00000006   5F2F               SUBI    R18, 255
   \   00000008   4F3F               SBCI    R19, 255
   \   0000000A   EF0F               LDI     R16, 255
   \   0000000C   EF1F               LDI     R17, 255
   \   0000000E   ....               RCALL   pppfcs16
   \   00000010   EF2F               LDI     R18, 255
   \   00000012   EF3F               LDI     R19, 255
   \   00000014   2720               EOR     R18, R16
   \   00000016   2731               EOR     R19, R17
   \   00000018   8328               ST      Y, R18
   \   0000001A   8339               STD     Y+1, R19
   \   0000001C   ....               LDI     R30, LOW(vol_tx_ppp)
   \   0000001E   ....               LDI     R31, (vol_tx_ppp) >> 8
   \   00000020   8100               LD      R16, Z
   \   00000022   8111               LDD     R17, Z+1
   \   00000024   01FD               MOVW    R31:R30, R27:R26
   \   00000026   0FE0               ADD     R30, R16
   \   00000028   1FF1               ADC     R31, R17
   \   0000002A   9733               SBIW    R31:R30, 3
   \   0000002C   8320               ST      Z, R18
   \   0000002E   8129               LDD     R18, Y+1
   \   00000030   8321               STD     Z+1, R18
   \   00000032   E70E               LDI     R16, 126
   \   00000034   8302               STD     Z+2, R16
   \                     ??Subroutine43_0:
   \   00000036   E000               LDI     R16, 0
   \   00000038   ....               LDI     R30, LOW(count_tx_ppp)
   \   0000003A   ....               LDI     R31, (count_tx_ppp) >> 8
   \   0000003C   8300               ST      Z, R16
   \   0000003E   8301               STD     Z+1, R16
   \   00000040   ....               RJMP    ?Subroutine298

   \                                 In segment FARCODE, align 2, keep-with-next
   \                     ?Subroutine39:
   \   00000000   4F1F               SBCI    R17, 255
   \   00000002   ........           CALL    RdFromFleshToArr
   \   00000006   8108               LD      R16, Y
   \   00000008   2300               TST     R16
   \   0000000A   9508               RET

   \                                 In segment FARCODE, align 2, keep-with-next
   \                     ?Subroutine26:
   \   00000000   E010               LDI     R17, 0
   \   00000002   ........           CALL    RdFromFleshToArr
   \   00000006   E041               LDI     R20, 1
   \   00000008   E050               LDI     R21, 0
   \   0000000A   019E               MOVW    R19:R18, R29:R28
   \   0000000C                      REQUIRE ?Subroutine258
   \   0000000C                      ;               // Fall through to label ?Subroutine258

   \                                 In segment FARCODE, align 2, keep-with-next
   \                     ?Subroutine258:
   \   00000000   810A               LDD     R16, Y+2
   \   00000002   E010               LDI     R17, 0
   \   00000004   9508               RET

   \                                 In segment FARCODE, align 2, keep-with-next
   \                     ?Subroutine25:
   \   00000000   01FD               MOVW    R31:R30, R27:R26
   \   00000002   8307               STD     Z+7, R16
   \   00000004   8148               LD      R20, Y
   \   00000006   E050               LDI     R21, 0
   \   00000008   019D               MOVW    R19:R18, R27:R26
   \   0000000A   5F28               SUBI    R18, 248
   \   0000000C   4F3F               SBCI    R19, 255
   \   0000000E   ....               RJMP    ?Subroutine258

   \                                 In segment FARCODE, align 2, keep-with-next
   \                     ?Subroutine20:
   \   00000000   4F1F               SBCI    R17, 255
   \   00000002   ........           CALL    RdFromFleshToArr
   \   00000006   E041               LDI     R20, 1
   \   00000008   E050               LDI     R21, 0
   \   0000000A   019E               MOVW    R19:R18, R29:R28
   \   0000000C   5F2F               SUBI    R18, 255
   \   0000000E   4F3F               SBCI    R19, 255
   \   00000010   816A               LDD     R22, Y+2
   \   00000012   8108               LD      R16, Y
   \   00000014   E010               LDI     R17, 0
   \   00000016   0F06               ADD     R16, R22
   \   00000018                      REQUIRE ?Subroutine267
   \   00000018                      ;               // Fall through to label ?Subroutine267

   \                                 In segment FARCODE, align 2, keep-with-next
   \                     ?Subroutine267:
   \   00000000   1F15               ADC     R17, R21
   \   00000002   9508               RET

   \                                 In segment FARCODE, align 2, keep-with-next
   \                     ?Subroutine19:
   \   00000000   01FD               MOVW    R31:R30, R27:R26
   \   00000002   8107               LDD     R16, Z+7
   \   00000004   E010               LDI     R17, 0
   \   00000006   0FE0               ADD     R30, R16
   \   00000008   1FF1               ADC     R31, R17
   \   0000000A   8740               STD     Z+8, R20
   \   0000000C   E050               LDI     R21, 0
   \   0000000E   01FD               MOVW    R31:R30, R27:R26
   \   00000010   8107               LDD     R16, Z+7
   \   00000012   019D               MOVW    R19:R18, R27:R26
   \   00000014   0F20               ADD     R18, R16
   \   00000016   1F35               ADC     R19, R21
   \   00000018   5F27               SUBI    R18, 247
   \   0000001A   4F3F               SBCI    R19, 255
   \   0000001C   816A               LDD     R22, Y+2
   \   0000001E   8108               LD      R16, Y
   \   00000020   0F06               ADD     R16, R22
   \   00000022   1F11               ADC     R17, R17
   \   00000024   9508               RET

   \                                 In segment FARCODE, align 2, keep-with-next
   \                     ?Subroutine32:
   \   00000000   EF0F               LDI     R16, 255
   \   00000002   01FD               MOVW    R31:R30, R27:R26
   \   00000004   8301               STD     Z+1, R16
   \   00000006   E003               LDI     R16, 3
   \   00000008   8302               STD     Z+2, R16
   \   0000000A   8108               LD      R16, Y
   \   0000000C   8119               LDD     R17, Y+1
   \   0000000E   5F0E               SUBI    R16, 254
   \   00000010   4F1F               SBCI    R17, 255
   \   00000012   8308               ST      Y, R16
   \   00000014   8319               STD     Y+1, R17
   \   00000016   01C8               MOVW    R25:R24, R17:R16
   \   00000018   9604               ADIW    R25:R24, 4
   \   0000001A   ....               LDI     R30, LOW(vol_tx_ppp)
   \   0000001C   ....               LDI     R31, (vol_tx_ppp) >> 8
   \   0000001E   8380               ST      Z, R24
   \   00000020   8391               STD     Z+1, R25
   \   00000022   9508               RET

   \                                 In segment FARCODE, align 2, keep-with-next
   \                     ?Subroutine45:
   \   00000000   E000               LDI     R16, 0
   \   00000002   ....               RJMP    ??Subroutine249_0

   \                                 In segment FARCODE, align 2, keep-with-next
   \                     ?Subroutine298:
   \   00000000   ........           JMP     ?Subroutine248

   \                                 In segment FARCODE, align 2, keep-with-next
   \                     ?Subroutine171:
   \   00000000   5F0E               SUBI    R16, 254
   \   00000002                      REQUIRE ?Subroutine271
   \   00000002                      ;               // Fall through to label ?Subroutine271

   \                                 In segment FARCODE, align 2, keep-with-next
   \                     ?Subroutine271:
   \   00000000   4F1F               SBCI    R17, 255
   \   00000002   9508               RET

   \                                 In segment FARCODE, align 2, keep-with-next
   \                     ?Subroutine119:
   \   00000000   01FD               MOVW    R31:R30, R27:R26
   \   00000002   0FE8               ADD     R30, R24
   \   00000004   1FF9               ADC     R31, R25
   \   00000006   9508               RET

   \                                 In segment FARCODE, align 2, keep-with-next
   \                     ?Subroutine40:
   \   00000000   4F1F               SBCI    R17, 255
   \   00000002   ....               RJMP    ??Subroutine287_0

   \                                 In segment FARCODE, align 2, keep-with-next
   \                     ?Subroutine138:
   \   00000000   E030               LDI     R19, 0
   \                     ??Subroutine138_0:
   \   00000002   0FE2               ADD     R30, R18
   \   00000004   1FF3               ADC     R31, R19
   \   00000006   9508               RET
   1034          
   1035          
   1036          
   1037          

   \                                 In segment FARCODE, align 2, keep-with-next
   1038          void monitor_event_PAP(void)
   \                     monitor_event_PAP:
   1039              {
   \   00000000   019D               MOVW    R19:R18, R27:R26
   1040               if (fl_pap.up==1)      //UP
   \   00000002   ....               RCALL   ?Subroutine55
   \                     ??CrossCallReturnLabel_92:
   \   00000004   8501               LDD     R16, Z+9
   \   00000006   ....               LDI     R26, LOW(ip_pri_dns)
   \   00000008   ....               LDI     R27, (ip_pri_dns) >> 8
   \   0000000A   8116               LDD     R17, Z+6
   \   0000000C   FF14               SBRS    R17, 4
   \   0000000E   C00F               RJMP    ??monitor_event_PAP_0
   1041                   {
   1042                   fl_pap.up=0; 
   \   00000010   7E1F               ANDI    R17, 0xEF
   \   00000012   8316               STD     Z+6, R17
   1043                     switch(PAP_state)
   \   00000014   950A               DEC     R16
   \   00000016   F591               BRNE    ??monitor_event_PAP_1
   1044                         {
   1045                          case START_ST:                                                                
   1046                                      vol_cnt_rst_pap=VOL_PAP_MC;  
   \   00000018   E005               LDI     R16, 5
   \   0000001A   965C               ADIW    R27:R26, 28
   \   0000001C   930C               ST      X, R16
   1047                                     
   1048                                     // IRC;   //!!!!!!!!!!!!!!111                                            
   1049                                      cnt_pap_tm_out=VOL_PAP_TM_OUT; 
   \   0000001E   ....               RCALL   ?Subroutine174
   1050                                     // cnt_rst_pap=vol_cnt_rst_pap;
   1051                                      fl_pap.pap_tm_out_en=1; 
   1052                                      fl_pap.act_pap_end=1;  
   \                     ??CrossCallReturnLabel_278:
   \   00000020   8106               LDD     R16, Z+6
   \   00000022   6003               ORI     R16, 0x03
   \   00000024   8306               STD     Z+6, R16
   1053                                      pap_act_buf=SCR;                    
   \                     ??monitor_event_PAP_2:
   \   00000026   E006               LDI     R16, 6
   \   00000028   8700               STD     Z+8, R16
   1054                                      PAP_state=SEND_REQ; 
   \   0000002A   8701               STD     Z+9, R16
   1055                          return;
   \   0000002C   C027               RJMP    ??monitor_event_PAP_1
   1056                         }
   1057                      
   1058                   return;
   1059                   }
   1060               
   1061              
   1062               
   1063               if(fl_pap.t0_pl==1)        //TO_PL
   \                     ??monitor_event_PAP_0:
   \   0000002E   FF12               SBRS    R17, 2
   \   00000030   C006               RJMP    ??monitor_event_PAP_3
   1064                  {
   1065                   fl_pap.t0_pl=0; 
   \   00000032   7F1B               ANDI    R17, 0xFB
   \   00000034   8316               STD     Z+6, R17
   1066                   switch(PAP_state)
   \   00000036   5006               SUBI    R16, 6
   \   00000038   F509               BRNE    ??monitor_event_PAP_1
   1067                         {                     
   1068                                         
   1069                          case SEND_REQ:
   1070                                     // vol_cnt_rst_pap=VOL_PAP_MC;                                                    
   1071                                      cnt_pap_tm_out=VOL_PAP_TM_OUT; 
   \   0000003A   ....               RCALL   ?Subroutine174
   1072                                      pap_act_buf=SCR;               
   \                     ??CrossCallReturnLabel_279:
   \   0000003C   CFF4               RJMP    ??monitor_event_PAP_2
   1073                                      PAP_state=SEND_REQ;
   1074                                      return;
   1075                                                                                      
   1076                         } 
   1077                      
   1078                   return;
   1079                  }       
   1080                 
   1081                   
   1082               
   1083               switch (PAP_event)
   \                     ??monitor_event_PAP_3:
   \   0000003E   961C               ADIW    R27:R26, 12
   \   00000040   911C               LD      R17, X
   \   00000042   971C               SBIW    R27:R26, 12
   \   00000044   5018               SUBI    R17, 8
   \   00000046   F4D1               BRNE    ??monitor_event_PAP_1
   1084                  {
   1085                 
   1086                         
   1087                 
   1088                  case RCA:  
   1089                     
   1090                  
   1091                      PAP_event=NO_EVENT;
   \   00000048   EF1F               LDI     R17, 255
   \   0000004A   961C               ADIW    R27:R26, 12
   \   0000004C   931C               ST      X, R17
   \   0000004E   971C               SBIW    R27:R26, 12
   1092                      switch(PAP_state)
   \   00000050   5006               SUBI    R16, 6
   \   00000052   F4A1               BRNE    ??monitor_event_PAP_1
   1093                         {                     
   1094          
   1095                        
   1096                          case SEND_REQ:                                                                                                     
   1097                                      //TLU;  
   1098                                      
   1099                                      fl_pap.up=0;  
   \   00000054   8106               LDD     R16, Z+6
   \   00000056   7E0F               ANDI    R16, 0xEF
   \   00000058   8306               STD     Z+6, R16
   1100                                      PAP_state=OPEN_ST; 
   \   0000005A   E009               LDI     R16, 9
   \   0000005C   8701               STD     Z+9, R16
   1101                                      IPCP_state=START_ST;  
   \   0000005E   E001               LDI     R16, 1
   \   00000060   961E               ADIW    R27:R26, 14
   \   00000062   930C               ST      X, R16
   \   00000064   971E               SBIW    R27:R26, 14
   1102                                      fl_ipcp.act_ipcp_end=1; 
   \   00000066   8104               LDD     R16, Z+4
   \   00000068   6001               ORI     R16, 0x01
   \   0000006A   8304               STD     Z+4, R16
   1103                                      fl_ipcp1.up=1;
   1104                                      fl_ipcp1.down=0;
   \   0000006C   01FD               MOVW    R31:R30, R27:R26
   \   0000006E   8502               LDD     R16, Z+10
   \   00000070   7F0D               ANDI    R16, 0xFD
   \   00000072   6001               ORI     R16, 0x01
   \   00000074   8702               STD     Z+10, R16
   1105                                      layer_PPP=LAYER_IPCP;
   \   00000076   E003               LDI     R16, 3
   \   00000078   9300....           STS     layer_PPP, R16
   1106          
   1107                                      return;
   \                     ??monitor_event_PAP_1:
   \   0000007C   01D9               MOVW    R27:R26, R19:R18
   \   0000007E   9508               RET
   1108                                                                                           
   1109                         }  
   1110                       return; 
   1111                  
   1112              
   1113              }
   1114           }

   \                                 In segment FARCODE, align 2, keep-with-next
   \                     ?Subroutine174:
   \   00000000   EB08               LDI     R16, 184
   \   00000002   E01B               LDI     R17, 11
   \   00000004   ....               LDI     R26, LOW(cnt_pap_tm_out)
   \   00000006   ....               LDI     R27, (cnt_pap_tm_out) >> 8
   \   00000008   930D               ST      X+, R16
   \   0000000A   931C               ST      X, R17
   \   0000000C   9508               RET
   1115          
   1116          
   1117          
   1118          

   \                                 In segment FARCODE, align 2, keep-with-next
   1119          void monitor_act_LCP(void)
   \                     monitor_act_LCP:
   1120                {  
   \   00000000   ....               RCALL   ?Subroutine62
   1121                 
   1122                 if((uk_in_act_LCP!=uk_out_act_LCP)&&(fl_lcp.act_lcp_end==1)&&(fl_pap.act_pap_end==1)&&(fl_ipcp.act_ipcp_end==1)&&(fl_ip.act_ip_end==1))
   \                     ??CrossCallReturnLabel_103:
   \   00000002   ....               LDI     R26, LOW((cnt_lcp_tm_out + 25))
   \   00000004   ....               LDI     R27, HIGH((cnt_lcp_tm_out + 25))
   \   00000006   910D               LD      R16, X+
   \   00000008   911C               LD      R17, X
   \   0000000A   975A               SBIW    R27:R26, 26
   \   0000000C   1701               CP      R16, R17
   \   0000000E   F069               BREQ    ??monitor_act_LCP_0
   \   00000010   ....               RCALL   ?Subroutine132
   \                     ??CrossCallReturnLabel_216:
   \   00000012   F059               BREQ    ??monitor_act_LCP_0
   1123                  {   
   1124                  run_lcp_act();
   \   00000014   ....               RCALL   run_lcp_act
   1125                  uk_out_act_LCP++;  
   \   00000016   965A               ADIW    R27:R26, 26
   \   00000018   910C               LD      R16, X
   \   0000001A   9503               INC     R16
   \   0000001C   930C               ST      X, R16
   1126                  if (uk_out_act_LCP>=LCP_ACT_VOL)uk_out_act_LCP=0; 
   \   0000001E   975A               SBIW    R27:R26, 26
   \   00000020   300F               CPI     R16, 15
   \   00000022   F018               BRCS    ??monitor_act_LCP_0
   \   00000024   E000               LDI     R16, 0
   \   00000026   965A               ADIW    R27:R26, 26
   \   00000028   930C               ST      X, R16
   1127                  }
   1128                }
   \                     ??monitor_act_LCP_0:
   \   0000002A   ....               RJMP    ?Subroutine93

   \                                 In segment FARCODE, align 2, keep-with-next
   \                     ?Subroutine132:
   \   00000000   9613               ADIW    R27:R26, 3
   \   00000002   910C               LD      R16, X
   \   00000004   9613               ADIW    R27:R26, 3
   \   00000006   7001               ANDI    R16, 0x01
   \   00000008   911C               LD      R17, X
   \   0000000A   9712               SBIW    R27:R26, 2
   \   0000000C   7011               ANDI    R17, 0x01
   \   0000000E   2310               AND     R17, R16
   \   00000010   910D               LD      R16, X+
   \   00000012   7001               ANDI    R16, 0x01
   \   00000014   2301               AND     R16, R17
   \   00000016   911C               LD      R17, X
   \   00000018   9715               SBIW    R27:R26, 5
   \   0000001A   7011               ANDI    R17, 0x01
   \   0000001C   2310               AND     R17, R16
   \   0000001E   9508               RET
   1129           
   1130           
   1131            

   \                                 In segment FARCODE, align 2, keep-with-next
   1132          void monitor_event_LCP(void)
   \                     monitor_event_LCP:
   1133              {
   \   00000000   ....               RCALL   ?Subroutine90
   1134               if (fl_lcp1.up==1)      //UP
   \                     ??CrossCallReturnLabel_135:
   \   00000002   ....               LDI     R24, LOW(fl_lcp1)
   \   00000004   ....               LDI     R25, (fl_lcp1) >> 8
   \   00000006   01FC               MOVW    R31:R30, R25:R24
   \   00000008   8121               LDD     R18, Z+1
   \   0000000A   ....               LDI     R26, LOW(cnt_lcp_tm_out)
   \   0000000C   ....               LDI     R27, (cnt_lcp_tm_out) >> 8
   \   0000000E   8100               LD      R16, Z
   \   00000010   FF00               SBRS    R16, 0
   \   00000012   C010               RJMP    ??monitor_event_LCP_0
   1135                   {  
   1136                   
   1137                    
   1138                   fl_lcp1.up=0; 
   \   00000014   7F0E               ANDI    R16, 0xFE
   \   00000016   8300               ST      Z, R16
   1139                     switch(LCP_state)
   \   00000018   952A               DEC     R18
   \   0000001A   F459               BRNE    ??monitor_event_LCP_1
   1140                         {
   1141                          case START_ST:                                                                
   1142          
   1143                                     // vol_cnt_rst_lcp=VOL_LCP_MC;  
   1144                                      LCP_act_buf[uk_in_act_LCP]=IRC;  
   \                     ??monitor_event_LCP_2:
   \   0000001C   E004               LDI     R16, 4
   \                     ??monitor_event_LCP_3:
   \   0000001E   01FD               MOVW    R31:R30, R27:R26
   \   00000020   8D21               LDD     R18, Z+25
   \   00000022   ........           CALL    ?Subroutine138
   \                     ??CrossCallReturnLabel_232:
   \   00000026   ....               RCALL   ?Subroutine279
   1145                                      prov_uk_in();                    
   1146                                      LCP_act_buf[uk_in_act_LCP]=SCR;  
   \                     ??CrossCallReturnLabel_567:
   \   00000028   E006               LDI     R16, 6
   \                     ??monitor_event_LCP_4:
   \   0000002A   ....               RCALL   ?Subroutine115
   1147                                      prov_uk_in();                    
   1148                                      LCP_state=SEND_REQ;  
   \                     ??CrossCallReturnLabel_565:
   \   0000002C   E006               LDI     R16, 6
   \                     ??monitor_event_LCP_5:
   \   0000002E   01FC               MOVW    R31:R30, R25:R24
   \   00000030   8301               STD     Z+1, R16
   1149                                      
   1150                       
   1151                                     
   1152                          return;
   \                     ??monitor_event_LCP_1:
   \   00000032   ....               RJMP    ??Subroutine278_0
   1153                         }
   1154                      
   1155                   return;
   1156                   }
   1157               
   1158              
   1159               
   1160               if(fl_lcp.t0_pl==1)        //TO_PL
   \                     ??monitor_event_LCP_0:
   \   00000034   01FD               MOVW    R31:R30, R27:R26
   \   00000036   8D41               LDD     R20, Z+25
   \   00000038   E050               LDI     R21, 0
   \   0000003A   018D               MOVW    R17:R16, R27:R26
   \   0000003C   ........           CALL    ?Subroutine176
   \                     ??CrossCallReturnLabel_497:
   \   00000040   8133               LDD     R19, Z+3
   \   00000042   FF32               SBRS    R19, 2
   \   00000044   C00D               RJMP    ??monitor_event_LCP_6
   1161                  {
   1162                   fl_lcp.t0_pl=0; 
   \   00000046   7F3B               ANDI    R19, 0xFB
   \   00000048   8333               STD     Z+3, R19
   1163                   switch(LCP_state)
   \   0000004A   5026               SUBI    R18, 6
   \   0000004C   F339               BREQ    ??monitor_event_LCP_2
   \   0000004E   952A               DEC     R18
   \   00000050   F329               BREQ    ??monitor_event_LCP_2
   \   00000052   952A               DEC     R18
   \   00000054   F771               BRNE    ??monitor_event_LCP_1
   1164                         {                     
   1165                                         
   1166                          
   1167                          case SEND_REQ:
   1168                                    //  vol_cnt_rst_lcp=VOL_LCP_MC;                                                    
   1169                                      LCP_act_buf[uk_in_act_LCP]=IRC;  
   1170                                      prov_uk_in();
   1171                                      LCP_act_buf[uk_in_act_LCP]=SCR;  
   1172                                      prov_uk_in();                 
   1173                                      LCP_state=SEND_REQ;
   1174                                      return;
   1175                          case REC_ACK:      
   1176                                     // vol_cnt_rst_lcp=VOL_LCP_MC;                                              
   1177                                      LCP_act_buf[uk_in_act_LCP]=IRC;  
   1178                                      prov_uk_in();
   1179                                      LCP_act_buf[uk_in_act_LCP]=SCR;  
   1180                                      prov_uk_in();                 
   1181                                      LCP_state=SEND_REQ;
   1182                                      return;
   1183                          case SEND_ACK: 
   1184                                     // vol_cnt_rst_lcp=VOL_LCP_MC;                                                   
   1185                                      LCP_act_buf[uk_in_act_LCP]=IRC;  
   \                     ??monitor_event_LCP_7:
   \   00000056   ....               RCALL   ?Subroutine95
   1186                                      prov_uk_in();
   1187                                      LCP_act_buf[uk_in_act_LCP]=SCR;  
   \                     ??CrossCallReturnLabel_561:
   \   00000058   E006               LDI     R16, 6
   \                     ??monitor_event_LCP_8:
   \   0000005A   ....               RCALL   ?Subroutine115
   1188                                      prov_uk_in();                 
   1189                                      LCP_state=SEND_ACK;
   \                     ??CrossCallReturnLabel_564:
   \   0000005C   E008               LDI     R16, 8
   \   0000005E   CFE7               RJMP    ??monitor_event_LCP_5
   1190                                      return;                                                              
   1191                         } 
   1192                      
   1193                   return;
   1194                  }  
   1195               
   1196               switch (LCP_event)
   \                     ??monitor_event_LCP_6:
   \   00000060   ....               LDI     R30, LOW(ip_pri_dns)
   \   00000062   ....               LDI     R31, (ip_pri_dns) >> 8
   \   00000064   8535               LDD     R19, Z+13
   \   00000066   5036               SUBI    R19, 6
   \   00000068   F039               BREQ    ??monitor_event_LCP_9
   \   0000006A   953A               DEC     R19
   \   0000006C   F0E1               BREQ    ??monitor_event_LCP_10
   \   0000006E   953A               DEC     R19
   \   00000070   F159               BREQ    ??monitor_event_LCP_11
   \   00000072   953A               DEC     R19
   \   00000074   F1D1               BREQ    ??monitor_event_LCP_12
   \   00000076   CFDD               RJMP    ??monitor_event_LCP_1
   1197                  {
   1198                  case RCR_PL:  
   1199                      LCP_event=NO_EVENT; 
   \                     ??monitor_event_LCP_9:
   \   00000078   ....               RCALL   ?Subroutine72
   1200                      switch(LCP_state)
   \                     ??CrossCallReturnLabel_505:
   \   0000007A   F039               BREQ    ??monitor_event_LCP_13
   \   0000007C   952A               DEC     R18
   \   0000007E   F039               BREQ    ??monitor_event_LCP_14
   \   00000080   952A               DEC     R18
   \   00000082   F019               BREQ    ??monitor_event_LCP_13
   \   00000084   952A               DEC     R18
   \   00000086   F069               BREQ    ??monitor_event_LCP_15
   \   00000088   CFD4               RJMP    ??monitor_event_LCP_1
   1201                         {                     
   1202                         
   1203                          case SEND_REQ:                                                                
   1204                                      LCP_act_buf[uk_in_act_LCP]=SCA;  
   \                     ??monitor_event_LCP_13:
   \   0000008A   E007               LDI     R16, 7
   \   0000008C   CFE6               RJMP    ??monitor_event_LCP_8
   1205                                      prov_uk_in();                 
   1206                                      LCP_state=SEND_ACK;   
   1207          
   1208                                      return;
   1209                          case REC_ACK:
   1210                  
   1211                                      LCP_act_buf[uk_in_act_LCP]=SCA;  
   \                     ??monitor_event_LCP_14:
   \   0000008E   E027               LDI     R18, 7
   \                     ??monitor_event_LCP_16:
   \   00000090   ....               RCALL   ??Subroutine95_0
   1212                                      prov_uk_in();       
   1213                                      LCP_act_buf[uk_in_act_LCP]=TLU;  
   \                     ??CrossCallReturnLabel_559:
   \   00000092   ....               RCALL   ?Subroutine45
   \                     ??CrossCallReturnLabel_386:
   \   00000094   8D21               LDD     R18, Z+25
   \   00000096   0FA2               ADD     R26, R18
   \   00000098   1FB0               ADC     R27, R16
   \   0000009A   01FD               MOVW    R31:R30, R27:R26
   \   0000009C   ....               RCALL   ?Subroutine279
   1214                                      prov_uk_in();          
   1215                                      LCP_state=OPEN_ST;  
   \                     ??CrossCallReturnLabel_566:
   \   0000009E   E009               LDI     R16, 9
   \   000000A0   CFC6               RJMP    ??monitor_event_LCP_5
   1216                                     
   1217                                      return;
   1218                          case SEND_ACK:                                                                
   1219                                      LCP_act_buf[uk_in_act_LCP]=SCA;  
   1220                                      prov_uk_in();                 
   1221                                      LCP_state=SEND_ACK; 
   1222                             
   1223                                      return;
   1224                          case OPEN_ST:      
   1225                                      LCP_act_buf[uk_in_act_LCP]=TLD;  
   \                     ??monitor_event_LCP_15:
   \   000000A2   ....               RCALL   ?Subroutine41
   1226                                      prov_uk_in();
   1227                                      LCP_act_buf[uk_in_act_LCP]=IRC;  
   1228                                      prov_uk_in();
   1229                                  //    vol_cnt_rst_lcp=VOL_LCP_MC; 
   1230                                      LCP_act_buf[uk_in_act_LCP]=SCR;  
   1231                                      prov_uk_in();                                                                
   \                     ??CrossCallReturnLabel_563:
   \   000000A4   CFF2               RJMP    ??monitor_event_LCP_13
   1232                                      LCP_act_buf[uk_in_act_LCP]=SCA;  
   1233                                      prov_uk_in();                 
   1234                                      LCP_state=SEND_ACK; 
   1235                             
   1236                                      return;                                                                    
   1237                         }  
   1238                       return; 
   1239                  case RCR_MI: 
   1240                      
   1241                      LCP_event=NO_EVENT;
   \                     ??monitor_event_LCP_10:
   \   000000A6   ....               RCALL   ?Subroutine72
   1242                      switch(LCP_state)
   \                     ??CrossCallReturnLabel_506:
   \   000000A8   F039               BREQ    ??monitor_event_LCP_17
   \   000000AA   952A               DEC     R18
   \   000000AC   F039               BREQ    ??monitor_event_LCP_18
   \   000000AE   952A               DEC     R18
   \   000000B0   F019               BREQ    ??monitor_event_LCP_17
   \   000000B2   952A               DEC     R18
   \   000000B4   F039               BREQ    ??monitor_event_LCP_19
   \   000000B6   CFBD               RJMP    ??monitor_event_LCP_1
   1243                         {                     
   1244          
   1245                         
   1246                          case SEND_REQ:                                                                
   1247                                      
   1248                                 
   1249                                      LCP_act_buf[uk_in_act_LCP]=SCN;  
   \                     ??monitor_event_LCP_17:
   \   000000B8   E008               LDI     R16, 8
   \   000000BA   CFB7               RJMP    ??monitor_event_LCP_4
   1250                                      prov_uk_in();                 
   1251                                      LCP_state=SEND_REQ;    
   1252                               
   1253                                      return;
   1254                          case REC_ACK:                                                                
   1255                                      LCP_act_buf[uk_in_act_LCP]=SCN;  
   \                     ??monitor_event_LCP_18:
   \   000000BC   E028               LDI     R18, 8
   \                     ??monitor_event_LCP_20:
   \   000000BE   ....               RCALL   ??Subroutine95_0
   1256                                      prov_uk_in();              
   1257                                      LCP_state=REC_ACK;     
   \                     ??CrossCallReturnLabel_558:
   \   000000C0   E007               LDI     R16, 7
   \   000000C2   CFB5               RJMP    ??monitor_event_LCP_5
   1258                                     
   1259                                      return;
   1260                          case SEND_ACK:                                                                
   1261                                      LCP_act_buf[uk_in_act_LCP]=SCN;  
   1262                                      prov_uk_in();                 
   1263                                      LCP_state=SEND_REQ;
   1264                                   
   1265                                      return;
   1266                          case OPEN_ST:      
   1267                                      LCP_act_buf[uk_in_act_LCP]=TLD;  
   \                     ??monitor_event_LCP_19:
   \   000000C4   ....               RCALL   ?Subroutine41
   1268                                      prov_uk_in();   
   1269                                 //     vol_cnt_rst_lcp=VOL_LCP_MC;
   1270                                      LCP_act_buf[uk_in_act_LCP]=IRC;  
   1271                                      prov_uk_in();
   1272                                      LCP_act_buf[uk_in_act_LCP]=SCR;  
   1273                                      prov_uk_in();                                                                
   \                     ??CrossCallReturnLabel_562:
   \   000000C6   CFF8               RJMP    ??monitor_event_LCP_17
   1274                                      LCP_act_buf[uk_in_act_LCP]=SCN;  
   1275                                      prov_uk_in();                 
   1276                                      LCP_state=SEND_REQ;
   1277                                    
   1278                                      return;                                                                    
   1279                         }  
   1280                       return; 
   1281                  case RCA:    
   1282           
   1283            
   1284            
   1285                      LCP_event=NO_EVENT;
   \                     ??monitor_event_LCP_11:
   \   000000C8   ....               RCALL   ?Subroutine72
   1286                      switch(LCP_state)
   \                     ??CrossCallReturnLabel_507:
   \   000000CA   F041               BREQ    ??monitor_event_LCP_21
   \   000000CC   952A               DEC     R18
   \   000000CE   F409               BRNE    $+2+2
   \   000000D0   CFA5               RJMP    ??monitor_event_LCP_2
   \   000000D2   952A               DEC     R18
   \   000000D4   F029               BREQ    ??monitor_event_LCP_22
   \   000000D6   952A               DEC     R18
   \   000000D8   F029               BREQ    ??monitor_event_LCP_23
   \   000000DA   CFAB               RJMP    ??monitor_event_LCP_1
   1287                         {                     
   1288                          
   1289                        
   1290                          case SEND_REQ: 
   1291                                      
   1292                                    //  vol_cnt_rst_lcp=VOL_LCP_MC;  
   1293                                      LCP_act_buf[uk_in_act_LCP]=IRC;  
   \                     ??monitor_event_LCP_21:
   \   000000DC   E024               LDI     R18, 4
   \   000000DE   CFEF               RJMP    ??monitor_event_LCP_20
   1294                                      prov_uk_in();                                        
   1295                                      LCP_state=REC_ACK; 
   1296                               
   1297                                      return;
   1298                          case REC_ACK:       
   1299                                  //    vol_cnt_rst_lcp=VOL_LCP_MC;                                             
   1300                                      LCP_act_buf[uk_in_act_LCP]=IRC;  
   1301                                      prov_uk_in();
   1302                                      LCP_act_buf[uk_in_act_LCP]=SCR;  
   1303                                      prov_uk_in();                 
   1304                                      LCP_state=SEND_REQ;
   1305                                      return;
   1306                          case SEND_ACK:                                                                
   1307                                   //   vol_cnt_rst_lcp=VOL_LCP_MC;  
   1308                                      LCP_act_buf[uk_in_act_LCP]=IRC;  
   \                     ??monitor_event_LCP_22:
   \   000000E0   E024               LDI     R18, 4
   \   000000E2   CFD6               RJMP    ??monitor_event_LCP_16
   1309                                      prov_uk_in();                                        
   1310                                      LCP_act_buf[uk_in_act_LCP]=TLU;  
   1311                                      prov_uk_in();
   1312                                      LCP_state=OPEN_ST;
   1313          
   1314                                      return;
   1315                          case OPEN_ST:
   1316                                  //    vol_cnt_rst_lcp=VOL_LCP_MC;
   1317                                      LCP_act_buf[uk_in_act_LCP]=IRC;  
   \                     ??monitor_event_LCP_23:
   \   000000E4   ....               RCALL   ?Subroutine95
   1318                                      prov_uk_in();
   1319                                      LCP_act_buf[uk_in_act_LCP]=TLD;  
   \                     ??CrossCallReturnLabel_560:
   \   000000E6   E001               LDI     R16, 1
   \   000000E8   CF9A               RJMP    ??monitor_event_LCP_3
   1320                                      prov_uk_in();   
   1321                                      LCP_act_buf[uk_in_act_LCP]=SCR;  
   1322                                      prov_uk_in();                                                                               
   1323                                      LCP_state=SEND_REQ;
   1324                                   
   1325                                      return;                                                                    
   1326                         }  
   1327                       return; 
   1328                  case RCN: 
   1329                          LCP_event=NO_EVENT;
   \                     ??monitor_event_LCP_12:
   \   000000EA   ....               RCALL   ?Subroutine72
   1330                  switch(LCP_state)
   \                     ??CrossCallReturnLabel_508:
   \   000000EC   F409               BRNE    $+2+2
   \   000000EE   CF96               RJMP    ??monitor_event_LCP_2
   \   000000F0   952A               DEC     R18
   \   000000F2   F409               BRNE    $+2+2
   \   000000F4   CF93               RJMP    ??monitor_event_LCP_2
   \   000000F6   952A               DEC     R18
   \   000000F8   F409               BRNE    $+2+2
   \   000000FA   CFAD               RJMP    ??monitor_event_LCP_7
   \   000000FC   952A               DEC     R18
   \   000000FE   F009               BREQ    $+2+2
   \   00000100   CF98               RJMP    ??monitor_event_LCP_1
   1331                         {                     
   1332          
   1333                          
   1334                          case SEND_REQ:                                                                
   1335                                   //   vol_cnt_rst_lcp=VOL_LCP_MC;  
   1336                                      LCP_act_buf[uk_in_act_LCP]=IRC;  
   1337                                      prov_uk_in(); 
   1338                                      LCP_act_buf[uk_in_act_LCP]=SCR;  
   1339                                      prov_uk_in();                                       
   1340                                      LCP_state=SEND_REQ;
   1341                                    
   1342                                      return;
   1343                          case REC_ACK:     
   1344                                  //    vol_cnt_rst_lcp=VOL_LCP_MC;                                               
   1345                                      LCP_act_buf[uk_in_act_LCP]=IRC;  
   1346                                      prov_uk_in();
   1347                                      LCP_act_buf[uk_in_act_LCP]=SCR;  
   1348                                      prov_uk_in();                 
   1349                                      LCP_state=SEND_REQ;
   1350                                    
   1351                                      return;
   1352                          case SEND_ACK:                                                                
   1353                                  //    vol_cnt_rst_lcp=VOL_LCP_MC;  
   1354                                      LCP_act_buf[uk_in_act_LCP]=IRC;  
   1355                                      prov_uk_in();                                        
   1356                                      LCP_act_buf[uk_in_act_LCP]=SCR;  
   1357                                      prov_uk_in();
   1358                                      LCP_state=SEND_ACK;
   1359                                  
   1360                                      return;
   1361                          case OPEN_ST:      
   1362                                      LCP_act_buf[uk_in_act_LCP]=TLD;  
   \   00000102   E021               LDI     R18, 1
   \   00000104   ....               RCALL   ??Subroutine95_0
   1363                                      prov_uk_in(); 
   \                     ??CrossCallReturnLabel_557:
   \   00000106   CF8A               RJMP    ??monitor_event_LCP_2
   1364                                 //     vol_cnt_rst_lcp=VOL_LCP_MC;  
   1365                                      LCP_act_buf[uk_in_act_LCP]=IRC;  
   1366                                      prov_uk_in();
   1367                                      LCP_act_buf[uk_in_act_LCP]=SCR;  
   1368                                      prov_uk_in();                                                                               
   1369                                      LCP_state=SEND_REQ;
   1370                                
   1371                                      return;                                                                    
   1372                         }  
   1373                                                
   1374                  }
   1375              
   1376              }

   \                                 In segment FARCODE, align 2, keep-with-next
   \                     ?Subroutine115:
   \   00000000   01FD               MOVW    R31:R30, R27:R26
   \   00000002   8D21               LDD     R18, Z+25
   \   00000004   E030               LDI     R19, 0
   \   00000006   0FA2               ADD     R26, R18
   \   00000008   1FB3               ADC     R27, R19
   \   0000000A   01FD               MOVW    R31:R30, R27:R26
   \   0000000C   ....               RJMP    ?Subroutine279

   \                                 In segment FARCODE, align 2, keep-with-next
   \                     ?Subroutine95:
   \   00000000   E024               LDI     R18, 4
   \                     ??Subroutine95_0:
   \   00000002   01F8               MOVW    R31:R30, R17:R16
   \   00000004   8722               STD     Z+10, R18
   \   00000006   ....               RJMP    ??Subroutine279_0

   \                                 In segment FARCODE, align 2, keep-with-next
   \                     ?Subroutine72:
   \   00000000   EF3F               LDI     R19, 255
   \   00000002   8735               STD     Z+13, R19
   \   00000004                      REQUIRE ?Subroutine268
   \   00000004                      ;               // Fall through to label ?Subroutine268

   \                                 In segment FARCODE, align 2, keep-with-next
   \                     ?Subroutine268:
   \   00000000   5026               SUBI    R18, 6
   \   00000002   9508               RET

   \                                 In segment FARCODE, align 2, keep-with-next
   \                     ?Subroutine41:
   \   00000000   E021               LDI     R18, 1
   \   00000002   01F8               MOVW    R31:R30, R17:R16
   \   00000004   8722               STD     Z+10, R18
   \   00000006   ....               RCALL   prov_uk_in
   \   00000008   E004               LDI     R16, 4
   \   0000000A   01FD               MOVW    R31:R30, R27:R26
   \   0000000C   8D21               LDD     R18, Z+25
   \   0000000E   E030               LDI     R19, 0
   \   00000010   0FE2               ADD     R30, R18
   \   00000012   1FF3               ADC     R31, R19
   \   00000014   8702               STD     Z+10, R16
   \   00000016   ....               RCALL   prov_uk_in
   \   00000018   E006               LDI     R16, 6
   \   0000001A   01FD               MOVW    R31:R30, R27:R26
   \   0000001C   8D21               LDD     R18, Z+25
   \   0000001E   E030               LDI     R19, 0
   \   00000020   0FE2               ADD     R30, R18
   \   00000022   1FF3               ADC     R31, R19
   \   00000024                      REQUIRE ?Subroutine279
   \   00000024                      ;               // Fall through to label ?Subroutine279

   \                                 In segment FARCODE, align 2, keep-with-next
   \                     ?Subroutine279:
   \   00000000   8702               STD     Z+10, R16
   \                     ??Subroutine279_0:
   \   00000002   ....               RJMP    prov_uk_in

   \                                 In segment FARCODE, align 2, keep-with-next
   \                     ?Subroutine176:
   \   00000000   0F04               ADD     R16, R20
   \   00000002   ........           JMP     ?Subroutine267
   1377            
   1378            
   1379            ////////////////ěîíčňîđű IPCP        
   1380            

   \                                 In segment FARCODE, align 2, keep-with-next
   1381            void run_ipcp_act(void)
   \                     run_ipcp_act:
   1382                {  
   \   00000000   ....               RCALL   ?Subroutine90
   \                     ??CrossCallReturnLabel_136:
   \   00000002   9722               SBIW    R29:R28, 2
   1383                 unsigned char i;
   1384                 
   1385                 union
   1386               {
   1387                unsigned char bytes[2]; 
   1388                unsigned int word;
   1389               }temp;
   1390                
   1391                 
   1392                 switch (IPCP_act_buf[uk_out_act_IPCP])
   \   00000004   ....               LDI     R22, LOW(cnt_lcp_tm_out)
   \   00000006   ....               LDI     R23, (cnt_lcp_tm_out) >> 8
   \   00000008   01FB               MOVW    R31:R30, R23:R22
   \   0000000A   8152               LDD     R21, Z+2
   \   0000000C   ....               LDI     R18, LOW(ip_pri_dns)
   \   0000000E   ....               LDI     R19, (ip_pri_dns) >> 8
   \   00000010   01F9               MOVW    R31:R30, R19:R18
   \   00000012   8D07               LDD     R16, Z+31
   \   00000014   ....               RCALL   ?Subroutine69
   \                     ??CrossCallReturnLabel_113:
   \   00000016   01FB               MOVW    R31:R30, R23:R22
   \   00000018   8C04               LDD     R0, Z+28
   \   0000001A   2411               CLR     R1
   \   0000001C   01F9               MOVW    R31:R30, R19:R18
   \   0000001E   0DE0               ADD     R30, R0
   \   00000020   1DF1               ADC     R31, R1
   \   00000022   8910               LDD     R17, Z+16
   \   00000024   2311               TST     R17
   \   00000026   F061               BREQ    ??run_ipcp_act_0
   \   00000028   5014               SUBI    R17, 4
   \   0000002A   F1C9               BREQ    ??run_ipcp_act_1
   \   0000002C   5012               SUBI    R17, 2
   \   0000002E   F409               BRNE    $+2+2
   \   00000030   C042               RJMP    ??run_ipcp_act_2
   \   00000032   951A               DEC     R17
   \   00000034   F409               BRNE    $+2+2
   \   00000036   C08E               RJMP    ??run_ipcp_act_3
   \   00000038   951A               DEC     R17
   \   0000003A   F409               BRNE    $+2+2
   \   0000003C   C0B3               RJMP    ??run_ipcp_act_4
   \   0000003E   C10F               RJMP    ??run_ipcp_act_5
   1393                    {
   1394                     case TLU:     
   1395          
   1396                          event_modem=EVM_PPP_OK;
   \                     ??run_ipcp_act_0:
   \   00000040   E004               LDI     R16, 4
   \   00000042   9300....           STS     event_modem, R16
   1397           
   1398                          layer_PPP=LAYER_IP;   
   \   00000046   9300....           STS     layer_PPP, R16
   1399                          fl_ip.act_ip_end=1;   
   \   0000004A   01FB               MOVW    R31:R30, R23:R22
   \   0000004C   8105               LDD     R16, Z+5
   \   0000004E   6001               ORI     R16, 0x01
   \   00000050   8305               STD     Z+5, R16
   1400                          fl_ipcp.act_ipcp_end=1; 
   \   00000052   8104               LDD     R16, Z+4
   \   00000054   6001               ORI     R16, 0x01
   \   00000056   8304               STD     Z+4, R16
   1401                       
   1402                            Control.link_waits=FALSE; 
   \   00000058   ....               LDI     R26, LOW(Control)
   \   0000005A   ....               LDI     R27, (Control) >> 8
   \   0000005C   01FD               MOVW    R31:R30, R27:R26
   \   0000005E   8211               STD     Z+1, R1
   1403                            Control.link=FALSE;  
   \   00000060   8212               STD     Z+2, R1
   1404                            Control.nat=FALSE;
   \   00000062   8213               STD     Z+3, R1
   1405                          
   1406                         if(Control.vol_link!=0)fl_ip.ip_tm_cntr_en=1;
   \   00000064   8500               LDD     R16, Z+8
   \   00000066   8511               LDD     R17, Z+9
   \   00000068   2B01               OR      R16, R17
   \   0000006A   F021               BREQ    ??run_ipcp_act_6
   \   0000006C   01FB               MOVW    R31:R30, R23:R22
   \   0000006E   8105               LDD     R16, Z+5
   \   00000070   6002               ORI     R16, 0x02
   \   00000072   8305               STD     Z+5, R16
   1407                         if(Control.vol_nat!=0)fl_ip.ip_tm_nat_en=1;
   \                     ??run_ipcp_act_6:
   \   00000074   01FD               MOVW    R31:R30, R27:R26
   \   00000076   8502               LDD     R16, Z+10
   \   00000078   8513               LDD     R17, Z+11
   \   0000007A   2B01               OR      R16, R17
   \   0000007C   F021               BREQ    ??run_ipcp_act_7
   \   0000007E   01FB               MOVW    R31:R30, R23:R22
   \   00000080   8105               LDD     R16, Z+5
   \   00000082   6004               ORI     R16, 0x04
   \   00000084   8305               STD     Z+5, R16
   1408                         Control.cnt_try=0;
   \                     ??run_ipcp_act_7:
   \   00000086   01FD               MOVW    R31:R30, R27:R26
   \   00000088   8616               STD     Z+14, R1
   1409                         Control.cnt_link=BEG_CNTR_LINK;
   \   0000008A   E00A               LDI     R16, 10
   \   0000008C   8304               STD     Z+4, R16
   \   0000008E   8215               STD     Z+5, R1
   1410                         clr_cntr_nat();
   \   00000090   ....               RCALL   ?Subroutine307
   1411                         
   1412                         Control.cnt_nat=BEG_CNTR_LINK-1; // ďóńňîé ďŕęĺň!!!!
   \                     ??CrossCallReturnLabel_741:
   \   00000092   E009               LDI     R16, 9
   \   00000094   E010               LDI     R17, 0
   \   00000096   01FD               MOVW    R31:R30, R27:R26
   \   00000098   8306               STD     Z+6, R16
   \   0000009A   8317               STD     Z+7, R17
   \   0000009C   C0E0               RJMP    ??run_ipcp_act_5
   1413                         
   1414                        break;
   1415                     
   1416                    
   1417                   
   1418                     case IRC:                   
   1419                          fl_ipcp.act_ipcp_end=0;
   1420                          cnt_ipcp_tm_out=VOL_IPCP_TM_OUT; 
   \                     ??run_ipcp_act_1:
   \   0000009E   EB08               LDI     R16, 184
   \   000000A0   E01B               LDI     R17, 11
   \   000000A2   01F9               MOVW    R31:R30, R19:R18
   \   000000A4   ........           CALL    ?Subroutine128
   1421                          cnt_rst_ipcp=vol_cnt_rst_ipcp;
   \                     ??CrossCallReturnLabel_208:
   \   000000A8   8D03               LDD     R16, Z+27
   \   000000AA   8F02               STD     Z+26, R16
   1422                          fl_ipcp.ipcp_tm_out_en=1; 
   1423                          fl_ipcp.act_ipcp_end=1; 
   \   000000AC   01FB               MOVW    R31:R30, R23:R22
   \   000000AE   8104               LDD     R16, Z+4
   \   000000B0   6003               ORI     R16, 0x03
   \   000000B2   8304               STD     Z+4, R16
   \   000000B4   C0D4               RJMP    ??run_ipcp_act_5
   1424                               
   1425                          break;
   1426                     
   1427                     case SCR:    
   1428          
   1429                           fl_ipcp.act_ipcp_end=0;
   \                     ??run_ipcp_act_2:
   \   000000B6   01FB               MOVW    R31:R30, R23:R22
   \   000000B8   8104               LDD     R16, Z+4
   \   000000BA   7F0E               ANDI    R16, 0xFE
   \   000000BC   8304               STD     Z+4, R16
   1430                           
   1431                           
   1432                           
   1433                           
   1434                           buf_tx_232[0]=0x7e;               
   \   000000BE   E70E               LDI     R16, 126
   \   000000C0   930C               ST      X, R16
   1435                           
   1436                           
   1437                           if(compress_off==0)
   \   000000C2   ....               LDI     R16, LOW(ip_self)
   \   000000C4   ....               LDI     R17, (ip_self) >> 8
   \   000000C6   01F8               MOVW    R31:R30, R17:R16
   \   000000C8   8173               LDD     R23, Z+3
   \   000000CA   8162               LDD     R22, Z+2
   \   000000CC   8141               LDD     R20, Z+1
   \   000000CE   01F9               MOVW    R31:R30, R19:R18
   \   000000D0   8D36               LDD     R19, Z+30
   \   000000D2   2355               TST     R21
   \   000000D4   F4F9               BRNE    ??run_ipcp_act_8
   1438                           {
   1439                           buf_tx_232[1]=0x80;
   \   000000D6   E820               LDI     R18, 128
   \   000000D8   01FD               MOVW    R31:R30, R27:R26
   \   000000DA   8321               STD     Z+1, R18
   1440                           buf_tx_232[2]=0x21;
   \   000000DC   E221               LDI     R18, 33
   \   000000DE   8322               STD     Z+2, R18
   1441                           
   1442                           buf_tx_232[3]=CONF_REQ; 
   \   000000E0   E021               LDI     R18, 1
   \   000000E2   8323               STD     Z+3, R18
   1443                           buf_tx_232[4]=i_scr_ipcp;   
   \   000000E4   8334               STD     Z+4, R19
   1444           
   1445                           
   1446                           buf_tx_232[5]=0;
   \   000000E6   8215               STD     Z+5, R1
   1447                           buf_tx_232[6]=10;//áĺç DNS
   \   000000E8   E02A               LDI     R18, 10
   \   000000EA   8326               STD     Z+6, R18
   1448                            
   1449                         //  buf_tx_232[6]=22;//c DNS 
   1450                                        
   1451                           buf_tx_232[7]=3;      //çŕďđîń IP ęîíňđîëëĺđŕ
   \   000000EC   E023               LDI     R18, 3
   \   000000EE   8327               STD     Z+7, R18
   1452                           buf_tx_232[8]=6;
   \   000000F0   E026               LDI     R18, 6
   \   000000F2   8720               STD     Z+8, R18
   1453                           buf_tx_232[9]=ip_self[0]; 
   \   000000F4   01F8               MOVW    R31:R30, R17:R16
   \   000000F6   8100               LD      R16, Z
   \   000000F8   01FD               MOVW    R31:R30, R27:R26
   \   000000FA   8701               STD     Z+9, R16
   1454                           buf_tx_232[10]=ip_self[1]; 
   \   000000FC   8742               STD     Z+10, R20
   1455                           buf_tx_232[11]=ip_self[2];
   \   000000FE   8763               STD     Z+11, R22
   1456                           buf_tx_232[12]=ip_self[3];
   \   00000100   8774               STD     Z+12, R23
   1457                           
   1458                           
   1459                         //  buf_tx_232[13]=0x81;      //çŕďđîń IP_PRI_DNS
   1460                         //  buf_tx_232[14]=6;
   1461                         //  buf_tx_232[15]=ip_pri_dns[0]; 
   1462                         //  buf_tx_232[16]=ip_pri_dns[1]; 
   1463                          // buf_tx_232[17]=ip_pri_dns[2];
   1464                          // buf_tx_232[18]=ip_pri_dns[3];
   1465                           
   1466                          // buf_tx_232[19]=0x83;      //çŕďđîń IP_SEC_DNS
   1467                          // buf_tx_232[20]=6;
   1468                          // buf_tx_232[21]=ip_sec_dns[0]; 
   1469                          // buf_tx_232[22]=ip_sec_dns[1]; 
   1470                          // buf_tx_232[23]=ip_sec_dns[2];
   1471                          // buf_tx_232[24]=ip_sec_dns[3];
   1472                                            
   1473                           
   1474                           temp.word=pppfcs16(PPPINITFCS16,&buf_tx_232[1],buf_tx_232[6]+2) ^ 0xffff;                  
   \   00000102   E04C               LDI     R20, 12
   \   00000104   ....               RCALL   ?Subroutine17
   1475                           buf_tx_232[13]=temp.bytes[0];//áĺç DNS
   \                     ??CrossCallReturnLabel_378:
   \   00000106   8725               STD     Z+13, R18
   1476                           buf_tx_232[14]=temp.bytes[1];//áĺç DNS
   \   00000108   8109               LDD     R16, Y+1
   \   0000010A   8706               STD     Z+14, R16
   1477                           
   1478                           buf_tx_232[15]=0x7e; //áĺç DNS
   \   0000010C   E70E               LDI     R16, 126
   \   0000010E   8707               STD     Z+15, R16
   1479                         //  buf_tx_232[25]=temp.bytes[0];//c DNS 
   1480                         //  buf_tx_232[26]=temp.bytes[1]; //c DNS              
   1481                         //  buf_tx_232[27]=0x7e; //c DNS 
   1482                          
   1483                         
   1484                           vol_tx_ppp=buf_tx_232[6]+6;               
   \   00000110   E100               LDI     R16, 16
   \   00000112   C016               RJMP    ??run_ipcp_act_9
   1485                           }
   1486                           
   1487                           
   1488                           else
   1489                           {
   1490                           buf_tx_232[1]=0xff;
   \                     ??run_ipcp_act_8:
   \   00000114   ....               RCALL   ?Subroutine74
   1491                           buf_tx_232[2]=0x03;
   1492                           buf_tx_232[3]=0x80;
   \                     ??CrossCallReturnLabel_120:
   \   00000116   E820               LDI     R18, 128
   \   00000118   ....               RCALL   ?Subroutine107
   1493                           buf_tx_232[4]=0x21;
   1494                           
   1495                           buf_tx_232[5]=CONF_REQ; 
   1496                           buf_tx_232[6]=i_scr_ipcp;   
   \                     ??CrossCallReturnLabel_188:
   \   0000011A   8336               STD     Z+6, R19
   1497           
   1498                           
   1499                           buf_tx_232[7]=0;
   \   0000011C   8217               STD     Z+7, R1
   1500                           buf_tx_232[8]=10;//áĺç DNS
   \   0000011E   E02A               LDI     R18, 10
   \   00000120   8720               STD     Z+8, R18
   1501                            
   1502                         //  buf_tx_232[6]=22;//c DNS 
   1503                                        
   1504                           buf_tx_232[9]=3;      //çŕďđîń IP ęîíňđîëëĺđŕ
   \   00000122   E023               LDI     R18, 3
   \   00000124   8721               STD     Z+9, R18
   1505                           buf_tx_232[10]=6;
   \   00000126   E026               LDI     R18, 6
   \   00000128   8722               STD     Z+10, R18
   1506                           buf_tx_232[11]=ip_self[0]; 
   \   0000012A   01F8               MOVW    R31:R30, R17:R16
   \   0000012C   8100               LD      R16, Z
   \   0000012E   01FD               MOVW    R31:R30, R27:R26
   \   00000130   8703               STD     Z+11, R16
   1507                           buf_tx_232[12]=ip_self[1]; 
   \   00000132   8744               STD     Z+12, R20
   1508                           buf_tx_232[13]=ip_self[2];
   \   00000134   8765               STD     Z+13, R22
   1509                           buf_tx_232[14]=ip_self[3];
   \   00000136   8776               STD     Z+14, R23
   1510                           
   1511                           
   1512                         //  buf_tx_232[13]=0x81;      //çŕďđîń IP_PRI_DNS
   1513                         //  buf_tx_232[14]=6;
   1514                         //  buf_tx_232[15]=ip_pri_dns[0]; 
   1515                         //  buf_tx_232[16]=ip_pri_dns[1]; 
   1516                          // buf_tx_232[17]=ip_pri_dns[2];
   1517                          // buf_tx_232[18]=ip_pri_dns[3];
   1518                           
   1519                          // buf_tx_232[19]=0x83;      //çŕďđîń IP_SEC_DNS
   1520                          // buf_tx_232[20]=6;
   1521                          // buf_tx_232[21]=ip_sec_dns[0]; 
   1522                          // buf_tx_232[22]=ip_sec_dns[1]; 
   1523                          // buf_tx_232[23]=ip_sec_dns[2];
   1524                          // buf_tx_232[24]=ip_sec_dns[3];
   1525                                            
   1526                           
   1527                           temp.word=pppfcs16(PPPINITFCS16,&buf_tx_232[1],buf_tx_232[8]+4) ^ 0xffff;                  
   \   00000138   E04E               LDI     R20, 14
   \   0000013A   ....               RCALL   ?Subroutine17
   1528                           buf_tx_232[15]=temp.bytes[0];//áĺç DNS
   \                     ??CrossCallReturnLabel_379:
   \   0000013C   ....               RCALL   ?Subroutine78
   1529                           buf_tx_232[16]=temp.bytes[1];//áĺç DNS
   1530                           
   1531                           buf_tx_232[17]=0x7e; //áĺç DNS
   1532                         //  buf_tx_232[25]=temp.bytes[0];//c DNS 
   1533                         //  buf_tx_232[26]=temp.bytes[1]; //c DNS              
   1534                         //  buf_tx_232[27]=0x7e; //c DNS 
   1535                         
   1536                           vol_tx_ppp=buf_tx_232[8]+8;               
   \                     ??CrossCallReturnLabel_122:
   \   0000013E   E102               LDI     R16, 18
   \                     ??run_ipcp_act_9:
   \   00000140   E010               LDI     R17, 0
   \   00000142   ....               RCALL   ?Subroutine80
   1537                           }
   1538                           
   1539                           
   1540                            count_tx_ppp=0;
   \                     ??CrossCallReturnLabel_652:
   \   00000144   ....               RCALL   ??Subroutine43_0
   1541                           
   1542                           UCSR0A=UCSR0A | TXC;                            
   1543                           UCSR0B=UCSR0B | TXEN;
   1544                           UCSR0B=UCSR0B | TXCIE;
   1545                           if(check_cts()==1) return;   
   \                     ??CrossCallReturnLabel_803:
   \   00000146   F409               BRNE    $+2+2
   \   00000148   C08A               RJMP    ??run_ipcp_act_5
   1546                           S2_RD;
   \   0000014A   ....               RCALL   ?Subroutine87
   1547                           UDR0=buf_tx_232[0]; 
   1548                           if(Regim==RG_DEBAG) UDR3=buf_tx_232[0];
   \                     ??CrossCallReturnLabel_794:
   \   0000014C   F009               BREQ    $+2+2
   \   0000014E   C087               RJMP    ??run_ipcp_act_5
   \                     ??run_ipcp_act_10:
   \   00000150   ....               RCALL   ?Subroutine91
   \                     ??CrossCallReturnLabel_145:
   \   00000152   C085               RJMP    ??run_ipcp_act_5
   1549                         
   1550                           
   1551                         
   1552                          break; 
   1553                           
   1554                     case SCA: 
   1555                           fl_ipcp.act_ipcp_end=0;
   \                     ??run_ipcp_act_3:
   \   00000154   ....               RCALL   ?Subroutine59
   1556                           buf_tx_232[0]=0x7e; 
   1557                           buf_tx_232[1]=0x80;
   1558                           buf_tx_232[2]=0x21;
   1559                                           
   1560                           buf_tx_232[3]=CONF_ACK;
   \                     ??CrossCallReturnLabel_96:
   \   00000156   E012               LDI     R17, 2
   \   00000158   8313               STD     Z+3, R17
   1561                           buf_tx_232[4]=i_scan_ipcp;
   \   0000015A   8304               STD     Z+4, R16
   1562                           
   1563                           temp.word=ln_ack_ipcp+4;
   \   0000015C   01F9               MOVW    R31:R30, R19:R18
   \   0000015E   AD44               LDD     R20, Z+60
   \   00000160   2F84               MOV     R24, R20
   \   00000162   ....               RCALL   ?Subroutine5
   1564                           buf_tx_232[5]=temp.bytes[1]; 
   1565                           buf_tx_232[6]=temp.bytes[0];
   1566                          
   1567                           temp.word=temp.word+2;         
   1568                           vol_tx_ppp=temp.word+4;  
   1569                            
   1570                           for(i=0;i<ln_ack_ipcp;i++)buf_tx_232[7+i]=buf_ack_opt_ipcp[i];
   \                     ??CrossCallReturnLabel_513:
   \   00000164   C005               RJMP    ??CrossCallReturnLabel_511
   \                     ??run_ipcp_act_11:
   \   00000166   01F9               MOVW    R31:R30, R19:R18
   \   00000168   0FE0               ADD     R30, R16
   \   0000016A   1DF1               ADC     R31, R1
   \   0000016C   A110               LDD     R17, Z+32
   \   0000016E   ....               RCALL   ?Subroutine118
   \                     ??CrossCallReturnLabel_511:
   \   00000170   1704               CP      R16, R20
   \   00000172   F3C8               BRCS    ??run_ipcp_act_11
   1571                           
   1572                           
   1573                           
   1574                            if(compress_off==1)
   \   00000174   3051               CPI     R21, 1
   \   00000176   F411               BRNE    ??CrossCallReturnLabel_45
   1575                           {
   1576                             for (i=0;i < (vol_tx_ppp-1);i++)buf_tx_232[vol_tx_ppp+1-i]=buf_tx_232[vol_tx_ppp-1-i];
   \   00000178   ....               RCALL   ?Subroutine44
   1577                             buf_tx_232[1]=0xff;
   \                     ??CrossCallReturnLabel_74:
   \   0000017A   ....               RCALL   ?Subroutine32
   1578                             buf_tx_232[2]=0x03;
   1579                             temp.word=temp.word+2;
   1580                             vol_tx_ppp=temp.word+4;
   1581                           }
   1582                           
   1583                           
   1584                           
   1585                           
   1586                           temp.word=pppfcs16(PPPINITFCS16,&buf_tx_232[1],temp.word) ^ 0xffff;                  
   \                     ??CrossCallReturnLabel_45:
   \   0000017C   8148               LD      R20, Y
   \   0000017E   8159               LDD     R21, Y+1
   \   00000180   ....               RCALL   ?Subroutine53
   1587                           
   1588                           
   1589                           /*
   1590                           buf_tx_232[7+ln_ack_ipcp]=temp.bytes[0];
   1591                           buf_tx_232[8+ln_ack_ipcp]=temp.bytes[1];
   1592                           buf_tx_232[9+ln_ack_ipcp]=0x7e;
   1593                           */
   1594                         
   1595                           buf_tx_232[vol_tx_ppp-3]=temp.bytes[0];
   \                     ??CrossCallReturnLabel_81:
   \   00000182   ....               RCALL   ?Subroutine86
   \                     ??CrossCallReturnLabel_131:
   \   00000184   ....               RCALL   ?Subroutine308
   \                     ??CrossCallReturnLabel_742:
   \   00000186   ....               RCALL   ?Subroutine168
   \                     ??CrossCallReturnLabel_680:
   \   00000188   9733               SBIW    R31:R30, 3
   \   0000018A   8320               ST      Z, R18
   1596                           buf_tx_232[vol_tx_ppp-2]=temp.bytes[1];
   \   0000018C   8129               LDD     R18, Y+1
   \   0000018E   8321               STD     Z+1, R18
   1597                           buf_tx_232[vol_tx_ppp-1]=0x7e;
   \   00000190   E70E               LDI     R16, 126
   \   00000192   8302               STD     Z+2, R16
   1598                       
   1599                           
   1600                           
   1601                           count_tx_ppp=0;                             
   \   00000194   ....               RCALL   ?Subroutine46
   1602                               UCSR0A=UCSR0A | TXC;                            
   \                     ??CrossCallReturnLabel_77:
   \   00000196   ....               RCALL   ?Subroutine298
   1603                               UCSR0B=UCSR0B | TXEN;
   1604                               UCSR0B=UCSR0B | TXCIE;
   1605                               if(check_cts()==1) return;
   \                     ??CrossCallReturnLabel_798:
   \   00000198   F409               BRNE    $+2+2
   \   0000019A   C061               RJMP    ??run_ipcp_act_5
   1606                           S2_RD;
   \   0000019C   ....               RCALL   ?Subroutine87
   1607                           UDR0=buf_tx_232[0]; 
   1608                           if(Regim==RG_DEBAG) UDR3=buf_tx_232[0];
   \                     ??CrossCallReturnLabel_795:
   \   0000019E   F009               BREQ    $+2+2
   \   000001A0   C05E               RJMP    ??run_ipcp_act_5
   \   000001A2   CFD6               RJMP    ??run_ipcp_act_10
   1609                         
   1610                          
   1611                            
   1612                          break;
   1613                     case SCN:  
   1614                          
   1615                          
   1616          
   1617                           fl_ipcp.act_ipcp_end=0;
   \                     ??run_ipcp_act_4:
   \   000001A4   ....               RCALL   ?Subroutine59
   1618                           buf_tx_232[0]=0x7e; 
   1619                           buf_tx_232[1]=0x80;
   1620                           buf_tx_232[2]=0x21;
   1621          
   1622                           
   1623                           if (fl_ipcp2.nac_rej==0) 
   \                     ??CrossCallReturnLabel_97:
   \   000001A6   01F9               MOVW    R31:R30, R19:R18
   \   000001A8   8513               LDD     R17, Z+11
   \   000001AA   FD10               SBRC    R17, 0
   \   000001AC   C03B               RJMP    ??run_ipcp_act_12
   1624                               {
   1625                               buf_tx_232[3]=CONF_NAK;                       
   \   000001AE   E013               LDI     R17, 3
   \   000001B0   01FD               MOVW    R31:R30, R27:R26
   \   000001B2   8313               STD     Z+3, R17
   1626                               
   1627                               buf_tx_232[4]=i_scan_ipcp;
   \   000001B4   8304               STD     Z+4, R16
   1628                           
   1629                               temp.word=ln_nak_ipcp+4;
   \   000001B6   5C23               SUBI    R18, 195
   \   000001B8   4F3F               SBCI    R19, 255
   \   000001BA   01F9               MOVW    R31:R30, R19:R18
   \   000001BC   8110               LD      R17, Z
   \   000001BE   2F81               MOV     R24, R17
   \   000001C0   E090               LDI     R25, 0
   \   000001C2   019C               MOVW    R19:R18, R25:R24
   \   000001C4   5F2C               SUBI    R18, 252
   \   000001C6   4F3F               SBCI    R19, 255
   \   000001C8   8328               ST      Y, R18
   \   000001CA   8339               STD     Y+1, R19
   1630                               buf_tx_232[5]=temp.bytes[1]; 
   \   000001CC   01FD               MOVW    R31:R30, R27:R26
   \   000001CE   8335               STD     Z+5, R19
   1631                               buf_tx_232[6]=temp.bytes[0];
   \   000001D0   8108               LD      R16, Y
   \   000001D2   8306               STD     Z+6, R16
   1632                              
   1633                              temp.word=temp.word+2;         
   \   000001D4   ........           CALL    ?Subroutine136
   \                     ??CrossCallReturnLabel_224:
   \   000001D8   5F2E               SUBI    R18, 254
   \   000001DA   4F3F               SBCI    R19, 255
   \   000001DC   8328               ST      Y, R18
   \   000001DE   8339               STD     Y+1, R19
   1634                              vol_tx_ppp=temp.word+4;
   \   000001E0   5F2C               SUBI    R18, 252
   \   000001E2   4F3F               SBCI    R19, 255
   \   000001E4   ....               RCALL   ?Subroutine86
   \                     ??CrossCallReturnLabel_132:
   \   000001E6   ....               RCALL   ??Subroutine106_0
   1635                               
   1636          
   1637                                
   1638                               for(i=0;i<ln_nak_ipcp;i++)buf_tx_232[7+i]=buf_nak_opt_ipcp[i];
   \                     ??CrossCallReturnLabel_184:
   \   000001E8   E000               LDI     R16, 0
   \   000001EA   C00B               RJMP    ??run_ipcp_act_13
   \                     ??run_ipcp_act_14:
   \   000001EC   2F20               MOV     R18, R16
   \   000001EE   E030               LDI     R19, 0
   \   000001F0   01F9               MOVW    R31:R30, R19:R18
   \   000001F2   ....               SUBI    R30, LOW((-(buf_nak_opt_ipcp) & 0xFFFF))
   \   000001F4   ....               SBCI    R31, (-(buf_nak_opt_ipcp) & 0xFFFF) >> 8
   \   000001F6   8140               LD      R20, Z
   \   000001F8   01FD               MOVW    R31:R30, R27:R26
   \   000001FA   0FE0               ADD     R30, R16
   \   000001FC   1DF1               ADC     R31, R1
   \   000001FE   8347               STD     Z+7, R20
   \   00000200   9503               INC     R16
   \                     ??run_ipcp_act_13:
   \   00000202   1701               CP      R16, R17
   \   00000204   F398               BRCS    ??run_ipcp_act_14
   1639                               temp.word=pppfcs16(PPPINITFCS16,&buf_tx_232[1],temp.word) ^ 0xffff;                  
   \   00000206   8148               LD      R20, Y
   \   00000208   8159               LDD     R21, Y+1
   \   0000020A   ....               RCALL   ?Subroutine249
   1640                               buf_tx_232[7+ln_nak_ipcp]=temp.bytes[0];
   \                     ??CrossCallReturnLabel_382:
   \   0000020C   0FE8               ADD     R30, R24
   \   0000020E   1FF9               ADC     R31, R25
   \   00000210   8327               STD     Z+7, R18
   1641                               buf_tx_232[8+ln_nak_ipcp]=temp.bytes[1];
   \   00000212   8129               LDD     R18, Y+1
   \   00000214   8720               STD     Z+8, R18
   1642                               buf_tx_232[9+ln_nak_ipcp]=0x7e;
   \   00000216   E70E               LDI     R16, 126
   \   00000218   8701               STD     Z+9, R16
   1643                               
   1644                               count_tx_ppp=0;                             
   \   0000021A   ....               LDI     R30, LOW(count_tx_ppp)
   \   0000021C   ....               LDI     R31, (count_tx_ppp) >> 8
   \   0000021E   8390               ST      Z, R25
   \   00000220   8391               STD     Z+1, R25
   1645                               UCSR0A=UCSR0A | TXC;                            
   \   00000222   CFB9               RJMP    ??CrossCallReturnLabel_77
   1646                               UCSR0B=UCSR0B | TXEN;
   1647                               UCSR0B=UCSR0B | TXCIE;
   1648                               if(check_cts()==1) return;
   1649                               S2_RD;
   1650                               UDR0=buf_tx_232[0];
   1651                               if(Regim==RG_DEBAG) UDR3=buf_tx_232[0];
   1652                               
   1653                               }  
   1654                               else
   1655                               { 
   1656                               fl_ipcp2.nac_rej=0;
   \                     ??run_ipcp_act_12:
   \   00000224   7F1E               ANDI    R17, 0xFE
   \   00000226   8713               STD     Z+11, R17
   1657                               buf_tx_232[3]=CONF_REJ;  
   \   00000228   E014               LDI     R17, 4
   \   0000022A   01FD               MOVW    R31:R30, R27:R26
   \   0000022C   8313               STD     Z+3, R17
   1658                               buf_tx_232[4]=i_scan_ipcp;
   \   0000022E   8304               STD     Z+4, R16
   1659                           
   1660                               temp.word=ln_rej_ipcp+4;
   \   00000230   01F9               MOVW    R31:R30, R19:R18
   \   00000232   AD23               LDD     R18, Z+59
   \   00000234   2F82               MOV     R24, R18
   \   00000236   ....               RCALL   ?Subroutine5
   1661                               buf_tx_232[5]=temp.bytes[1]; 
   1662                               buf_tx_232[6]=temp.bytes[0];
   1663                                           
   1664                              temp.word=temp.word+2;         
   1665                              vol_tx_ppp=temp.word+4; 
   1666                               
   1667                               for(i=0;i<ln_rej_ipcp;i++)buf_tx_232[7+i]=buf_rej_opt_ipcp[i];
   \                     ??CrossCallReturnLabel_514:
   \   00000238   C007               RJMP    ??CrossCallReturnLabel_512
   \                     ??run_ipcp_act_15:
   \   0000023A   2F60               MOV     R22, R16
   \   0000023C   E070               LDI     R23, 0
   \   0000023E   01FB               MOVW    R31:R30, R23:R22
   \   00000240   ....               SUBI    R30, LOW((-(buf_nak_opt_ipcp) & 0xFFFF))
   \   00000242   ....               SBCI    R31, (-(buf_nak_opt_ipcp) & 0xFFFF) >> 8
   \   00000244   8D11               LDD     R17, Z+25
   \   00000246   ....               RCALL   ?Subroutine118
   \                     ??CrossCallReturnLabel_512:
   \   00000248   1702               CP      R16, R18
   \   0000024A   F3B8               BRCS    ??run_ipcp_act_15
   1668                               
   1669                               
   1670                            if(compress_off==1)
   \   0000024C   3051               CPI     R21, 1
   \   0000024E   F411               BRNE    ??CrossCallReturnLabel_46
   1671                           {
   1672                             for (i=0;i < (vol_tx_ppp-1);i++)buf_tx_232[vol_tx_ppp+1-i]=buf_tx_232[vol_tx_ppp-1-i];
   \   00000250   ....               RCALL   ?Subroutine44
   1673                             buf_tx_232[1]=0xff;
   \                     ??CrossCallReturnLabel_75:
   \   00000252   ....               RCALL   ?Subroutine32
   1674                             buf_tx_232[2]=0x03;
   1675                             temp.word=temp.word+2;
   1676                             vol_tx_ppp=temp.word+4;
   1677                           }
   1678                           
   1679                           
   1680                           
   1681                           
   1682                           temp.word=pppfcs16(PPPINITFCS16,&buf_tx_232[1],temp.word) ^ 0xffff;                  
   \                     ??CrossCallReturnLabel_46:
   \   00000254   ....               RCALL   ?Subroutine43
   1683                           
   1684                           
   1685                           /*
   1686                               buf_tx_232[7+ln_rej_ipcp]=temp.bytes[0];
   1687                               buf_tx_232[8+ln_rej_ipcp]=temp.bytes[1];                     
   1688                               buf_tx_232[9+ln_rej_ipcp]=0x7e;        
   1689                           */
   1690                         
   1691                           buf_tx_232[vol_tx_ppp-3]=temp.bytes[0];
   1692                           buf_tx_232[vol_tx_ppp-2]=temp.bytes[1];
   1693                           buf_tx_232[vol_tx_ppp-1]=0x7e;
   1694                               
   1695                                      
   1696                                        
   1697                              
   1698                               count_tx_ppp=0;                             
   1699                               UCSR0A=UCSR0A | TXC;                            
   1700                               UCSR0B=UCSR0B | TXEN;
   1701                               UCSR0B=UCSR0B | TXCIE;
   1702                               if(check_cts()==1) return;                 
   \                     ??CrossCallReturnLabel_802:
   \   00000256   F019               BREQ    ??run_ipcp_act_5
   1703                               S2_RD;
   \   00000258   ....               RCALL   ?Subroutine87
   1704                               UDR0=buf_tx_232[0]; 
   1705                               if(Regim==RG_DEBAG) UDR3=buf_tx_232[0];
   \                     ??CrossCallReturnLabel_796:
   \   0000025A   F409               BRNE    $+2+2
   \   0000025C   CF79               RJMP    ??run_ipcp_act_10
   \                     ??run_ipcp_act_5:
   \   0000025E   ....               RJMP    ?Subroutine278
   1706                               }   
   1707                               
   1708          
   1709                               
   1710                          break; 
   1711                    
   1712                               
   1713                    
   1714                    }                  
   1715                }

   \                                 In segment FARCODE, align 2, keep-with-next
   \                     ?Subroutine118:
   \   00000000   01FD               MOVW    R31:R30, R27:R26
   \   00000002   0FE0               ADD     R30, R16
   \   00000004   1DF1               ADC     R31, R1
   \   00000006   8317               STD     Z+7, R17
   \   00000008                      REQUIRE ?Subroutine269
   \   00000008                      ;               // Fall through to label ?Subroutine269

   \                                 In segment FARCODE, align 2, keep-with-next
   \                     ?Subroutine269:
   \   00000000   9503               INC     R16
   \   00000002   9508               RET

   \                                 In segment FARCODE, align 2, keep-with-next
   \                     ?Subroutine59:
   \   00000000   01FB               MOVW    R31:R30, R23:R22
   \   00000002   8114               LDD     R17, Z+4
   \   00000004   7F1E               ANDI    R17, 0xFE
   \   00000006   8314               STD     Z+4, R17
   \   00000008   E71E               LDI     R17, 126
   \   0000000A   931C               ST      X, R17
   \   0000000C   E810               LDI     R17, 128
   \   0000000E   01FD               MOVW    R31:R30, R27:R26
   \   00000010   8311               STD     Z+1, R17
   \   00000012   E211               LDI     R17, 33
   \   00000014   8312               STD     Z+2, R17
   \   00000016   9508               RET

   \                                 In segment FARCODE, align 2, keep-with-next
   \                     ?Subroutine44:
   \   00000000   E000               LDI     R16, 0
   \   00000002   ....               LDI     R30, LOW(vol_tx_ppp)
   \   00000004   ....               LDI     R31, (vol_tx_ppp) >> 8
   \   00000006   8180               LD      R24, Z
   \   00000008   8191               LDD     R25, Z+1
   \   0000000A   9701               SBIW    R25:R24, 1
   \   0000000C   C014               RJMP    ??Subroutine44_0
   \                     ??Subroutine44_1:
   \   0000000E   019C               MOVW    R19:R18, R25:R24
   \   00000010   1B20               SUB     R18, R16
   \   00000012   4030               SBCI    R19, 0
   \   00000014   01FD               MOVW    R31:R30, R27:R26
   \   00000016   0FE2               ADD     R30, R18
   \   00000018   1FF3               ADC     R31, R19
   \   0000001A   8110               LD      R17, Z
   \   0000001C   ....               LDI     R30, LOW(vol_tx_ppp)
   \   0000001E   ....               LDI     R31, (vol_tx_ppp) >> 8
   \   00000020   8120               LD      R18, Z
   \   00000022   8131               LDD     R19, Z+1
   \   00000024   5F2F               SUBI    R18, 255
   \   00000026   4F3F               SBCI    R19, 255
   \   00000028   1B20               SUB     R18, R16
   \   0000002A   4030               SBCI    R19, 0
   \   0000002C   01FD               MOVW    R31:R30, R27:R26
   \   0000002E   0FE2               ADD     R30, R18
   \   00000030   1FF3               ADC     R31, R19
   \   00000032   8310               ST      Z, R17
   \   00000034   9503               INC     R16
   \                     ??Subroutine44_0:
   \   00000036   2F40               MOV     R20, R16
   \   00000038   E050               LDI     R21, 0
   \   0000003A   1748               CP      R20, R24
   \   0000003C   0759               CPC     R21, R25
   \   0000003E   F338               BRCS    ??Subroutine44_1
   \   00000040   9508               RET

   \                                 In segment FARCODE, align 2, keep-with-next
   \                     ?Subroutine17:
   \   00000000   E050               LDI     R21, 0
   \   00000002   ....               RJMP    ?Subroutine249

   \                                 In segment FARCODE, align 2, keep-with-next
   \                     ?Subroutine5:
   \   00000000   E090               LDI     R25, 0
   \   00000002   9604               ADIW    R25:R24, 4
   \   00000004   8388               ST      Y, R24
   \   00000006   8399               STD     Y+1, R25
   \   00000008   01FD               MOVW    R31:R30, R27:R26
   \   0000000A   8395               STD     Z+5, R25
   \   0000000C   8108               LD      R16, Y
   \   0000000E   8306               STD     Z+6, R16
   \   00000010   8108               LD      R16, Y
   \   00000012   8119               LDD     R17, Y+1
   \   00000014   5F0E               SUBI    R16, 254
   \   00000016   4F1F               SBCI    R17, 255
   \   00000018   8308               ST      Y, R16
   \   0000001A   8319               STD     Y+1, R17
   \   0000001C   01C8               MOVW    R25:R24, R17:R16
   \   0000001E   9604               ADIW    R25:R24, 4
   \   00000020   ....               LDI     R30, LOW(vol_tx_ppp)
   \   00000022   ....               LDI     R31, (vol_tx_ppp) >> 8
   \   00000024   8380               ST      Z, R24
   \   00000026   8391               STD     Z+1, R25
   \   00000028                      REQUIRE ?Subroutine270
   \   00000028                      ;               // Fall through to label ?Subroutine270

   \                                 In segment FARCODE, align 2, keep-with-next
   \                     ?Subroutine270:
   \   00000000   E000               LDI     R16, 0
   \   00000002   9508               RET

   \                                 In segment FARCODE, align 2, keep-with-next
   \                     ?Subroutine308:
   \   00000000   ........           JMP     ?Subroutine265

   \                                 In segment FARCODE, align 2, keep-with-next
   \                     ?Subroutine307:
   \   00000000   ........           JMP     ?Subroutine177

   \                                 In segment FARCODE, align 2, keep-with-next
   \                     ?Subroutine177:
   \   00000000   ........           JMP     clr_cntr_nat

   \                                 In segment FARCODE, align 2, keep-with-next
   \                     ?Subroutine136:
   \   00000000   8128               LD      R18, Y
   \   00000002   8139               LDD     R19, Y+1
   \   00000004   9508               RET

   \                                 In segment FARCODE, align 2, keep-with-next
   \                     ?Subroutine128:
   \   00000000   8700               STD     Z+8, R16
   \   00000002   8711               STD     Z+9, R17
   \   00000004   9508               RET

   \                                 In segment FARCODE, align 2, keep-with-next
   \                     ?Subroutine265:
   \   00000000   8100               LD      R16, Z
   \   00000002   8111               LDD     R17, Z+1
   \   00000004   9508               RET
   1716            
   1717            
   1718          
   1719            
   1720             

   \                                 In segment FARCODE, align 2, keep-with-next
   1721            void monitor_act_IPCP(void)
   \                     monitor_act_IPCP:
   1722                {  
   \   00000000   ....               RCALL   ?Subroutine62
   1723                 
   1724                 if((uk_in_act_IPCP!=uk_out_act_IPCP)&&(fl_lcp.act_lcp_end==1)&&(fl_pap.act_pap_end==1)&&(fl_ipcp.act_ipcp_end==1)&&(fl_ip.act_ip_end==1))
   \                     ??CrossCallReturnLabel_104:
   \   00000002   ....               LDI     R26, LOW((cnt_lcp_tm_out + 27))
   \   00000004   ....               LDI     R27, HIGH((cnt_lcp_tm_out + 27))
   \   00000006   910D               LD      R16, X+
   \   00000008   911C               LD      R17, X
   \   0000000A   975C               SBIW    R27:R26, 28
   \   0000000C   1701               CP      R16, R17
   \   0000000E   F069               BREQ    ??monitor_act_IPCP_0
   \   00000010   ....               RCALL   ?Subroutine132
   \                     ??CrossCallReturnLabel_217:
   \   00000012   F059               BREQ    ??monitor_act_IPCP_0
   1725                  {   
   1726                  run_ipcp_act();
   \   00000014   ....               RCALL   run_ipcp_act
   1727                  uk_out_act_IPCP++;  
   \   00000016   965C               ADIW    R27:R26, 28
   \   00000018   910C               LD      R16, X
   \   0000001A   9503               INC     R16
   \   0000001C   930C               ST      X, R16
   1728                  if (uk_out_act_IPCP>=IPCP_ACT_VOL)uk_out_act_IPCP=0; 
   \   0000001E   975C               SBIW    R27:R26, 28
   \   00000020   300A               CPI     R16, 10
   \   00000022   F018               BRCS    ??monitor_act_IPCP_0
   \   00000024   E000               LDI     R16, 0
   \   00000026   965C               ADIW    R27:R26, 28
   \   00000028   930C               ST      X, R16
   1729                  }
   1730                }
   \                     ??monitor_act_IPCP_0:
   \   0000002A   ....               RJMP    ?Subroutine93
   1731           
   1732           
   1733            

   \                                 In segment FARCODE, align 2, keep-with-next
   1734          void monitor_event_IPCP(void)
   \                     monitor_event_IPCP:
   1735              {
   \   00000000   ....               RCALL   ?Subroutine90
   1736               if (fl_ipcp1.up==1)      //UP
   \                     ??CrossCallReturnLabel_137:
   \   00000002   ....               LDI     R26, LOW(cnt_lcp_tm_out)
   \   00000004   ....               LDI     R27, (cnt_lcp_tm_out) >> 8
   \   00000006   ....               LDI     R24, LOW(ip_pri_dns)
   \   00000008   ....               LDI     R25, (ip_pri_dns) >> 8
   \   0000000A   01FD               MOVW    R31:R30, R27:R26
   \   0000000C   8D23               LDD     R18, Z+27
   \   0000000E   E030               LDI     R19, 0
   \   00000010   018C               MOVW    R17:R16, R25:R24
   \   00000012   ........           CALL    ?Subroutine181
   \                     ??CrossCallReturnLabel_280:
   \   00000016   01FC               MOVW    R31:R30, R25:R24
   \   00000018   8526               LDD     R18, Z+14
   \   0000001A   8532               LDD     R19, Z+10
   \   0000001C   FF30               SBRS    R19, 0
   \   0000001E   C00A               RJMP    ??monitor_event_IPCP_0
   1737                   {  
   1738                   
   1739                    
   1740                   fl_ipcp1.up=0; 
   \   00000020   7F3E               ANDI    R19, 0xFE
   \   00000022   8732               STD     Z+10, R19
   1741                     switch(IPCP_state)
   \   00000024   952A               DEC     R18
   \   00000026   F429               BRNE    ??monitor_event_IPCP_1
   1742                         {
   1743                          case START_ST:                                                                
   1744                                      //vol_cnt_rst_ipcp=VOL_IPCP_MC;  
   1745                                      IPCP_act_buf[uk_in_act_IPCP]=IRC;  
   \                     ??monitor_event_IPCP_2:
   \   00000028   ....               RCALL   ?Subroutine97
   1746                                      prov_uk_in_ipcp();                    
   1747                                      IPCP_act_buf[uk_in_act_IPCP]=SCR;  
   1748                                      prov_uk_in_ipcp();                    
   \                     ??CrossCallReturnLabel_156:
   \   0000002A   ....               RCALL   ?Subroutine280
   1749                                      IPCP_state=SEND_REQ; 
   \                     ??CrossCallReturnLabel_572:
   \   0000002C   E006               LDI     R16, 6
   \                     ??monitor_event_IPCP_3:
   \   0000002E   01FC               MOVW    R31:R30, R25:R24
   \   00000030   8706               STD     Z+14, R16
   1750                                     
   1751                          return;
   \                     ??monitor_event_IPCP_1:
   \   00000032   ....               RJMP    ??Subroutine278_0
   1752                         }
   1753                      
   1754                   return;
   1755                   }
   1756               
   1757              
   1758               
   1759               if(fl_ipcp.t0_pl==1)        //TO_PL
   \                     ??monitor_event_IPCP_0:
   \   00000034   01FD               MOVW    R31:R30, R27:R26
   \   00000036   8134               LDD     R19, Z+4
   \   00000038   FF32               SBRS    R19, 2
   \   0000003A   C00C               RJMP    ??monitor_event_IPCP_4
   1760                  {
   1761                   fl_ipcp.t0_pl=0; 
   \   0000003C   7F3B               ANDI    R19, 0xFB
   \   0000003E   8334               STD     Z+4, R19
   1762                   switch(IPCP_state)
   \   00000040   5026               SUBI    R18, 6
   \   00000042   F391               BREQ    ??monitor_event_IPCP_2
   \   00000044   952A               DEC     R18
   \   00000046   F381               BREQ    ??monitor_event_IPCP_2
   \   00000048   952A               DEC     R18
   \   0000004A   F799               BRNE    ??monitor_event_IPCP_1
   1763                         {                     
   1764                                         
   1765                          
   1766                          case SEND_REQ:
   1767                                     // vol_cnt_rst_ipcp=VOL_IPCP_MC;                                                    
   1768                                      IPCP_act_buf[uk_in_act_IPCP]=IRC;  
   1769                                      prov_uk_in_ipcp();                
   1770                                      IPCP_act_buf[uk_in_act_IPCP]=SCR;  
   1771                                      prov_uk_in_ipcp();                 
   1772                                      IPCP_state=SEND_REQ;
   1773                                      return;
   1774                          case REC_ACK:      
   1775                                      //vol_cnt_rst_ipcp=VOL_IPCP_MC;                                              
   1776                                      IPCP_act_buf[uk_in_act_IPCP]=IRC;  
   1777                                      prov_uk_in_ipcp();                
   1778                                      IPCP_act_buf[uk_in_act_IPCP]=SCR;  
   1779                                      prov_uk_in_ipcp();                 
   1780                                      IPCP_state=SEND_REQ;
   1781                                      return;
   1782                          case SEND_ACK: 
   1783                                    //  vol_cnt_rst_ipcp=VOL_IPCP_MC;                                                   
   1784                                      IPCP_act_buf[uk_in_act_IPCP]=IRC;  
   \                     ??monitor_event_IPCP_5:
   \   0000004C   ....               RCALL   ?Subroutine97
   1785                                      prov_uk_in_ipcp();                 
   1786                                      IPCP_act_buf[uk_in_act_IPCP]=SCR;  
   1787                                      prov_uk_in_ipcp();                 
   \                     ??CrossCallReturnLabel_157:
   \   0000004E   ....               RCALL   ?Subroutine280
   1788                                      IPCP_state=SEND_ACK;
   \                     ??CrossCallReturnLabel_571:
   \   00000050   E008               LDI     R16, 8
   \   00000052   CFED               RJMP    ??monitor_event_IPCP_3
   1789                                      return;                                                              
   1790                         } 
   1791                      
   1792                   return;
   1793                  }  
   1794             
   1795               switch (IPCP_event)
   \                     ??monitor_event_IPCP_4:
   \   00000054   01FC               MOVW    R31:R30, R25:R24
   \   00000056   8537               LDD     R19, Z+15
   \   00000058   5036               SUBI    R19, 6
   \   0000005A   F039               BREQ    ??monitor_event_IPCP_6
   \   0000005C   953A               DEC     R19
   \   0000005E   F131               BREQ    ??monitor_event_IPCP_7
   \   00000060   953A               DEC     R19
   \   00000062   F189               BREQ    ??monitor_event_IPCP_8
   \   00000064   953A               DEC     R19
   \   00000066   F1E9               BREQ    ??monitor_event_IPCP_9
   \   00000068   CFE4               RJMP    ??monitor_event_IPCP_1
   1796                  {
   1797                  case RCR_PL:  
   1798                      IPCP_event=NO_EVENT; 
   \                     ??monitor_event_IPCP_6:
   \   0000006A   ....               RCALL   ?Subroutine73
   1799                      switch(IPCP_state)
   \                     ??CrossCallReturnLabel_501:
   \   0000006C   F039               BREQ    ??monitor_event_IPCP_10
   \   0000006E   952A               DEC     R18
   \   00000070   F041               BREQ    ??monitor_event_IPCP_11
   \   00000072   952A               DEC     R18
   \   00000074   F019               BREQ    ??monitor_event_IPCP_10
   \   00000076   952A               DEC     R18
   \   00000078   F079               BREQ    ??monitor_event_IPCP_12
   \   0000007A   CFDB               RJMP    ??monitor_event_IPCP_1
   1800                         {                     
   1801          
   1802                         
   1803                          case SEND_REQ:                                                                
   1804                                      IPCP_act_buf[uk_in_act_IPCP]=SCA;  
   \                     ??monitor_event_IPCP_10:
   \   0000007C   E027               LDI     R18, 7
   \   0000007E   ....               RCALL   ?Subroutine100
   1805                                      prov_uk_in_ipcp();                 
   \                     ??CrossCallReturnLabel_162:
   \   00000080   CFE6               RJMP    ??CrossCallReturnLabel_157
   1806                                      IPCP_state=SEND_ACK;   
   1807                                   
   1808                                      return;
   1809                          case REC_ACK:
   1810                  
   1811                                      IPCP_act_buf[uk_in_act_IPCP]=SCA;  
   \                     ??monitor_event_IPCP_11:
   \   00000082   E027               LDI     R18, 7
   \                     ??monitor_event_IPCP_13:
   \   00000084   ....               RCALL   ?Subroutine100
   1812                                      prov_uk_in_ipcp();       
   \                     ??CrossCallReturnLabel_163:
   \   00000086   ....               RCALL   ?Subroutine280
   1813                                      IPCP_act_buf[uk_in_act_IPCP]=TLU;  
   \                     ??CrossCallReturnLabel_570:
   \   00000088   ....               RCALL   ?Subroutine45
   \                     ??CrossCallReturnLabel_387:
   \   0000008A   8D23               LDD     R18, Z+27
   \   0000008C   01FC               MOVW    R31:R30, R25:R24
   \   0000008E   0FE2               ADD     R30, R18
   \   00000090   1FF0               ADC     R31, R16
   \   00000092   ....               RCALL   ?Subroutine131
   1814                                      prov_uk_in_ipcp();          
   1815                                      IPCP_state=OPEN_ST;  
   \                     ??CrossCallReturnLabel_569:
   \   00000094   E009               LDI     R16, 9
   \   00000096   CFCB               RJMP    ??monitor_event_IPCP_3
   1816                                     
   1817                                      return;
   1818                          case SEND_ACK:                                                                
   1819                                      IPCP_act_buf[uk_in_act_IPCP]=SCA;  
   1820                                      prov_uk_in_ipcp();                 
   1821                                      IPCP_state=SEND_ACK; 
   1822                             
   1823                                      return;
   1824                          case OPEN_ST:      
   1825                                                                                        
   1826                                      IPCP_act_buf[uk_in_act_IPCP]=IRC;  
   \                     ??monitor_event_IPCP_12:
   \   00000098   E024               LDI     R18, 4
   \   0000009A   ....               RCALL   ?Subroutine99
   1827                                      prov_uk_in_ipcp(); 
   1828                                      IPCP_act_buf[uk_in_act_IPCP]=SCA;  
   \                     ??CrossCallReturnLabel_160:
   \   0000009C   01FD               MOVW    R31:R30, R27:R26
   \   0000009E   8D23               LDD     R18, Z+27
   \   000000A0   E030               LDI     R19, 0
   \   000000A2   0F82               ADD     R24, R18
   \   000000A4   1F93               ADC     R25, R19
   \   000000A6   01FC               MOVW    R31:R30, R25:R24
   \   000000A8   ....               RCALL   ?Subroutine131
   1829                                      prov_uk_in_ipcp();                 
   1830                             
   1831                                      return;                                                                    
   \                     ??CrossCallReturnLabel_568:
   \   000000AA   CFC3               RJMP    ??monitor_event_IPCP_1
   1832                         }  
   1833                       return; 
   1834                  case RCR_MI: 
   1835                     
   1836                      
   1837                      
   1838                      IPCP_event=NO_EVENT;
   \                     ??monitor_event_IPCP_7:
   \   000000AC   ....               RCALL   ?Subroutine73
   1839                      switch(IPCP_state)
   \                     ??CrossCallReturnLabel_502:
   \   000000AE   F029               BREQ    ??monitor_event_IPCP_14
   \   000000B0   952A               DEC     R18
   \   000000B2   F031               BREQ    ??monitor_event_IPCP_15
   \   000000B4   952A               DEC     R18
   \   000000B6   F009               BREQ    $+2+2
   \   000000B8   CFBC               RJMP    ??monitor_event_IPCP_1
   1840                         {                     
   1841          
   1842                         
   1843                          case SEND_REQ:                                                                
   1844                                      
   1845                                 
   1846                                      IPCP_act_buf[uk_in_act_IPCP]=SCN;  
   \                     ??monitor_event_IPCP_14:
   \   000000BA   E028               LDI     R18, 8
   \   000000BC   ....               RCALL   ?Subroutine100
   1847                                      prov_uk_in_ipcp();                 
   \                     ??CrossCallReturnLabel_164:
   \   000000BE   CFB5               RJMP    ??CrossCallReturnLabel_156
   1848                                      IPCP_state=SEND_REQ;    
   1849                               
   1850                                      return;
   1851                          case REC_ACK:                                                                
   1852                                      IPCP_act_buf[uk_in_act_IPCP]=SCN;  
   \                     ??monitor_event_IPCP_15:
   \   000000C0   E028               LDI     R18, 8
   \                     ??monitor_event_IPCP_16:
   \   000000C2   ....               RCALL   ?Subroutine99
   1853                                      prov_uk_in_ipcp();              
   1854                                      IPCP_state=REC_ACK;     
   \                     ??CrossCallReturnLabel_161:
   \   000000C4   CFB4               RJMP    ??monitor_event_IPCP_3
   1855                                     
   1856                                      return;
   1857                          case SEND_ACK:                                                                
   1858                                      IPCP_act_buf[uk_in_act_IPCP]=SCN;  
   1859                                      prov_uk_in_ipcp();                 
   1860                                      IPCP_state=SEND_REQ;
   1861                                   
   1862                                      return;
   1863                          
   1864                         /*
   1865                         case OPEN_ST:      
   1866                                    
   1867                                     // vol_cnt_rst_ipcp=VOL_IPCP_MC;
   1868                                      IPCP_act_buf[uk_in_act_IPCP]=IRC;  
   1869                                      prov_uk_in_ipcp(); 
   1870                                      IPCP_act_buf[uk_in_act_IPCP]=SCR;  
   1871                                      prov_uk_in_ipcp();                                                                
   1872                                      IPCP_act_buf[uk_in_act_IPCP]=SCN;  
   1873                                      prov_uk_in_ipcp();                 
   1874                                      IPCP_state=SEND_REQ;
   1875                         
   1876                                      
   1877                                      return;  
   1878                           */           
   1879                         }  
   1880                       return; 
   1881                  case RCA:  
   1882                      
   1883                      
   1884                     
   1885                      
   1886                      IPCP_event=NO_EVENT;
   \                     ??monitor_event_IPCP_8:
   \   000000C6   ....               RCALL   ?Subroutine73
   1887                      switch(IPCP_state)
   \                     ??CrossCallReturnLabel_503:
   \   000000C8   F031               BREQ    ??monitor_event_IPCP_17
   \   000000CA   952A               DEC     R18
   \   000000CC   F409               BRNE    $+2+2
   \   000000CE   CFAC               RJMP    ??monitor_event_IPCP_2
   \   000000D0   952A               DEC     R18
   \   000000D2   F019               BREQ    ??monitor_event_IPCP_18
   \   000000D4   CFAE               RJMP    ??monitor_event_IPCP_1
   1888                         {                     
   1889          
   1890                          
   1891                          case SEND_REQ: 
   1892                                      
   1893                                     // vol_cnt_rst_ipcp=VOL_IPCP_MC;  
   1894                                      IPCP_act_buf[uk_in_act_IPCP]=IRC;  
   \                     ??monitor_event_IPCP_17:
   \   000000D6   E024               LDI     R18, 4
   \   000000D8   CFF4               RJMP    ??monitor_event_IPCP_16
   1895                                      prov_uk_in_ipcp();                                        
   1896                                      IPCP_state=REC_ACK; 
   1897                               
   1898                                      return;
   1899                          case REC_ACK:       
   1900                                      IPCP_act_buf[uk_in_act_IPCP]=IRC;  
   1901                                      prov_uk_in_ipcp(); 
   1902                                     // vol_cnt_rst_ipcp=VOL_IPCP_MC;                                             
   1903                                      IPCP_act_buf[uk_in_act_IPCP]=SCR;  
   1904                                      prov_uk_in_ipcp();                 
   1905                                      IPCP_state=SEND_REQ;
   1906                               
   1907                                      return;
   1908                          case SEND_ACK:                                                                
   1909          
   1910                                      
   1911                                      vol_cnt_rst_ipcp=VOL_IPCP_MC;  
   \                     ??monitor_event_IPCP_18:
   \   000000DA   E02A               LDI     R18, 10
   \   000000DC   8F23               STD     Z+27, R18
   1912                                      IPCP_act_buf[uk_in_act_IPCP]=IRC;  
   \   000000DE   E024               LDI     R18, 4
   \   000000E0   CFD1               RJMP    ??monitor_event_IPCP_13
   1913                                      prov_uk_in_ipcp();                                        
   1914                                      IPCP_act_buf[uk_in_act_IPCP]=TLU;  
   1915                                      prov_uk_in_ipcp();
   1916                                      IPCP_state=OPEN_ST;
   1917                            
   1918                                      return;
   1919                         /*
   1920                         case OPEN_ST:
   1921                                     // vol_cnt_rst_ipcp=VOL_IPCP_MC;
   1922                        //ďîäóěŕňü    ?????????????????????????????
   1923                                     
   1924                                      IPCP_act_buf[uk_in_act_IPCP]=IRC;  
   1925                                      prov_uk_in_ipcp(); 
   1926                                      IPCP_act_buf[uk_in_act_IPCP]=SCR;  
   1927                                      prov_uk_in_ipcp();                                                                               
   1928                                      IPCP_state=SEND_REQ;
   1929                                   
   1930                                      
   1931                                      return;
   1932                                      */
   1933                                      
   1934                         }  
   1935                       return; 
   1936                  case RCN: 
   1937                          IPCP_event=NO_EVENT;
   \                     ??monitor_event_IPCP_9:
   \   000000E2   ....               RCALL   ?Subroutine73
   1938                  switch(IPCP_state)
   \                     ??CrossCallReturnLabel_504:
   \   000000E4   F051               BREQ    ??monitor_event_IPCP_19
   \   000000E6   952A               DEC     R18
   \   000000E8   F409               BRNE    $+2+2
   \   000000EA   CF9E               RJMP    ??monitor_event_IPCP_2
   \   000000EC   952A               DEC     R18
   \   000000EE   F409               BRNE    $+2+2
   \   000000F0   CFAD               RJMP    ??monitor_event_IPCP_5
   \   000000F2   952A               DEC     R18
   \   000000F4   F409               BRNE    $+2+2
   \   000000F6   CF98               RJMP    ??monitor_event_IPCP_2
   \   000000F8   CF9C               RJMP    ??monitor_event_IPCP_1
   1939                         {                     
   1940          
   1941                          
   1942                          case SEND_REQ:                                                                
   1943                                      vol_cnt_rst_ipcp=VOL_IPCP_MC;  
   \                     ??monitor_event_IPCP_19:
   \   000000FA   E02A               LDI     R18, 10
   \   000000FC   8F23               STD     Z+27, R18
   \   000000FE   CF94               RJMP    ??monitor_event_IPCP_2
   1944                                      IPCP_act_buf[uk_in_act_IPCP]=IRC;  
   1945                                      prov_uk_in_ipcp(); 
   1946                                      IPCP_act_buf[uk_in_act_IPCP]=SCR;  
   1947                                      prov_uk_in_ipcp();                                       
   1948                                      IPCP_state=SEND_REQ;
   1949                                    
   1950                                      return;
   1951                          case REC_ACK:     
   1952                                     // vol_cnt_rst_ipcp=VOL_IPCP_MC;                                               
   1953                                      IPCP_act_buf[uk_in_act_IPCP]=IRC;  
   1954                                      prov_uk_in_ipcp(); 
   1955                                      IPCP_act_buf[uk_in_act_IPCP]=SCR;  
   1956                                      prov_uk_in_ipcp();                 
   1957                                      IPCP_state=SEND_REQ;
   1958                                    
   1959                                      return;
   1960                          case SEND_ACK:                                                                
   1961                                     // vol_cnt_rst_ipcp=VOL_IPCP_MC;   
   1962                                      IPCP_act_buf[uk_in_act_IPCP]=IRC;  
   1963                                      prov_uk_in_ipcp();                                        
   1964                                      IPCP_act_buf[uk_in_act_IPCP]=SCR;  
   1965                                      prov_uk_in_ipcp();
   1966                                      IPCP_state=SEND_ACK;
   1967                                  
   1968                                      return;
   1969                          
   1970                         case OPEN_ST:      
   1971                                      IPCP_act_buf[uk_in_act_IPCP]=IRC;  
   1972                                      prov_uk_in_ipcp(); 
   1973                                     // vol_cnt_rst_ipcp=VOL_IPCP_MC;  
   1974                                      IPCP_act_buf[uk_in_act_IPCP]=SCR;  
   1975                                      prov_uk_in_ipcp();                                                                               
   1976                                      IPCP_state=SEND_REQ;
   1977                                
   1978                                      return;  
   1979                                      
   1980                                      
   1981                         }  
   1982                       return; 
   1983                 
   1984                 
   1985                                      
   1986                  }
   1987              
   1988              }

   \                                 In segment FARCODE, align 2, keep-with-next
   \                     ?Subroutine280:
   \   00000000   ....               RJMP    prov_uk_in_ipcp

   \                                 In segment FARCODE, align 2, keep-with-next
   \                     ?Subroutine131:
   \   00000000   8B00               STD     Z+16, R16
   \   00000002   ....               RJMP    ?Subroutine280

   \                                 In segment FARCODE, align 2, keep-with-next
   \                     ?Subroutine99:
   \   00000000   01F8               MOVW    R31:R30, R17:R16
   \   00000002   8B20               STD     Z+16, R18
   \   00000004   ....               RCALL   prov_uk_in_ipcp
   \   00000006   E007               LDI     R16, 7
   \   00000008   9508               RET

   \                                 In segment FARCODE, align 2, keep-with-next
   \                     ?Subroutine97:
   \   00000000   E024               LDI     R18, 4
   \   00000002   01F8               MOVW    R31:R30, R17:R16
   \   00000004   8B20               STD     Z+16, R18
   \   00000006   ....               RCALL   prov_uk_in_ipcp
   \   00000008   E006               LDI     R16, 6
   \   0000000A   01FD               MOVW    R31:R30, R27:R26
   \   0000000C   8D23               LDD     R18, Z+27
   \   0000000E   E030               LDI     R19, 0
   \   00000010   01FC               MOVW    R31:R30, R25:R24
   \   00000012   0FE2               ADD     R30, R18
   \   00000014   1FF3               ADC     R31, R19
   \   00000016   8B00               STD     Z+16, R16
   \   00000018   9508               RET

   \                                 In segment FARCODE, align 2, keep-with-next
   \                     ?Subroutine73:
   \   00000000   EF3F               LDI     R19, 255
   \   00000002   8737               STD     Z+15, R19
   \   00000004   ....               RJMP    ?Subroutine268

   \                                 In segment FARCODE, align 2, keep-with-next
   \                     ?Subroutine100:
   \   00000000   01F8               MOVW    R31:R30, R17:R16
   \   00000002   8B20               STD     Z+16, R18
   \   00000004   9508               RET

   \                                 In segment FARCODE, align 2, keep-with-next
   \                     ?Subroutine181:
   \   00000000   0F02               ADD     R16, R18
   \   00000002   1F13               ADC     R17, R19
   \   00000004   9508               RET
   1989            
   1990            
   1991            ////////////////  ęîíĺö ěîíčňîđű IPCP 
   1992          

   \                                 In segment FARCODE, align 2, keep-with-next
   1993            unsigned int calc_crc_ip(unsigned char *p,unsigned int count)
   \                     calc_crc_ip:
   1994                {      
   \   00000000   9726               SBIW    R29:R28, 6
   \   00000002   01F8               MOVW    R31:R30, R17:R16
   1995                
   1996                    union          
   1997                    {
   1998                     unsigned char bytes[2]; 
   1999                     unsigned int word;
   2000                    }temp1; 
   2001                   
   2002                    union
   2003                    {
   2004                     unsigned char bytes[4]; 
   2005                     unsigned long int long_word;
   2006                    }temp2; 
   2007                 
   2008                   temp1.word=0;
   \   00000004   E000               LDI     R16, 0
   \   00000006   E010               LDI     R17, 0
   \   00000008   8308               ST      Y, R16
   \   0000000A   8309               STD     Y+1, R16
   2009                   temp2.long_word=0;
   \   0000000C   830A               STD     Y+2, R16
   \   0000000E   830B               STD     Y+3, R16
   \   00000010   830C               STD     Y+4, R16
   \   00000012   830D               STD     Y+5, R16
   \   00000014   C00B               RJMP    ??calc_crc_ip_0
   2010          
   2011                  while( count > 1 )  {
   2012                     /*  This is the inner loop */  
   2013                         temp1.bytes[0]=*p;
   \                     ??calc_crc_ip_1:
   \   00000016   8100               LD      R16, Z
   \   00000018   8308               ST      Y, R16
   2014                         temp1.bytes[1]=*(p+1); 
   \   0000001A   8101               LDD     R16, Z+1
   \   0000001C   8309               STD     Y+1, R16
   2015                         temp2.long_word=temp2.long_word+temp1.word; 
   \   0000001E   ....               RCALL   ?Subroutine134
   \                     ??CrossCallReturnLabel_220:
   \   00000020   1E10               ADC     R1, R16
   \   00000022   1E21               ADC     R2, R17
   \   00000024   1E31               ADC     R3, R17
   \   00000026   ....               RCALL   ?Subroutine185
   2016                         p=p+2;         
   2017                         count -= 2;
   \                     ??CrossCallReturnLabel_287:
   \   00000028   5022               SUBI    R18, 2
   \   0000002A   4030               SBCI    R19, 0
   2018                                      }
   \                     ??calc_crc_ip_0:
   \   0000002C   3022               CPI     R18, 2
   \   0000002E   0731               CPC     R19, R17
   \   00000030   F790               BRCC    ??calc_crc_ip_1
   2019          
   2020                     /*  Add left-over byte, if any */
   2021                 if( count > 0 )   
   \   00000032   2B23               OR      R18, R19
   \   00000034   F071               BREQ    ??CrossCallReturnLabel_228
   2022                         {
   2023                         temp1.bytes[0]=0;
   \   00000036   8318               ST      Y, R17
   2024                         temp1.bytes[1]=*p; 
   \   00000038   8100               LD      R16, Z
   \   0000003A   8309               STD     Y+1, R16
   2025                         temp2.long_word=temp2.long_word+temp1.word; 
   \   0000003C   E000               LDI     R16, 0
   \   0000003E   8119               LDD     R17, Y+1
   \   00000040   815B               LDD     R21, Y+3
   \   00000042   816C               LDD     R22, Y+4
   \   00000044   817D               LDD     R23, Y+5
   \   00000046   0F51               ADD     R21, R17
   \   00000048   1F60               ADC     R22, R16
   \   0000004A   1F70               ADC     R23, R16
   \   0000004C   ....               RCALL   ?Subroutine254
   \                     ??CrossCallReturnLabel_413:
   \   0000004E   C001               RJMP    ??CrossCallReturnLabel_228
   2026                         } 
   2027                    
   2028              
   2029                     /*  Fold 32-bit sum to 16 bits */
   2030                 while (temp2.long_word>>16)
   2031                     temp2.long_word = (temp2.long_word & 0xffff) + (temp2.long_word >> 16);
   \                     ??calc_crc_ip_2:
   \   00000050   ....               RCALL   ?Subroutine137
   \                     ??CrossCallReturnLabel_228:
   \   00000052   ....               RCALL   ?Subroutine192
   \                     ??CrossCallReturnLabel_300:
   \   00000054   F7E9               BRNE    ??calc_crc_ip_2
   2032          
   2033                 temp1.bytes[0]=~temp2.bytes[0];
   \   00000056   ........           CALL    ?Subroutine38
   2034                 temp1.bytes[1]=~temp2.bytes[1];  
   2035                 
   2036            
   2037                    
   2038                 return(temp1.word);
   \                     ??CrossCallReturnLabel_61:
   \   0000005A   9626               ADIW    R29:R28, 6
   \   0000005C   9508               RET
   2039                }

   \                                 In segment FARCODE, align 2, keep-with-next
   \                     ?Subroutine192:
   \   00000000   810C               LDD     R16, Y+4
   \   00000002   813D               LDD     R19, Y+5
   \   00000004   2B03               OR      R16, R19
   \   00000006   810A               LDD     R16, Y+2
   \   00000008   9508               RET

   \                                 In segment FARCODE, align 2, keep-with-next
   \                     ?Subroutine254:
   \   00000000   835B               STD     Y+3, R21
   \   00000002   836C               STD     Y+4, R22
   \   00000004   837D               STD     Y+5, R23
   \   00000006   9508               RET

   \                                 In segment FARCODE, align 2, keep-with-next
   \                     ?Subroutine185:
   \   00000000   820A               STD     Y+2, R0
   \   00000002   821B               STD     Y+3, R1
   \   00000004   822C               STD     Y+4, R2
   \   00000006   823D               STD     Y+5, R3
   \   00000008   9632               ADIW    R31:R30, 2
   \   0000000A   9508               RET

   \                                 In segment FARCODE, align 2, keep-with-next
   \                     ?Subroutine137:
   \   00000000   811B               LDD     R17, Y+3
   \   00000002   E020               LDI     R18, 0
   \   00000004   814C               LDD     R20, Y+4
   \   00000006   2F73               MOV     R23, R19
   \   00000008   2F57               MOV     R21, R23
   \   0000000A   E060               LDI     R22, 0
   \   0000000C   0F40               ADD     R20, R16
   \   0000000E   1F51               ADC     R21, R17
   \   00000010   1F62               ADC     R22, R18
   \   00000012   834A               STD     Y+2, R20
   \   00000014   835B               STD     Y+3, R21
   \   00000016   836C               STD     Y+4, R22
   \   00000018   832D               STD     Y+5, R18
   \   0000001A   9508               RET

   \                                 In segment FARCODE, align 2, keep-with-next
   \                     ?Subroutine134:
   \   00000000   8148               LD      R20, Y
   \   00000002   800A               LDD     R0, Y+2
   \   00000004   801B               LDD     R1, Y+3
   \   00000006   802C               LDD     R2, Y+4
   \   00000008   803D               LDD     R3, Y+5
   \   0000000A   0E04               ADD     R0, R20
   \   0000000C   9508               RET
   2040                 
   2041          
   2042          
   2043          
   2044           

   \                                 In segment FARCODE, align 2, keep-with-next
   2045           unsigned int calc_crc_udp_2(unsigned char *buf_rx_ppp,unsigned int count)
   \                     calc_crc_udp_2:
   2046                {      
   \   00000000   ....               RCALL   ?Subroutine90
   \                     ??CrossCallReturnLabel_138:
   \   00000002   9726               SBIW    R29:R28, 6
   \   00000004   01D8               MOVW    R27:R26, R17:R16
   \   00000006   01C9               MOVW    R25:R24, R19:R18
   2047                    unsigned char *p;
   2048                
   2049                    union          
   2050                    {
   2051                     unsigned char bytes[2]; 
   2052                     unsigned int word;
   2053                    }temp1; 
   2054                   
   2055                    union
   2056                    {
   2057                     unsigned char bytes[4]; 
   2058                     unsigned long int long_word;
   2059                    }temp2; 
   2060                   p=buf_rx_ppp+22;
   \   00000008   01F8               MOVW    R31:R30, R17:R16
   \   0000000A   9676               ADIW    R31:R30, 22
   2061                   temp1.word=0;
   \   0000000C   E020               LDI     R18, 0
   \   0000000E   E030               LDI     R19, 0
   \   00000010   8328               ST      Y, R18
   \   00000012   8329               STD     Y+1, R18
   2062                   temp2.long_word=0;
   \   00000014   832A               STD     Y+2, R18
   \   00000016   832B               STD     Y+3, R18
   \   00000018   832C               STD     Y+4, R18
   \   0000001A   832D               STD     Y+5, R18
   \   0000001C   C00A               RJMP    ??calc_crc_udp_2_0
   2063          
   2064                  while( count > 1 )  {
   2065                     /*  This is the inner loop */  
   2066                         temp1.bytes[0]=*p;
   \                     ??calc_crc_udp_2_1:
   \   0000001E   8120               LD      R18, Z
   \   00000020   8328               ST      Y, R18
   2067                         temp1.bytes[1]=*(p+1); 
   \   00000022   8121               LDD     R18, Z+1
   \   00000024   8329               STD     Y+1, R18
   2068                         temp2.long_word=temp2.long_word+temp1.word; 
   \   00000026   ....               RCALL   ?Subroutine134
   \                     ??CrossCallReturnLabel_221:
   \   00000028   1E12               ADC     R1, R18
   \   0000002A   1E23               ADC     R2, R19
   \   0000002C   1E33               ADC     R3, R19
   \   0000002E   ....               RCALL   ?Subroutine185
   2069                         p=p+2;         
   2070                         count -= 2;
   \                     ??CrossCallReturnLabel_288:
   \   00000030   9702               SBIW    R25:R24, 2
   2071                                      }
   \                     ??calc_crc_udp_2_0:
   \   00000032   3082               CPI     R24, 2
   \   00000034   0793               CPC     R25, R19
   \   00000036   F798               BRCC    ??calc_crc_udp_2_1
   2072          
   2073                     /*  Add left-over byte, if any */
   2074                 if( count > 0 )   
   \   00000038   2B89               OR      R24, R25
   \   0000003A   F031               BREQ    ??CrossCallReturnLabel_415
   2075                         {
   2076                         //temp1.bytes[0]=0;
   2077                         //temp1.bytes[1]=*p; 
   2078                         temp1.bytes[0]=*p; 
   \   0000003C   8100               LD      R16, Z
   \   0000003E   8308               ST      Y, R16
   2079                         temp1.bytes[1]=0;
   \   00000040   8339               STD     Y+1, R19
   2080                         temp2.long_word=temp2.long_word+temp1.word; 
   \   00000042   ....               RCALL   ?Subroutine188
   \                     ??CrossCallReturnLabel_289:
   \   00000044   1F53               ADC     R21, R19
   \   00000046   ....               RCALL   ?Subroutine187
   2081                         } 
   2082                    
   2083                    
   2084                    
   2085                    temp1.bytes[0]=buf_rx_ppp[14];
   \                     ??CrossCallReturnLabel_415:
   \   00000048   01FD               MOVW    R31:R30, R27:R26
   \   0000004A   8506               LDD     R16, Z+14
   \   0000004C   8308               ST      Y, R16
   2086                    temp1.bytes[1]=buf_rx_ppp[15]; 
   \   0000004E   8507               LDD     R16, Z+15
   \   00000050   ........           CALL    ??Subroutine38_0
   2087                    temp2.long_word=temp2.long_word+temp1.word;  
   \                     ??CrossCallReturnLabel_63:
   \   00000054   ....               RCALL   ?Subroutine188
   \                     ??CrossCallReturnLabel_290:
   \   00000056   1F51               ADC     R21, R17
   \   00000058   ....               RCALL   ?Subroutine187
   2088                    temp1.bytes[0]=buf_rx_ppp[16];
   \                     ??CrossCallReturnLabel_416:
   \   0000005A   8900               LDD     R16, Z+16
   \   0000005C   8308               ST      Y, R16
   2089                    temp1.bytes[1]=buf_rx_ppp[17]; 
   \   0000005E   8901               LDD     R16, Z+17
   \   00000060   ....               RCALL   ?Subroutine31
   2090                    temp2.long_word=temp2.long_word+temp1.word;  
   2091                    
   2092                    temp1.bytes[0]=buf_rx_ppp[18];
   \                     ??CrossCallReturnLabel_409:
   \   00000062   8902               LDD     R16, Z+18
   \   00000064   8308               ST      Y, R16
   2093                    temp1.bytes[1]=buf_rx_ppp[19]; 
   \   00000066   8903               LDD     R16, Z+19
   \   00000068   ....               RCALL   ?Subroutine31
   2094                    temp2.long_word=temp2.long_word+temp1.word;  
   2095                    temp1.bytes[0]=buf_rx_ppp[20];
   \                     ??CrossCallReturnLabel_410:
   \   0000006A   8904               LDD     R16, Z+20
   \   0000006C   8308               ST      Y, R16
   2096                    temp1.bytes[1]=buf_rx_ppp[21]; 
   \   0000006E   8905               LDD     R16, Z+21
   \   00000070   ....               RCALL   ?Subroutine31
   2097                    temp2.long_word=temp2.long_word+temp1.word;  
   2098                    
   2099                               
   2100                
   2101                    temp1.bytes[0]=0;
   \                     ??CrossCallReturnLabel_411:
   \   00000072   8338               ST      Y, R19
   2102                    temp1.bytes[1]=0x11; 
   \   00000074   E101               LDI     R16, 17
   \   00000076   8309               STD     Y+1, R16
   2103                    temp2.long_word=temp2.long_word+temp1.word;  
   \   00000078   0F50               ADD     R21, R16
   \   0000007A   1F63               ADC     R22, R19
   \   0000007C   1F73               ADC     R23, R19
   \   0000007E   ....               RCALL   ?Subroutine254
   2104                     
   2105                    temp1.bytes[0]=buf_rx_ppp[26];                                //äëčíŕ
   \                     ??CrossCallReturnLabel_414:
   \   00000080   8D02               LDD     R16, Z+26
   \   00000082   8308               ST      Y, R16
   2106                    temp1.bytes[1]=buf_rx_ppp[27]; 
   \   00000084   8D03               LDD     R16, Z+27
   \   00000086   ....               RCALL   ?Subroutine31
   2107                    temp2.long_word=temp2.long_word+temp1.word; 
   \                     ??CrossCallReturnLabel_412:
   \   00000088   C001               RJMP    ??CrossCallReturnLabel_229
   2108                   
   2109                
   2110                    
   2111                   
   2112                    
   2113              
   2114                     /*  Fold 32-bit sum to 16 bits */
   2115                 while (temp2.long_word>>16)
   2116                     temp2.long_word = (temp2.long_word & 0xffff) + (temp2.long_word >> 16);
   \                     ??calc_crc_udp_2_2:
   \   0000008A   ....               RCALL   ?Subroutine137
   \                     ??CrossCallReturnLabel_229:
   \   0000008C   ....               RCALL   ?Subroutine192
   \                     ??CrossCallReturnLabel_301:
   \   0000008E   F7E9               BRNE    ??calc_crc_udp_2_2
   2117          
   2118                temp1.bytes[0]=~temp2.bytes[0];
   \   00000090   ........           CALL    ?Subroutine38
   2119                temp1.bytes[1]=~temp2.bytes[1]; 
   2120                    
   2121                 return(temp1.word);
   \                     ??CrossCallReturnLabel_62:
   \   00000094   9626               ADIW    R29:R28, 6
   \   00000096   ....               RJMP    ??Subroutine278_0
   2122                }

   \                                 In segment FARCODE, align 2, keep-with-next
   \                     ?Subroutine188:
   \   00000000   814A               LDD     R20, Y+2
   \   00000002   815B               LDD     R21, Y+3
   \   00000004   816C               LDD     R22, Y+4
   \   00000006   817D               LDD     R23, Y+5
   \   00000008   0F40               ADD     R20, R16
   \   0000000A   9508               RET

   \                                 In segment FARCODE, align 2, keep-with-next
   \                     ?Subroutine187:
   \   00000000   1F63               ADC     R22, R19
   \   00000002   1F73               ADC     R23, R19
   \   00000004   834A               STD     Y+2, R20
   \   00000006                      REQUIRE ?Subroutine254
   \   00000006                      ;               // Fall through to label ?Subroutine254

   \                                 In segment FARCODE, align 2, keep-with-next
   \                     ?Subroutine31:
   \   00000000   8309               STD     Y+1, R16
   \   00000002   8108               LD      R16, Y
   \   00000004   8119               LDD     R17, Y+1
   \   00000006   0F40               ADD     R20, R16
   \   00000008   1F51               ADC     R21, R17
   \   0000000A   1F63               ADC     R22, R19
   \   0000000C   1F73               ADC     R23, R19
   \   0000000E   834A               STD     Y+2, R20
   \   00000010   ....               RJMP    ?Subroutine254
   2123           
   2124           
   2125           
   2126           

   \                                 In segment FARCODE, align 2, keep-with-next
   2127           unsigned char proc_ppp_packet(unsigned char *buf_rx_ppp,unsigned int count_rx_ppp)
   \                     proc_ppp_packet:
   2128           {                
   \   00000000   ........           CALL    ?PROLOGUE9_L09
   \   00000004                      REQUIRE ?Register_R4_is_cg_reg
   \   00000004                      REQUIRE ?Register_R5_is_cg_reg
   \   00000004                      REQUIRE ?Register_R6_is_cg_reg
   \   00000004                      REQUIRE ?Register_R7_is_cg_reg
   \   00000004                      REQUIRE ?Register_R8_is_cg_reg
   \   00000004   9726               SBIW    R29:R28, 6
   \   00000006   01D8               MOVW    R27:R26, R17:R16
   \   00000008   0129               MOVW    R5:R4, R19:R18
   2129              unsigned int i;
   2130              unsigned char vol_length_opt;
   2131              unsigned char ind_opt,count_length_opt;
   2132               
   2133               struct
   2134           {
   2135            unsigned char mru :1;  
   2136            unsigned char accm :1; 
   2137            unsigned char aut_prot :1; 
   2138            unsigned char pfc :1;
   2139            unsigned char acfc :1;
   2140            unsigned char zap_opt:1;
   2141            unsigned char ip_self:1;
   2142            unsigned char ip_pri_dns:1;
   2143           }fl_opt;     
   2144                                     
   2145            
   2146            
   2147            union
   2148           {
   2149           unsigned char bytes[2]; 
   2150           unsigned int word;
   2151           } Crc_out,temp,length;
   2152              
   2153              
   2154             
   2155           
   2156            if(count_rx_ppp<=5)return(1); 
   \   0000000A   3026               CPI     R18, 6
   \   0000000C   E000               LDI     R16, 0
   \   0000000E   0650               CPC     R5, R16
   \   00000010   F428               BRCC    ??proc_ppp_packet_0
   \                     ??proc_ppp_packet_1:
   \   00000012   E001               LDI     R16, 1
   \   00000014   9626               ADIW    R29:R28, 6
   \   00000016   E0E9               LDI     R30, 9
   \   00000018   ........           JMP     ?EPILOGUE_B9_L09
   2157             
   2158              //ďîäń÷ĺň FCS      
   2159            if (pppfcs16(PPPINITFCS16,&buf_rx_ppp[1],count_rx_ppp-2)!=PPPGOODFCS16)return(1);       
   \                     ??proc_ppp_packet_0:
   \   0000001C   01A9               MOVW    R21:R20, R19:R18
   \   0000001E   5042               SUBI    R20, 2
   \   00000020   4050               SBCI    R21, 0
   \   00000022   019D               MOVW    R19:R18, R27:R26
   \   00000024   5F2F               SUBI    R18, 255
   \   00000026   4F3F               SBCI    R19, 255
   \   00000028   EF0F               LDI     R16, 255
   \   0000002A   EF1F               LDI     R17, 255
   \   0000002C   ....               RCALL   pppfcs16
   \   0000002E   3B08               CPI     R16, 184
   \   00000030   4F10               SBCI    R17, 240
   \   00000032   F779               BRNE    ??proc_ppp_packet_1
   2160           
   2161           
   2162            if ((buf_rx_ppp[1]==0xff)&&(buf_rx_ppp[2]==0x03)&&(buf_rx_ppp[3]==0xc0)&&(buf_rx_ppp[4]==0x21)&&(layer_PPP!=LAYER_HW))rcvd_protokol=PR_LCP; 
   \   00000034   ....               LDI     R18, LOW(ip_pri_dns)
   \   00000036   ....               LDI     R19, (ip_pri_dns) >> 8
   \   00000038   ....               RCALL   ?Subroutine121
   \                     ??CrossCallReturnLabel_733:
   \   0000003A   3F0F               CPI     R16, 255
   \   0000003C   F481               BRNE    ??proc_ppp_packet_2
   \   0000003E   8102               LDD     R16, Z+2
   \   00000040   3003               CPI     R16, 3
   \   00000042   F469               BRNE    ??proc_ppp_packet_2
   \   00000044   8103               LDD     R16, Z+3
   \   00000046   3C00               CPI     R16, 192
   \   00000048   F451               BRNE    ??proc_ppp_packet_2
   \   0000004A   8104               LDD     R16, Z+4
   \   0000004C   3201               CPI     R16, 33
   \   0000004E   F439               BRNE    ??proc_ppp_packet_2
   \   00000050   9100....           LDS     R16, layer_PPP
   \   00000054   2300               TST     R16
   \   00000056   F019               BREQ    ??proc_ppp_packet_2
   \   00000058   E000               LDI     R16, 0
   \   0000005A   01F9               MOVW    R31:R30, R19:R18
   \   0000005C   8F05               STD     Z+29, R16
   2163            
   2164            
   2165            if(compress_off==1)
   \                     ??proc_ppp_packet_2:
   \   0000005E   ....               LDI     R16, LOW(ip_self)
   \   00000060   2E60               MOV     R6, R16
   \   00000062   ....               LDI     R16, (ip_self) >> 8
   \   00000064   2E70               MOV     R7, R16
   \   00000066   ....               LDI     R16, LOW(cnt_lcp_tm_out)
   \   00000068   ....               LDI     R17, (cnt_lcp_tm_out) >> 8
   \   0000006A   01F8               MOVW    R31:R30, R17:R16
   \   0000006C   8142               LDD     R20, Z+2
   \   0000006E   3041               CPI     R20, 1
   \   00000070   ....               RCALL   ?Subroutine122
   \                     ??CrossCallReturnLabel_198:
   \   00000072   F009               BREQ    $+2+2
   \   00000074   C087               RJMP    ??proc_ppp_packet_3
   2166            {
   2167              if ((buf_rx_ppp[1]==0xff)&&(buf_rx_ppp[2]==0x03)&&(buf_rx_ppp[3]==0xc0)&&(buf_rx_ppp[4]==0x23)&&(layer_PPP==LAYER_PAP))
   \   00000076   3F4F               CPI     R20, 255
   \   00000078   F479               BRNE    ??CrossCallReturnLabel_6
   \   0000007A   8142               LDD     R20, Z+2
   \   0000007C   3043               CPI     R20, 3
   \   0000007E   F461               BRNE    ??CrossCallReturnLabel_6
   \   00000080   8143               LDD     R20, Z+3
   \   00000082   3C40               CPI     R20, 192
   \   00000084   F449               BRNE    ??CrossCallReturnLabel_6
   \   00000086   8144               LDD     R20, Z+4
   \   00000088   3243               CPI     R20, 35
   \   0000008A   F431               BRNE    ??CrossCallReturnLabel_6
   \   0000008C   9140....           LDS     R20, layer_PPP
   \   00000090   3042               CPI     R20, 2
   \   00000092   F411               BRNE    ??CrossCallReturnLabel_6
   2168              {  
   2169              rcvd_protokol=PR_PAP;
   \   00000094   E041               LDI     R20, 1
   \   00000096   ....               RCALL   ?Subroutine6
   2170              for(i=0;i<(count_rx_ppp-3);i++) buf_rx_ppp[1+i]= buf_rx_ppp[3+i];
   2171              count_rx_ppp=count_rx_ppp-2;
   2172              }
   2173              
   2174             if ((buf_rx_ppp[1]==0xff)&&(buf_rx_ppp[2]==0x03)&&(buf_rx_ppp[3]==0x80)&&(buf_rx_ppp[4]==0x21)&&((layer_PPP==LAYER_IP)||(layer_PPP==LAYER_IPCP)))
   \                     ??CrossCallReturnLabel_6:
   \   00000098   ....               RCALL   ?Subroutine122
   \                     ??CrossCallReturnLabel_199:
   \   0000009A   3F4F               CPI     R20, 255
   \   0000009C   F479               BRNE    ??CrossCallReturnLabel_7
   \   0000009E   8142               LDD     R20, Z+2
   \   000000A0   3043               CPI     R20, 3
   \   000000A2   F461               BRNE    ??CrossCallReturnLabel_7
   \   000000A4   8143               LDD     R20, Z+3
   \   000000A6   3840               CPI     R20, 128
   \   000000A8   F449               BRNE    ??CrossCallReturnLabel_7
   \   000000AA   8144               LDD     R20, Z+4
   \   000000AC   3241               CPI     R20, 33
   \   000000AE   F431               BRNE    ??CrossCallReturnLabel_7
   \   000000B0   ....               RCALL   ?Subroutine197
   \                     ??CrossCallReturnLabel_308:
   \   000000B2   F011               BREQ    ??proc_ppp_packet_4
   \   000000B4   3043               CPI     R20, 3
   \   000000B6   F411               BRNE    ??CrossCallReturnLabel_7
   2175              {  
   2176              rcvd_protokol=PR_IPCP; 
   \                     ??proc_ppp_packet_4:
   \   000000B8   E042               LDI     R20, 2
   \   000000BA   ....               RCALL   ?Subroutine6
   2177              for(i=0;i<(count_rx_ppp-3);i++) buf_rx_ppp[1+i]= buf_rx_ppp[3+i];
   2178              count_rx_ppp=count_rx_ppp-2;
   2179              }
   2180              
   2181              if ((buf_rx_ppp[1]==0xff)&&(buf_rx_ppp[2]==0x03)&&(buf_rx_ppp[3]==0x00)&&(buf_rx_ppp[4]==0x21)&&(layer_PPP==LAYER_IP))
   \                     ??CrossCallReturnLabel_7:
   \   000000BC   ....               RCALL   ?Subroutine122
   \                     ??CrossCallReturnLabel_200:
   \   000000BE   3F4F               CPI     R20, 255
   \   000000C0   F4E9               BRNE    ??proc_ppp_packet_5
   \   000000C2   8142               LDD     R20, Z+2
   \   000000C4   3043               CPI     R20, 3
   \   000000C6   F4D1               BRNE    ??proc_ppp_packet_5
   \   000000C8   8143               LDD     R20, Z+3
   \   000000CA   2344               TST     R20
   \   000000CC   F4B9               BRNE    ??proc_ppp_packet_5
   \   000000CE   8144               LDD     R20, Z+4
   \   000000D0   3241               CPI     R20, 33
   \   000000D2   F4A1               BRNE    ??proc_ppp_packet_5
   \   000000D4   ....               RCALL   ?Subroutine197
   \                     ??CrossCallReturnLabel_309:
   \   000000D6   F491               BRNE    ??proc_ppp_packet_5
   2182              {
   2183                rcvd_protokol=PR_IP;
   \   000000D8   E043               LDI     R20, 3
   \   000000DA   01F9               MOVW    R31:R30, R19:R18
   \   000000DC   8F45               STD     Z+29, R20
   2184                for(i=0;i<(count_rx_ppp-4);i++) buf_rx_ppp[1+i]= buf_rx_ppp[4+i];
   \   000000DE   ....               RCALL   ?Subroutine8
   \                     ??CrossCallReturnLabel_21:
   \   000000E0   C004               RJMP    ??proc_ppp_packet_6
   \                     ??proc_ppp_packet_7:
   \   000000E2   ....               RCALL   ?Subroutine119
   \                     ??CrossCallReturnLabel_194:
   \   000000E4   8144               LDD     R20, Z+4
   \   000000E6   8341               STD     Z+1, R20
   \   000000E8   9601               ADIW    R25:R24, 1
   \                     ??proc_ppp_packet_6:
   \   000000EA   01F2               MOVW    R31:R30, R5:R4
   \   000000EC   9734               SBIW    R31:R30, 4
   \   000000EE   178E               CP      R24, R30
   \   000000F0   079F               CPC     R25, R31
   \   000000F2   F3B8               BRCS    ??proc_ppp_packet_7
   2185                count_rx_ppp=count_rx_ppp-3;
   \   000000F4   EF4D               LDI     R20, 253
   \   000000F6   0E44               ADD     R4, R20
   \   000000F8   EF4F               LDI     R20, 255
   \   000000FA   1E54               ADC     R5, R20
   2186              }
   2187              
   2188            }
   2189            else
   2190               {
   2191               if ((buf_rx_ppp[1]==0xc0)&&(buf_rx_ppp[2]==0x23)&&(layer_PPP==LAYER_PAP))rcvd_protokol=PR_PAP;
   2192               if ((buf_rx_ppp[1]==0x80)&&(buf_rx_ppp[2]==0x21)&&((layer_PPP==LAYER_IP)||(layer_PPP==LAYER_IPCP)))rcvd_protokol=PR_IPCP; 
   2193               if ((buf_rx_ppp[1]==0x21)&&(layer_PPP==LAYER_IP))rcvd_protokol=PR_IP;     
   2194               }
   2195            
   2196            
   2197            
   2198            
   2199            
   2200          
   2201           
   2202            
   2203               
   2204               switch (rcvd_protokol) 
   \                     ??proc_ppp_packet_5:
   \   000000FC   01C2               MOVW    R25:R24, R5:R4
   \   000000FE   9706               SBIW    R25:R24, 6
   \   00000100   01F9               MOVW    R31:R30, R19:R18
   \   00000102   8D45               LDD     R20, Z+29
   \   00000104   2344               TST     R20
   \   00000106   F051               BREQ    ??proc_ppp_packet_8
   \   00000108   954A               DEC     R20
   \   0000010A   F409               BRNE    $+2+2
   \   0000010C   C132               RJMP    ??proc_ppp_packet_9
   \   0000010E   954A               DEC     R20
   \   00000110   F409               BRNE    $+2+2
   \   00000112   C14D               RJMP    ??proc_ppp_packet_10
   \   00000114   954A               DEC     R20
   \   00000116   F409               BRNE    $+2+2
   \   00000118   C058               RJMP    ??proc_ppp_packet_11
   \   0000011A   CF7B               RJMP    ??proc_ppp_packet_1
   2205                {
   2206                 case PR_LCP:
   2207           
   2208                     
   2209                        // çäĺńü  ďđîâĺđęŕ îáůĺé äëčíű     
   2210                        length.bytes[1]=buf_rx_ppp[7];
   \                     ??proc_ppp_packet_8:
   \   0000011C   01FD               MOVW    R31:R30, R27:R26
   \   0000011E   8147               LDD     R20, Z+7
   \   00000120   834B               STD     Y+3, R20
   2211                        length.bytes[0]=buf_rx_ppp[8];
   \   00000122   8540               LDD     R20, Z+8
   \   00000124   834A               STD     Y+2, R20
   2212                        if (length.word!=count_rx_ppp-8)return(1);
   \   00000126   815B               LDD     R21, Y+3
   \   00000128   01C2               MOVW    R25:R24, R5:R4
   \   0000012A   9708               SBIW    R25:R24, 8
   \   0000012C   1748               CP      R20, R24
   \   0000012E   0759               CPC     R21, R25
   \   00000130   F009               BREQ    $+2+2
   \   00000132   CF6F               RJMP    ??proc_ppp_packet_1
   2213                        if (count_rx_ppp>MAX_DL_LCP)return(1);//íĺ âîńďđčíčěŕňü äëčííűĺ ďŕęĺňű                           
   \   00000134   E249               LDI     R20, 41
   \   00000136   1644               CP      R4, R20
   \   00000138   E040               LDI     R20, 0
   \   0000013A   0654               CPC     R5, R20
   \   0000013C   F008               BRCS    $+2+2
   \   0000013E   CF69               RJMP    ??proc_ppp_packet_1
   2214                        
   2215                        vol_length_opt=count_rx_ppp-12;
   \   00000140   EF44               LDI     R20, 244
   \   00000142   0E44               ADD     R4, R20
   2216                        count_length_opt=0;
   \   00000144   2422               CLR     R2
   2217                        ind_opt=9;  
   \   00000146   E079               LDI     R23, 9
   2218                       
   2219                        ln_rejc_lcp=0;
   \   00000148   01F9               MOVW    R31:R30, R19:R18
   \   0000014A   AE21               STD     Z+57, R2
   2220                        ln_ack_lcp=0;
   \   0000014C   01F8               MOVW    R31:R30, R17:R16
   \   0000014E   96FD               ADIW    R31:R30, 61
   \   00000150   8220               ST      Z, R2
   2221                        ln_nak_lcp=0;
   \   00000152   01F8               MOVW    R31:R30, R17:R16
   \   00000154   96FE               ADIW    R31:R30, 62
   \   00000156   8220               ST      Z, R2
   2222                        ln_rej_lcp=0; 
   \   00000158   01F8               MOVW    R31:R30, R17:R16
   \   0000015A   96FC               ADIW    R31:R30, 60
   \   0000015C   8220               ST      Z, R2
   2223                        
   2224                                            
   2225                       
   2226                                     
   2227                        switch (buf_rx_ppp[5])      
   \   0000015E   01F8               MOVW    R31:R30, R17:R16
   \   00000160   8D45               LDD     R20, Z+29
   \   00000162   01FD               MOVW    R31:R30, R27:R26
   \   00000164   8155               LDD     R21, Z+5
   \   00000166   955A               DEC     R21
   \   00000168   F051               BREQ    ??proc_ppp_packet_12
   \   0000016A   955A               DEC     R21
   \   0000016C   F409               BRNE    $+2+2
   \   0000016E   C0D7               RJMP    ??proc_ppp_packet_13
   \   00000170   955A               DEC     R21
   \   00000172   F409               BRNE    $+2+2
   \   00000174   C0E0               RJMP    ??proc_ppp_packet_14
   \   00000176   955A               DEC     R21
   \   00000178   F409               BRNE    $+2+2
   \   0000017A   C0DD               RJMP    ??proc_ppp_packet_14
   \   0000017C   CF4A               RJMP    ??proc_ppp_packet_1
   2228                            {
   2229                            case CONF_REQ :          
   2230                           // (ĺńëč âîîáůĺ íĺ ňĺ îďöčč ňî ńáđîń ęîäŕ äŕňü) 
   2231                                //ďđîâĺđęŕ ďđĺäëîćĺííîé ęîíôčăóđŕöčč îň ńĺđâĺđŕ    
   2232                                //ĺńëč íóćíŕ˙ ęîíôčăóđŕöč˙ ňî ńîáűňčĺ RCR+                  
   2233                                //ĺńëč íĺň ňî RCR-;                       
   2234                              
   2235                       /*
   2236                             for(i=0;i<vol_length_opt;i++)              //ńîăëŕřĺíčĺ íŕ ëţáóţ ęîíôčăóđŕöčţ
   2237                                 {
   2238                                 buf_ack_opt_lcp[ln_ack_lcp]=buf_rx_ppp[ind_opt];
   2239                                 ln_ack_lcp++;
   2240                                 //count_length_opt++;
   2241                                 ind_opt++;
   2242                                 }
   2243                            
   2244                            LCP_event=RCR_PL;
   2245                            i_scan_lcp=buf_rx_ppp[6];    // ďđčńâîĺíčĺ čäĺíňčôčęŕňîđŕ                   
   2246                            return(1); 
   2247                               */
   2248                          
   2249                              fl_opt.zap_opt=0;  
   \                     ??proc_ppp_packet_12:
   \   0000017E   94E8               CLT
   \   00000180   F885               BLD     R8, 5
   \   00000182   C08A               RJMP    ??proc_ppp_packet_15
   \                     ??proc_ppp_packet_3:
   \   00000184   3C40               CPI     R20, 192
   \   00000186   F451               BRNE    ??proc_ppp_packet_16
   \   00000188   8142               LDD     R20, Z+2
   \   0000018A   3243               CPI     R20, 35
   \   0000018C   F439               BRNE    ??proc_ppp_packet_16
   \   0000018E   9140....           LDS     R20, layer_PPP
   \   00000192   3042               CPI     R20, 2
   \   00000194   F419               BRNE    ??proc_ppp_packet_16
   \   00000196   E041               LDI     R20, 1
   \   00000198   01F9               MOVW    R31:R30, R19:R18
   \   0000019A   8F45               STD     Z+29, R20
   \                     ??proc_ppp_packet_16:
   \   0000019C   ....               RCALL   ?Subroutine122
   \                     ??CrossCallReturnLabel_201:
   \   0000019E   3840               CPI     R20, 128
   \   000001A0   F451               BRNE    ??proc_ppp_packet_17
   \   000001A2   8142               LDD     R20, Z+2
   \   000001A4   3241               CPI     R20, 33
   \   000001A6   F439               BRNE    ??proc_ppp_packet_17
   \   000001A8   ....               RCALL   ?Subroutine197
   \                     ??CrossCallReturnLabel_310:
   \   000001AA   F011               BREQ    ??proc_ppp_packet_18
   \   000001AC   3043               CPI     R20, 3
   \   000001AE   F419               BRNE    ??proc_ppp_packet_17
   \                     ??proc_ppp_packet_18:
   \   000001B0   E042               LDI     R20, 2
   \   000001B2   01F9               MOVW    R31:R30, R19:R18
   \   000001B4   8F45               STD     Z+29, R20
   \                     ??proc_ppp_packet_17:
   \   000001B6   ....               RCALL   ?Subroutine122
   \                     ??CrossCallReturnLabel_202:
   \   000001B8   3241               CPI     R20, 33
   \   000001BA   F009               BREQ    $+2+2
   \   000001BC   CF9F               RJMP    ??proc_ppp_packet_5
   \   000001BE   ....               RCALL   ?Subroutine197
   \                     ??CrossCallReturnLabel_311:
   \   000001C0   F009               BREQ    $+2+2
   \   000001C2   CF9C               RJMP    ??proc_ppp_packet_5
   \   000001C4   E003               LDI     R16, 3
   \   000001C6   01F9               MOVW    R31:R30, R19:R18
   \   000001C8   8F05               STD     Z+29, R16
   2250                          
   2251          next_opt_lcp_11:  if(count_length_opt==vol_length_opt) goto end_pcp_opt_11;
   2252                                                                          //îáđŕáîňŕíű âńĺ îďöčč
   2253                  switch(buf_rx_ppp[ind_opt])
   2254                  {
   2255                     case AUT_PROT:
   2256          
   2257                          if ((buf_rx_ppp[ind_opt+2]!=0xc0)||(buf_rx_ppp[ind_opt+3]!=0x23))
   2258                          {
   2259                            fl_opt.zap_opt=1;
   2260                            
   2261                                                    
   2262                            buf_nak_opt_lcp[ln_nak_lcp]=3;
   2263                            ln_nak_lcp++;                                        
   2264                            buf_nak_opt_lcp[ln_nak_lcp]=4;
   2265                            ln_nak_lcp++;
   2266                            buf_nak_opt_lcp[ln_nak_lcp]=0xc0; 
   2267                            ln_nak_lcp++;                     
   2268                            buf_nak_opt_lcp[ln_nak_lcp]=0x23; 
   2269                            ln_nak_lcp++;        
   2270                           
   2271                          //  count_length_opt=count_length_opt+buf_rx_ppp[ind_opt+1];        
   2272                          //  ind_opt=ind_opt+buf_rx_ppp[ind_opt+1];      
   2273                          }
   2274                          else for(i=0;i<buf_rx_ppp[ind_opt+1];i++){buf_ack_opt_lcp[ln_ack_lcp]=buf_rx_ppp[ind_opt+i];ln_ack_lcp++;}
   2275                          
   2276                      count_length_opt=count_length_opt+buf_rx_ppp[ind_opt+1];        
   2277                      ind_opt=ind_opt+buf_rx_ppp[ind_opt+1];     
   2278                      goto next_opt_lcp_11;                                  
   2279                     
   2280                       default:             
   2281                       for(i=0;i<buf_rx_ppp[ind_opt+1];i++){buf_ack_opt_lcp[ln_ack_lcp]=buf_rx_ppp[ind_opt+i];ln_ack_lcp++;}
   2282                       for(i=0;i<buf_rx_ppp[ind_opt+1];i++){buf_nak_opt_lcp[ln_nak_lcp]=buf_rx_ppp[ind_opt+i];ln_nak_lcp++;}
   2283                       count_length_opt=count_length_opt+buf_rx_ppp[ind_opt+1];        
   2284                       ind_opt=ind_opt+buf_rx_ppp[ind_opt+1];   
   2285                       goto next_opt_lcp_11; 
   2286                  }
   2287                                   
   2288             end_pcp_opt_11:                     
   2289                          
   2290                            if(fl_opt.zap_opt==0)LCP_event=RCR_PL;else LCP_event=RCR_MI;
   2291                            fl_opt.zap_opt=0;
   2292                            i_scan_lcp=buf_rx_ppp[6];    // ďđčńâîĺíčĺ čäĺíňčôčęŕňîđŕ                   
   2293                            return(1); 
   2294                               
   2295               /*              
   2296                            
   2297                 next_opt_lcp_1:  if(count_length_opt==vol_length_opt) { 
   2298              
   2299                                                                       goto end_pcp_opt_1;
   2300                                                                       }   //îáđŕáîňŕíű âńĺ îďöčč
   2301                                 
   2302                                 switch(buf_rx_ppp[ind_opt])
   2303                                    {
   2304                                      case MRU: 
   2305             
   2306                                           if (buf_rx_ppp[ind_opt+1]!=4)
   2307                                                {                                        
   2308                                                  for(i=5;i<=count_rx_ppp-4;i++){buf_rejc_opt_lcp[ln_rejc_lcp]=buf_rx_ppp[i];ln_rejc_lcp++;}
   2309                                                  LCP_event=RUC;
   2310                                                  return(1);
   2311                                                  } 
   2312                                           if ((buf_rx_ppp[ind_opt+2]==DL_PPP_IN_HI)&&(buf_rx_ppp[ind_opt+3]==DL_PPP_IN_LO)) 
   2313                                                 {    
   2314                                                  fl_opt.mru=1;
   2315                                                  buf_ack_opt_lcp[ln_ack_lcp]=buf_rx_ppp[ind_opt];
   2316                                                  ln_ack_lcp++;
   2317                                                  
   2318                                                  buf_ack_opt_lcp[ln_ack_lcp]=buf_rx_ppp[ind_opt+1];
   2319                                                  ln_ack_lcp++;
   2320                                                  
   2321                                                  buf_ack_opt_lcp[ln_ack_lcp]=buf_rx_ppp[ind_opt+2]; 
   2322                                                  ln_ack_lcp++;  
   2323                                                  
   2324                                                  buf_ack_opt_lcp[ln_ack_lcp]=buf_rx_ppp[ind_opt+3]; 
   2325                                                  ln_ack_lcp++; 
   2326                                                 }
   2327                                               else   
   2328                                                  {
   2329                                                  buf_nak_opt_lcp[ln_nak_lcp]=buf_rx_ppp[ind_opt];
   2330                                                  ln_nak_lcp++;
   2331                                                  
   2332                                                  buf_nak_opt_lcp[ln_nak_lcp]=buf_rx_ppp[ind_opt+1];
   2333                                                  ln_nak_lcp++;
   2334                                                  
   2335                                                  buf_nak_opt_lcp[ln_nak_lcp]=buf_rx_ppp[ind_opt+2]; 
   2336                                                  ln_nak_lcp++;  
   2337                                                  
   2338                                                  buf_nak_opt_lcp[ln_nak_lcp]=buf_rx_ppp[ind_opt+3]; 
   2339                                                  ln_nak_lcp++; 
   2340                                                  }  
   2341                                           count_length_opt=count_length_opt+buf_rx_ppp[ind_opt+1];        
   2342                                           ind_opt=ind_opt+buf_rx_ppp[ind_opt+1];
   2343                                           goto next_opt_lcp_1;   
   2344                                           
   2345                                      case ACCM:       
   2346                                            if (buf_rx_ppp[ind_opt+1]!=6)
   2347                                                {
   2348                                                  for(i=5;i<=count_rx_ppp-4;i++){buf_rejc_opt_lcp[ln_rejc_lcp]=buf_rx_ppp[i];ln_rejc_lcp++;}
   2349                                                  LCP_event=RUC;
   2350                                                  return(1);
   2351                                                  } 
   2352                                              
   2353                                              if ( 
   2354                                                     (buf_rx_ppp[ind_opt+2]==0)&&
   2355                                                     (buf_rx_ppp[ind_opt+3]==0)&& 
   2356                                                     (buf_rx_ppp[ind_opt+4]==0)&&
   2357                                                     (buf_rx_ppp[ind_opt+5]==0) 
   2358                                                  ) 
   2359                                                 
   2360                                                 {   
   2361                                                 
   2362                                                  fl_opt.accm=1;
   2363                                                  buf_ack_opt_lcp[ln_ack_lcp]=buf_rx_ppp[ind_opt];
   2364                                                  ln_ack_lcp++;
   2365                                                  
   2366                                                  buf_ack_opt_lcp[ln_ack_lcp]=buf_rx_ppp[ind_opt+1];
   2367                                                  ln_ack_lcp++;
   2368                                                  
   2369                                                  buf_ack_opt_lcp[ln_ack_lcp]=buf_rx_ppp[ind_opt+2]; 
   2370                                                  ln_ack_lcp++;  
   2371                                                  
   2372                                                  buf_ack_opt_lcp[ln_ack_lcp]=buf_rx_ppp[ind_opt+3]; 
   2373                                                  ln_ack_lcp++; 
   2374                                                  
   2375                                                  buf_ack_opt_lcp[ln_ack_lcp]=buf_rx_ppp[ind_opt+4]; 
   2376                                                  ln_ack_lcp++;
   2377                                                  
   2378                                                  buf_ack_opt_lcp[ln_ack_lcp]=buf_rx_ppp[ind_opt+5]; 
   2379                                                  ln_ack_lcp++;
   2380                                                 }
   2381                                               else   
   2382                                                  {
   2383                                                  buf_nak_opt_lcp[ln_nak_lcp]=buf_rx_ppp[ind_opt];
   2384                                                  ln_nak_lcp++;
   2385                                                  
   2386                                                  buf_nak_opt_lcp[ln_nak_lcp]=buf_rx_ppp[ind_opt+1];
   2387                                                  ln_nak_lcp++;
   2388                                                  
   2389                                                  buf_nak_opt_lcp[ln_nak_lcp]=buf_rx_ppp[ind_opt+2]; 
   2390                                                  ln_nak_lcp++;  
   2391                                                  
   2392                                                  buf_nak_opt_lcp[ln_nak_lcp]=buf_rx_ppp[ind_opt+3]; 
   2393                                                  ln_nak_lcp++;    
   2394                                                  
   2395                                                  buf_nak_opt_lcp[ln_nak_lcp]=buf_rx_ppp[ind_opt+4]; 
   2396                                                  ln_nak_lcp++;  
   2397                                                  
   2398                                                  buf_nak_opt_lcp[ln_nak_lcp]=buf_rx_ppp[ind_opt+5]; 
   2399                                                  ln_nak_lcp++; 
   2400                                                  }  
   2401                                           count_length_opt=count_length_opt+buf_rx_ppp[ind_opt+1];        
   2402                                           ind_opt=ind_opt+buf_rx_ppp[ind_opt+1];
   2403                                           goto next_opt_lcp_1;                                       
   2404          
   2405                                               
   2406                                      
   2407                                      case AUT_PROT:
   2408                                                if (((buf_rx_ppp[ind_opt+1]-2)%2)!=0) 
   2409                                                    {
   2410                                                     for(i=5;i<=count_rx_ppp-4;i++){buf_rejc_opt_lcp[ln_rejc_lcp]=buf_rx_ppp[i];ln_rejc_lcp++;}
   2411                                                     LCP_event=RUC;
   2412                                                     return(1);
   2413                                                    }  
   2414                                                for(i=0;i<(buf_rx_ppp[ind_opt+1]-2);i=i+2)               
   2415                                                   {
   2416                                                   if ((buf_rx_ppp[ind_opt+2+i]==0xc0)&&(buf_rx_ppp[ind_opt+3+i]==0x23)) 
   2417                                                        {
   2418                                                         
   2419                                                         fl_opt.aut_prot=1;
   2420                                                         
   2421                                                         buf_ack_opt_lcp[ln_ack_lcp]=buf_rx_ppp[ind_opt];
   2422                                                         ln_ack_lcp++;
   2423                                             
   2424                                                         buf_ack_opt_lcp[ln_ack_lcp]=buf_rx_ppp[ind_opt+1];
   2425                                                         ln_ack_lcp++;
   2426                                                  
   2427                                                         buf_ack_opt_lcp[ln_ack_lcp]=buf_rx_ppp[ind_opt+2+i]; 
   2428                                                         ln_ack_lcp++;  
   2429                                                  
   2430                                                         buf_ack_opt_lcp[ln_ack_lcp]=buf_rx_ppp[ind_opt+3+i]; 
   2431                                                         ln_ack_lcp++; 
   2432                                                        }
   2433                                                      else   
   2434                                                       {
   2435                                                       
   2436                                                       if (fl_opt.zap_opt==0)
   2437                                                           {
   2438                                                            fl_opt.zap_opt=1;                                            
   2439                                                            buf_nak_opt_lcp[ln_nak_lcp]=buf_rx_ppp[ind_opt];
   2440                                                            ln_nak_lcp++;                                        
   2441                                                            buf_nak_opt_lcp[ln_nak_lcp]=buf_rx_ppp[ind_opt+1];
   2442                                                            ln_nak_lcp++;
   2443                                                            }
   2444                                                       buf_nak_opt_lcp[ln_nak_lcp]=buf_rx_ppp[ind_opt+2+i]; 
   2445                                                       ln_nak_lcp++;                     
   2446                                                        buf_nak_opt_lcp[ln_nak_lcp]=buf_rx_ppp[ind_opt+3+i]; 
   2447                                                       ln_nak_lcp++;                                             
   2448                                                      }              
   2449                                                      
   2450                                                     }  
   2451                                           count_length_opt=count_length_opt+buf_rx_ppp[ind_opt+1];        
   2452                                           ind_opt=ind_opt+buf_rx_ppp[ind_opt+1];          
   2453                                           goto next_opt_lcp_1;                   
   2454                                            
   2455                                      case PFC:
   2456                                            if (buf_rx_ppp[ind_opt+1]!=2)
   2457                                                {                                        
   2458                                                  for(i=5;i<=count_rx_ppp-4;i++){buf_rejc_opt_lcp[ln_rejc_lcp]=buf_rx_ppp[i];ln_rejc_lcp++;}
   2459                                                  LCP_event=RUC;
   2460                                                  return(1);
   2461                                                  } 
   2462          
   2463          
   2464                                                  fl_opt.pfc=1;
   2465                                                  buf_ack_opt_lcp[ln_ack_lcp]=buf_rx_ppp[ind_opt];
   2466                                                  ln_ack_lcp++;
   2467                                                  
   2468                                                  buf_ack_opt_lcp[ln_ack_lcp]=buf_rx_ppp[ind_opt+1];
   2469                                                  ln_ack_lcp++;                                        
   2470                                                  
   2471                                                  count_length_opt=count_length_opt+buf_rx_ppp[ind_opt+1];        
   2472                                                  ind_opt=ind_opt+buf_rx_ppp[ind_opt+1];          
   2473                                                  goto next_opt_lcp_1;   
   2474                                                   
   2475                                            
   2476                                      case ACFC:      
   2477                                             if (buf_rx_ppp[ind_opt+1]!=2)
   2478                                                {                                        
   2479                                                  for(i=5;i<=count_rx_ppp-4;i++){buf_rejc_opt_lcp[ln_rejc_lcp]=buf_rx_ppp[i];ln_rejc_lcp++;}
   2480                                                  LCP_event=RUC;
   2481                                                  return(1);
   2482                                                  } 
   2483                                                  
   2484                                                  
   2485                                                  fl_opt.acfc=1;
   2486                                                  buf_ack_opt_lcp[ln_ack_lcp]=buf_rx_ppp[ind_opt];
   2487                                                  ln_ack_lcp++;
   2488                                                  
   2489                                                  buf_ack_opt_lcp[ln_ack_lcp]=buf_rx_ppp[ind_opt+1];
   2490                                                  ln_ack_lcp++;                                        
   2491                                                  
   2492                                                  count_length_opt=count_length_opt+buf_rx_ppp[ind_opt+1];        
   2493                                                  ind_opt=ind_opt+buf_rx_ppp[ind_opt+1];          
   2494                                                  goto next_opt_lcp_1;   
   2495                                      
   2496                                      default:
   2497          
   2498                                                  for(i=0;i<buf_rx_ppp[ind_opt+1];i++){buf_rej_opt_lcp[ln_rej_lcp]=buf_rx_ppp[ind_opt+i];ln_rej_lcp++;}
   2499                                                  count_length_opt=count_length_opt+buf_rx_ppp[ind_opt+1];        
   2500                                                  ind_opt=ind_opt+buf_rx_ppp[ind_opt+1];      
   2501                                            goto next_opt_lcp_1;        
   2502                                    }
   2503                                                      
   2504           end_pcp_opt_1:        
   2505                                 
   2506                             
   2507                                                                                          
   2508                                 
   2509                                 if (ln_rej_lcp!=0)                    
   2510                                   {
   2511               
   2512                                   LCP_event=RCR_MI;
   2513                                   fl_lcp2.nac_rej=1;
   2514                                   return(1); 
   2515                                   }
   2516                                 
   2517                                 
   2518                                
   2519                                     
   2520                                if(fl_opt.accm==0) 
   2521                                      {  
   2522                                      buf_nak_opt_lcp[ln_nak_lcp]=ACCM;
   2523                                      ln_nak_lcp++;                                        
   2524                                      buf_nak_opt_lcp[ln_nak_lcp]=6;
   2525                                      ln_nak_lcp++;
   2526                                      buf_nak_opt_lcp[ln_nak_lcp]=0; 
   2527                                      ln_nak_lcp++;  
   2528                                      buf_nak_opt_lcp[ln_nak_lcp]=0; 
   2529                                      ln_nak_lcp++;             
   2530                                      buf_nak_opt_lcp[ln_nak_lcp]=0; 
   2531                                      ln_nak_lcp++;                              
   2532                                      buf_nak_opt_lcp[ln_nak_lcp]=0; 
   2533                                      ln_nak_lcp++; 
   2534                                      }
   2535                                               
   2536                                if(fl_opt.aut_prot==0) 
   2537                                      {    
   2538                                        
   2539                                
   2540                                   
   2541                                       
   2542                                      buf_nak_opt_lcp[ln_nak_lcp]=AUT_PROT;
   2543                                      ln_nak_lcp++;
   2544                                                  
   2545                                      buf_nak_opt_lcp[ln_nak_lcp]=4;
   2546                                      ln_nak_lcp++;
   2547                                                  
   2548                                      buf_nak_opt_lcp[ln_nak_lcp]=0xc0; 
   2549                                      ln_nak_lcp++;  
   2550                                      
   2551                                      buf_nak_opt_lcp[ln_nak_lcp]=0x23; 
   2552                                      ln_nak_lcp++;                    
   2553                                      }   
   2554                                if(fl_opt.pfc==0) 
   2555                                      { 
   2556                                      buf_nak_opt_lcp[ln_nak_lcp]=PFC;
   2557                                      ln_nak_lcp++;
   2558                                                  
   2559                                      buf_nak_opt_lcp[ln_nak_lcp]=2;
   2560                                      ln_nak_lcp++; 
   2561                                      }                  
   2562                               if(fl_opt.acfc==0) 
   2563                                      { 
   2564                                       buf_nak_opt_lcp[ln_nak_lcp]=ACFC;
   2565                                      ln_nak_lcp++;
   2566                                                  
   2567                                      buf_nak_opt_lcp[ln_nak_lcp]=2;
   2568                                      ln_nak_lcp++; 
   2569                                      }                   
   2570                                   
   2571                          
   2572                           
   2573                                                   
   2574                                   if (ln_nak_lcp!=0)                    
   2575                                   { 
   2576                 
   2577                                   LCP_event=RCR_MI;
   2578                                   fl_lcp2.nac_rej=0;  
   2579                                   i_scan_lcp=buf_rx_ppp[6];     // ďđčńâîĺíčĺ čäĺíňčôčęŕňîđŕ                 
   2580                                   return(1); 
   2581                                   } 
   2582                                 
   2583                                   if (ln_ack_lcp!=0)                    
   2584                                   {
   2585                                   
   2586                                   
   2587                                   LCP_event=RCR_PL;
   2588                                   i_scan_lcp=buf_rx_ppp[6];    // ďđčńâîĺíčĺ čäĺíňčôčęŕňîđŕ                   
   2589                                   return(1); 
   2590                                   }  
   2591                                
   2592                                
   2593                                  
   2594                                break; 
   2595                                */
   2596                                 
   2597                            case CONF_ACK : 
   2598                                //ďđîâĺđęŕ îďöčé (ĺńëč âîîáůĺ íĺ ňĺ îďöčč ňî ńáđîń ęîäŕ äŕňü)
   2599                                //îďöčč ňŕ, ňî ńîáűňčĺ RCA
   2600                              
   2601                              if(buf_rx_ppp[6]!=i_scr_lcp)return(1); //ďđîâĺđęŕ čäĺíňčôčęŕňîđŕ
   2602                              //íĺ îáđŕáŕňűâŕňü îďöčč
   2603                              //ńđŕçó RCA
   2604                              LCP_event=RCA;
   2605                              i_scr_lcp++;//ďđčđŕůĺíčĺ čäĺíňčôčęŕňîđŕ                      
   2606                              return(1);  
   2607                              
   2608                              /*
   2609             next_opt_lcp_2:  if(count_length_opt==vol_length_opt) goto end_pcp_opt_2;   //îáđŕáîňŕíű âńĺ îďöčč
   2610                                 
   2611                                 switch(buf_rx_ppp[ind_opt])
   2612                                    {
   2613                                      case ACCM:       
   2614                                            if (buf_rx_ppp[ind_opt+1]!=6)
   2615                                                {
   2616                                                  for(i=5;i<=count_rx_ppp-4;i++){buf_rejc_opt_lcp[ln_rejc_lcp]=buf_rx_ppp[i];ln_rejc_lcp++;}
   2617                                                  LCP_event=RUC;
   2618                                                  return(1);
   2619                                                  } 
   2620                                              
   2621                                              if ( 
   2622                                                     (buf_rx_ppp[ind_opt+2]==0)&&
   2623                                                     (buf_rx_ppp[ind_opt+3]==0x0a)&& 
   2624                                                     (buf_rx_ppp[ind_opt+4]==0)&&
   2625                                                     (buf_rx_ppp[ind_opt+5]==0) 
   2626                                                  )  fl_opt.accm=1;                                        
   2627                                               
   2628                                                 
   2629                                               
   2630                                                
   2631                                           count_length_opt=count_length_opt+buf_rx_ppp[ind_opt+1];        
   2632                                           ind_opt=ind_opt+buf_rx_ppp[ind_opt+1];
   2633                                           goto next_opt_lcp_2;     
   2634                                        
   2635                                        case PFC:
   2636                                            if (buf_rx_ppp[ind_opt+1]!=2)
   2637                                                {                                        
   2638                                                  for(i=5;i<=count_rx_ppp-4;i++){buf_rejc_opt_lcp[ln_rejc_lcp]=buf_rx_ppp[i];ln_rejc_lcp++;}
   2639                                                  LCP_event=RUC;
   2640                                                  return(1);
   2641                                                  } 
   2642          
   2643                                                  fl_opt.pfc=1;
   2644                                                  count_length_opt=count_length_opt+buf_rx_ppp[ind_opt+1];        
   2645                                                  ind_opt=ind_opt+buf_rx_ppp[ind_opt+1];          
   2646                                                  goto next_opt_lcp_2;   
   2647                                                   
   2648                                            
   2649                                      case ACFC:      
   2650                                             if (buf_rx_ppp[ind_opt+1]!=2)
   2651                                                {                                        
   2652                                                  for(i=5;i<=count_rx_ppp-4;i++){buf_rejc_opt_lcp[ln_rejc_lcp]=buf_rx_ppp[i];ln_rejc_lcp++;}
   2653                                                  LCP_event=RUC;
   2654                                                  return(1);
   2655                                                  } 
   2656          
   2657                                                  fl_opt.acfc=1;
   2658                                                                                      
   2659                                                  
   2660                                                  count_length_opt=count_length_opt+buf_rx_ppp[ind_opt+1];        
   2661                                                  ind_opt=ind_opt+buf_rx_ppp[ind_opt+1];          
   2662                                                  goto next_opt_lcp_2;      
   2663                                      
   2664                                      default:    for(i=5;i<=count_rx_ppp-4;i++){buf_rejc_opt_lcp[ln_rejc_lcp]=buf_rx_ppp[i];ln_rejc_lcp++;}
   2665                                                  LCP_event=RUC;
   2666                                                  return(1);    
   2667                                            
   2668                                    }
   2669                                
   2670                                
   2671            end_pcp_opt_2:      if((fl_opt.accm==1)&&(fl_opt.acfc==1)&&(fl_opt.pfc==1))
   2672                                  {       
   2673                                            
   2674                                   LCP_event=RCA;
   2675                                   i_scr_lcp++;//ďđčđŕůĺíčĺ čäĺíňčôčęŕňîđŕ                      
   2676                                   return(1);      
   2677                                  } 
   2678                                  else
   2679                                  {
   2680                                  for(i=5;i<=count_rx_ppp-4;i++){buf_rejc_opt_lcp[ln_rejc_lcp]=buf_rx_ppp[i];ln_rejc_lcp++;}
   2681                                  LCP_event=RUC;
   2682                                  return(1);               
   2683                                  }
   2684                                  */        
   2685                                 
   2686                            case CONF_NAK : 
   2687                                    //!!!!! ďîäóěŕňü                    
   2688                                  // ňî RCN íî âńĺ đŕâíî çŕďđîń ňĺő ćĺ îďöčé  
   2689                                if(buf_rx_ppp[6]!=i_scr_lcp)return(1);                        //ďđîâĺđęŕ čäĺíňčôčęŕňîđŕ
   2690                                i_scr_lcp++;//ďđčđŕůĺíčĺ čäĺíňčôčęŕňîđŕ
   2691                                LCP_event=RCN; 
   2692                                
   2693                                if((buf_rx_ppp[9]==7)&&(buf_rx_ppp[10]==2)&&(buf_rx_ppp[11]==8)&&(buf_rx_ppp[12]==2))compress_off=1;
   2694                                
   2695                                
   2696                                return(1); 
   2697                            case CONF_REJ :
   2698                                  // !!!!! ďîäóěŕňü!!!!!!!!
   2699                                 // ňî RCN íî âńĺ đŕâíî çŕďđîń ňĺő ćĺ îďöčé 
   2700                                if(buf_rx_ppp[6]!=i_scr_lcp)return(1);                        //ďđîâĺđęŕ čäĺíňčôčęŕňîđŕ
   2701                                i_scr_lcp++;//ďđčđŕůĺíčĺ čäĺíňčôčęŕňîđŕ
   2702                                LCP_event=RCN;
   2703                                if((buf_rx_ppp[9]==7)&&(buf_rx_ppp[10]==2)&&(buf_rx_ppp[11]==8)&&(buf_rx_ppp[12]==2))compress_off=1;
   2704                                return(1);          
   2705                                           
   2706                            } 
   2707                              
   2708                 break;
   2709                 
   2710                 case PR_PAP:   
   2711                      
   2712                      
   2713                      
   2714                    
   2715            
   2716                         
   2717                      // çäĺńü  ďđîâĺđęŕ îáůĺé äëčíű     
   2718                        length.bytes[1]=buf_rx_ppp[5];
   2719                        length.bytes[0]=buf_rx_ppp[6];
   2720                        if (length.word!=count_rx_ppp-6)return(1);
   2721                        if (count_rx_ppp>MAX_DL_PAP)return(1);//íĺ âîńďđčíčěŕňü äëčííűĺ ďŕęĺňű                           
   2722                          
   2723          
   2724                                     
   2725                        switch (buf_rx_ppp[3])      
   2726                            {
   2727                            case CONF_ACK :
   2728                                 if(buf_rx_ppp[4]!=i_scr_pap)return(1);     //ďđîâĺđęŕ čäĺíňčôčęŕňîđŕ
   2729                                 PAP_event=RCA; 
   2730                                 return(1);                 
   2731                            } 
   2732                  
   2733                 break;
   2734                 
   2735                 
   2736                 case PR_IPCP: 
   2737                 
   2738                       
   2739                        
   2740                        // çäĺńü  ďđîâĺđęŕ îáůĺé äëčíű     
   2741                        length.bytes[1]=buf_rx_ppp[5];
   2742                        length.bytes[0]=buf_rx_ppp[6];
   2743                        if (length.word!=count_rx_ppp-6)return(1);
   2744                        if (count_rx_ppp>MAX_DL_IPCP)return(1);//íĺ âîńďđčíčěŕňü äëčííűĺ ďŕęĺňű                           
   2745                        
   2746                        vol_length_opt=count_rx_ppp-10;
   2747                        count_length_opt=0;
   2748                        ind_opt=7;  
   2749                       
   2750                        ln_rejc_ipcp=0;
   2751                        ln_ack_ipcp=0;
   2752                        ln_nak_ipcp=0;
   2753                        ln_rej_ipcp=0; 
   2754                        
   2755                       
   2756                                     
   2757                        switch (buf_rx_ppp[3])      
   2758                            {
   2759                            case CONF_REQ : 
   2760                                   
   2761                                     
   2762                           // (ĺńëč âîîáůĺ íĺ ňĺ îďöčč ňî ńáđîń ęîäŕ äŕňü) 
   2763                                //ďđîâĺđęŕ ďđĺäëîćĺííîé ęîíôčăóđŕöčč îň ńĺđâĺđŕ    
   2764                                //ĺńëč íóćíŕ˙ ęîíôčăóđŕöč˙ ňî ńîáűňčĺ RCR+                  
   2765                                //ĺńëč íĺň ňî RCR-;                       
   2766                               
   2767                              for(i=0;i<vol_length_opt;i++){buf_ack_opt_ipcp[ln_ack_ipcp]=buf_rx_ppp[ind_opt+i];ln_ack_ipcp++;}
   2768                              IPCP_event=RCR_PL;
   2769                              i_scan_ipcp=buf_rx_ppp[4];    // ďđčńâîĺíčĺ čäĺíňčôčęŕňîđŕ                   
   2770                              return(1);  
   2771                              
   2772                              //Ďîäňâĺđćäŕňü âńĺ!!!!!!!!!!
   2773                              
   2774          
   2775                                 
   2776                            case CONF_ACK : 
   2777                                //ďđîâĺđęŕ îďöčé (ĺńëč âîîáůĺ íĺ ňĺ îďöčč ňî ńáđîń ęîäŕ äŕňü)
   2778                                //îďöčč ňŕ, ňî ńîáűňčĺ RCA
   2779                            //  led2_on;    //ďîęŕ
   2780                            //  lock_it();    // ďîęŕ
   2781                              
   2782                             
   2783                                                   
   2784                              
   2785                              
   2786                              if(buf_rx_ppp[4]!=i_scr_ipcp)return(1);                        //ďđîâĺđęŕ čäĺíňčôčęŕňîđŕ
   2787                                
   2788                               IPCP_event=RCA;
   2789                               i_scr_ipcp++;//ďđčđŕůĺíčĺ čäĺíňčôčęŕňîđŕ                      
   2790                               return(1);  
   2791                               //ÍČ×ĹĂÎ ÄŔËÜŘĹ ÍĹ ĐŔÇÁČĐŔŇÜ!!!!!!!!!
   2792                        
   2793                                 
   2794                            case CONF_NAK :                     
   2795                                  // ňî RCN íî âńĺ đŕâíî çŕďđîń ňĺő ćĺ îďöčé  
   2796          
   2797                                if(buf_rx_ppp[4]!=i_scr_ipcp)return(1);                        //ďđîâĺđęŕ čäĺíňčôčęŕňîđŕ
   2798                               
   2799                               
   2800              next_opt_ipcp_3:  if(count_length_opt==vol_length_opt) goto end_ipcp_opt_3;   //îáđŕáîňŕíű âńĺ îďöčč
   2801                                 
   2802                                 switch(buf_rx_ppp[ind_opt])
   2803                                    { 
   2804                                    
   2805                                      case IP_SELF:       
   2806                                            if (buf_rx_ppp[ind_opt+1]!=6)
   2807                                                {
   2808                                                 // for(i=3;i<=count_rx_ppp-4;i++){buf_rejc_opt_ipcp[ln_rejc_ipcp]=buf_rx_ppp[i];ln_rejc_ipcp++;}
   2809                                                 // IPCP_event=RUC;
   2810                                                  return(1);
   2811                                                  } 
   2812                                                   
   2813                                                //  {modbus_mem1[0x15f-0x150]++;} 
   2814                                                                                            
   2815                                                    if (buf_rx_ppp[ind_opt+2] != ip_self[0] ) ip_change=1;
   2816                                                     if (buf_rx_ppp[ind_opt+3] != ip_self[1] ) ip_change=1;
   2817                                                      if (buf_rx_ppp[ind_opt+4] != ip_self[2] ) ip_change=1;
   2818                                                       if (buf_rx_ppp[ind_opt+5] != ip_self[3] ) ip_change=1;
   2819                                                   
   2820                                                    ip_self[0]=buf_rx_ppp[ind_opt+2];
   2821                                                    ip_self[1]=buf_rx_ppp[ind_opt+3];
   2822                                                    ip_self[2]=buf_rx_ppp[ind_opt+4];
   2823                                                    ip_self[3]=buf_rx_ppp[ind_opt+5]; 
   2824                                                    
   2825                                                    fl_opt.ip_self=1;                                        
   2826                                                
   2827                                           count_length_opt=count_length_opt+buf_rx_ppp[ind_opt+1];        
   2828                                           ind_opt=ind_opt+buf_rx_ppp[ind_opt+1];
   2829                                           goto next_opt_ipcp_3;  
   2830                                       
   2831                                       
   2832                                      case IP_PRI_DNS:       
   2833                                            if (buf_rx_ppp[ind_opt+1]!=6)
   2834                                                {
   2835                                               //   for(i=3;i<=count_rx_ppp-4;i++){buf_rejc_opt_ipcp[ln_rejc_ipcp]=buf_rx_ppp[i];ln_rejc_ipcp++;}
   2836                                               //   IPCP_event=RUC;
   2837                                                  return(1);
   2838                                                  } 
   2839                                                     
   2840                                                    ip_pri_dns[0]=buf_rx_ppp[ind_opt+2];
   2841                                                    ip_pri_dns[1]=buf_rx_ppp[ind_opt+3];
   2842                                                    ip_pri_dns[2]=buf_rx_ppp[ind_opt+4];
   2843                                                    ip_pri_dns[3]=buf_rx_ppp[ind_opt+5]; 
   2844                            
   2845                                                    fl_opt.ip_pri_dns=1;                                        
   2846                                                
   2847                                           count_length_opt=count_length_opt+buf_rx_ppp[ind_opt+1];        
   2848                                           ind_opt=ind_opt+buf_rx_ppp[ind_opt+1];
   2849                                           goto next_opt_ipcp_3; 
   2850                                       
   2851                                      
   2852                                      case IP_SEC_DNS:       
   2853                                            if (buf_rx_ppp[ind_opt+1]!=6)
   2854                                                {
   2855                                                //  for(i=3;i<=count_rx_ppp-4;i++){buf_rejc_opt_ipcp[ln_rejc_ipcp]=buf_rx_ppp[i];ln_rejc_ipcp++;}
   2856                                                //  IPCP_event=RUC;
   2857                                                  return(1);
   2858                                                  } 
   2859                                              
   2860                                                    ip_sec_dns[0]=buf_rx_ppp[ind_opt+2];
   2861                                                    ip_sec_dns[1]=buf_rx_ppp[ind_opt+3];
   2862                                                    ip_sec_dns[2]=buf_rx_ppp[ind_opt+4];
   2863                                                    ip_sec_dns[3]=buf_rx_ppp[ind_opt+5]; 
   2864                                                    fl_opt.mru=1;                                        
   2865                                                
   2866                                           count_length_opt=count_length_opt+buf_rx_ppp[ind_opt+1];        
   2867                                           ind_opt=ind_opt+buf_rx_ppp[ind_opt+1];
   2868                                           goto next_opt_ipcp_3; 
   2869                                       
   2870          
   2871                                      
   2872                                      default:   // for(i=3;i<=count_rx_ppp-4;i++){buf_rejc_opt_ipcp[ln_rejc_ipcp]=buf_rx_ppp[i];ln_rejc_ipcp++;}
   2873                                                 // IPCP_event=RUC;
   2874                                                  return(1);    
   2875                                            
   2876                                    }
   2877                                
   2878                                
   2879            end_ipcp_opt_3:                                        
   2880                                i_scr_ipcp++;//ďđčđŕůĺíčĺ čäĺíňčôčęŕňîđŕ
   2881                                IPCP_event=RCN;                                             
   2882                                return(1);         
   2883                                 
   2884                                
   2885                            case CONF_REJ :
   2886                                 // ňî RCN íî âńĺ đŕâíî çŕďđîń ňĺő ćĺ îďöčé 
   2887                                if(buf_rx_ppp[4]!=i_scr_ipcp)return(1);                        //ďđîâĺđęŕ čäĺíňčôčęŕňîđŕ
   2888                                i_scr_ipcp++;//ďđčđŕůĺíčĺ čäĺíňčôčęŕňîđŕ
   2889                                IPCP_event=RCN;
   2890          
   2891                                return(1);      
   2892                            
   2893                              
   2894                            } 
   2895                                      
   2896                 break;        
   2897                     
   2898                  
   2899                 case PR_IP:            
   2900             
   2901             
   2902            
   2903            if(count_rx_ppp<(33+MIN_TR_HEAD))return(1); 
   \                     ??proc_ppp_packet_11:
   \   000001CA   E20D               LDI     R16, 45
   \   000001CC   1640               CP      R4, R16
   \   000001CE   E000               LDI     R16, 0
   \   000001D0   0650               CPC     R5, R16
   \   000001D2   F408               BRCC    $+2+2
   \   000001D4   CF1E               RJMP    ??proc_ppp_packet_1
   2904             
   2905            
   2906            Crc_out.bytes[0]=buf_rx_ppp[12];    //ďđîâĺđęŕ CRC IP 
   \   000001D6   01FD               MOVW    R31:R30, R27:R26
   \   000001D8   8504               LDD     R16, Z+12
   \   000001DA   8308               ST      Y, R16
   2907            Crc_out.bytes[1]=buf_rx_ppp[13];  
   \   000001DC   8505               LDD     R16, Z+13
   \   000001DE   8309               STD     Y+1, R16
   2908            buf_rx_ppp[12]=0; 
   \   000001E0   E000               LDI     R16, 0
   \   000001E2   8704               STD     Z+12, R16
   2909            buf_rx_ppp[13]=0; 
   \   000001E4   8705               STD     Z+13, R16
   2910            temp.word=calc_crc_ip(&buf_rx_ppp[2],20);
   \   000001E6   E124               LDI     R18, 20
   \   000001E8   E030               LDI     R19, 0
   \   000001EA   018D               MOVW    R17:R16, R27:R26
   \   000001EC   ....               RCALL   ?Subroutine171
   \                     ??CrossCallReturnLabel_516:
   \   000001EE   ....               RCALL   calc_crc_ip
   \   000001F0   ....               RCALL   ?Subroutine37
   2911            if(Crc_out.word!=temp.word)return(1);
   \                     ??CrossCallReturnLabel_440:
   \   000001F2   F009               BREQ    $+2+2
   \   000001F4   CF0E               RJMP    ??proc_ppp_packet_1
   2912          
   2913          
   2914            
   2915            
   2916            if((buf_rx_ppp[18]!=ip_self[0])||       //ńâĺđęŕ ńî ńâîčě IP
   2917             (buf_rx_ppp[19]!=ip_self[1])|| 
   2918             (buf_rx_ppp[20]!=ip_self[2])|| 
   2919             (buf_rx_ppp[21]!=ip_self[3]))return(1);
   \   000001F6   01FD               MOVW    R31:R30, R27:R26
   \   000001F8   8902               LDD     R16, Z+18
   \   000001FA   ....               RCALL   ?Subroutine199
   \                     ??CrossCallReturnLabel_312:
   \   000001FC   8110               LD      R17, Z
   \   000001FE   1701               CP      R16, R17
   \   00000200   F009               BREQ    $+2+2
   \   00000202   CF07               RJMP    ??proc_ppp_packet_1
   \   00000204   01FD               MOVW    R31:R30, R27:R26
   \   00000206   8903               LDD     R16, Z+19
   \   00000208   ....               RCALL   ?Subroutine199
   \                     ??CrossCallReturnLabel_313:
   \   0000020A   8111               LDD     R17, Z+1
   \   0000020C   1701               CP      R16, R17
   \   0000020E   F009               BREQ    $+2+2
   \   00000210   CF00               RJMP    ??proc_ppp_packet_1
   \   00000212   01FD               MOVW    R31:R30, R27:R26
   \   00000214   8904               LDD     R16, Z+20
   \   00000216   ....               RCALL   ?Subroutine199
   \                     ??CrossCallReturnLabel_314:
   \   00000218   8112               LDD     R17, Z+2
   \   0000021A   1701               CP      R16, R17
   \   0000021C   F009               BREQ    $+2+2
   \   0000021E   CEF9               RJMP    ??proc_ppp_packet_1
   \   00000220   01FD               MOVW    R31:R30, R27:R26
   \   00000222   8905               LDD     R16, Z+21
   \   00000224   ....               RCALL   ?Subroutine199
   \                     ??CrossCallReturnLabel_315:
   \   00000226   8113               LDD     R17, Z+3
   \   00000228   1701               CP      R16, R17
   \   0000022A   F009               BREQ    $+2+2
   \   0000022C   CEF2               RJMP    ??proc_ppp_packet_1
   2920            
   2921           
   2922            
   2923            if(buf_rx_ppp[11]!=0x11)return(1);  //ńâĺđęŕ ń ďđîňîęîëîě UDP
   \   0000022E   01FD               MOVW    R31:R30, R27:R26
   \   00000230   8503               LDD     R16, Z+11
   \   00000232   3101               CPI     R16, 17
   \   00000234   F009               BREQ    $+2+2
   \   00000236   CEED               RJMP    ??proc_ppp_packet_1
   2924            
   2925            
   2926          
   2927            
   2928            Crc_out.bytes[0]=buf_rx_ppp[28];    //ďđîâĺđęŕ CRC UDP 
   \   00000238   8D04               LDD     R16, Z+28
   \   0000023A   8308               ST      Y, R16
   2929            Crc_out.bytes[1]=buf_rx_ppp[29];  
   \   0000023C   8D05               LDD     R16, Z+29
   \   0000023E   8309               STD     Y+1, R16
   2930            buf_rx_ppp[28]=0; 
   \   00000240   E000               LDI     R16, 0
   \   00000242   8F04               STD     Z+28, R16
   2931            buf_rx_ppp[29]=0; 
   \   00000244   8F05               STD     Z+29, R16
   2932            temp.bytes[1]=buf_rx_ppp[26]; 
   \   00000246   8D02               LDD     R16, Z+26
   \   00000248   830D               STD     Y+5, R16
   2933            temp.bytes[0]=buf_rx_ppp[27]; 
   \   0000024A   8D03               LDD     R16, Z+27
   \   0000024C   830C               STD     Y+4, R16
   2934            temp.word=calc_crc_udp_2(&buf_rx_ppp[0],temp.word);
   \   0000024E   2F20               MOV     R18, R16
   \   00000250   813D               LDD     R19, Y+5
   \   00000252   018D               MOVW    R17:R16, R27:R26
   \   00000254   ....               RCALL   calc_crc_udp_2
   \   00000256   ....               RCALL   ?Subroutine37
   2935            if(Crc_out.word!=temp.word)return(1); 
   \                     ??CrossCallReturnLabel_441:
   \   00000258   F009               BREQ    $+2+2
   \   0000025A   CEDB               RJMP    ??proc_ppp_packet_1
   2936             
   2937            
   2938             Crc_out.bytes[1]=port_udp>>8;
   \   0000025C   ....               LDI     R30, LOW(port_udp)
   \   0000025E   ....               LDI     R31, (port_udp) >> 8
   \   00000260   8111               LDD     R17, Z+1
   \   00000262   8319               STD     Y+1, R17
   2939             Crc_out.bytes[0]=port_udp;
   \   00000264   8100               LD      R16, Z
   \   00000266   8308               ST      Y, R16
   2940             if((buf_rx_ppp[24]!=Crc_out.bytes[1])||       //ďđîâĺđęŕ UDP ďîđňŕ 
   2941                (buf_rx_ppp[25]!=Crc_out.bytes[0]))return(1); 
   \   00000268   01FD               MOVW    R31:R30, R27:R26
   \   0000026A   8D00               LDD     R16, Z+24
   \   0000026C   1701               CP      R16, R17
   \   0000026E   F009               BREQ    $+2+2
   \   00000270   CED0               RJMP    ??proc_ppp_packet_1
   \   00000272   8D01               LDD     R16, Z+25
   \   00000274   8118               LD      R17, Y
   \   00000276   1701               CP      R16, R17
   \   00000278   F009               BREQ    $+2+2
   \   0000027A   CECB               RJMP    ??proc_ppp_packet_1
   2942            
   2943                                                             //10.11.2010
   2944              count_rx_ppp=buf_rx_ppp[4];                   //îáđĺçŕíčĺ â ĐĐĐ ěóńîđŕ, äëčíŕ ńęëŕäűâŕĺňń˙ čç äëčíű IP ďŕęĺňŕ č +5(íŕ÷ŕëî č ęîíĺö ĐĐĐ)
   2945              count_rx_ppp=(count_rx_ppp<<8)| buf_rx_ppp[5];//
   2946              count_rx_ppp=count_rx_ppp+5;                  //
   2947             
   2948             if(proc_udp_data(buf_rx_ppp,count_rx_ppp)==0)return(1); 
   \   0000027C   8134               LDD     R19, Z+4
   \   0000027E   8125               LDD     R18, Z+5
   \   00000280   5F2B               SUBI    R18, 251
   \   00000282   4F3F               SBCI    R19, 255
   \   00000284   018D               MOVW    R17:R16, R27:R26
   \   00000286   ....               RCALL   proc_udp_data
   \   00000288   CEC4               RJMP    ??proc_ppp_packet_1
   \                     ??proc_ppp_packet_19:
   \   0000028A   ....               RCALL   ?Subroutine98
   \                     ??CrossCallReturnLabel_158:
   \   0000028C   ....               RCALL   ?Subroutine150
   \                     ??CrossCallReturnLabel_240:
   \   0000028E   F3E8               BRCS    ??proc_ppp_packet_19
   \                     ??proc_ppp_packet_20:
   \   00000290   01FA               MOVW    R31:R30, R21:R20
   \   00000292   8161               LDD     R22, Z+1
   \   00000294   0E26               ADD     R2, R22
   \   00000296   0F76               ADD     R23, R22
   \                     ??proc_ppp_packet_15:
   \   00000298   1424               CP      R2, R4
   \   0000029A   F1A9               BREQ    ??proc_ppp_packet_21
   \   0000029C   2411               CLR     R1
   \   0000029E   01AD               MOVW    R21:R20, R27:R26
   \   000002A0   0F47               ADD     R20, R23
   \   000002A2   1D51               ADC     R21, R1
   \   000002A4   01FA               MOVW    R31:R30, R21:R20
   \   000002A6   8160               LD      R22, Z
   \   000002A8   5063               SUBI    R22, 3
   \   000002AA   F4A1               BRNE    ??proc_ppp_packet_22
   \   000002AC   8162               LDD     R22, Z+2
   \   000002AE   3C60               CPI     R22, 192
   \   000002B0   F419               BRNE    ??proc_ppp_packet_23
   \   000002B2   8163               LDD     R22, Z+3
   \   000002B4   3263               CPI     R22, 35
   \   000002B6   F061               BREQ    ??proc_ppp_packet_24
   \                     ??proc_ppp_packet_23:
   \   000002B8   9468               SET
   \   000002BA   F885               BLD     R8, 5
   \   000002BC   E063               LDI     R22, 3
   \   000002BE   01F8               MOVW    R31:R30, R17:R16
   \   000002C0   ....               RCALL   ?Subroutine96
   \                     ??CrossCallReturnLabel_151:
   \   000002C2   E064               LDI     R22, 4
   \   000002C4   ....               RCALL   ?Subroutine96
   \                     ??CrossCallReturnLabel_152:
   \   000002C6   EC60               LDI     R22, 192
   \   000002C8   ....               RCALL   ?Subroutine96
   \                     ??CrossCallReturnLabel_153:
   \   000002CA   E263               LDI     R22, 35
   \   000002CC   ....               RCALL   ?Subroutine96
   \                     ??CrossCallReturnLabel_154:
   \   000002CE   CFE0               RJMP    ??proc_ppp_packet_20
   \                     ??proc_ppp_packet_24:
   \   000002D0   ....               RCALL   ?Subroutine8
   \                     ??CrossCallReturnLabel_22:
   \   000002D2   CFDC               RJMP    ??CrossCallReturnLabel_158
   \                     ??proc_ppp_packet_22:
   \   000002D4   ....               RCALL   ?Subroutine8
   \                     ??CrossCallReturnLabel_23:
   \   000002D6   C001               RJMP    ??CrossCallReturnLabel_159
   \                     ??proc_ppp_packet_25:
   \   000002D8   ....               RCALL   ?Subroutine98
   \                     ??CrossCallReturnLabel_159:
   \   000002DA   ....               RCALL   ?Subroutine150
   \                     ??CrossCallReturnLabel_241:
   \   000002DC   F3E8               BRCS    ??proc_ppp_packet_25
   \   000002DE   ....               RCALL   ?Subroutine8
   \                     ??CrossCallReturnLabel_24:
   \   000002E0   ....               RCALL   ?Subroutine150
   \                     ??CrossCallReturnLabel_242:
   \   000002E2   F6B0               BRCC    ??proc_ppp_packet_20
   \   000002E4   013C               MOVW    R7:R6, R25:R24
   \   000002E6   0E67               ADD     R6, R23
   \   000002E8   1C71               ADC     R7, R1
   \   000002EA   01FD               MOVW    R31:R30, R27:R26
   \   000002EC   0DE6               ADD     R30, R6
   \   000002EE   1DF7               ADC     R31, R7
   \   000002F0   8030               LD      R3, Z
   \   000002F2   01F8               MOVW    R31:R30, R17:R16
   \   000002F4   AC66               LDD     R6, Z+62
   \   000002F6   2477               CLR     R7
   \   000002F8   01F3               MOVW    R31:R30, R7:R6
   \   000002FA   ....               SUBI    R30, LOW((-(buf_nak_opt_lcp) & 0xFFFF))
   \   000002FC   ....               SBCI    R31, (-(buf_nak_opt_lcp) & 0xFFFF) >> 8
   \   000002FE   8230               ST      Z, R3
   \   00000300   ....               RCALL   ??Subroutine96_0
   \                     ??CrossCallReturnLabel_155:
   \   00000302   9601               ADIW    R25:R24, 1
   \   00000304   CFED               RJMP    ??CrossCallReturnLabel_24
   \                     ??proc_ppp_packet_21:
   \   00000306   FA85               BST     R8, 5
   \   00000308   F016               BRTS    ??proc_ppp_packet_26
   \   0000030A   E046               LDI     R20, 6
   \   0000030C   C001               RJMP    ??proc_ppp_packet_27
   \                     ??proc_ppp_packet_26:
   \   0000030E   E047               LDI     R20, 7
   \                     ??proc_ppp_packet_27:
   \   00000310   01F9               MOVW    R31:R30, R19:R18
   \   00000312   8745               STD     Z+13, R20
   \   00000314   01FD               MOVW    R31:R30, R27:R26
   \   00000316   8126               LDD     R18, Z+6
   \   00000318   01F8               MOVW    R31:R30, R17:R16
   \   0000031A   8F26               STD     Z+30, R18
   \   0000031C   CE7A               RJMP    ??proc_ppp_packet_1
   \                     ??proc_ppp_packet_13:
   \   0000031E   8156               LDD     R21, Z+6
   \   00000320   1754               CP      R21, R20
   \   00000322   F009               BREQ    $+2+2
   \   00000324   CE76               RJMP    ??proc_ppp_packet_1
   \   00000326   E048               LDI     R20, 8
   \   00000328   01F9               MOVW    R31:R30, R19:R18
   \   0000032A   8745               STD     Z+13, R20
   \   0000032C   01F8               MOVW    R31:R30, R17:R16
   \   0000032E   8D05               LDD     R16, Z+29
   \   00000330   9503               INC     R16
   \   00000332   8F05               STD     Z+29, R16
   \   00000334   CE6E               RJMP    ??proc_ppp_packet_1
   \                     ??proc_ppp_packet_14:
   \   00000336   8156               LDD     R21, Z+6
   \   00000338   1754               CP      R21, R20
   \   0000033A   F009               BREQ    $+2+2
   \   0000033C   CE6A               RJMP    ??proc_ppp_packet_1
   \   0000033E   01F8               MOVW    R31:R30, R17:R16
   \   00000340   9543               INC     R20
   \   00000342   8F45               STD     Z+29, R20
   \   00000344   01F9               MOVW    R31:R30, R19:R18
   \   00000346   8775               STD     Z+13, R23
   \   00000348   01FD               MOVW    R31:R30, R27:R26
   \   0000034A   8521               LDD     R18, Z+9
   \   0000034C   3027               CPI     R18, 7
   \   0000034E   F009               BREQ    $+2+2
   \   00000350   CE60               RJMP    ??proc_ppp_packet_1
   \   00000352   8522               LDD     R18, Z+10
   \   00000354   3022               CPI     R18, 2
   \   00000356   F009               BREQ    $+2+2
   \   00000358   CE5C               RJMP    ??proc_ppp_packet_1
   \   0000035A   8523               LDD     R18, Z+11
   \   0000035C   3028               CPI     R18, 8
   \   0000035E   F009               BREQ    $+2+2
   \   00000360   CE58               RJMP    ??proc_ppp_packet_1
   \   00000362   8524               LDD     R18, Z+12
   \   00000364   3022               CPI     R18, 2
   \   00000366   F009               BREQ    $+2+2
   \   00000368   CE54               RJMP    ??proc_ppp_packet_1
   \   0000036A   E021               LDI     R18, 1
   \   0000036C   01F8               MOVW    R31:R30, R17:R16
   \   0000036E   8322               STD     Z+2, R18
   \   00000370   CE50               RJMP    ??proc_ppp_packet_1
   \                     ??proc_ppp_packet_9:
   \   00000372   01FD               MOVW    R31:R30, R27:R26
   \   00000374   8145               LDD     R20, Z+5
   \   00000376   834B               STD     Y+3, R20
   \   00000378   8146               LDD     R20, Z+6
   \   0000037A   834A               STD     Y+2, R20
   \   0000037C   815B               LDD     R21, Y+3
   \   0000037E   1748               CP      R20, R24
   \   00000380   0759               CPC     R21, R25
   \   00000382   F009               BREQ    $+2+2
   \   00000384   CE46               RJMP    ??proc_ppp_packet_1
   \   00000386   E34D               LDI     R20, 61
   \   00000388   1644               CP      R4, R20
   \   0000038A   E040               LDI     R20, 0
   \   0000038C   0654               CPC     R5, R20
   \   0000038E   F008               BRCS    $+2+2
   \   00000390   CE40               RJMP    ??proc_ppp_packet_1
   \   00000392   8143               LDD     R20, Z+3
   \   00000394   5042               SUBI    R20, 2
   \   00000396   F009               BREQ    $+2+2
   \   00000398   CE3C               RJMP    ??proc_ppp_packet_1
   \   0000039A   8144               LDD     R20, Z+4
   \   0000039C   01F8               MOVW    R31:R30, R17:R16
   \   0000039E   8D07               LDD     R16, Z+31
   \   000003A0   1740               CP      R20, R16
   \   000003A2   F009               BREQ    $+2+2
   \   000003A4   CE36               RJMP    ??proc_ppp_packet_1
   \   000003A6   E008               LDI     R16, 8
   \   000003A8   01F9               MOVW    R31:R30, R19:R18
   \   000003AA   8704               STD     Z+12, R16
   \   000003AC   CE32               RJMP    ??proc_ppp_packet_1
   \                     ??proc_ppp_packet_10:
   \   000003AE   01FD               MOVW    R31:R30, R27:R26
   \   000003B0   8105               LDD     R16, Z+5
   \   000003B2   830B               STD     Y+3, R16
   \   000003B4   8106               LDD     R16, Z+6
   \   000003B6   830A               STD     Y+2, R16
   \   000003B8   811B               LDD     R17, Y+3
   \   000003BA   1708               CP      R16, R24
   \   000003BC   0719               CPC     R17, R25
   \   000003BE   F009               BREQ    $+2+2
   \   000003C0   CE28               RJMP    ??proc_ppp_packet_1
   \   000003C2   E204               LDI     R16, 36
   \   000003C4   1640               CP      R4, R16
   \   000003C6   E000               LDI     R16, 0
   \   000003C8   0650               CPC     R5, R16
   \   000003CA   F008               BRCS    $+2+2
   \   000003CC   CE22               RJMP    ??proc_ppp_packet_1
   \   000003CE   EF06               LDI     R16, 246
   \   000003D0   0E40               ADD     R4, R16
   \   000003D2   2422               CLR     R2
   \   000003D4   E077               LDI     R23, 7
   \   000003D6   01F9               MOVW    R31:R30, R19:R18
   \   000003D8   AE22               STD     Z+58, R2
   \   000003DA   96FC               ADIW    R31:R30, 60
   \   000003DC   8220               ST      Z, R2
   \   000003DE   01F9               MOVW    R31:R30, R19:R18
   \   000003E0   96FD               ADIW    R31:R30, 61
   \   000003E2   8220               ST      Z, R2
   \   000003E4   01F9               MOVW    R31:R30, R19:R18
   \   000003E6   AE23               STD     Z+59, R2
   \   000003E8   8D06               LDD     R16, Z+30
   \   000003EA   01FD               MOVW    R31:R30, R27:R26
   \   000003EC   8113               LDD     R17, Z+3
   \   000003EE   951A               DEC     R17
   \   000003F0   F041               BREQ    ??proc_ppp_packet_28
   \   000003F2   951A               DEC     R17
   \   000003F4   F0F9               BREQ    ??proc_ppp_packet_29
   \   000003F6   951A               DEC     R17
   \   000003F8   F141               BREQ    ??proc_ppp_packet_30
   \   000003FA   951A               DEC     R17
   \   000003FC   F409               BRNE    $+2+2
   \   000003FE   C080               RJMP    ??proc_ppp_packet_31
   \   00000400   CE08               RJMP    ??proc_ppp_packet_1
   \                     ??proc_ppp_packet_28:
   \   00000402   ....               RCALL   ?Subroutine8
   \                     ??CrossCallReturnLabel_25:
   \   00000404   C00C               RJMP    ??proc_ppp_packet_32
   \                     ??proc_ppp_packet_33:
   \   00000406   ....               RCALL   ?Subroutine119
   \                     ??CrossCallReturnLabel_195:
   \   00000408   8147               LDD     R20, Z+7
   \   0000040A   01F9               MOVW    R31:R30, R19:R18
   \   0000040C   AD04               LDD     R16, Z+60
   \   0000040E   0FE0               ADD     R30, R16
   \   00000410   1DF2               ADC     R31, R2
   \   00000412   A340               STD     Z+32, R20
   \   00000414   01F9               MOVW    R31:R30, R19:R18
   \   00000416   AD04               LDD     R16, Z+60
   \   00000418   9503               INC     R16
   \   0000041A   AF04               STD     Z+60, R16
   \   0000041C   9601               ADIW    R25:R24, 1
   \                     ??proc_ppp_packet_32:
   \   0000041E   1584               CP      R24, R4
   \   00000420   0592               CPC     R25, R2
   \   00000422   F388               BRCS    ??proc_ppp_packet_33
   \   00000424   E006               LDI     R16, 6
   \   00000426   01F9               MOVW    R31:R30, R19:R18
   \   00000428   8707               STD     Z+15, R16
   \   0000042A   01FD               MOVW    R31:R30, R27:R26
   \   0000042C   8104               LDD     R16, Z+4
   \   0000042E   01F9               MOVW    R31:R30, R19:R18
   \   00000430   8F07               STD     Z+31, R16
   \   00000432   CDEF               RJMP    ??proc_ppp_packet_1
   \                     ??proc_ppp_packet_29:
   \   00000434   8114               LDD     R17, Z+4
   \   00000436   1710               CP      R17, R16
   \   00000438   F009               BREQ    $+2+2
   \   0000043A   CDEB               RJMP    ??proc_ppp_packet_1
   \   0000043C   E008               LDI     R16, 8
   \   0000043E   01F9               MOVW    R31:R30, R19:R18
   \   00000440   8707               STD     Z+15, R16
   \   00000442   8D06               LDD     R16, Z+30
   \   00000444   9503               INC     R16
   \   00000446   8F06               STD     Z+30, R16
   \   00000448   CDE4               RJMP    ??proc_ppp_packet_1
   \                     ??proc_ppp_packet_30:
   \   0000044A   8114               LDD     R17, Z+4
   \   0000044C   1710               CP      R17, R16
   \   0000044E   F159               BREQ    ??proc_ppp_packet_34
   \   00000450   CDE0               RJMP    ??proc_ppp_packet_1
   \                     ??proc_ppp_packet_35:
   \   00000452   8141               LDD     R20, Z+1
   \   00000454   3046               CPI     R20, 6
   \   00000456   F009               BREQ    $+2+2
   \   00000458   CDDC               RJMP    ??proc_ppp_packet_1
   \   0000045A   8142               LDD     R20, Z+2
   \   0000045C   01F3               MOVW    R31:R30, R7:R6
   \   0000045E   8150               LD      R21, Z
   \   00000460   1745               CP      R20, R21
   \   00000462   F009               BREQ    ??CrossCallReturnLabel_98
   \   00000464   ....               RCALL   ?Subroutine61
   \                     ??CrossCallReturnLabel_98:
   \   00000466   ....               RCALL   ??Subroutine101_0
   \                     ??CrossCallReturnLabel_169:
   \   00000468   01F3               MOVW    R31:R30, R7:R6
   \   0000046A   8151               LDD     R21, Z+1
   \   0000046C   1745               CP      R20, R21
   \   0000046E   F009               BREQ    ??CrossCallReturnLabel_99
   \   00000470   ....               RCALL   ?Subroutine61
   \                     ??CrossCallReturnLabel_99:
   \   00000472   ....               RCALL   ??Subroutine102_0
   \                     ??CrossCallReturnLabel_173:
   \   00000474   01F3               MOVW    R31:R30, R7:R6
   \   00000476   8152               LDD     R21, Z+2
   \   00000478   1745               CP      R20, R21
   \   0000047A   F009               BREQ    ??CrossCallReturnLabel_100
   \   0000047C   ....               RCALL   ?Subroutine61
   \                     ??CrossCallReturnLabel_100:
   \   0000047E   ....               RCALL   ??Subroutine103_0
   \                     ??CrossCallReturnLabel_177:
   \   00000480   01F3               MOVW    R31:R30, R7:R6
   \   00000482   8153               LDD     R21, Z+3
   \   00000484   1745               CP      R20, R21
   \   00000486   F009               BREQ    ??CrossCallReturnLabel_101
   \   00000488   ....               RCALL   ?Subroutine61
   \                     ??CrossCallReturnLabel_101:
   \   0000048A   01F8               MOVW    R31:R30, R17:R16
   \   0000048C   8142               LDD     R20, Z+2
   \   0000048E   01F3               MOVW    R31:R30, R7:R6
   \   00000490   ....               RCALL   ?Subroutine101
   \                     ??CrossCallReturnLabel_167:
   \   00000492   01F3               MOVW    R31:R30, R7:R6
   \   00000494   ....               RCALL   ?Subroutine102
   \                     ??CrossCallReturnLabel_171:
   \   00000496   01F3               MOVW    R31:R30, R7:R6
   \   00000498   ....               RCALL   ?Subroutine103
   \                     ??CrossCallReturnLabel_175:
   \   0000049A   01F3               MOVW    R31:R30, R7:R6
   \                     ??proc_ppp_packet_36:
   \   0000049C   8343               STD     Z+3, R20
   \                     ??proc_ppp_packet_37:
   \   0000049E   01F8               MOVW    R31:R30, R17:R16
   \   000004A0   8141               LDD     R20, Z+1
   \   000004A2   0E24               ADD     R2, R20
   \   000004A4   0F74               ADD     R23, R20
   \                     ??proc_ppp_packet_34:
   \   000004A6   1424               CP      R2, R4
   \   000004A8   F179               BREQ    ??proc_ppp_packet_38
   \   000004AA   E050               LDI     R21, 0
   \   000004AC   018D               MOVW    R17:R16, R27:R26
   \   000004AE   0F07               ADD     R16, R23
   \   000004B0   1F15               ADC     R17, R21
   \   000004B2   01F8               MOVW    R31:R30, R17:R16
   \   000004B4   8140               LD      R20, Z
   \   000004B6   5841               SUBI    R20, 129
   \   000004B8   F029               BREQ    ??proc_ppp_packet_39
   \   000004BA   5042               SUBI    R20, 2
   \   000004BC   F081               BREQ    ??proc_ppp_packet_40
   \   000004BE   5840               SUBI    R20, 128
   \   000004C0   F241               BREQ    ??proc_ppp_packet_35
   \   000004C2   CDA7               RJMP    ??proc_ppp_packet_1
   \                     ??proc_ppp_packet_39:
   \   000004C4   8141               LDD     R20, Z+1
   \   000004C6   3046               CPI     R20, 6
   \   000004C8   F009               BREQ    $+2+2
   \   000004CA   CDA3               RJMP    ??proc_ppp_packet_1
   \   000004CC   8142               LDD     R20, Z+2
   \   000004CE   01F9               MOVW    R31:R30, R19:R18
   \   000004D0   ....               RCALL   ?Subroutine101
   \                     ??CrossCallReturnLabel_168:
   \   000004D2   01F9               MOVW    R31:R30, R19:R18
   \   000004D4   ....               RCALL   ?Subroutine102
   \                     ??CrossCallReturnLabel_172:
   \   000004D6   01F9               MOVW    R31:R30, R19:R18
   \   000004D8   ....               RCALL   ?Subroutine103
   \                     ??CrossCallReturnLabel_176:
   \   000004DA   01F9               MOVW    R31:R30, R19:R18
   \   000004DC   CFDF               RJMP    ??proc_ppp_packet_36
   \                     ??proc_ppp_packet_40:
   \   000004DE   8141               LDD     R20, Z+1
   \   000004E0   3046               CPI     R20, 6
   \   000004E2   F009               BREQ    $+2+2
   \   000004E4   CD96               RJMP    ??proc_ppp_packet_1
   \   000004E6   8142               LDD     R20, Z+2
   \   000004E8   01F9               MOVW    R31:R30, R19:R18
   \   000004EA   8344               STD     Z+4, R20
   \   000004EC   ....               RCALL   ??Subroutine101_0
   \                     ??CrossCallReturnLabel_170:
   \   000004EE   01F9               MOVW    R31:R30, R19:R18
   \   000004F0   8345               STD     Z+5, R20
   \   000004F2   ....               RCALL   ??Subroutine102_0
   \                     ??CrossCallReturnLabel_174:
   \   000004F4   01F9               MOVW    R31:R30, R19:R18
   \   000004F6   8346               STD     Z+6, R20
   \   000004F8   ....               RCALL   ??Subroutine103_0
   \                     ??CrossCallReturnLabel_178:
   \   000004FA   01F9               MOVW    R31:R30, R19:R18
   \   000004FC   8347               STD     Z+7, R20
   \   000004FE   CFCF               RJMP    ??proc_ppp_packet_37
   \                     ??proc_ppp_packet_31:
   \   00000500   8114               LDD     R17, Z+4
   \   00000502   1710               CP      R17, R16
   \   00000504   F009               BREQ    $+2+2
   \   00000506   CD85               RJMP    ??proc_ppp_packet_1
   \                     ??proc_ppp_packet_38:
   \   00000508   01F9               MOVW    R31:R30, R19:R18
   \   0000050A   8D06               LDD     R16, Z+30
   \   0000050C   9503               INC     R16
   \   0000050E   8F06               STD     Z+30, R16
   \   00000510   E009               LDI     R16, 9
   \   00000512   8707               STD     Z+15, R16
   \   00000514   CD7E               RJMP    ??proc_ppp_packet_1
   2949           
   2950                           
   2951              break;
   2952                } 
   2953           
   2954           return(1);  
   2955           }

   \                                 In segment FARCODE, align 2, keep-with-next
   \                     ?Subroutine199:
   \   00000000   ....               LDI     R30, LOW(ip_self)
   \   00000002   ....               LDI     R31, (ip_self) >> 8
   \   00000004   9508               RET

   \                                 In segment FARCODE, align 2, keep-with-next
   \                     ?Subroutine197:
   \   00000000   9140....           LDS     R20, layer_PPP
   \   00000004   3044               CPI     R20, 4
   \   00000006   9508               RET

   \                                 In segment FARCODE, align 2, keep-with-next
   \                     ?Subroutine150:
   \   00000000   01FA               MOVW    R31:R30, R21:R20
   \   00000002   81E1               LDD     R30, Z+1
   \   00000004   178E               CP      R24, R30
   \   00000006   0591               CPC     R25, R1
   \   00000008   9508               RET

   \                                 In segment FARCODE, align 2, keep-with-next
   \                     ?Subroutine122:
   \   00000000   01FD               MOVW    R31:R30, R27:R26
   \   00000002   8141               LDD     R20, Z+1
   \   00000004   9508               RET

   \                                 In segment FARCODE, align 2, keep-with-next
   \                     ?Subroutine103:
   \   00000000   8342               STD     Z+2, R20
   \                     ??Subroutine103_0:
   \   00000002   01F8               MOVW    R31:R30, R17:R16
   \   00000004   8145               LDD     R20, Z+5
   \   00000006   9508               RET

   \                                 In segment FARCODE, align 2, keep-with-next
   \                     ?Subroutine102:
   \   00000000   8341               STD     Z+1, R20
   \                     ??Subroutine102_0:
   \   00000002   01F8               MOVW    R31:R30, R17:R16
   \   00000004   8144               LDD     R20, Z+4
   \   00000006   9508               RET

   \                                 In segment FARCODE, align 2, keep-with-next
   \                     ?Subroutine101:
   \   00000000   8340               ST      Z, R20
   \                     ??Subroutine101_0:
   \   00000002   01F8               MOVW    R31:R30, R17:R16
   \   00000004   8143               LDD     R20, Z+3
   \   00000006   9508               RET

   \                                 In segment FARCODE, align 2, keep-with-next
   \                     ?Subroutine98:
   \   00000000   013C               MOVW    R7:R6, R25:R24
   \   00000002   0E67               ADD     R6, R23
   \   00000004   1C71               ADC     R7, R1
   \   00000006   01FD               MOVW    R31:R30, R27:R26
   \   00000008   0DE6               ADD     R30, R6
   \   0000000A   1DF7               ADC     R31, R7
   \   0000000C   8030               LD      R3, Z
   \   0000000E   01F8               MOVW    R31:R30, R17:R16
   \   00000010   AC65               LDD     R6, Z+61
   \   00000012   0DE6               ADD     R30, R6
   \   00000014   1DF1               ADC     R31, R1
   \   00000016   A230               STD     Z+32, R3
   \   00000018   01F8               MOVW    R31:R30, R17:R16
   \   0000001A   AD65               LDD     R22, Z+61
   \   0000001C   9563               INC     R22
   \   0000001E   AF65               STD     Z+61, R22
   \   00000020   9601               ADIW    R25:R24, 1
   \   00000022   9508               RET

   \                                 In segment FARCODE, align 2, keep-with-next
   \                     ?Subroutine96:
   \   00000000   AC06               LDD     R0, Z+62
   \   00000002   01F0               MOVW    R31:R30, R1:R0
   \   00000004   ....               SUBI    R30, LOW((-(buf_nak_opt_lcp) & 0xFFFF))
   \   00000006   ....               SBCI    R31, (-(buf_nak_opt_lcp) & 0xFFFF) >> 8
   \   00000008   8360               ST      Z, R22
   \                     ??Subroutine96_0:
   \   0000000A   01F8               MOVW    R31:R30, R17:R16
   \   0000000C   AD66               LDD     R22, Z+62
   \   0000000E   9563               INC     R22
   \   00000010   AF66               STD     Z+62, R22
   \   00000012   9508               RET

   \                                 In segment FARCODE, align 2, keep-with-next
   \                     ?Subroutine61:
   \   00000000   E041               LDI     R20, 1
   \   00000002   01F9               MOVW    R31:R30, R19:R18
   \   00000004   AF46               STD     Z+62, R20
   \   00000006   9508               RET

   \                                 In segment FARCODE, align 2, keep-with-next
   \                     ?Subroutine37:
   \   00000000   830C               STD     Y+4, R16
   \   00000002   831D               STD     Y+5, R17
   \   00000004   8108               LD      R16, Y
   \   00000006   8119               LDD     R17, Y+1
   \   00000008   812C               LDD     R18, Y+4
   \   0000000A   813D               LDD     R19, Y+5
   \   0000000C                      REQUIRE ?Subroutine259
   \   0000000C                      ;               // Fall through to label ?Subroutine259

   \                                 In segment FARCODE, align 2, keep-with-next
   \                     ?Subroutine259:
   \   00000000   1702               CP      R16, R18
   \   00000002   0713               CPC     R17, R19
   \   00000004   9508               RET

   \                                 In segment FARCODE, align 2, keep-with-next
   \                     ?Subroutine6:
   \   00000000   01F9               MOVW    R31:R30, R19:R18
   \   00000002   8F45               STD     Z+29, R20
   \   00000004   E080               LDI     R24, 0
   \   00000006   E090               LDI     R25, 0
   \   00000008   C006               RJMP    ??Subroutine6_0
   \                     ??Subroutine6_1:
   \   0000000A   01FD               MOVW    R31:R30, R27:R26
   \   0000000C   0FE8               ADD     R30, R24
   \   0000000E   1FF9               ADC     R31, R25
   \   00000010   8143               LDD     R20, Z+3
   \   00000012   8341               STD     Z+1, R20
   \   00000014   9601               ADIW    R25:R24, 1
   \                     ??Subroutine6_0:
   \   00000016   01F2               MOVW    R31:R30, R5:R4
   \   00000018   9733               SBIW    R31:R30, 3
   \   0000001A   178E               CP      R24, R30
   \   0000001C   079F               CPC     R25, R31
   \   0000001E   F3A8               BRCS    ??Subroutine6_1
   \   00000020   EF4E               LDI     R20, 254
   \   00000022   0E44               ADD     R4, R20
   \   00000024   EF4F               LDI     R20, 255
   \   00000026   1E54               ADC     R5, R20
   \   00000028   9508               RET

   \                                 In segment FARCODE, align 2, keep-with-next
   \                     ?Subroutine121:
   \   00000000   01FD               MOVW    R31:R30, R27:R26
   \   00000002                      REQUIRE ?Subroutine272
   \   00000002                      ;               // Fall through to label ?Subroutine272

   \                                 In segment FARCODE, align 2, keep-with-next
   \                     ?Subroutine272:
   \   00000000   8101               LDD     R16, Z+1
   \   00000002   9508               RET
   2956           
   2957           
   2958           
   2959          
   2960           //!!!!!!!!!!!!!!!!!!!!!!!!!!!!!!!!!!!!!!!!!!!!!!!!!!!!!!!!!!!!!!
   2961           
   2962           
   2963           
   2964           
   2965           

   \                                 In segment FARCODE, align 2, keep-with-next
   2966           void send_no_sinc(unsigned char id,unsigned int dst,unsigned char error)
   \                     send_no_sinc:
   2967              {
   \   00000000   ....               RCALL   ?Subroutine90
   \                     ??CrossCallReturnLabel_139:
   \   00000002   2FB0               MOV     R27, R16
   \   00000004   01C9               MOVW    R25:R24, R19:R18
   \   00000006   2FA1               MOV     R26, R17
   2968                 if(fl_ip.act_ip_end!=1)return;
   \   00000008   ....               RCALL   ?Subroutine54
   \                     ??CrossCallReturnLabel_82:
   \   0000000A   FF00               SBRS    R16, 0
   \   0000000C   C010               RJMP    ??CrossCallReturnLabel_124
   2969                    fl_ip.act_ip_end=0;      
   \   0000000E   ....               RCALL   ?Subroutine65
   2970                    clr_cntr_nat();
   2971                    clr_cntr_link();
   2972                    Obj_ppp_tx.prozr=FALSE;            
   2973                    Obj_ppp_tx.version=VER2;      //âĺđńč˙ 
   2974                    Obj_ppp_tx.type_pac=OTV;     //ňčď ďŕęĺňŕ
   2975                    Obj_ppp_tx.num_src=num_self; // íîěĺđ îňďđŕâčňĺë˙
   2976                    Obj_ppp_tx.num_dst=dst; // íîěĺđ ďîëó÷ŕňĺë˙
   2977                   
   2978                    Obj_ppp_tx.id_pac=id; // čäĺíňčôčęŕňîđ ďŕęĺňŕ  
   \                     ??CrossCallReturnLabel_106:
   \   00000010   83B7               STD     Z+7, R27
   2979                    Obj_ppp_tx.p_opt=&buf_opt_tr[0]; // //óęŕçŕňĺëü áóôĺđŕ îďöčé          
   \   00000012   ....               LDI     R18, LOW(buf_opt_tr)
   \   00000014   ....               LDI     R19, (buf_opt_tr) >> 8
   \   00000016   8720               STD     Z+8, R18
   \   00000018   8731               STD     Z+9, R19
   2980                    
   2981                    
   2982                  Obj_ppp_tx.l_opt=3;// äëčíŕ áóôĺđŕ îďöčé   
   \   0000001A   E043               LDI     R20, 3
   \   0000001C   8742               STD     Z+10, R20
   2983                  buf_opt_tr[0]=KOD_OP_ERROR;
   \   0000001E   E044               LDI     R20, 4
   \   00000020   01F9               MOVW    R31:R30, R19:R18
   \   00000022   8340               ST      Z, R20
   2984                  buf_opt_tr[1]=3;
   \   00000024   E043               LDI     R20, 3
   \   00000026   8341               STD     Z+1, R20
   2985                  buf_opt_tr[2]=error;
   \   00000028   83A2               STD     Z+2, R26
   2986                  
   2987                  //Obj_ppp_tx.kol_opt=1;// ęîëč÷ĺńňâî îďöčé     
   2988                 
   2989                 
   2990                   Obj_ppp_tx.l_data=0;   // äëčíŕ äŕííűő
   \   0000002A   E020               LDI     R18, 0
   \   0000002C   ....               RCALL   ?Subroutine83
   2991                   Obj_ppp_tx.p_data=&buf_tx_232[TR_OP_DATA+C1_PROT];  //óęŕçŕňĺëü áóôĺđŕ äŕííűő
   2992                  
   2993                   form_buf_tx_ppp();                            
   2994                   UCSR0A=UCSR0A | TXC;                            
   2995                   UCSR0B=UCSR0B | TXEN;
   2996                   UCSR0B=UCSR0B | TXCIE;
   2997                   if(check_cts()==1) return;                
   2998                   S2_RD;
   2999                   UDR0=buf_tx_232[0];
   3000                   if(Regim==RG_DEBAG) UDR3=buf_tx_232[0];
   \                     ??CrossCallReturnLabel_124:
   \   0000002E   ....               RJMP    ??Subroutine278_0
   3001                   return;     
   3002              }

   \                                 In segment FARCODE, align 2, keep-with-next
   \                     ?Subroutine83:
   \   00000000   01F8               MOVW    R31:R30, R17:R16
   \   00000002   8726               STD     Z+14, R18
   \   00000004   8727               STD     Z+15, R18
   \   00000006   ....               LDI     R18, LOW((buf_tx_232 + 42))
   \   00000008   ....               LDI     R19, HIGH((buf_tx_232 + 42))
   \   0000000A   8724               STD     Z+12, R18
   \   0000000C   8735               STD     Z+13, R19
   \   0000000E   ........           CALL    form_buf_tx_ppp
   \   00000012   910000C0           LDS     R16, 192
   \   00000016   6400               ORI     R16, 0x40
   \   00000018   930000C0           STS     192, R16
   \   0000001C   910000C1           LDS     R16, 193
   \   00000020   6008               ORI     R16, 0x08
   \   00000022   930000C1           STS     193, R16
   \   00000026   910000C1           LDS     R16, 193
   \   0000002A   6400               ORI     R16, 0x40
   \   0000002C   930000C1           STS     193, R16
   \   00000030   ........           CALL    check_cts
   \   00000034   3001               CPI     R16, 1
   \   00000036   F071               BREQ    ??Subroutine83_0
   \   00000038   9A40               SBI     0x08, 0x00
   \   0000003A   9841               CBI     0x08, 0x01
   \   0000003C   9100....           LDS     R16, buf_tx_232
   \   00000040   930000C6           STS     198, R16
   \   00000044   9100....           LDS     R16, Regim
   \   00000048   3001               CPI     R16, 1
   \   0000004A   F421               BRNE    ??Subroutine83_0
   \   0000004C   9100....           LDS     R16, buf_tx_232
   \   00000050   93000136           STS     310, R16
   \                     ??Subroutine83_0:
   \   00000054   9508               RET

   \                                 In segment FARCODE, align 2, keep-with-next
   \                     ?Subroutine65:
   \   00000000   7F0E               ANDI    R16, 0xFE
   \   00000002   8305               STD     Z+5, R16
   \   00000004   ........           CALL    clr_cntr_nat
   \   00000008   ........           CALL    clr_cntr_link
   \   0000000C   ....               LDI     R16, LOW(Obj_ppp_tx)
   \   0000000E   ....               LDI     R17, (Obj_ppp_tx) >> 8
   \   00000010   E020               LDI     R18, 0
   \   00000012   01F8               MOVW    R31:R30, R17:R16
   \   00000014   8320               ST      Z, R18
   \   00000016   E022               LDI     R18, 2
   \   00000018   8321               STD     Z+1, R18
   \   0000001A   E021               LDI     R18, 1
   \   0000001C   8322               STD     Z+2, R18
   \   0000001E   ....               LDI     R30, LOW(num_self)
   \   00000020   ....               LDI     R31, (num_self) >> 8
   \   00000022   8120               LD      R18, Z
   \   00000024   8131               LDD     R19, Z+1
   \   00000026   01F8               MOVW    R31:R30, R17:R16
   \   00000028   8323               STD     Z+3, R18
   \   0000002A   8334               STD     Z+4, R19
   \   0000002C   8385               STD     Z+5, R24
   \   0000002E   8396               STD     Z+6, R25
   \   00000030   9508               RET

   \                                 In segment FARCODE, align 2, keep-with-next
   \                     ?Subroutine54:
   \   00000000   ....               LDI     R30, LOW(cnt_lcp_tm_out)
   \   00000002   ....               LDI     R31, (cnt_lcp_tm_out) >> 8
   \   00000004   8105               LDD     R16, Z+5
   \   00000006   9508               RET
   3003          
   3004          

   \                                 In segment FARCODE, align 2, keep-with-next
   \                     ?Subroutine302:
   \   00000000   ........           JMP     ?Subroutine205

   \                                 In segment FARCODE, align 2, keep-with-next
   \                     ?Subroutine299:
   \   00000000   ........           JMP     ?Subroutine204

   \                                 In segment FARCODE, align 2, keep-with-next
   3005          unsigned char proc_paging(void)
   \                     proc_paging:
   3006          { 
   \   00000000   2F39               MOV     R19, R25
   \   00000002   2F48               MOV     R20, R24
   3007           if(fl_pg_out.hold_pg==1)
   \   00000004   ....               RCALL   ?Subroutine299
   \                     ??CrossCallReturnLabel_691:
   \   00000006   A521               LDD     R18, Z+41
   \   00000008   A107               LDD     R16, Z+39
   \   0000000A   FF05               SBRS    R16, 5
   \   0000000C   C025               RJMP    ??proc_paging_0
   3008              {
   3009                  //send_info(sizeof(gluk),gluk,1,3);
   3010              
   3011                   if((fl_pg_out.first_pg==1)&&(cnt_pg==0))
   \   0000000E   FF04               SBRS    R16, 4
   \   00000010   C008               RJMP    ??proc_paging_1
   \   00000012   ....               RCALL   ?Subroutine302
   \                     ??CrossCallReturnLabel_706:
   \   00000014   2B01               OR      R16, R17
   \   00000016   F511               BRNE    ??proc_paging_2
   3012                   { 
   3013             //      send_info(sizeof(gluk),gluk,1,4);
   3014                   cnt_pg=0;
   3015                   fl_pg_out.first_pg=0;
   3016                   fl_pg_out.end_pg=0;
   3017                   fl_pg_out.hold_pg=0;
   3018                   fl_pg_out.ch_crc=0;
   3019                   fl_pg_out.cor_pg=0;
   \                     ??proc_paging_3:
   \   00000018   A107               LDD     R16, Z+39
   \   0000001A   7C04               ANDI    R16, 0xC4
   \   0000001C   A307               STD     Z+39, R16
   3020                   // äŕňü îřčáęó đŕńńčíőđîíčçŕöč˙ 
   3021                   return(1);
   \   0000001E   E001               LDI     R16, 1
   \   00000020   C02C               RJMP    ??proc_paging_4
   3022                   }
   3023              
   3024                  if((fl_pg_out.first_pg==1)&&(cnt_pg!=0))
   3025                   {                                      // ýňî â ńëó÷ŕĺ ęîăäŕ ďđîöĺńń ďđĺđâŕí ŕ ďîňîě çŕíîâî âîçîáíîâë˙ĺňń˙
   3026            //        send_info(sizeof(gluk),gluk,1,5);
   3027                    fl_pg_out.hold_pg=1;
   3028                    fl_pg_out.first_pg=0;
   3029                    cnt_pg=0;
   3030                    id_pg_kp=id_pg_appl+1;
   3031                    fl_pg_out.cor_pg=1;
   3032                    goto check_end_pg;
   3033                   }
   3034                
   3035              
   3036               
   3037                
   3038                
   3039                if(id_pg_kp==id_pg_appl)
   \                     ??proc_paging_1:
   \   00000022   A580               LDD     R24, Z+40
   \   00000024   1782               CP      R24, R18
   \   00000026   F459               BRNE    ??proc_paging_5
   3040                   {
   3041            //        send_info(sizeof(gluk),gluk,1,6);
   3042                    cnt_pg++;
   \   00000028   ....               RCALL   ?Subroutine302
   \                     ??CrossCallReturnLabel_707:
   \   0000002A   5F0F               SUBI    R16, 255
   \   0000002C   4F1F               SBCI    R17, 255
   \   0000002E   A300               STD     Z+32, R16
   \   00000030   A311               STD     Z+33, R17
   3043                    id_pg_kp++;
   \   00000032   2F08               MOV     R16, R24
   \   00000034   9503               INC     R16
   \   00000036   A700               STD     Z+40, R16
   3044                    fl_pg_out.cor_pg=1;
   \   00000038   A107               LDD     R16, Z+39
   \   0000003A   6008               ORI     R16, 0x08
   \   0000003C   C017               RJMP    ??proc_paging_6
   3045                    goto check_end_pg;
   3046                   }
   3047                   else
   3048                   {
   3049             //       send_info(sizeof(gluk),gluk,1,7);
   3050                    fl_pg_out.cor_pg=0;
   \                     ??proc_paging_5:
   \   0000003E   7F07               ANDI    R16, 0xF7
   \   00000040   A307               STD     Z+39, R16
   3051                    if(id_pg_appl==(id_pg_kp-1))goto check_end_pg;
   \   00000042   2F02               MOV     R16, R18
   \   00000044   E010               LDI     R17, 0
   \   00000046   E090               LDI     R25, 0
   \   00000048   9701               SBIW    R25:R24, 1
   \   0000004A   1708               CP      R16, R24
   \   0000004C   0719               CPC     R17, R25
   \   0000004E   F079               BREQ    ??proc_paging_7
   3052                       else
   3053                       {
   3054               //         send_info(sizeof(gluk),gluk,1,8);
   3055                        cnt_pg=0;
   \                     ??proc_paging_8:
   \   00000050   E000               LDI     R16, 0
   \   00000052   A300               STD     Z+32, R16
   \   00000054   A301               STD     Z+33, R16
   \   00000056   CFE0               RJMP    ??proc_paging_3
   3056                        fl_pg_out.first_pg=0;
   3057                        fl_pg_out.end_pg=0;
   3058                        fl_pg_out.hold_pg=0;
   3059                        fl_pg_out.ch_crc=0;
   3060                        fl_pg_out.cor_pg=0;
   3061                        // äŕňü îřčáęó đŕńńčíőđîíčçŕöč˙ 
   3062                        return(1);
   3063                       }
   3064                   }   
   3065                   
   3066              }
   3067              else
   3068              {
   3069                
   3070              //  send_info(sizeof(gluk),gluk,1,9);
   3071                if(fl_pg_out.first_pg==1)
   \                     ??proc_paging_0:
   \   00000058   FF04               SBRS    R16, 4
   \   0000005A   CFFA               RJMP    ??proc_paging_8
   3072                   {
   3073           //         send_info(sizeof(gluk),gluk,1,10);
   3074                    fl_pg_out.hold_pg=1;
   3075                    fl_pg_out.first_pg=0;
   3076                    cnt_pg=0;
   3077                    id_pg_kp=id_pg_appl+1;
   3078                    fl_pg_out.cor_pg=1;
   3079                    goto check_end_pg;
   3080                   }
   3081                   else
   3082                   {
   3083            //       send_info(sizeof(gluk),gluk,1,11);
   3084                   cnt_pg=0;
   3085                   fl_pg_out.first_pg=0;
   3086                   fl_pg_out.end_pg=0;
   3087                   fl_pg_out.hold_pg=0;
   3088                   fl_pg_out.ch_crc=0;
   3089                   fl_pg_out.cor_pg=0;
   3090                   // äŕňü îřčáęó đŕńńčíőđîíčçŕöč˙ 
   3091                   return(1);
   3092                   }
   3093              }
   \                     ??proc_paging_2:
   \   0000005C   E000               LDI     R16, 0
   \   0000005E   A300               STD     Z+32, R16
   \   00000060   A301               STD     Z+33, R16
   \   00000062   9523               INC     R18
   \   00000064   A720               STD     Z+40, R18
   \   00000066   A107               LDD     R16, Z+39
   \   00000068   7E0F               ANDI    R16, 0xEF
   \   0000006A   6208               ORI     R16, 0x28
   \                     ??proc_paging_6:
   \   0000006C   A307               STD     Z+39, R16
   3094              
   3095          check_end_pg:
   3096                 
   3097           //   send_info(sizeof(gluk),gluk,1,12);
   3098              if(fl_pg_out.end_pg==1)
   \                     ??proc_paging_7:
   \   0000006E   A107               LDD     R16, Z+39
   \   00000070   FF00               SBRS    R16, 0
   \   00000072   C002               RJMP    ??proc_paging_9
   3099                 {
   3100           //        send_info(sizeof(gluk),gluk,1,13);
   3101                   fl_pg_out.hold_pg=0;
   3102                   fl_pg_out.first_pg=0;
   \   00000074   7C0F               ANDI    R16, 0xCF
   \   00000076   A307               STD     Z+39, R16
   3103                 }
   3104            
   3105          //send_info(sizeof(gluk),gluk,1,14);    
   3106          return(0);
   \                     ??proc_paging_9:
   \   00000078   E000               LDI     R16, 0
   \                     ??proc_paging_4:
   \   0000007A   2F84               MOV     R24, R20
   \   0000007C   2F93               MOV     R25, R19
   \   0000007E   9508               RET
   3107          }

   \                                 In segment FARCODE, align 2, keep-with-next
   \                     ?Subroutine205:
   \   00000000   A100               LDD     R16, Z+32
   \   00000002   A111               LDD     R17, Z+33
   \   00000004   9508               RET

   \                                 In segment FARCODE, align 2, keep-with-next
   \                     ?Subroutine204:
   \   00000000   ....               LDI     R30, LOW(Obj_ppp_tx)
   \   00000002   ....               LDI     R31, (Obj_ppp_tx) >> 8
   \   00000004   9508               RET
   3108           
   3109           

   \                                 In segment FARCODE, align 2, keep-with-next
   \                     ?Subroutine304:
   \   00000000   ........           JMP     ??Subroutine113_0

   \                                 In segment FARCODE, align 2, keep-with-next
   \                     ?Subroutine303:
   \   00000000   ........           JMP     ?Subroutine206

   \                                 In segment FARCODE, align 2, keep-with-next
   3110           unsigned char proc_option(unsigned char *buf_rx_ppp,unsigned int ind,unsigned int count_rx_opt,unsigned char port)
   \                     proc_option:
   3111           {
   \   00000000   ........           CALL    ?PROLOGUE16_L09
   \   00000004                      REQUIRE ?Register_R4_is_cg_reg
   \   00000004                      REQUIRE ?Register_R6_is_cg_reg
   \   00000004                      REQUIRE ?Register_R7_is_cg_reg
   \   00000004                      REQUIRE ?Register_R8_is_cg_reg
   \   00000004                      REQUIRE ?Register_R9_is_cg_reg
   \   00000004                      REQUIRE ?Register_R10_is_cg_reg
   \   00000004                      REQUIRE ?Register_R11_is_cg_reg
   \   00000004                      REQUIRE ?Register_R12_is_cg_reg
   \   00000004                      REQUIRE ?Register_R14_is_cg_reg
   \   00000004                      REQUIRE ?Register_R15_is_cg_reg
   \   00000004   01C8               MOVW    R25:R24, R17:R16
   \   00000006   0159               MOVW    R11:R10, R19:R18
   \   00000008   017A               MOVW    R15:R14, R21:R20
   \   0000000A   2EC6               MOV     R12, R22
   3112          
   3113           unsigned char tt;
   3114          //return 0 îřčáęŕ, čăíîđčđîâŕňü, âĺńü íĺęîđđĺęňíűé ďŕęĺň
   3115          // return 1 - ďđî÷čňŕíű âńĺ îďöčč (ďđč ďîńňóďčâřĺě çŕďđîńĺ) äŕëüřĺ âűőîä č âűäŕ÷ŕ îňâĺň íŕ çŕďđîń 
   3116          // return 2 - îňâĺňčňü ńđŕçó đŕçěĺđîě ńňđŕíčöű
   3117          // return 3 - îřčáęŕ âđĺě˙ ćčçíč čńňĺęëî
   3118          // return 4 - îřčáęŕ îďĺđŕöč˙ íĺäîńňóďíŕ 
   3119           
   3120           unsigned char flag_life;
   3121           unsigned int life_cl;
   3122           unsigned char life_time;
   3123           unsigned char life_start;
   3124           unsigned int cnt;
   3125           
   3126           cnt=0;
   \   0000000C   2488               CLR     R8
   \   0000000E   2499               CLR     R9
   3127           flag_life=0;
   \   00000010   2444               CLR     R4
   3128           life_cl=0;
   3129           life_time=0;
   3130           life_start=0;
   \   00000012   C005               RJMP    ??proc_option_0
   3131           
   3132          
   3133           
   3134           next_option: 
   3135                         
   3136                         switch(buf_rx_ppp[ind])
   3137                           {
   3138                           case KOD_OP_ERROR:  
   3139                                            
   3140                                            if(buf_rx_ppp[ind+1]!=L_ERR_NO_INTABL)return(0);   
   3141                                            if(buf_rx_ppp[ind+2]!=ERR_NO_INTABL)return(0);
   3142                                            if(((buf_rx_ppp[TR_V]>>4)&0x03)!=KVIT)return(0);
   3143                                            if(*(unsigned int*)&buf_rx_ppp[ind+3]==num_seq_cl)
   3144                                             {
   3145                                      
   3146                                              Appl_seq.cnt_cntr_cl=0;
   3147                                              Appl_seq.cntr_cl=TRUE;
   3148                                              Appl_seq.en_cntr_cl=TRUE;
   3149                                              Appl_seq.cnt_try=0;
   3150                                              fl_appl_seq.en_povtor=0; 
   3151                                              Appl_seq.l_data=0; 
   3152                                              Appl_seq.cnt_waits=0;
   3153                                              fl_appl_seq.kv_waits=0;
   3154                                              }
   3155                                      
   3156                                               cnt_no_link=vol_cnt_no_link;//dobavka
   3157                                            
   3158                                               Control.link_waits=FALSE;
   3159                                               Control.cnt_link=Control.vol_link;                  
   3160                                               Control.link=FALSE; 
   3161                                     
   3162                                               Control.cnt_try=0;
   3163                                               Control.link_no=FALSE;
   3164                                               return(0);
   3165                           
   3166                           case KOD_OP_LUFKIN: 
   3167                                               if(buf_rx_ppp[ind+1]!=L_OP_LUFKIN)return(0);  
   3168                                               if(((buf_rx_ppp[TR_V]>>4)&0x03)!=ZAPR)return(0);
   3169                                               delay_pre_tx=*(unsigned int*)&buf_rx_ppp[ind+2]; 
   3170                                               if(delay_pre_tx>5000){delay_pre_tx=0;return(0); }//5 ńĺęóíä                                       
   3171                                               break;
   3172                            
   3173                           case KOD_OP_SIZE_PG: 
   3174                                                if(buf_rx_ppp[ind+1]!=L_OP_SIZE_PG)return(0);   
   3175                                                if(((buf_rx_ppp[TR_V]>>4)&0x03)!=ZAPR)return(0);                                                             
   3176                                                return(2); 
   3177                           
   3178                           case KOD_WR_PG: 
   3179                                                if(buf_rx_ppp[ind+1]!=L_OP_WR_PG)return(0);   
   3180                                                if(((buf_rx_ppp[TR_V]>>4)&0x03)!=ZAPR)return(0);
   3181                                                if (buf_rx_ppp[ind+2] & FIRST_PG) fl_pg_out.first_pg=1;else fl_pg_out.first_pg=0; 
   3182                                                if (buf_rx_ppp[ind+2] & NO_END_PG) fl_pg_out.end_pg=0;else{  fl_pg_out.end_pg=1;}                                                        
   3183                                                if (buf_rx_ppp[ind+2] & NADO_KV) { fl_pg_out.send_kv=1;}else fl_pg_out.send_kv=0;
   3184                                                id_pg_appl=buf_rx_ppp[ind+3];
   3185                                                break;
   3186                                                            
   3187                           case KOD_WR_PG_CRC: 
   3188                                               
   3189                                                fl_pg_out.ch_crc=0;
   3190                                                if(buf_rx_ppp[ind+1]!=L_OP_WR_PG_CRC)return(0);   
   3191                                                if(((buf_rx_ppp[TR_V]>>4)&0x03)!=ZAPR)return(0); 
   3192                                                fl_pg_out.ch_crc=1;
   3193                                                pg_crc=*(unsigned int*)&buf_rx_ppp[ind+2];                                                            
   3194                
   3195                                 //               send_info(sizeof(gluk),gluk,1,2);
   3196                                                
   3197                                                break;
   3198                           
   3199                           case KOD_OP_LIFE:   
   3200                                                switch(port)
   3201                                                {
   3202                                                case PORT485_1:
   3203                                                     life_time=Life.time_485_1;
   3204                                                     life_cl=Life.client_485_1;
   3205                                                     life_start=Life.start_485_1;
   3206                                                     break;
   3207                                                case PORT485_2:
   3208                                                     life_time=Life.time_485_2;
   3209                                                     life_cl=Life.client_485_2;
   3210                                                     life_start=Life.start_485_2;
   3211                                                     break;
   3212                                                case PORT232_2:
   3213                                                     life_time=Life.time_232_2;
   3214                                                     life_cl=Life.client_232_2;
   3215                                                     life_start=Life.start_232_2;
   3216                                                     break;
   3217                                                default:return(0);
   3218                                                }
   3219                                                
   3220                                                
   3221                                                if(buf_rx_ppp[ind+2]==0)
   3222                                                {
   3223                                                  
   3224                                          
   3225                                                  if(life_cl==*(unsigned int*)&buf_rx_ppp[TR_SRC])
   3226                                                  {
   3227                                                    if(life_time==0)flag_life=2;                                         
   3228                                                       else 
   3229                                                            {
   3230                                                            switch(port)
   3231                                                               {
   3232                                                                 case PORT485_1:
   3233                                                                      Life.time_485_1=0;
   3234                                                                      Life.start_485_1=0;
   3235                                                                      break;
   3236                                                                 case PORT485_2:
   3237                                                                      Life.time_485_2=0;
   3238                                                                      Life.start_485_2=0;
   3239                                                                      break;
   3240                                                                 case PORT232_2:
   3241                                                                      Life.time_232_2=0;
   3242                                                                      Life.start_232_2=0;
   3243                                                                       break;     
   3244                                                                  default :write_log_info(ST_ERROR,ERR6);
   3245                                                                           lock_it(); // ńáîé îçó
   3246                                                                }
   3247                                                             flag_life=1;    
   3248                                                             }
   3249                                                  }
   3250                                                  else flag_life=3;
   3251                                                }
   3252                                                else
   3253                                                {
   3254                                                  if(life_time==0)
   3255                                                  {
   3256                                                    switch(port)
   3257                                                          {
   3258                                                           case PORT485_1:
   3259                                                                 Life.time_485_1=buf_rx_ppp[ind+2];
   3260                                                                 Life.client_485_1=*(unsigned int*)&buf_rx_ppp[TR_SRC];
   3261                                                                 Life.start_485_1=1;
   3262                                                                 break;
   3263                                                           case PORT485_2:
   3264                                                                 Life.time_485_2=buf_rx_ppp[ind+2];
   3265                                                                 Life.client_485_2=*(unsigned int*)&buf_rx_ppp[TR_SRC];
   3266                                                                 Life.start_485_2=1;
   3267                                                                 break;
   3268                                                            case PORT232_2:
   3269                                                                 Life.time_232_2=buf_rx_ppp[ind+2];
   3270                                                                 Life.client_232_2=*(unsigned int*)&buf_rx_ppp[TR_SRC];
   3271                                                                 Life.start_232_2=1;
   3272                                                                 break;     
   3273                                                            default :write_log_info(ST_ERROR,ERR5);
   3274                                                                     lock_it(); // ńáîé îçó
   3275                                                            }
   3276                                                    flag_life=1;
   3277                                                  }
   3278                                                  else 
   3279                                                  {
   3280                                                    
   3281                                                    if((life_cl==*(unsigned int*)&buf_rx_ppp[TR_SRC]) || (life_start==1))
   3282                                                    {
   3283                                                      switch(port)
   3284                                                          {
   3285                                                          case PORT485_1:
   3286                                                                 Life.time_485_1=buf_rx_ppp[ind+2];
   3287                                                                 Life.client_485_1=*(unsigned int*)&buf_rx_ppp[TR_SRC];
   3288                                                                 Life.start_485_1=1;
   3289                                                                 break;
   3290                                                           case PORT485_2:
   3291                                                                 Life.time_485_2=buf_rx_ppp[ind+2];
   3292                                                                 Life.client_485_2=*(unsigned int*)&buf_rx_ppp[TR_SRC];
   3293                                                                 Life.start_485_2=1;
   3294                                                                 break;
   3295                                                            case PORT232_2:
   3296                                                                 Life.time_232_2=buf_rx_ppp[ind+2];
   3297                                                                 Life.client_232_2=*(unsigned int*)&buf_rx_ppp[TR_SRC];
   3298                                                                 Life.start_232_2=1;
   3299                                                                 break;   
   3300                                                            default :write_log_info(ST_ERROR,ERR5);
   3301                                                                     lock_it(); // ńáîé îçó
   3302                                                            }
   3303                                                    flag_life=1;
   3304                                                    }
   3305                                                    else flag_life=3;
   3306                                                  }  
   3307                                                    
   3308                                                }
   3309                                                
   3310                                                
   3311                                                
   3312                                                break;
   3313                                              
   3314                                            
   3315                           default:  return(0);   
   3316                                        
   3317                           }
   3318           
   3319           //çäĺńü âűń÷čňűâŕĺňń˙ äëčíŕ çŕďîëíčňĺë˙              
   3320           tt=4-((buf_rx_ppp[ind+1]+4)%4);
   3321           if(tt==4)tt=0;           
   3322           ///////////////
   3323           
   3324           cnt=cnt+buf_rx_ppp[ind+1]+tt;
   3325           if(cnt>=count_rx_opt)
   3326           {
   3327             if(flag_life==0){return(1);}//âńĺ îďöčč ďđîń÷čňŕíű
   3328               else
   3329               {
   3330                 if(flag_life==1)return(1);
   3331                 if(flag_life==2)return(3);
   3332                 if(flag_life==3)return(4);
   3333                 write_log_info(ST_ERROR,ERR4);
   \                     ??proc_option_1:
   \   00000014   E014               LDI     R17, 4
   \   00000016   ....               RCALL   ?Subroutine126
   3334                 lock_it(); // ńáîé îçó
   3335               }
   3336           }  
   3337             
   3338           ind=ind+buf_rx_ppp[ind+1]+tt;               
   \                     ??CrossCallReturnLabel_207:
   \   00000018   ....               RCALL   ?Subroutine120
   \                     ??CrossCallReturnLabel_196:
   \   0000001A   0EA0               ADD     R10, R16
   \   0000001C   1EB1               ADC     R11, R17
   3339           //if(ind>=count_rx_opt)return(1);
   3340           goto next_option;
   \                     ??proc_option_0:
   \   0000001E   01DC               MOVW    R27:R26, R25:R24
   \   00000020   0DAA               ADD     R26, R10
   \   00000022   1DBB               ADC     R27, R11
   \   00000024   ....               LDI     R16, LOW(Obj_ppp_tx)
   \   00000026   ....               LDI     R17, (Obj_ppp_tx) >> 8
   \   00000028   912C               LD      R18, X
   \   0000002A   952A               DEC     R18
   \   0000002C   F409               BRNE    $+2+2
   \   0000002E   C061               RJMP    ??proc_option_2
   \   00000030   952A               DEC     R18
   \   00000032   F409               BRNE    $+2+2
   \   00000034   C067               RJMP    ??proc_option_3
   \   00000036   952A               DEC     R18
   \   00000038   F409               BRNE    $+2+2
   \   0000003A   C0A4               RJMP    ??proc_option_4
   \   0000003C   952A               DEC     R18
   \   0000003E   F039               BREQ    ??proc_option_5
   \   00000040   5022               SUBI    R18, 2
   \   00000042   F409               BRNE    $+2+2
   \   00000044   C044               RJMP    ??proc_option_6
   \   00000046   952A               DEC     R18
   \   00000048   F409               BRNE    $+2+2
   \   0000004A   C0B1               RJMP    ??proc_option_7
   \   0000004C   C003               RJMP    ??proc_option_8
   \                     ??proc_option_5:
   \   0000004E   ....               RCALL   ?Subroutine121
   \                     ??CrossCallReturnLabel_734:
   \   00000050   3005               CPI     R16, 5
   \   00000052   F011               BREQ    ??proc_option_9
   \                     ??proc_option_8:
   \   00000054   E000               LDI     R16, 0
   \   00000056   C121               RJMP    ??proc_option_10
   \                     ??proc_option_9:
   \   00000058   8102               LDD     R16, Z+2
   \   0000005A   3001               CPI     R16, 1
   \   0000005C   F7D9               BRNE    ??proc_option_8
   \   0000005E   ....               RCALL   ?Subroutine159
   \                     ??CrossCallReturnLabel_756:
   \   00000060   3003               CPI     R16, 3
   \   00000062   F7C1               BRNE    ??proc_option_8
   \   00000064   01FD               MOVW    R31:R30, R27:R26
   \   00000066   8103               LDD     R16, Z+3
   \   00000068   8114               LDD     R17, Z+4
   \   0000006A   ....               LDI     R30, LOW(num_seq_cl)
   \   0000006C   ....               LDI     R31, (num_seq_cl) >> 8
   \   0000006E   ........           CALL    ?Subroutine180
   \                     ??CrossCallReturnLabel_442:
   \   00000072   F4B1               BRNE    ??proc_option_11
   \   00000074   ....               LDI     R30, LOW(Appl_seq)
   \   00000076   ....               LDI     R31, (Appl_seq) >> 8
   \   00000078   E000               LDI     R16, 0
   \   0000007A   E010               LDI     R17, 0
   \   0000007C   8B06               STD     Z+22, R16
   \   0000007E   8B07               STD     Z+23, R16
   \   00000080   E001               LDI     R16, 1
   \   00000082   8B04               STD     Z+20, R16
   \   00000084   8B05               STD     Z+21, R16
   \   00000086   8713               STD     Z+11, R17
   \   00000088   ....               LDI     R26, LOW(fl_appl_seq)
   \   0000008A   ....               LDI     R27, (fl_appl_seq) >> 8
   \   0000008C   910C               LD      R16, X
   \   0000008E   7F0B               ANDI    R16, 0xFB
   \   00000090   930C               ST      X, R16
   \   00000092   8714               STD     Z+12, R17
   \   00000094   8715               STD     Z+13, R17
   \   00000096   8711               STD     Z+9, R17
   \   00000098   8712               STD     Z+10, R17
   \   0000009A   01FD               MOVW    R31:R30, R27:R26
   \   0000009C   7F0D               ANDI    R16, 0xFD
   \   0000009E   8300               ST      Z, R16
   \                     ??proc_option_11:
   \   000000A0   ....               LDI     R30, LOW(vol_cnt_no_link)
   \   000000A2   ....               LDI     R31, (vol_cnt_no_link) >> 8
   \   000000A4   ....               RCALL   ?Subroutine308
   \                     ??CrossCallReturnLabel_743:
   \   000000A6   8122               LDD     R18, Z+2
   \   000000A8   8133               LDD     R19, Z+3
   \   000000AA   ....               LDI     R30, LOW(cnt_no_link)
   \   000000AC   ....               LDI     R31, (cnt_no_link) >> 8
   \   000000AE   ........           CALL    ??Subroutine80_0
   \                     ??CrossCallReturnLabel_653:
   \   000000B2   8322               STD     Z+2, R18
   \   000000B4   8333               STD     Z+3, R19
   \   000000B6   ....               RCALL   ?Subroutine303
   \                     ??CrossCallReturnLabel_712:
   \   000000B8   E000               LDI     R16, 0
   \   000000BA   8301               STD     Z+1, R16
   \   000000BC   8500               LDD     R16, Z+8
   \   000000BE   8511               LDD     R17, Z+9
   \   000000C0   ........           CALL    ?Subroutine264
   \                     ??CrossCallReturnLabel_491:
   \   000000C4   E000               LDI     R16, 0
   \   000000C6   8302               STD     Z+2, R16
   \   000000C8   8706               STD     Z+14, R16
   \   000000CA   8300               ST      Z, R16
   \   000000CC   CFC3               RJMP    ??proc_option_8
   \                     ??proc_option_6:
   \   000000CE   ....               RCALL   ?Subroutine123
   \                     ??CrossCallReturnLabel_203:
   \   000000D0   F609               BRNE    ??proc_option_8
   \   000000D2   ....               RCALL   ?Subroutine156
   \                     ??CrossCallReturnLabel_419:
   \   000000D4   F009               BREQ    $+2+2
   \   000000D6   CFBE               RJMP    ??proc_option_8
   \   000000D8   01FD               MOVW    R31:R30, R27:R26
   \   000000DA   8142               LDD     R20, Z+2
   \   000000DC   8153               LDD     R21, Z+3
   \   000000DE   01F8               MOVW    R31:R30, R17:R16
   \   000000E0   8F44               STD     Z+28, R20
   \   000000E2   8F55               STD     Z+29, R21
   \   000000E4   3849               CPI     R20, 137
   \   000000E6   4153               SBCI    R21, 19
   \   000000E8   F190               BRCS    ??proc_option_12
   \   000000EA   E020               LDI     R18, 0
   \   000000EC   8F24               STD     Z+28, R18
   \   000000EE   8F25               STD     Z+29, R18
   \   000000F0   CFB1               RJMP    ??proc_option_8
   \                     ??proc_option_2:
   \   000000F2   ....               RCALL   ?Subroutine121
   \                     ??CrossCallReturnLabel_735:
   \   000000F4   3003               CPI     R16, 3
   \   000000F6   F009               BREQ    $+2+2
   \   000000F8   CFAD               RJMP    ??proc_option_8
   \   000000FA   ....               RCALL   ?Subroutine159
   \                     ??CrossCallReturnLabel_757:
   \   000000FC   F009               BREQ    $+2+2
   \   000000FE   CFAA               RJMP    ??proc_option_8
   \   00000100   E002               LDI     R16, 2
   \   00000102   C0CB               RJMP    ??proc_option_10
   \                     ??proc_option_3:
   \   00000104   ....               RCALL   ?Subroutine123
   \                     ??CrossCallReturnLabel_204:
   \   00000106   F009               BREQ    $+2+2
   \   00000108   CFA5               RJMP    ??proc_option_8
   \   0000010A   ....               RCALL   ?Subroutine156
   \                     ??CrossCallReturnLabel_420:
   \   0000010C   F009               BREQ    $+2+2
   \   0000010E   CFA2               RJMP    ??proc_option_8
   \   00000110   ....               RCALL   ?Subroutine304
   \                     ??CrossCallReturnLabel_716:
   \   00000112   FF20               SBRS    R18, 0
   \   00000114   C003               RJMP    ??proc_option_13
   \   00000116   A127               LDD     R18, Z+39
   \   00000118   6120               ORI     R18, 0x10
   \   0000011A   C002               RJMP    ??proc_option_14
   \                     ??proc_option_13:
   \   0000011C   A127               LDD     R18, Z+39
   \   0000011E   7E2F               ANDI    R18, 0xEF
   \                     ??proc_option_14:
   \   00000120   ........           CALL    ?Subroutine113
   \                     ??CrossCallReturnLabel_720:
   \   00000124   FF21               SBRS    R18, 1
   \   00000126   C003               RJMP    ??proc_option_15
   \   00000128   A127               LDD     R18, Z+39
   \   0000012A   7F2E               ANDI    R18, 0xFE
   \   0000012C   C002               RJMP    ??proc_option_16
   \                     ??proc_option_15:
   \   0000012E   A127               LDD     R18, Z+39
   \   00000130   6021               ORI     R18, 0x01
   \                     ??proc_option_16:
   \   00000132   ........           CALL    ?Subroutine113
   \                     ??CrossCallReturnLabel_721:
   \   00000136   FF22               SBRS    R18, 2
   \   00000138   C003               RJMP    ??proc_option_17
   \   0000013A   A127               LDD     R18, Z+39
   \   0000013C   6024               ORI     R18, 0x04
   \   0000013E   C002               RJMP    ??proc_option_18
   \                     ??proc_option_17:
   \   00000140   A127               LDD     R18, Z+39
   \   00000142   7F2B               ANDI    R18, 0xFB
   \                     ??proc_option_18:
   \   00000144   A327               STD     Z+39, R18
   \   00000146   01FD               MOVW    R31:R30, R27:R26
   \   00000148   8123               LDD     R18, Z+3
   \   0000014A   01F8               MOVW    R31:R30, R17:R16
   \   0000014C   A721               STD     Z+41, R18
   \                     ??proc_option_12:
   \   0000014E   ....               RCALL   ?Subroutine121
   \                     ??CrossCallReturnLabel_736:
   \   00000150   E010               LDI     R17, 0
   \   00000152   5F0C               SUBI    R16, 252
   \   00000154   4F1F               SBCI    R17, 255
   \   00000156   E044               LDI     R20, 4
   \   00000158   E050               LDI     R21, 0
   \   0000015A   ........           CALL    ?SS_DIVMOD_L02
   \   0000015E   E004               LDI     R16, 4
   \   00000160   1B04               SUB     R16, R20
   \   00000162   3004               CPI     R16, 4
   \   00000164   F409               BRNE    ??proc_option_19
   \   00000166   E000               LDI     R16, 0
   \                     ??proc_option_19:
   \   00000168   2E60               MOV     R6, R16
   \   0000016A   2477               CLR     R7
   \   0000016C   ....               RCALL   ?Subroutine120
   \                     ??CrossCallReturnLabel_197:
   \   0000016E   0E80               ADD     R8, R16
   \   00000170   1E91               ADC     R9, R17
   \   00000172   148E               CP      R8, R14
   \   00000174   049F               CPC     R9, R15
   \   00000176   F408               BRCC    $+2+2
   \   00000178   CF4F               RJMP    ??CrossCallReturnLabel_207
   \   0000017A   2044               TST     R4
   \   0000017C   F009               BREQ    $+2+2
   \   0000017E   C081               RJMP    ??proc_option_20
   \                     ??proc_option_21:
   \   00000180   E001               LDI     R16, 1
   \   00000182   C08B               RJMP    ??proc_option_10
   \                     ??proc_option_4:
   \   00000184   01F8               MOVW    R31:R30, R17:R16
   \   00000186   A127               LDD     R18, Z+39
   \   00000188   7F2D               ANDI    R18, 0xFD
   \   0000018A   A327               STD     Z+39, R18
   \   0000018C   ....               RCALL   ?Subroutine123
   \                     ??CrossCallReturnLabel_205:
   \   0000018E   F009               BREQ    $+2+2
   \   00000190   CF61               RJMP    ??proc_option_8
   \   00000192   ....               RCALL   ?Subroutine156
   \                     ??CrossCallReturnLabel_421:
   \   00000194   F009               BREQ    $+2+2
   \   00000196   CF5E               RJMP    ??proc_option_8
   \   00000198   01F8               MOVW    R31:R30, R17:R16
   \   0000019A   A127               LDD     R18, Z+39
   \   0000019C   6022               ORI     R18, 0x02
   \   0000019E   A327               STD     Z+39, R18
   \   000001A0   01FD               MOVW    R31:R30, R27:R26
   \   000001A2   8122               LDD     R18, Z+2
   \   000001A4   8133               LDD     R19, Z+3
   \   000001A6   01F8               MOVW    R31:R30, R17:R16
   \   000001A8   8F26               STD     Z+30, R18
   \   000001AA   8F37               STD     Z+31, R19
   \   000001AC   CFD0               RJMP    ??proc_option_12
   \                     ??proc_option_7:
   \   000001AE   ....               RCALL   ?Subroutine207
   \                     ??CrossCallReturnLabel_320:
   \   000001B0   F029               BREQ    ??proc_option_22
   \   000001B2   952A               DEC     R18
   \   000001B4   F049               BREQ    ??proc_option_23
   \   000001B6   952A               DEC     R18
   \   000001B8   F069               BREQ    ??proc_option_24
   \   000001BA   CF4C               RJMP    ??proc_option_8
   \                     ??proc_option_22:
   \   000001BC   01F8               MOVW    R31:R30, R17:R16
   \   000001BE   8920               LDD     R18, Z+16
   \   000001C0   8941               LDD     R20, Z+17
   \   000001C2   8952               LDD     R21, Z+18
   \   000001C4   8933               LDD     R19, Z+19
   \   000001C6   C00B               RJMP    ??proc_option_25
   \                     ??proc_option_23:
   \   000001C8   01F8               MOVW    R31:R30, R17:R16
   \   000001CA   8924               LDD     R18, Z+20
   \   000001CC   8945               LDD     R20, Z+21
   \   000001CE   8956               LDD     R21, Z+22
   \   000001D0   8937               LDD     R19, Z+23
   \   000001D2   C005               RJMP    ??proc_option_25
   \                     ??proc_option_24:
   \   000001D4   01F8               MOVW    R31:R30, R17:R16
   \   000001D6   8D20               LDD     R18, Z+24
   \   000001D8   8D41               LDD     R20, Z+25
   \   000001DA   8D52               LDD     R21, Z+26
   \   000001DC   8D33               LDD     R19, Z+27
   \                     ??proc_option_25:
   \   000001DE   01FD               MOVW    R31:R30, R27:R26
   \   000001E0   8162               LDD     R22, Z+2
   \   000001E2   2366               TST     R22
   \   000001E4   F519               BRNE    ??proc_option_26
   \   000001E6   ....               RCALL   ?Subroutine157
   \                     ??CrossCallReturnLabel_257:
   \   000001E8   F4F9               BRNE    ??proc_option_27
   \   000001EA   2322               TST     R18
   \   000001EC   F419               BRNE    ??proc_option_28
   \   000001EE   E002               LDI     R16, 2
   \                     ??proc_option_29:
   \   000001F0   2E40               MOV     R4, R16
   \   000001F2   CFAD               RJMP    ??proc_option_12
   \                     ??proc_option_28:
   \   000001F4   ....               RCALL   ?Subroutine207
   \                     ??CrossCallReturnLabel_321:
   \   000001F6   F029               BREQ    ??proc_option_30
   \   000001F8   952A               DEC     R18
   \   000001FA   F039               BREQ    ??proc_option_31
   \   000001FC   952A               DEC     R18
   \   000001FE   F051               BREQ    ??proc_option_32
   \   00000200   C00E               RJMP    ??proc_option_33
   \                     ??proc_option_30:
   \   00000202   E020               LDI     R18, 0
   \   00000204   ....               RCALL   ?Subroutine100
   \                     ??CrossCallReturnLabel_165:
   \   00000206   8B23               STD     Z+19, R18
   \   00000208   C00C               RJMP    ??CrossCallReturnLabel_206
   \                     ??proc_option_31:
   \   0000020A   E020               LDI     R18, 0
   \   0000020C   01F8               MOVW    R31:R30, R17:R16
   \   0000020E   8B24               STD     Z+20, R18
   \                     ??proc_option_34:
   \   00000210   8B27               STD     Z+23, R18
   \   00000212   C007               RJMP    ??CrossCallReturnLabel_206
   \                     ??proc_option_32:
   \   00000214   E020               LDI     R18, 0
   \   00000216   01F8               MOVW    R31:R30, R17:R16
   \   00000218   8F20               STD     Z+24, R18
   \                     ??proc_option_35:
   \   0000021A   8F23               STD     Z+27, R18
   \   0000021C   C002               RJMP    ??CrossCallReturnLabel_206
   \                     ??proc_option_33:
   \   0000021E   E016               LDI     R17, 6
   \                     ??proc_option_36:
   \   00000220   ....               RCALL   ?Subroutine126
   \                     ??CrossCallReturnLabel_206:
   \   00000222   2444               CLR     R4
   \   00000224   9443               INC     R4
   \   00000226   CF93               RJMP    ??proc_option_12
   \                     ??proc_option_27:
   \   00000228   E003               LDI     R16, 3
   \   0000022A   CFE2               RJMP    ??proc_option_29
   \                     ??proc_option_26:
   \   0000022C   2322               TST     R18
   \   0000022E   F4E9               BRNE    ??proc_option_37
   \   00000230   ....               RCALL   ?Subroutine207
   \                     ??CrossCallReturnLabel_322:
   \   00000232   F029               BREQ    ??proc_option_38
   \   00000234   952A               DEC     R18
   \   00000236   F059               BREQ    ??proc_option_39
   \   00000238   952A               DEC     R18
   \   0000023A   F081               BREQ    ??proc_option_40
   \   0000023C   C020               RJMP    ??proc_option_41
   \                     ??proc_option_38:
   \   0000023E   01FD               MOVW    R31:R30, R27:R26
   \   00000240   8122               LDD     R18, Z+2
   \   00000242   ....               RCALL   ?Subroutine100
   \                     ??CrossCallReturnLabel_166:
   \   00000244   ....               RCALL   ?Subroutine104
   \                     ??CrossCallReturnLabel_722:
   \   00000246   8B21               STD     Z+17, R18
   \   00000248   8B32               STD     Z+18, R19
   \   0000024A   E021               LDI     R18, 1
   \   0000024C   CFDC               RJMP    ??CrossCallReturnLabel_165
   \                     ??proc_option_39:
   \   0000024E   ....               RCALL   ?Subroutine304
   \                     ??CrossCallReturnLabel_717:
   \   00000250   8B24               STD     Z+20, R18
   \   00000252   ....               RCALL   ?Subroutine104
   \                     ??CrossCallReturnLabel_723:
   \   00000254   8B25               STD     Z+21, R18
   \   00000256   8B36               STD     Z+22, R19
   \   00000258   E021               LDI     R18, 1
   \   0000025A   CFDA               RJMP    ??proc_option_34
   \                     ??proc_option_40:
   \   0000025C   ....               RCALL   ?Subroutine304
   \                     ??CrossCallReturnLabel_718:
   \   0000025E   8F20               STD     Z+24, R18
   \   00000260   ....               RCALL   ?Subroutine104
   \                     ??CrossCallReturnLabel_724:
   \   00000262   8F21               STD     Z+25, R18
   \   00000264   8F32               STD     Z+26, R19
   \   00000266   E021               LDI     R18, 1
   \   00000268   CFD8               RJMP    ??proc_option_35
   \                     ??proc_option_37:
   \   0000026A   ....               RCALL   ?Subroutine157
   \                     ??CrossCallReturnLabel_258:
   \   0000026C   F011               BREQ    ??proc_option_42
   \   0000026E   3031               CPI     R19, 1
   \   00000270   F6D9               BRNE    ??proc_option_27
   \                     ??proc_option_42:
   \   00000272   ....               RCALL   ?Subroutine207
   \                     ??CrossCallReturnLabel_323:
   \   00000274   F321               BREQ    ??proc_option_38
   \   00000276   952A               DEC     R18
   \   00000278   F351               BREQ    ??proc_option_39
   \   0000027A   952A               DEC     R18
   \   0000027C   F379               BREQ    ??proc_option_40
   \                     ??proc_option_41:
   \   0000027E   E015               LDI     R17, 5
   \   00000280   CFCF               RJMP    ??proc_option_36
   \                     ??proc_option_20:
   \   00000282   E001               LDI     R16, 1
   \   00000284   1640               CP      R4, R16
   \   00000286   F409               BRNE    $+2+2
   \   00000288   CF7B               RJMP    ??proc_option_21
   \   0000028A   E002               LDI     R16, 2
   \   0000028C   1640               CP      R4, R16
   \   0000028E   E003               LDI     R16, 3
   \   00000290   F021               BREQ    ??proc_option_10
   \   00000292   1640               CP      R4, R16
   \   00000294   F009               BREQ    $+2+2
   \   00000296   CEBE               RJMP    ??proc_option_1
   \   00000298   E004               LDI     R16, 4
   \                     ??proc_option_10:
   \   0000029A                      REQUIRE ?Subroutine281
   \   0000029A                      ;               // Fall through to label ?Subroutine281
   3341           } 

   \                                 In segment FARCODE, align 2, keep-with-next
   \                     ?Subroutine281:
   \   00000000   E1E0               LDI     R30, 16
   \   00000002   ........           JMP     ?EPILOGUE_B16_L09

   \                                 In segment FARCODE, align 2, keep-with-next
   \                     ?Subroutine207:
   \   00000000   2D2C               MOV     R18, R12
   \   00000002   952A               DEC     R18
   \   00000004   9508               RET

   \                                 In segment FARCODE, align 2, keep-with-next
   \                     ?Subroutine159:
   \   00000000   01FC               MOVW    R31:R30, R25:R24
   \   00000002                      REQUIRE ?Subroutine255
   \   00000002                      ;               // Fall through to label ?Subroutine255

   \                                 In segment FARCODE, align 2, keep-with-next
   \                     ?Subroutine255:
   \   00000000   A104               LDD     R16, Z+36
   \   00000002   9502               SWAP    R16
   \   00000004   7003               ANDI    R16, 0x03
   \   00000006   9508               RET

   \                                 In segment FARCODE, align 2, keep-with-next
   \                     ?Subroutine157:
   \   00000000   01FC               MOVW    R31:R30, R25:R24
   \   00000002   8D66               LDD     R22, Z+30
   \   00000004   8D77               LDD     R23, Z+31
   \   00000006   1746               CP      R20, R22
   \   00000008   0757               CPC     R21, R23
   \   0000000A   9508               RET

   \                                 In segment FARCODE, align 2, keep-with-next
   \                     ?Subroutine156:
   \   00000000   01FC               MOVW    R31:R30, R25:R24
   \   00000002                      REQUIRE ?Subroutine256
   \   00000002                      ;               // Fall through to label ?Subroutine256

   \                                 In segment FARCODE, align 2, keep-with-next
   \                     ?Subroutine256:
   \   00000000   A124               LDD     R18, Z+36
   \   00000002   9522               SWAP    R18
   \   00000004   7023               ANDI    R18, 0x03
   \   00000006   9508               RET

   \                                 In segment FARCODE, align 2, keep-with-next
   \                     ?Subroutine126:
   \   00000000   E002               LDI     R16, 2
   \   00000002   ........           CALL    write_log_info
   \   00000006   ........           JMP     lock_it

   \                                 In segment FARCODE, align 2, keep-with-next
   \                     ?Subroutine123:
   \   00000000   01FD               MOVW    R31:R30, R27:R26
   \   00000002   8121               LDD     R18, Z+1
   \   00000004   3024               CPI     R18, 4
   \   00000006   9508               RET

   \                                 In segment FARCODE, align 2, keep-with-next
   \                     ?Subroutine120:
   \   00000000   01FD               MOVW    R31:R30, R27:R26
   \   00000002   8101               LDD     R16, Z+1
   \   00000004   E010               LDI     R17, 0
   \   00000006   0D06               ADD     R16, R6
   \   00000008   1D17               ADC     R17, R7
   \   0000000A   9508               RET

   \                                 In segment FARCODE, align 2, keep-with-next
   \                     ?Subroutine104:
   \   00000000   01FC               MOVW    R31:R30, R25:R24
   \   00000002   8D26               LDD     R18, Z+30
   \   00000004   8D37               LDD     R19, Z+31
   \   00000006                      REQUIRE ?Subroutine273
   \   00000006                      ;               // Fall through to label ?Subroutine273

   \                                 In segment FARCODE, align 2, keep-with-next
   \                     ?Subroutine273:
   \   00000000   01F8               MOVW    R31:R30, R17:R16
   \   00000002   9508               RET

   \                                 In segment FARCODE, align 2, keep-with-next
   \                     ?Subroutine206:
   \   00000000   ....               LDI     R30, LOW(Control)
   \   00000002   ....               LDI     R31, (Control) >> 8
   \   00000004   9508               RET

   \                                 In segment FARCODE, align 2, keep-with-next
   \                     ?Subroutine180:
   \   00000000   8120               LD      R18, Z
   \   00000002   8131               LDD     R19, Z+1
   \   00000004   ........           JMP     ?Subroutine259

   \                                 In segment FARCODE, align 2, keep-with-next
   \                     ?Subroutine264:
   \   00000000   8304               STD     Z+4, R16
   \   00000002   8315               STD     Z+5, R17
   \   00000004   9508               RET

   \                                 In segment FARCODE, align 2, keep-with-next
   \                     ?Subroutine113:
   \   00000000   A327               STD     Z+39, R18
   \                     ??Subroutine113_0:
   \   00000002   01FD               MOVW    R31:R30, R27:R26
   \   00000004   8122               LDD     R18, Z+2
   \   00000006   ........           JMP     ?Subroutine273
   3342           
   3343           
   3344           

   \                                 In segment FARCODE, align 2, keep-with-next
   3345           void send_size_pg(unsigned char id,unsigned int dst)
   \                     send_size_pg:
   3346              {
   \   00000000   ....               RCALL   ?Subroutine90
   \                     ??CrossCallReturnLabel_140:
   \   00000002   2FA0               MOV     R26, R16
   \   00000004   01C9               MOVW    R25:R24, R19:R18
   3347                 if(fl_ip.act_ip_end!=1)return;
   \   00000006   ....               RCALL   ?Subroutine54
   \                     ??CrossCallReturnLabel_83:
   \   00000008   FF00               SBRS    R16, 0
   \   0000000A   C015               RJMP    ??CrossCallReturnLabel_125
   3348                    fl_ip.act_ip_end=0;      
   \   0000000C   ....               RCALL   ?Subroutine65
   3349                    clr_cntr_nat();
   3350                    clr_cntr_link();
   3351                    Obj_ppp_tx.prozr=FALSE;            
   3352                    Obj_ppp_tx.version=VER2;      //âĺđńč˙ 
   3353                    Obj_ppp_tx.type_pac=OTV;     //ňčď ďŕęĺňŕ
   3354                    Obj_ppp_tx.num_src=num_self; // íîěĺđ îňďđŕâčňĺë˙
   3355                    Obj_ppp_tx.num_dst=dst; // íîěĺđ ďîëó÷ŕňĺë˙
   3356                   
   3357                    Obj_ppp_tx.id_pac=id; // čäĺíňčôčęŕňîđ ďŕęĺňŕ  
   \                     ??CrossCallReturnLabel_107:
   \   0000000E   83A7               STD     Z+7, R26
   3358                    Obj_ppp_tx.p_opt=&buf_opt_tr[0]; // //óęŕçŕňĺëü áóôĺđŕ îďöčé          
   \   00000010   ....               LDI     R30, LOW(buf_opt_tr)
   \   00000012   ....               LDI     R31, (buf_opt_tr) >> 8
   \   00000014   01D8               MOVW    R27:R26, R17:R16
   \   00000016   9618               ADIW    R27:R26, 8
   \   00000018   93ED               ST      X+, R30
   \   0000001A   93FC               ST      X, R31
   3359                    
   3360                    
   3361                  Obj_ppp_tx.l_opt=4;// äëčíŕ áóôĺđŕ îďöčé   
   \   0000001C   E024               LDI     R18, 4
   \   0000001E   01D8               MOVW    R27:R26, R17:R16
   \   00000020   961A               ADIW    R27:R26, 10
   \   00000022   932C               ST      X, R18
   3362                  buf_opt_tr[0]=KOD_OP_SIZE_PG;
   \   00000024   E021               LDI     R18, 1
   \   00000026   8320               ST      Z, R18
   3363                  buf_opt_tr[1]=L_OP_SIZE_PG_OTV;
   \   00000028   E024               LDI     R18, 4
   \   0000002A   8321               STD     Z+1, R18
   3364                  *(unsigned int*)&buf_opt_tr[2]=256;  
   \   0000002C   E020               LDI     R18, 0
   \   0000002E   E031               LDI     R19, 1
   \   00000030   8322               STD     Z+2, R18
   \   00000032   8333               STD     Z+3, R19
   3365                  
   3366                  //Obj_ppp_tx.kol_opt=1;// ęîëč÷ĺńňâî îďöčé     
   3367                 
   3368                 
   3369                   Obj_ppp_tx.l_data=0;   // äëčíŕ äŕííűő
   \   00000034   ....               RCALL   ?Subroutine83
   3370                   Obj_ppp_tx.p_data=&buf_tx_232[TR_OP_DATA+C1_PROT];  //óęŕçŕňĺëü áóôĺđŕ äŕííűő
   3371                  
   3372                   form_buf_tx_ppp();                            
   3373                   UCSR0A=UCSR0A | TXC;                            
   3374                   UCSR0B=UCSR0B | TXEN;
   3375                   UCSR0B=UCSR0B | TXCIE;
   3376                   if(check_cts()==1) return;                
   3377                   S2_RD;
   3378                   UDR0=buf_tx_232[0];
   3379                   if(Regim==RG_DEBAG) UDR3=buf_tx_232[0];
   \                     ??CrossCallReturnLabel_125:
   \   00000036   ....               RJMP    ??Subroutine278_0
   3380                   return;     
   3381              }
   3382           
   3383          /* 
   3384           void send_otv_ping(unsigned char id,unsigned int dst)
   3385              {
   3386                 if(fl_ip.act_ip_end!=1)return;
   3387                    fl_ip.act_ip_end=0;      
   3388                    clr_cntr_nat();
   3389                    clr_cntr_link();
   3390                    Obj_ppp_tx.prozr=FALSE;            
   3391                    Obj_ppp_tx.version=VER2;      //âĺđńč˙ 
   3392                    Obj_ppp_tx.type_pac=OTV;     //ňčď ďŕęĺňŕ
   3393                    Obj_ppp_tx.num_src=num_self; // íîěĺđ îňďđŕâčňĺë˙
   3394                    Obj_ppp_tx.num_dst=dst; // íîěĺđ ďîëó÷ŕňĺë˙
   3395                   
   3396                    Obj_ppp_tx.id_pac=id; // čäĺíňčôčęŕňîđ ďŕęĺňŕ  
   3397                        
   3398                    Obj_ppp_tx.kol_opt=0;// ęîëč÷ĺńňâî îďöčé   
   3399                    Obj_ppp_tx.l_opt=0;// äëčíŕ áóôĺđŕ îďöčé   
   3400                  
   3401                    Obj_ppp_tx.l_data=0;   // äëčíŕ äŕííűő
   3402                   
   3403                    
   3404                   form_buf_tx_ppp();                            
   3405                   UCSR0A=UCSR0A | TXC;                            
   3406                   UCSR0B=UCSR0B | TXEN;
   3407                   UCSR0B=UCSR0B | TXCIE;
   3408                   if(check_cts()==1) return;                
   3409                   S2_RD;
   3410                   UDR0=buf_tx_232[0];
   3411                   if(Regim==RG_DEBAG) UDR3=buf_tx_232[0];
   3412                   return;     
   3413              }
   3414           
   3415           */
   3416           

   \                                 In segment FARCODE, align 2, keep-with-next
   \                     ?Subroutine327:
   \   00000000   ........           JMP     ?Subroutine214

   \                                 In segment FARCODE, align 2, keep-with-next
   \                     ?Subroutine326:
   \   00000000   ........           JMP     ?Subroutine110

   \                                 In segment FARCODE, align 2, keep-with-next
   \                     ?Subroutine325:
   \   00000000   ........           JMP     ?Subroutine56

   \                                 In segment FARCODE, align 2, keep-with-next
   \                     ?Subroutine324:
   \   00000000   ........           JMP     ?Subroutine169

   \                                 In segment FARCODE, align 2, keep-with-next
   \                     ?Subroutine323:
   \   00000000   ........           JMP     ?Subroutine212

   \                                 In segment FARCODE, align 2, keep-with-next
   \                     ?Subroutine322:
   \   00000000   ........           JMP     ?Subroutine158

   \                                 In segment FARCODE, align 2, keep-with-next
   \                     ?Subroutine321:
   \   00000000   ........           JMP     ?Subroutine125

   \                                 In segment FARCODE, align 2, keep-with-next
   \                     ?Subroutine320:
   \   00000000   ........           JMP     ?Subroutine216

   \                                 In segment FARCODE, align 2, keep-with-next
   \                     ?Subroutine319:
   \   00000000   ....               RJMP    ??Subroutine289_0

   \                                 In segment FARCODE, align 2, keep-with-next
   \                     ?Subroutine318:
   \   00000000   ........           JMP     ?Subroutine109

   \                                 In segment FARCODE, align 2, keep-with-next
   \                     ?Subroutine317:
   \   00000000   ........           JMP     ?Subroutine108

   \                                 In segment FARCODE, align 2, keep-with-next
   \                     ?Subroutine316:
   \   00000000   ........           JMP     ?Subroutine64

   \                                 In segment FARCODE, align 2, keep-with-next
   \                     ?Subroutine315:
   \   00000000   ........           JMP     ?Subroutine75

   \                                 In segment FARCODE, align 2, keep-with-next
   \                     ?Subroutine314:
   \   00000000   ........           JMP     ?Subroutine210

   \                                 In segment FARCODE, align 2, keep-with-next
   \                     ?Subroutine313:
   \   00000000   ........           JMP     ??Subroutine114_0

   \                                 In segment FARCODE, align 2, keep-with-next
   \                     ?Subroutine312:
   \   00000000   ........           JMP     ?Subroutine116

   \                                 In segment FARCODE, align 2, keep-with-next
   \                     ?Subroutine311:
   \   00000000   ........           JMP     ?Subroutine88

   \                                 In segment FARCODE, align 2, keep-with-next
   \                     ?Subroutine310:
   \   00000000   ........           JMP     ?Subroutine114

   \                                 In segment FARCODE, align 2, keep-with-next
   \                     ?Subroutine309:
   \   00000000   ........           JMP     ?Subroutine63

   \                                 In segment FARCODE, align 2, keep-with-next
   \                     ?Subroutine306:
   \   00000000   ........           JMP     ?Subroutine160

   \                                 In segment FARCODE, align 2, keep-with-next
   \                     ?Subroutine305:
   \   00000000   ........           JMP     ?Subroutine215

   \                                 In segment FARCODE, align 2, keep-with-next
   \                     ?Subroutine301:
   \   00000000   ........           JMP     ??Subroutine287_0

   \                                 In segment FARCODE, align 2, keep-with-next
   \                     ?Subroutine300:
   \   00000000   ........           JMP     ?Subroutine201

   \                                 In segment FARCODE, align 2, keep-with-next
   \                     ?Subroutine297:
   \   00000000   ........           JMP     ?Subroutine221

   \                                 In segment FARCODE, align 2, keep-with-next
   \                     ?Subroutine296:
   \   00000000   ........           JMP     ??Subroutine168_0

   \                                 In segment FARCODE, align 2, keep-with-next
   \                     ?Subroutine295:
   \   00000000   ........           JMP     ?Subroutine50

   \                                 In segment FARCODE, align 2, keep-with-next
   3417            unsigned char proc_udp_data(unsigned char *buf_rx_ppp,unsigned int count_rx_ppp)
   \                     proc_udp_data:
   3418                         {
   \   00000000   ........           CALL    ?PROLOGUE16_L09
   \   00000004                      REQUIRE ?Register_R4_is_cg_reg
   \   00000004                      REQUIRE ?Register_R5_is_cg_reg
   \   00000004                      REQUIRE ?Register_R6_is_cg_reg
   \   00000004                      REQUIRE ?Register_R7_is_cg_reg
   \   00000004                      REQUIRE ?Register_R8_is_cg_reg
   \   00000004                      REQUIRE ?Register_R9_is_cg_reg
   \   00000004                      REQUIRE ?Register_R10_is_cg_reg
   \   00000004                      REQUIRE ?Register_R11_is_cg_reg
   \   00000004                      REQUIRE ?Register_R12_is_cg_reg
   \   00000004                      REQUIRE ?Register_R13_is_cg_reg
   \   00000004                      REQUIRE ?Register_R14_is_cg_reg
   \   00000004                      REQUIRE ?Register_R15_is_cg_reg
   \   00000004   97EF               SBIW    R29:R28, 63
   \   00000006   9729               SBIW    R29:R28, 9
   \   00000008   A32A               STD     Y+34, R18
   \   0000000A   A33B               STD     Y+35, R19
   \   0000000C   01D8               MOVW    R27:R26, R17:R16
   3419                         unsigned int length,crc,year;
   3420                        // unsigned char *p_data;
   3421                         unsigned char length_head;
   3422                         unsigned char offset,i;
   3423                         unsigned int ii,kol,k;
   3424                          unsigned int *tc_cfgPoint;
   3425                         unsigned char flag_tii,flag_time,flag_refresh;
   3426                         unsigned long int old_unix;
   3427                         unsigned char flashka[2];
   3428            
   3429                         struct {
   3430                  unsigned char *point_out;
   3431                   unsigned char *point_out_save;
   3432                  unsigned char *point_in;
   3433                  unsigned char flag_elam;
   3434                   unsigned char smest_to_elam;
   3435                  unsigned int count_in_elam;
   3436                  unsigned int index_elam;
   3437                  unsigned int size_of_pac;
   3438                  unsigned int count_out_elam;
   3439                  unsigned int modbus_crc_new;
   3440                  unsigned char input_tu;
   3441                  unsigned int overall;
   3442          
   3443                             }mobus;
   3444                        
   3445                         
   3446                         
   3447                         //ďđîâĺđęŕ äëčíű äŕííűő UDP 
   3448                         length=*(unsigned int*)&buf_rx_ppp[UDP_LN];
   3449                         if(length<MIN_TR_HEAD)return(0);
   \   0000000E   01F8               MOVW    R31:R30, R17:R16
   \   00000010   8D82               LDD     R24, Z+26
   \   00000012   8D93               LDD     R25, Z+27
   \   00000014   308C               CPI     R24, 12
   \   00000016   4090               SBCI    R25, 0
   \   00000018   F420               BRCC    ??proc_udp_data_0
   \                     ??proc_udp_data_1:
   \   0000001A   E000               LDI     R16, 0
   \                     ??proc_udp_data_2:
   \   0000001C   96EF               ADIW    R29:R28, 63
   \   0000001E   9629               ADIW    R29:R28, 9
   \   00000020   ....               RJMP    ?Subroutine281
   3450                         
   3451                         // ďđîâĺđęŕ äëčíű ňđŕíńďîđňŕ
   3452                         length=*(unsigned int*)&buf_rx_ppp[TR_LEN];
   \                     ??proc_udp_data_0:
   \   00000022   ....               RCALL   ?Subroutine302
   \                     ??CrossCallReturnLabel_708:
   \   00000024   ........           CALL    ?Subroutine208
   3453                         if (length<MIN_TR_HEAD) return(0);
   \                     ??CrossCallReturnLabel_324:
   \   00000028   2F91               MOV     R25, R17
   \   0000002A   300C               CPI     R16, 12
   \   0000002C   4090               SBCI    R25, 0
   \   0000002E   F3A8               BRCS    ??proc_udp_data_1
   3454                         if (length>count_rx_ppp-5-20-8)return(0);
   \   00000030   01C9               MOVW    R25:R24, R19:R18
   \   00000032   9781               SBIW    R25:R24, 33
   \   00000034   1780               CP      R24, R16
   \   00000036   0791               CPC     R25, R17
   \   00000038   F380               BRCS    ??proc_udp_data_1
   3455                     
   3456                         transform_buf(&buf_rx_ppp[TR_ID],*(unsigned int*)&buf_rx_ppp[TR_LEN]-7,*(unsigned int*)&buf_rx_ppp[TR_KOD]);
   \   0000003A   A142               LDD     R20, Z+34
   \   0000003C   A153               LDD     R21, Z+35
   \   0000003E   A120               LDD     R18, Z+32
   \   00000040   A131               LDD     R19, Z+33
   \   00000042   5027               SUBI    R18, 7
   \   00000044   4030               SBCI    R19, 0
   \   00000046   018D               MOVW    R17:R16, R27:R26
   \   00000048   5D0B               SUBI    R16, 219
   \   0000004A   4F1F               SBCI    R17, 255
   \   0000004C   ........           CALL    transform_buf
   3457                         
   3458                         *(unsigned int*)&buf_rx_ppp[TR_KOD]=0;
   \   00000050   ....               RCALL   ?Subroutine45
   \                     ??CrossCallReturnLabel_388:
   \   00000052   A302               STD     Z+34, R16
   \   00000054   A303               STD     Z+35, R16
   3459                          
   3460                         crc=*(unsigned int*)&buf_rx_ppp[TR_CRC];
   \   00000056   A106               LDD     R16, Z+38
   \   00000058   A117               LDD     R17, Z+39
   \   0000005A   8308               ST      Y, R16
   \   0000005C   8319               STD     Y+1, R17
   3461                         *(unsigned int*)&buf_rx_ppp[TR_CRC]=0;
   \   0000005E   E000               LDI     R16, 0
   \   00000060   A306               STD     Z+38, R16
   \   00000062   A307               STD     Z+39, R16
   3462                         
   3463                         //ďđîâĺđęŕ crc
   3464                          if(crc!=crc_m1(&buf_rx_ppp[TR_SRC],*(unsigned int*)&buf_rx_ppp[TR_LEN],0xffff))return(0);         
   \   00000064   8048               LD      R4, Y
   \   00000066   8059               LDD     R5, Y+1
   \   00000068   ........           CALL    ?Subroutine198
   \                     ??CrossCallReturnLabel_660:
   \   0000006C   A120               LDD     R18, Z+32
   \   0000006E   A131               LDD     R19, Z+33
   \   00000070   018D               MOVW    R17:R16, R27:R26
   \   00000072   5E02               SUBI    R16, 226
   \   00000074   ........           CALL    ?Subroutine140
   \                     ??CrossCallReturnLabel_598:
   \   00000078   ........           CALL    ??Subroutine50_1
   \                     ??CrossCallReturnLabel_668:
   \   0000007C   F671               BRNE    ??proc_udp_data_1
   3465                                   
   3466                          
   3467                          
   3468          
   3469                         if((buf_rx_ppp[TR_V]>>6)==VER2)// âĺđńč˙ ďđîňîęîëŕ VER2
   \   0000007E   01FD               MOVW    R31:R30, R27:R26
   \   00000080   A104               LDD     R16, Z+36
   \   00000082   7C00               ANDI    R16, 0xC0
   \   00000084   3800               CPI     R16, 128
   \   00000086   F649               BRNE    ??proc_udp_data_1
   3470                         { 
   3471                         
   3472                         
   3473                         if(*(unsigned int*)&buf_rx_ppp[TR_DST]!=num_self)return(0); 
   \   00000088   A500               LDD     R16, Z+40
   \   0000008A   A511               LDD     R17, Z+41
   \   0000008C   ....               LDI     R30, LOW(num_self)
   \   0000008E   ....               LDI     R31, (num_self) >> 8
   \   00000090   ........           CALL    ?Subroutine180
   \                     ??CrossCallReturnLabel_443:
   \   00000094   F611               BRNE    ??proc_udp_data_1
   3474                         
   3475                         
   3476                         
   3477                         length_head=(buf_rx_ppp[TR_V]&0x0f)*4;
   \   00000096   01FD               MOVW    R31:R30, R27:R26
   \   00000098   A084               LDD     R8, Z+36
   \   0000009A   E00F               LDI     R16, 15
   \   0000009C   2280               AND     R8, R16
   \   0000009E   0C88               LSL     R8
   \   000000A0   0C88               LSL     R8
   3478                         
   3479                         
   3480                         if(length_head<MIN_TR_HEAD)return(0);
   \   000000A2   E00C               LDI     R16, 12
   \   000000A4   1680               CP      R8, R16
   \   000000A6   F408               BRCC    $+2+2
   \   000000A8   CFB8               RJMP    ??proc_udp_data_1
   3481                         if(length_head>50)return(0);// ďîęŕ îăđŕíč÷čë
   \   000000AA   E303               LDI     R16, 51
   \   000000AC   1680               CP      R8, R16
   \   000000AE   F008               BRCS    $+2+2
   \   000000B0   CFB4               RJMP    ??proc_udp_data_1
   3482                         
   3483                   //      send_info(sizeof(prov1),prov1,0,0);
   3484                        
   3485                        
   3486                      
   3487                         
   3488                         length=count_rx_ppp-5-20-8-length_head;
   \   000000B2   2499               CLR     R9
   \   000000B4   1988               SUB     R24, R8
   \   000000B6   4090               SBCI    R25, 0
   \   000000B8   838E               STD     Y+6, R24
   \   000000BA   839F               STD     Y+7, R25
   3489                         
   3490                         
   3491                       
   3492                         if(length==0) //ĺńëč äëčíŕ äŕííűő 0 ňî ęîíňđîëü ńâ˙çč č ďđîâĺđęŕ
   \   000000BC   2CC8               MOV     R12, R8
   \   000000BE   24DD               CLR     R13
   \   000000C0   EF04               LDI     R16, 244
   \   000000C2   0EC0               ADD     R12, R16
   \   000000C4   EF0F               LDI     R16, 255
   \   000000C6   1ED0               ADC     R13, R16
   \   000000C8   2F08               MOV     R16, R24
   \   000000CA   2B09               OR      R16, R25
   \   000000CC   F541               BRNE    ??proc_udp_data_3
   3493                            {
   3494                             
   3495                            if(length_head>MIN_TR_HEAD)
   \   000000CE   ........           CALL    ??Subroutine212_0
   \                     ??CrossCallReturnLabel_810:
   \   000000D2   F058               BRCS    ??proc_udp_data_4
   3496                              {
   3497                               if (proc_option(buf_rx_ppp,TR_OP_DATA,length_head-MIN_TR_HEAD,PORT_NONE)==2)
   \   000000D4   E060               LDI     R22, 0
   \   000000D6   ........           CALL    ?Subroutine172
   \                     ??CrossCallReturnLabel_275:
   \   000000DA   3002               CPI     R16, 2
   \   000000DC   F009               BREQ    $+2+2
   \   000000DE   CF9D               RJMP    ??proc_udp_data_1
   3498                                 {
   3499                                  send_size_pg(buf_rx_ppp[TR_ID],*(unsigned int*)&buf_rx_ppp[TR_SRC]);
   \   000000E0   ........           CALL    ?Subroutine105
   \                     ??CrossCallReturnLabel_179:
   \   000000E4   A105               LDD     R16, Z+37
   \   000000E6   ....               RCALL   send_size_pg
   \   000000E8   CF98               RJMP    ??proc_udp_data_1
   3500                                 }
   3501                                return(0);
   3502                              }
   3503                            
   3504          //                  send_info(sizeof(prov2),prov2,0,0);
   3505                          
   3506                            /*
   3507                            if(((buf_rx_ppp[TR_V]>>4)&0x03)==ZAPR)
   3508                            { 
   3509                              send_otv_ping(buf_rx_ppp[TR_ID],*(unsigned int*)&buf_rx_ppp[TR_SRC]);
   3510                              send_info(sizeof(ans_out_ping),ans_out_ping,1,buf_rx_ppp[TR_ID]);
   3511                              return(0); 
   3512                            }
   3513                            
   3514                            */
   3515          
   3516                             if(*(unsigned int*)&buf_rx_ppp[TR_SRC]!=NUM_SRV_LINK)return(0);
   \                     ??proc_udp_data_4:
   \   000000EA   8D06               LDD     R16, Z+30
   \   000000EC   8D17               LDD     R17, Z+31
   \   000000EE   2B01               OR      R16, R17
   \   000000F0   F009               BREQ    $+2+2
   \   000000F2   CF93               RJMP    ??proc_udp_data_1
   3517          //                  if(buf_rx_ppp[TR_ID]!=ID_CC)return(0);
   3518          
   3519                            if(((buf_rx_ppp[TR_V]>>4)&0x03)!=KVIT)return(0); 
   \   000000F4   A104               LDD     R16, Z+36
   \   000000F6   9502               SWAP    R16
   \   000000F8   7003               ANDI    R16, 0x03
   \   000000FA   3003               CPI     R16, 3
   \   000000FC   F009               BREQ    $+2+2
   \   000000FE   CF8D               RJMP    ??proc_udp_data_1
   3520                             
   3521                            send_info(sizeof(rec_ctrl_ch),rec_ctrl_ch,1,buf_rx_ppp[TR_ID]);
   \   00000100   A145               LDD     R20, Z+37
   \   00000102   E011               LDI     R17, 1
   \   00000104   ....               LDI     R18, LOW((new_version + 19))
   \   00000106   ....               LDI     R19, HIGH((new_version + 19))
   \   00000108   E00B               LDI     R16, 11
   \   0000010A   ....               RCALL   ?Subroutine327
   3522                            
   3523                            if(Control.link_waits==TRUE)
   \                     ??CrossCallReturnLabel_834:
   \   0000010C   ....               RCALL   ?Subroutine303
   \                     ??CrossCallReturnLabel_713:
   \   0000010E   8101               LDD     R16, Z+1
   \   00000110   3001               CPI     R16, 1
   \   00000112   F009               BREQ    $+2+2
   \   00000114   CF82               RJMP    ??proc_udp_data_1
   3524                               {   
   3525                               cnt_no_link=vol_cnt_no_link;//dobavka  
   \   00000116   ........           CALL    ?Subroutine79
   3526                               Control.link_waits=FALSE;
   3527                               Control.cnt_link=Control.vol_link;                   
   3528                               Control.cnt_try=0;
   \                     ??CrossCallReturnLabel_489:
   \   0000011A   ....               RCALL   ?Subroutine305
   3529                               Control.link_no=FALSE;
   \                     ??CrossCallReturnLabel_725:
   \   0000011C   C1F0               RJMP    ??proc_udp_data_5
   3530                               return(1); 
   3531                               }
   3532                            return(0);
   3533                            } 
   3534                          
   3535                           
   3536                        
   3537                        
   3538                        
   3539                          // äŕëüíĺéřčé đŕçáîđ
   3540                           
   3541                           
   3542                           clr_cntr_nat();
   \                     ??proc_udp_data_3:
   \   0000011E   ....               RCALL   ?Subroutine307
   3543                           
   3544                           offset=2+20+8+length_head;
   \                     ??CrossCallReturnLabel_740:
   \   00000120   2D08               MOV     R16, R8
   \   00000122   5E02               SUBI    R16, 226
   \   00000124   8709               STD     Y+9, R16
   \   00000126   013D               MOVW    R7:R6, R27:R26
   \   00000128   0E60               ADD     R6, R16
   \   0000012A   1C79               ADC     R7, R9
   \   0000012C   ....               LDI     R16, LOW(Appl_seq)
   \   0000012E   ....               LDI     R17, (Appl_seq) >> 8
   \   00000130   01F3               MOVW    R31:R30, R7:R6
   \   00000132   8120               LD      R18, Z
   \   00000134   3023               CPI     R18, 3
   \   00000136   F561               BRNE    ??proc_udp_data_6
   3545                        
   3546                          
   3547                          
   3548                          
   3549                          if(buf_rx_ppp[offset+SL_LS_PROT]==PROT_SL_LS)
   3550                            {
   3551                              //đŕçáîđ ęîěŕíä
   3552                              //ďîęŕ îäíŕ ęîěŕíäŕ - íŕëč÷čĺ îňńóňńňâčĺ ęëčĺíňŕ â ňŕáëčöĺ ěŕđřđóňčçŕöčč
   3553                              if(((buf_rx_ppp[TR_V]>>4)&0x03)!=OTV)return(0);
   \   00000138   ........           CALL    ?Subroutine124
   \                     ??CrossCallReturnLabel_417:
   \   0000013C   3021               CPI     R18, 1
   \   0000013E   F009               BREQ    $+2+2
   \   00000140   CF6C               RJMP    ??proc_udp_data_1
   3554                              if(buf_rx_ppp[offset+SL_LS_PROT+1]!=COM_CNTR_CL)return(0);
   \   00000142   E021               LDI     R18, 1
   \   00000144   0E62               ADD     R6, R18
   \   00000146   1C79               ADC     R7, R9
   \   00000148   01F3               MOVW    R31:R30, R7:R6
   \   0000014A   8120               LD      R18, Z
   \   0000014C   3022               CPI     R18, 2
   \   0000014E   F009               BREQ    $+2+2
   \   00000150   CF64               RJMP    ??proc_udp_data_1
   3555                              if(*(unsigned int*)&buf_rx_ppp[offset+SL_LS_PROT+2]!=L_OTV_CNTR_CL)return(0);
   \   00000152   8121               LDD     R18, Z+1
   \   00000154   8132               LDD     R19, Z+2
   \   00000156   3023               CPI     R18, 3
   \   00000158   4030               SBCI    R19, 0
   \   0000015A   F009               BREQ    $+2+2
   \   0000015C   CF5E               RJMP    ??proc_udp_data_1
   3556                              if(*(unsigned int*)&buf_rx_ppp[offset+SL_LS_PROT+4]!=num_seq_cl)return(0);
   \   0000015E   8123               LDD     R18, Z+3
   \   00000160   8134               LDD     R19, Z+4
   \   00000162   ........           CALL    ?Subroutine182
   \                     ??CrossCallReturnLabel_285:
   \   00000166   F009               BREQ    $+2+2
   \   00000168   CF58               RJMP    ??proc_udp_data_1
   3557                              if(buf_rx_ppp[offset+SL_LS_PROT+6]!=0)
   \   0000016A   01F3               MOVW    R31:R30, R7:R6
   \   0000016C   8125               LDD     R18, Z+5
   \   0000016E   2322               TST     R18
   \   00000170   F029               BREQ    ??proc_udp_data_7
   3558                                {// ďđčńóňńňâčĺ â ňŕáëčöĺ
   3559                                 
   3560                                 Appl_seq.en_cntr_cl=FALSE;
   \   00000172   01F8               MOVW    R31:R30, R17:R16
   \   00000174   8A95               STD     Z+21, R9
   3561                                 Appl_seq.cntr_cl=FALSE;
   \   00000176   8A94               STD     Z+20, R9
   3562                                 Appl_seq.cnt_cntr_cl=0;
   \   00000178   8A96               STD     Z+22, R9
   \   0000017A   8A97               STD     Z+23, R9
   3563          
   3564                               // ďđčńóňńňâčĺ â ňŕáëčöĺ
   3565                                 }
   3566                             cnt_no_link=vol_cnt_no_link;//dobavka
   \                     ??proc_udp_data_7:
   \   0000017C   ........           CALL    ?Subroutine79
   3567                             Control.link_waits=FALSE;
   3568                             Control.cnt_link=Control.vol_link;                  
   3569                             Control.link=FALSE;                           
   \                     ??CrossCallReturnLabel_490:
   \   00000180   8292               STD     Z+2, R9
   3570                             Control.cnt_try=0;
   \   00000182   ....               RCALL   ?Subroutine305
   3571                             Control.link_no=FALSE;    
   3572                            
   3573                            send_info(sizeof(ans_in_ctrl_cl),ans_in_ctrl_cl,1,buf_rx_ppp[TR_ID]);
   \                     ??CrossCallReturnLabel_726:
   \   00000184   ....               RCALL   ?Subroutine313
   \                     ??CrossCallReturnLabel_758:
   \   00000186   ....               LDI     R18, LOW((new_version + 37))
   \   00000188   ....               LDI     R19, HIGH((new_version + 37))
   \   0000018A   E00C               LDI     R16, 12
   \                     ??proc_udp_data_8:
   \   0000018C   ....               RCALL   ?Subroutine327
   \                     ??CrossCallReturnLabel_833:
   \   0000018E   C1B7               RJMP    ??proc_udp_data_5
   3574                            return(1);
   3575                            }
   3576                          
   3577                          
   3578                          
   3579                          
   3580                           if(buf_rx_ppp[offset+C1_PROT]!=PROT_C1)return(0);
   \                     ??proc_udp_data_6:
   \   00000190   3021               CPI     R18, 1
   \   00000192   F009               BREQ    $+2+2
   \   00000194   CF42               RJMP    ??proc_udp_data_1
   3581                            
   3582                           
   3583                           
   3584                            
   3585                            
   3586                            switch(buf_rx_ppp[offset+C1_PORT])
   \   00000196   01C3               MOVW    R25:R24, R7:R6
   \   00000198   9601               ADIW    R25:R24, 1
   \   0000019A   812E               LDD     R18, Y+6
   \   0000019C   813F               LDD     R19, Y+7
   \   0000019E   502A               SUBI    R18, 10
   \   000001A0   4030               SBCI    R19, 0
   \   000001A2   8B2E               STD     Y+22, R18
   \   000001A4   8B3F               STD     Y+23, R19
   \   000001A6   ....               LDI     R18, LOW(Obj_ppp_tx)
   \   000001A8   2EA2               MOV     R10, R18
   \   000001AA   ....               LDI     R18, (Obj_ppp_tx) >> 8
   \   000001AC   2EB2               MOV     R11, R18
   \   000001AE   ....               LDI     R18, LOW(buf_tx_232)
   \   000001B0   2EE2               MOV     R14, R18
   \   000001B2   ....               LDI     R18, (buf_tx_232) >> 8
   \   000001B4   2EF2               MOV     R15, R18
   \   000001B6   01FC               MOVW    R31:R30, R25:R24
   \   000001B8   8120               LD      R18, Z
   \   000001BA   952A               DEC     R18
   \   000001BC   F099               BREQ    ??proc_udp_data_9
   \   000001BE   952A               DEC     R18
   \   000001C0   F409               BRNE    $+2+2
   \   000001C2   C05F               RJMP    ??proc_udp_data_10
   \   000001C4   952A               DEC     R18
   \   000001C6   F409               BRNE    $+2+2
   \   000001C8   C09C               RJMP    ??proc_udp_data_11
   \   000001CA   952A               DEC     R18
   \   000001CC   F409               BRNE    $+2+2
   \   000001CE   C0D9               RJMP    ??proc_udp_data_12
   \   000001D0   5022               SUBI    R18, 2
   \   000001D2   F409               BRNE    $+2+2
   \   000001D4   C19C               RJMP    ??proc_udp_data_13
   \   000001D6   952A               DEC     R18
   \   000001D8   F409               BRNE    $+2+2
   \   000001DA   C243               RJMP    ??proc_udp_data_14
   \   000001DC   952A               DEC     R18
   \   000001DE   F409               BRNE    $+2+2
   \   000001E0   C3AB               RJMP    ??proc_udp_data_15
   \   000001E2   CF1B               RJMP    ??proc_udp_data_1
   3587                                {
   3588                                 case PORT485_1:
   3589             
   3590                                      
   3591                                      if(length<11) 
   \                     ??proc_udp_data_9:
   \   000001E4   ....               RCALL   ?Subroutine320
   \                     ??CrossCallReturnLabel_776:
   \   000001E6   F438               BRCC    ??proc_udp_data_16
   3592                                            {
   3593                                              // ěîćíî îňďđŕâčü ńîîáůĺíčĺ îá îřčáęĺ "íĺęîđđĺęňíűĺ äŕííűĺ"
   3594                                             send_info(sizeof(ans_out_485_1),ans_out_485_1,1,buf_rx_ppp[TR_ID]);
   \   000001E8   ....               RCALL   ?Subroutine313
   \                     ??CrossCallReturnLabel_759:
   \   000001EA   ....               LDI     R18, LOW((new_version + 49))
   \   000001EC   ....               LDI     R19, HIGH((new_version + 49))
   \   000001EE   E00A               LDI     R16, 10
   \   000001F0   ........           CALL    ?Subroutine327
   \                     ??CrossCallReturnLabel_832:
   \   000001F4   C4E5               RJMP    ??proc_udp_data_17
   3595                                             send_err485(NUM_RS485_1,RS_DATA_ERR,buf_rx_ppp[TR_ID],*(unsigned int*)&buf_rx_ppp[TR_SRC]);
   3596                                             return(0);
   3597                                            }                 
   3598                            
   3599                                       if(length> LN_BUF_485_1+10) 
   \                     ??proc_udp_data_16:
   \   000001F6   811F               LDD     R17, Y+7
   \   000001F8   3D87               CPI     R24, 215
   \   000001FA   4010               SBCI    R17, 0
   \   000001FC   F030               BRCS    ??proc_udp_data_18
   3600                                           {
   3601                                          // ěîćíî îňďđŕâčü ńîîáůĺíčĺ îá îřčáęĺ "ńëčřęîě äëčííűĺ äŕííűĺ äë˙ ďđčëîćĺíč˙"
   3602                                             send_info(sizeof(ans_out_485_1),ans_out_485_1,1,buf_rx_ppp[TR_ID]);
   \   000001FE   ....               RCALL   ?Subroutine326
   3603                                             send_err485(NUM_RS485_1,RS_OVER_BUF_TX,buf_rx_ppp[TR_ID],*(unsigned int*)&buf_rx_ppp[TR_SRC]);
   \                     ??CrossCallReturnLabel_827:
   \   00000200   E015               LDI     R17, 5
   \                     ??proc_udp_data_19:
   \   00000202   E001               LDI     R16, 1
   \                     ??proc_udp_data_20:
   \   00000204   ........           CALL    send_err485
   \   00000208   CF08               RJMP    ??proc_udp_data_1
   3604                                             return(0);
   3605                                            } 
   3606                                      
   3607                                    
   3608                                      // çäĺńü äîëćíŕ áűňü ďđîâĺđęŕ ęîíňĺęńňŕ, ĺńëč âńĺ íîđěŕëüíî ňî äŕëüřĺ çŕáčň ęîíňĺęńň
   3609                                      // ňî ěîćíî ďîńëŕňü ńëóćĺáíîĺ ńîîáůĺíčĺ
   3610                                     
   3611                                           if (check_cont_485_1 (&buf_rx_ppp[offset+C1_CONT])==1)
   \                     ??proc_udp_data_18:
   \   0000020A   ....               RCALL   ?Subroutine321
   \                     ??CrossCallReturnLabel_785:
   \   0000020C   F421               BRNE    ??proc_udp_data_21
   3612                                           {
   3613                                             send_info(sizeof(ans_out_485_1),ans_out_485_1,1,buf_rx_ppp[TR_ID]);
   \   0000020E   ........           CALL    ?Subroutine326
   3614                                             send_err485(NUM_RS485_1,RS_NO_CONT,buf_rx_ppp[TR_ID],*(unsigned int*)&buf_rx_ppp[TR_SRC]);
   \                     ??CrossCallReturnLabel_828:
   \   00000212   E012               LDI     R17, 2
   \   00000214   CFF6               RJMP    ??proc_udp_data_19
   3615                                             return(0);
   3616                                            } 
   3617                                     
   3618                                     
   3619                                      if(Appl_RS485_1.fl_data_buf==TRUE)
   \                     ??proc_udp_data_21:
   \   00000216   ....               LDI     R24, LOW(Appl_RS485_1)
   \   00000218   ....               LDI     R25, (Appl_RS485_1) >> 8
   \   0000021A   ....               RCALL   ?Subroutine322
   \                     ??CrossCallReturnLabel_779:
   \   0000021C   F421               BRNE    ??proc_udp_data_22
   3620                                         {
   3621                                         // ňî ěîćíî ďîńëŕňü ńëóćĺáíîĺ ńîîáůĺíčĺ ÷ňî áóôĺđ ďĺđĺďîëíĺí
   3622                                         send_info(sizeof(ans_out_485_1),ans_out_485_1,1,buf_rx_ppp[TR_ID]);
   \   0000021E   ........           CALL    ?Subroutine326
   3623                                         send_err485(NUM_RS485_1,RS_BUSY,buf_rx_ppp[TR_ID],*(unsigned int*)&buf_rx_ppp[TR_SRC]);
   \                     ??CrossCallReturnLabel_829:
   \   00000222   E013               LDI     R17, 3
   \   00000224   CFEE               RJMP    ??proc_udp_data_19
   3624                                         break;
   3625                                         }
   3626                                         
   3627                                          
   3628                                         if(Regim==RG_DEBAG)
   \                     ??proc_udp_data_22:
   \   00000226   ....               RCALL   ?Subroutine319
   \                     ??CrossCallReturnLabel_773:
   \   00000228   F421               BRNE    ??proc_udp_data_23
   3629                                         {// âęëţ÷ĺí ňĺńňîâűé đĺćčě!!!
   3630                                           send_info(sizeof(ans_out_485_1),ans_out_485_1,1,buf_rx_ppp[TR_ID]);
   \   0000022A   ........           CALL    ?Subroutine326
   3631                                           send_err485(NUM_RS485_1,RS_TEST,buf_rx_ppp[TR_ID],*(unsigned int*)&buf_rx_ppp[TR_SRC]);
   \                     ??CrossCallReturnLabel_830:
   \   0000022E   E018               LDI     R17, 8
   \   00000230   CFE8               RJMP    ??proc_udp_data_19
   3632                                           return(0);
   3633                                         }
   3634                                      
   3635                                      
   3636                                          Appl_RS485_1.pre_tx=0;
   \                     ??proc_udp_data_23:
   \   00000232   ....               RCALL   ?Subroutine323
   3637                                          if(length_head>MIN_TR_HEAD)
   \                     ??CrossCallReturnLabel_807:
   \   00000234   F098               BRCS    ??CrossCallReturnLabel_814
   3638                                            {
   3639                                              i=proc_option(buf_rx_ppp,TR_OP_DATA,length_head-MIN_TR_HEAD,PORT485_1);
   \   00000236   E061               LDI     R22, 1
   \   00000238   ....               RCALL   ?Subroutine324
   3640                                              
   3641                                              
   3642                                              if(i==3)//âđĺě˙ ćčçíč čńňĺęëî
   \                     ??CrossCallReturnLabel_811:
   \   0000023A   F431               BRNE    ??proc_udp_data_24
   3643                                              {  
   3644                                                send_no_sinc(buf_rx_ppp[TR_ID],*(unsigned int*)&buf_rx_ppp[TR_SRC],OUT_LIFE);
   \                     ??proc_udp_data_25:
   \   0000023C   E015               LDI     R17, 5
   \                     ??proc_udp_data_26:
   \   0000023E   ........           CALL    ?Subroutine105
   \                     ??CrossCallReturnLabel_180:
   \   00000242   A105               LDD     R16, Z+37
   \   00000244   ....               RCALL   send_no_sinc
   \   00000246   CEE9               RJMP    ??proc_udp_data_1
   3645                                                return(0);
   3646                                              }
   3647                                              
   3648                                              if(i==4) //îďĺđŕöč˙ íĺäîńňóďíŕ
   \                     ??proc_udp_data_24:
   \   00000248   E004               LDI     R16, 4
   \   0000024A   16C0               CP      R12, R16
   \   0000024C   F411               BRNE    ??proc_udp_data_27
   3649                                                {
   3650                                                send_no_sinc(buf_rx_ppp[TR_ID],*(unsigned int*)&buf_rx_ppp[TR_SRC],DES_OPERATE);
   \                     ??proc_udp_data_28:
   \   0000024E   E016               LDI     R17, 6
   \   00000250   CFF6               RJMP    ??proc_udp_data_26
   3651                                                return(0);
   3652                                                }
   3653                                              
   3654                                               if (i!=1)return(0);                                                                 
   \                     ??proc_udp_data_27:
   \   00000252   E001               LDI     R16, 1
   \   00000254   16C0               CP      R12, R16
   \   00000256   F009               BREQ    $+2+2
   \   00000258   CEE0               RJMP    ??proc_udp_data_1
   3655                                              Appl_RS485_1.pre_tx=delay_pre_tx;//çŕäĺđćęŕ ďĺđĺä ďĺđĺäŕ÷ĺé
   \   0000025A   ....               RCALL   ?Subroutine325
   3656                                            } 
   3657                                      
   3658                                         
   3659                                         
   3660                                         if(fl_485_1.busy==1)Appl_RS485_1.fl_data_buf=TRUE;
   \                     ??CrossCallReturnLabel_814:
   \   0000025C   ....               LDI     R30, LOW(fl_485_1)
   \   0000025E   ....               LDI     R31, (fl_485_1) >> 8
   \   00000260   8100               LD      R16, Z
   \   00000262   FF00               SBRS    R16, 0
   \   00000264   C003               RJMP    ??proc_udp_data_29
   \   00000266   E001               LDI     R16, 1
   \   00000268   01FC               MOVW    R31:R30, R25:R24
   \   0000026A   C001               RJMP    ??proc_udp_data_30
   3661                                         else fl_485_1.tx=1;
   \                     ??proc_udp_data_29:
   \   0000026C   6008               ORI     R16, 0x08
   \                     ??proc_udp_data_30:
   \   0000026E   ....               RCALL   ?Subroutine316
   3662                                         Appl_RS485_1.dst_buf=*(unsigned int*)&buf_rx_ppp[TR_SRC];
   3663                                         Appl_RS485_1.id_buf=buf_rx_ppp[TR_ID];
   3664                                         
   3665                                         for(i=0;i<8;i++)Appl_RS485_1.cont_buf[i]=buf_rx_ppp[offset+C1_CONT+i];
   3666                                         
   3667                                         Appl_RS485_1.ln_data_buf=length-10;
   3668                                         for(i=0;i<Appl_RS485_1.ln_data_buf;i++)Appl_RS485_1_data_buf[i]=buf_rx_ppp[offset+C1_DATA_RS+i];
   \                     ??CrossCallReturnLabel_770:
   \   00000270   ....               RCALL   ?Subroutine314
   \                     ??CrossCallReturnLabel_764:
   \   00000272   F008               BRCS    $+2+2
   \   00000274   CED2               RJMP    ??proc_udp_data_1
   \   00000276   ....               RCALL   ?Subroutine315
   \                     ??CrossCallReturnLabel_767:
   \   00000278   ....               SUBI    R30, LOW((-(Appl_RS485_1_data_buf) & 0xFFFF))
   \   0000027A   ....               SBCI    R31, (-(Appl_RS485_1_data_buf) & 0xFFFF) >> 8
   \   0000027C   8300               ST      Z, R16
   \   0000027E   94C3               INC     R12
   \   00000280   CFF7               RJMP    ??CrossCallReturnLabel_770
   3669                                   
   3670                                      
   3671                                      break;
   3672                                 case PORT485_2:
   3673                                   
   3674             
   3675                                          if(length<11) 
   \                     ??proc_udp_data_10:
   \   00000282   ....               RCALL   ?Subroutine320
   \                     ??CrossCallReturnLabel_777:
   \   00000284   F420               BRCC    ??proc_udp_data_31
   3676                                            {
   3677                                              // ěîćíî îňďđŕâčü ńîîáůĺíčĺ îá îřčáęĺ "íĺęîđđĺęňíűĺ äŕííűĺ"
   3678                                             send_info(sizeof(ans_out_485_2),ans_out_485_2,1,buf_rx_ppp[TR_ID]);
   \   00000286   ....               RCALL   ?Subroutine317
   3679                                             send_err485(NUM_RS485_2,RS_DATA_ERR,buf_rx_ppp[TR_ID],*(unsigned int*)&buf_rx_ppp[TR_SRC]);
   \                     ??CrossCallReturnLabel_822:
   \   00000288   E016               LDI     R17, 6
   \                     ??proc_udp_data_32:
   \   0000028A   E002               LDI     R16, 2
   \   0000028C   CFBB               RJMP    ??proc_udp_data_20
   3680                                             return(0);
   3681                                            }                 
   3682                            
   3683                                       if(length> LN_BUF_485_2+10) 
   \                     ??proc_udp_data_31:
   \   0000028E   811F               LDD     R17, Y+7
   \   00000290   3D87               CPI     R24, 215
   \   00000292   4010               SBCI    R17, 0
   \   00000294   F018               BRCS    ??proc_udp_data_33
   3684                                           {
   3685                                          // ěîćíî îňďđŕâčü ńîîáůĺíčĺ îá îřčáęĺ "ńëčřęîě äëčííűĺ äŕííűĺ äë˙ ďđčëîćĺíč˙"
   3686                                             send_info(sizeof(ans_out_485_2),ans_out_485_2,1,buf_rx_ppp[TR_ID]);
   \   00000296   ....               RCALL   ?Subroutine317
   3687                                             send_err485(NUM_RS485_2,RS_OVER_BUF_TX,buf_rx_ppp[TR_ID],*(unsigned int*)&buf_rx_ppp[TR_SRC]);
   \                     ??CrossCallReturnLabel_823:
   \   00000298   E015               LDI     R17, 5
   \   0000029A   CFF7               RJMP    ??proc_udp_data_32
   3688                                             return(0);
   3689                                            } 
   3690                                      
   3691                                      
   3692                                      // çäĺńü äîëćíŕ áűňü ďđîâĺđęŕ ęîíňĺęńňŕ, ĺńëč âńĺ íîđěŕëüíî ňî äŕëüřĺ çŕáčň ęîíňĺęńň
   3693                                      // ňî ěîćíî ďîńëŕňü ńëóćĺáíîĺ ńîîáůĺíčĺ
   3694                                       if (check_cont_485_1 (&buf_rx_ppp[offset+C1_CONT])==1)
   \                     ??proc_udp_data_33:
   \   0000029C   ....               RCALL   ?Subroutine321
   \                     ??CrossCallReturnLabel_786:
   \   0000029E   F419               BRNE    ??proc_udp_data_34
   3695                                           {
   3696                                             send_info(sizeof(ans_out_485_2),ans_out_485_2,1,buf_rx_ppp[TR_ID]);
   \   000002A0   ....               RCALL   ?Subroutine317
   3697                                             send_err485(NUM_RS485_2,RS_NO_CONT,buf_rx_ppp[TR_ID],*(unsigned int*)&buf_rx_ppp[TR_SRC]);
   \                     ??CrossCallReturnLabel_824:
   \   000002A2   E012               LDI     R17, 2
   \   000002A4   CFF2               RJMP    ??proc_udp_data_32
   3698                                             return(0);
   3699                                            } 
   3700                                      
   3701                                      
   3702                                      if(Appl_RS485_2.fl_data_buf==TRUE)
   \                     ??proc_udp_data_34:
   \   000002A6   ....               LDI     R24, LOW(Appl_RS485_2)
   \   000002A8   ....               LDI     R25, (Appl_RS485_2) >> 8
   \   000002AA   ....               RCALL   ?Subroutine322
   \                     ??CrossCallReturnLabel_780:
   \   000002AC   F419               BRNE    ??proc_udp_data_35
   3703                                         {
   3704                                         // ňî ěîćíî ďîńëŕňü ńëóćĺáíîĺ ńîîáůĺíčĺ ÷ňî áóôĺđ ďĺđĺďîëíĺí
   3705                                         send_info(sizeof(ans_out_485_2),ans_out_485_2,1,buf_rx_ppp[TR_ID]);
   \   000002AE   ....               RCALL   ?Subroutine317
   3706                                         send_err485(NUM_RS485_2,RS_BUSY,buf_rx_ppp[TR_ID],*(unsigned int*)&buf_rx_ppp[TR_SRC]);
   \                     ??CrossCallReturnLabel_825:
   \   000002B0   E013               LDI     R17, 3
   \   000002B2   CFEB               RJMP    ??proc_udp_data_32
   3707                                         break;
   3708                                         }
   3709                                         
   3710                                         if(Regim==RG_DEBAG)
   \                     ??proc_udp_data_35:
   \   000002B4   ....               RCALL   ?Subroutine319
   \                     ??CrossCallReturnLabel_774:
   \   000002B6   F419               BRNE    ??proc_udp_data_36
   3711                                         {// âęëţ÷ĺí ňĺńňîâűé đĺćčě!!!
   3712                                            send_info(sizeof(ans_out_485_2),ans_out_485_2,1,buf_rx_ppp[TR_ID]);
   \   000002B8   ....               RCALL   ?Subroutine317
   3713                                           send_err485(NUM_RS485_2,RS_TEST,buf_rx_ppp[TR_ID],*(unsigned int*)&buf_rx_ppp[TR_SRC]);
   \                     ??CrossCallReturnLabel_826:
   \   000002BA   E018               LDI     R17, 8
   \   000002BC   CFE6               RJMP    ??proc_udp_data_32
   3714                                           return(0);
   3715                                         }
   3716                                         
   3717                                         Appl_RS485_2.pre_tx=0;
   \                     ??proc_udp_data_36:
   \   000002BE   ....               RCALL   ?Subroutine323
   3718                                          if(length_head>MIN_TR_HEAD)
   \                     ??CrossCallReturnLabel_808:
   \   000002C0   F068               BRCS    ??CrossCallReturnLabel_815
   3719                                            {
   3720                                              i=proc_option(buf_rx_ppp,TR_OP_DATA,length_head-MIN_TR_HEAD,PORT485_2);
   \   000002C2   E062               LDI     R22, 2
   \   000002C4   ....               RCALL   ?Subroutine324
   3721                                              
   3722                                              
   3723                                              if(i==3)//âđĺě˙ ćčçíč čńňĺęëî
   \                     ??CrossCallReturnLabel_812:
   \   000002C6   F409               BRNE    $+2+2
   \   000002C8   CFB9               RJMP    ??proc_udp_data_25
   3724                                              {  
   3725                                                send_no_sinc(buf_rx_ppp[TR_ID],*(unsigned int*)&buf_rx_ppp[TR_SRC],OUT_LIFE);
   3726                                                return(0);
   3727                                              }
   3728                                              
   3729                                              if(i==4) //îďĺđŕöč˙ íĺäîńňóďíŕ
   \   000002CA   E004               LDI     R16, 4
   \   000002CC   16C0               CP      R12, R16
   \   000002CE   F409               BRNE    $+2+2
   \   000002D0   CFBE               RJMP    ??proc_udp_data_28
   3730                                                {
   3731                                                send_no_sinc(buf_rx_ppp[TR_ID],*(unsigned int*)&buf_rx_ppp[TR_SRC],DES_OPERATE);
   3732                                                return(0);
   3733                                                }
   3734                                              
   3735                                              if (i!=1)return(0);                                                                     
   \   000002D2   E001               LDI     R16, 1
   \   000002D4   16C0               CP      R12, R16
   \   000002D6   F009               BREQ    $+2+2
   \   000002D8   CEA0               RJMP    ??proc_udp_data_1
   3736                                              Appl_RS485_2.pre_tx=delay_pre_tx;//çŕäĺđćęŕ ďĺđĺä ďĺđĺäŕ÷ĺé
   \   000002DA   ....               RCALL   ?Subroutine325
   3737                                            } 
   3738                                         
   3739                                         
   3740                                         if(fl_485_2.busy==1)Appl_RS485_2.fl_data_buf=TRUE;
   \                     ??CrossCallReturnLabel_815:
   \   000002DC   ....               LDI     R30, LOW(fl_485_2)
   \   000002DE   ....               LDI     R31, (fl_485_2) >> 8
   \   000002E0   8100               LD      R16, Z
   \   000002E2   FF00               SBRS    R16, 0
   \   000002E4   C003               RJMP    ??proc_udp_data_37
   \   000002E6   E001               LDI     R16, 1
   \   000002E8   01FC               MOVW    R31:R30, R25:R24
   \   000002EA   C001               RJMP    ??proc_udp_data_38
   3741                                         else fl_485_2.tx=1;
   \                     ??proc_udp_data_37:
   \   000002EC   6008               ORI     R16, 0x08
   \                     ??proc_udp_data_38:
   \   000002EE   ....               RCALL   ?Subroutine316
   3742                                         Appl_RS485_2.dst_buf=*(unsigned int*)&buf_rx_ppp[TR_SRC];
   3743                                         Appl_RS485_2.id_buf=buf_rx_ppp[TR_ID];
   3744                                         for(i=0;i<8;i++)Appl_RS485_2.cont_buf[i]=buf_rx_ppp[offset+C1_CONT+i];
   3745                                         Appl_RS485_2.ln_data_buf=length-10;
   3746                                         for(i=0;i<Appl_RS485_2.ln_data_buf;i++)Appl_RS485_2_data_buf[i]=buf_rx_ppp[offset+C1_DATA_RS+i];
   \                     ??CrossCallReturnLabel_771:
   \   000002F0   ....               RCALL   ?Subroutine314
   \                     ??CrossCallReturnLabel_765:
   \   000002F2   F008               BRCS    $+2+2
   \   000002F4   CE92               RJMP    ??proc_udp_data_1
   \   000002F6   ....               RCALL   ?Subroutine315
   \                     ??CrossCallReturnLabel_768:
   \   000002F8   ....               SUBI    R30, LOW((-(Appl_RS485_2_data_buf) & 0xFFFF))
   \   000002FA   ....               SBCI    R31, (-(Appl_RS485_2_data_buf) & 0xFFFF) >> 8
   \   000002FC   8300               ST      Z, R16
   \   000002FE   94C3               INC     R12
   \   00000300   CFF7               RJMP    ??CrossCallReturnLabel_771
   3747                                         
   3748                                         
   3749                                      break;
   3750                                 
   3751                                      
   3752                               case PORT232_2:
   3753                                   
   3754             
   3755                                          if(length<11) 
   \                     ??proc_udp_data_11:
   \   00000302   ....               RCALL   ?Subroutine320
   \                     ??CrossCallReturnLabel_778:
   \   00000304   F420               BRCC    ??proc_udp_data_39
   3756                                            {
   3757                                              // ěîćíî îňďđŕâčü ńîîáůĺíčĺ îá îřčáęĺ "íĺęîđđĺęňíűĺ äŕííűĺ"
   3758                                              send_info(sizeof(ans_out_232),ans_out_232,1,buf_rx_ppp[TR_ID]);
   \   00000306   ....               RCALL   ?Subroutine318
   3759                                              send_err485(NUM_RS232_2,RS_DATA_ERR,buf_rx_ppp[TR_ID],*(unsigned int*)&buf_rx_ppp[TR_SRC]);
   \                     ??CrossCallReturnLabel_817:
   \   00000308   E016               LDI     R17, 6
   \                     ??proc_udp_data_40:
   \   0000030A   E003               LDI     R16, 3
   \   0000030C   CF7B               RJMP    ??proc_udp_data_20
   3760                                             return(0);
   3761                                            }                 
   3762                            
   3763                                       if(length> LN_BUF_232_2+10) 
   \                     ??proc_udp_data_39:
   \   0000030E   811F               LDD     R17, Y+7
   \   00000310   3D83               CPI     R24, 211
   \   00000312   4010               SBCI    R17, 0
   \   00000314   F018               BRCS    ??proc_udp_data_41
   3764                                           {
   3765                                          // ěîćíî îňďđŕâčü ńîîáůĺíčĺ îá îřčáęĺ "ńëčřęîě äëčííűĺ äŕííűĺ äë˙ ďđčëîćĺíč˙"
   3766                                             send_info(sizeof(ans_out_232),ans_out_232,1,buf_rx_ppp[TR_ID]);
   \   00000316   ....               RCALL   ?Subroutine318
   3767                                             send_err485(NUM_RS232_2,RS_OVER_BUF_TX,buf_rx_ppp[TR_ID],*(unsigned int*)&buf_rx_ppp[TR_SRC]);
   \                     ??CrossCallReturnLabel_818:
   \   00000318   E015               LDI     R17, 5
   \   0000031A   CFF7               RJMP    ??proc_udp_data_40
   3768                                             return(0);
   3769                                            } 
   3770                                      
   3771                                      
   3772                                      // çäĺńü äîëćíŕ áűňü ďđîâĺđęŕ ęîíňĺęńňŕ, ĺńëč âńĺ íîđěŕëüíî ňî äŕëüřĺ çŕáčň ęîíňĺęńň
   3773                                      // ňî ěîćíî ďîńëŕňü ńëóćĺáíîĺ ńîîáůĺíčĺ
   3774                                       if (check_cont_485_1 (&buf_rx_ppp[offset+C1_CONT])==1)
   \                     ??proc_udp_data_41:
   \   0000031C   ....               RCALL   ?Subroutine321
   \                     ??CrossCallReturnLabel_787:
   \   0000031E   F419               BRNE    ??proc_udp_data_42
   3775                                           {
   3776                                             send_info(sizeof(ans_out_232),ans_out_232,1,buf_rx_ppp[TR_ID]);
   \   00000320   ....               RCALL   ?Subroutine318
   3777                                             send_err485(NUM_RS232_2,RS_NO_CONT,buf_rx_ppp[TR_ID],*(unsigned int*)&buf_rx_ppp[TR_SRC]);
   \                     ??CrossCallReturnLabel_819:
   \   00000322   E012               LDI     R17, 2
   \   00000324   CFF2               RJMP    ??proc_udp_data_40
   3778                                             return(0);
   3779                                            } 
   3780                                      
   3781                                      
   3782                                      if(Appl_RS232_2.fl_data_buf==TRUE)
   \                     ??proc_udp_data_42:
   \   00000326   ....               LDI     R24, LOW(Appl_RS232_2)
   \   00000328   ....               LDI     R25, (Appl_RS232_2) >> 8
   \   0000032A   ....               RCALL   ?Subroutine322
   \                     ??CrossCallReturnLabel_781:
   \   0000032C   F419               BRNE    ??proc_udp_data_43
   3783                                         {
   3784                                         // ňî ěîćíî ďîńëŕňü ńëóćĺáíîĺ ńîîáůĺíčĺ ÷ňî áóôĺđ ďĺđĺďîëíĺí
   3785                                         send_info(sizeof(ans_out_232),ans_out_232,1,buf_rx_ppp[TR_ID]);
   \   0000032E   ....               RCALL   ?Subroutine318
   3786                                           send_err485(NUM_RS232_2,RS_BUSY,buf_rx_ppp[TR_ID],*(unsigned int*)&buf_rx_ppp[TR_SRC]);
   \                     ??CrossCallReturnLabel_820:
   \   00000330   E013               LDI     R17, 3
   \   00000332   CFEB               RJMP    ??proc_udp_data_40
   3787                                         break;
   3788                                         }
   3789                                         
   3790                                         if(Regim==RG_DEBAG)
   \                     ??proc_udp_data_43:
   \   00000334   ....               RCALL   ?Subroutine319
   \                     ??CrossCallReturnLabel_775:
   \   00000336   F419               BRNE    ??proc_udp_data_44
   3791                                         {// âęëţ÷ĺí ňĺńňîâűé đĺćčě!!!
   3792                                          send_info(sizeof(ans_out_232),ans_out_232,1,buf_rx_ppp[TR_ID]);
   \   00000338   ....               RCALL   ?Subroutine318
   3793                                           send_err485(NUM_RS232_2,RS_TEST,buf_rx_ppp[TR_ID],*(unsigned int*)&buf_rx_ppp[TR_SRC]);
   \                     ??CrossCallReturnLabel_821:
   \   0000033A   E018               LDI     R17, 8
   \   0000033C   CFE6               RJMP    ??proc_udp_data_40
   3794                                           return(0);
   3795                                         }
   3796                                         
   3797                                         
   3798                                         Appl_RS232_2.pre_tx=0;
   \                     ??proc_udp_data_44:
   \   0000033E   ....               RCALL   ?Subroutine323
   3799                                          if(length_head>MIN_TR_HEAD)
   \                     ??CrossCallReturnLabel_809:
   \   00000340   F068               BRCS    ??CrossCallReturnLabel_816
   3800                                            {
   3801                                              i=proc_option(buf_rx_ppp,TR_OP_DATA,length_head-MIN_TR_HEAD,PORT232_2);
   \   00000342   E063               LDI     R22, 3
   \   00000344   ....               RCALL   ?Subroutine324
   3802                                              
   3803                                              
   3804                                              if(i==3)//âđĺě˙ ćčçíč čńňĺęëî
   \                     ??CrossCallReturnLabel_813:
   \   00000346   F409               BRNE    $+2+2
   \   00000348   CF79               RJMP    ??proc_udp_data_25
   3805                                              {  
   3806                                                send_no_sinc(buf_rx_ppp[TR_ID],*(unsigned int*)&buf_rx_ppp[TR_SRC],OUT_LIFE);
   3807                                                return(0);
   3808                                              }
   3809                                              
   3810                                              if(i==4) //îďĺđŕöč˙ íĺäîńňóďíŕ
   \   0000034A   E004               LDI     R16, 4
   \   0000034C   16C0               CP      R12, R16
   \   0000034E   F409               BRNE    $+2+2
   \   00000350   CF7E               RJMP    ??proc_udp_data_28
   3811                                                {
   3812                                                send_no_sinc(buf_rx_ppp[TR_ID],*(unsigned int*)&buf_rx_ppp[TR_SRC],DES_OPERATE);
   3813                                                return(0);
   3814                                                }
   3815                                              
   3816                                              if (i!=1)return(0);                                                                       
   \   00000352   E001               LDI     R16, 1
   \   00000354   16C0               CP      R12, R16
   \   00000356   F009               BREQ    $+2+2
   \   00000358   CE60               RJMP    ??proc_udp_data_1
   3817                                              Appl_RS232_2.pre_tx=delay_pre_tx;//çŕäĺđćęŕ ďĺđĺä ďĺđĺäŕ÷ĺé
   \   0000035A   ....               RCALL   ?Subroutine325
   3818                                            } 
   3819                                         
   3820                                         
   3821                                         if(fl_232_2.busy==1)Appl_RS232_2.fl_data_buf=TRUE;
   \                     ??CrossCallReturnLabel_816:
   \   0000035C   ....               LDI     R30, LOW(fl_232_2)
   \   0000035E   ....               LDI     R31, (fl_232_2) >> 8
   \   00000360   8100               LD      R16, Z
   \   00000362   FF00               SBRS    R16, 0
   \   00000364   C003               RJMP    ??proc_udp_data_45
   \   00000366   E001               LDI     R16, 1
   \   00000368   01FC               MOVW    R31:R30, R25:R24
   \   0000036A   C001               RJMP    ??proc_udp_data_46
   3822                                         else fl_232_2.tx=1;
   \                     ??proc_udp_data_45:
   \   0000036C   6008               ORI     R16, 0x08
   \                     ??proc_udp_data_46:
   \   0000036E   ....               RCALL   ?Subroutine316
   3823                                         Appl_RS232_2.dst_buf=*(unsigned int*)&buf_rx_ppp[TR_SRC];
   3824                                         Appl_RS232_2.id_buf=buf_rx_ppp[TR_ID];
   3825                                         for(i=0;i<8;i++)Appl_RS232_2.cont_buf[i]=buf_rx_ppp[offset+C1_CONT+i];
   3826                                         Appl_RS232_2.ln_data_buf=length-10;
   3827                                         for(i=0;i<Appl_RS232_2.ln_data_buf;i++)Appl_RS232_2_data_buf[i]=buf_rx_ppp[offset+C1_DATA_RS+i];
   \                     ??CrossCallReturnLabel_772:
   \   00000370   ....               RCALL   ?Subroutine314
   \                     ??CrossCallReturnLabel_766:
   \   00000372   F008               BRCS    $+2+2
   \   00000374   CE52               RJMP    ??proc_udp_data_1
   \   00000376   ....               RCALL   ?Subroutine315
   \                     ??CrossCallReturnLabel_769:
   \   00000378   ....               SUBI    R30, LOW((-(Appl_RS232_2_data_buf) & 0xFFFF))
   \   0000037A   ....               SBCI    R31, (-(Appl_RS232_2_data_buf) & 0xFFFF) >> 8
   \   0000037C   8300               ST      Z, R16
   \   0000037E   94C3               INC     R12
   \   00000380   CFF7               RJMP    ??CrossCallReturnLabel_772
   3828                                         
   3829                                         
   3830                                      break;
   3831                                      
   3832                                      
   3833                                      
   3834          
   3835                                 case PORT_SEQ:
   3836                                      if(length<5)return(0);
   \                     ??proc_udp_data_12:
   \   00000382   ........           CALL    ?Subroutine217
   \                     ??CrossCallReturnLabel_523:
   \   00000386   F408               BRCC    $+2+2
   \   00000388   CE48               RJMP    ??proc_udp_data_1
   3837                                     // if(*(unsigned int*)&buf_rx_ppp[TR_SRC]!=num_seq_cl)return(0);
   3838                                         
   3839                                      if(((buf_rx_ppp[TR_V]>>4)&0x03)==KVIT)
   \   0000038A   ........           CALL    ?Subroutine124
   \                     ??CrossCallReturnLabel_418:
   \   0000038E   3023               CPI     R18, 3
   \   00000390   F009               BREQ    $+2+2
   \   00000392   C053               RJMP    ??proc_udp_data_47
   3840                                          {
   3841                                          if(*(unsigned int*)&buf_rx_ppp[TR_SRC]!=num_seq_cl)return(0);   
   \   00000394   ........           CALL    ??Subroutine105_0
   \                     ??CrossCallReturnLabel_181:
   \   00000398   ........           CALL    ?Subroutine182
   \                     ??CrossCallReturnLabel_286:
   \   0000039C   F009               BREQ    $+2+2
   \   0000039E   CE3D               RJMP    ??proc_udp_data_1
   3842                                          if(buf_rx_ppp[offset+C1_DATA]!=KVITOK_SEQ)return(0);
   \   000003A0   01FC               MOVW    R31:R30, R25:R24
   \   000003A2   8121               LDD     R18, Z+1
   \   000003A4   3021               CPI     R18, 1
   \   000003A6   F009               BREQ    $+2+2
   \   000003A8   CE38               RJMP    ??proc_udp_data_1
   3843                                          if(length!=5)return(0);
   \   000003AA   ........           CALL    ?Subroutine217
   \                     ??CrossCallReturnLabel_524:
   \   000003AE   F009               BREQ    $+2+2
   \   000003B0   CE34               RJMP    ??proc_udp_data_1
   3844                                          if(*(unsigned int*)&buf_rx_ppp[offset+C1_DATA+1]!=L_KVITOK)return(0);
   \   000003B2   8122               LDD     R18, Z+2
   \   000003B4   8133               LDD     R19, Z+3
   \   000003B6   2B23               OR      R18, R19
   \   000003B8   F009               BREQ    $+2+2
   \   000003BA   CE2F               RJMP    ??proc_udp_data_1
   3845                                         
   3846                                                  if(fl_appl_seq.kv_waits==1)
   \   000003BC   9120....           LDS     R18, fl_appl_seq
   \   000003C0   FF21               SBRS    R18, 1
   \   000003C2   CE2B               RJMP    ??proc_udp_data_1
   3847                                                    {   
   3848                                                     if(Appl_seq.id!=buf_rx_ppp[TR_ID])return(0);// ďđîâĺđęŕ čäĺíňčôčęŕňîđŕ
   \   000003C4   01F8               MOVW    R31:R30, R17:R16
   \   000003C6   8120               LD      R18, Z
   \   000003C8   01FD               MOVW    R31:R30, R27:R26
   \   000003CA   A135               LDD     R19, Z+37
   \   000003CC   1723               CP      R18, R19
   \   000003CE   F009               BREQ    $+2+2
   \   000003D0   CE24               RJMP    ??proc_udp_data_1
   3849                                           
   3850                                                       Appl_seq.cnt_waits=0;
   \   000003D2   01F8               MOVW    R31:R30, R17:R16
   \   000003D4   8691               STD     Z+9, R9
   \   000003D6   8692               STD     Z+10, R9
   3851                                                       fl_appl_seq.kv_waits=0;
   \   000003D8   ....               LDI     R30, LOW(fl_appl_seq)
   \   000003DA   ....               LDI     R31, (fl_appl_seq) >> 8
   \   000003DC   8120               LD      R18, Z
   \   000003DE   7F2D               ANDI    R18, 0xFD
   \   000003E0   8320               ST      Z, R18
   3852                                           
   3853                                                       cnt_no_link=vol_cnt_no_link;//dobavka
   \   000003E2   ....               LDI     R30, LOW(vol_cnt_no_link)
   \   000003E4   ....               LDI     R31, (vol_cnt_no_link) >> 8
   \   000003E6   8140               LD      R20, Z
   \   000003E8   8151               LDD     R21, Z+1
   \   000003EA   8162               LDD     R22, Z+2
   \   000003EC   8173               LDD     R23, Z+3
   \   000003EE   ....               LDI     R30, LOW(cnt_no_link)
   \   000003F0   ....               LDI     R31, (cnt_no_link) >> 8
   \   000003F2   8340               ST      Z, R20
   \   000003F4   8351               STD     Z+1, R21
   \   000003F6   8362               STD     Z+2, R22
   \   000003F8   8373               STD     Z+3, R23
   3854                                                       Control.link_waits=FALSE;
   \   000003FA   ....               RCALL   ?Subroutine303
   \                     ??CrossCallReturnLabel_714:
   \   000003FC   8291               STD     Z+1, R9
   3855                                                       Control.cnt_link=Control.vol_link;                   
   \   000003FE   8520               LDD     R18, Z+8
   \   00000400   8531               LDD     R19, Z+9
   \   00000402   8324               STD     Z+4, R18
   \   00000404   8335               STD     Z+5, R19
   3856                                                       Control.cnt_try=0;
   \   00000406   ....               RCALL   ?Subroutine305
   3857                                                       Control.link_no=FALSE;
   3858                                           
   3859                                                       fl_appl_seq.en_povtor=0;
   \                     ??CrossCallReturnLabel_727:
   \   00000408   ....               LDI     R30, LOW(fl_appl_seq)
   \   0000040A   ....               LDI     R31, (fl_appl_seq) >> 8
   \   0000040C   8120               LD      R18, Z
   \   0000040E   7F2B               ANDI    R18, 0xFB
   \   00000410   8320               ST      Z, R18
   3860                                                       // ĘÂČŇČĐÎÂŔÍČĹ
   3861                                                          Appl_seq.p_out=Appl_seq.p_out_kv;
   \   00000412   01F8               MOVW    R31:R30, R17:R16
   \   00000414   8125               LDD     R18, Z+5
   \   00000416   8136               LDD     R19, Z+6
   \   00000418   8323               STD     Z+3, R18
   \   0000041A   8334               STD     Z+4, R19
   3862                                                          Appl_seq.l_data=0;
   \   0000041C   8694               STD     Z+12, R9
   \   0000041E   8695               STD     Z+13, R9
   3863                                                          if(fl_appl_seq1.over_buf==1)
   \   00000420   ....               LDI     R30, LOW(fl_appl_seq1)
   \   00000422   ....               LDI     R31, (fl_appl_seq1) >> 8
   \   00000424   8100               LD      R16, Z
   \   00000426   FF00               SBRS    R16, 0
   \   00000428   C003               RJMP    ??proc_udp_data_48
   3864                                                              {
   3865                                                               fl_appl_seq1.over_buf=0;
   3866                                                               fl_appl_seq1.send_state=1;
   \   0000042A   7F0E               ANDI    R16, 0xFE
   \   0000042C   6002               ORI     R16, 0x02
   \   0000042E   8300               ST      Z, R16
   3867                                                               }
   3868                                                              send_info(sizeof(rec_evc),rec_evc,1,buf_rx_ppp[TR_ID]);
   \                     ??proc_udp_data_48:
   \   00000430   ....               RCALL   ?Subroutine313
   \                     ??CrossCallReturnLabel_760:
   \   00000432   ....               LDI     R18, LOW((new_version + 30))
   \   00000434   ....               LDI     R19, HIGH((new_version + 30))
   \   00000436   E007               LDI     R16, 7
   \   00000438   CEA9               RJMP    ??proc_udp_data_8
   3869                                                            return(1); 
   3870                                                     }  else return(0);                    
   3871                                            
   3872                                          }
   3873                                      
   3874                                      
   3875                                      if(((buf_rx_ppp[TR_V]>>4)&0x03)==ZAPR)
   \                     ??proc_udp_data_47:
   \   0000043A   A104               LDD     R16, Z+36
   \   0000043C   9502               SWAP    R16
   \   0000043E   7003               ANDI    R16, 0x03
   \   00000440   F009               BREQ    $+2+2
   \   00000442   CDEB               RJMP    ??proc_udp_data_1
   3876                                         {
   3877                                         if(buf_rx_ppp[offset+C1_DATA]!=ZAPR_TC)return(0);
   \   00000444   ....               RCALL   ?Subroutine306
   \                     ??CrossCallReturnLabel_729:
   \   00000446   3006               CPI     R16, 6
   \   00000448   F009               BREQ    $+2+2
   \   0000044A   CDE7               RJMP    ??proc_udp_data_1
   3878                                         if(length!=5)return(0);
   \   0000044C   ........           CALL    ?Subroutine218
   \                     ??CrossCallReturnLabel_487:
   \   00000450   F009               BREQ    $+2+2
   \   00000452   CDE3               RJMP    ??proc_udp_data_1
   3879                                         if(*(unsigned int*)&buf_rx_ppp[offset+C1_DATA+1]!=L_ZAPR_TC)return(0);
   \   00000454   8102               LDD     R16, Z+2
   \   00000456   8113               LDD     R17, Z+3
   \   00000458   2B01               OR      R16, R17
   \   0000045A   F009               BREQ    $+2+2
   \   0000045C   CDDE               RJMP    ??proc_udp_data_1
   3880                                          
   3881                                         if(fl_ip.act_ip_end!=1)return(0);
   \   0000045E   ....               RCALL   ?Subroutine54
   \                     ??CrossCallReturnLabel_84:
   \   00000460   FF00               SBRS    R16, 0
   \   00000462   CDDB               RJMP    ??proc_udp_data_1
   3882                                         fl_ip.act_ip_end=0; 
   \   00000464   ....               RCALL   ?Subroutine309
   3883                                         clr_cntr_nat();
   3884                                         clr_cntr_link();
   3885                                         Obj_ppp_tx.prozr=FALSE;            
   3886                                         Obj_ppp_tx.version=VER2;      //âĺđńč˙ 
   3887                                         Obj_ppp_tx.type_pac=OTV;     //ňčď ďŕęĺňŕ
   3888                                         Obj_ppp_tx.num_src=num_self; // íîěĺđ îňďđŕâčňĺë˙
   3889                                         Obj_ppp_tx.num_dst=*(unsigned int*)&buf_rx_ppp[TR_SRC]; // íîěĺđ ďîëó÷ŕňĺë˙
   3890                                         Obj_ppp_tx.id_pac=buf_rx_ppp[TR_ID]; // čäĺíňčôčęŕňîđ ďŕęĺňŕ  
   3891                                         Obj_ppp_tx.p_opt=&buf_opt_tr[0]; // //óęŕçŕňĺëü áóôĺđŕ îďöčé          
   3892                                         Obj_ppp_tx.l_opt=0;// äëčíŕ áóôĺđŕ îďöčé   
   3893                                         buf_tx_232[TR_OP_DATA+C1_PROT]=PROT_C1;
   \                     ??CrossCallReturnLabel_750:
   \   00000466   ........           CALL    ?Subroutine163
   3894                                         buf_tx_232[TR_OP_DATA+C1_PORT]=PORT_SEQ;
   \                     ??CrossCallReturnLabel_266:
   \   0000046A   E004               LDI     R16, 4
   \   0000046C   A703               STD     Z+43, R16
   3895                                         buf_tx_232[TR_OP_DATA+C1_DATA]=SEQ_STATE;
   \   0000046E   E006               LDI     R16, 6
   \   00000470   A704               STD     Z+44, R16
   3896                                          *(unsigned int*)&buf_tx_232[TR_OP_DATA+C1_DATA+1]=L_STATE;
   \   00000472   E007               LDI     R16, 7
   \   00000474   A705               STD     Z+45, R16
   \   00000476   A696               STD     Z+46, R9
   3897                                          *(unsigned long int*)&buf_tx_232[TR_OP_DATA+C1_DATA+3]=burst_ds_r();
   \   00000478   ........           CALL    burst_ds_r
   \   0000047C   ....               RCALL   ?Subroutine297
   \                     ??CrossCallReturnLabel_681:
   \   0000047E   A707               STD     Z+47, R16
   \   00000480   AB10               STD     Z+48, R17
   \   00000482   AB21               STD     Z+49, R18
   \   00000484   AB32               STD     Z+50, R19
   3898                                        
   3899                                          
   3900                                          
   3901                                         if(struct_tcc1.type==TC_SHL) buf_tx_232[TR_OP_DATA+C1_DATA+8]=state_seq;
   \   00000486   ....               LDI     R16, LOW(struct_tcc1)
   \   00000488   ....               LDI     R17, (struct_tcc1) >> 8
   \   0000048A   01F8               MOVW    R31:R30, R17:R16
   \   0000048C   8124               LDD     R18, Z+4
   \   0000048E   3022               CPI     R18, 2
   \   00000490   F429               BRNE    ??proc_udp_data_49
   \   00000492   9120....           LDS     R18, state_seq
   \   00000496   ....               RCALL   ?Subroutine297
   \                     ??CrossCallReturnLabel_682:
   \   00000498   AB24               STD     Z+52, R18
   \   0000049A   C003               RJMP    ??proc_udp_data_50
   3902                                             else buf_tx_232[TR_OP_DATA+C1_DATA+7]=DES_SEQ;
   \                     ??proc_udp_data_49:
   \   0000049C   EF2F               LDI     R18, 255
   \   0000049E   ....               RCALL   ?Subroutine297
   \                     ??CrossCallReturnLabel_683:
   \   000004A0   AB23               STD     Z+51, R18
   3903                                         
   3904                                         if(Appl_seq_des!=0) buf_tx_232[TR_OP_DATA+C1_DATA+7]=DES_SEQ;
   \                     ??proc_udp_data_50:
   \   000004A2   9120....           LDS     R18, Appl_seq_des
   \   000004A6   2322               TST     R18
   \   000004A8   F011               BREQ    ??proc_udp_data_51
   \   000004AA   EF2F               LDI     R18, 255
   \   000004AC   AB23               STD     Z+51, R18
   3905                                          
   3906                                         if((struct_tcc1.type==TC_SHL)||(struct_tcc1.type==TC_SUHOI))buf_tx_232[TR_OP_DATA+C1_DATA+8]=sv1.tc & 0x01;
   \                     ??proc_udp_data_51:
   \   000004AE   01F8               MOVW    R31:R30, R17:R16
   \   000004B0   8104               LDD     R16, Z+4
   \   000004B2   3002               CPI     R16, 2
   \   000004B4   F011               BREQ    ??proc_udp_data_52
   \   000004B6   3001               CPI     R16, 1
   \   000004B8   F429               BRNE    ??proc_udp_data_53
   \                     ??proc_udp_data_52:
   \   000004BA   9100....           LDS     R16, sv1
   \   000004BE   7001               ANDI    R16, 0x01
   \   000004C0   ....               RCALL   ?Subroutine297
   \                     ??CrossCallReturnLabel_684:
   \   000004C2   C003               RJMP    ??proc_udp_data_54
   3907                                         else {buf_tx_232[TR_OP_DATA+C1_DATA+7]=DES_SEQ; buf_tx_232[TR_OP_DATA+C1_DATA+8]=DES_SEQ;}
   \                     ??proc_udp_data_53:
   \   000004C4   EF0F               LDI     R16, 255
   \   000004C6   ....               RCALL   ?Subroutine297
   \                     ??CrossCallReturnLabel_685:
   \   000004C8   AB03               STD     Z+51, R16
   \                     ??proc_udp_data_54:
   \   000004CA   AB04               STD     Z+52, R16
   \   000004CC   9100....           LDS     R16, (struct_tcc2 + 4)
   \   000004D0   3002               CPI     R16, 2
   \   000004D2   F011               BREQ    ??proc_udp_data_55
   \   000004D4   3001               CPI     R16, 1
   \   000004D6   F421               BRNE    ??proc_udp_data_56
   3908                                         
   3909                                         if((struct_tcc2.type==TC_SHL)||(struct_tcc2.type==TC_SUHOI))buf_tx_232[TR_OP_DATA+C1_DATA+9]=sv2.tc & 0x01;
   \                     ??proc_udp_data_55:
   \   000004D8   9100....           LDS     R16, sv2
   \   000004DC   7001               ANDI    R16, 0x01
   \   000004DE   C001               RJMP    ??proc_udp_data_57
   3910                                           else buf_tx_232[TR_OP_DATA+C1_DATA+9]=DES_SEQ;
   \                     ??proc_udp_data_56:
   \   000004E0   EF0F               LDI     R16, 255
   \                     ??proc_udp_data_57:
   \   000004E2   AB05               STD     Z+53, R16
   3911                                         
   3912                                      /*
   3913                                                
   3914                                         if(Appl_seq_des==0)
   3915                                          {
   3916                                        //   buf_tx_232[TR_OP_DATA+C1_DATA+7]=state_seq;         !!!!!!!!!!!!!!!!!!!!
   3917                                        //   buf_tx_232[TR_OP_DATA+C1_DATA+8]=sv_tc.bytes[0] & 0x01;!!!!!!!!!!!!!!!!!!!
   3918                                           buf_tx_232[TR_OP_DATA+C1_DATA+9]=byte_state_net & 0x01;
   3919                                           }
   3920                                           else buf_tx_232[TR_OP_DATA+C1_DATA+7]=DES_SEQ;
   3921                                         
   3922                                         */
   3923                                          
   3924                                          Obj_ppp_tx.l_data=5+L_STATE;   // äëčíŕ äŕííűő
   \   000004E4   E00C               LDI     R16, 12
   \   000004E6   ........           CALL    ?Subroutine202
   3925                                          Obj_ppp_tx.p_data=&buf_tx_232[TR_OP_DATA+C1_PROT];  //óęŕçŕňĺëü áóôĺđŕ äŕííűő
   \                     ??CrossCallReturnLabel_316:
   \   000004EA   ....               LDI     R16, LOW((buf_tx_232 + 42))
   \   000004EC   ....               LDI     R17, HIGH((buf_tx_232 + 42))
   \   000004EE   ....               RCALL   ?Subroutine310
   3926                                       
   3927                                         send_info(sizeof(ans_out_st_contr),ans_out_st_contr,1,buf_rx_ppp[TR_ID]);
   \                     ??CrossCallReturnLabel_761:
   \   000004F0   ....               LDI     R18, LOW((new_version + 77))
   \   000004F2   ....               LDI     R19, HIGH((new_version + 77))
   \   000004F4   E00D               LDI     R16, 13
   \   000004F6   ........           CALL    ?Subroutine283
   3928                                        
   3929                                         form_buf_tx_ppp();                            
   3930                                         UCSR0A=UCSR0A | TXC;                            
   \                     ??CrossCallReturnLabel_594:
   \   000004FA   ....               RCALL   ?Subroutine298
   3931                                         UCSR0B=UCSR0B | TXEN;
   3932                                         UCSR0B=UCSR0B | TXCIE;
   3933                                         if(check_cts()==1) return(1);                
   \                     ??CrossCallReturnLabel_799:
   \   000004FC   F411               BRNE    ??proc_udp_data_58
   \                     ??proc_udp_data_5:
   \   000004FE   E001               LDI     R16, 1
   \   00000500   CD8D               RJMP    ??proc_udp_data_2
   3934                                         S2_RD
   \                     ??proc_udp_data_58:
   \   00000502   ....               RCALL   ?Subroutine311
   3935                                         UDR0=buf_tx_232[0]; 
   3936                                         if(Regim==RG_DEBAG) UDR3=buf_tx_232[0];
   \                     ??CrossCallReturnLabel_782:
   \   00000504   F7E1               BRNE    ??proc_udp_data_5
   \                     ??proc_udp_data_59:
   \   00000506   8100               LD      R16, Z
   \   00000508   ........           CALL    ??Subroutine91_0
   \                     ??CrossCallReturnLabel_146:
   \   0000050C   CFF8               RJMP    ??proc_udp_data_5
   3937                                         return(1);
   3938                                         } 
   3939                                      
   3940                                     /* 
   3941                                      if(fl_appl_seq.kv_waits==1)
   3942                                          {  
   3943                                           if(((buf_rx_ppp[TR_V]>>4)&0x03)!=KVIT)return(0);  
   3944                                           if(Appl_seq.id!=buf_rx_ppp[TR_ID])return(0);// ďđîâĺđęŕ čäĺíňčôčęŕňîđŕ
   3945                                          
   3946          
   3947                                           Appl_seq.cnt_waits=0;
   3948                                           fl_appl_seq.kv_waits=0;
   3949                                           
   3950                                           cnt_no_link=vol_cnt_no_link;//dobavka
   3951                                           Control.link_waits=FALSE;
   3952                                           Control.cnt_link=Control.vol_link;                   
   3953                                           Control.cnt_try=0;
   3954                                           Control.link_no=FALSE;
   3955                                           
   3956                                           fl_appl_seq.en_povtor=0;
   3957                                           // ĘÂČŇČĐÎÂŔÍČĹ
   3958                                           Appl_seq.p_out=Appl_seq.p_out_kv;
   3959                                           Appl_seq.l_data=0;
   3960                                           if(fl_appl_seq1.over_buf==1)
   3961                                              {
   3962                                              fl_appl_seq1.over_buf=0;
   3963                                              fl_appl_seq1.send_state=1;
   3964                                              }
   3965                                           send_info(sizeof(rec_evc),rec_evc,1,buf_rx_ppp[TR_ID]);
   3966                                           return(1); 
   3967                                           }
   3968                                        */   
   3969                                           
   3970                                      break;     
   3971                                 case PORT_SYS:
   3972                                      break;
   3973                                  case PORT_CONF:
   3974                                      if(length<5)return(0);               
   \                     ??proc_udp_data_13:
   \   0000050E   ........           CALL    ?Subroutine218
   \                     ??CrossCallReturnLabel_488:
   \   00000512   F408               BRCC    $+2+2
   \   00000514   CD82               RJMP    ??proc_udp_data_1
   3975                                      if(((buf_rx_ppp[TR_V]>>4)&0x03)!=ZAPR)return(0);
   \   00000516   ....               RCALL   ?Subroutine312
   \                     ??CrossCallReturnLabel_753:
   \   00000518   F009               BREQ    $+2+2
   \   0000051A   CD7F               RJMP    ??proc_udp_data_1
   3976                                      
   3977                                      if (check_ln_conf(&buf_rx_ppp[0],offset,count_rx_ppp)==1)return(0);
   \   0000051C   ........           CALL    ?Subroutine222
   \                     ??CrossCallReturnLabel_339:
   \   00000520   ........           CALL    check_ln_conf
   \   00000524   3001               CPI     R16, 1
   \   00000526   F409               BRNE    $+2+2
   \   00000528   CD78               RJMP    ??proc_udp_data_1
   3978                                      
   3979          
   3980                                      
   3981                                      if((buf_rx_ppp[offset+C1_DATA] & 0x7f)==CONF_LOG)
   \   0000052A   ....               RCALL   ?Subroutine306
   \                     ??CrossCallReturnLabel_730:
   \   0000052C   770F               ANDI    R16, 0x7F
   \   0000052E   3100               CPI     R16, 16
   \   00000530   F569               BRNE    ??proc_udp_data_60
   3982                                      {
   3983                                           if(length>5)return(0);
   \   00000532   ........           CALL    ?Subroutine219
   \                     ??CrossCallReturnLabel_332:
   \   00000536   3006               CPI     R16, 6
   \   00000538   4010               SBCI    R17, 0
   \   0000053A   F008               BRCS    $+2+2
   \   0000053C   CD6E               RJMP    ??proc_udp_data_1
   3984                                           if(*(unsigned int*)&buf_rx_ppp[offset+C1_DATA+1]!=L_CONF_LOG)return(0);
   \   0000053E   8102               LDD     R16, Z+2
   \   00000540   8113               LDD     R17, Z+3
   \   00000542   2B01               OR      R16, R17
   \   00000544   F009               BREQ    $+2+2
   \   00000546   CD69               RJMP    ??proc_udp_data_1
   3985                                           if((buf_rx_ppp[offset+C1_DATA] & 0x80)==0x80)
   \   00000548   01F3               MOVW    R31:R30, R7:R6
   \   0000054A   8102               LDD     R16, Z+2
   \   0000054C   FF07               SBRS    R16, 7
   \   0000054E   C00B               RJMP    ??proc_udp_data_61
   3986                                              {
   3987                                              //ńňčđŕíčĺ ëîă ôŕéëŕ          
   3988                                              __watchdog_reset();
   \   00000550   95A8               WDR
   3989                                               WrArrayToFlesh(BEG_BUF_LOG,0,(L_LOG*6),0x01,0x00);
   \   00000552   ........           CALL    ?Subroutine21
   3990                                              __watchdog_reset();
   \                     ??CrossCallReturnLabel_574:
   \   00000556   95A8               WDR
   3991                                              point_log_buf=0;
   \   00000558   9290....           STS     point_log_buf, R9
   3992                                              *(unsigned int*)&buf_tx_232[TR_OP_DATA+C1_DATA+1]=L_CONF_LOG+1;
   \   0000055C   E001               LDI     R16, 1
   \   0000055E   ........           CALL    ?Subroutine220
   3993                                               Obj_ppp_tx.l_data=5+L_CONF_LOG+1;
   \                     ??CrossCallReturnLabel_337:
   \   00000562   E006               LDI     R16, 6
   \   00000564   C00B               RJMP    ??proc_udp_data_62
   3994                                            //  ii=0;
   3995                                              }
   3996                                              else
   3997                                              {
   3998                                              //÷ňĺíčĺ 
   3999                                              RdFromFleshToArr(BEG_BUF_LOG,&buf_tx_232[TR_OP_DATA+C1_DATA+4],(L_LOG*6));
   \                     ??proc_udp_data_61:
   \   00000566   EF40               LDI     R20, 240
   \   00000568   E050               LDI     R21, 0
   \   0000056A   ....               LDI     R18, LOW((buf_tx_232 + 48))
   \   0000056C   ....               LDI     R19, HIGH((buf_tx_232 + 48))
   \   0000056E   EF04               LDI     R16, 244
   \   00000570   E011               LDI     R17, 1
   \   00000572   ....               RCALL   ?Subroutine301
   4000                                              *(unsigned int*)&buf_tx_232[TR_OP_DATA+C1_DATA+1]=L_CONF_LOG+(L_LOG*6)+1;
   \                     ??CrossCallReturnLabel_840:
   \   00000574   EF01               LDI     R16, 241
   \   00000576   ........           CALL    ?Subroutine220
   4001                                               Obj_ppp_tx.l_data=5+L_CONF_LOG+(L_LOG*6)+1;
   \                     ??CrossCallReturnLabel_338:
   \   0000057A   EF06               LDI     R16, 246
   \                     ??proc_udp_data_62:
   \   0000057C   01F5               MOVW    R31:R30, R11:R10
   \   0000057E   8706               STD     Z+14, R16
   \   00000580   8697               STD     Z+15, R9
   4002                                             // ii=;
   4003                                              }
   4004                                          
   4005                                             buf_tx_232[TR_OP_DATA+C1_DATA]=buf_rx_ppp[offset+C1_DATA];
   \   00000582   ....               RCALL   ?Subroutine306
   \                     ??CrossCallReturnLabel_731:
   \   00000584   ....               RCALL   ?Subroutine297
   \                     ??CrossCallReturnLabel_686:
   \   00000586   A704               STD     Z+44, R16
   4006                                             buf_tx_232[TR_OP_DATA+C1_DATA+3]=0x00; //OK
   \   00000588   A697               STD     Z+47, R9
   4007                                             goto otv_conf;                              
   \   0000058A   C00A               RJMP    ??CrossCallReturnLabel_399
   4008                                        
   4009                                      }
   4010                                      
   4011                                       
   4012                                       
   4013                                     Obj_ppp_tx.l_data=proc_config(&buf_rx_ppp[0],offset,count_rx_ppp);
   \                     ??proc_udp_data_60:
   \   0000058C   ........           CALL    ?Subroutine222
   \                     ??CrossCallReturnLabel_340:
   \   00000590   ........           CALL    proc_config
   \   00000594   01F5               MOVW    R31:R30, R11:R10
   \   00000596   ........           CALL    ??Subroutine252_0
   4014                                     Obj_ppp_tx.l_data=Obj_ppp_tx.l_data+2;     
   \                     ??CrossCallReturnLabel_398:
   \   0000059A   ....               RCALL   ?Subroutine171
   \                     ??CrossCallReturnLabel_517:
   \   0000059C   ........           CALL    ??Subroutine252_0
   4015                                    
   4016            
   4017            
   4018            otv_conf:                        
   4019                                     clr_cntr_nat();                                  
   \                     ??CrossCallReturnLabel_399:
   \   000005A0   ....               RCALL   ?Subroutine307
   4020                                     if(fl_ip.act_ip_end!=1)return(0);
   \                     ??CrossCallReturnLabel_739:
   \   000005A2   ....               RCALL   ?Subroutine54
   \                     ??CrossCallReturnLabel_85:
   \   000005A4   FF00               SBRS    R16, 0
   \   000005A6   CD39               RJMP    ??proc_udp_data_1
   4021                                     fl_ip.act_ip_end=0;      
   \   000005A8   7F0E               ANDI    R16, 0xFE
   \   000005AA   8305               STD     Z+5, R16
   4022                                     clr_cntr_link();
   \   000005AC   ........           CALL    ?Subroutine81
   4023                                            Obj_ppp_tx.prozr=FALSE;            
   4024                                            Obj_ppp_tx.version=VER2;      //âĺđńč˙ 
   4025                                            Obj_ppp_tx.type_pac=OTV;     //ňčď ďŕęĺňŕ
   4026                                            Obj_ppp_tx.num_src=num_self; // íîěĺđ îňďđŕâčňĺë˙
   \                     ??CrossCallReturnLabel_746:
   \   000005B0   ....               RCALL   ?Subroutine299
   \                     ??CrossCallReturnLabel_692:
   \   000005B2   ........           CALL    ?Subroutine68
   4027                                            Obj_ppp_tx.num_dst=*(unsigned int*)&buf_rx_ppp[TR_SRC]; // íîěĺđ ďîëó÷ŕňĺë˙
   \                     ??CrossCallReturnLabel_108:
   \   000005B6   ....               RCALL   ?Subroutine299
   \                     ??CrossCallReturnLabel_693:
   \   000005B8   ........           CALL    ?Subroutine173
   4028                                            Obj_ppp_tx.id_pac=buf_rx_ppp[TR_ID]; // čäĺíňčôčęŕňîđ ďŕęĺňŕ  
   \                     ??CrossCallReturnLabel_276:
   \   000005BC   ....               RCALL   ?Subroutine299
   \                     ??CrossCallReturnLabel_694:
   \   000005BE   ........           CALL    ?Subroutine127
   4029                                            Obj_ppp_tx.p_opt=&buf_opt_tr[0]; // //óęŕçŕňĺëü áóôĺđŕ îďöčé  
   4030                                            Obj_ppp_tx.l_opt=0;// äëčíŕ áóôĺđŕ îďöčé   
   4031                                            Obj_ppp_tx.kol_opt=0;// ęîëč÷ĺńňâî îďöčé   
   4032               
   4033                                            buf_tx_232[TR_OP_DATA+C1_PROT]=PROT_C1;
   \                     ??CrossCallReturnLabel_555:
   \   000005C2   ....               RCALL   ?Subroutine297
   \                     ??CrossCallReturnLabel_687:
   \   000005C4   A702               STD     Z+42, R16
   4034                                            buf_tx_232[TR_OP_DATA+C1_PORT]=PORT_CONF;
   \   000005C6   E006               LDI     R16, 6
   \   000005C8   A703               STD     Z+43, R16
   4035           
   4036                                          
   4037                                           Obj_ppp_tx.p_data=&buf_tx_232[TR_OP_DATA+C1_PROT];  //óęŕçŕňĺëü áóôĺđŕ äŕííűő
   \   000005CA   ....               LDI     R16, LOW((buf_tx_232 + 42))
   \   000005CC   ....               LDI     R17, HIGH((buf_tx_232 + 42))
   \   000005CE   ....               RCALL   ?Subroutine299
   \                     ??CrossCallReturnLabel_695:
   \   000005D0   ....               RCALL   ?Subroutine310
   4038                  
   4039                                           
   4040                                          send_info(sizeof(ans_out_config),ans_out_config,1,buf_rx_ppp[TR_ID]); 
   \                     ??CrossCallReturnLabel_762:
   \   000005D2   ....               LDI     R18, LOW((new_version + 90))
   \   000005D4   ....               LDI     R19, HIGH((new_version + 90))
   \   000005D6   E00B               LDI     R16, 11
   \   000005D8   ........           CALL    ?Subroutine283
   4041                                          form_buf_tx_ppp();   
   4042                                          
   4043                                          if((fl_rewrite.ip==1)||(fl_rewrite.udp==1)||(fl_rewrite.num_self==1))
   \                     ??CrossCallReturnLabel_593:
   \   000005DC   ....               RCALL   ?Subroutine300
   \                     ??CrossCallReturnLabel_701:
   \   000005DE   7007               ANDI    R16, 0x07
   \   000005E0   F1C9               BREQ    ??CrossCallReturnLabel_728
   4044                                             {
   4045                                              RdFromFleshToArr(A_IP_PAR,&buf_rx_ppp[0],L_IP_PAR);
   \   000005E2   E04A               LDI     R20, 10
   \   000005E4   E050               LDI     R21, 0
   \   000005E6   019D               MOVW    R19:R18, R27:R26
   \   000005E8   E80C               LDI     R16, 140
   \   000005EA   E010               LDI     R17, 0
   \   000005EC   ....               RCALL   ?Subroutine301
   4046                                              if(fl_rewrite.num_self==1)num_self=*(unsigned int*)&buf_rx_ppp[OFS_NUM];
   \                     ??CrossCallReturnLabel_839:
   \   000005EE   ....               RCALL   ?Subroutine300
   \                     ??CrossCallReturnLabel_702:
   \   000005F0   FF02               SBRS    R16, 2
   \   000005F2   C007               RJMP    ??CrossCallReturnLabel_654
   \   000005F4   01FD               MOVW    R31:R30, R27:R26
   \   000005F6   8106               LDD     R16, Z+6
   \   000005F8   8117               LDD     R17, Z+7
   \   000005FA   ....               LDI     R30, LOW(num_self)
   \   000005FC   ....               LDI     R31, (num_self) >> 8
   \   000005FE   ........           CALL    ??Subroutine80_0
   4047                                              if(fl_rewrite.udp==1)port_udp=*(unsigned int*)&buf_rx_ppp[OFS_PORT];
   \                     ??CrossCallReturnLabel_654:
   \   00000602   ....               RCALL   ?Subroutine300
   \                     ??CrossCallReturnLabel_703:
   \   00000604   FF01               SBRS    R16, 1
   \   00000606   C006               RJMP    ??CrossCallReturnLabel_638
   \   00000608   01FD               MOVW    R31:R30, R27:R26
   \   0000060A   8104               LDD     R16, Z+4
   \   0000060C   8115               LDD     R17, Z+5
   \   0000060E   ....               LDI     R30, LOW(port_udp)
   \   00000610   ....               LDI     R31, (port_udp) >> 8
   \   00000612   ....               RCALL   ?Subroutine292
   4048                                              if(fl_rewrite.ip==1)
   \                     ??CrossCallReturnLabel_638:
   \   00000614   ....               RCALL   ?Subroutine300
   \                     ??CrossCallReturnLabel_704:
   \   00000616   FF00               SBRS    R16, 0
   \   00000618   C00F               RJMP    ??proc_udp_data_63
   4049                                                    {
   4050                                                    ip_ls[0]=buf_rx_ppp[OFS_IP];
   \   0000061A   ....               LDI     R16, LOW(ip_ls)
   \   0000061C   ....               LDI     R17, (ip_ls) >> 8
   \   0000061E   912C               LD      R18, X
   \   00000620   01F8               MOVW    R31:R30, R17:R16
   \   00000622   8320               ST      Z, R18
   4051                                                    ip_ls[1]=buf_rx_ppp[OFS_IP+1];
   \   00000624   01FD               MOVW    R31:R30, R27:R26
   \   00000626   8121               LDD     R18, Z+1
   \   00000628   01F8               MOVW    R31:R30, R17:R16
   \   0000062A   8321               STD     Z+1, R18
   4052                                                    ip_ls[2]=buf_rx_ppp[OFS_IP+2];
   \   0000062C   ....               RCALL   ?Subroutine304
   \                     ??CrossCallReturnLabel_719:
   \   0000062E   8322               STD     Z+2, R18
   4053                                                    ip_ls[3]=buf_rx_ppp[OFS_IP+3];
   \   00000630   01FD               MOVW    R31:R30, R27:R26
   \   00000632   8123               LDD     R18, Z+3
   \   00000634   01F8               MOVW    R31:R30, R17:R16
   \   00000636   8323               STD     Z+3, R18
   4054                                                    }
   4055                                             fl_rewrite.ip=0;
   4056                                             fl_rewrite.udp=0;
   4057                                             fl_rewrite.num_self=0;
   \                     ??proc_udp_data_63:
   \   00000638   ....               RCALL   ?Subroutine300
   \                     ??CrossCallReturnLabel_705:
   \   0000063A   7F08               ANDI    R16, 0xF8
   \   0000063C   A304               STD     Z+36, R16
   4058                                             prov_ozu=crc_ozu();
   \   0000063E   ........           CALL    crc_ozu
   \   00000642   ....               LDI     R30, LOW(prov_ozu)
   \   00000644   ....               LDI     R31, (prov_ozu) >> 8
   \   00000646   ....               RCALL   ?Subroutine292
   4059                                             
   4060                                             Control.cnt_link=3;
   \                     ??CrossCallReturnLabel_639:
   \   00000648   E003               LDI     R16, 3
   \   0000064A   ....               RCALL   ?Subroutine303
   \                     ??CrossCallReturnLabel_715:
   \   0000064C   8304               STD     Z+4, R16
   \   0000064E   8295               STD     Z+5, R9
   4061                                             Control.link_waits=FALSE;
   \   00000650   8291               STD     Z+1, R9
   4062                                             Control.cnt_try=0;
   \   00000652   ....               RCALL   ?Subroutine305
   4063                                             Control.link_no=FALSE;
   4064                                             }
   4065                                         
   4066                                                                   
   4067                                          UCSR0A=UCSR0A | TXC;                            
   \                     ??CrossCallReturnLabel_728:
   \   00000654   ....               RCALL   ?Subroutine298
   4068                                          UCSR0B=UCSR0B | TXEN;
   4069                                          UCSR0B=UCSR0B | TXCIE;
   4070                                          if(check_cts()==1) return(1);   
   \                     ??CrossCallReturnLabel_800:
   \   00000656   F409               BRNE    $+2+2
   \   00000658   CF52               RJMP    ??proc_udp_data_5
   4071                                          S2_RD             
   \   0000065A   ....               RCALL   ?Subroutine311
   4072                                          UDR0=buf_tx_232[0];
   4073                                          if(Regim==RG_DEBAG) UDR3=buf_tx_232[0];
   \                     ??CrossCallReturnLabel_783:
   \   0000065C   F009               BREQ    $+2+2
   \   0000065E   CF4F               RJMP    ??proc_udp_data_5
   \   00000660   CF52               RJMP    ??proc_udp_data_59
   4074           
   4075                                       return(1);  
   4076                                       
   4077                                           
   4078                                     // break;
   4079                                 
   4080                                 
   4081                                 
   4082                                 
   4083                                 
   4084                                 case PORT_PROG:
   4085                                      
   4086                                      if(((buf_rx_ppp[TR_V]>>4)&0x03)!=ZAPR)return(0);
   \                     ??proc_udp_data_14:
   \   00000662   ....               RCALL   ?Subroutine312
   \                     ??CrossCallReturnLabel_754:
   \   00000664   F009               BREQ    $+2+2
   \   00000666   CCD9               RJMP    ??proc_udp_data_1
   4087                                      
   4088                                      if(length_head==MIN_TR_HEAD)return(0);     
   \   00000668   E00C               LDI     R16, 12
   \   0000066A   1680               CP      R8, R16
   \   0000066C   F409               BRNE    $+2+2
   \   0000066E   CCD5               RJMP    ??proc_udp_data_1
   4089                                      if (proc_option(buf_rx_ppp,TR_OP_DATA,length_head-MIN_TR_HEAD,PORT_PROG)!=1)return(0); 
   \   00000670   E067               LDI     R22, 7
   \   00000672   ........           CALL    ?Subroutine172
   \                     ??CrossCallReturnLabel_274:
   \   00000676   3001               CPI     R16, 1
   \   00000678   F009               BREQ    $+2+2
   \   0000067A   CCCF               RJMP    ??proc_udp_data_1
   4090                                       
   4091                                      if(length!=5+L_COM_CODE_MEM_Z)return(0);        
   \   0000067C   ........           CALL    ?Subroutine219
   \                     ??CrossCallReturnLabel_333:
   \   00000680   3005               CPI     R16, 5
   \   00000682   4011               SBCI    R17, 1
   \   00000684   F009               BREQ    $+2+2
   \   00000686   CCC9               RJMP    ??proc_udp_data_1
   4092                                      if((buf_rx_ppp[offset+C1_PORT+1])!=COM_CODE_MEM)return(0);
   \   00000688   ....               RCALL   ?Subroutine306
   \                     ??CrossCallReturnLabel_732:
   \   0000068A   3001               CPI     R16, 1
   \   0000068C   F009               BREQ    $+2+2
   \   0000068E   CCC5               RJMP    ??proc_udp_data_1
   4093                                      if((*(unsigned int*)&buf_rx_ppp[offset+C1_PORT+2])!=L_COM_CODE_MEM_Z)return(0);
   \   00000690   8102               LDD     R16, Z+2
   \   00000692   8113               LDD     R17, Z+3
   \   00000694   3000               CPI     R16, 0
   \   00000696   4011               SBCI    R17, 1
   \   00000698   F009               BREQ    $+2+2
   \   0000069A   CCBF               RJMP    ??proc_udp_data_1
   4094                                      
   4095                                      
   4096                                      
   4097                 //                     send_info(sizeof(gluk),gluk,1,20);
   4098                                      
   4099                                      if(proc_paging()==1)
   \   0000069C   ....               RCALL   proc_paging
   \   0000069E   3001               CPI     R16, 1
   \   000006A0   F411               BRNE    ??proc_udp_data_64
   4100                                         {
   4101             //                            send_info(sizeof(gluk),gluk,1,21);
   4102          // ďđîřčâęŕ íĺ ńîîňâĺňńňâóĺň óńňđîéńňâó !!  25 12 2021
   4103           device_bad:                                 
   4104                                         send_no_sinc(buf_rx_ppp[TR_ID],*(unsigned int*)&buf_rx_ppp[TR_SRC],NO_SINC_PG);
   \                     ??proc_udp_data_65:
   \   000006A2   E012               LDI     R17, 2
   \   000006A4   CDCC               RJMP    ??proc_udp_data_26
   4105                                         return(0);
   4106                                         }
   4107                                      
   4108                                      
   4109                                      
   4110                                     // if(cnt_pg>251)    //(îň 0 äî 251) //ěîćíî ăđóçčňü íĺ áîëĺĺ 252 ńňđ 
   4111                                      if(cnt_pg >= 505)    //(îň 0 äî 251) //ěîćíî ăđóçčňü íĺ áîëĺĺ 252 ńňđ 
   \                     ??proc_udp_data_64:
   \   000006A6   01F5               MOVW    R31:R30, R11:R10
   \   000006A8   ....               RCALL   ?Subroutine302
   \                     ??CrossCallReturnLabel_709:
   \   000006AA   3F09               CPI     R16, 249
   \   000006AC   E021               LDI     R18, 1
   \   000006AE   0712               CPC     R17, R18
   \   000006B0   F038               BRCS    ??proc_udp_data_66
   4112                                        {
   4113           //                             send_info(sizeof(gluk),gluk,1,22);
   4114                                        cnt_pg=0;
   \   000006B2   A290               STD     Z+32, R9
   \   000006B4   A291               STD     Z+33, R9
   4115                                        fl_pg_out.send_crc=0;
   4116                                        fl_pg_out.hold_pg=0;    
   4117                                        fl_pg_out.ch_crc=0; 
   4118                                        fl_pg_out.end_pg=0;
   4119                                        fl_pg_out.cor_pg=0;
   \   000006B6   A107               LDD     R16, Z+39
   \   000006B8   7904               ANDI    R16, 0x94
   \   000006BA   A307               STD     Z+39, R16
   4120                                        send_no_sinc(buf_rx_ppp[TR_ID],*(unsigned int*)&buf_rx_ppp[TR_SRC],OVER_PG);
   \   000006BC   E013               LDI     R17, 3
   \   000006BE   CDBF               RJMP    ??proc_udp_data_26
   4121                                        return(0);
   4122                                        }
   4123                                    
   4124             //                           send_info(sizeof(gluk),gluk,1,23);
   4125                                        reboot_byte=0; 
   \                     ??proc_udp_data_66:
   \   000006C0   A296               STD     Z+38, R9
   4126                                        
   4127                                        if(fl_pg_out.cor_pg==1)
   \   000006C2   A127               LDD     R18, Z+39
   \   000006C4   FF23               SBRS    R18, 3
   \   000006C6   C091               RJMP    ??proc_udp_data_67
   4128                                           {
   4129                                           fl_pg_out.cor_pg=0;
   \   000006C8   7F27               ANDI    R18, 0xF7
   \   000006CA   A327               STD     Z+39, R18
   4130                                             // ďđîâĺđęŕ íŕ ńîîňâĺňńňâčĺ ďđîřčâęč â ęîíöĺ ńňđŕíčöű äîëćĺí áűňü ęîä 0x55aa                      
   4131            //              if ( ( cnt_pg==0) &&     ( *(unsigned int*)&buf_rx_ppp[offset+C1_PORT+4 + 0xFE] != 0x55AA ) ) goto device_bad;   
   4132                             if ( ( cnt_pg==0) &&    ( buf_rx_ppp[offset+C1_PORT+4 + 0xFF] != VERSION_API ) ) goto device_bad;                
   \   000006CC   2F20               MOV     R18, R16
   \   000006CE   2B21               OR      R18, R17
   \   000006D0   F431               BRNE    ??proc_udp_data_68
   \   000006D2   01F3               MOVW    R31:R30, R7:R6
   \   000006D4   5FEC               SUBI    R30, 252
   \   000006D6   4FFE               SBCI    R31, 254
   \   000006D8   8120               LD      R18, Z
   \   000006DA   3527               CPI     R18, 87
   \   000006DC   F711               BRNE    ??proc_udp_data_65
   4133                                            
   4134             //                              send_info(sizeof(gluk),gluk,1,24); 
   4135                                            
   4136                                            //ďđîčçâĺńňč çŕďčńü ńňđŕíčöű
   4137                                                pagee=cnt_pg;
   4138                                                pagee=pagee << 8;
   \                     ??proc_udp_data_68:
   \   000006DE   E6E0               LDI     R30, 96
   \   000006E0   E0FE               LDI     R31, 14
   \   000006E2   8290               ST      Z, R9
   \   000006E4   8301               STD     Z+1, R16
   4139                                                __disable_interrupt();                    
   \   000006E6   94F8               CLI
   4140                                                __watchdog_reset();           
   \   000006E8   95A8               WDR
   4141                                                off_buf=offset+C1_PORT+4;  
   \   000006EA   8509               LDD     R16, Y+9
   \   000006EC   5F0B               SUBI    R16, 251
   \   000006EE   8702               STD     Z+10, R16
   4142                                                
   4143          
   4144                                                     
   4145          
   4146          
   4147                                                if( cnt_pg >=256) RAMPZ=3; 
   \   000006F0   01F5               MOVW    R31:R30, R11:R10
   \   000006F2   A111               LDD     R17, Z+33
   \   000006F4   E021               LDI     R18, 1
   \   000006F6   3011               CPI     R17, 1
   \   000006F8   F010               BRCS    ??proc_udp_data_69
   \   000006FA   E003               LDI     R16, 3
   \   000006FC   C001               RJMP    ??proc_udp_data_70
   4148                                                else RAMPZ=2;                              // 18 05 2022 
   \                     ??proc_udp_data_69:
   \   000006FE   E002               LDI     R16, 2
   \                     ??proc_udp_data_70:
   \   00000700   BF0B               OUT     0x3B, R16
   4149                                                array_in_232=&buf_rx_ppp[0];
   \   00000702   E6E2               LDI     R30, 98
   \   00000704   E0FE               LDI     R31, 14
   \   00000706   83A0               ST      Z, R26
   \   00000708   83B1               STD     Z+1, R27
   4150                                                contr_gluk1=C_GLUK1;   
   \   0000070A   E505               LDI     R16, 85
   \   0000070C   8703               STD     Z+11, R16
   4151                                                contr_gluk2=C_GLUK2; 
   \   0000070E   EA0A               LDI     R16, 170
   \   00000710   8704               STD     Z+12, R16
   4152                                                EIND=1;
   \   00000712   BF2C               OUT     0x3C, R18
   4153                                                move_to_saver();
   \   00000714   ........           CALL    move_to_saver
   4154                                                boot_HUGE(); 
   \   00000718   ........           CALL    boot_HUGE
   4155                                                pop_from_saver();
   \   0000071C   ........           CALL    pop_from_saver
   4156                                                
   4157                                                
   4158                                                contr_gluk1=0;   
   \   00000720   9290....           STS     contr_gluk1, R9
   4159                                                contr_gluk2=0; 
   \   00000724   9290....           STS     contr_gluk2, R9
   4160                                                RAMPZ=0;  
   \   00000728   BE9B               OUT     0x3B, R9
   4161                                                __watchdog_reset();         
   \   0000072A   95A8               WDR
   4162                                                __enable_interrupt();
   \   0000072C   9478               SEI
   4163                                              
   4164                                           
   4165                                           if(fl_pg_out.end_pg==1)
   \   0000072E   01F5               MOVW    R31:R30, R11:R10
   \   00000730   A107               LDD     R16, Z+39
   \   00000732   FF00               SBRS    R16, 0
   \   00000734   C05A               RJMP    ??proc_udp_data_67
   4166                                            {
   4167             //                                 send_info(sizeof(gluk),gluk,1,25); 
   4168                                              
   4169                                              total_kol_page=cnt_pg+1;
   \   00000736   A180               LDD     R24, Z+32
   \   00000738   A191               LDD     R25, Z+33
   \   0000073A   9601               ADIW    R25:R24, 1
   \   0000073C   E6EB               LDI     R30, 107
   \   0000073E   E0FE               LDI     R31, 14
   \   00000740   8380               ST      Z, R24
   \   00000742   8391               STD     Z+1, R25
   4170                                              fl_pg_out.end_pg=0;
   \   00000744   01F5               MOVW    R31:R30, R11:R10
   \   00000746   A107               LDD     R16, Z+39
   \   00000748   7F0E               ANDI    R16, 0xFE
   \   0000074A   A307               STD     Z+39, R16
   4171                                              //fl_pg_out.yes_crc=0; //îáíóëčňü ôëŕă ďĺđĺçŕăđóçęč
   4172                                              if (fl_pg_out.ch_crc==1)
   \   0000074C   FF01               SBRS    R16, 1
   \   0000074E   C04A               RJMP    ??proc_udp_data_71
   4173                                              {
   4174           //                                       send_info(sizeof(gluk),gluk,1,26);
   4175                                                
   4176                                                 //çäĺńü ďđîâĺđęŕ crc âńĺăî ęóńęŕ
   4177                                                
   4178                                                 length=0xffff;
   \   00000750   EF0F               LDI     R16, 255
   \   00000752   830E               STD     Y+6, R16
   \   00000754   830F               STD     Y+7, R16
   4179                                                 __disable_interrupt();
   \   00000756   94F8               CLI
   4180                                                 
   4181                                                 
   4182                                                 i=0;
   \   00000758   24CC               CLR     R12
   4183                                                 for (cnt_pg_i=0; cnt_pg_i<total_kol_page; cnt_pg_i++)  // ńëîâî !!!
   \   0000075A   A292               STD     Z+34, R9
   \   0000075C   A293               STD     Z+35, R9
   \   0000075E   C01D               RJMP    ??proc_udp_data_72
   4184                                                     {
   4185                                                      array_in_232=&buf_rx_ppp[offset+C1_PORT+4];
   4186                                                       if( cnt_pg_i >=256) RAMPZ=3; 
   4187                                                        else RAMPZ=2;                              // 18 05 2022 
   \                     ??proc_udp_data_73:
   \   00000760   E002               LDI     R16, 2
   \                     ??proc_udp_data_74:
   \   00000762   BF0B               OUT     0x3B, R16
   4188                                                      
   4189                                                      move_to_saver();
   \   00000764   ........           CALL    move_to_saver
   4190                                                      r_p_flash( i*256);            //   
   \   00000768   2D1C               MOV     R17, R12
   \   0000076A   E000               LDI     R16, 0
   \   0000076C   ........           CALL    r_p_flash
   4191                                                      i++;
   \   00000770   94C3               INC     R12
   4192                                                      pop_from_saver();
   \   00000772   ........           CALL    pop_from_saver
   4193                                                      RAMPZ=0;                              // 18 05 2022 
   \   00000776   BE9B               OUT     0x3B, R9
   4194                                                      
   4195                                                      length=crc_m1(&buf_rx_ppp[offset+C1_PORT+4],256,length);
   \   00000778   814E               LDD     R20, Y+6
   \   0000077A   815F               LDD     R21, Y+7
   \   0000077C   E020               LDI     R18, 0
   \   0000077E   E031               LDI     R19, 1
   \   00000780   0183               MOVW    R17:R16, R7:R6
   \   00000782   5F0B               SUBI    R16, 251
   \   00000784   ........           CALL    ?Subroutine140
   \                     ??CrossCallReturnLabel_597:
   \   00000788   ....               RCALL   ?Subroutine208
   4196                                                      __watchdog_reset();
   \                     ??CrossCallReturnLabel_325:
   \   0000078A   95A8               WDR
   \   0000078C   01F5               MOVW    R31:R30, R11:R10
   \   0000078E   A102               LDD     R16, Z+34
   \   00000790   A113               LDD     R17, Z+35
   \   00000792   5F0F               SUBI    R16, 255
   \   00000794   4F1F               SBCI    R17, 255
   \   00000796   A302               STD     Z+34, R16
   \   00000798   A313               STD     Z+35, R17
   \                     ??proc_udp_data_72:
   \   0000079A   A122               LDD     R18, Z+34
   \   0000079C   A133               LDD     R19, Z+35
   \   0000079E   E6EB               LDI     R30, 107
   \   000007A0   E0FE               LDI     R31, 14
   \   000007A2   ....               RCALL   ?Subroutine308
   \                     ??CrossCallReturnLabel_744:
   \   000007A4   1720               CP      R18, R16
   \   000007A6   0731               CPC     R19, R17
   \   000007A8   F448               BRCC    ??proc_udp_data_75
   \   000007AA   0183               MOVW    R17:R16, R7:R6
   \   000007AC   5F0B               SUBI    R16, 251
   \   000007AE   4F1F               SBCI    R17, 255
   \   000007B0   E6E2               LDI     R30, 98
   \   000007B2   ....               RCALL   ?Subroutine292
   \                     ??CrossCallReturnLabel_640:
   \   000007B4   3031               CPI     R19, 1
   \   000007B6   F2A0               BRCS    ??proc_udp_data_73
   \   000007B8   E003               LDI     R16, 3
   \   000007BA   CFD3               RJMP    ??proc_udp_data_74
   4197                                                     }   
   4198                                                  __enable_interrupt();
   \                     ??proc_udp_data_75:
   \   000007BC   9478               SEI
   4199                        
   4200                                                
   4201                                                 
   4202                                              
   4203                                                 if(length==pg_crc)
   \   000007BE   ....               RCALL   ?Subroutine219
   \                     ??CrossCallReturnLabel_334:
   \   000007C0   01F5               MOVW    R31:R30, R11:R10
   \   000007C2   ........           CALL    ??Subroutine105_0
   \                     ??CrossCallReturnLabel_182:
   \   000007C6   1702               CP      R16, R18
   \   000007C8   0713               CPC     R17, R19
   \   000007CA   F419               BRNE    ??proc_udp_data_76
   4204                                                  {
   4205             //                                       send_info(sizeof(gluk),gluk,1,27);
   4206                                                  // fl_pg_out.yes_crc=1;
   4207                                                  // âűńňŕâčňü ôëŕă ďĺđĺçŕăđóçęč áóôĺđîâ
   4208                                                   reboot_byte=0x55;
   \   000007CC   E505               LDI     R16, 85
   \   000007CE   A306               STD     Z+38, R16
   \   000007D0   C006               RJMP    ??proc_udp_data_77
   4209                                                  }
   4210                                                  else
   4211                                                  {
   4212            //                                       send_info(sizeof(gluk),gluk,1,28);
   4213                                                   total_kol_page=0;
   \                     ??proc_udp_data_76:
   \   000007D2   E6EB               LDI     R30, 107
   \   000007D4   E0FE               LDI     R31, 14
   \   000007D6   8290               ST      Z, R9
   \   000007D8   8291               STD     Z+1, R9
   4214                                                   reboot_byte=0;                                          
   \   000007DA   ....               RCALL   ?Subroutine204
   \                     ??CrossCallReturnLabel_696:
   \   000007DC   A296               STD     Z+38, R9
   4215                                                  }
   4216                                              
   4217                                               fl_pg_out.send_crc=1;
   \                     ??proc_udp_data_77:
   \   000007DE   A107               LDD     R16, Z+39
   \   000007E0   6400               ORI     R16, 0x40
   \   000007E2   A307               STD     Z+39, R16
   4218                                               }    
   4219                                          
   4220                                              fl_pg_out.hold_pg=0;    
   4221                                              fl_pg_out.ch_crc=0; 
   \                     ??proc_udp_data_71:
   \   000007E4   A107               LDD     R16, Z+39
   \   000007E6   7D0D               ANDI    R16, 0xDD
   \   000007E8   A307               STD     Z+39, R16
   4222                                         
   4223                                            }                                                                                                                                
   4224                                           } 
   4225                                        
   4226                                        
   4227                                        
   4228                                        
   4229                                        //fl_pg_out.yes_crc=0;
   4230                                                                     
   4231                                        if(fl_pg_out.send_kv==1)
   \                     ??proc_udp_data_67:
   \   000007EA   A107               LDD     R16, Z+39
   \   000007EC   FF02               SBRS    R16, 2
   \   000007EE   C049               RJMP    ??CrossCallReturnLabel_147
   4232                                          {
   4233                                          // âűäŕňü ęâčňîę ń ó÷ĺňîě çŕďčńč îďöčč crc çŕďčńŕííîăî ęóńęŕ 
   4234            //                              send_info(sizeof(gluk),gluk,1,29);
   4235                                            
   4236                                          if(reboot_byte!=0x55)
   \   000007F0   A106               LDD     R16, Z+38
   \   000007F2   3505               CPI     R16, 85
   \   000007F4   F049               BREQ    ??proc_udp_data_78
   4237                                           {
   4238                                           if(fl_ip.act_ip_end!=1){fl_pg_out.send_crc=0; reboot_byte=0; return(0);}
   \   000007F6   9100....           LDS     R16, (cnt_lcp_tm_out + 5)
   \   000007FA   FD00               SBRC    R16, 0
   \   000007FC   C005               RJMP    ??proc_udp_data_78
   \   000007FE   A107               LDD     R16, Z+39
   \   00000800   7B0F               ANDI    R16, 0xBF
   \   00000802   A307               STD     Z+39, R16
   \   00000804   A296               STD     Z+38, R9
   \   00000806   CC09               RJMP    ??proc_udp_data_1
   4239                                           }
   4240                                          
   4241              //                            send_info(sizeof(gluk),gluk,1,30);
   4242                                          
   4243                                          fl_ip.act_ip_end=0;      
   \                     ??proc_udp_data_78:
   \   00000808   ....               RCALL   ?Subroutine54
   \                     ??CrossCallReturnLabel_86:
   \   0000080A   ....               RCALL   ?Subroutine309
   4244                                          clr_cntr_nat();
   4245                                          clr_cntr_link();
   4246                                          Obj_ppp_tx.prozr=FALSE;            
   4247                                          Obj_ppp_tx.version=VER2;      //âĺđńč˙ 
   4248                                          Obj_ppp_tx.type_pac=OTV;     //ňčď ďŕęĺňŕ
   4249                                          Obj_ppp_tx.num_src=num_self; // íîěĺđ îňďđŕâčňĺë˙
   4250                                          Obj_ppp_tx.num_dst=*(unsigned int*)&buf_rx_ppp[TR_SRC]; // íîěĺđ ďîëó÷ŕňĺë˙
   4251                   
   4252                                          Obj_ppp_tx.id_pac=buf_rx_ppp[TR_ID]; // čäĺíňčôčęŕňîđ ďŕęĺňŕ  
   4253                                          Obj_ppp_tx.p_opt=&buf_opt_tr[0]; // //óęŕçŕňĺëü áóôĺđŕ îďöčé          
   4254                                          Obj_ppp_tx.l_opt=0;
   4255                                          
   4256                                          if(fl_pg_out.send_crc==1)
   \                     ??CrossCallReturnLabel_751:
   \   0000080C   A107               LDD     R16, Z+39
   \   0000080E   FF06               SBRS    R16, 6
   \   00000810   C00D               RJMP    ??proc_udp_data_79
   4257                                            {
   4258                                            Obj_ppp_tx.l_opt=4;// äëčíŕ áóôĺđŕ îďöčé   
   \   00000812   E004               LDI     R16, 4
   \   00000814   8702               STD     Z+10, R16
   4259                                            buf_opt_tr[0]=KOD_WR_PG_CRC;
   \   00000816   E003               LDI     R16, 3
   \   00000818   9300....           STS     buf_opt_tr, R16
   4260                                            buf_opt_tr[1]=L_OP_WR_PG_CRC;
   \   0000081C   E004               LDI     R16, 4
   \   0000081E   9300....           STS     (buf_opt_tr + 1), R16
   4261                                            *(unsigned int*)&buf_opt_tr[2]=length;//ýňî crc
   \   00000822   ....               RCALL   ?Subroutine219
   \                     ??CrossCallReturnLabel_335:
   \   00000824   ....               LDI     R30, LOW(buf_opt_tr)
   \   00000826   ....               LDI     R31, (buf_opt_tr) >> 8
   \   00000828   8302               STD     Z+2, R16
   \   0000082A   8313               STD     Z+3, R17
   4262                                            }
   4263                                           fl_pg_out.send_crc=0;  
   \                     ??proc_udp_data_79:
   \   0000082C   ....               RCALL   ?Subroutine204
   \                     ??CrossCallReturnLabel_697:
   \   0000082E   A107               LDD     R16, Z+39
   \   00000830   7B0F               ANDI    R16, 0xBF
   \   00000832   A307               STD     Z+39, R16
   4264                                        //Obj_ppp_tx.kol_opt=1;// ęîëč÷ĺńňâî îďöčé     
   4265                 
   4266                                         buf_tx_232[TR_OP_DATA+C1_PROT+10]=PROT_C1;
   \   00000834   E001               LDI     R16, 1
   \   00000836   ....               RCALL   ?Subroutine297
   \                     ??CrossCallReturnLabel_688:
   \   00000838   AB04               STD     Z+52, R16
   4267                                         buf_tx_232[TR_OP_DATA+C1_PROT+11]=PORT_PROG;
   \   0000083A   E007               LDI     R16, 7
   \   0000083C   AB05               STD     Z+53, R16
   4268                                         buf_tx_232[TR_OP_DATA+C1_PROT+12]=COM_CODE_MEM;
   \   0000083E   E001               LDI     R16, 1
   \   00000840   AB06               STD     Z+54, R16
   4269                                         *(unsigned int*)&buf_tx_232[TR_OP_DATA+C1_PROT+13]=L_COM_CODE_MEM_A;
   \   00000842   E003               LDI     R16, 3
   \   00000844   AB07               STD     Z+55, R16
   \   00000846   AE90               STD     Z+56, R9
   4270                                         buf_tx_232[TR_OP_DATA+C1_PROT+15]=0x00; //OK 
   \   00000848   AE91               STD     Z+57, R9
   4271                                         *(unsigned int*)&buf_tx_232[TR_OP_DATA+C1_PROT+16]=cnt_pg; //OK 
   \   0000084A   ....               RCALL   ?Subroutine204
   \                     ??CrossCallReturnLabel_698:
   \   0000084C   ....               RCALL   ?Subroutine205
   \                     ??CrossCallReturnLabel_710:
   \   0000084E   ....               RCALL   ?Subroutine297
   \                     ??CrossCallReturnLabel_689:
   \   00000850   AF02               STD     Z+58, R16
   \   00000852   AF13               STD     Z+59, R17
   4272             
   4273          
   4274                                         Obj_ppp_tx.l_data=5+L_COM_CODE_MEM_A;  // äëčíŕ äŕííűő
   \   00000854   E008               LDI     R16, 8
   \   00000856   ....               RCALL   ?Subroutine202
   4275                                         Obj_ppp_tx.p_data=&buf_tx_232[TR_OP_DATA+C1_PROT+10];  //óęŕçŕňĺëü áóôĺđŕ äŕííűő
   \                     ??CrossCallReturnLabel_317:
   \   00000858   ....               LDI     R16, LOW((buf_tx_232 + 52))
   \   0000085A   ....               LDI     R17, HIGH((buf_tx_232 + 52))
   \   0000085C   ....               RCALL   ?Subroutine310
   4276                  
   4277                                         send_info(sizeof(ans_out_prog),ans_out_prog,1,buf_rx_ppp[TR_ID]);
   \                     ??CrossCallReturnLabel_763:
   \   0000085E   ....               LDI     R18, LOW((new_version + 101))
   \   00000860   ....               LDI     R19, HIGH((new_version + 101))
   \   00000862   ........           CALL    ?Subroutine60
   4278                                         
   4279                                         form_buf_tx_ppp();                            
   4280                                         UCSR0A=UCSR0A | TXC;                            
   \                     ??CrossCallReturnLabel_592:
   \   00000866   ........           CALL    ?Subroutine85
   4281                                         UCSR0B=UCSR0B | TXEN;
   4282                                         UCSR0B=UCSR0B | TXCIE;
   4283                                      
   4284                                      if(reboot_byte!=0x55)
   \                     ??CrossCallReturnLabel_127:
   \   0000086A   ....               RCALL   ?Subroutine203
   \                     ??CrossCallReturnLabel_318:
   \   0000086C   F029               BREQ    ??proc_udp_data_80
   4285                                           {   
   4286                                            // if(check_cts()==1){S5_RD; while(1)__watchdog_reset(); return(0);}
   4287                                              if(check_cts()==1) return(0);
   \   0000086E   ........           CALL    check_cts
   \   00000872   3001               CPI     R16, 1
   \   00000874   F409               BRNE    $+2+2
   \   00000876   CBD1               RJMP    ??proc_udp_data_1
   4288            //                               send_info(sizeof(gluk),gluk,1,31);
   4289                                           }                
   4290                                        
   4291                                         S2_RD;
   \                     ??proc_udp_data_80:
   \   00000878   ....               RCALL   ?Subroutine311
   4292                                         UDR0=buf_tx_232[0];
   4293                                         if(Regim==RG_DEBAG) UDR3=buf_tx_232[0];
   \                     ??CrossCallReturnLabel_784:
   \   0000087A   F419               BRNE    ??CrossCallReturnLabel_147
   \   0000087C   8100               LD      R16, Z
   \   0000087E   ........           CALL    ??Subroutine91_0
   4294                                          }                               
   4295                                          
   4296                                       
   4297                                         if(reboot_byte==0x55)
   \                     ??CrossCallReturnLabel_147:
   \   00000882   ....               RCALL   ?Subroutine203
   \                     ??CrossCallReturnLabel_319:
   \   00000884   F009               BREQ    $+2+2
   \   00000886   CE3B               RJMP    ??proc_udp_data_5
   4298                                           {
   4299                                             for(i=0;i<30;i++)
   \   00000888   E18E               LDI     R24, 30
   4300                                              {
   4301                                              __watchdog_reset();
   \                     ??proc_udp_data_81:
   \   0000088A   95A8               WDR
   4302                                              delay(45000);
   \   0000088C   EC08               LDI     R16, 200
   \   0000088E   EA1F               LDI     R17, 175
   \   00000890   ........           CALL    delay
   4303                                              }
   \   00000894   958A               DEC     R24
   \   00000896   F7C9               BRNE    ??proc_udp_data_81
   4304                                             
   4305                                             crc_tii=0; 
   \   00000898   ....               LDI     R30, LOW(crc_tii)
   \   0000089A   ....               LDI     R31, (crc_tii) >> 8
   \   0000089C   8290               ST      Z, R9
   \   0000089E   8291               STD     Z+1, R9
   4306                                             for(i=0;i<8;i++)cnt_tii[i]=0; 
   \   000008A0   24CC               CLR     R12
   \                     ??proc_udp_data_82:
   \   000008A2   E022               LDI     R18, 2
   \   000008A4   9EC2               MUL     R12, R18
   \   000008A6   01F0               MOVW    R31:R30, R1:R0
   \   000008A8   ....               SUBI    R30, LOW((-(cnt_tii) & 0xFFFF))
   \   000008AA   ....               SBCI    R31, (-(cnt_tii) & 0xFFFF) >> 8
   \   000008AC   8290               ST      Z, R9
   \   000008AE   8291               STD     Z+1, R9
   \   000008B0   94C3               INC     R12
   \   000008B2   E008               LDI     R16, 8
   \   000008B4   16C0               CP      R12, R16
   \   000008B6   F3A8               BRCS    ??proc_udp_data_82
   4307                                             
   4308                                             __disable_interrupt();
   \   000008B8   94F8               CLI
   4309                                             WrArrayToFlesh(BEG_BUF_LOG,0,(L_LOG*6),0x01,0x00);
   \   000008BA   ........           CALL    ?Subroutine21
   4310          
   4311                                           //  *(unsigned long int*)&buf_rx_ppp[0]=burst_ds_r();
   4312                                             RdFromFleshToArr(A_TRAF,&buf_rx_ppp[0],4);
   \                     ??CrossCallReturnLabel_573:
   \   000008BE   E044               LDI     R20, 4
   \   000008C0   ........           CALL    ?Subroutine27
   \                     ??CrossCallReturnLabel_36:
   \   000008C4   ....               RCALL   ?Subroutine301
   4313                                             *(unsigned long int*)&buf_rx_ppp[4]=cnt_outcom;
   \                     ??CrossCallReturnLabel_838:
   \   000008C6   ....               LDI     R30, LOW(cnt_outcom)
   \   000008C8   ....               LDI     R31, (cnt_outcom) >> 8
   \   000008CA   ........           CALL    ?Subroutine146
   \                     ??CrossCallReturnLabel_389:
   \   000008CE   ....               RCALL   ?Subroutine264
   \                     ??CrossCallReturnLabel_492:
   \   000008D0   8326               STD     Z+6, R18
   \   000008D2   8337               STD     Z+7, R19
   4314                                             *(unsigned long int*)&buf_rx_ppp[8]=cnt_incom;
   \   000008D4   ....               LDI     R30, LOW(cnt_incom)
   \   000008D6   ....               LDI     R31, (cnt_incom) >> 8
   \   000008D8   ........           CALL    ?Subroutine146
   \                     ??CrossCallReturnLabel_390:
   \   000008DC   ........           CALL    ?Subroutine128
   \                     ??CrossCallReturnLabel_209:
   \   000008E0   8722               STD     Z+10, R18
   \   000008E2   8733               STD     Z+11, R19
   4315                                             *(unsigned int*)&buf_rx_ppp[L_TRAF-2]=crc_m1(&buf_rx_ppp[0],L_TRAF-2,0xffff);
   \   000008E4   ....               RCALL   ?Subroutine293
   \                     ??CrossCallReturnLabel_655:
   \   000008E6   E02C               LDI     R18, 12
   \   000008E8   E030               LDI     R19, 0
   \   000008EA   ........           CALL    ?Subroutine175
   \                     ??CrossCallReturnLabel_596:
   \   000008EE   01FD               MOVW    R31:R30, R27:R26
   \   000008F0   ........           CALL    ?Subroutine130
   4316                                             WrArrayToFlesh(A_TRAF, &buf_rx_ppp[0],L_TRAF,0,0);
   \                     ??CrossCallReturnLabel_212:
   \   000008F4   E070               LDI     R23, 0
   \   000008F6   E060               LDI     R22, 0
   \   000008F8   E04E               LDI     R20, 14
   \   000008FA   ........           CALL    ?Subroutine27
   \                     ??CrossCallReturnLabel_37:
   \   000008FE   ........           CALL    ?Subroutine282
   4317                                             
   4318                                             off_buf=0;
   \                     ??CrossCallReturnLabel_590:
   \   00000902   9290....           STS     off_buf, R9
   4319                                             SREG=0;
   \   00000906   BE9F               OUT     0x3F, R9
   4320                                             WDTCSR=0x18;           
   \   00000908   E108               LDI     R16, 24
   \   0000090A   93000060           STS     96, R16
   4321                                             WDTCSR=0x0f;           
   \   0000090E   E00F               LDI     R16, 15
   \   00000910   93000060           STS     96, R16
   4322                                             __watchdog_reset();   
   \   00000914   95A8               WDR
   4323                                             contr_gluk1=C_GLUK1;   
   \   00000916   E505               LDI     R16, 85
   \   00000918   9300....           STS     contr_gluk1, R16
   4324                                             contr_gluk2=C_GLUK2; 
   \   0000091C   EA0A               LDI     R16, 170
   \   0000091E   9300....           STS     contr_gluk2, R16
   4325                                             send_info(sizeof(evc_rld),evc_rld,0,0);
   \   00000922   E040               LDI     R20, 0
   \   00000924   E010               LDI     R17, 0
   \   00000926   ....               LDI     R18, LOW((new_version + 12))
   \   00000928   ....               LDI     R19, HIGH((new_version + 12))
   \   0000092A   E007               LDI     R16, 7
   \   0000092C   ....               RCALL   ?Subroutine214
   4326                                             EIND=1;
   \                     ??CrossCallReturnLabel_831:
   \   0000092E   E001               LDI     R16, 1
   \   00000930   BF0C               OUT     0x3C, R16
   4327                                             reload_apl_HUGE(); 
   \   00000932   ........           CALL    reload_apl_HUGE
   \   00000936   CDE3               RJMP    ??proc_udp_data_5
   4328                                           }           
   4329                                      return(1);                         
   4330                                
   4331                    
   4332                        case PORT_MBUS:
   4333                                           if(((buf_rx_ppp[TR_V]>>4)&0x03)==ZAPR)
   \                     ??proc_udp_data_15:
   \   00000938   ....               RCALL   ?Subroutine312
   \                     ??CrossCallReturnLabel_755:
   \   0000093A   F009               BREQ    $+2+2
   \   0000093C   CB6E               RJMP    ??proc_udp_data_1
   4334                                         {
   4335                                           // ýňî îăđŕíč÷ĺíčĺ ńâ˙çŕíî ń ěîäáŕńîě äë˙ ELAM îíî íĺ ŕęňóŕëüíî
   4336                                           
   4337                                       //08 11 2019    if(length>259)return(0);
   4338                                           
   4339                                           
   4340                                           
   4341                                           //////////////////////ęŕěčíňĺë
   4342                                          
   4343                                      //     if(sel_modul==1)
   4344                                           {
   4345                                           buf_tx_232[TR_OP_DATA+C1_DATA]=buf_rx_ppp[offset+C1_DATA+8];//ôóíęöč˙                       
   \   0000093E   01FC               MOVW    R31:R30, R25:R24
   \   00000940   8501               LDD     R16, Z+9
   \   00000942   01F7               MOVW    R31:R30, R15:R14
   \   00000944   A704               STD     Z+44, R16
   4346                                           buf_tx_232[TR_OP_DATA+C1_DATA+1]=buf_rx_ppp[offset+C1_DATA+9];//ŕäđĺń
   \   00000946   01FC               MOVW    R31:R30, R25:R24
   \   00000948   8502               LDD     R16, Z+10
   \   0000094A   01F7               MOVW    R31:R30, R15:R14
   \   0000094C   A705               STD     Z+45, R16
   4347                                           ii=proc_kamintel(&buf_rx_ppp[offset+C1_DATA+8],length-10);
   \   0000094E   812E               LDD     R18, Y+6
   \   00000950   502A               SUBI    R18, 10
   \   00000952   0183               MOVW    R17:R16, R7:R6
   \   00000954   5F06               SUBI    R16, 246
   \   00000956   4F1F               SBCI    R17, 255
   \   00000958   ........           CALL    proc_kamintel
   \   0000095C   2E80               MOV     R8, R16
   4348                                           if(ii==1)
   \   0000095E   E001               LDI     R16, 1
   \   00000960   1680               CP      R8, R16
   \   00000962   0499               CPC     R9, R9
   \   00000964   F469               BRNE    ??proc_udp_data_83
   4349                                             {
   4350                                              
   4351                                               if(fl_ip.act_ip_end!=1)return(0);                              
   \   00000966   ....               RCALL   ?Subroutine54
   \                     ??CrossCallReturnLabel_87:
   \   00000968   FF00               SBRS    R16, 0
   \   0000096A   CB57               RJMP    ??proc_udp_data_1
   4352                                               fl_ip.act_ip_end=0; 
   \   0000096C   ....               RCALL   ?Subroutine309
   4353                                               clr_cntr_nat();
   4354                                               clr_cntr_link();
   4355                                               Obj_ppp_tx.prozr=FALSE;            
   4356                                               Obj_ppp_tx.version=VER2;      //âĺđńč˙ 
   4357                                               Obj_ppp_tx.type_pac=OTV;     //ňčď ďŕęĺňŕ
   4358                                               Obj_ppp_tx.num_src=num_self; // íîěĺđ îňďđŕâčňĺë˙
   4359                                               Obj_ppp_tx.num_dst=*(unsigned int*)&buf_rx_ppp[TR_SRC]; // íîěĺđ ďîëó÷ŕňĺë˙
   4360                                               Obj_ppp_tx.id_pac=buf_rx_ppp[TR_ID]; // čäĺíňčôčęŕňîđ ďŕęĺňŕ  
   4361                                               Obj_ppp_tx.p_opt=&buf_opt_tr[0]; // //óęŕçŕňĺëü áóôĺđŕ îďöčé          
   4362                                               Obj_ppp_tx.l_opt=0;// äëčíŕ áóôĺđŕ îďöčé  
   4363                                               Obj_ppp_tx.kol_opt=0;// ęîëč÷ĺńňâî îďöčé 
   \                     ??CrossCallReturnLabel_752:
   \   0000096E   8693               STD     Z+11, R9
   4364                                               buf_tx_232[TR_OP_DATA+C1_PROT]=PROT_C1;
   \   00000970   ....               RCALL   ?Subroutine163
   4365                                               buf_tx_232[TR_OP_DATA+C1_PORT]=PORT_MBUS; 
   \                     ??CrossCallReturnLabel_267:
   \   00000972   E008               LDI     R16, 8
   \   00000974   A703               STD     Z+43, R16
   4366                                               Obj_ppp_tx.l_data=Obj_ppp_tx.l_data+2;
   \   00000976   ....               RCALL   ?Subroutine204
   \                     ??CrossCallReturnLabel_699:
   \   00000978   8506               LDD     R16, Z+14
   \   0000097A   8517               LDD     R17, Z+15
   \   0000097C   ....               RCALL   ?Subroutine171
   \                     ??CrossCallReturnLabel_518:
   \   0000097E   C604               RJMP    ??CrossCallReturnLabel_700
   4367                                               goto metka_send_mbus;
   4368                                             }
   4369                                           }
   4370                                          ///////////////////////// ęîíĺö ęŕěčíňĺë 
   4371                                           
   4372                                      //     if((length<18)||(length>259))return(0);
   4373                                           
   4374                                           if(length<18)return(0);
   \                     ??proc_udp_data_83:
   \   00000980   818E               LDD     R24, Y+6
   \   00000982   819F               LDD     R25, Y+7
   \   00000984   3182               CPI     R24, 18
   \   00000986   4090               SBCI    R25, 0
   \   00000988   F408               BRCC    $+2+2
   \   0000098A   CB47               RJMP    ??proc_udp_data_1
   4375                                      /////07 11 2019 ďđîöĺäóđŕ ďđîâĺđęč ďŕęĺňŕ íŕ ěîäáŕń íĺ čěĺĺň ńěűńëŕ
   4376                                           /*
   4377                                           ii=proc_modbus(&buf_rx_ppp[offset+C1_DATA+8],length-10);
   4378                                           if(ii==0)return(0);
   4379                                           */
   4380                                       
   4381                                         
   4382                                         if(fl_ip.act_ip_end!=1)return(0);
   \   0000098C   ....               RCALL   ?Subroutine54
   \                     ??CrossCallReturnLabel_88:
   \   0000098E   FF00               SBRS    R16, 0
   \   00000990   CB44               RJMP    ??proc_udp_data_1
   4383                                         fl_ip.act_ip_end=0;
   \   00000992   7F0E               ANDI    R16, 0xFE
   \   00000994   8305               STD     Z+5, R16
   4384                                         
   4385                                         clr_cntr_nat();
   \   00000996   ....               RCALL   ?Subroutine177
   4386                                         clr_cntr_link();
   \                     ??CrossCallReturnLabel_738:
   \   00000998   ........           CALL    ?Subroutine81
   4387                                         Obj_ppp_tx.prozr=FALSE;            
   4388                                         Obj_ppp_tx.version=VER2;      //âĺđńč˙ 
   4389                                         Obj_ppp_tx.type_pac=OTV;     //ňčď ďŕęĺňŕ
   4390                                         Obj_ppp_tx.num_src=num_self; // íîěĺđ îňďđŕâčňĺë˙
   \                     ??CrossCallReturnLabel_747:
   \   0000099C   01F5               MOVW    R31:R30, R11:R10
   \   0000099E   ........           CALL    ?Subroutine68
   4391                                         Obj_ppp_tx.num_dst=*(unsigned int*)&buf_rx_ppp[TR_SRC]; // íîěĺđ ďîëó÷ŕňĺë˙
   \                     ??CrossCallReturnLabel_109:
   \   000009A2   01F5               MOVW    R31:R30, R11:R10
   \   000009A4   ....               RCALL   ?Subroutine173
   4392                                         Obj_ppp_tx.id_pac=buf_rx_ppp[TR_ID]; // čäĺíňčôčęŕňîđ ďŕęĺňŕ  
   \                     ??CrossCallReturnLabel_277:
   \   000009A6   01F5               MOVW    R31:R30, R11:R10
   \   000009A8   ....               RCALL   ?Subroutine127
   4393                                         Obj_ppp_tx.p_opt=&buf_opt_tr[0]; // //óęŕçŕňĺëü áóôĺđŕ îďöčé          
   4394                                         Obj_ppp_tx.l_opt=0;// äëčíŕ áóôĺđŕ îďöčé  
   4395                                         Obj_ppp_tx.kol_opt=0;// ęîëč÷ĺńňâî îďöčé 
   4396                                         buf_tx_232[TR_OP_DATA+C1_PROT]=PROT_C1;
   \                     ??CrossCallReturnLabel_556:
   \   000009AA   01F7               MOVW    R31:R30, R15:R14
   \   000009AC   A702               STD     Z+42, R16
   4397                                         buf_tx_232[TR_OP_DATA+C1_PORT]=PORT_MBUS;
   \   000009AE   E008               LDI     R16, 8
   \   000009B0   A703               STD     Z+43, R16
   4398                                         
   4399                                         
   4400                                        //buf_tx_232[TR_OP_DATA+C1_DATA]=buf_rx_ppp[offset+C1_DATA+8];//ŕäđĺń  !!! îńňŕâë˙ĺě                              
   4401                                        //buf_tx_232[TR_OP_DATA+C1_DATA+1]=buf_rx_ppp[offset+C1_DATA+9];//ôóíęöč˙  !!! îńňŕâë˙ĺě
   4402                                                                  
   4403                                       // crc=swap(*(unsigned int*)&buf_rx_ppp[offset+C1_DATA+10]);//çäĺńü âđĺěĺííî ńňŕđň ŕäđĺń 
   4404                                       // kol=swap(*(unsigned int*)&buf_rx_ppp[offset+C1_DATA+12]); //çäĺńü âđĺěĺííî ęîëč÷ĺńňâî đĺăčńňđîâ
   4405                                   
   4406          
   4407                                        // Číčöčŕëčçŕöč˙ óęŕçŕňĺëĺé
   4408            mobus.point_out=& buf_tx_232[TR_OP_DATA+C1_DATA];        // âűőîäíîé áóôĺđ
   \   000009B2   0187               MOVW    R17:R16, R15:R14
   \   000009B4   5D04               SUBI    R16, 212
   \   000009B6   4F1F               SBCI    R17, 255
   \   000009B8   830A               STD     Y+2, R16
   \   000009BA   831B               STD     Y+3, R17
   4409             mobus.point_in = & buf_rx_ppp[offset+C1_DATA+8];         // âőîäíîé áóôĺđ ń ěîäáŕń ďŕęĺňîě
   \   000009BC   E00A               LDI     R16, 10
   \   000009BE   0E60               ADD     R6, R16
   \   000009C0   1C79               ADC     R7, R9
   \   000009C2   8E6E               STD     Y+30, R6
   \   000009C4   8E7F               STD     Y+31, R7
   4410             mobus.index_elam =0;                                     // číäĺęń î÷ĺđĺäíîăî číęŕďńóëčđîâŕííîăî ĺëŕě ďŕęĺňŕ
   \   000009C6   8E98               STD     Y+24, R9
   \   000009C8   8E99               STD     Y+25, R9
   4411             mobus.flag_elam=0;
   \   000009CA   8698               STD     Y+8, R9
   4412             mobus.count_in_elam=length-10;
   \   000009CC   890E               LDD     R16, Y+22
   \   000009CE   891F               LDD     R17, Y+23
   \   000009D0   A308               STD     Y+32, R16
   \   000009D2   A319               STD     Y+33, R17
   4413             mobus.count_out_elam=0;
   \   000009D4   8E9C               STD     Y+28, R9
   \   000009D6   8E9D               STD     Y+29, R9
   4414             mobus.overall=TR_OP_DATA+C1_DATA + 100;
   \   000009D8   E900               LDI     R16, 144
   \   000009DA   8B0C               STD     Y+20, R16
   \   000009DC   8A9D               STD     Y+21, R9
   4415             
   4416             //+=3+(kol_word*2)+2+(smest_to_elam*2);
   4417           
   4418          //
   4419          //
   4420          //
   4421          //
   4422          next_elam:
   4423                      if ( (  * (  mobus.point_in +  mobus.index_elam) & 0xf8) !=0xf8) goto ne_elam;
   \                     ??proc_udp_data_84:
   \   000009DE   8D8E               LDD     R24, Y+30
   \   000009E0   8D9F               LDD     R25, Y+31
   \   000009E2   8D08               LDD     R16, Y+24
   \   000009E4   8D19               LDD     R17, Y+25
   \   000009E6   0F80               ADD     R24, R16
   \   000009E8   1F91               ADC     R25, R17
   \   000009EA   01FC               MOVW    R31:R30, R25:R24
   \   000009EC   8100               LD      R16, Z
   \   000009EE   7F08               ANDI    R16, 0xF8
   \   000009F0   3F08               CPI     R16, 248
   \   000009F2   F109               BREQ    ??proc_udp_data_85
   4424                       mobus.flag_elam=1;
   4425                      switch (* ( mobus.point_in +  mobus.index_elam + 2))
   4426                          {
   4427                          case 1:
   4428                          case 3:
   4429                          case 4:
   4430                          case 5:
   4431                          case 6:  mobus.size_of_pac=7;break;
   4432                          case 16:  mobus.size_of_pac=8 + *( mobus.point_in +  mobus.index_elam + 7);break;
   4433                          default : {return(0);}
   4434                          }
   4435                          if ( mobus.count_in_elam < ( mobus.index_elam +  mobus.size_of_pac + 2) )  {goto FinitaPerformence;}
   4436                         
   4437                         
   4438          // ďđîâĺđęŕ ôđŕăěĺíňŕ íŕ CRC
   4439           mobus.modbus_crc_new=crc_m1(mobus.point_in + mobus.index_elam, mobus.size_of_pac , 0xffff);
   4440                       if(mobus.modbus_crc_new!=(  (  (unsigned int)( * (mobus.point_in + mobus.index_elam + mobus.size_of_pac) )<<8)
   4441                                       + (   unsigned int)( * (mobus.point_in + mobus.index_elam+ mobus.size_of_pac + 1) ) )  )     {return(0);}
   4442          
   4443                         
   4444                         
   4445                         //zapoln_otvet_elam();
   4446                         goto Performence;
   4447          ReEnter:
   4448          
   4449                         mobus.index_elam=mobus.index_elam + mobus.size_of_pac + 2;
   4450                         if (mobus.count_in_elam > mobus.index_elam ) goto next_elam;
   4451                         
   4452                         goto FinitaPerformence;
   4453          
   4454          ne_elam:
   4455                        if ( mobus.flag_elam==1)  {return(0);}   // âűőîä ń îřčáęîé 
   \   000009F4   8508               LDD     R16, Y+8
   \   000009F6   3001               CPI     R16, 1
   \   000009F8   F409               BRNE    $+2+2
   \   000009FA   CB0F               RJMP    ??proc_udp_data_1
   4456                        // ýňî îäčíî÷íűé ďŕęĺň
   4457                         
   4458           mobus.modbus_crc_new=crc_m1(mobus.point_in, mobus.count_in_elam-2,0xffff);
   4459           
   4460                        
   4461                          
   4462                          
   4463           
   4464                       if(mobus.modbus_crc_new!=(  (  (unsigned int)( * (mobus.point_in + mobus.count_in_elam-2) )<<8)
   4465                                       + (   unsigned int)( * (mobus.point_in + mobus.count_in_elam-1) ) ) ) return(0);
   \   000009FC   8C4E               LDD     R4, Y+30
   \   000009FE   8C5F               LDD     R5, Y+31
   \   00000A00   A108               LDD     R16, Y+32
   \   00000A02   A119               LDD     R17, Y+33
   \   00000A04   0E40               ADD     R4, R16
   \   00000A06   1E51               ADC     R5, R17
   \   00000A08   EF0E               LDI     R16, 254
   \   00000A0A   0E40               ADD     R4, R16
   \   00000A0C   EF0F               LDI     R16, 255
   \   00000A0E   1E50               ADC     R5, R16
   \   00000A10   ....               RCALL   ?Subroutine293
   \                     ??CrossCallReturnLabel_656:
   \   00000A12   A128               LDD     R18, Y+32
   \   00000A14   2F31               MOV     R19, R17
   \   00000A16   5022               SUBI    R18, 2
   \   00000A18   4030               SBCI    R19, 0
   \   00000A1A   8D0E               LDD     R16, Y+30
   \   00000A1C   8D1F               LDD     R17, Y+31
   \   00000A1E   ....               RCALL   ?Subroutine284
   \                     ??CrossCallReturnLabel_601:
   \   00000A20   01F2               MOVW    R31:R30, R5:R4
   \   00000A22   8150               LD      R21, Z
   \   00000A24   E040               LDI     R20, 0
   \   00000A26   8121               LDD     R18, Z+1
   \   00000A28   1702               CP      R16, R18
   \   00000A2A   0715               CPC     R17, R21
   \   00000A2C   F009               BREQ    $+2+2
   \   00000A2E   CAF5               RJMP    ??proc_udp_data_1
   4466                                       
   4467                                       
   4468                       
   4469                       
   4470                      
   4471                   //    zapoln_otvet_elam();
   4472                       mobus.flag_elam=0;
   \   00000A30   8748               STD     Y+8, R20
   4473                       goto Performence;
   4474                     
   4475                                         
   4476          
   4477          
   4478                                        
   4479           
   4480                                        
   4481          // switch îáđŕáîň÷čę ěîäáŕń ôđŕăěĺíňŕ                         Íŕ÷ŕëî **************************************                             
   4482          
   4483              Performence:                              
   4484                              //          crc=swap(*(unsigned int*)&buf_rx_ppp[offset+C1_DATA+10]);//çäĺńü âđĺěĺííî ńňŕđň ŕäđĺń 
   4485                              //          kol=swap(*(unsigned int*)&buf_rx_ppp[offset+C1_DATA+12]); //çäĺńü âđĺěĺííî ęîëč÷ĺńňâî đĺăčńňđîâ 
   4486                          if (mobus.flag_elam==1) mobus.smest_to_elam=1;
   4487                          else mobus.smest_to_elam=0;
   \   00000A32   E020               LDI     R18, 0
   \   00000A34   C039               RJMP    ??proc_udp_data_86
   \                     ??proc_udp_data_85:
   \   00000A36   E001               LDI     R16, 1
   \   00000A38   8708               STD     Y+8, R16
   \   00000A3A   8102               LDD     R16, Z+2
   \   00000A3C   950A               DEC     R16
   \   00000A3E   F039               BREQ    ??proc_udp_data_87
   \   00000A40   5002               SUBI    R16, 2
   \   00000A42   F020               BRCS    ??proc_udp_data_88
   \   00000A44   5004               SUBI    R16, 4
   \   00000A46   F018               BRCS    ??proc_udp_data_87
   \   00000A48   5009               SUBI    R16, 9
   \   00000A4A   F021               BREQ    ??proc_udp_data_89
   \                     ??proc_udp_data_88:
   \   00000A4C   CAE6               RJMP    ??proc_udp_data_1
   \                     ??proc_udp_data_87:
   \   00000A4E   E007               LDI     R16, 7
   \   00000A50   E010               LDI     R17, 0
   \   00000A52   C004               RJMP    ??proc_udp_data_90
   \                     ??proc_udp_data_89:
   \   00000A54   8107               LDD     R16, Z+7
   \   00000A56   E010               LDI     R17, 0
   \   00000A58   5F08               SUBI    R16, 248
   \   00000A5A   4F1F               SBCI    R17, 255
   \                     ??proc_udp_data_90:
   \   00000A5C   8F0A               STD     Y+26, R16
   \   00000A5E   8F1B               STD     Y+27, R17
   \   00000A60   A128               LDD     R18, Y+32
   \   00000A62   A139               LDD     R19, Y+33
   \   00000A64   8D4A               LDD     R20, Y+26
   \   00000A66   8D5B               LDD     R21, Y+27
   \   00000A68   8D08               LDD     R16, Y+24
   \   00000A6A   8D19               LDD     R17, Y+25
   \   00000A6C   ....               RCALL   ?Subroutine176
   \                     ??CrossCallReturnLabel_498:
   \   00000A6E   ....               RCALL   ?Subroutine171
   \                     ??CrossCallReturnLabel_519:
   \   00000A70   1720               CP      R18, R16
   \   00000A72   0731               CPC     R19, R17
   \   00000A74   F408               BRCC    $+2+2
   \   00000A76   C583               RJMP    ??proc_udp_data_91
   \   00000A78   ....               RCALL   ?Subroutine293
   \                     ??CrossCallReturnLabel_657:
   \   00000A7A   8D2A               LDD     R18, Y+26
   \   00000A7C   8D3B               LDD     R19, Y+27
   \   00000A7E   018C               MOVW    R17:R16, R25:R24
   \   00000A80   ....               RCALL   ?Subroutine284
   \                     ??CrossCallReturnLabel_600:
   \   00000A82   0198               MOVW    R19:R18, R17:R16
   \   00000A84   8D0A               LDD     R16, Y+26
   \   00000A86   8D1B               LDD     R17, Y+27
   \   00000A88   01FC               MOVW    R31:R30, R25:R24
   \   00000A8A   ....               RCALL   ?Subroutine296
   \                     ??CrossCallReturnLabel_676:
   \   00000A8C   8150               LD      R21, Z
   \   00000A8E   8DEE               LDD     R30, Y+30
   \   00000A90   8DFF               LDD     R31, Y+31
   \   00000A92   ....               RCALL   ?Subroutine296
   \                     ??CrossCallReturnLabel_677:
   \   00000A94   8D68               LDD     R22, Y+24
   \   00000A96   8D79               LDD     R23, Y+25
   \   00000A98   0FE6               ADD     R30, R22
   \   00000A9A   1FF7               ADC     R31, R23
   \   00000A9C   8101               LDD     R16, Z+1
   \   00000A9E   1720               CP      R18, R16
   \   00000AA0   0735               CPC     R19, R21
   \   00000AA2   F009               BREQ    $+2+2
   \   00000AA4   CABA               RJMP    ??proc_udp_data_1
   \   00000AA6   E021               LDI     R18, 1
   4488                          ii= * (mobus.point_in+ mobus.index_elam + mobus.smest_to_elam + 1); // íîěĺđ ęîěŕíäű
   \                     ??proc_udp_data_86:
   \   00000AA8   E030               LDI     R19, 0
   \   00000AAA   8D0E               LDD     R16, Y+30
   \   00000AAC   8D1F               LDD     R17, Y+31
   \   00000AAE   ....               RCALL   ?Subroutine181
   \                     ??CrossCallReturnLabel_281:
   \   00000AB0   8D48               LDD     R20, Y+24
   \   00000AB2   8D59               LDD     R21, Y+25
   \   00000AB4   ....               RCALL   ?Subroutine176
   \                     ??CrossCallReturnLabel_499:
   \   00000AB6   01F8               MOVW    R31:R30, R17:R16
   \   00000AB8   8081               LDD     R8, Z+1
   \   00000ABA   2499               CLR     R9
   4489                          crc =((unsigned int)* (mobus.point_in+ mobus.index_elam + mobus.smest_to_elam+2)<<8)+(unsigned int)* (mobus.point_in + mobus.smest_to_elam + mobus.index_elam+3);
   \   00000ABC   01AC               MOVW    R21:R20, R25:R24
   \   00000ABE   0F42               ADD     R20, R18
   \   00000AC0   1F53               ADC     R21, R19
   \   00000AC2   8B48               STD     Y+16, R20
   \   00000AC4   8B59               STD     Y+17, R21
   \   00000AC6   8172               LDD     R23, Z+2
   \   00000AC8   01FA               MOVW    R31:R30, R21:R20
   \   00000ACA   8143               LDD     R20, Z+3
   \   00000ACC   8348               ST      Y, R20
   \   00000ACE   8379               STD     Y+1, R23
   \   00000AD0   8174               LDD     R23, Z+4
   \   00000AD2   8145               LDD     R20, Z+5
   \   00000AD4   834C               STD     Y+4, R20
   \   00000AD6   837D               STD     Y+5, R23
   4490                          kol =((unsigned int)* (mobus.point_in+ mobus.smest_to_elam + mobus.index_elam+4)<<8)+(unsigned int)* (mobus.point_in + mobus.smest_to_elam + mobus.index_elam+5);
   4491             mobus.point_out_save=mobus.point_out; // ńîőđŕíčňü óęŕçŕňĺëü 
   \   00000AD8   814A               LDD     R20, Y+2
   \   00000ADA   815B               LDD     R21, Y+3
   \   00000ADC   01FE               MOVW    R31:R30, R29:R28
   \   00000ADE   96FF               ADIW    R31:R30, 63
   \   00000AE0   8345               STD     Z+5, R20
   \   00000AE2   8356               STD     Z+6, R21
   4492             
   4493             
   4494             //**************************??????
   4495             /*
   4496                                            {
   4497                                               send_err485(NUM_RS485_1,RS_DATA_ERR,buf_rx_ppp[TR_ID],*(unsigned int*)&buf_rx_ppp[TR_SRC]);
   4498                                               return(0);  // âűőîä ďî îřčáęĺ
   4499                                             }
   4500                                             */
   4501            //**************************??????
   4502                                        
   4503                                        
   4504                                     switch(ii)
   \   00000AE4   01B9               MOVW    R23:R22, R19:R18
   \   00000AE6   5F6A               SUBI    R22, 250
   \   00000AE8   4F7F               SBCI    R23, 255
   \   00000AEA   5F28               SUBI    R18, 248
   \   00000AEC   4F3F               SBCI    R19, 255
   \   00000AEE   01F4               MOVW    R31:R30, R9:R8
   \   00000AF0   9731               SBIW    R31:R30, 1
   \   00000AF2   F081               BREQ    ??proc_udp_data_92
   \   00000AF4   9732               SBIW    R31:R30, 2
   \   00000AF6   F409               BRNE    $+2+2
   \   00000AF8   C050               RJMP    ??proc_udp_data_93
   \   00000AFA   9731               SBIW    R31:R30, 1
   \   00000AFC   F409               BRNE    $+2+2
   \   00000AFE   C04D               RJMP    ??proc_udp_data_93
   \   00000B00   9731               SBIW    R31:R30, 1
   \   00000B02   F409               BRNE    $+2+2
   \   00000B04   C244               RJMP    ??proc_udp_data_94
   \   00000B06   9731               SBIW    R31:R30, 1
   \   00000B08   F409               BRNE    $+2+2
   \   00000B0A   C2AA               RJMP    ??proc_udp_data_95
   \   00000B0C   973A               SBIW    R31:R30, 10
   \   00000B0E   F409               BRNE    $+2+2
   \   00000B10   C390               RJMP    ??proc_udp_data_96
   \   00000B12   CA83               RJMP    ??proc_udp_data_1
   4505                                         {
   4506                                           case 1:
   4507                                            
   4508                                             
   4509                                               if (mobus.flag_elam==1) mobus.smest_to_elam =1;
   \                     ??proc_udp_data_92:
   \   00000B14   ....               RCALL   ?Subroutine92
   4510                                               else mobus.smest_to_elam =0;
   4511                                               
   4512                                                // îćčäŕĺěîĺ ęîëč÷ĺńňâî áŕéň â âűőîäíîé áóôĺđ
   4513                                             mobus.overall+=4 + mobus.smest_to_elam + 2;
   \                     ??CrossCallReturnLabel_616:
   \   00000B16   E030               LDI     R19, 0
   \   00000B18   0189               MOVW    R17:R16, R19:R18
   \   00000B1A   5F0A               SUBI    R16, 250
   \   00000B1C   ....               RCALL   ?Subroutine139
   4514                                             if(mobus.overall > VOL_TX_PPP ) return(0);  // âűőîä ďî îřčáęĺ
   \                     ??CrossCallReturnLabel_234:
   \   00000B1E   2F15               MOV     R17, R21
   \   00000B20   344D               CPI     R20, 77
   \   00000B22   4014               SBCI    R17, 4
   \   00000B24   F008               BRCS    $+2+2
   \   00000B26   CA79               RJMP    ??proc_udp_data_1
   4515                                             // îćčäŕĺěîĺ ęîëč÷ĺńňâî áŕéň â âűőîäíîé áóôĺđ
   4516                                             
   4517                                             *mobus.point_out++=*(mobus.point_in + mobus.index_elam);
   \   00000B28   ....               RCALL   ?Subroutine155
   4518            if (mobus.flag_elam==1) *mobus.point_out++=*(mobus.point_in+mobus.index_elam+mobus.smest_to_elam);
   \                     ??CrossCallReturnLabel_788:
   \   00000B2A   F429               BRNE    ??CrossCallReturnLabel_477
   \   00000B2C   0F82               ADD     R24, R18
   \   00000B2E   1D99               ADC     R25, R9
   \   00000B30   01FC               MOVW    R31:R30, R25:R24
   \   00000B32   8140               LD      R20, Z
   \   00000B34   ....               RCALL   ?Subroutine229
   4519            *mobus.point_out++=1;
   \                     ??CrossCallReturnLabel_477:
   \   00000B36   E041               LDI     R20, 1
   \   00000B38   ....               RCALL   ?Subroutine229
   4520            *mobus.point_out++=1;
   \                     ??CrossCallReturnLabel_478:
   \   00000B3A   ....               RCALL   ??Subroutine229_0
   4521            mobus.input_tu=0;
   \                     ??CrossCallReturnLabel_479:
   \   00000B3C   E040               LDI     R20, 0
   4522                                              if (crc==MB_TU1)
   \   00000B3E   ........           CALL    ??Subroutine38_1
   \                     ??CrossCallReturnLabel_66:
   \   00000B42   3000               CPI     R16, 0
   \   00000B44   E052               LDI     R21, 2
   \   00000B46   0715               CPC     R17, R21
   \   00000B48   F431               BRNE    ??proc_udp_data_97
   4523                                                {
   4524            if(PORTA & IO11) mobus.input_tu=mobus.input_tu | 1;
   \   00000B4A   9914               SBIC    0x02, 0x04
   \   00000B4C   E041               LDI     R20, 1
   4525            if(PORTA & IO12) mobus.input_tu=mobus.input_tu | 2;
   \                     ??proc_udp_data_98:
   \   00000B4E   9B13               SBIS    0x02, 0x03
   \   00000B50   C007               RJMP    ??proc_udp_data_99
   \   00000B52   6042               ORI     R20, 0x02
   \   00000B54   C005               RJMP    ??proc_udp_data_99
   4526                                                }
   4527                                             
   4528                                              if (crc==MB_TU2)
   \                     ??proc_udp_data_97:
   \   00000B56   3001               CPI     R16, 1
   \   00000B58   4012               SBCI    R17, 2
   \   00000B5A   F411               BRNE    ??proc_udp_data_99
   4529                                                {
   4530                                             if(PORTA & IO12) mobus.input_tu=mobus.input_tu | 1;
   \   00000B5C   9913               SBIC    0x02, 0x03
   \   00000B5E   E041               LDI     R20, 1
   4531                                                }
   4532                                             
   4533                                             *mobus.point_out++=mobus.input_tu;
   \                     ??proc_udp_data_99:
   \   00000B60   ....               RCALL   ??Subroutine229_0
   4534                                              Obj_ppp_tx.l_data=4 + mobus.smest_to_elam; 
   \                     ??CrossCallReturnLabel_480:
   \   00000B62   5F2C               SUBI    R18, 252
   \   00000B64   ....               RCALL   ?Subroutine70
   4535                                             
   4536                                        //  *(unsigned int*)&buf_tx_232[TR_OP_DATA+C1_DATA+Obj_ppp_tx.l_data]=crc_m1(&buf_tx_232[TR_OP_DATA+C1_DATA],Obj_ppp_tx.l_data,0xffff);
   4537                                             mobus.modbus_crc_new=crc_m1(mobus.point_out-Obj_ppp_tx.l_data, Obj_ppp_tx.l_data, 0xffff); 
   \                     ??CrossCallReturnLabel_115:
   \   00000B66   01B9               MOVW    R23:R22, R19:R18
   \   00000B68   ....               RCALL   ?Subroutine293
   \                     ??CrossCallReturnLabel_658:
   \   00000B6A   810A               LDD     R16, Y+2
   \   00000B6C   811B               LDD     R17, Y+3
   \   00000B6E   9571               NEG     R23
   \   00000B70   9561               NEG     R22
   \   00000B72   4070               SBCI    R23, 0
   \   00000B74   0F06               ADD     R16, R22
   \   00000B76   1F17               ADC     R17, R23
   \                     ??proc_udp_data_100:
   \   00000B78   ....               RCALL   ?Subroutine284
   4538                                             *mobus.point_out++=mobus.modbus_crc_new>>8;
   \                     ??CrossCallReturnLabel_599:
   \   00000B7A   81EA               LDD     R30, Y+2
   \   00000B7C   81FB               LDD     R31, Y+3
   \   00000B7E   9311               ST      Z+, R17
   \   00000B80   ....               RCALL   ?Subroutine262
   4539                                             *mobus.point_out++=mobus.modbus_crc_new;
   \                     ??CrossCallReturnLabel_471:
   \   00000B82   ....               RCALL   ?Subroutine230
   4540                                              mobus.count_out_elam+=Obj_ppp_tx.l_data + 2;   // ďëţń ęîíňđîëüíŕ˙ ńóěěŕ
   \                     ??CrossCallReturnLabel_481:
   \   00000B84   01F5               MOVW    R31:R30, R11:R10
   \   00000B86   8586               LDD     R24, Z+14
   \   00000B88   8597               LDD     R25, Z+15
   \   00000B8A   9602               ADIW    R25:R24, 2
   \   00000B8C   8D0C               LDD     R16, Y+28
   \   00000B8E   8D1D               LDD     R17, Y+29
   \   00000B90   0F08               ADD     R16, R24
   \   00000B92   1F19               ADC     R17, R25
   \   00000B94   8F0C               STD     Y+28, R16
   \   00000B96   8F1D               STD     Y+29, R17
   \   00000B98   C4E0               RJMP    ??CrossCallReturnLabel_649
   4541             
   4542            
   4543          
   4544                                                break; 
   4545                                             
   4546                                            
   4547                                             /*  ńňŕđűé îáđŕáîň÷čę
   4548                                                buf_tx_232[TR_OP_DATA+C1_DATA+2]=1;
   4549                                                buf_tx_232[TR_OP_DATA+C1_DATA+3]=0;
   4550                                                
   4551                                                if (crc==MB_TU1)
   4552                                                {
   4553                                                  if(PORTA & IO11) buf_tx_232[TR_OP_DATA+C1_DATA+3]=buf_tx_232[TR_OP_DATA+C1_DATA+3] | 0x01;
   4554                                                  if(PORTA & IO12) buf_tx_232[TR_OP_DATA+C1_DATA+3]=buf_tx_232[TR_OP_DATA+C1_DATA+3] | 0x02;
   4555                                                }
   4556                                                
   4557                                                if (crc==MB_TU2)
   4558                                                {
   4559                                                  if(PORTA & IO12) buf_tx_232[TR_OP_DATA+C1_DATA+3]=buf_tx_232[TR_OP_DATA+C1_DATA+3] | 0x01;
   4560                                                }
   4561                                                
   4562                                                Obj_ppp_tx.l_data=4;    
   4563                                                break; 
   4564                                               */  
   4565                                                  
   4566                                           case 3:
   4567                                           case 4:
   4568                                              if (mobus.flag_elam==1) mobus.smest_to_elam =1;
   \                     ??proc_udp_data_93:
   \   00000B9A   ....               RCALL   ?Subroutine92
   4569                                               else mobus.smest_to_elam =0;
   4570                                               // îćčäŕĺěîĺ ęîëč÷ĺńňâî áŕéň â âűőîäíîé áóôĺđ
   4571                                             mobus.overall+=3+(kol*2) + (mobus.smest_to_elam*2) + 2;
   \                     ??CrossCallReturnLabel_617:
   \   00000B9C   ....               RCALL   ?Subroutine196
   \                     ??CrossCallReturnLabel_304:
   \   00000B9E   ....               RCALL   ?Subroutine261
   \                     ??CrossCallReturnLabel_458:
   \   00000BA0   A30C               STD     Y+36, R16
   \   00000BA2   A31D               STD     Y+37, R17
   \   00000BA4   E030               LDI     R19, 0
   \   00000BA6   0189               MOVW    R17:R16, R19:R18
   \   00000BA8   ....               RCALL   ?Subroutine261
   \                     ??CrossCallReturnLabel_459:
   \   00000BAA   A30E               STD     Y+38, R16
   \   00000BAC   A31F               STD     Y+39, R17
   \   00000BAE   01A8               MOVW    R21:R20, R17:R16
   \   00000BB0   A10C               LDD     R16, Y+36
   \   00000BB2   A11D               LDD     R17, Y+37
   \   00000BB4   ....               RCALL   ?Subroutine176
   \                     ??CrossCallReturnLabel_500:
   \   00000BB6   5F0B               SUBI    R16, 251
   \   00000BB8   ....               RCALL   ?Subroutine139
   4572                                             
   4573                                             
   4574                                             if(mobus.overall > VOL_TX_PPP ) 
   \                     ??CrossCallReturnLabel_235:
   \   00000BBA   344D               CPI     R20, 77
   \   00000BBC   4054               SBCI    R21, 4
   \   00000BBE   F030               BRCS    ??proc_udp_data_101
   4575                                             {
   4576                                               send_err485(NUM_RS485_1,RS_DATA_ERR,buf_rx_ppp[TR_ID],*(unsigned int*)&buf_rx_ppp[TR_SRC]);
   \                     ??proc_udp_data_17:
   \   00000BC0   01FD               MOVW    R31:R30, R27:R26
   \   00000BC2   8D46               LDD     R20, Z+30
   \   00000BC4   8D57               LDD     R21, Z+31
   \   00000BC6   A125               LDD     R18, Z+37
   \   00000BC8   E016               LDI     R17, 6
   \   00000BCA   CB1B               RJMP    ??proc_udp_data_19
   4577                                               return(0);  // âűőîä ďî îřčáęĺ
   4578                                             }
   4579                                             
   4580                                             // îćčäŕĺěîĺ ęîëč÷ĺńňâî áŕéň â âűőîäíîé áóôĺđ
   4581                                             
   4582                                             *mobus.point_out++ = *(mobus.point_in + mobus.index_elam);
   \                     ??proc_udp_data_101:
   \   00000BCC   ....               RCALL   ?Subroutine155
   4583                                             if (mobus.flag_elam==1) *mobus.point_out++=*(mobus.point_in+mobus.index_elam + mobus.smest_to_elam);
   \                     ??CrossCallReturnLabel_789:
   \   00000BCE   F429               BRNE    ??CrossCallReturnLabel_474
   \   00000BD0   0F82               ADD     R24, R18
   \   00000BD2   1D99               ADC     R25, R9
   \   00000BD4   01FC               MOVW    R31:R30, R25:R24
   \   00000BD6   8120               LD      R18, Z
   \   00000BD8   ....               RCALL   ?Subroutine228
   4584                                             *mobus.point_out++=ii;
   \                     ??CrossCallReturnLabel_474:
   \   00000BDA   81EA               LDD     R30, Y+2
   \   00000BDC   81FB               LDD     R31, Y+3
   \   00000BDE   9281               ST      Z+, R8
   \   00000BE0   ....               RCALL   ?Subroutine262
   4585                                             if (mobus.flag_elam==1) *mobus.point_out++=(kol*2) >>8;
   \                     ??CrossCallReturnLabel_472:
   \   00000BE2   8508               LDD     R16, Y+8
   \   00000BE4   3001               CPI     R16, 1
   \   00000BE6   F429               BRNE    ??CrossCallReturnLabel_482
   \   00000BE8   ....               RCALL   ?Subroutine196
   \                     ??CrossCallReturnLabel_305:
   \   00000BEA   0F00               LSL     R16
   \   00000BEC   2F01               MOV     R16, R17
   \   00000BEE   1F00               ROL     R16
   \   00000BF0   ....               RCALL   ?Subroutine230
   4586                                             *mobus.point_out++=(kol*2);
   \                     ??CrossCallReturnLabel_482:
   \   00000BF2   812C               LDD     R18, Y+4
   \   00000BF4   0F22               LSL     R18
   \   00000BF6   ....               RCALL   ?Subroutine228
   4587                                             
   4588                                             
   4589                                              /////buf_tx_232[TR_OP_DATA+C1_DATA+2]=buf_rx_ppp[offset+C1_DATA+13] << 1;//byte_count
   4590                                              
   4591                                              *(unsigned long int*)&modbus_mem1[AD_TIME]=burst_ds_r();
   \                     ??CrossCallReturnLabel_475:
   \   00000BF8   ........           CALL    burst_ds_r
   \   00000BFC   ....               RCALL   ?Subroutine232
   \                     ??CrossCallReturnLabel_345:
   \   00000BFE   AF24               STD     Z+60, R18
   \   00000C00   AF35               STD     Z+61, R19
   4592                                              length=modbus_mem1[AD_TIME+1];
   \   00000C02   832E               STD     Y+6, R18
   \   00000C04   833F               STD     Y+7, R19
   4593                                              modbus_mem1[AD_TIME+1]=modbus_mem1[AD_TIME];
   \   00000C06   AD02               LDD     R16, Z+58
   \   00000C08   AD13               LDD     R17, Z+59
   \   00000C0A   ....               LDI     R30, LOW((modbus_mem1 + 60))
   \   00000C0C   ....               LDI     R31, HIGH((modbus_mem1 + 60))
   \   00000C0E   ....               RCALL   ?Subroutine292
   4594                                              modbus_mem1[AD_TIME]=length;
   \                     ??CrossCallReturnLabel_641:
   \   00000C10   ....               RCALL   ?Subroutine219
   \                     ??CrossCallReturnLabel_336:
   \   00000C12   ....               RCALL   ?Subroutine232
   4595                                              
   4596                                              /////////////////////////////////!!!!!!!!!!!!!!!!!!!!!!!!!!!!
   4597                                              /////////////////////////////////!!!!!!!!!!!!!!!!!!!!!!!!!!!!
   4598                                              for(ii=0;ii<kol;ii++)
   \                     ??CrossCallReturnLabel_346:
   \   00000C14   2488               CLR     R8
   \   00000C16   C006               RJMP    ??CrossCallReturnLabel_268
   4599                                              { 
   4600                                             // *(unsigned int*)&buf_tx_232[TR_OP_DATA+C1_DATA+3+(ii<<1)]=0;
   4601                                                
   4602                                             *(unsigned int*)(mobus.point_out +(ii<<1))=0;
   4603                                              if((crc+ii)==0)//íóëĺâîé ŕäđĺń ňŕě ńâîč ňń, äë˙ ńîâěĺńňčěîńňč
   4604                                              {
   4605                                              *mobus.point_out++=0; //  buf_tx_232[TR_OP_DATA+C1_DATA+3]=0;
   4606                                              *mobus.point_out++=(sv1.tc & 0x01) | ((sv2.tc & 0x01)<<1);//  buf_tx_232[TR_OP_DATA+C1_DATA+4]=(sv1.tc & 0x01) | ((sv2.tc & 0x01)<<1);
   4607                                              }
   4608                                              
   4609                         
   4610                                              if(((crc+ii)>=BEGIN_SEG7)&&((crc+ii)<=END_SEG7))
   4611                                              {
   4612                                               
   4613                                                old_unix=hash_tabletka2();
   4614                                                for(i=0;i<12;i++)buf_tx_232[570+i]=new_version[i];
   4615                                                buf_tx_232[570+i++]=old_unix;
   4616                                                buf_tx_232[570+i++]=old_unix>>8;
   4617                                                buf_tx_232[570+i++]=old_unix>>16;
   4618                                                buf_tx_232[570+i++]=old_unix>>24;  
   4619                                                WrArrayToFlesh(A_SEG7,&buf_tx_232[570],16,0,0); 
   4620                                                
   4621                                                
   4622                                                
   4623                                                if((crc+kol-1)<=END_SEG7)
   4624                                                    {
   4625               
   4626                                                    RdFromFleshToArr(A_SEG7+(crc+ii-BEGIN_SEG7)*2,&buf_tx_232[600],(kol-ii)*2);
   4627                                                    //for(k=0;k<(kol-ii);k++) *(unsigned int*)&buf_tx_232[TR_OP_DATA+C1_DATA+3+(ii<<1)+(k<<1)]=swap(*(unsigned int*)&buf_tx_232[600+(k<<1)]);
   4628                        ///// for(k=0;k<(kol-ii);k++) *(unsigned int*)&buf_tx_232[TR_OP_DATA+C1_DATA+3+(ii<<1)+(k<<1)]=*(unsigned int*)&buf_tx_232[600+(k<<1)];
   4629                                                 
   4630                         for(k=0;k<(kol-ii);k++) *(unsigned int*)(mobus.point_out +(ii<<1)+(k<<1)) =*(unsigned int*)&buf_tx_232[600+(k<<1)];
   4631                                                    ii=kol;
   4632                                                    }
   4633                                                  
   4634                                                else
   4635                                                    {  
   4636                                            
   4637                                                    RdFromFleshToArr(A_SEG7+(crc+ii-BEGIN_SEG7)*2,&buf_tx_232[600],(END_SEG7-(crc+ii)+1)*2);  
   4638                                                  //  for(k=0;k<(END_SEG7-(crc+ii)+1);k++) *(unsigned int*)&buf_tx_232[TR_OP_DATA+C1_DATA+3+(ii<<1)+(k<<1)]=swap(*(unsigned int*)&buf_tx_232[600+(k<<1)]);
   4639                      /////  for(k=0;k<(END_SEG7-(crc+ii)+1);k++) *(unsigned int*)&buf_tx_232[TR_OP_DATA+C1_DATA+3+(ii<<1)+(k<<1)]=*(unsigned int*)&buf_tx_232[600+(k<<1)];
   4640                                                    
   4641                         for(k=0;k<(END_SEG7-(crc+ii)+1);k++) *(unsigned int*)(mobus.point_out +(ii<<1)+(k<<1))=*(unsigned int*)&buf_tx_232[600+(k<<1)];
   4642                                                    ii=END_SEG7-crc;
   4643                                                    }
   4644                                                
   4645                                                
   4646                                              }   
   4647                                              
   4648                                              
   4649                                                 if(((crc+ii)>=BEGIN_SEG9)&&((crc+ii)<=END_SEG9))
   4650                                              {
   4651                                               
   4652                                                if((crc+kol-1)<=END_SEG9)
   4653                                                    {
   4654               
   4655                                                    RdFromFleshToArr(A_SEG9+(crc+ii-BEGIN_SEG9)*2,&buf_tx_232[1000],(kol-ii)*2);
   4656                                                    for(k=0;k<(kol-ii);k++) *(unsigned int*)(mobus.point_out+(ii<<1)+(k<<1))=swap(*(unsigned int*)&buf_tx_232[1000+(k<<1)]);
   4657                                                    ii=kol;
   4658                                                    }
   4659                                                  
   4660                                                else
   4661                                                    {  
   4662                                            
   4663                                                    RdFromFleshToArr(A_SEG9+(crc+ii-BEGIN_SEG9)*2,&buf_tx_232[1000],(END_SEG9-(crc+ii)+1)*2);  
   4664                                                    for(k=0;k<(END_SEG9-(crc+ii)+1);k++) *(unsigned int*)(mobus.point_out+(ii<<1)+(k<<1))=swap(*(unsigned int*)&buf_tx_232[1000+(k<<1)]);
   4665                                                    ii=END_SEG9-crc;
   4666                                                    }
   4667                                                
   4668                                                
   4669                                              }   
   4670                                              /// âńňŕâęŕ ĂÇÓ 9/03/16
   4671                                               if(((crc+ii)>=BEGIN_SEG99)&&((crc+ii)<=END_SEG99))
   4672                                              {
   4673                                               
   4674                                                if((crc+kol-1)<=END_SEG99)
   4675                                                    {
   4676               
   4677                                                    RdFromFleshToArr(A_SEG99+(crc+ii-BEGIN_SEG99)*2,&buf_tx_232[1000],(kol-ii)*2);
   4678                                                    for(k=0;k<(kol-ii);k++) *(unsigned int*)(mobus.point_out+(ii<<1)+(k<<1))=swap(*(unsigned int*)&buf_tx_232[1000+(k<<1)]);
   4679                                                    ii=kol;
   4680                                                    }
   4681                                                  
   4682                                                else
   4683                                                    {  
   4684                                            
   4685                                                    RdFromFleshToArr(A_SEG99+(crc+ii-BEGIN_SEG99)*2,&buf_tx_232[1000],(END_SEG99-(crc+ii)+1)*2);  
   4686                                                    for(k=0;k<(END_SEG99-(crc+ii)+1);k++) *(unsigned int*)(mobus.point_out+(ii<<1)+(k<<1))=swap(*(unsigned int*)&buf_tx_232[1000+(k<<1)]);
   4687                                                    ii=END_SEG99-crc;
   4688                                                    }
   4689                                                
   4690                                                
   4691                                              }   
   4692                                              ///
   4693          
   4694                                              if(((crc+ii)>=BEGIN_SEG1)&&((crc+ii)<=END_SEG1))
   4695                                              {
   4696                                                *(unsigned int*)(mobus.point_out+(ii<<1))=swap(modbus_mem1[crc+ii-BEGIN_SEG1]);
   4697                                                if((crc+ii)==MB_IND_DNS)
   4698                                                {
   4699                                                  if(modbus_mem1[AD_IND_DNS]==0) *(unsigned int*)(mobus.point_out+(ii<<1))=swap(99);
   4700                                                    else *(unsigned int*)(mobus.point_out+(ii<<1))=swap(modbus_mem1[AD_IND_DNS]-1);
   4701                                                }
   4702                                                ////
   4703                                                if((crc+ii)==MB_IND_GZU)
   4704                                                {
   4705                                                  if(modbus_mem1[AD_IND_GZU]==0) *(unsigned int*)(mobus.point_out+(ii<<1))=swap(54);
   4706                                                    else *(unsigned int*)(mobus.point_out+(ii<<1))=swap(modbus_mem1[AD_IND_GZU]-1);
   4707                                                }
   4708                                                
   4709                                               
   4710                                              }
   4711               
   4712                                              if((crc+ii)==MB_SEC)*(unsigned int*)(mobus.point_out+(ii<<1))=swap(real_time.r_sec);
   4713                                              if((crc+ii)==MB_MIN)*(unsigned int*)(mobus.point_out+(ii<<1))=swap(real_time.r_min);
   4714                                              if((crc+ii)==MB_HR)*(unsigned int*)(mobus.point_out+(ii<<1))=swap(real_time.r_hor);
   4715                                              if((crc+ii)==MB_DAY)*(unsigned int*)(mobus.point_out+(ii<<1))=swap(real_time.r_date);
   4716                                              if((crc+ii)==MB_MONTH)*(unsigned int*)(mobus.point_out+(ii<<1))=swap(real_time.r_month);
   4717                                              if((crc+ii)==MB_YEAR)*(unsigned int*)(mobus.point_out+(ii<<1))=swap(real_time.r_year);
   4718          
   4719                                              
   4720                                              if(((crc+ii)>=BEGIN_SEG3)&&((crc+ii)<=END_SEG3))
   4721                                              {
   4722                                               
   4723                                                if((crc+kol-1)<=END_SEG3)
   4724                                                    {
   4725               
   4726                                                    RdFromFleshToArr(A_SEG3+(crc+ii-BEGIN_SEG3)*2,&buf_tx_232[1000],(kol-ii)*2);
   4727                                                    for(k=0;k<(kol-ii);k++) *(unsigned int*)(mobus.point_out+(ii<<1)+(k<<1))=swap(*(unsigned int*)&buf_tx_232[1000+(k<<1)]);
   4728                                                    ii=kol;
   4729                                                    }
   4730                                                  
   4731                                                else
   4732                                                    {  
   4733                                            
   4734                                                    RdFromFleshToArr(A_SEG3+(crc+ii-BEGIN_SEG3)*2,&buf_tx_232[1000],(END_SEG3-(crc+ii)+1)*2);  
   4735                                                    for(k=0;k<(END_SEG3-(crc+ii)+1);k++) *(unsigned int*)(mobus.point_out+(ii<<1)+(k<<1))=swap(*(unsigned int*)&buf_tx_232[1000+(k<<1)]);
   4736                                                    ii=END_SEG3-crc;
   4737                                                    }
   4738                                                
   4739                                                
   4740                                              }   
   4741                                              
   4742                                              
   4743                                               if(((crc+ii)>=BEGIN_SEG8)&&((crc+ii)<=END_SEG8))
   4744                                              {
   4745                                               
   4746                                                if((crc+kol-1)<=END_SEG8)
   4747                                                    {
   4748               
   4749                                             // 28 12 2019       RdFromFleshToArr(A_SEG8+(crc+ii-BEGIN_SEG8)*2,&buf_tx_232[1000],(kol-ii)*2);
   4750                                                      tc_cfgPoint=(unsigned int*)&buf_tx_232[1000];
   4751                                                    for(k=0; k<(kol-ii); k++) *tc_cfgPoint++ = c_config_tc[crc+ii-BEGIN_SEG8 + k];
   4752                                                    for(k=0;k<(kol-ii);k++) *(unsigned int*)(mobus.point_out+(ii<<1)+(k<<1))=swap(*(unsigned int*)&buf_tx_232[1000+(k<<1)]);
   4753                                                    ii=kol;
   4754                                                    }
   4755                                                  
   4756                                                else
   4757                                                    {  
   4758                                            
   4759                                               // 28 12 2019 RdFromFleshToArr(A_SEG8+(crc+ii-BEGIN_SEG8)*2,&buf_tx_232[1000],(END_SEG8-(crc+ii)+1)*2); 
   4760                                                    tc_cfgPoint=(unsigned int*)&buf_tx_232[1000];
   4761                                                    for(k=0; k<(END_SEG8-(crc+ii)+1); k++) *tc_cfgPoint++ = c_config_tc[crc+ii-BEGIN_SEG8 + k];
   4762                                                    for(k=0;k<(END_SEG8-(crc+ii)+1);k++) *(unsigned int*)(mobus.point_out+(ii<<1)+(k<<1))=swap(*(unsigned int*)&buf_tx_232[1000+(k<<1)]);
   4763                                                    ii=END_SEG8-crc;
   4764                                                    }
   4765                                                
   4766                                                
   4767                                              }   
   4768                                              
   4769                                              
   4770                                              
   4771                                              if(((crc+ii)>=BEGIN_SEG6)&&((crc+ii)<=END_SEG6))
   4772                                              {
   4773                                               
   4774                                                if((crc+kol-1)<=END_SEG6)
   4775                                                    {
   4776               
   4777                                                   // RdFromFleshToArr(A_SEG6+(crc+ii-BEGIN_SEG6)*2,&buf_tx_232[600],(kol-ii)*2);
   4778                                                   // ÷čňŕţ ďî îäíîěó ńëîâó č óďŕęîâóţ â âűőîäíîé ěŕńńčâ
   4779                                                   // číŕ÷ĺ ďđîčńőîäčň ďĺđĺďîëíĺíčĺ ěŕńńčâŕ !!!! 4 10 2021
   4780                                                    
   4781                                                    for(k=0;k<(kol-ii);k++) 
   4782                                                    {
   4783                                                      RdFromFleshToArr(A_SEG6 + (k + crc + ii - BEGIN_SEG6)*2, &flashka[0], 2);
   4784                                                      *(unsigned int*)(mobus.point_out+(ii<<1)+(k<<1))=swap(*(unsigned int*)&flashka[0]);
   4785                                                    //  *(unsigned int*)(mobus.point_out+(ii<<1)+(k<<1))=swap(*(unsigned int*)&buf_tx_232[600+(k<<1)]);
   4786                                                    }
   4787                                                    
   4788                                                    
   4789                                                    ii=kol;
   4790                                                    }
   4791                                                  
   4792                                                else
   4793                                                    {  
   4794                                            
   4795                                                   // RdFromFleshToArr(A_SEG6+(crc+ii-BEGIN_SEG6)*2,&buf_tx_232[600],(END_SEG6-(crc+ii)+1)*2);  
   4796                                                    for(k=0;k<(END_SEG6-(crc+ii)+1);k++)
   4797                                                    {
   4798                                                       RdFromFleshToArr(A_SEG6+(k + crc+ii-BEGIN_SEG6)*2,&flashka[0],2);  
   4799                                                      *(unsigned int*)(mobus.point_out+(ii<<1)+(k<<1))=swap(*(unsigned int*)&flashka[0]);
   4800                                                      //*(unsigned int*)(mobus.point_out+(ii<<1)+(k<<1))=swap(*(unsigned int*)&buf_tx_232[600+(k<<1)]);
   4801                                                    }
   4802                                                    ii=END_SEG6-crc;
   4803                                                    }
   4804                                                
   4805                                                
   4806                                              }   
   4807                                              
   4808                                              
   4809                                              if(((crc+ii)>=BEGIN_SEG5)&&((crc+ii)<=END_SEG5))
   4810                                              {
   4811                                               
   4812                                                if((crc+kol-1)<=END_SEG5)
   4813                                                    {
   4814                                                   // RdFromFleshToArr(A_SEG5+(crc+ii-BEGIN_SEG5)*2,&buf_tx_232[700],(kol-ii)*2);
   4815                                                   // ÷čňŕţ ďî îäíîěó ńëîâó č óďŕęîâóţ â âűőîäíîé ěŕńńčâ
   4816                                                   // číŕ÷ĺ ďđîčńőîäčň ďĺđĺďîëíĺíčĺ ěŕńńčâŕ !!!! 4 10 2021
   4817                                                    for(k=0;k<(kol-ii);k++) 
   4818                                                    {
   4819                                                    
   4820                                                      RdFromFleshToArr(A_SEG5 + (k + crc + ii-BEGIN_SEG5)*2,&flashka[0],2);
   4821                                                      *(unsigned int*)(mobus.point_out+(ii<<1)+(k<<1))=swap(*(unsigned int*)&flashka[0]);
   4822                                                     // *(unsigned int*)(mobus.point_out+(ii<<1)+(k<<1))=swap(*(unsigned int*)&buf_tx_232[700+(k<<1)]);
   4823                                                    }
   4824                                                    ii=kol;
   4825                                                    }
   4826                                                    else
   4827                                                    {  
   4828                                                  //  RdFromFleshToArr(A_SEG5+(crc+ii-BEGIN_SEG5)*2,&buf_tx_232[700],(END_SEG5-(crc+ii)+1)*2);  
   4829                                                    for(k=0;k<(END_SEG5-(crc+ii)+1);k++) 
   4830                                                    {
   4831                                                      RdFromFleshToArr(A_SEG5+(k + crc+ii-BEGIN_SEG5)*2,&flashka[0],2);  
   4832                                                      *(unsigned int*)(mobus.point_out+(ii<<1)+(k<<1))=swap(*(unsigned int*)&flashka[0]);
   4833                                                     // *(unsigned int*)(mobus.point_out+(ii<<1)+(k<<1))=swap(*(unsigned int*)&buf_tx_232[700+(k<<1)]);
   4834                                                    }
   4835                                                    ii=END_SEG5-crc;
   4836                                                    }
   4837                                                
   4838                                              }
   4839                                              
   4840                                                ///////////////!!!!!!!!!!!!!!!!!!!!!!!!!!!!!!!!!!!!!!!!!! ÷ňĺíčĺ ŕđőčâîâ ĂÇÓ
   4841                                               if(((crc+ii)>=BEGIN_SEG55)&&((crc+ii)<=END_SEG55))
   4842                                              {
   4843                                               
   4844                                                if((crc+kol-1)<=END_SEG55)
   4845                                                    {
   4846                                                   // RdFromFleshToArr(STRUCT_US +(crc+ii-BEGIN_SEG55)*2,&buf_tx_232[700],(kol-ii)*2);
   4847                                                   // ÷čňŕţ ďî îäíîěó ńëîâó č óďŕęîâóţ â âűőîäíîé ěŕńńčâ
   4848                                                   // číŕ÷ĺ ďđîčńőîäčň ďĺđĺďîëíĺíčĺ ěŕńńčâŕ !!!! 4 10 2021
   4849                                                    for(k=0;k<(kol-ii);k++)
   4850                                                    {
   4851                                                      RdFromFleshToArr(STRUCT_US +(k + crc + ii-BEGIN_SEG55)*2,&flashka[0],2);
   4852                                                       *(unsigned int*)(mobus.point_out+(ii<<1)+(k<<1))=swap(*(unsigned int*)&flashka[0]);
   4853                                                      //*(unsigned int*)(mobus.point_out+(ii<<1)+(k<<1))=swap(*(unsigned int*)&buf_tx_232[700+(k<<1)]);
   4854                                                    }
   4855                                                    ii=kol;
   4856                                                    }
   4857                                                    else
   4858                                                    {  
   4859                                                   // RdFromFleshToArr(STRUCT_US +(crc+ii-BEGIN_SEG55)*2,&buf_tx_232[700],(END_SEG55-(crc+ii)+1)*2);  
   4860                                                    for(k=0;k<(END_SEG55-(crc+ii)+1);k++)
   4861                                                    {
   4862                                                      RdFromFleshToArr(STRUCT_US +(k + crc+ii-BEGIN_SEG55)*2,&flashka[0],2);
   \                     ??proc_udp_data_102:
   \   00000C18   ........           CALL    ?Subroutine12
   4863                                                      *(unsigned int*)(mobus.point_out+(ii<<1)+(k<<1))=swap(*(unsigned int*)&flashka[0]);
   4864                                                    }
   \                     ??CrossCallReturnLabel_632:
   \   00000C1C   ....               RCALL   ?Subroutine295
   \                     ??CrossCallReturnLabel_665:
   \   00000C1E   F3E0               BRCS    ??proc_udp_data_102
   4865                                                      //*(unsigned int*)(mobus.point_out+(ii<<1)+(k<<1))=swap(*(unsigned int*)&buf_tx_232[700+(k<<1)]);
   4866                                                    ii=END_SEG55-crc;
   \   00000C20   0143               MOVW    R9:R8, R7:R6
   \                     ??proc_udp_data_103:
   \   00000C22   ....               RCALL   ?Subroutine164
   \                     ??CrossCallReturnLabel_268:
   \   00000C24   ....               RCALL   ?Subroutine193
   \                     ??CrossCallReturnLabel_302:
   \   00000C26   F008               BRCS    $+2+2
   \   00000C28   C19B               RJMP    ??proc_udp_data_104
   \   00000C2A   812A               LDD     R18, Y+2
   \   00000C2C   813B               LDD     R19, Y+3
   \   00000C2E   ....               RCALL   ?Subroutine231
   \                     ??CrossCallReturnLabel_468:
   \   00000C30   0F20               ADD     R18, R16
   \   00000C32   1F31               ADC     R19, R17
   \   00000C34   832E               STD     Y+6, R18
   \   00000C36   833F               STD     Y+7, R19
   \   00000C38   E020               LDI     R18, 0
   \   00000C3A   81EE               LDD     R30, Y+6
   \   00000C3C   2FF3               MOV     R31, R19
   \   00000C3E   8320               ST      Z, R18
   \   00000C40   8321               STD     Z+1, R18
   \   00000C42   ........           CALL    ?Subroutine35
   \                     ??CrossCallReturnLabel_56:
   \   00000C46   01C8               MOVW    R25:R24, R17:R16
   \   00000C48   0D88               ADD     R24, R8
   \   00000C4A   1D99               ADC     R25, R9
   \   00000C4C   2F08               MOV     R16, R24
   \   00000C4E   2B09               OR      R16, R25
   \   00000C50   F461               BRNE    ??proc_udp_data_105
   \   00000C52   ....               RCALL   ?Subroutine228
   \                     ??CrossCallReturnLabel_476:
   \   00000C54   9100....           LDS     R16, sv1
   \   00000C58   7001               ANDI    R16, 0x01
   \   00000C5A   9110....           LDS     R17, sv2
   \   00000C5E   FB10               BST     R17, 0
   \   00000C60   F921               BLD     R18, 1
   \   00000C62   2B20               OR      R18, R16
   \   00000C64   9321               ST      Z+, R18
   \   00000C66   ....               RCALL   ?Subroutine262
   \                     ??CrossCallReturnLabel_473:
   \   00000C68   C04B               RJMP    ??proc_udp_data_106
   \                     ??proc_udp_data_105:
   \   00000C6A   3380               CPI     R24, 48
   \   00000C6C   0792               CPC     R25, R18
   \   00000C6E   F408               BRCC    $+2+2
   \   00000C70   C047               RJMP    ??proc_udp_data_106
   \   00000C72   3388               CPI     R24, 56
   \   00000C74   0792               CPC     R25, R18
   \   00000C76   F008               BRCS    $+2+2
   \   00000C78   C043               RJMP    ??proc_udp_data_106
   \   00000C7A   ........           CALL    hash_tabletka2
   \   00000C7E   0128               MOVW    R5:R4, R17:R16
   \   00000C80   2E73               MOV     R7, R19
   \   00000C82   24CC               CLR     R12
   \                     ??proc_udp_data_107:
   \   00000C84   E030               LDI     R19, 0
   \   00000C86   ....               LDI     R30, LOW(new_version)
   \   00000C88   ....               LDI     R31, (new_version) >> 8
   \   00000C8A   0DEC               ADD     R30, R12
   \   00000C8C   1FF3               ADC     R31, R19
   \   00000C8E   9114               LPM     R17, Z
   \   00000C90   01F7               MOVW    R31:R30, R15:R14
   \   00000C92   5CE6               SUBI    R30, 198
   \   00000C94   4FFD               SBCI    R31, 253
   \   00000C96   0DEC               ADD     R30, R12
   \   00000C98   1FF3               ADC     R31, R19
   \   00000C9A   8310               ST      Z, R17
   \   00000C9C   94C3               INC     R12
   \   00000C9E   E00C               LDI     R16, 12
   \   00000CA0   16C0               CP      R12, R16
   \   00000CA2   F380               BRCS    ??proc_udp_data_107
   \   00000CA4   24DD               CLR     R13
   \   00000CA6   ....               RCALL   ??Subroutine170_0
   \                     ??CrossCallReturnLabel_272:
   \   00000CA8   8240               ST      Z, R4
   \   00000CAA   ....               RCALL   ?Subroutine170
   \                     ??CrossCallReturnLabel_270:
   \   00000CAC   8250               ST      Z, R5
   \   00000CAE   ....               RCALL   ?Subroutine170
   \                     ??CrossCallReturnLabel_271:
   \   00000CB0   8320               ST      Z, R18
   \   00000CB2   ....               RCALL   ?Subroutine170
   \                     ??CrossCallReturnLabel_273:
   \   00000CB4   8270               ST      Z, R7
   \   00000CB6   E070               LDI     R23, 0
   \   00000CB8   E060               LDI     R22, 0
   \   00000CBA   E140               LDI     R20, 16
   \   00000CBC   E050               LDI     R21, 0
   \   00000CBE   0197               MOVW    R19:R18, R15:R14
   \   00000CC0   5C26               SUBI    R18, 198
   \   00000CC2   4F3D               SBCI    R19, 253
   \   00000CC4   EC00               LDI     R16, 192
   \   00000CC6   E21F               LDI     R17, 47
   \   00000CC8   ....               RCALL   ?Subroutine282
   \                     ??CrossCallReturnLabel_589:
   \   00000CCA   0F88               LSL     R24
   \   00000CCC   1F99               ROL     R25
   \   00000CCE   5A80               SUBI    R24, 160
   \   00000CD0   4D90               SBCI    R25, 208
   \   00000CD2   018C               MOVW    R17:R16, R25:R24
   \   00000CD4   858B               LDD     R24, Y+11
   \   00000CD6   859C               LDD     R25, Y+12
   \   00000CD8   3388               CPI     R24, 56
   \   00000CDA   4090               SBCI    R25, 0
   \   00000CDC   F428               BRCC    ??proc_udp_data_108
   \   00000CDE   ....               RCALL   ?Subroutine211
   \                     ??CrossCallReturnLabel_328:
   \   00000CE0   ........           CALL    ?Subroutine3
   \                     ??CrossCallReturnLabel_4:
   \   00000CE4   ....               RCALL   ?Subroutine260
   \                     ??CrossCallReturnLabel_448:
   \   00000CE6   C00C               RJMP    ??proc_udp_data_106
   \                     ??proc_udp_data_108:
   \   00000CE8   E327               LDI     R18, 55
   \   00000CEA   2E62               MOV     R6, R18
   \   00000CEC   2477               CLR     R7
   \   00000CEE   ....               RCALL   ?Subroutine136
   \                     ??CrossCallReturnLabel_225:
   \   00000CF0   1A62               SUB     R6, R18
   \   00000CF2   0A73               SBC     R7, R19
   \   00000CF4   01C3               MOVW    R25:R24, R7:R6
   \   00000CF6   ....               RCALL   ??Subroutine211_0
   \                     ??CrossCallReturnLabel_329:
   \   00000CF8   9601               ADIW    R25:R24, 1
   \   00000CFA   ........           CALL    ?Subroutine3
   \                     ??CrossCallReturnLabel_5:
   \   00000CFE   0143               MOVW    R9:R8, R7:R6
   \                     ??proc_udp_data_106:
   \   00000D00   ....               RCALL   ?Subroutine236
   \                     ??CrossCallReturnLabel_349:
   \   00000D02   3860               CPI     R22, 128
   \   00000D04   E000               LDI     R16, 0
   \   00000D06   0770               CPC     R23, R16
   \   00000D08   F080               BRCS    ??CrossCallReturnLabel_2
   \   00000D0A   3861               CPI     R22, 129
   \   00000D0C   0770               CPC     R23, R16
   \   00000D0E   F468               BRCC    ??CrossCallReturnLabel_2
   \   00000D10   ....               RCALL   ?Subroutine226
   \                     ??CrossCallReturnLabel_341:
   \   00000D12   5960               SUBI    R22, 144
   \   00000D14   4F7C               SBCI    R23, 252
   \   00000D16   ....               RCALL   ?Subroutine238
   \                     ??CrossCallReturnLabel_525:
   \   00000D18   F418               BRCC    ??proc_udp_data_109
   \   00000D1A   ........           CALL    ?Subroutine0
   \                     ??CrossCallReturnLabel_445:
   \   00000D1E   C005               RJMP    ??CrossCallReturnLabel_2
   \                     ??proc_udp_data_109:
   \   00000D20   E800               LDI     R16, 128
   \   00000D22   2E60               MOV     R6, R16
   \   00000D24   2477               CLR     R7
   \   00000D26   ........           CALL    ?Subroutine2
   \                     ??CrossCallReturnLabel_2:
   \   00000D2A   ....               RCALL   ?Subroutine236
   \                     ??CrossCallReturnLabel_350:
   \   00000D2C   E005               LDI     R16, 5
   \   00000D2E   3075               CPI     R23, 5
   \   00000D30   F0A0               BRCS    ??CrossCallReturnLabel_3
   \   00000D32   3164               CPI     R22, 20
   \   00000D34   0770               CPC     R23, R16
   \   00000D36   F488               BRCC    ??CrossCallReturnLabel_3
   \   00000D38   ....               RCALL   ?Subroutine226
   \                     ??CrossCallReturnLabel_342:
   \   00000D3A   5860               SUBI    R22, 128
   \   00000D3C   4075               SBCI    R23, 5
   \   00000D3E   852B               LDD     R18, Y+11
   \   00000D40   853C               LDD     R19, Y+12
   \   00000D42   3124               CPI     R18, 20
   \   00000D44   4035               SBCI    R19, 5
   \   00000D46   F418               BRCC    ??proc_udp_data_110
   \   00000D48   ........           CALL    ?Subroutine0
   \                     ??CrossCallReturnLabel_446:
   \   00000D4C   C006               RJMP    ??CrossCallReturnLabel_3
   \                     ??proc_udp_data_110:
   \   00000D4E   E103               LDI     R16, 19
   \   00000D50   2E60               MOV     R6, R16
   \   00000D52   E005               LDI     R16, 5
   \   00000D54   2E70               MOV     R7, R16
   \   00000D56   ........           CALL    ?Subroutine2
   \                     ??CrossCallReturnLabel_3:
   \   00000D5A   818A               LDD     R24, Y+2
   \   00000D5C   819B               LDD     R25, Y+3
   \   00000D5E   ....               RCALL   ?Subroutine47
   \                     ??CrossCallReturnLabel_529:
   \   00000D60   F130               BRCS    ??proc_udp_data_111
   \   00000D62   E705               LDI     R16, 117
   \   00000D64   ....               RCALL   ??Subroutine47_0
   \                     ??CrossCallReturnLabel_530:
   \   00000D66   F518               BRCC    ??proc_udp_data_111
   \   00000D68   ....               LDI     R30, LOW(modbus_mem1)
   \   00000D6A   ....               LDI     R31, (modbus_mem1) >> 8
   \   00000D6C   0182               MOVW    R17:R16, R5:R4
   \   00000D6E   ....               RCALL   ?Subroutine261
   \                     ??CrossCallReturnLabel_460:
   \   00000D70   ....               RCALL   ?Subroutine296
   \                     ??CrossCallReturnLabel_678:
   \   00000D72   5AE0               SUBI    R30, 160
   \   00000D74   40F2               SBCI    R31, 2
   \   00000D76   ....               RCALL   ?Subroutine147
   \                     ??CrossCallReturnLabel_236:
   \   00000D78   ....               RCALL   ?Subroutine292
   \                     ??CrossCallReturnLabel_642:
   \   00000D7A   E700               LDI     R16, 112
   \   00000D7C   ....               RCALL   ??Subroutine47_0
   \                     ??CrossCallReturnLabel_531:
   \   00000D7E   F469               BRNE    ??proc_udp_data_112
   \   00000D80   ....               LDI     R30, LOW((modbus_mem1 + 64))
   \   00000D82   ....               LDI     R31, HIGH((modbus_mem1 + 64))
   \   00000D84   ....               RCALL   ?Subroutine148
   \                     ??CrossCallReturnLabel_238:
   \   00000D86   F431               BRNE    ??proc_udp_data_113
   \   00000D88   E603               LDI     R16, 99
   \                     ??proc_udp_data_114:
   \   00000D8A   E010               LDI     R17, 0
   \                     ??proc_udp_data_115:
   \   00000D8C   ....               RCALL   ?Subroutine291
   \                     ??__CCRETURN_0:
   \                     ??proc_udp_data_116:
   \   00000D8E   01FC               MOVW    R31:R30, R25:R24
   \   00000D90   ....               RCALL   ?Subroutine292
   \                     ??CrossCallReturnLabel_643:
   \   00000D92   C05D               RJMP    ??proc_udp_data_117
   \                     ??proc_udp_data_113:
   \   00000D94   5001               SUBI    R16, 1
   \   00000D96   4010               SBCI    R17, 0
   \   00000D98   CFF9               RJMP    ??proc_udp_data_115
   \                     ??proc_udp_data_112:
   \   00000D9A   E60F               LDI     R16, 111
   \   00000D9C   ....               RCALL   ??Subroutine47_0
   \                     ??CrossCallReturnLabel_532:
   \   00000D9E   F009               BREQ    $+2+2
   \   00000DA0   C056               RJMP    ??proc_udp_data_117
   \   00000DA2   ....               LDI     R30, LOW((modbus_mem1 + 62))
   \   00000DA4   ....               LDI     R31, HIGH((modbus_mem1 + 62))
   \   00000DA6   ....               RCALL   ?Subroutine148
   \                     ??CrossCallReturnLabel_239:
   \   00000DA8   F7A9               BRNE    ??proc_udp_data_113
   \   00000DAA   E306               LDI     R16, 54
   \   00000DAC   CFEE               RJMP    ??proc_udp_data_114
   \                     ??proc_udp_data_111:
   \   00000DAE   E000               LDI     R16, 0
   \   00000DB0   ....               RCALL   ?Subroutine48
   \                     ??CrossCallReturnLabel_543:
   \   00000DB2   F419               BRNE    ??proc_udp_data_118
   \   00000DB4   9100....           LDS     R16, real_time
   \   00000DB8   CFE8               RJMP    ??proc_udp_data_114
   \                     ??proc_udp_data_118:
   \   00000DBA   E001               LDI     R16, 1
   \   00000DBC   ....               RCALL   ?Subroutine48
   \                     ??CrossCallReturnLabel_544:
   \   00000DBE   F419               BRNE    ??proc_udp_data_119
   \   00000DC0   9100....           LDS     R16, (real_time + 1)
   \   00000DC4   CFE2               RJMP    ??proc_udp_data_114
   \                     ??proc_udp_data_119:
   \   00000DC6   E002               LDI     R16, 2
   \   00000DC8   ....               RCALL   ?Subroutine48
   \                     ??CrossCallReturnLabel_545:
   \   00000DCA   F419               BRNE    ??proc_udp_data_120
   \   00000DCC   9100....           LDS     R16, (real_time + 2)
   \   00000DD0   CFDC               RJMP    ??proc_udp_data_114
   \                     ??proc_udp_data_120:
   \   00000DD2   E003               LDI     R16, 3
   \   00000DD4   ....               RCALL   ?Subroutine48
   \                     ??CrossCallReturnLabel_546:
   \   00000DD6   F419               BRNE    ??proc_udp_data_121
   \   00000DD8   9100....           LDS     R16, (real_time + 4)
   \   00000DDC   CFD6               RJMP    ??proc_udp_data_114
   \                     ??proc_udp_data_121:
   \   00000DDE   E004               LDI     R16, 4
   \   00000DE0   ....               RCALL   ?Subroutine48
   \                     ??CrossCallReturnLabel_547:
   \   00000DE2   F419               BRNE    ??proc_udp_data_122
   \   00000DE4   9100....           LDS     R16, (real_time + 5)
   \   00000DE8   CFD0               RJMP    ??proc_udp_data_114
   \                     ??proc_udp_data_122:
   \   00000DEA   E005               LDI     R16, 5
   \   00000DEC   ....               RCALL   ?Subroutine48
   \                     ??CrossCallReturnLabel_548:
   \   00000DEE   F419               BRNE    ??proc_udp_data_123
   \   00000DF0   9100....           LDS     R16, (real_time + 6)
   \   00000DF4   CFCA               RJMP    ??proc_udp_data_114
   \                     ??proc_udp_data_123:
   \   00000DF6   E004               LDI     R16, 4
   \   00000DF8   1650               CP      R5, R16
   \   00000DFA   F148               BRCS    ??proc_udp_data_117
   \   00000DFC   ....               RCALL   ?Subroutine241
   \                     ??CrossCallReturnLabel_551:
   \   00000DFE   F538               BRCC    ??proc_udp_data_117
   \   00000E00   ....               RCALL   ?Subroutine242
   \                     ??CrossCallReturnLabel_362:
   \   00000E02   ....               RCALL   ?Subroutine239
   \                     ??CrossCallReturnLabel_354:
   \   00000E04   F428               BRCC    ??proc_udp_data_124
   \   00000E06   ....               RCALL   ?Subroutine237
   \                     ??CrossCallReturnLabel_351:
   \   00000E08   ....               RCALL   ?Subroutine233
   \                     ??CrossCallReturnLabel_347:
   \   00000E0A   ........           CALL    ??Subroutine0_0
   \                     ??CrossCallReturnLabel_447:
   \   00000E0E   C01F               RJMP    ??proc_udp_data_117
   \                     ??proc_udp_data_124:
   \   00000E10   ....               RCALL   ?Subroutine34
   \                     ??CrossCallReturnLabel_52:
   \   00000E12   0136               MOVW    R7:R6, R13:R12
   \   00000E14   1868               SUB     R6, R8
   \   00000E16   0879               SBC     R7, R9
   \   00000E18   E001               LDI     R16, 1
   \   00000E1A   0E60               ADD     R6, R16
   \   00000E1C   E000               LDI     R16, 0
   \   00000E1E   1E70               ADC     R7, R16
   \   00000E20   ....               RCALL   ?Subroutine233
   \                     ??CrossCallReturnLabel_348:
   \   00000E22   ....               RCALL   ??Subroutine287_0
   \                     ??CrossCallReturnLabel_837:
   \   00000E24   ....               RCALL   ??Subroutine7_0
   \                     ??CrossCallReturnLabel_9:
   \   00000E26   C010               RJMP    ??proc_udp_data_125
   \                     ??proc_udp_data_126:
   \   00000E28   0142               MOVW    R9:R8, R5:R4
   \   00000E2A   0C88               LSL     R8
   \   00000E2C   1C99               ROL     R9
   \   00000E2E   01F7               MOVW    R31:R30, R15:R14
   \   00000E30   0DE8               ADD     R30, R8
   \   00000E32   1DF9               ADC     R31, R9
   \   00000E34   51E8               SUBI    R30, 24
   \   00000E36   4FFC               SBCI    R31, 252
   \   00000E38   ....               RCALL   ?Subroutine147
   \                     ??CrossCallReturnLabel_237:
   \   00000E3A   0DE8               ADD     R30, R8
   \   00000E3C   1DF9               ADC     R31, R9
   \   00000E3E   ....               RCALL   ?Subroutine292
   \                     ??CrossCallReturnLabel_644:
   \   00000E40   E001               LDI     R16, 1
   \   00000E42   0E40               ADD     R4, R16
   \   00000E44   E000               LDI     R16, 0
   \   00000E46   1E50               ADC     R5, R16
   \                     ??proc_udp_data_125:
   \   00000E48   ....               RCALL   ?Subroutine240
   \                     ??CrossCallReturnLabel_356:
   \   00000E4A   F370               BRCS    ??proc_udp_data_126
   \   00000E4C   0146               MOVW    R9:R8, R13:R12
   \                     ??proc_udp_data_117:
   \   00000E4E   ....               RCALL   ?Subroutine135
   \                     ??CrossCallReturnLabel_222:
   \   00000E50   3320               CPI     R18, 48
   \   00000E52   E004               LDI     R16, 4
   \   00000E54   0730               CPC     R19, R16
   \   00000E56   F168               BRCS    ??proc_udp_data_127
   \   00000E58   3428               CPI     R18, 72
   \   00000E5A   0730               CPC     R19, R16
   \   00000E5C   F550               BRCC    ??proc_udp_data_127
   \   00000E5E   814A               LDD     R20, Y+2
   \   00000E60   815B               LDD     R21, Y+3
   \   00000E62   ....               RCALL   ?Subroutine231
   \                     ??CrossCallReturnLabel_469:
   \   00000E64   0F40               ADD     R20, R16
   \   00000E66   1F51               ADC     R21, R17
   \   00000E68   834E               STD     Y+6, R20
   \   00000E6A   835F               STD     Y+7, R21
   \   00000E6C   850B               LDD     R16, Y+11
   \   00000E6E   851C               LDD     R17, Y+12
   \   00000E70   3408               CPI     R16, 72
   \   00000E72   4014               SBCI    R17, 4
   \   00000E74   01A7               MOVW    R21:R20, R15:R14
   \   00000E76   F468               BRCC    ??proc_udp_data_128
   \   00000E78   5148               SUBI    R20, 24
   \   00000E7A   4F5C               SBCI    R21, 252
   \   00000E7C   ....               RCALL   ??Subroutine7_0
   \                     ??CrossCallReturnLabel_10:
   \   00000E7E   ....               RCALL   ?Subroutine211
   \                     ??CrossCallReturnLabel_330:
   \   00000E80   C001               RJMP    ??CrossCallReturnLabel_630
   \                     ??proc_udp_data_129:
   \   00000E82   ....               RCALL   ?Subroutine16
   \                     ??CrossCallReturnLabel_630:
   \   00000E84   1648               CP      R4, R24
   \   00000E86   0659               CPC     R5, R25
   \   00000E88   F3E0               BRCS    ??proc_udp_data_129
   \   00000E8A   ........           CALL    ?Subroutine1
   \                     ??CrossCallReturnLabel_0:
   \   00000E8E   ....               RCALL   ?Subroutine260
   \                     ??CrossCallReturnLabel_449:
   \   00000E90   C010               RJMP    ??proc_udp_data_127
   \                     ??proc_udp_data_128:
   \   00000E92   5148               SUBI    R20, 24
   \   00000E94   4F5C               SBCI    R21, 252
   \   00000E96   ....               RCALL   ??Subroutine7_0
   \                     ??CrossCallReturnLabel_11:
   \   00000E98   E407               LDI     R16, 71
   \   00000E9A   ....               RCALL   ??Subroutine34_0
   \                     ??CrossCallReturnLabel_53:
   \   00000E9C   01C6               MOVW    R25:R24, R13:R12
   \   00000E9E   ....               RCALL   ??Subroutine211_0
   \                     ??CrossCallReturnLabel_331:
   \   00000EA0   9601               ADIW    R25:R24, 1
   \   00000EA2   C001               RJMP    ??CrossCallReturnLabel_631
   \                     ??proc_udp_data_130:
   \   00000EA4   ....               RCALL   ?Subroutine16
   \                     ??CrossCallReturnLabel_631:
   \   00000EA6   1648               CP      R4, R24
   \   00000EA8   0659               CPC     R5, R25
   \   00000EAA   F3E0               BRCS    ??proc_udp_data_130
   \   00000EAC   ........           CALL    ?Subroutine1
   \                     ??CrossCallReturnLabel_1:
   \   00000EB0   0146               MOVW    R9:R8, R13:R12
   \                     ??proc_udp_data_127:
   \   00000EB2   ....               RCALL   ?Subroutine243
   \                     ??CrossCallReturnLabel_364:
   \   00000EB4   E007               LDI     R16, 7
   \   00000EB6   16D0               CP      R13, R16
   \   00000EB8   F0C8               BRCS    ??proc_udp_data_131
   \   00000EBA   EF0E               LDI     R16, 254
   \   00000EBC   16C0               CP      R12, R16
   \   00000EBE   E008               LDI     R16, 8
   \   00000EC0   06D0               CPC     R13, R16
   \   00000EC2   F4A0               BRCC    ??proc_udp_data_131
   \   00000EC4   818A               LDD     R24, Y+2
   \   00000EC6   819B               LDD     R25, Y+3
   \   00000EC8   ....               RCALL   ?Subroutine231
   \                     ??CrossCallReturnLabel_470:
   \   00000ECA   0F80               ADD     R24, R16
   \   00000ECC   1F91               ADC     R25, R17
   \   00000ECE   ....               RCALL   ?Subroutine7
   \                     ??CrossCallReturnLabel_12:
   \   00000ED0   F438               BRCC    ??proc_udp_data_132
   \   00000ED2   C001               RJMP    ??CrossCallReturnLabel_634
   \                     ??proc_udp_data_133:
   \   00000ED4   ....               RCALL   ?Subroutine13
   \                     ??CrossCallReturnLabel_634:
   \   00000ED6   ....               RCALL   ?Subroutine191
   \                     ??CrossCallReturnLabel_297:
   \   00000ED8   ....               RCALL   ?Subroutine294
   \                     ??CrossCallReturnLabel_662:
   \   00000EDA   F3E0               BRCS    ??proc_udp_data_133
   \   00000EDC   ....               RCALL   ?Subroutine260
   \                     ??CrossCallReturnLabel_450:
   \   00000EDE   C006               RJMP    ??proc_udp_data_131
   \                     ??proc_udp_data_132:
   \   00000EE0   ....               RCALL   ?Subroutine33
   \                     ??CrossCallReturnLabel_47:
   \   00000EE2   C001               RJMP    ??CrossCallReturnLabel_635
   \                     ??proc_udp_data_134:
   \   00000EE4   ....               RCALL   ?Subroutine13
   \                     ??CrossCallReturnLabel_635:
   \   00000EE6   ....               RCALL   ?Subroutine295
   \                     ??CrossCallReturnLabel_666:
   \   00000EE8   F3E8               BRCS    ??proc_udp_data_134
   \   00000EEA   0143               MOVW    R9:R8, R7:R6
   \                     ??proc_udp_data_131:
   \   00000EEC   ....               RCALL   ?Subroutine243
   \                     ??CrossCallReturnLabel_365:
   \   00000EEE   E600               LDI     R16, 96
   \   00000EF0   16D0               CP      R13, R16
   \   00000EF2   F0D0               BRCS    ??proc_udp_data_135
   \   00000EF4   EB0C               LDI     R16, 188
   \   00000EF6   16C0               CP      R12, R16
   \   00000EF8   E602               LDI     R16, 98
   \   00000EFA   06D0               CPC     R13, R16
   \   00000EFC   F4A8               BRCC    ??proc_udp_data_135
   \   00000EFE   ....               RCALL   ?Subroutine227
   \                     ??CrossCallReturnLabel_343:
   \   00000F00   3B2C               CPI     R18, 188
   \   00000F02   4632               SBCI    R19, 98
   \   00000F04   ....               RCALL   ??Subroutine7_0
   \                     ??CrossCallReturnLabel_13:
   \   00000F06   F438               BRCC    ??proc_udp_data_136
   \   00000F08   C001               RJMP    ??CrossCallReturnLabel_636
   \                     ??proc_udp_data_137:
   \   00000F0A   ....               RCALL   ?Subroutine14
   \                     ??CrossCallReturnLabel_636:
   \   00000F0C   ....               RCALL   ?Subroutine191
   \                     ??CrossCallReturnLabel_298:
   \   00000F0E   ....               RCALL   ?Subroutine294
   \                     ??CrossCallReturnLabel_663:
   \   00000F10   F3E0               BRCS    ??proc_udp_data_137
   \   00000F12   ....               RCALL   ?Subroutine260
   \                     ??CrossCallReturnLabel_451:
   \   00000F14   C009               RJMP    ??proc_udp_data_135
   \                     ??proc_udp_data_136:
   \   00000F16   EB0B               LDI     R16, 187
   \   00000F18   2E60               MOV     R6, R16
   \   00000F1A   E602               LDI     R16, 98
   \   00000F1C   ....               RCALL   ??Subroutine33_0
   \                     ??CrossCallReturnLabel_48:
   \   00000F1E   C001               RJMP    ??CrossCallReturnLabel_637
   \                     ??proc_udp_data_138:
   \   00000F20   ....               RCALL   ?Subroutine14
   \                     ??CrossCallReturnLabel_637:
   \   00000F22   ....               RCALL   ?Subroutine295
   \                     ??CrossCallReturnLabel_667:
   \   00000F24   F3E8               BRCS    ??proc_udp_data_138
   \   00000F26   0143               MOVW    R9:R8, R7:R6
   \                     ??proc_udp_data_135:
   \   00000F28   ....               RCALL   ?Subroutine243
   \                     ??CrossCallReturnLabel_366:
   \   00000F2A   E200               LDI     R16, 32
   \   00000F2C   16D0               CP      R13, R16
   \   00000F2E   F408               BRCC    $+2+2
   \   00000F30   CE78               RJMP    ??proc_udp_data_103
   \   00000F32   E40A               LDI     R16, 74
   \   00000F34   16C0               CP      R12, R16
   \   00000F36   E201               LDI     R16, 33
   \   00000F38   06D0               CPC     R13, R16
   \   00000F3A   F008               BRCS    $+2+2
   \   00000F3C   CE72               RJMP    ??proc_udp_data_103
   \   00000F3E   ....               RCALL   ?Subroutine227
   \                     ??CrossCallReturnLabel_344:
   \   00000F40   342A               CPI     R18, 74
   \   00000F42   4231               SBCI    R19, 33
   \   00000F44   ....               RCALL   ??Subroutine7_0
   \                     ??CrossCallReturnLabel_14:
   \   00000F46   F438               BRCC    ??proc_udp_data_139
   \   00000F48   C001               RJMP    ??CrossCallReturnLabel_633
   \                     ??proc_udp_data_140:
   \   00000F4A   ....               RCALL   ?Subroutine12
   \                     ??CrossCallReturnLabel_633:
   \   00000F4C   ....               RCALL   ?Subroutine191
   \                     ??CrossCallReturnLabel_299:
   \   00000F4E   ....               RCALL   ?Subroutine294
   \                     ??CrossCallReturnLabel_664:
   \   00000F50   F3E0               BRCS    ??proc_udp_data_140
   \   00000F52   ....               RCALL   ?Subroutine260
   \                     ??CrossCallReturnLabel_452:
   \   00000F54   CE66               RJMP    ??proc_udp_data_103
   \                     ??proc_udp_data_139:
   \   00000F56   E409               LDI     R16, 73
   \   00000F58   2E60               MOV     R6, R16
   \   00000F5A   E201               LDI     R16, 33
   \   00000F5C   ....               RCALL   ??Subroutine33_0
   \                     ??CrossCallReturnLabel_49:
   \   00000F5E   CE5E               RJMP    ??CrossCallReturnLabel_632
   4867                                                    }
   4868                                                
   4869                                              }
   4870                                              ///////////////!!!!!!!!!!!!!!!!!!!!!!!!!!!!!!!!!!!!!!!!!!
   4871                                              
   4872                                              
   4873                                              }  // end for 
   4874                                              ///////////////!!!!!!!!!!!!!!!!!!!!!!!!!!!!!!!!!!!!!!!!!!
   4875                                              ///////////////!!!!!!!!!!!!!!!!!!!!!!!!!!!!!!!!!!!!!!!!!!
   4876                                              
   4877                                               Obj_ppp_tx.l_data=3+(kol*2) + (mobus.smest_to_elam*2); 
   \                     ??proc_udp_data_104:
   \   00000F60   A10E               LDD     R16, Y+38
   \   00000F62   A11F               LDD     R17, Y+39
   \   00000F64   A12C               LDD     R18, Y+36
   \   00000F66   A13D               LDD     R19, Y+37
   \   00000F68   0F20               ADD     R18, R16
   \   00000F6A   1F31               ADC     R19, R17
   \   00000F6C   5F2D               SUBI    R18, 253
   \   00000F6E   ....               RCALL   ?Subroutine70
   4878                                             mobus.point_out= mobus.point_out_save + Obj_ppp_tx.l_data;
   \                     ??CrossCallReturnLabel_116:
   \   00000F70   01FE               MOVW    R31:R30, R29:R28
   \   00000F72   96FF               ADIW    R31:R30, 63
   \   00000F74   8105               LDD     R16, Z+5
   \   00000F76   8116               LDD     R17, Z+6
   \   00000F78   ....               RCALL   ?Subroutine181
   \                     ??CrossCallReturnLabel_282:
   \   00000F7A   830A               STD     Y+2, R16
   \   00000F7C   831B               STD     Y+3, R17
   4879                                        //  *(unsigned int*)&buf_tx_232[TR_OP_DATA+C1_DATA+Obj_ppp_tx.l_data]=crc_m1(&buf_tx_232[TR_OP_DATA+C1_DATA],Obj_ppp_tx.l_data,0xffff);
   4880                                             mobus.modbus_crc_new=crc_m1(mobus.point_out-Obj_ppp_tx.l_data, Obj_ppp_tx.l_data, 0xffff); 
   \   00000F7E   ....               RCALL   ?Subroutine293
   \                     ??CrossCallReturnLabel_659:
   \   00000F80   01B9               MOVW    R23:R22, R19:R18
   \   00000F82   9531               NEG     R19
   \   00000F84   9521               NEG     R18
   \   00000F86   4030               SBCI    R19, 0
   \   00000F88   ....               RCALL   ?Subroutine181
   \                     ??CrossCallReturnLabel_283:
   \   00000F8A   019B               MOVW    R19:R18, R23:R22
   \   00000F8C   CDF5               RJMP    ??proc_udp_data_100
   4881                                             *mobus.point_out++=mobus.modbus_crc_new>>8;
   4882                                             *mobus.point_out++=mobus.modbus_crc_new;
   4883                                              mobus.count_out_elam+=Obj_ppp_tx.l_data + 2;   // ďëţń ęîíňđîëüíŕ˙ ńóěěŕ
   4884                                                 
   4885                                                 
   4886                                             //    Obj_ppp_tx.l_data=3+kol*2; //áĺç crc
   4887                                              
   4888                                              
   4889                                          
   4890                                              
   4891                                                 break;
   4892                                           case 5:
   4893                                                /////  *(unsigned int*)&buf_tx_232[TR_OP_DATA+C1_DATA+2]=swap(crc);//start
   4894                                                /////  *(unsigned int*)&buf_tx_232[TR_OP_DATA+C1_DATA+4]=0;
   4895                                             
   4896                                                   // îćčäŕĺěîĺ ęîëč÷ĺńňâî áŕéň â âűőîäíîé áóôĺđ                                  
   4897                                             mobus.overall+=6 + mobus.smest_to_elam + 2;
   \                     ??proc_udp_data_94:
   \   00000F8E   ....               RCALL   ?Subroutine190
   4898                                             if(mobus.overall > VOL_TX_PPP ) return(0);  // âűőîä ďî îřčáęĺ
   \                     ??CrossCallReturnLabel_294:
   \   00000F90   F008               BRCS    $+2+2
   \   00000F92   C843               RJMP    ??proc_udp_data_1
   4899                                             // îćčäŕĺěîĺ ęîëč÷ĺńňâî áŕéň â âűőîäíîé áóôĺđ
   4900                                             
   4901                                                   *mobus.point_out++=*(mobus.point_in + mobus.index_elam);
   \   00000F94   ....               RCALL   ?Subroutine153
   4902                                                   if (mobus.flag_elam==1) *mobus.point_out++=*(mobus.point_in+mobus.index_elam+mobus.smest_to_elam);
   4903                                                  *mobus.point_out++=*(mobus.point_in+mobus.index_elam+mobus.smest_to_elam+1);
   \                     ??CrossCallReturnLabel_254:
   \   00000F96   ....               RCALL   ?Subroutine94
   4904                                                  *mobus.point_out++=*(mobus.point_in+mobus.index_elam+mobus.smest_to_elam+2);
   4905                                                  *mobus.point_out++=*(mobus.point_in+mobus.index_elam+mobus.smest_to_elam+3);
   4906                                                  *mobus.point_out++=*(mobus.point_in+mobus.index_elam+mobus.smest_to_elam+4);
   4907                                                  *mobus.point_out++=*(mobus.point_in+mobus.index_elam+mobus.smest_to_elam+5);
   4908                                                  Obj_ppp_tx.l_data=6 + mobus.smest_to_elam; 
   4909                                                   mobus.modbus_crc_new=crc_m1(mobus.point_out-Obj_ppp_tx.l_data, Obj_ppp_tx.l_data, 0xffff); 
   4910                                             *mobus.point_out++=mobus.modbus_crc_new>>8;
   4911                                             *mobus.point_out++=mobus.modbus_crc_new;
   4912                                              mobus.count_out_elam+=Obj_ppp_tx.l_data + 2;   // ďëţń ęîíňđîëüíŕ˙ ńóěěŕ
   4913                                                  
   4914                                                 if (sel_modul!=1) 
   \                     ??CrossCallReturnLabel_148:
   \   00000F98   9100....           LDS     R16, sel_modul
   \   00000F9C   3001               CPI     R16, 1
   \   00000F9E   F409               BRNE    $+2+2
   \   00000FA0   C057               RJMP    ??proc_udp_data_141
   4915                                                 {
   4916                                                  switch(crc)
   \   00000FA2   81E8               LD      R30, Y
   \   00000FA4   81F9               LDD     R31, Y+1
   \   00000FA6   50E0               SUBI    R30, 0
   \   00000FA8   40F2               SBCI    R31, 2
   \   00000FAA   F049               BREQ    ??proc_udp_data_142
   \   00000FAC   9731               SBIW    R31:R30, 1
   \   00000FAE   F0A9               BREQ    ??proc_udp_data_143
   \   00000FB0   9731               SBIW    R31:R30, 1
   \   00000FB2   F0E1               BREQ    ??proc_udp_data_144
   \   00000FB4   9731               SBIW    R31:R30, 1
   \   00000FB6   F181               BREQ    ??proc_udp_data_145
   \   00000FB8   973D               SBIW    R31:R30, 13
   \   00000FBA   F1F9               BREQ    ??proc_udp_data_146
   \   00000FBC   C2CE               RJMP    ??CrossCallReturnLabel_649
   4917                                                  {
   4918                                                  case MB_TU1:
   4919                                                    if(c1_byte.mb[0]==0x55)  break; // íĺ äŕâŕňü âęëţ÷ŕňü ňó áĺçęîíňđîëüíî
   \                     ??proc_udp_data_142:
   \   00000FBE   9100....           LDS     R16, c1_byte
   \   00000FC2   3505               CPI     R16, 85
   \   00000FC4   F409               BRNE    $+2+2
   \   00000FC6   C2C9               RJMP    ??CrossCallReturnLabel_649
   4920                                                    if(kol==0xff00) {TU1_ON;}
   \   00000FC8   ....               RCALL   ?Subroutine189
   \                     ??CrossCallReturnLabel_291:
   \   00000FCA   F411               BRNE    ??proc_udp_data_147
   \   00000FCC   9A14               SBI     0x02, 0x04
   \   00000FCE   C2C5               RJMP    ??CrossCallReturnLabel_649
   4921                                                    if(kol==0x0000) {TU1_OFF;}
   \                     ??proc_udp_data_147:
   \   00000FD0   2B01               OR      R16, R17
   \   00000FD2   F009               BREQ    $+2+2
   \   00000FD4   C2C2               RJMP    ??CrossCallReturnLabel_649
   \   00000FD6   9814               CBI     0x02, 0x04
   \   00000FD8   C2C0               RJMP    ??CrossCallReturnLabel_649
   4922                                                             break;
   4923                                                  case MB_TU2:
   4924                                                             if(kol==0xff00) {TU2_ON;}
   \                     ??proc_udp_data_143:
   \   00000FDA   ....               RCALL   ?Subroutine189
   \                     ??CrossCallReturnLabel_292:
   \   00000FDC   F411               BRNE    ??proc_udp_data_148
   \   00000FDE   9A13               SBI     0x02, 0x03
   \   00000FE0   C2BC               RJMP    ??CrossCallReturnLabel_649
   4925                                                             if(kol==0x0000) {TU2_OFF;}
   \                     ??proc_udp_data_148:
   \   00000FE2   2B01               OR      R16, R17
   \   00000FE4   F009               BREQ    $+2+2
   \   00000FE6   C2B9               RJMP    ??CrossCallReturnLabel_649
   \   00000FE8   9813               CBI     0x02, 0x03
   \   00000FEA   C2B7               RJMP    ??CrossCallReturnLabel_649
   4926                                                             break;
   4927                                                  case MB_TU1_IMP:
   4928                                                    if(c1_byte.mb[0]==0x55)  break; // íĺ äŕâŕňü âęëţ÷ŕňü ňó áĺçęîíňđîëüíî
   \                     ??proc_udp_data_144:
   \   00000FEC   9100....           LDS     R16, c1_byte
   \   00000FF0   3505               CPI     R16, 85
   \   00000FF2   F409               BRNE    $+2+2
   \   00000FF4   C2B2               RJMP    ??CrossCallReturnLabel_649
   4929                                                  
   4930                                                    if(kol==0xff00){
   \   00000FF6   ....               RCALL   ?Subroutine194
   \                     ??CrossCallReturnLabel_521:
   \   00000FF8   F009               BREQ    $+2+2
   \   00000FFA   C2AF               RJMP    ??CrossCallReturnLabel_649
   4931                                                    //  TU1_ON;cnt_tu1=TM_TU_IMP;
   4932                                                     
   4933                                                    TU1_ON;
   \   00000FFC   9A14               SBI     0x02, 0x04
   4934                                                    cnt_tu1 = c2_byte.mb[0x1f*2];
   \   00000FFE   9100....           LDS     R16, (c2_byte + 62)
   \   00001002   9300....           STS     cnt_tu1, R16
   4935                                                    if ( cnt_tu1 == 0 || cnt_tu1 == 0xff) cnt_tu1=TM_TU_IMP;
   \   00001006   2300               TST     R16
   \   00001008   F019               BREQ    ??proc_udp_data_149
   \   0000100A   3F0F               CPI     R16, 255
   \   0000100C   F009               BREQ    $+2+2
   \   0000100E   C2A5               RJMP    ??CrossCallReturnLabel_649
   \                     ??proc_udp_data_149:
   \   00001010   E008               LDI     R16, 8
   \   00001012   9300....           STS     cnt_tu1, R16
   \   00001016   C2A1               RJMP    ??CrossCallReturnLabel_649
   4936                                                    
   4937                                                    }
   4938                                                             break; 
   4939                                                  case MB_TU2_IMP:
   4940                                                    
   4941                                                    if(kol==0xff00){
   \                     ??proc_udp_data_145:
   \   00001018   ....               RCALL   ?Subroutine194
   \                     ??CrossCallReturnLabel_522:
   \   0000101A   F009               BREQ    $+2+2
   \   0000101C   C29E               RJMP    ??CrossCallReturnLabel_649
   4942                                                    //  TU2_ON;cnt_tu2=TM_TU_IMP;
   4943                                                    
   4944                                                    TU2_ON;
   \   0000101E   9A13               SBI     0x02, 0x03
   4945                                                    cnt_tu2 = c2_byte.mb[0x1f*2 + 1];
   \   00001020   9100....           LDS     R16, (c2_byte + 63)
   \   00001024   9300....           STS     cnt_tu2, R16
   4946                                                    if ( cnt_tu2 == 0  || cnt_tu2 == 0xff) cnt_tu2 = TM_TU_IMP;
   \   00001028   2300               TST     R16
   \   0000102A   F019               BREQ    ??proc_udp_data_150
   \   0000102C   3F0F               CPI     R16, 255
   \   0000102E   F009               BREQ    $+2+2
   \   00001030   C294               RJMP    ??CrossCallReturnLabel_649
   \                     ??proc_udp_data_150:
   \   00001032   E008               LDI     R16, 8
   \   00001034   9300....           STS     cnt_tu2, R16
   \   00001038   C290               RJMP    ??CrossCallReturnLabel_649
   4947                                                    
   4948                                                    }
   4949                                                             break;
   4950                                                    
   4951                                                  //////////////////////////////////
   4952                                                  case MB_BPA:
   4953                                                             if(kol==0xff00) {bpa.sost=1;break;}
   \                     ??proc_udp_data_146:
   \   0000103A   ....               RCALL   ?Subroutine189
   \                     ??CrossCallReturnLabel_293:
   \   0000103C   F421               BRNE    ??proc_udp_data_151
   \   0000103E   E001               LDI     R16, 1
   \                     ??proc_udp_data_152:
   \   00001040   9300....           STS     bpa, R16
   \   00001044   C28A               RJMP    ??CrossCallReturnLabel_649
   4954                                                             if(kol==0x0000) {bpa.sost=3;break;}
   \                     ??proc_udp_data_151:
   \   00001046   2B01               OR      R16, R17
   \   00001048   F009               BREQ    $+2+2
   \   0000104A   C287               RJMP    ??CrossCallReturnLabel_649
   \   0000104C   E003               LDI     R16, 3
   \   0000104E   CFF8               RJMP    ??proc_udp_data_152
   4955                                                    
   4956                                                    break;
   4957                                                  }
   4958          
   4959                                                 } else
   4960                                                  {
   4961                                                    if(crc==MB_COM_DISP)com_disp_mbus();   
   \                     ??proc_udp_data_141:
   \   00001050   ....               RCALL   ??Subroutine38_1
   \                     ??CrossCallReturnLabel_67:
   \   00001052   3004               CPI     R16, 4
   \   00001054   4012               SBCI    R17, 2
   \   00001056   F009               BREQ    $+2+2
   \   00001058   C280               RJMP    ??CrossCallReturnLabel_649
   \   0000105A   ........           CALL    com_disp_mbus
   \   0000105E   C27D               RJMP    ??CrossCallReturnLabel_649
   4962                                                  }
   4963                                                  
   4964                                                ////// *(unsigned int*)&buf_tx_232[TR_OP_DATA+C1_DATA+4]=swap(kol);
   4965          
   4966                                                 //Ńôîđěčđîâŕňü registr value č ęîíĺ÷íîĺ ÷čńëî îňďđŕâë˙ĺěűő áŕéň âűäŕňü ęîěŕíäó
   4967                                                 
   4968                                                 ///// Obj_ppp_tx.l_data=6;
   4969                                                 break;       
   4970                                           case 6:
   4971                                                 
   4972                                                 //////////07 11 2019 *(unsigned int*)&buf_tx_232[TR_OP_DATA+C1_DATA+2]=swap(crc);//start
   4973                                                 //////////07 11 2019 *(unsigned int*)&buf_tx_232[TR_OP_DATA+C1_DATA+4]=swap(kol);
   4974                                                 
   4975                                              // îćčäŕĺěîĺ ęîëč÷ĺńňâî áŕéň â âűőîäíîé áóôĺđ                                  
   4976                                             mobus.overall+=6 + mobus.smest_to_elam + 2;
   \                     ??proc_udp_data_95:
   \   00001060   ....               RCALL   ?Subroutine190
   4977                                             if(mobus.overall > VOL_TX_PPP ) return(0);  // âűőîä ďî îřčáęĺ
   \                     ??CrossCallReturnLabel_295:
   \   00001062   F010               BRCS    $+4+2
   \   00001064   ........           JMP     ??proc_udp_data_1
   4978                                             // îćčäŕĺěîĺ ęîëč÷ĺńňâî áŕéň â âűőîäíîé áóôĺđ
   4979                                             
   4980                                                  *mobus.point_out++=*(mobus.point_in + mobus.index_elam);
   \   00001068   ....               RCALL   ?Subroutine153
   4981                                                   if (mobus.flag_elam==1) *mobus.point_out++=*(mobus.point_in+mobus.index_elam+mobus.smest_to_elam);
   4982                                                  *mobus.point_out++=*(mobus.point_in+mobus.index_elam+mobus.smest_to_elam+1);
   \                     ??CrossCallReturnLabel_255:
   \   0000106A   ....               RCALL   ?Subroutine94
   4983                                                  *mobus.point_out++=*(mobus.point_in+mobus.index_elam+mobus.smest_to_elam+2);
   4984                                                  *mobus.point_out++=*(mobus.point_in+mobus.index_elam+mobus.smest_to_elam+3);
   4985                                                  *mobus.point_out++=*(mobus.point_in+mobus.index_elam+mobus.smest_to_elam+4);
   4986                                                  *mobus.point_out++=*(mobus.point_in+mobus.index_elam+mobus.smest_to_elam+5);
   4987                                                  Obj_ppp_tx.l_data=6 + mobus.smest_to_elam; 
   4988                                                   mobus.modbus_crc_new=crc_m1(mobus.point_out-Obj_ppp_tx.l_data, Obj_ppp_tx.l_data, 0xffff); 
   4989                                             *mobus.point_out++=mobus.modbus_crc_new>>8;
   4990                                             *mobus.point_out++=mobus.modbus_crc_new;
   4991                                              mobus.count_out_elam+=Obj_ppp_tx.l_data + 2;   // ďëţń ęîíňđîëüíŕ˙ ńóěěŕ
   4992                                                 
   4993                                                 
   4994                                                 *(unsigned int*)&buf_tx_232[1000]=kol;
   \                     ??CrossCallReturnLabel_149:
   \   0000106C   ....               RCALL   ?Subroutine196
   \                     ??CrossCallReturnLabel_306:
   \   0000106E   ....               RCALL   ?Subroutine257
   \                     ??CrossCallReturnLabel_422:
   \   00001070   ....               RCALL   ?Subroutine292
   4995                                                 
   4996                                                 
   4997                                                  if((crc>=BEGIN_SEGWR19)&&(crc<=END_SEGWR19))
   \                     ??CrossCallReturnLabel_645:
   \   00001072   ....               RCALL   ??Subroutine38_1
   \                     ??CrossCallReturnLabel_68:
   \   00001074   ....               RCALL   ?Subroutine261
   \                     ??CrossCallReturnLabel_461:
   \   00001076   ....               RCALL   ?Subroutine136
   \                     ??CrossCallReturnLabel_226:
   \   00001078   E046               LDI     R20, 6
   \   0000107A   3036               CPI     R19, 6
   \   0000107C   F048               BRCS    ??proc_udp_data_153
   \   0000107E   3021               CPI     R18, 1
   \   00001080   0734               CPC     R19, R20
   \   00001082   F008               BRCS    $+2+2
   \   00001084   C064               RJMP    ??proc_udp_data_154
   4998                                                  {
   4999                                                   
   5000                                                    zadan_ys=buf_tx_232[1000];
   \   00001086   ....               RCALL   ?Subroutine257
   \                     ??CrossCallReturnLabel_423:
   \   00001088   8100               LD      R16, Z
   \   0000108A   9300....           STS     zadan_ys, R16
   \   0000108E   C265               RJMP    ??CrossCallReturnLabel_649
   5001                                                  
   5002          
   5003                                                  } 
   5004                                                 
   5005                                                 
   5006                                                    if((crc>=BEGIN_SEGWR9)&&(crc<=END_SEGWR9))
   \                     ??proc_udp_data_153:
   \   00001090   3820               CPI     R18, 128
   \   00001092   0539               CPC     R19, R9
   \   00001094   F050               BRCS    ??proc_udp_data_155
   \   00001096   3821               CPI     R18, 129
   \   00001098   0539               CPC     R19, R9
   \   0000109A   F438               BRCC    ??proc_udp_data_155
   5007                                                  {
   5008                                                    WrArrayToFlesh(A_SEG9+(crc-BEGIN_SEGWR9)*2,&buf_tx_232[1000],2,0,0); 
   \   0000109C   ....               RCALL   ?Subroutine18
   \                     ??CrossCallReturnLabel_29:
   \   0000109E   5900               SUBI    R16, 144
   \   000010A0   4F1C               SBCI    R17, 252
   \   000010A2   ........           CALL    ?Subroutine29
   5009                                                   // RdFromFleshToArr(A_SEG9,(unsigned char *)&ust_vhod,SEG9*2);
   5010                                                    RdFromFleshToArrInt(A_SEG9,&ust_vhod,1);
   \                     ??CrossCallReturnLabel_40:
   \   000010A6   ....               RCALL   ?Subroutine285
   \                     ??CrossCallReturnLabel_605:
   \   000010A8   C258               RJMP    ??CrossCallReturnLabel_649
   5011          
   5012                                                  } 
   5013                                                 
   5014                                                 if((crc >= BEGIN_SEGWR)&&(crc <= END_SEGWR)) 
   \                     ??proc_udp_data_155:
   \   000010AA   3520               CPI     R18, 80
   \   000010AC   E041               LDI     R20, 1
   \   000010AE   0734               CPC     R19, R20
   \   000010B0   F088               BRCS    ??proc_udp_data_156
   \   000010B2   3620               CPI     R18, 96
   \   000010B4   0734               CPC     R19, R20
   \   000010B6   F470               BRCC    ??proc_udp_data_156
   5015                                                  {
   5016                                                   modbus_mem1[crc-BEGIN_SEGWR]=kol;
   \   000010B8   0189               MOVW    R17:R16, R19:R18
   \   000010BA   ....               RCALL   ?Subroutine261
   \                     ??CrossCallReturnLabel_462:
   \   000010BC   812C               LDD     R18, Y+4
   \   000010BE   813D               LDD     R19, Y+5
   \   000010C0   ....               LDI     R30, LOW(modbus_mem1)
   \   000010C2   ....               LDI     R31, (modbus_mem1) >> 8
   \   000010C4   ........           CALL    ?Subroutine106
   5017                                                   cnt_tii[crc-BEGIN_SEGWR]=kol;
   \                     ??CrossCallReturnLabel_185:
   \   000010C8   812C               LDD     R18, Y+4
   \   000010CA   813D               LDD     R19, Y+5
   \   000010CC   ....               RCALL   ?Subroutine244
   \                     ??CrossCallReturnLabel_367:
   \   000010CE   ........           CALL    ?Subroutine106
   5018                                                 // for(i=0;i<8;i++)cnt_tii[i]=modbus_mem1[AD_TII1+i];
   5019                                                   crc_tii=func_crc_tii();
   \                     ??CrossCallReturnLabel_186:
   \   000010D2   C23E               RJMP    ??proc_udp_data_157
   5020                                                  }
   5021                           
   5022                                                 if((crc>=BEGIN_SEGWR3)&&(crc<=END_SEGWR3))
   \                     ??proc_udp_data_156:
   \   000010D4   E044               LDI     R20, 4
   \   000010D6   3034               CPI     R19, 4
   \   000010D8   F0B8               BRCS    ??proc_udp_data_158
   \   000010DA   3222               CPI     R18, 34
   \   000010DC   0734               CPC     R19, R20
   \   000010DE   F4A0               BRCC    ??proc_udp_data_158
   5023                                                  {
   5024                                                    RdFromFleshToArr(A_SEG3+(crc-BEGIN_SEGWR3)*2,&buf_tx_232[1050],2);
   \   000010E0   5014               SUBI    R17, 4
   \   000010E2   01C8               MOVW    R25:R24, R17:R16
   \   000010E4   E042               LDI     R20, 2
   \   000010E6   ....               RCALL   ?Subroutine28
   \                     ??CrossCallReturnLabel_38:
   \   000010E8   ....               RCALL   ??Subroutine287_0
   5025                                                    WrArrayToFlesh(A_SEG3+(crc-BEGIN_SEGWR3)*2,&buf_tx_232[1000],2,0,0); 
   \                     ??CrossCallReturnLabel_836:
   \   000010EA   ....               RCALL   ?Subroutine18
   \                     ??CrossCallReturnLabel_30:
   \   000010EC   018C               MOVW    R17:R16, R25:R24
   \   000010EE   ....               RCALL   ?Subroutine282
   5026                                                    RdFromFleshToArr(A_SEG3,(unsigned char *)&c2_byte.mb[0],SEG3*2);
   \                     ??CrossCallReturnLabel_588:
   \   000010F0   ....               RCALL   ?Subroutine23
   5027                                                    if(*(unsigned int*)&buf_tx_232[1050]!=*(unsigned int*)&buf_tx_232[1000])refresh_a(crc-BEGIN_SEG3);
   \                     ??CrossCallReturnLabel_846:
   \   000010F2   ....               RCALL   ?Subroutine257
   \                     ??CrossCallReturnLabel_424:
   \   000010F4   A902               LDD     R16, Z+50
   \   000010F6   A913               LDD     R17, Z+51
   \   000010F8   ....               RCALL   ?Subroutine257
   \                     ??CrossCallReturnLabel_425:
   \   000010FA   ....               RCALL   ?Subroutine180
   \                     ??CrossCallReturnLabel_444:
   \   000010FC   F409               BRNE    $+2+2
   \   000010FE   C22D               RJMP    ??CrossCallReturnLabel_649
   \   00001100   8108               LD      R16, Y
   \   00001102   ........           CALL    refresh_a
   \   00001106   C229               RJMP    ??CrossCallReturnLabel_649
   5028                                                   
   5029                                                  }
   5030                                                 
   5031                                                    if((crc>=BEGIN_SEGWR8)&&(crc<=END_SEGWR8))
   \                     ??proc_udp_data_158:
   \   00001108   3320               CPI     R18, 48
   \   0000110A   0734               CPC     R19, R20
   \   0000110C   F098               BRCS    ??proc_udp_data_159
   \   0000110E   3428               CPI     R18, 72
   \   00001110   0734               CPC     R19, R20
   \   00001112   F480               BRCC    ??proc_udp_data_159
   5032                                                  {
   5033                                                    WrArrayToFlesh(A_SEG8+(crc-BEGIN_SEGWR8)*2,&buf_tx_232[1000],2,0,0); 
   \   00001114   ....               RCALL   ?Subroutine18
   \                     ??CrossCallReturnLabel_31:
   \   00001116   5200               SUBI    R16, 32
   \   00001118   4014               SBCI    R17, 4
   \   0000111A   ....               RCALL   ?Subroutine282
   5034                                             //       RdFromFleshToArr(A_SEG8,(unsigned char *)&c_config_tc[0],SEG8*2);
   5035                                                    if((crc-BEGIN_SEGWR8)==0x17 )   {k_a_tit[0]=0; k_a_tit[1]=0;}
   \                     ??CrossCallReturnLabel_587:
   \   0000111C   ....               RCALL   ??Subroutine38_1
   \                     ??CrossCallReturnLabel_69:
   \   0000111E   5300               SUBI    R16, 48
   \   00001120   4014               SBCI    R17, 4
   \   00001122   3107               CPI     R16, 23
   \   00001124   4010               SBCI    R17, 0
   \   00001126   F421               BRNE    ??proc_udp_data_160
   \   00001128   9290....           STS     k_a_tit, R9
   \   0000112C   9290....           STS     (k_a_tit + 1), R9
   5036                                                    RdFromFleshToArrInt(A_SEG8, &c_config_tc[0],SEG8);
   \                     ??proc_udp_data_160:
   \   00001130   ....               RCALL   ?Subroutine30
   \                     ??CrossCallReturnLabel_42:
   \   00001132   CFB9               RJMP    ??CrossCallReturnLabel_40
   5037                                                   
   5038                                                  }
   5039                                                  
   5040                                                  
   5041                                                  // çŕďčńŕňü ęîíôčăóđŕöčţ ĂÇÓ
   5042                                                   if((crc>=BEGIN_SEGWR99)&&(crc<=END_SEGWR99))
   \                     ??proc_udp_data_159:
   \   00001134   3035               CPI     R19, 5
   \   00001136   F408               BRCC    $+2+2
   \   00001138   C210               RJMP    ??CrossCallReturnLabel_649
   \   0000113A   3021               CPI     R18, 1
   \   0000113C   4035               SBCI    R19, 5
   \   0000113E   F008               BRCS    $+2+2
   \   00001140   C20C               RJMP    ??CrossCallReturnLabel_649
   5043                                                  {
   5044                                                    WrArrayToFlesh(A_SEG99+(crc-BEGIN_SEGWR99)*2,&buf_tx_232[1000],2,0,0); 
   \   00001142   ....               RCALL   ?Subroutine18
   \                     ??CrossCallReturnLabel_32:
   \   00001144   5800               SUBI    R16, 128
   \   00001146   4015               SBCI    R17, 5
   \   00001148   ....               RCALL   ?Subroutine282
   5045                                             
   5046                                                    RdFromFleshToArr(A_SEG99,(unsigned char *)&c1_byte.mb[0],SEG99*2);
   \                     ??CrossCallReturnLabel_586:
   \   0000114A   ....               RCALL   ?Subroutine24
   \                     ??CrossCallReturnLabel_848:
   \   0000114C   C206               RJMP    ??CrossCallReturnLabel_649
   5047                                                   
   5048                                                  }
   5049                                                 
   5050                                                 
   5051                                                 if((crc>=BEGIN_SEGWR6)&&(crc<=END_SEGWR6))
   \                     ??proc_udp_data_154:
   \   0000114E   3037               CPI     R19, 7
   \   00001150   F040               BRCS    ??proc_udp_data_161
   \   00001152   3F2E               CPI     R18, 254
   \   00001154   E048               LDI     R20, 8
   \   00001156   0734               CPC     R19, R20
   \   00001158   F420               BRCC    ??proc_udp_data_161
   5052                                                  {
   5053                                                    WrArrayToFlesh(A_SEG6+(crc-BEGIN_SEGWR6)*2,&buf_tx_232[1000],2,0,0); 
   \   0000115A   ....               RCALL   ?Subroutine18
   \                     ??CrossCallReturnLabel_33:
   \   0000115C   5D1E               SUBI    R17, 222
   \   0000115E   ....               RCALL   ?Subroutine282
   \                     ??CrossCallReturnLabel_585:
   \   00001160   C1FC               RJMP    ??CrossCallReturnLabel_649
   5054                                                  }
   5055                                                 
   5056                                                 if((crc>=BEGIN_SEGWR4)&&(crc<=END_SEGWR4))
   \                     ??proc_udp_data_161:
   \   00001162   0189               MOVW    R17:R16, R19:R18
   \   00001164   3130               CPI     R19, 16
   \   00001166   F408               BRCC    $+2+2
   \   00001168   C1F8               RJMP    ??CrossCallReturnLabel_649
   \   0000116A   3026               CPI     R18, 6
   \   0000116C   4110               SBCI    R17, 16
   \   0000116E   F008               BRCS    $+2+2
   \   00001170   C1F4               RJMP    ??CrossCallReturnLabel_649
   5057                                                  {
   5058                                                    flag_time=0;
   5059                                                    burst_ds_r();
   \   00001172   ....               RCALL   ?Subroutine66
   5060                                                
   5061                                                    buf_tx_232[1000]=real_time.r_sec;
   5062                                                    buf_tx_232[1001]=real_time.r_min;
   5063                                                    buf_tx_232[1002]=real_time.r_hor;
   5064                                                    buf_tx_232[1003]=real_time.r_date;
   5065                                                    buf_tx_232[1004]=real_time.r_month;
   5066                                                    buf_tx_232[1005]=real_time.r_year;
   5067                                                    
   5068                                                    if(crc==MB_SEC)if(kol<60){buf_tx_232[1000]=kol;flag_time=1;}
   \                     ??CrossCallReturnLabel_405:
   \   00001174   ....               RCALL   ??Subroutine38_1
   \                     ??CrossCallReturnLabel_70:
   \   00001176   3000               CPI     R16, 0
   \   00001178   E120               LDI     R18, 16
   \   0000117A   0712               CPC     R17, R18
   \   0000117C   F431               BRNE    ??proc_udp_data_162
   \   0000117E   ....               RCALL   ?Subroutine195
   \                     ??CrossCallReturnLabel_485:
   \   00001180   F008               BRCS    $+2+2
   \   00001182   C1EB               RJMP    ??CrossCallReturnLabel_649
   \   00001184   ....               RCALL   ?Subroutine257
   \                     ??CrossCallReturnLabel_426:
   \   00001186   8300               ST      Z, R16
   \   00001188   C03C               RJMP    ??CrossCallReturnLabel_407
   5069                                                    if(crc==MB_MIN)if(kol<60){buf_tx_232[1001]=kol;flag_time=1;}
   \                     ??proc_udp_data_162:
   \   0000118A   3001               CPI     R16, 1
   \   0000118C   0712               CPC     R17, R18
   \   0000118E   F431               BRNE    ??proc_udp_data_163
   \   00001190   ....               RCALL   ?Subroutine195
   \                     ??CrossCallReturnLabel_486:
   \   00001192   F008               BRCS    $+2+2
   \   00001194   C1E2               RJMP    ??CrossCallReturnLabel_649
   \   00001196   ....               RCALL   ?Subroutine257
   \                     ??CrossCallReturnLabel_427:
   \   00001198   8301               STD     Z+1, R16
   \   0000119A   C033               RJMP    ??CrossCallReturnLabel_407
   5070                                                    if(crc==MB_HR) if(kol<24){buf_tx_232[1002]=kol;flag_time=1;}
   \                     ??proc_udp_data_163:
   \   0000119C   3002               CPI     R16, 2
   \   0000119E   0712               CPC     R17, R18
   \   000011A0   F449               BRNE    ??proc_udp_data_164
   \   000011A2   818C               LDD     R24, Y+4
   \   000011A4   819D               LDD     R25, Y+5
   \   000011A6   3188               CPI     R24, 24
   \   000011A8   4090               SBCI    R25, 0
   \   000011AA   F008               BRCS    $+2+2
   \   000011AC   C1D6               RJMP    ??CrossCallReturnLabel_649
   \   000011AE   ....               RCALL   ?Subroutine257
   \                     ??CrossCallReturnLabel_428:
   \   000011B0   8382               STD     Z+2, R24
   \   000011B2   C027               RJMP    ??CrossCallReturnLabel_407
   5071                                                    if(crc==MB_DAY)if(kol<32){buf_tx_232[1003]=kol;flag_time=1;}
   \                     ??proc_udp_data_164:
   \   000011B4   3003               CPI     R16, 3
   \   000011B6   0712               CPC     R17, R18
   \   000011B8   F449               BRNE    ??proc_udp_data_165
   \   000011BA   818C               LDD     R24, Y+4
   \   000011BC   819D               LDD     R25, Y+5
   \   000011BE   3280               CPI     R24, 32
   \   000011C0   4090               SBCI    R25, 0
   \   000011C2   F008               BRCS    $+2+2
   \   000011C4   C1CA               RJMP    ??CrossCallReturnLabel_649
   \   000011C6   ....               RCALL   ?Subroutine257
   \                     ??CrossCallReturnLabel_429:
   \   000011C8   8383               STD     Z+3, R24
   \   000011CA   C01B               RJMP    ??CrossCallReturnLabel_407
   5072                                                    if(crc==MB_MONTH)if(kol<13)if(kol!=0){buf_tx_232[1004]=kol;flag_time=1;}
   \                     ??proc_udp_data_165:
   \   000011CC   3004               CPI     R16, 4
   \   000011CE   0712               CPC     R17, R18
   \   000011D0   F471               BRNE    ??proc_udp_data_166
   \   000011D2   818C               LDD     R24, Y+4
   \   000011D4   819D               LDD     R25, Y+5
   \   000011D6   308D               CPI     R24, 13
   \   000011D8   4090               SBCI    R25, 0
   \   000011DA   F008               BRCS    $+2+2
   \   000011DC   C1BE               RJMP    ??CrossCallReturnLabel_649
   \   000011DE   2F08               MOV     R16, R24
   \   000011E0   811D               LDD     R17, Y+5
   \   000011E2   2B01               OR      R16, R17
   \   000011E4   F409               BRNE    $+2+2
   \   000011E6   C1B9               RJMP    ??CrossCallReturnLabel_649
   \   000011E8   ....               RCALL   ?Subroutine257
   \                     ??CrossCallReturnLabel_430:
   \   000011EA   8384               STD     Z+4, R24
   \   000011EC   C00A               RJMP    ??CrossCallReturnLabel_407
   5073                                                    if(crc==MB_YEAR)
   \                     ??proc_udp_data_166:
   \   000011EE   3005               CPI     R16, 5
   \   000011F0   4110               SBCI    R17, 16
   \   000011F2   F009               BREQ    $+2+2
   \   000011F4   C1B2               RJMP    ??CrossCallReturnLabel_649
   5074                                                      {
   5075                                                      // year=kol-2000;
   5076                                                      // if(year<100){buf_tx_232[1005]=year;flag_time=1;}
   5077                                                      if(kol<100){buf_tx_232[1005]=kol;flag_time=1;}
   \   000011F6   ....               RCALL   ?Subroutine196
   \                     ??CrossCallReturnLabel_307:
   \   000011F8   3604               CPI     R16, 100
   \   000011FA   4010               SBCI    R17, 0
   \   000011FC   F008               BRCS    $+2+2
   \   000011FE   C1AD               RJMP    ??CrossCallReturnLabel_649
   \   00001200   ....               RCALL   ?Subroutine253
   5078                                                      }  
   5079                                                  if(flag_time!=0) 
   5080                                                  {
   5081                                                   old_unix=unix;
   \                     ??CrossCallReturnLabel_407:
   \   00001202   ....               RCALL   ?Subroutine49
   5082                                                   set_rlt(2,&buf_tx_232[1000]);
   5083                                                   burst_ds_r();
   5084                                                  // if ((( old_unix - unix) >= 600 )||(( unix - old_unix) >= 600 )) bit_level=1;        
   5085                                                  if(unix>old_unix)
   \                     ??CrossCallReturnLabel_78:
   \   00001204   F420               BRCC    ??proc_udp_data_167
   5086                                                   {
   5087                                                    if (( unix - old_unix) >= 600 ) bit_level=1;   
   \   00001206   ....               RCALL   ?Subroutine245
   \                     ??CrossCallReturnLabel_527:
   \   00001208   F030               BRCS    ??proc_udp_data_168
   \                     ??proc_udp_data_169:
   \   0000120A   ....               RCALL   ?Subroutine162
   \                     ??CrossCallReturnLabel_263:
   \   0000120C   C004               RJMP    ??proc_udp_data_168
   5088                                                   }
   5089                                                   else
   5090                                                   {
   5091                                                     if ((old_unix-unix) >= 600 ) bit_level=1; 
   \                     ??proc_udp_data_167:
   \   0000120E   ....               RCALL   ?Subroutine235
   \                     ??CrossCallReturnLabel_549:
   \   00001210   0469               CPC     R6, R9
   \   00001212   0479               CPC     R7, R9
   \   00001214   F7D0               BRCC    ??proc_udp_data_169
   5092                                                   }
   5093          
   5094                                                   if ( ( sost_psm==4)  && (bit_level==1) )bit_level_psm=1;
   \                     ??proc_udp_data_168:
   \   00001216   9100....           LDS     R16, sost_psm
   \   0000121A   3004               CPI     R16, 4
   \   0000121C   F009               BREQ    $+2+2
   \   0000121E   C19D               RJMP    ??CrossCallReturnLabel_649
   \   00001220   9100....           LDS     R16, bit_level
   \   00001224   3001               CPI     R16, 1
   \   00001226   F009               BREQ    $+2+2
   \   00001228   C198               RJMP    ??CrossCallReturnLabel_649
   \   0000122A   E001               LDI     R16, 1
   \   0000122C   9300....           STS     bit_level_psm, R16
   \   00001230   C194               RJMP    ??CrossCallReturnLabel_649
   5095                                                  }
   5096                                                  
   5097                                                  
   5098                                                  }
   5099                                                  
   5100                                              /////07 11 2019   Obj_ppp_tx.l_data=6;
   5101                                                 
   5102                                                 break;
   5103                                           case 16:
   5104                                             
   5105                                              // îćčäŕĺěîĺ ęîëč÷ĺńňâî áŕéň â âűőîäíîé áóôĺđ                                  
   5106                                             mobus.overall+=6 + mobus.smest_to_elam + 2;
   \                     ??proc_udp_data_96:
   \   00001232   ....               RCALL   ?Subroutine190
   5107                                             if(mobus.overall > VOL_TX_PPP ) return(0);  // âűőîä ďî îřčáęĺ
   \                     ??CrossCallReturnLabel_296:
   \   00001234   F010               BRCS    $+4+2
   \   00001236   ........           JMP     ??proc_udp_data_1
   5108                                             // îćčäŕĺěîĺ ęîëč÷ĺńňâî áŕéň â âűőîäíîé áóôĺđ
   5109                                             
   5110                                               *mobus.point_out++=*(mobus.point_in + mobus.index_elam);
   \   0000123A   ....               RCALL   ?Subroutine153
   5111                                                   if (mobus.flag_elam==1) *mobus.point_out++=*(mobus.point_in+mobus.index_elam+mobus.smest_to_elam);
   5112                                                  *mobus.point_out++=*(mobus.point_in+mobus.index_elam+mobus.smest_to_elam+1);
   \                     ??CrossCallReturnLabel_256:
   \   0000123C   ....               RCALL   ?Subroutine94
   5113                                                  *mobus.point_out++=*(mobus.point_in+mobus.index_elam+mobus.smest_to_elam+2);
   5114                                                  *mobus.point_out++=*(mobus.point_in+mobus.index_elam+mobus.smest_to_elam+3);
   5115                                                  *mobus.point_out++=*(mobus.point_in+mobus.index_elam+mobus.smest_to_elam+4);
   5116                                                  *mobus.point_out++=*(mobus.point_in+mobus.index_elam+mobus.smest_to_elam+5);
   5117                                                  Obj_ppp_tx.l_data=6 + mobus.smest_to_elam; 
   5118                                                   mobus.modbus_crc_new=crc_m1(mobus.point_out-Obj_ppp_tx.l_data, Obj_ppp_tx.l_data, 0xffff); 
   5119                                             *mobus.point_out++=mobus.modbus_crc_new>>8;
   5120                                             *mobus.point_out++=mobus.modbus_crc_new;
   5121                                              mobus.count_out_elam+=Obj_ppp_tx.l_data + 2;   // ďëţń ęîíňđîëüíŕ˙ ńóěěŕ
   5122                                                 
   5123                                                flag_tii=0;
   \                     ??CrossCallReturnLabel_150:
   \   0000123E   869A               STD     Y+10, R9
   5124                                                flag_time=0;
   \   00001240   869D               STD     Y+13, R9
   5125                                                flag_refresh=0;
   5126                                                
   5127                                                burst_ds_r();
   \   00001242   ....               RCALL   ?Subroutine66
   5128                                                
   5129                                                buf_tx_232[1000]=real_time.r_sec;
   5130                                                buf_tx_232[1001]=real_time.r_min;
   5131                                                buf_tx_232[1002]=real_time.r_hor;
   5132                                                buf_tx_232[1003]=real_time.r_date;
   5133                                                buf_tx_232[1004]=real_time.r_month;
   5134                                                buf_tx_232[1005]=real_time.r_year;
   5135                                                
   5136                                                RdFromFleshToArr(A_SEG3,&buf_tx_232[1050],16);
   \                     ??CrossCallReturnLabel_406:
   \   00001244   E140               LDI     R20, 16
   \   00001246   ....               RCALL   ?Subroutine28
   \                     ??CrossCallReturnLabel_39:
   \   00001248   E000               LDI     R16, 0
   \   0000124A   E014               LDI     R17, 4
   \   0000124C   ....               RCALL   ??Subroutine287_0
   5137                                                
   5138                                                 /////07 11 2019 *(unsigned int*)&buf_tx_232[TR_OP_DATA+C1_DATA+2]=swap(crc);//start
   5139                                                 /////07 11 2019 *(unsigned int*)&buf_tx_232[TR_OP_DATA+C1_DATA+4]=swap(kol);//start
   5140                                                 /////////////////////////////////!!!!!!!!!!!!!!!!!!!!!!!!!!!!
   5141                                              /////////////////////////////////!!!!!!!!!!!!!!!!!!!!!!!!!!!!
   5142                                             
   5143                                                
   5144                                       
   5145                                                
   5146                                             for(ii=0;ii<kol;ii++)
   \                     ??CrossCallReturnLabel_835:
   \   0000124E   2488               CLR     R8
   \   00001250   C00B               RJMP    ??CrossCallReturnLabel_269
   5147                                              { 
   5148                                            
   5149                                              
   5150                                              if(((crc+ii)>=BEGIN_SEGWR9)&&((crc+ii)<=END_SEGWR9))
   5151                                              {
   5152                                                if((crc+kol-1)<=END_SEGWR9)
   5153                                                    {
   5154                                                    for(k=0;k<(kol-ii);k++) *(unsigned int*)(mobus.point_in+mobus.index_elam + mobus.smest_to_elam + 7 +(ii<<1)+(k<<1))=swap(*(unsigned int*)(mobus.point_in+mobus.index_elam + mobus.smest_to_elam + 7 +(ii<<1)+(k<<1)));
   5155                                                    WrArrayToFlesh(A_SEG9+(crc+ii-BEGIN_SEGWR9)*2,(mobus.point_in+mobus.index_elam + mobus.smest_to_elam + 7 +(ii<<1)),(kol-ii)*2,0,0);                                      
   5156                                                    ii=kol;
   5157                                                    }
   5158                                                  
   5159                                                else
   5160                                                    {  
   5161                                                    for(k=0;k<(END_SEG9-(crc+ii)+1);k++) *(unsigned int*)(mobus.point_in+mobus.index_elam + mobus.smest_to_elam + 7 +(ii<<1)+(k<<1))=swap(*(unsigned int*)(mobus.point_in+mobus.index_elam + mobus.smest_to_elam + 7 +(ii<<1)+(k<<1)));
   5162                                                    WrArrayToFlesh(A_SEG9+(crc+ii-BEGIN_SEGWR9)*2, (mobus.point_in+mobus.index_elam + mobus.smest_to_elam + 7 +(ii<<1)),(kol-ii)*2,0,0);
   5163                                                    ii=END_SEGWR9-crc;
   5164                                                    }
   5165                                                
   5166                                       //        RdFromFleshToArr(A_SEG9,(unsigned char *)&ust_vhod,SEG9*2); 
   5167                                                RdFromFleshToArrInt(A_SEG9,&ust_vhod,1);
   5168                                              }   
   5169                                                
   5170                                                
   5171                                                
   5172                                              if((crc+ii)==MB_TII1){modbus_mem1[AD_TII1]=swap(*(unsigned int*) (mobus.point_in+mobus.index_elam + mobus.smest_to_elam + 7 +(ii<<1)));cnt_tii[0]=modbus_mem1[AD_TII1];flag_tii=1;}
   5173                                              if((crc+ii)==MB_TII2){modbus_mem1[AD_TII2]=swap(*(unsigned int*) (mobus.point_in+mobus.index_elam + mobus.smest_to_elam + 7 +(ii<<1)));cnt_tii[1]=modbus_mem1[AD_TII2];flag_tii=1;}
   5174                                              if((crc+ii)==MB_TII3){modbus_mem1[AD_TII3]=swap(*(unsigned int*) (mobus.point_in+mobus.index_elam + mobus.smest_to_elam + 7 +(ii<<1)));cnt_tii[2]=modbus_mem1[AD_TII3];flag_tii=1;}
   5175                                              if((crc+ii)==MB_TII4){modbus_mem1[AD_TII4]=swap(*(unsigned int*) (mobus.point_in+mobus.index_elam + mobus.smest_to_elam + 7 +(ii<<1)));cnt_tii[3]=modbus_mem1[AD_TII4];flag_tii=1;}
   5176                                              if((crc+ii)==MB_TII5){modbus_mem1[AD_TII5]=swap(*(unsigned int*) (mobus.point_in+mobus.index_elam + mobus.smest_to_elam + 7 +(ii<<1)));cnt_tii[4]=modbus_mem1[AD_TII5];flag_tii=1;}
   5177                                              if((crc+ii)==MB_TII6){modbus_mem1[AD_TII6]=swap(*(unsigned int*) (mobus.point_in+mobus.index_elam + mobus.smest_to_elam + 7 +(ii<<1)));cnt_tii[5]=modbus_mem1[AD_TII6];flag_tii=1;}
   5178                                              if((crc+ii)==MB_TII7){modbus_mem1[AD_TII7]=swap(*(unsigned int*) (mobus.point_in+mobus.index_elam + mobus.smest_to_elam + 7 +(ii<<1)));cnt_tii[6]=modbus_mem1[AD_TII7];flag_tii=1;}
   5179                                              if((crc+ii)==MB_TII8){modbus_mem1[AD_TII8]=swap(*(unsigned int*) (mobus.point_in+mobus.index_elam + mobus.smest_to_elam + 7 +(ii<<1)));cnt_tii[7]=modbus_mem1[AD_TII8];flag_tii=1;}
   5180                           
   5181                                              if(((crc+ii)>=(BEGIN_SEGWR+8))&&((crc+ii)<=END_SEGWR)) modbus_mem1[crc+ii-BEGIN_SEGWR]=swap(*(unsigned int*) (mobus.point_in+mobus.index_elam + mobus.smest_to_elam + 7 +(ii<<1)));
   5182                                              
   5183                                            
   5184                                              
   5185                                              
   5186                                              
   5187                                              
   5188                                              if(((crc+ii)>=BEGIN_SEGWR3)&&((crc+ii)<=END_SEGWR3))
   5189                                              {
   5190                                                flag_refresh=1;
   5191                                                bit_level=1;
   5192                                                if((crc+kol-1)<=END_SEGWR3)
   5193                                                    {
   5194                                                    for(k=0;k<(kol-ii);k++) *(unsigned int*)(mobus.point_in+mobus.index_elam + mobus.smest_to_elam + 7 +(ii<<1)+(k<<1))=swap(*(unsigned int*)(mobus.point_in+mobus.index_elam + mobus.smest_to_elam + 7 +(ii<<1)+(k<<1)));
   5195                                                    WrArrayToFlesh(A_SEG3+(crc+ii-BEGIN_SEGWR3)*2, (mobus.point_in+mobus.index_elam + mobus.smest_to_elam + 7 +(ii<<1)),(kol-ii)*2,0,0);                                      
   5196                                                    ii=kol;
   5197                                                    }
   5198                                                  
   5199                                                else
   5200                                                    {  
   5201                                                    for(k=0;k<(END_SEG3-(crc+ii)+1);k++) *(unsigned int*)(mobus.point_in+mobus.index_elam + mobus.smest_to_elam + 7 +(ii<<1)+(k<<1))=swap(*(unsigned int*)(mobus.point_in+mobus.index_elam + mobus.smest_to_elam + 7 +(ii<<1)+(k<<1)));
   5202                                                    WrArrayToFlesh(A_SEG3+(crc+ii-BEGIN_SEGWR3)*2, (mobus.point_in+mobus.index_elam + mobus.smest_to_elam + 7 +(ii<<1)),(kol-ii)*2,0,0);
   5203                                                    ii=END_SEGWR3-crc;
   5204                                                    }
   5205                                                
   5206                                                RdFromFleshToArr(A_SEG3,(unsigned char *)&c2_byte.mb[0],SEG3*2);
   5207                                              }   
   5208                                  
   5209                                         if(((crc+ii)>=BEGIN_SEGWR8)&&((crc+ii)<=END_SEGWR8))
   5210                                              {
   5211                                                if((crc+kol-1)<=END_SEGWR8)
   5212                                                    {
   5213                                                    for(k=0;k<(kol-ii);k++) *(unsigned int*)(mobus.point_in+mobus.index_elam + mobus.smest_to_elam + 7 +(ii<<1)+(k<<1))=swap(*(unsigned int*)(mobus.point_in+mobus.index_elam + mobus.smest_to_elam + 7 +(ii<<1)+(k<<1)));
   5214                                                    WrArrayToFlesh(A_SEG8+(crc+ii-BEGIN_SEGWR8)*2, (mobus.point_in+mobus.index_elam + mobus.smest_to_elam + 7 +(ii<<1)),(kol-ii)*2,0,0);                                      
   5215                                                      if ((crc+kol-1)==END_SEGWR8)   {k_a_tit[0]=0; k_a_tit[1]=0;}
   5216                                                    ii=kol;
   5217                                                    }
   5218                                                  
   5219                                                else
   5220                                                    {  
   5221                                                    for(k=0;k<(END_SEG8-(crc+ii)+1);k++) *(unsigned int*)(mobus.point_in+mobus.index_elam + mobus.smest_to_elam + 7 +(ii<<1)+(k<<1))=swap(*(unsigned int*)(mobus.point_in+mobus.index_elam + mobus.smest_to_elam + 7 +(ii<<1)+(k<<1)));
   5222                                                    WrArrayToFlesh(A_SEG8+(crc+ii-BEGIN_SEGWR8)*2, (mobus.point_in+mobus.index_elam + mobus.smest_to_elam + 7 +(ii<<1)),(kol-ii)*2,0,0);
   5223                                                    ii=END_SEGWR8-crc;
   5224                                                    }
   5225                                                
   5226                                               //RdFromFleshToArr(A_SEG8,(unsigned char *)&c_config_tc[0],SEG8*2); 
   5227                                                 RdFromFleshToArrInt(A_SEG8, &c_config_tc[0],SEG8);
   5228                                              }   
   5229                                              
   5230                                             /// ĂÇÓ
   5231                                              if(((crc+ii)>=BEGIN_SEGWR99)&&((crc+ii)<=END_SEGWR99))
   5232                                              {
   5233                                                if((crc+kol-1)<=END_SEGWR99)
   5234                                                    {
   5235                                                    for(k=0;k<(kol-ii);k++) *(unsigned int*)(mobus.point_in+mobus.index_elam + mobus.smest_to_elam + 7 +(ii<<1)+(k<<1))=swap(*(unsigned int*)(mobus.point_in+mobus.index_elam + mobus.smest_to_elam + 7 +(ii<<1)+(k<<1)));
   5236                                                    WrArrayToFlesh(A_SEG99+(crc+ii-BEGIN_SEGWR99)*2, (mobus.point_in+mobus.index_elam + mobus.smest_to_elam + 7 +(ii<<1)),(kol-ii)*2,0,0);                                      
   5237                                                    ii=kol;
   5238                                                    }
   5239                                                  
   5240                                                else
   5241                                                    {  
   5242                                                    for(k=0;k<(END_SEG99-(crc+ii)+1);k++) *(unsigned int*)(mobus.point_in+mobus.index_elam + mobus.smest_to_elam + 7 +(ii<<1)+(k<<1))=swap(*(unsigned int*)(mobus.point_in+mobus.index_elam + mobus.smest_to_elam + 7 +(ii<<1)+(k<<1)));
   5243                                                    WrArrayToFlesh(A_SEG99+(crc+ii-BEGIN_SEGWR99)*2, (mobus.point_in+mobus.index_elam + mobus.smest_to_elam + 7 +(ii<<1)),(kol-ii)*2,0,0);
   5244                                                    ii=END_SEGWR99-crc;
   5245                                                    }
   5246                                                
   5247                                               
   5248                                                RdFromFleshToArr(A_SEG99,(unsigned char *)&c1_byte.mb[0],SEG99*2);
   5249                                              }    
   5250                                              
   5251                                              
   5252                                              
   5253                                              if(((crc+ii)>=BEGIN_SEGWR6)&&((crc+ii)<=END_SEGWR6))
   5254                                              {
   5255                                             
   5256                                                if((crc+kol-1)<=END_SEGWR6)
   5257                                                    {
   5258                                                    for(k=0;k<(kol-ii);k++) *(unsigned int*)(mobus.point_in+mobus.index_elam + mobus.smest_to_elam + 7 +(ii<<1)+(k<<1))=swap(*(unsigned int*)(mobus.point_in+mobus.index_elam + mobus.smest_to_elam + 7 +(ii<<1)+(k<<1)));
   5259                                                    WrArrayToFlesh(A_SEG6+(crc+ii-BEGIN_SEGWR6)*2, (mobus.point_in+mobus.index_elam + mobus.smest_to_elam + 7 +(ii<<1)),(kol-ii)*2,0,0);                                      
   5260                                                    ii=kol;
   5261                                                    }
   5262                                                  
   5263                                                else
   5264                                                    {  
   5265                                                    for(k=0;k<(END_SEG6-(crc+ii)+1);k++) *(unsigned int*)(mobus.point_in+mobus.index_elam + mobus.smest_to_elam + 7 +(ii<<1)+(k<<1))=swap(*(unsigned int*)(mobus.point_in+mobus.index_elam + mobus.smest_to_elam + 7 +(ii<<1)+(k<<1)));
   5266                                                    WrArrayToFlesh(A_SEG6+(crc+ii-BEGIN_SEGWR6)*2, (mobus.point_in+mobus.index_elam + mobus.smest_to_elam + 7 +(ii<<1)),(kol-ii)*2,0,0);
   5267                                                    ii=END_SEGWR6-crc;
   5268                                                    }
   5269                                                
   5270                                                
   5271                                              }   
   5272                                              
   5273                                              
   5274                                              
   5275                                              
   5276                                              if((crc+ii)==MB_SEC)
   5277                                                     if(swap(*(unsigned int*) (mobus.point_in+mobus.index_elam + mobus.smest_to_elam + 7 +(ii<<1)))<60)
   5278                                                           {buf_tx_232[1000]=buf_rx_ppp[offset+C1_DATA+16+(ii<<1)];flag_time=1;}
   5279                                              if((crc+ii)==MB_MIN)
   5280                                                     if(swap(*(unsigned int*) (mobus.point_in+mobus.index_elam + mobus.smest_to_elam + 7 +(ii<<1)))<60)
   5281                                                           {buf_tx_232[1001]=buf_rx_ppp[offset+C1_DATA+16+(ii<<1)];flag_time=1;}
   5282                                             
   5283                                              if((crc+ii)==MB_HR)
   5284                                                     if(swap(*(unsigned int*) (mobus.point_in+mobus.index_elam + mobus.smest_to_elam + 7 +(ii<<1)))<24)
   5285                                                           {buf_tx_232[1002]=buf_rx_ppp[offset+C1_DATA+16+(ii<<1)];flag_time=1;}
   5286                                              
   5287                                              
   5288                                              if((crc+ii)==MB_DAY)
   5289                                                     if(swap(*(unsigned int*) (mobus.point_in+mobus.index_elam + mobus.smest_to_elam + 7 +(ii<<1)))<32)
   5290                                                           {buf_tx_232[1003]=buf_rx_ppp[offset+C1_DATA+16+(ii<<1)];flag_time=1;}
   5291                                              
   5292                                              if((crc+ii)==MB_MONTH)
   5293                                                     if(swap(*(unsigned int*) (mobus.point_in+mobus.index_elam + mobus.smest_to_elam + 7 +(ii<<1)))<13)
   5294                                                           if(swap(*(unsigned int*) (mobus.point_in+mobus.index_elam + mobus.smest_to_elam + 7 +(ii<<1)))!=0)
   5295                                                                   {buf_tx_232[1004]=buf_rx_ppp[offset+C1_DATA+16+(ii<<1)];flag_time=1;}
   5296                                              
   5297                                              if((crc+ii)==MB_YEAR)
   \                     ??proc_udp_data_170:
   \   00001252   3025               CPI     R18, 5
   \   00001254   4130               SBCI    R19, 16
   \   00001256   F439               BRNE    ??proc_udp_data_171
   5298                                                  {
   5299                                                    //year=swap(*(unsigned int*)&buf_rx_ppp[offset+C1_DATA+15+(ii<<1)])-2000;
   5300                                                    year=swap(*(unsigned int*) (mobus.point_in+mobus.index_elam + mobus.smest_to_elam + 7 +(ii<<1)));
   \   00001258   ....               RCALL   ?Subroutine167
   5301                                                    if(year<100){buf_tx_232[1005]=year;flag_time=1;}
   \                     ??CrossCallReturnLabel_615:
   \   0000125A   3604               CPI     R16, 100
   \   0000125C   4010               SBCI    R17, 0
   \   0000125E   F418               BRCC    ??proc_udp_data_171
   \   00001260   ....               RCALL   ?Subroutine253
   \                     ??CrossCallReturnLabel_408:
   \   00001262   E001               LDI     R16, 1
   \   00001264   870D               STD     Y+13, R16
   5302                                                  }
   \                     ??proc_udp_data_171:
   \   00001266   ....               RCALL   ?Subroutine164
   \                     ??CrossCallReturnLabel_269:
   \   00001268   ....               RCALL   ?Subroutine193
   \                     ??CrossCallReturnLabel_303:
   \   0000126A   F008               BRCS    $+2+2
   \   0000126C   C160               RJMP    ??proc_udp_data_172
   \   0000126E   ....               RCALL   ?Subroutine35
   \                     ??CrossCallReturnLabel_57:
   \   00001270   0D08               ADD     R16, R8
   \   00001272   1D19               ADC     R17, R9
   \   00001274   3800               CPI     R16, 128
   \   00001276   E020               LDI     R18, 0
   \   00001278   0712               CPC     R17, R18
   \   0000127A   F0E8               BRCS    ??CrossCallReturnLabel_603
   \   0000127C   3801               CPI     R16, 129
   \   0000127E   0712               CPC     R17, R18
   \   00001280   F4D0               BRCC    ??CrossCallReturnLabel_603
   \   00001282   ....               RCALL   ?Subroutine184
   \                     ??CrossCallReturnLabel_465:
   \   00001284   5900               SUBI    R16, 144
   \   00001286   4F1C               SBCI    R17, 252
   \   00001288   A708               STD     Y+40, R16
   \   0000128A   A719               STD     Y+41, R17
   \   0000128C   ....               RCALL   ?Subroutine238
   \                     ??CrossCallReturnLabel_526:
   \   0000128E   ....               RCALL   ??Subroutine7_0
   \                     ??CrossCallReturnLabel_15:
   \   00001290   F438               BRCC    ??proc_udp_data_173
   \   00001292   C001               RJMP    ??CrossCallReturnLabel_620
   \                     ??proc_udp_data_174:
   \   00001294   ....               RCALL   ?Subroutine10
   \                     ??CrossCallReturnLabel_620:
   \   00001296   ....               RCALL   ?Subroutine240
   \                     ??CrossCallReturnLabel_357:
   \   00001298   F3E8               BRCS    ??proc_udp_data_174
   \   0000129A   ....               RCALL   ?Subroutine141
   \                     ??CrossCallReturnLabel_576:
   \   0000129C   ....               RCALL   ?Subroutine260
   \                     ??CrossCallReturnLabel_453:
   \   0000129E   C00A               RJMP    ??proc_udp_data_175
   \                     ??proc_udp_data_173:
   \   000012A0   E800               LDI     R16, 128
   \   000012A2   2E60               MOV     R6, R16
   \   000012A4   2477               CLR     R7
   \   000012A6   ....               RCALL   ??Subroutine33_1
   \                     ??CrossCallReturnLabel_50:
   \   000012A8   C001               RJMP    ??CrossCallReturnLabel_628
   \                     ??proc_udp_data_176:
   \   000012AA   ....               RCALL   ?Subroutine15
   \                     ??CrossCallReturnLabel_628:
   \   000012AC   ....               RCALL   ?Subroutine50
   \                     ??CrossCallReturnLabel_669:
   \   000012AE   F3E8               BRCS    ??proc_udp_data_176
   \   000012B0   ....               RCALL   ?Subroutine141
   \                     ??CrossCallReturnLabel_575:
   \   000012B2   0143               MOVW    R9:R8, R7:R6
   \                     ??proc_udp_data_175:
   \   000012B4   ....               RCALL   ?Subroutine22
   \                     ??CrossCallReturnLabel_603:
   \   000012B6   8988               LDD     R24, Y+16
   \   000012B8   8999               LDD     R25, Y+17
   \   000012BA   ....               RCALL   ?Subroutine47
   \                     ??CrossCallReturnLabel_533:
   \   000012BC   F439               BRNE    ??proc_udp_data_177
   \   000012BE   ....               RCALL   ?Subroutine152
   \                     ??CrossCallReturnLabel_245:
   \   000012C0   ....               RCALL   ?Subroutine292
   \                     ??CrossCallReturnLabel_646:
   \   000012C2   ....               RCALL   ?Subroutine244
   \                     ??CrossCallReturnLabel_368:
   \   000012C4   ....               RCALL   ?Subroutine292
   \                     ??CrossCallReturnLabel_647:
   \   000012C6   E001               LDI     R16, 1
   \   000012C8   870A               STD     Y+10, R16
   \   000012CA   C06D               RJMP    ??CrossCallReturnLabel_845
   \                     ??proc_udp_data_177:
   \   000012CC   E501               LDI     R16, 81
   \   000012CE   ....               RCALL   ??Subroutine47_0
   \                     ??CrossCallReturnLabel_534:
   \   000012D0   F439               BRNE    ??proc_udp_data_178
   \   000012D2   ....               RCALL   ?Subroutine152
   \                     ??CrossCallReturnLabel_246:
   \   000012D4   8302               STD     Z+2, R16
   \   000012D6   8313               STD     Z+3, R17
   \   000012D8   ....               RCALL   ?Subroutine244
   \                     ??CrossCallReturnLabel_369:
   \   000012DA   8302               STD     Z+2, R16
   \   000012DC   8313               STD     Z+3, R17
   \   000012DE   CFF3               RJMP    ??CrossCallReturnLabel_647
   \                     ??proc_udp_data_178:
   \   000012E0   E502               LDI     R16, 82
   \   000012E2   ....               RCALL   ??Subroutine47_0
   \                     ??CrossCallReturnLabel_535:
   \   000012E4   F429               BRNE    ??proc_udp_data_179
   \   000012E6   ....               RCALL   ?Subroutine152
   \                     ??CrossCallReturnLabel_247:
   \   000012E8   ....               RCALL   ?Subroutine264
   \                     ??CrossCallReturnLabel_493:
   \   000012EA   ....               RCALL   ?Subroutine244
   \                     ??CrossCallReturnLabel_370:
   \   000012EC   ....               RCALL   ?Subroutine264
   \                     ??CrossCallReturnLabel_494:
   \   000012EE   CFEB               RJMP    ??CrossCallReturnLabel_647
   \                     ??proc_udp_data_179:
   \   000012F0   E503               LDI     R16, 83
   \   000012F2   ....               RCALL   ??Subroutine47_0
   \                     ??CrossCallReturnLabel_536:
   \   000012F4   F439               BRNE    ??proc_udp_data_180
   \   000012F6   ....               RCALL   ?Subroutine152
   \                     ??CrossCallReturnLabel_248:
   \   000012F8   8306               STD     Z+6, R16
   \   000012FA   8317               STD     Z+7, R17
   \   000012FC   ....               RCALL   ?Subroutine244
   \                     ??CrossCallReturnLabel_371:
   \   000012FE   8306               STD     Z+6, R16
   \   00001300   8317               STD     Z+7, R17
   \   00001302   CFE1               RJMP    ??CrossCallReturnLabel_647
   \                     ??proc_udp_data_180:
   \   00001304   E504               LDI     R16, 84
   \   00001306   ....               RCALL   ??Subroutine47_0
   \                     ??CrossCallReturnLabel_537:
   \   00001308   F429               BRNE    ??proc_udp_data_181
   \   0000130A   ....               RCALL   ?Subroutine152
   \                     ??CrossCallReturnLabel_249:
   \   0000130C   ....               RCALL   ?Subroutine128
   \                     ??CrossCallReturnLabel_210:
   \   0000130E   ....               RCALL   ?Subroutine244
   \                     ??CrossCallReturnLabel_372:
   \   00001310   ....               RCALL   ?Subroutine128
   \                     ??CrossCallReturnLabel_211:
   \   00001312   CFD9               RJMP    ??CrossCallReturnLabel_647
   \                     ??proc_udp_data_181:
   \   00001314   E505               LDI     R16, 85
   \   00001316   ....               RCALL   ??Subroutine47_0
   \                     ??CrossCallReturnLabel_538:
   \   00001318   F439               BRNE    ??proc_udp_data_182
   \   0000131A   ....               RCALL   ?Subroutine152
   \                     ??CrossCallReturnLabel_250:
   \   0000131C   8702               STD     Z+10, R16
   \   0000131E   8713               STD     Z+11, R17
   \   00001320   ....               RCALL   ?Subroutine244
   \                     ??CrossCallReturnLabel_373:
   \   00001322   8702               STD     Z+10, R16
   \   00001324   8713               STD     Z+11, R17
   \   00001326   CFCF               RJMP    ??CrossCallReturnLabel_647
   \                     ??proc_udp_data_182:
   \   00001328   E506               LDI     R16, 86
   \   0000132A   ....               RCALL   ??Subroutine47_0
   \                     ??CrossCallReturnLabel_539:
   \   0000132C   F429               BRNE    ??proc_udp_data_183
   \   0000132E   ....               RCALL   ?Subroutine152
   \                     ??CrossCallReturnLabel_251:
   \   00001330   ....               RCALL   ?Subroutine130
   \                     ??CrossCallReturnLabel_213:
   \   00001332   ....               RCALL   ?Subroutine244
   \                     ??CrossCallReturnLabel_374:
   \   00001334   ....               RCALL   ?Subroutine130
   \                     ??CrossCallReturnLabel_214:
   \   00001336   CFC7               RJMP    ??CrossCallReturnLabel_647
   \                     ??proc_udp_data_183:
   \   00001338   E507               LDI     R16, 87
   \   0000133A   ....               RCALL   ??Subroutine47_0
   \                     ??CrossCallReturnLabel_540:
   \   0000133C   F429               BRNE    ??proc_udp_data_184
   \   0000133E   ....               RCALL   ?Subroutine152
   \                     ??CrossCallReturnLabel_252:
   \   00001340   ....               RCALL   ??Subroutine252_0
   \                     ??CrossCallReturnLabel_400:
   \   00001342   ....               RCALL   ?Subroutine244
   \                     ??CrossCallReturnLabel_375:
   \   00001344   ....               RCALL   ??Subroutine252_0
   \                     ??CrossCallReturnLabel_401:
   \   00001346   CFBF               RJMP    ??CrossCallReturnLabel_647
   \                     ??proc_udp_data_184:
   \   00001348   E508               LDI     R16, 88
   \   0000134A   ....               RCALL   ??Subroutine47_0
   \                     ??CrossCallReturnLabel_541:
   \   0000134C   F060               BRCS    ??proc_udp_data_185
   \   0000134E   E600               LDI     R16, 96
   \   00001350   ....               RCALL   ??Subroutine47_0
   \                     ??CrossCallReturnLabel_542:
   \   00001352   F448               BRCC    ??proc_udp_data_185
   \   00001354   ....               RCALL   ?Subroutine152
   \                     ??CrossCallReturnLabel_253:
   \   00001356   0C44               LSL     R4
   \   00001358   1C55               ROL     R5
   \   0000135A   0DE4               ADD     R30, R4
   \   0000135C   1DF5               ADC     R31, R5
   \   0000135E   5AE0               SUBI    R30, 160
   \   00001360   40F2               SBCI    R31, 2
   \   00001362   ....               RCALL   ?Subroutine292
   \                     ??CrossCallReturnLabel_648:
   \   00001364   C020               RJMP    ??CrossCallReturnLabel_845
   \                     ??proc_udp_data_185:
   \   00001366   E004               LDI     R16, 4
   \   00001368   1650               CP      R5, R16
   \   0000136A   F0E8               BRCS    ??CrossCallReturnLabel_845
   \   0000136C   ....               RCALL   ?Subroutine241
   \                     ??CrossCallReturnLabel_552:
   \   0000136E   F4D8               BRCC    ??CrossCallReturnLabel_845
   \   00001370   ....               RCALL   ?Subroutine162
   \                     ??CrossCallReturnLabel_264:
   \   00001372   ....               RCALL   ?Subroutine237
   \                     ??CrossCallReturnLabel_352:
   \   00001374   0183               MOVW    R17:R16, R7:R6
   \   00001376   ....               RCALL   ?Subroutine261
   \                     ??CrossCallReturnLabel_463:
   \   00001378   ....               RCALL   ?Subroutine208
   \                     ??CrossCallReturnLabel_326:
   \   0000137A   ....               RCALL   ?Subroutine242
   \                     ??CrossCallReturnLabel_363:
   \   0000137C   A64A               STD     Y+42, R4
   \   0000137E   A65B               STD     Y+43, R5
   \   00001380   ....               RCALL   ?Subroutine239
   \                     ??CrossCallReturnLabel_355:
   \   00001382   ....               RCALL   ??Subroutine7_0
   \                     ??CrossCallReturnLabel_16:
   \   00001384   F438               BRCC    ??proc_udp_data_186
   \   00001386   C001               RJMP    ??CrossCallReturnLabel_621
   \                     ??proc_udp_data_187:
   \   00001388   ....               RCALL   ?Subroutine10
   \                     ??CrossCallReturnLabel_621:
   \   0000138A   ....               RCALL   ?Subroutine240
   \                     ??CrossCallReturnLabel_358:
   \   0000138C   F3E8               BRCS    ??proc_udp_data_187
   \   0000138E   ....               RCALL   ?Subroutine142
   \                     ??CrossCallReturnLabel_578:
   \   00001390   ....               RCALL   ?Subroutine260
   \                     ??CrossCallReturnLabel_454:
   \   00001392   C008               RJMP    ??proc_udp_data_188
   \                     ??proc_udp_data_186:
   \   00001394   ....               RCALL   ?Subroutine34
   \                     ??CrossCallReturnLabel_54:
   \   00001396   C001               RJMP    ??CrossCallReturnLabel_625
   \                     ??proc_udp_data_189:
   \   00001398   ....               RCALL   ?Subroutine11
   \                     ??CrossCallReturnLabel_625:
   \   0000139A   0186               MOVW    R17:R16, R13:R12
   \   0000139C   ....               RCALL   ??Subroutine50_0
   \                     ??CrossCallReturnLabel_670:
   \   0000139E   F3E0               BRCS    ??proc_udp_data_189
   \   000013A0   ....               RCALL   ?Subroutine142
   \                     ??CrossCallReturnLabel_577:
   \   000013A2   0146               MOVW    R9:R8, R13:R12
   \                     ??proc_udp_data_188:
   \   000013A4   ....               RCALL   ?Subroutine23
   \                     ??CrossCallReturnLabel_845:
   \   000013A6   ....               RCALL   ?Subroutine36
   \                     ??CrossCallReturnLabel_58:
   \   000013A8   3300               CPI     R16, 48
   \   000013AA   E024               LDI     R18, 4
   \   000013AC   0712               CPC     R17, R18
   \   000013AE   F150               BRCS    ??CrossCallReturnLabel_604
   \   000013B0   3408               CPI     R16, 72
   \   000013B2   0712               CPC     R17, R18
   \   000013B4   F538               BRCC    ??CrossCallReturnLabel_604
   \   000013B6   ....               RCALL   ?Subroutine184
   \                     ??CrossCallReturnLabel_466:
   \   000013B8   5200               SUBI    R16, 32
   \   000013BA   4014               SBCI    R17, 4
   \   000013BC   A70C               STD     Y+44, R16
   \   000013BE   A71D               STD     Y+45, R17
   \   000013C0   852B               LDD     R18, Y+11
   \   000013C2   853C               LDD     R19, Y+12
   \   000013C4   3428               CPI     R18, 72
   \   000013C6   4034               SBCI    R19, 4
   \   000013C8   ....               RCALL   ??Subroutine7_0
   \                     ??CrossCallReturnLabel_17:
   \   000013CA   F488               BRCC    ??proc_udp_data_190
   \   000013CC   C001               RJMP    ??CrossCallReturnLabel_622
   \                     ??proc_udp_data_191:
   \   000013CE   ....               RCALL   ?Subroutine10
   \                     ??CrossCallReturnLabel_622:
   \   000013D0   ....               RCALL   ?Subroutine240
   \                     ??CrossCallReturnLabel_359:
   \   000013D2   F3E8               BRCS    ??proc_udp_data_191
   \   000013D4   ....               RCALL   ?Subroutine143
   \                     ??CrossCallReturnLabel_580:
   \   000013D6   850B               LDD     R16, Y+11
   \   000013D8   851C               LDD     R17, Y+12
   \   000013DA   3407               CPI     R16, 71
   \   000013DC   4014               SBCI    R17, 4
   \   000013DE   F429               BRNE    ??proc_udp_data_192
   \   000013E0   E000               LDI     R16, 0
   \   000013E2   9300....           STS     k_a_tit, R16
   \   000013E6   9300....           STS     (k_a_tit + 1), R16
   \                     ??proc_udp_data_192:
   \   000013EA   ....               RCALL   ?Subroutine260
   \                     ??CrossCallReturnLabel_455:
   \   000013EC   C009               RJMP    ??proc_udp_data_193
   \                     ??proc_udp_data_190:
   \   000013EE   E407               LDI     R16, 71
   \   000013F0   ....               RCALL   ??Subroutine34_0
   \                     ??CrossCallReturnLabel_55:
   \   000013F2   C001               RJMP    ??CrossCallReturnLabel_626
   \                     ??proc_udp_data_194:
   \   000013F4   ....               RCALL   ?Subroutine11
   \                     ??CrossCallReturnLabel_626:
   \   000013F6   0186               MOVW    R17:R16, R13:R12
   \   000013F8   ....               RCALL   ??Subroutine50_0
   \                     ??CrossCallReturnLabel_671:
   \   000013FA   F3E0               BRCS    ??proc_udp_data_194
   \   000013FC   ....               RCALL   ?Subroutine143
   \                     ??CrossCallReturnLabel_579:
   \   000013FE   0146               MOVW    R9:R8, R13:R12
   \                     ??proc_udp_data_193:
   \   00001400   ....               RCALL   ?Subroutine30
   \                     ??CrossCallReturnLabel_43:
   \   00001402   ....               RCALL   ?Subroutine285
   \                     ??CrossCallReturnLabel_604:
   \   00001404   ....               RCALL   ?Subroutine36
   \                     ??CrossCallReturnLabel_59:
   \   00001406   E025               LDI     R18, 5
   \   00001408   3015               CPI     R17, 5
   \   0000140A   F178               BRCS    ??CrossCallReturnLabel_847
   \   0000140C   3001               CPI     R16, 1
   \   0000140E   0712               CPC     R17, R18
   \   00001410   F560               BRCC    ??CrossCallReturnLabel_847
   \   00001412   8988               LDD     R24, Y+16
   \   00001414   8999               LDD     R25, Y+17
   \   00001416   0194               MOVW    R19:R18, R9:R8
   \   00001418   0F22               LSL     R18
   \   0000141A   1F33               ROL     R19
   \   0000141C   0F82               ADD     R24, R18
   \   0000141E   1F93               ADC     R25, R19
   \   00001420   ....               RCALL   ?Subroutine237
   \                     ??CrossCallReturnLabel_353:
   \   00001422   0163               MOVW    R13:R12, R7:R6
   \   00001424   0CCC               LSL     R12
   \   00001426   1CDD               ROL     R13
   \   00001428   ....               RCALL   ?Subroutine261
   \                     ??CrossCallReturnLabel_464:
   \   0000142A   5800               SUBI    R16, 128
   \   0000142C   4015               SBCI    R17, 5
   \   0000142E   ....               RCALL   ?Subroutine208
   \                     ??CrossCallReturnLabel_327:
   \   00001430   852B               LDD     R18, Y+11
   \   00001432   853C               LDD     R19, Y+12
   \   00001434   3021               CPI     R18, 1
   \   00001436   4035               SBCI    R19, 5
   \   00001438   ....               RCALL   ??Subroutine7_0
   \                     ??CrossCallReturnLabel_18:
   \   0000143A   F440               BRCC    ??CrossCallReturnLabel_627
   \   0000143C   C001               RJMP    ??CrossCallReturnLabel_623
   \                     ??proc_udp_data_195:
   \   0000143E   ....               RCALL   ?Subroutine10
   \                     ??CrossCallReturnLabel_623:
   \   00001440   ....               RCALL   ?Subroutine240
   \                     ??CrossCallReturnLabel_360:
   \   00001442   F3E8               BRCS    ??proc_udp_data_195
   \   00001444   ....               RCALL   ?Subroutine144
   \                     ??CrossCallReturnLabel_582:
   \   00001446   ....               RCALL   ?Subroutine260
   \                     ??CrossCallReturnLabel_456:
   \   00001448   C00F               RJMP    ??proc_udp_data_196
   \                     ??proc_udp_data_197:
   \   0000144A   ....               RCALL   ?Subroutine11
   \                     ??CrossCallReturnLabel_627:
   \   0000144C   E103               LDI     R16, 19
   \   0000144E   E015               LDI     R17, 5
   \   00001450   ....               RCALL   ?Subroutine136
   \                     ??CrossCallReturnLabel_227:
   \   00001452   1B02               SUB     R16, R18
   \   00001454   0B13               SBC     R17, R19
   \   00001456   ....               RCALL   ??Subroutine50_0
   \                     ??CrossCallReturnLabel_672:
   \   00001458   F3C0               BRCS    ??proc_udp_data_197
   \   0000145A   ....               RCALL   ?Subroutine144
   \                     ??CrossCallReturnLabel_581:
   \   0000145C   2488               CLR     R8
   \   0000145E   E005               LDI     R16, 5
   \   00001460   2E90               MOV     R9, R16
   \   00001462   ....               RCALL   ??Subroutine38_1
   \                     ??CrossCallReturnLabel_71:
   \   00001464   1A80               SUB     R8, R16
   \   00001466   0A91               SBC     R9, R17
   \                     ??proc_udp_data_196:
   \   00001468   ....               RCALL   ?Subroutine24
   \                     ??CrossCallReturnLabel_847:
   \   0000146A   ....               RCALL   ?Subroutine36
   \                     ??CrossCallReturnLabel_60:
   \   0000146C   3017               CPI     R17, 7
   \   0000146E   F0C0               BRCS    ??proc_udp_data_198
   \   00001470   3F0E               CPI     R16, 254
   \   00001472   E028               LDI     R18, 8
   \   00001474   0712               CPC     R17, R18
   \   00001476   F4A0               BRCC    ??proc_udp_data_198
   \   00001478   ....               RCALL   ?Subroutine184
   \                     ??CrossCallReturnLabel_467:
   \   0000147A   5D1E               SUBI    R17, 222
   \   0000147C   A70E               STD     Y+46, R16
   \   0000147E   A71F               STD     Y+47, R17
   \   00001480   ....               RCALL   ?Subroutine7
   \                     ??CrossCallReturnLabel_19:
   \   00001482   F438               BRCC    ??proc_udp_data_199
   \   00001484   C001               RJMP    ??CrossCallReturnLabel_624
   \                     ??proc_udp_data_200:
   \   00001486   ....               RCALL   ?Subroutine10
   \                     ??CrossCallReturnLabel_624:
   \   00001488   ....               RCALL   ?Subroutine240
   \                     ??CrossCallReturnLabel_361:
   \   0000148A   F3E8               BRCS    ??proc_udp_data_200
   \   0000148C   ....               RCALL   ?Subroutine145
   \                     ??CrossCallReturnLabel_584:
   \   0000148E   ....               RCALL   ?Subroutine260
   \                     ??CrossCallReturnLabel_457:
   \   00001490   C007               RJMP    ??proc_udp_data_198
   \                     ??proc_udp_data_199:
   \   00001492   ....               RCALL   ?Subroutine33
   \                     ??CrossCallReturnLabel_51:
   \   00001494   C001               RJMP    ??CrossCallReturnLabel_629
   \                     ??proc_udp_data_201:
   \   00001496   ....               RCALL   ?Subroutine15
   \                     ??CrossCallReturnLabel_629:
   \   00001498   ....               RCALL   ?Subroutine50
   \                     ??CrossCallReturnLabel_673:
   \   0000149A   F3E8               BRCS    ??proc_udp_data_201
   \   0000149C   ....               RCALL   ?Subroutine145
   \                     ??CrossCallReturnLabel_583:
   \   0000149E   0143               MOVW    R9:R8, R7:R6
   \                     ??proc_udp_data_198:
   \   000014A0   0194               MOVW    R19:R18, R9:R8
   \   000014A2   0F22               LSL     R18
   \   000014A4   1F33               ROL     R19
   \   000014A6   8848               LDD     R4, Y+16
   \   000014A8   8859               LDD     R5, Y+17
   \   000014AA   0E42               ADD     R4, R18
   \   000014AC   1E53               ADC     R5, R19
   \   000014AE   8509               LDD     R16, Y+9
   \   000014B0   E010               LDI     R17, 0
   \   000014B2   ....               RCALL   ?Subroutine181
   \                     ??CrossCallReturnLabel_284:
   \   000014B4   01CD               MOVW    R25:R24, R27:R26
   \   000014B6   0F80               ADD     R24, R16
   \   000014B8   1F91               ADC     R25, R17
   \   000014BA   ....               RCALL   ?Subroutine135
   \                     ??CrossCallReturnLabel_223:
   \   000014BC   3020               CPI     R18, 0
   \   000014BE   E100               LDI     R16, 16
   \   000014C0   0730               CPC     R19, R16
   \   000014C2   F431               BRNE    ??proc_udp_data_202
   \   000014C4   ....               RCALL   ?Subroutine166
   \                     ??CrossCallReturnLabel_483:
   \   000014C6   F008               BRCS    $+2+2
   \   000014C8   CECE               RJMP    ??proc_udp_data_171
   \   000014CA   ....               RCALL   ?Subroutine154
   \                     ??CrossCallReturnLabel_431:
   \   000014CC   8300               ST      Z, R16
   \   000014CE   CEC9               RJMP    ??CrossCallReturnLabel_408
   \                     ??proc_udp_data_202:
   \   000014D0   3021               CPI     R18, 1
   \   000014D2   0730               CPC     R19, R16
   \   000014D4   F431               BRNE    ??proc_udp_data_203
   \   000014D6   ....               RCALL   ?Subroutine166
   \                     ??CrossCallReturnLabel_484:
   \   000014D8   F008               BRCS    $+2+2
   \   000014DA   CEC5               RJMP    ??proc_udp_data_171
   \   000014DC   ....               RCALL   ?Subroutine154
   \                     ??CrossCallReturnLabel_432:
   \   000014DE   8301               STD     Z+1, R16
   \   000014E0   CEC0               RJMP    ??CrossCallReturnLabel_408
   \                     ??proc_udp_data_203:
   \   000014E2   3022               CPI     R18, 2
   \   000014E4   0730               CPC     R19, R16
   \   000014E6   F441               BRNE    ??proc_udp_data_204
   \   000014E8   ....               RCALL   ?Subroutine167
   \                     ??CrossCallReturnLabel_614:
   \   000014EA   3108               CPI     R16, 24
   \   000014EC   4010               SBCI    R17, 0
   \   000014EE   F008               BRCS    $+2+2
   \   000014F0   CEBA               RJMP    ??proc_udp_data_171
   \   000014F2   ....               RCALL   ?Subroutine154
   \                     ??CrossCallReturnLabel_433:
   \   000014F4   8302               STD     Z+2, R16
   \   000014F6   CEB5               RJMP    ??CrossCallReturnLabel_408
   \                     ??proc_udp_data_204:
   \   000014F8   3023               CPI     R18, 3
   \   000014FA   0730               CPC     R19, R16
   \   000014FC   F441               BRNE    ??proc_udp_data_205
   \   000014FE   ....               RCALL   ?Subroutine167
   \                     ??CrossCallReturnLabel_613:
   \   00001500   3200               CPI     R16, 32
   \   00001502   4010               SBCI    R17, 0
   \   00001504   F008               BRCS    $+2+2
   \   00001506   CEAF               RJMP    ??proc_udp_data_171
   \   00001508   ....               RCALL   ?Subroutine154
   \                     ??CrossCallReturnLabel_434:
   \   0000150A   8303               STD     Z+3, R16
   \   0000150C   CEAA               RJMP    ??CrossCallReturnLabel_408
   \                     ??proc_udp_data_205:
   \   0000150E   3024               CPI     R18, 4
   \   00001510   0730               CPC     R19, R16
   \   00001512   F009               BREQ    $+2+2
   \   00001514   CE9E               RJMP    ??proc_udp_data_170
   \   00001516   ....               RCALL   ?Subroutine167
   \                     ??CrossCallReturnLabel_612:
   \   00001518   300D               CPI     R16, 13
   \   0000151A   4010               SBCI    R17, 0
   \   0000151C   F008               BRCS    $+2+2
   \   0000151E   CEA3               RJMP    ??proc_udp_data_171
   \   00001520   ....               RCALL   ?Subroutine167
   \                     ??CrossCallReturnLabel_611:
   \   00001522   2B01               OR      R16, R17
   \   00001524   F409               BRNE    $+2+2
   \   00001526   CE9F               RJMP    ??proc_udp_data_171
   \   00001528   ....               RCALL   ?Subroutine154
   \                     ??CrossCallReturnLabel_435:
   \   0000152A   8304               STD     Z+4, R16
   \   0000152C   CE9A               RJMP    ??CrossCallReturnLabel_408
   5303                                              
   5304          
   5305                                              }
   5306                                              ///////////////!!!!!!!!!!!!!!!!!!!!!!!!!!!!!!!!!!!!!!!!!!
   5307                                              ///////////////!!!!!!!!!!!!!!!!!!!!!!!!!!!!!!!!!!!!!!!!!!
   5308                                             
   5309                                              /*
   5310                                              if(flag_refresh==1)
   5311                                              {
   5312                                                RdFromFleshToArr(A_SEG3,(unsigned char *)&c2_byte.mb[0],SEG3*2);
   5313                                                RdFromFleshToArr(A_SEG3,&buf_tx_232[900],16);
   5314                                                for(k=0;k<8;k++)
   5315                                                {
   5316                                                 if(*(unsigned int*)&buf_tx_232[900+k*2]!=*(unsigned int*)&buf_tx_232[1050+k*2])refresh_a(k);
   5317                                                   
   5318                                                }
   5319                                                
   5320                                                
   5321                                               }
   5322                                               
   5323                                             */
   5324                                             
   5325                                              
   5326                                              if(flag_time!=0) 
   \                     ??proc_udp_data_172:
   \   0000152E   850D               LDD     R16, Y+13
   \   00001530   2300               TST     R16
   \   00001532   F059               BREQ    ??proc_udp_data_206
   5327                                              {  
   5328                                                old_unix=unix;
   \   00001534   ....               RCALL   ?Subroutine49
   5329                                                set_rlt(2,&buf_tx_232[1000]);
   5330                                                burst_ds_r();
   5331                                               // if ((( old_unix - unix) >= 600 )||(( unix - old_unix) >= 600 )) bit_level=1;
   5332                                              if(unix>old_unix)
   \                     ??CrossCallReturnLabel_79:
   \   00001536   F420               BRCC    ??proc_udp_data_207
   5333                           
   5334                                                   {
   5335                                                    if (( unix - old_unix) >= 600 ) bit_level=1;   
   \   00001538   ....               RCALL   ?Subroutine245
   \                     ??CrossCallReturnLabel_528:
   \   0000153A   F038               BRCS    ??proc_udp_data_206
   \                     ??proc_udp_data_208:
   \   0000153C   ....               RCALL   ?Subroutine162
   \                     ??CrossCallReturnLabel_265:
   \   0000153E   C005               RJMP    ??proc_udp_data_206
   5336                                                   }
   5337                                                   else
   5338                                                   {
   5339                                                     if ((old_unix-unix) >= 600 ) bit_level=1; 
   \                     ??proc_udp_data_207:
   \   00001540   ....               RCALL   ?Subroutine235
   \                     ??CrossCallReturnLabel_550:
   \   00001542   E000               LDI     R16, 0
   \   00001544   0660               CPC     R6, R16
   \   00001546   0670               CPC     R7, R16
   \   00001548   F7C8               BRCC    ??proc_udp_data_208
   5340                                                   }
   5341          
   5342                                              
   5343                                              }
   5344                                                
   5345                                                if(flag_tii!=0)crc_tii=func_crc_tii();
   \                     ??proc_udp_data_206:
   \   0000154A   850A               LDD     R16, Y+10
   \   0000154C   2300               TST     R16
   \   0000154E   F029               BREQ    ??CrossCallReturnLabel_649
   \                     ??proc_udp_data_157:
   \   00001550   ........           CALL    func_crc_tii
   \   00001554   ....               LDI     R30, LOW(crc_tii)
   \   00001556   ....               LDI     R31, (crc_tii) >> 8
   \   00001558   ....               RCALL   ?Subroutine292
   5346                                               /////07 11 2019 Obj_ppp_tx.l_data=6; 
   5347                                                 
   5348                                                 break;
   5349                                                 /* ňŕęčő ôóíęöčé íĺ áóäĺň !!
   5350                                         case 0x8302:      
   5351                                         case 0x8303:
   5352                                         case 0x8402:      
   5353                                         case 0x8403:      
   5354                                         case 0x8503:  
   5355                                         case 0x9002:
   5356                                         case 0x9003: 
   5357                                                    buf_tx_232[TR_OP_DATA+C1_DATA+1]=ii>>8;
   5358                                                    buf_tx_232[TR_OP_DATA+C1_DATA+2]=ii;
   5359                                                    Obj_ppp_tx.l_data=3;
   5360                                                    break;
   5361                                                 */
   5362                                         default: return(0);  // âűőîä ďî îřčáęĺ ěîäáŕń ďŕęĺňŕ
   5363                                         }
   5364                                         
   5365                            if (mobus.flag_elam==1) goto ReEnter;
   \                     ??CrossCallReturnLabel_649:
   \   0000155A   8508               LDD     R16, Y+8
   \   0000155C   3001               CPI     R16, 1
   \   0000155E   F479               BRNE    ??proc_udp_data_91
   \   00001560   8D8A               LDD     R24, Y+26
   \   00001562   8D9B               LDD     R25, Y+27
   \   00001564   9602               ADIW    R25:R24, 2
   \   00001566   8D08               LDD     R16, Y+24
   \   00001568   8D19               LDD     R17, Y+25
   \   0000156A   0F08               ADD     R16, R24
   \   0000156C   1F19               ADC     R17, R25
   \   0000156E   8F08               STD     Y+24, R16
   \   00001570   8F19               STD     Y+25, R17
   \   00001572   A128               LDD     R18, Y+32
   \   00001574   A139               LDD     R19, Y+33
   \   00001576   1702               CP      R16, R18
   \   00001578   0713               CPC     R17, R19
   \   0000157A   F408               BRCC    $+2+2
   \   0000157C   CA30               RJMP    ??proc_udp_data_84
   5366                            
   5367          FinitaPerformence:                  
   5368          // switch îáđŕáîň÷čę ěîäáŕń ôđŕăěĺíňŕ                         çŕęîí÷ĺí **************************************
   5369                                      
   5370                                         // ýňîň ęóńîę íĺ íóćĺí ńđń ń÷čňŕĺňń˙ â ęŕćäîě ôđŕăěĺíňĺ
   5371                                        //  *(unsigned int*)&buf_tx_232[TR_OP_DATA+C1_DATA+Obj_ppp_tx.l_data]=crc_m1(&buf_tx_232[TR_OP_DATA+C1_DATA],Obj_ppp_tx.l_data,0xffff);       //crc                               
   5372                                        // i=buf_tx_232[TR_OP_DATA+C1_DATA+Obj_ppp_tx.l_data];
   5373                                        // buf_tx_232[TR_OP_DATA+C1_DATA+Obj_ppp_tx.l_data]=buf_tx_232[TR_OP_DATA+C1_DATA+Obj_ppp_tx.l_data+1];
   5374                                        // buf_tx_232[TR_OP_DATA+C1_DATA+Obj_ppp_tx.l_data+1]=i;
   5375                                         // ýňîň ęóńîę íĺ íóćĺí ńđń ń÷čňŕĺňń˙ â ęŕćäîě ôđŕăěĺíňĺ
   5376                                         
   5377                                         Obj_ppp_tx.l_data =mobus.count_out_elam + 2; 
   \                     ??proc_udp_data_91:
   \   0000157E   8D0C               LDD     R16, Y+28
   \   00001580   8D1D               LDD     R17, Y+29
   \   00001582   ........           CALL    ?Subroutine171
   \                     ??CrossCallReturnLabel_520:
   \   00001586   ....               RCALL   ?Subroutine204
   \                     ??CrossCallReturnLabel_700:
   \   00001588   ....               RCALL   ??Subroutine252_0
   5378                                         
   5379                                    //      Obj_ppp_tx.l_data=Obj_ppp_tx.l_data+4;   // äëčíŕ äŕííűő ďëţń 2 áŕéňŕ ńđń ďëţń 2 áŕéňŕ 
   5380                                         
   5381          metka_send_mbus:                                 
   5382                                          Obj_ppp_tx.p_data=&buf_tx_232[TR_OP_DATA+C1_PROT];  //óęŕçŕňĺëü áóôĺđŕ äŕííűő
   \                     ??CrossCallReturnLabel_402:
   \   0000158A   ....               LDI     R16, LOW((buf_tx_232 + 42))
   \   0000158C   ....               LDI     R17, HIGH((buf_tx_232 + 42))
   \   0000158E   ....               RCALL   ?Subroutine130
   5383                                          
   5384                                          
   5385                                          
   5386                                          
   5387                                          
   5388                                         send_info(sizeof(ans_out_mbus),ans_out_mbus,1,Obj_ppp_tx.id_pac);    
   \                     ??CrossCallReturnLabel_215:
   \   00001590   8147               LDD     R20, Z+7
   \   00001592   E011               LDI     R17, 1
   \   00001594   ....               LDI     R18, LOW((new_version + 110))
   \   00001596   ....               LDI     R19, HIGH((new_version + 110))
   \   00001598   ....               RCALL   ?Subroutine60
   5389                                         
   5390                                         
   5391                                         form_buf_tx_ppp();                            
   5392                                         UCSR0A=UCSR0A | TXC;                            
   \                     ??CrossCallReturnLabel_591:
   \   0000159A   C85C               RJMP    ??CrossCallReturnLabel_728
   5393                                         UCSR0B=UCSR0B | TXEN;
   5394                                         UCSR0B=UCSR0B | TXCIE;
   5395                                         if(check_cts()==1) return(1);                
   5396                                         S2_RD
   5397                                         UDR0=buf_tx_232[0]; 
   5398                                         if(Regim==RG_DEBAG) UDR3=buf_tx_232[0];
   5399                                         return(1);
   5400                                         } 
   5401                                        break;                              
   5402                                
   5403                                
   5404                                }
   5405                        
   5406                        
   5407                        
   5408                        
   5409                         }//äë˙ âĺđńčč VER2
   5410                         
   5411                        
   5412                            
   5413                         return(0);
   5414                         } 

   \                                 In segment FARCODE, align 2, keep-with-next
   \                     ?Subroutine294:
   \   00000000   ....               RJMP    ??Subroutine50_1

   \                                 In segment FARCODE, align 2, keep-with-next
   \                     ?Subroutine293:
   \   00000000   ....               RJMP    ?Subroutine198

   \                                 In segment FARCODE, align 2, keep-with-next
   \                     ?Subroutine292:
   \   00000000   ........           JMP     ??Subroutine80_0

   \                                 In segment FARCODE, align 2, keep-with-next
   \                     ?Subroutine291:
   \   00000000   ........           JMP     `swap`

   \                                 In segment FARCODE, align 2, keep-with-next
   \                     ?Subroutine245:
   \   00000000   1904               SUB     R16, R4
   \   00000002   0915               SBC     R17, R5
   \   00000004   0926               SBC     R18, R6
   \   00000006   0937               SBC     R19, R7
   \   00000008   3508               CPI     R16, 88
   \   0000000A   4012               SBCI    R17, 2
   \   0000000C   4020               SBCI    R18, 0
   \   0000000E                      REQUIRE ?Subroutine274
   \   0000000E                      ;               // Fall through to label ?Subroutine274

   \                                 In segment FARCODE, align 2, keep-with-next
   \                     ?Subroutine274:
   \   00000000   4030               SBCI    R19, 0
   \   00000002   9508               RET

   \                                 In segment FARCODE, align 2, keep-with-next
   \                     ?Subroutine244:
   \   00000000   ....               LDI     R30, LOW(cnt_tii)
   \   00000002   ....               LDI     R31, (cnt_tii) >> 8
   \   00000004   9508               RET

   \                                 In segment FARCODE, align 2, keep-with-next
   \                     ?Subroutine243:
   \   00000000   80C8               LD      R12, Y
   \   00000002   80D9               LDD     R13, Y+1
   \   00000004   0CC8               ADD     R12, R8
   \   00000006   1CD9               ADC     R13, R9
   \   00000008   9508               RET

   \                                 In segment FARCODE, align 2, keep-with-next
   \                     ?Subroutine242:
   \   00000000   0C44               LSL     R4
   \   00000002   1C55               ROL     R5
   \   00000004   EF0C               LDI     R16, 252
   \   00000006   0E50               ADD     R5, R16
   \   00000008   9508               RET

   \                                 In segment FARCODE, align 2, keep-with-next
   \                     ?Subroutine241:
   \   00000000   E202               LDI     R16, 34
   \   00000002   1640               CP      R4, R16
   \   00000004   E004               LDI     R16, 4
   \   00000006   ....               RJMP    ?Subroutine275

   \                                 In segment FARCODE, align 2, keep-with-next
   \                     ?Subroutine240:
   \   00000000   1446               CP      R4, R6
   \   00000002   0457               CPC     R5, R7
   \   00000004   9508               RET

   \                                 In segment FARCODE, align 2, keep-with-next
   \                     ?Subroutine239:
   \   00000000   852B               LDD     R18, Y+11
   \   00000002   853C               LDD     R19, Y+12
   \   00000004   3222               CPI     R18, 34
   \   00000006   4034               SBCI    R19, 4
   \   00000008   9508               RET

   \                                 In segment FARCODE, align 2, keep-with-next
   \                     ?Subroutine238:
   \   00000000   852B               LDD     R18, Y+11
   \   00000002   853C               LDD     R19, Y+12
   \   00000004   3821               CPI     R18, 129
   \   00000006   ....               RJMP    ?Subroutine274

   \                                 In segment FARCODE, align 2, keep-with-next
   \                     ?Subroutine237:
   \   00000000   806C               LDD     R6, Y+4
   \   00000002   807D               LDD     R7, Y+5
   \   00000004   1868               SUB     R6, R8
   \   00000006   0879               SBC     R7, R9
   \   00000008   9508               RET

   \                                 In segment FARCODE, align 2, keep-with-next
   \                     ?Subroutine236:
   \   00000000   8168               LD      R22, Y
   \   00000002   8179               LDD     R23, Y+1
   \   00000004   0D68               ADD     R22, R8
   \   00000006   1D79               ADC     R23, R9
   \   00000008   9508               RET

   \                                 In segment FARCODE, align 2, keep-with-next
   \                     ?Subroutine235:
   \   00000000   1A40               SUB     R4, R16
   \   00000002   0A51               SBC     R5, R17
   \   00000004   0A62               SBC     R6, R18
   \   00000006   0A73               SBC     R7, R19
   \   00000008   E508               LDI     R16, 88
   \   0000000A   1640               CP      R4, R16
   \   0000000C   E002               LDI     R16, 2
   \   0000000E   ....               RJMP    ?Subroutine275

   \                                 In segment FARCODE, align 2, keep-with-next
   \                     ?Subroutine260:
   \   00000000   808C               LDD     R8, Y+4
   \   00000002   809D               LDD     R9, Y+5
   \   00000004   9508               RET

   \                                 In segment FARCODE, align 2, keep-with-next
   \                     ?Subroutine233:
   \   00000000   01A3               MOVW    R21:R20, R7:R6
   \   00000002   0F44               LSL     R20
   \   00000004   1F55               ROL     R21
   \   00000006   0197               MOVW    R19:R18, R15:R14
   \   00000008   5128               SUBI    R18, 24
   \   0000000A   4F3C               SBCI    R19, 252
   \   0000000C   0182               MOVW    R17:R16, R5:R4
   \   0000000E   9508               RET

   \                                 In segment FARCODE, align 2, keep-with-next
   \                     ?Subroutine232:
   \   00000000   ....               LDI     R30, LOW(modbus_mem1)
   \   00000002   ....               LDI     R31, (modbus_mem1) >> 8
   \   00000004   AF02               STD     Z+58, R16
   \   00000006   AF13               STD     Z+59, R17
   \   00000008   9508               RET

   \                                 In segment FARCODE, align 2, keep-with-next
   \                     ?Subroutine231:
   \   00000000   0184               MOVW    R17:R16, R9:R8
   \   00000002                      REQUIRE ?Subroutine261
   \   00000002                      ;               // Fall through to label ?Subroutine261

   \                                 In segment FARCODE, align 2, keep-with-next
   \                     ?Subroutine261:
   \   00000000   0F00               LSL     R16
   \   00000002   1F11               ROL     R17
   \   00000004   9508               RET

   \                                 In segment FARCODE, align 2, keep-with-next
   \                     ?Subroutine230:
   \   00000000   9301               ST      Z+, R16
   \   00000002                      REQUIRE ?Subroutine262
   \   00000002                      ;               // Fall through to label ?Subroutine262

   \                                 In segment FARCODE, align 2, keep-with-next
   \                     ?Subroutine262:
   \   00000000   83EA               STD     Y+2, R30
   \   00000002   83FB               STD     Y+3, R31
   \   00000004   9508               RET

   \                                 In segment FARCODE, align 2, keep-with-next
   \                     ?Subroutine229:
   \   00000000   81EA               LDD     R30, Y+2
   \   00000002   81FB               LDD     R31, Y+3
   \                     ??Subroutine229_0:
   \   00000004   9341               ST      Z+, R20
   \   00000006   ....               RJMP    ?Subroutine262

   \                                 In segment FARCODE, align 2, keep-with-next
   \                     ?Subroutine228:
   \   00000000   81EA               LDD     R30, Y+2
   \   00000002   81FB               LDD     R31, Y+3
   \   00000004   9321               ST      Z+, R18
   \   00000006   ....               RJMP    ?Subroutine262

   \                                 In segment FARCODE, align 2, keep-with-next
   \                     ?Subroutine227:
   \   00000000   818A               LDD     R24, Y+2
   \   00000002   819B               LDD     R25, Y+3
   \   00000004   0184               MOVW    R17:R16, R9:R8
   \   00000006   0F00               LSL     R16
   \   00000008   1F11               ROL     R17
   \   0000000A   0F80               ADD     R24, R16
   \   0000000C   1F91               ADC     R25, R17
   \   0000000E   852B               LDD     R18, Y+11
   \   00000010   853C               LDD     R19, Y+12
   \   00000012   9508               RET

   \                                 In segment FARCODE, align 2, keep-with-next
   \                     ?Subroutine226:
   \   00000000   818A               LDD     R24, Y+2
   \   00000002   819B               LDD     R25, Y+3
   \   00000004   0184               MOVW    R17:R16, R9:R8
   \   00000006   0F00               LSL     R16
   \   00000008   1F11               ROL     R17
   \   0000000A   0F80               ADD     R24, R16
   \   0000000C   1F91               ADC     R25, R17
   \   0000000E   0F66               LSL     R22
   \   00000010   1F77               ROL     R23
   \   00000012   9508               RET

   \                                 In segment FARCODE, align 2, keep-with-next
   \                     ?Subroutine257:
   \   00000000   01F7               MOVW    R31:R30, R15:R14
   \   00000002   51E8               SUBI    R30, 24
   \   00000004   4FFC               SBCI    R31, 252
   \   00000006   9508               RET

   \                                 In segment FARCODE, align 2, keep-with-next
   \                     ?Subroutine253:
   \   00000000   01F7               MOVW    R31:R30, R15:R14
   \   00000002   51E8               SUBI    R30, 24
   \   00000004   4FFC               SBCI    R31, 252
   \   00000006   8305               STD     Z+5, R16
   \   00000008   9508               RET

   \                                 In segment FARCODE, align 2, keep-with-next
   \                     ?Subroutine222:
   \   00000000   A14A               LDD     R20, Y+34
   \   00000002   A15B               LDD     R21, Y+35
   \   00000004   8529               LDD     R18, Y+9
   \   00000006   018D               MOVW    R17:R16, R27:R26
   \   00000008   9508               RET

   \                                 In segment FARCODE, align 2, keep-with-next
   \                     ?Subroutine220:
   \   00000000   ....               LDI     R30, LOW(buf_tx_232)
   \   00000002   ....               LDI     R31, (buf_tx_232) >> 8
   \   00000004   A705               STD     Z+45, R16
   \   00000006   A696               STD     Z+46, R9
   \   00000008   9508               RET

   \                                 In segment FARCODE, align 2, keep-with-next
   \                     ?Subroutine219:
   \   00000000   810E               LDD     R16, Y+6
   \   00000002   811F               LDD     R17, Y+7
   \   00000004   9508               RET

   \                                 In segment FARCODE, align 2, keep-with-next
   \                     ?Subroutine218:
   \   00000000   810E               LDD     R16, Y+6
   \   00000002   811F               LDD     R17, Y+7
   \   00000004   3005               CPI     R16, 5
   \   00000006   ....               RJMP    ??Subroutine263_0

   \                                 In segment FARCODE, align 2, keep-with-next
   \                     ?Subroutine217:
   \   00000000   812E               LDD     R18, Y+6
   \   00000002   813F               LDD     R19, Y+7
   \   00000004   3025               CPI     R18, 5
   \   00000006   ....               RJMP    ?Subroutine274

   \                                 In segment FARCODE, align 2, keep-with-next
   \                     ?Subroutine216:
   \   00000000   818E               LDD     R24, Y+6
   \   00000002   819F               LDD     R25, Y+7
   \   00000004   308B               CPI     R24, 11
   \   00000006   4090               SBCI    R25, 0
   \   00000008   9508               RET

   \                                 In segment FARCODE, align 2, keep-with-next
   \                     ?Subroutine215:
   \   00000000   8696               STD     Z+14, R9
   \   00000002   8290               ST      Z, R9
   \   00000004   9508               RET

   \                                 In segment FARCODE, align 2, keep-with-next
   \                     ?Subroutine214:
   \   00000000   ........           JMP     send_info

   \                                 In segment FARCODE, align 2, keep-with-next
   \                     ?Subroutine283:
   \   00000000   ........           CALL    send_info
   \   00000004   ........           JMP     form_buf_tx_ppp

   \                                 In segment FARCODE, align 2, keep-with-next
   \                     ?Subroutine212:
   \   00000000   8A91               STD     Z+17, R9
   \   00000002   8A92               STD     Z+18, R9
   \                     ??Subroutine212_0:
   \   00000004   E00D               LDI     R16, 13
   \   00000006   1680               CP      R8, R16
   \   00000008   9508               RET

   \                                 In segment FARCODE, align 2, keep-with-next
   \                     ?Subroutine211:
   \   00000000   818C               LDD     R24, Y+4
   \   00000002   819D               LDD     R25, Y+5
   \                     ??Subroutine211_0:
   \   00000004   1988               SUB     R24, R8
   \   00000006   0999               SBC     R25, R9
   \   00000008   9508               RET

   \                                 In segment FARCODE, align 2, keep-with-next
   \                     ?Subroutine210:
   \   00000000   24DD               CLR     R13
   \   00000002   890E               LDD     R16, Y+22
   \   00000004   891F               LDD     R17, Y+23
   \   00000006   16C0               CP      R12, R16
   \   00000008   06D1               CPC     R13, R17
   \   0000000A   9508               RET

   \                                 In segment FARCODE, align 2, keep-with-next
   \                     ?Subroutine284:
   \   00000000   ........           JMP     crc_m1

   \                                 In segment FARCODE, align 2, keep-with-next
   \                     ?Subroutine208:
   \   00000000   830E               STD     Y+6, R16
   \   00000002   831F               STD     Y+7, R17
   \   00000004   9508               RET

   \                                 In segment FARCODE, align 2, keep-with-next
   \                     ?Subroutine203:
   \   00000000   ....               LDI     R30, LOW(Obj_ppp_tx)
   \   00000002   ....               LDI     R31, (Obj_ppp_tx) >> 8
   \   00000004   A106               LDD     R16, Z+38
   \   00000006   3505               CPI     R16, 85
   \   00000008   9508               RET

   \                                 In segment FARCODE, align 2, keep-with-next
   \                     ?Subroutine202:
   \   00000000   ....               LDI     R30, LOW(Obj_ppp_tx)
   \   00000002   ....               LDI     R31, (Obj_ppp_tx) >> 8
   \   00000004   8706               STD     Z+14, R16
   \   00000006   8697               STD     Z+15, R9
   \   00000008   9508               RET

   \                                 In segment FARCODE, align 2, keep-with-next
   \                     ?Subroutine201:
   \   00000000   ....               LDI     R30, LOW(Obj_ppp_tx)
   \   00000002   ....               LDI     R31, (Obj_ppp_tx) >> 8
   \   00000004   A104               LDD     R16, Z+36
   \   00000006   9508               RET

   \                                 In segment FARCODE, align 2, keep-with-next
   \                     ?Subroutine196:
   \   00000000   810C               LDD     R16, Y+4
   \   00000002   811D               LDD     R17, Y+5
   \   00000004   9508               RET

   \                                 In segment FARCODE, align 2, keep-with-next
   \                     ?Subroutine195:
   \   00000000   810C               LDD     R16, Y+4
   \   00000002   811D               LDD     R17, Y+5
   \   00000004                      REQUIRE ?Subroutine263
   \   00000004                      ;               // Fall through to label ?Subroutine263

   \                                 In segment FARCODE, align 2, keep-with-next
   \                     ?Subroutine263:
   \   00000000   330C               CPI     R16, 60
   \                     ??Subroutine263_0:
   \   00000002   4010               SBCI    R17, 0
   \   00000004   9508               RET

   \                                 In segment FARCODE, align 2, keep-with-next
   \                     ?Subroutine194:
   \   00000000   810C               LDD     R16, Y+4
   \   00000002   811D               LDD     R17, Y+5
   \   00000004   3000               CPI     R16, 0
   \   00000006   ........           JMP     ?Subroutine271

   \                                 In segment FARCODE, align 2, keep-with-next
   \                     ?Subroutine193:
   \   00000000   810C               LDD     R16, Y+4
   \   00000002   811D               LDD     R17, Y+5
   \   00000004   1680               CP      R8, R16
   \   00000006   0691               CPC     R9, R17
   \   00000008   9508               RET

   \                                 In segment FARCODE, align 2, keep-with-next
   \                     ?Subroutine191:
   \   00000000   810C               LDD     R16, Y+4
   \   00000002   811D               LDD     R17, Y+5
   \   00000004   1908               SUB     R16, R8
   \   00000006   0919               SBC     R17, R9
   \   00000008   9508               RET

   \                                 In segment FARCODE, align 2, keep-with-next
   \                     ?Subroutine190:
   \   00000000   894C               LDD     R20, Y+20
   \   00000002   895D               LDD     R21, Y+21
   \   00000004   0F42               ADD     R20, R18
   \   00000006   1F53               ADC     R21, R19
   \   00000008   8B4C               STD     Y+20, R20
   \   0000000A   8B5D               STD     Y+21, R21
   \   0000000C   344D               CPI     R20, 77
   \   0000000E   4054               SBCI    R21, 4
   \   00000010   9508               RET

   \                                 In segment FARCODE, align 2, keep-with-next
   \                     ?Subroutine189:
   \   00000000   810C               LDD     R16, Y+4
   \   00000002   811D               LDD     R17, Y+5
   \   00000004   3000               CPI     R16, 0
   \   00000006   EF2F               LDI     R18, 255
   \   00000008   0712               CPC     R17, R18
   \   0000000A   9508               RET

   \                                 In segment FARCODE, align 2, keep-with-next
   \                     ?Subroutine184:
   \   00000000   8988               LDD     R24, Y+16
   \   00000002   8999               LDD     R25, Y+17
   \   00000004   0194               MOVW    R19:R18, R9:R8
   \   00000006   0F22               LSL     R18
   \   00000008   1F33               ROL     R19
   \   0000000A   0F82               ADD     R24, R18
   \   0000000C   1F93               ADC     R25, R19
   \   0000000E   806C               LDD     R6, Y+4
   \   00000010   807D               LDD     R7, Y+5
   \   00000012   1868               SUB     R6, R8
   \   00000014   0879               SBC     R7, R9
   \   00000016   0193               MOVW    R19:R18, R7:R6
   \   00000018   0F22               LSL     R18
   \   0000001A   1F33               ROL     R19
   \   0000001C   832E               STD     Y+6, R18
   \   0000001E   833F               STD     Y+7, R19
   \   00000020   ....               RJMP    ?Subroutine261

   \                                 In segment FARCODE, align 2, keep-with-next
   \                     ?Subroutine285:
   \   00000000   E014               LDI     R17, 4
   \   00000002   ........           JMP     RdFromFleshToArrInt

   \                                 In segment FARCODE, align 2, keep-with-next
   \                     ?Subroutine182:
   \   00000000   ....               LDI     R30, LOW(num_seq_cl)
   \   00000002   ....               LDI     R31, (num_seq_cl) >> 8
   \   00000004   8140               LD      R20, Z
   \   00000006   8151               LDD     R21, Z+1
   \   00000008   1724               CP      R18, R20
   \   0000000A   0735               CPC     R19, R21
   \   0000000C   9508               RET

   \                                 In segment FARCODE, align 2, keep-with-next
   \                     ?Subroutine173:
   \   00000000   8305               STD     Z+5, R16
   \   00000002   8316               STD     Z+6, R17
   \   00000004   01FD               MOVW    R31:R30, R27:R26
   \   00000006   A105               LDD     R16, Z+37
   \   00000008   9508               RET

   \                                 In segment FARCODE, align 2, keep-with-next
   \                     ?Subroutine172:
   \   00000000   01A6               MOVW    R21:R20, R13:R12
   \   00000002   E22A               LDI     R18, 42
   \   00000004   E030               LDI     R19, 0
   \   00000006   018D               MOVW    R17:R16, R27:R26
   \   00000008   ........           JMP     proc_option

   \                                 In segment FARCODE, align 2, keep-with-next
   \                     ?Subroutine170:
   \   00000000   94C3               INC     R12
   \                     ??Subroutine170_0:
   \   00000002   01F7               MOVW    R31:R30, R15:R14
   \   00000004   0DEC               ADD     R30, R12
   \   00000006   1FF3               ADC     R31, R19
   \   00000008   5CE6               SUBI    R30, 198
   \   0000000A   4FFD               SBCI    R31, 253
   \   0000000C   9508               RET

   \                                 In segment FARCODE, align 2, keep-with-next
   \                     ?Subroutine169:
   \   00000000   01A6               MOVW    R21:R20, R13:R12
   \   00000002   E22A               LDI     R18, 42
   \   00000004   E030               LDI     R19, 0
   \   00000006   018D               MOVW    R17:R16, R27:R26
   \   00000008   ........           CALL    proc_option
   \   0000000C   2EC0               MOV     R12, R16
   \   0000000E   E003               LDI     R16, 3
   \   00000010   16C0               CP      R12, R16
   \   00000012   9508               RET

   \                                 In segment FARCODE, align 2, keep-with-next
   \                     ?Subroutine167:
   \   00000000   01F2               MOVW    R31:R30, R5:R4
   \   00000002   8107               LDD     R16, Z+7
   \   00000004   8510               LDD     R17, Z+8
   \   00000006                      REQUIRE ?Subroutine286
   \   00000006                      ;               // Fall through to label ?Subroutine286

   \                                 In segment FARCODE, align 2, keep-with-next
   \                     ?Subroutine286:
   \   00000000   ....               RJMP    ?Subroutine291

   \                                 In segment FARCODE, align 2, keep-with-next
   \                     ?Subroutine166:
   \   00000000   01F2               MOVW    R31:R30, R5:R4
   \   00000002   8107               LDD     R16, Z+7
   \   00000004   8510               LDD     R17, Z+8
   \   00000006   ....               RCALL   ?Subroutine291
   \                     ??__CCRETURN_1:
   \                     ??Subroutine166_0:
   \   00000008   ....               RJMP    ?Subroutine263

   \                                 In segment FARCODE, align 2, keep-with-next
   \                     ?Subroutine164:
   \   00000000   E001               LDI     R16, 1
   \   00000002   0E80               ADD     R8, R16
   \   00000004   E000               LDI     R16, 0
   \   00000006   1E90               ADC     R9, R16
   \   00000008   9508               RET

   \                                 In segment FARCODE, align 2, keep-with-next
   \                     ?Subroutine163:
   \   00000000   E001               LDI     R16, 1
   \   00000002   ....               LDI     R30, LOW(buf_tx_232)
   \   00000004   ....               LDI     R31, (buf_tx_232) >> 8
   \   00000006   A702               STD     Z+42, R16
   \   00000008   9508               RET

   \                                 In segment FARCODE, align 2, keep-with-next
   \                     ?Subroutine162:
   \   00000000   E001               LDI     R16, 1
   \   00000002   9300....           STS     bit_level, R16
   \   00000006   9508               RET

   \                                 In segment FARCODE, align 2, keep-with-next
   \                     ?Subroutine160:
   \   00000000   01FC               MOVW    R31:R30, R25:R24
   \   00000002   ........           JMP     ?Subroutine272

   \                                 In segment FARCODE, align 2, keep-with-next
   \                     ?Subroutine158:
   \   00000000   01FC               MOVW    R31:R30, R25:R24
   \   00000002   8100               LD      R16, Z
   \   00000004   ....               RJMP    ??Subroutine248_0

   \                                 In segment FARCODE, align 2, keep-with-next
   \                     ?Subroutine155:
   \   00000000   01FC               MOVW    R31:R30, R25:R24
   \   00000002   8140               LD      R20, Z
   \   00000004   81EA               LDD     R30, Y+2
   \   00000006   81FB               LDD     R31, Y+3
   \   00000008   9341               ST      Z+, R20
   \   0000000A   83EA               STD     Y+2, R30
   \   0000000C   83FB               STD     Y+3, R31
   \   0000000E   8508               LDD     R16, Y+8
   \   00000010   ....               RJMP    ??Subroutine248_0

   \                                 In segment FARCODE, align 2, keep-with-next
   \                     ?Subroutine154:
   \   00000000   01FC               MOVW    R31:R30, R25:R24
   \   00000002   8902               LDD     R16, Z+18
   \   00000004   ....               RJMP    ?Subroutine257

   \                                 In segment FARCODE, align 2, keep-with-next
   \                     ?Subroutine153:
   \   00000000   01FC               MOVW    R31:R30, R25:R24
   \   00000002   8140               LD      R20, Z
   \   00000004   81EA               LDD     R30, Y+2
   \   00000006   81FB               LDD     R31, Y+3
   \   00000008   9341               ST      Z+, R20
   \   0000000A   83EA               STD     Y+2, R30
   \   0000000C   83FB               STD     Y+3, R31
   \   0000000E   8528               LDD     R18, Y+8
   \   00000010   3021               CPI     R18, 1
   \   00000012   F441               BRNE    ??Subroutine153_0
   \   00000014   89E8               LDD     R30, Y+16
   \   00000016   89F9               LDD     R31, Y+17
   \   00000018   8140               LD      R20, Z
   \   0000001A   81EA               LDD     R30, Y+2
   \   0000001C   81FB               LDD     R31, Y+3
   \   0000001E   9341               ST      Z+, R20
   \   00000020   83EA               STD     Y+2, R30
   \   00000022   83FB               STD     Y+3, R31
   \                     ??Subroutine153_0:
   \   00000024   9508               RET

   \                                 In segment FARCODE, align 2, keep-with-next
   \                     ?Subroutine152:
   \   00000000   01FC               MOVW    R31:R30, R25:R24
   \   00000002   8107               LDD     R16, Z+7
   \   00000004   8510               LDD     R17, Z+8
   \   00000006   ....               RCALL   ?Subroutine291
   \                     ??__CCRETURN_2:
   \                     ??Subroutine152_0:
   \   00000008   ....               LDI     R30, LOW(modbus_mem1)
   \   0000000A   ....               LDI     R31, (modbus_mem1) >> 8
   \   0000000C   9508               RET

   \                                 In segment FARCODE, align 2, keep-with-next
   \                     ?Subroutine148:
   \   00000000   8100               LD      R16, Z
   \   00000002   8111               LDD     R17, Z+1
   \   00000004   2F20               MOV     R18, R16
   \   00000006   2B21               OR      R18, R17
   \   00000008   9508               RET

   \                                 In segment FARCODE, align 2, keep-with-next
   \                     ?Subroutine147:
   \   00000000   8100               LD      R16, Z
   \   00000002   8111               LDD     R17, Z+1
   \   00000004   ....               RCALL   ?Subroutine291
   \                     ??__CCRETURN_3:
   \                     ??Subroutine147_0:
   \   00000006   01FC               MOVW    R31:R30, R25:R24
   \   00000008   9508               RET

   \                                 In segment FARCODE, align 2, keep-with-next
   \                     ?Subroutine146:
   \   00000000   8100               LD      R16, Z
   \   00000002   8111               LDD     R17, Z+1
   \   00000004   8122               LDD     R18, Z+2
   \   00000006   8133               LDD     R19, Z+3
   \   00000008   ........           JMP     ??Subroutine249_0

   \                                 In segment FARCODE, align 2, keep-with-next
   \                     ?Subroutine145:
   \   00000000   E070               LDI     R23, 0
   \   00000002   E060               LDI     R22, 0
   \   00000004   814E               LDD     R20, Y+6
   \   00000006   815F               LDD     R21, Y+7
   \   00000008   9607               ADIW    R25:R24, 7
   \   0000000A   019C               MOVW    R19:R18, R25:R24
   \   0000000C   A50E               LDD     R16, Y+46
   \   0000000E   A51F               LDD     R17, Y+47
   \   00000010   ....               RJMP    ?Subroutine282

   \                                 In segment FARCODE, align 2, keep-with-next
   \                     ?Subroutine144:
   \   00000000   E070               LDI     R23, 0
   \   00000002   E060               LDI     R22, 0
   \   00000004   01A6               MOVW    R21:R20, R13:R12
   \   00000006   9607               ADIW    R25:R24, 7
   \   00000008   019C               MOVW    R19:R18, R25:R24
   \   0000000A   810E               LDD     R16, Y+6
   \   0000000C   811F               LDD     R17, Y+7
   \   0000000E   ....               RJMP    ?Subroutine282

   \                                 In segment FARCODE, align 2, keep-with-next
   \                     ?Subroutine143:
   \   00000000   E070               LDI     R23, 0
   \   00000002   E060               LDI     R22, 0
   \   00000004   814E               LDD     R20, Y+6
   \   00000006   815F               LDD     R21, Y+7
   \   00000008   9607               ADIW    R25:R24, 7
   \   0000000A   019C               MOVW    R19:R18, R25:R24
   \   0000000C   A50C               LDD     R16, Y+44
   \   0000000E   A51D               LDD     R17, Y+45
   \   00000010                      REQUIRE ?Subroutine282
   \   00000010                      ;               // Fall through to label ?Subroutine282

   \                                 In segment FARCODE, align 2, keep-with-next
   \                     ?Subroutine282:
   \   00000000   ........           JMP     WrArrayToFlesh

   \                                 In segment FARCODE, align 2, keep-with-next
   \                     ?Subroutine142:
   \   00000000   E070               LDI     R23, 0
   \   00000002   E060               LDI     R22, 0
   \   00000004   814E               LDD     R20, Y+6
   \   00000006   815F               LDD     R21, Y+7
   \   00000008   9607               ADIW    R25:R24, 7
   \   0000000A   019C               MOVW    R19:R18, R25:R24
   \   0000000C   A50A               LDD     R16, Y+42
   \   0000000E   A51B               LDD     R17, Y+43
   \   00000010   ....               RJMP    ?Subroutine282

   \                                 In segment FARCODE, align 2, keep-with-next
   \                     ?Subroutine141:
   \   00000000   E070               LDI     R23, 0
   \   00000002   E060               LDI     R22, 0
   \   00000004   814E               LDD     R20, Y+6
   \   00000006   815F               LDD     R21, Y+7
   \   00000008   9607               ADIW    R25:R24, 7
   \   0000000A   019C               MOVW    R19:R18, R25:R24
   \   0000000C   A508               LDD     R16, Y+40
   \   0000000E   A519               LDD     R17, Y+41
   \   00000010   ....               RJMP    ?Subroutine282

   \                                 In segment FARCODE, align 2, keep-with-next
   \                     ?Subroutine140:
   \   00000000   4F1F               SBCI    R17, 255
   \   00000002   ....               RJMP    ?Subroutine284

   \                                 In segment FARCODE, align 2, keep-with-next
   \                     ?Subroutine139:
   \   00000000   4F1F               SBCI    R17, 255
   \   00000002   894C               LDD     R20, Y+20
   \   00000004   895D               LDD     R21, Y+21
   \   00000006   0F40               ADD     R20, R16
   \   00000008   1F51               ADC     R21, R17
   \   0000000A   8B4C               STD     Y+20, R20
   \   0000000C   8B5D               STD     Y+21, R21
   \   0000000E   9508               RET

   \                                 In segment FARCODE, align 2, keep-with-next
   \                     ?Subroutine135:
   \   00000000   8128               LD      R18, Y
   \   00000002   8139               LDD     R19, Y+1
   \   00000004   0D28               ADD     R18, R8
   \   00000006   1D39               ADC     R19, R9
   \   00000008   9508               RET

   \                                 In segment FARCODE, align 2, keep-with-next
   \                     ?Subroutine130:
   \   00000000   8704               STD     Z+12, R16
   \   00000002   8715               STD     Z+13, R17
   \   00000004   9508               RET

   \                                 In segment FARCODE, align 2, keep-with-next
   \                     ?Subroutine127:
   \   00000000   8307               STD     Z+7, R16
   \   00000002   ....               LDI     R16, LOW(buf_opt_tr)
   \   00000004   ....               LDI     R17, (buf_opt_tr) >> 8
   \   00000006   8700               STD     Z+8, R16
   \   00000008   8711               STD     Z+9, R17
   \   0000000A   8692               STD     Z+10, R9
   \   0000000C   8693               STD     Z+11, R9
   \   0000000E                      REQUIRE ?Subroutine276
   \   0000000E                      ;               // Fall through to label ?Subroutine276

   \                                 In segment FARCODE, align 2, keep-with-next
   \                     ?Subroutine276:
   \   00000000   E001               LDI     R16, 1
   \   00000002   9508               RET

   \                                 In segment FARCODE, align 2, keep-with-next
   \                     ?Subroutine125:
   \   00000000   E002               LDI     R16, 2
   \   00000002   0E60               ADD     R6, R16
   \   00000004   1C79               ADC     R7, R9
   \   00000006   0183               MOVW    R17:R16, R7:R6
   \   00000008   ........           CALL    check_cont_485_1
   \   0000000C   ....               RJMP    ??Subroutine248_0

   \                                 In segment FARCODE, align 2, keep-with-next
   \                     ?Subroutine124:
   \   00000000   01FD               MOVW    R31:R30, R27:R26
   \   00000002   ........           JMP     ?Subroutine256

   \                                 In segment FARCODE, align 2, keep-with-next
   \                     ?Subroutine116:
   \   00000000   01FD               MOVW    R31:R30, R27:R26
   \   00000002   ........           JMP     ?Subroutine255

   \                                 In segment FARCODE, align 2, keep-with-next
   \                     ?Subroutine114:
   \   00000000   8704               STD     Z+12, R16
   \   00000002   8715               STD     Z+13, R17
   \                     ??Subroutine114_0:
   \   00000004   01FD               MOVW    R31:R30, R27:R26
   \   00000006   A145               LDD     R20, Z+37
   \   00000008   E011               LDI     R17, 1
   \   0000000A   9508               RET

   \                                 In segment FARCODE, align 2, keep-with-next
   \                     ?Subroutine110:
   \   00000000   01FD               MOVW    R31:R30, R27:R26
   \   00000002   A145               LDD     R20, Z+37
   \   00000004   E011               LDI     R17, 1
   \   00000006   ....               LDI     R18, LOW((new_version + 49))
   \   00000008   ....               LDI     R19, HIGH((new_version + 49))
   \   0000000A                      REQUIRE ?Subroutine250
   \   0000000A                      ;               // Fall through to label ?Subroutine250

   \                                 In segment FARCODE, align 2, keep-with-next
   \                     ?Subroutine250:
   \   00000000   E00A               LDI     R16, 10
   \                     ??Subroutine250_0:
   \   00000002   ........           CALL    send_info
   \   00000006   01FD               MOVW    R31:R30, R27:R26
   \   00000008   8D46               LDD     R20, Z+30
   \   0000000A   8D57               LDD     R21, Z+31
   \   0000000C   A125               LDD     R18, Z+37
   \   0000000E   9508               RET

   \                                 In segment FARCODE, align 2, keep-with-next
   \                     ?Subroutine109:
   \   00000000   01FD               MOVW    R31:R30, R27:R26
   \   00000002   A145               LDD     R20, Z+37
   \   00000004   E011               LDI     R17, 1
   \   00000006   ....               LDI     R18, LOW((new_version + 69))
   \   00000008   ....               LDI     R19, HIGH((new_version + 69))
   \   0000000A   E008               LDI     R16, 8
   \   0000000C   ....               RJMP    ??Subroutine250_0

   \                                 In segment FARCODE, align 2, keep-with-next
   \                     ?Subroutine108:
   \   00000000   01FD               MOVW    R31:R30, R27:R26
   \   00000002   A145               LDD     R20, Z+37
   \   00000004   E011               LDI     R17, 1
   \   00000006   ....               LDI     R18, LOW((new_version + 59))
   \   00000008   ....               LDI     R19, HIGH((new_version + 59))
   \   0000000A   ....               RJMP    ?Subroutine250

   \                                 In segment FARCODE, align 2, keep-with-next
   \                     ?Subroutine105:
   \   00000000   01FD               MOVW    R31:R30, R27:R26
   \                     ??Subroutine105_0:
   \   00000002   8D26               LDD     R18, Z+30
   \   00000004   8D37               LDD     R19, Z+31
   \   00000006   9508               RET

   \                                 In segment FARCODE, align 2, keep-with-next
   \                     ?Subroutine94:
   \   00000000   01F8               MOVW    R31:R30, R17:R16
   \   00000002   8141               LDD     R20, Z+1
   \   00000004   81EA               LDD     R30, Y+2
   \   00000006   81FB               LDD     R31, Y+3
   \   00000008   9341               ST      Z+, R20
   \   0000000A   83EA               STD     Y+2, R30
   \   0000000C   83FB               STD     Y+3, R31
   \   0000000E   01F8               MOVW    R31:R30, R17:R16
   \   00000010   8142               LDD     R20, Z+2
   \   00000012   81EA               LDD     R30, Y+2
   \   00000014   81FB               LDD     R31, Y+3
   \   00000016   9341               ST      Z+, R20
   \   00000018   83EA               STD     Y+2, R30
   \   0000001A   83FB               STD     Y+3, R31
   \   0000001C   01F8               MOVW    R31:R30, R17:R16
   \   0000001E   8143               LDD     R20, Z+3
   \   00000020   81EA               LDD     R30, Y+2
   \   00000022   81FB               LDD     R31, Y+3
   \   00000024   9341               ST      Z+, R20
   \   00000026   83EA               STD     Y+2, R30
   \   00000028   83FB               STD     Y+3, R31
   \   0000002A   01F8               MOVW    R31:R30, R17:R16
   \   0000002C   8144               LDD     R20, Z+4
   \   0000002E   81EA               LDD     R30, Y+2
   \   00000030   81FB               LDD     R31, Y+3
   \   00000032   9341               ST      Z+, R20
   \   00000034   83EA               STD     Y+2, R30
   \   00000036   83FB               STD     Y+3, R31
   \   00000038   01F8               MOVW    R31:R30, R17:R16
   \   0000003A   8125               LDD     R18, Z+5
   \   0000003C   81EA               LDD     R30, Y+2
   \   0000003E   81FB               LDD     R31, Y+3
   \   00000040   9321               ST      Z+, R18
   \   00000042   83EA               STD     Y+2, R30
   \   00000044   83FB               STD     Y+3, R31
   \   00000046   01F5               MOVW    R31:R30, R11:R10
   \   00000048   8766               STD     Z+14, R22
   \   0000004A   8777               STD     Z+15, R23
   \   0000004C   EF4F               LDI     R20, 255
   \   0000004E   EF5F               LDI     R21, 255
   \   00000050   019B               MOVW    R19:R18, R23:R22
   \   00000052   810A               LDD     R16, Y+2
   \   00000054   811B               LDD     R17, Y+3
   \   00000056   9571               NEG     R23
   \   00000058   9561               NEG     R22
   \   0000005A   4070               SBCI    R23, 0
   \   0000005C   0F06               ADD     R16, R22
   \   0000005E   1F17               ADC     R17, R23
   \   00000060   ........           CALL    crc_m1
   \   00000064   81EA               LDD     R30, Y+2
   \   00000066   81FB               LDD     R31, Y+3
   \   00000068   9311               ST      Z+, R17
   \   0000006A   83EA               STD     Y+2, R30
   \   0000006C   83FB               STD     Y+3, R31
   \   0000006E   9301               ST      Z+, R16
   \   00000070   83EA               STD     Y+2, R30
   \   00000072   83FB               STD     Y+3, R31
   \   00000074   01F5               MOVW    R31:R30, R11:R10
   \   00000076   8586               LDD     R24, Z+14
   \   00000078   8597               LDD     R25, Z+15
   \   0000007A   9602               ADIW    R25:R24, 2
   \   0000007C   8D0C               LDD     R16, Y+28
   \   0000007E   8D1D               LDD     R17, Y+29
   \   00000080   0F08               ADD     R16, R24
   \   00000082   1F19               ADC     R17, R25
   \   00000084   8F0C               STD     Y+28, R16
   \   00000086   8F1D               STD     Y+29, R17
   \   00000088   9508               RET

   \                                 In segment FARCODE, align 2, keep-with-next
   \                     ?Subroutine92:
   \   00000000   8508               LDD     R16, Y+8
   \   00000002   3001               CPI     R16, 1
   \   00000004   F411               BRNE    ??Subroutine92_0
   \   00000006   E021               LDI     R18, 1
   \   00000008   9508               RET
   \                     ??Subroutine92_0:
   \   0000000A   ........           JMP     ?Subroutine288

   \                                 In segment FARCODE, align 2, keep-with-next
   \                     ?Subroutine88:
   \   00000000   9A40               SBI     0x08, 0x00
   \   00000002   9841               CBI     0x08, 0x01
   \   00000004   ....               LDI     R30, LOW(buf_tx_232)
   \   00000006   ....               LDI     R31, (buf_tx_232) >> 8
   \   00000008   8100               LD      R16, Z
   \   0000000A   ........           JMP     ?Subroutine289

   \                                 In segment FARCODE, align 2, keep-with-next
   \                     ?Subroutine81:
   \   00000000   ........           CALL    clr_cntr_link
   \   00000004   01F5               MOVW    R31:R30, R11:R10
   \   00000006   8290               ST      Z, R9
   \   00000008   E002               LDI     R16, 2
   \   0000000A   8301               STD     Z+1, R16
   \   0000000C   E001               LDI     R16, 1
   \   0000000E   8302               STD     Z+2, R16
   \   00000010   ....               LDI     R30, LOW(num_self)
   \   00000012   ....               LDI     R31, (num_self) >> 8
   \   00000014                      REQUIRE ?Subroutine265
   \   00000014                      ;               // Fall through to label ?Subroutine265

   \                                 In segment FARCODE, align 2, keep-with-next
   \                     ?Subroutine79:
   \   00000000   ....               LDI     R30, LOW(vol_cnt_no_link)
   \   00000002   ....               LDI     R31, (vol_cnt_no_link) >> 8
   \   00000004   8100               LD      R16, Z
   \   00000006   8111               LDD     R17, Z+1
   \   00000008   8122               LDD     R18, Z+2
   \   0000000A   8133               LDD     R19, Z+3
   \   0000000C   ....               LDI     R30, LOW(cnt_no_link)
   \   0000000E   ....               LDI     R31, (cnt_no_link) >> 8
   \   00000010   8300               ST      Z, R16
   \   00000012   8311               STD     Z+1, R17
   \   00000014   8322               STD     Z+2, R18
   \   00000016   8333               STD     Z+3, R19
   \   00000018   ....               LDI     R30, LOW(Control)
   \   0000001A   ....               LDI     R31, (Control) >> 8
   \   0000001C   8291               STD     Z+1, R9
   \   0000001E   8500               LDD     R16, Z+8
   \   00000020   8511               LDD     R17, Z+9
   \   00000022   ....               RJMP    ?Subroutine264

   \                                 In segment FARCODE, align 2, keep-with-next
   \                     ?Subroutine75:
   \   00000000   2D2C               MOV     R18, R12
   \   00000002   E030               LDI     R19, 0
   \   00000004   8509               LDD     R16, Y+9
   \   00000006   E010               LDI     R17, 0
   \   00000008   0D0C               ADD     R16, R12
   \   0000000A   1D19               ADC     R17, R9
   \   0000000C   01FD               MOVW    R31:R30, R27:R26
   \   0000000E   0FE0               ADD     R30, R16
   \   00000010   1FF1               ADC     R31, R17
   \   00000012   8502               LDD     R16, Z+10
   \   00000014   01F9               MOVW    R31:R30, R19:R18
   \   00000016   9508               RET

   \                                 In segment FARCODE, align 2, keep-with-next
   \                     ?Subroutine70:
   \   00000000   4F3F               SBCI    R19, 255
   \   00000002   01F5               MOVW    R31:R30, R11:R10
   \   00000004   8726               STD     Z+14, R18
   \   00000006   8737               STD     Z+15, R19
   \   00000008   9508               RET

   \                                 In segment FARCODE, align 2, keep-with-next
   \                     ?Subroutine68:
   \   00000000   8303               STD     Z+3, R16
   \   00000002   8314               STD     Z+4, R17
   \   00000004   01FD               MOVW    R31:R30, R27:R26
   \   00000006   8D06               LDD     R16, Z+30
   \   00000008   8D17               LDD     R17, Z+31
   \   0000000A   9508               RET

   \                                 In segment FARCODE, align 2, keep-with-next
   \                     ?Subroutine66:
   \   00000000   ........           CALL    burst_ds_r
   \   00000004   9100....           LDS     R16, real_time
   \   00000008   01F7               MOVW    R31:R30, R15:R14
   \   0000000A   51E8               SUBI    R30, 24
   \   0000000C   4FFC               SBCI    R31, 252
   \   0000000E   8300               ST      Z, R16
   \   00000010   9100....           LDS     R16, (real_time + 1)
   \   00000014   01F7               MOVW    R31:R30, R15:R14
   \   00000016   51E8               SUBI    R30, 24
   \   00000018   4FFC               SBCI    R31, 252
   \   0000001A   8301               STD     Z+1, R16
   \   0000001C   9100....           LDS     R16, (real_time + 2)
   \   00000020   01F7               MOVW    R31:R30, R15:R14
   \   00000022   51E8               SUBI    R30, 24
   \   00000024   4FFC               SBCI    R31, 252
   \   00000026   8302               STD     Z+2, R16
   \   00000028   9100....           LDS     R16, (real_time + 4)
   \   0000002C   01F7               MOVW    R31:R30, R15:R14
   \   0000002E   51E8               SUBI    R30, 24
   \   00000030   4FFC               SBCI    R31, 252
   \   00000032   8303               STD     Z+3, R16
   \   00000034   9100....           LDS     R16, (real_time + 5)
   \   00000038   01F7               MOVW    R31:R30, R15:R14
   \   0000003A   51E8               SUBI    R30, 24
   \   0000003C   4FFC               SBCI    R31, 252
   \   0000003E   8304               STD     Z+4, R16
   \   00000040   9100....           LDS     R16, (real_time + 6)
   \   00000044   ....               RJMP    ?Subroutine253

   \                                 In segment FARCODE, align 2, keep-with-next
   \                     ?Subroutine64:
   \   00000000   8300               ST      Z, R16
   \   00000002   01FD               MOVW    R31:R30, R27:R26
   \   00000004   8D06               LDD     R16, Z+30
   \   00000006   8D17               LDD     R17, Z+31
   \   00000008   01FC               MOVW    R31:R30, R25:R24
   \   0000000A   8303               STD     Z+3, R16
   \   0000000C   8314               STD     Z+4, R17
   \   0000000E   01FD               MOVW    R31:R30, R27:R26
   \   00000010   A105               LDD     R16, Z+37
   \   00000012   01FC               MOVW    R31:R30, R25:R24
   \   00000014   8705               STD     Z+13, R16
   \   00000016   24CC               CLR     R12
   \                     ??Subroutine64_0:
   \   00000018   01FD               MOVW    R31:R30, R27:R26
   \   0000001A   9632               ADIW    R31:R30, 2
   \   0000001C   8509               LDD     R16, Y+9
   \   0000001E   E010               LDI     R17, 0
   \   00000020   0D0C               ADD     R16, R12
   \   00000022   1D19               ADC     R17, R9
   \   00000024   0FE0               ADD     R30, R16
   \   00000026   1FF1               ADC     R31, R17
   \   00000028   8100               LD      R16, Z
   \   0000002A   01FC               MOVW    R31:R30, R25:R24
   \   0000002C   9635               ADIW    R31:R30, 5
   \   0000002E   0DEC               ADD     R30, R12
   \   00000030   1DF9               ADC     R31, R9
   \   00000032   8300               ST      Z, R16
   \   00000034   94C3               INC     R12
   \   00000036   E008               LDI     R16, 8
   \   00000038   16C0               CP      R12, R16
   \   0000003A   F370               BRCS    ??Subroutine64_0
   \   0000003C   890E               LDD     R16, Y+22
   \   0000003E   891F               LDD     R17, Y+23
   \   00000040   01FC               MOVW    R31:R30, R25:R24
   \   00000042   8301               STD     Z+1, R16
   \   00000044   8312               STD     Z+2, R17
   \   00000046   24CC               CLR     R12
   \   00000048   9508               RET

   \                                 In segment FARCODE, align 2, keep-with-next
   \                     ?Subroutine63:
   \   00000000   7F0E               ANDI    R16, 0xFE
   \   00000002   8305               STD     Z+5, R16
   \   00000004   ........           CALL    clr_cntr_nat
   \   00000008   ........           CALL    clr_cntr_link
   \   0000000C   ....               LDI     R30, LOW(Obj_ppp_tx)
   \   0000000E   ....               LDI     R31, (Obj_ppp_tx) >> 8
   \   00000010   8290               ST      Z, R9
   \   00000012   E002               LDI     R16, 2
   \   00000014   8301               STD     Z+1, R16
   \   00000016   E001               LDI     R16, 1
   \   00000018   8302               STD     Z+2, R16
   \   0000001A   ....               LDI     R30, LOW(num_self)
   \   0000001C   ....               LDI     R31, (num_self) >> 8
   \   0000001E   8100               LD      R16, Z
   \   00000020   8111               LDD     R17, Z+1
   \   00000022   ....               LDI     R30, LOW(Obj_ppp_tx)
   \   00000024   ....               LDI     R31, (Obj_ppp_tx) >> 8
   \   00000026   8303               STD     Z+3, R16
   \   00000028   8314               STD     Z+4, R17
   \   0000002A   01FD               MOVW    R31:R30, R27:R26
   \   0000002C   8D06               LDD     R16, Z+30
   \   0000002E   8D17               LDD     R17, Z+31
   \   00000030   ....               LDI     R30, LOW(Obj_ppp_tx)
   \   00000032   ....               LDI     R31, (Obj_ppp_tx) >> 8
   \   00000034   8305               STD     Z+5, R16
   \   00000036   8316               STD     Z+6, R17
   \   00000038   01FD               MOVW    R31:R30, R27:R26
   \   0000003A   A105               LDD     R16, Z+37
   \   0000003C   ....               LDI     R30, LOW(Obj_ppp_tx)
   \   0000003E   ....               LDI     R31, (Obj_ppp_tx) >> 8
   \   00000040   8307               STD     Z+7, R16
   \   00000042   ....               LDI     R16, LOW(buf_opt_tr)
   \   00000044   ....               LDI     R17, (buf_opt_tr) >> 8
   \   00000046   8700               STD     Z+8, R16
   \   00000048   8711               STD     Z+9, R17
   \   0000004A   8692               STD     Z+10, R9
   \   0000004C   9508               RET

   \                                 In segment FARCODE, align 2, keep-with-next
   \                     ?Subroutine60:
   \   00000000   E009               LDI     R16, 9
   \   00000002   ....               RJMP    ?Subroutine283

   \                                 In segment FARCODE, align 2, keep-with-next
   \                     ?Subroutine56:
   \   00000000   ....               LDI     R30, LOW(Obj_ppp_tx)
   \   00000002   ....               LDI     R31, (Obj_ppp_tx) >> 8
   \   00000004   8D04               LDD     R16, Z+28
   \   00000006   8D15               LDD     R17, Z+29
   \   00000008   01FC               MOVW    R31:R30, R25:R24
   \   0000000A   8B01               STD     Z+17, R16
   \   0000000C   8B12               STD     Z+18, R17
   \   0000000E   9508               RET

   \                                 In segment FARCODE, align 2, keep-with-next
   \                     ?Subroutine49:
   \   00000000   ....               LDI     R30, LOW(unix)
   \   00000002   ....               LDI     R31, (unix) >> 8
   \   00000004   8040               LD      R4, Z
   \   00000006   8051               LDD     R5, Z+1
   \   00000008   8062               LDD     R6, Z+2
   \   0000000A   8073               LDD     R7, Z+3
   \   0000000C   0197               MOVW    R19:R18, R15:R14
   \   0000000E   5128               SUBI    R18, 24
   \   00000010   4F3C               SBCI    R19, 252
   \   00000012   E002               LDI     R16, 2
   \   00000014   ........           CALL    set_rlt
   \   00000018   ........           CALL    burst_ds_r
   \   0000001C   ....               LDI     R30, LOW(unix)
   \   0000001E   ....               LDI     R31, (unix) >> 8
   \   00000020   8100               LD      R16, Z
   \   00000022   8111               LDD     R17, Z+1
   \   00000024   8122               LDD     R18, Z+2
   \   00000026   8133               LDD     R19, Z+3
   \   00000028   1640               CP      R4, R16
   \   0000002A   0651               CPC     R5, R17
   \   0000002C   0662               CPC     R6, R18
   \   0000002E   0673               CPC     R7, R19
   \   00000030   9508               RET

   \                                 In segment FARCODE, align 2, keep-with-next
   \                     ?Subroutine48:
   \   00000000   1640               CP      R4, R16
   \   00000002   E100               LDI     R16, 16
   \   00000004                      REQUIRE ?Subroutine275
   \   00000004                      ;               // Fall through to label ?Subroutine275

   \                                 In segment FARCODE, align 2, keep-with-next
   \                     ?Subroutine275:
   \   00000000   0650               CPC     R5, R16
   \   00000002   9508               RET

   \                                 In segment FARCODE, align 2, keep-with-next
   \                     ?Subroutine47:
   \   00000000   0184               MOVW    R17:R16, R9:R8
   \   00000002   0F00               LSL     R16
   \   00000004   1F11               ROL     R17
   \   00000006   0F80               ADD     R24, R16
   \   00000008   1F91               ADC     R25, R17
   \   0000000A   8048               LD      R4, Y
   \   0000000C   8059               LDD     R5, Y+1
   \   0000000E   0C48               ADD     R4, R8
   \   00000010   1C59               ADC     R5, R9
   \   00000012   E500               LDI     R16, 80
   \                     ??Subroutine47_0:
   \   00000014   1640               CP      R4, R16
   \   00000016   E001               LDI     R16, 1
   \   00000018   ....               RJMP    ?Subroutine275

   \                                 In segment FARCODE, align 2, keep-with-next
   \                     ?Subroutine36:
   \   00000000   8108               LD      R16, Y
   \   00000002   8119               LDD     R17, Y+1
   \   00000004   0D08               ADD     R16, R8
   \   00000006   1D19               ADC     R17, R9
   \   00000008   9508               RET

   \                                 In segment FARCODE, align 2, keep-with-next
   \                     ?Subroutine35:
   \   00000000   8108               LD      R16, Y
   \   00000002   8119               LDD     R17, Y+1
   \   00000004   818C               LDD     R24, Y+4
   \   00000006   819D               LDD     R25, Y+5
   \   00000008   0F80               ADD     R24, R16
   \   0000000A   1F91               ADC     R25, R17
   \   0000000C   9701               SBIW    R25:R24, 1
   \   0000000E   878B               STD     Y+11, R24
   \   00000010   879C               STD     Y+12, R25
   \   00000012   9508               RET

   \                                 In segment FARCODE, align 2, keep-with-next
   \                     ?Subroutine34:
   \   00000000   E201               LDI     R16, 33
   \                     ??Subroutine34_0:
   \   00000002   2EC0               MOV     R12, R16
   \   00000004   E004               LDI     R16, 4
   \   00000006   2ED0               MOV     R13, R16
   \   00000008   8108               LD      R16, Y
   \   0000000A   8119               LDD     R17, Y+1
   \   0000000C   1AC0               SUB     R12, R16
   \   0000000E   0AD1               SBC     R13, R17
   \   00000010   9508               RET

   \                                 In segment FARCODE, align 2, keep-with-next
   \                     ?Subroutine33:
   \   00000000   EF0D               LDI     R16, 253
   \   00000002   2E60               MOV     R6, R16
   \   00000004   E008               LDI     R16, 8
   \                     ??Subroutine33_0:
   \   00000006   2E70               MOV     R7, R16
   \                     ??Subroutine33_1:
   \   00000008   8108               LD      R16, Y
   \   0000000A   8119               LDD     R17, Y+1
   \   0000000C   1A60               SUB     R6, R16
   \   0000000E   0A71               SBC     R7, R17
   \   00000010   9508               RET

   \                                 In segment FARCODE, align 2, keep-with-next
   \                     ?Subroutine30:
   \   00000000   E148               LDI     R20, 24
   \   00000002   E050               LDI     R21, 0
   \   00000004   ....               LDI     R18, LOW(c_config_tc)
   \   00000006   ....               LDI     R19, (c_config_tc) >> 8
   \   00000008   E400               LDI     R16, 64
   \   0000000A   9508               RET

   \                                 In segment FARCODE, align 2, keep-with-next
   \                     ?Subroutine28:
   \   00000000   E050               LDI     R21, 0
   \   00000002   0197               MOVW    R19:R18, R15:R14
   \   00000004   5E26               SUBI    R18, 230
   \   00000006   4F3B               SBCI    R19, 251
   \   00000008   9508               RET

   \                                 In segment FARCODE, align 2, keep-with-next
   \                     ?Subroutine27:
   \   00000000   E050               LDI     R21, 0
   \   00000002   019D               MOVW    R19:R18, R27:R26
   \   00000004   EF0E               LDI     R16, 254
   \   00000006   E714               LDI     R17, 116
   \   00000008   9508               RET

   \                                 In segment FARCODE, align 2, keep-with-next
   \                     ?Subroutine24:
   \   00000000   E248               LDI     R20, 40
   \   00000002   E050               LDI     R21, 0
   \   00000004   ....               LDI     R18, LOW(c1_byte)
   \   00000006   ....               LDI     R19, (c1_byte) >> 8
   \   00000008   E800               LDI     R16, 128
   \   0000000A                      REQUIRE ?Subroutine287
   \   0000000A                      ;               // Fall through to label ?Subroutine287

   \                                 In segment FARCODE, align 2, keep-with-next
   \                     ?Subroutine23:
   \   00000000   E444               LDI     R20, 68
   \   00000002   E050               LDI     R21, 0
   \   00000004   ....               LDI     R18, LOW(c2_byte)
   \   00000006   ....               LDI     R19, (c2_byte) >> 8
   \   00000008   E000               LDI     R16, 0
   \   0000000A   ....               RJMP    ?Subroutine287

   \                                 In segment FARCODE, align 2, keep-with-next
   \                     ?Subroutine21:
   \   00000000   E070               LDI     R23, 0
   \   00000002   E061               LDI     R22, 1
   \   00000004   EF40               LDI     R20, 240
   \   00000006   E050               LDI     R21, 0
   \   00000008   E020               LDI     R18, 0
   \   0000000A   E030               LDI     R19, 0
   \   0000000C   EF04               LDI     R16, 244
   \   0000000E   E011               LDI     R17, 1
   \   00000010   ....               RJMP    ?Subroutine282

   \                                 In segment FARCODE, align 2, keep-with-next
   \                     ?Subroutine18:
   \   00000000   E070               LDI     R23, 0
   \   00000002   E060               LDI     R22, 0
   \   00000004   E042               LDI     R20, 2
   \   00000006   E050               LDI     R21, 0
   \   00000008   0197               MOVW    R19:R18, R15:R14
   \   0000000A   5128               SUBI    R18, 24
   \   0000000C   4F3C               SBCI    R19, 252
   \   0000000E   9508               RET

   \                                 In segment FARCODE, align 2, keep-with-next
   \                     ?Subroutine16:
   \   00000000   0182               MOVW    R17:R16, R5:R4
   \   00000002   0F02               ADD     R16, R18
   \   00000004   1F13               ADC     R17, R19
   \   00000006   0F00               LSL     R16
   \   00000008   1F11               ROL     R17
   \   0000000A   01F8               MOVW    R31:R30, R17:R16
   \   0000000C   ....               SUBI    R30, LOW((-(c_config_tc - 2144) & 0xFFFF))
   \   0000000E   ....               SBCI    R31, HIGH((-(c_config_tc - 2144) & 0xFFFF))
   \   00000010   8100               LD      R16, Z
   \   00000012   8111               LDD     R17, Z+1
   \   00000014   01FA               MOVW    R31:R30, R21:R20
   \   00000016   9301               ST      Z+, R16
   \   00000018   9311               ST      Z+, R17
   \   0000001A   01AF               MOVW    R21:R20, R31:R30
   \   0000001C   ....               RJMP    ??Subroutine247_0

   \                                 In segment FARCODE, align 2, keep-with-next
   \                     ?Subroutine247:
   \   00000000   ........           CALL    RdFromFleshToArr
   \   00000004   890A               LDD     R16, Y+18
   \   00000006   891B               LDD     R17, Y+19
   \   00000008   ....               RCALL   ?Subroutine291
   \                     ??__CCRETURN_4:
   \                     ??Subroutine247_1:
   \   0000000A   0192               MOVW    R19:R18, R5:R4
   \   0000000C   0F22               LSL     R18
   \   0000000E   1F33               ROL     R19
   \   00000010   01FC               MOVW    R31:R30, R25:R24
   \   00000012   0FE2               ADD     R30, R18
   \   00000014   1FF3               ADC     R31, R19
   \   00000016   8300               ST      Z, R16
   \   00000018   8311               STD     Z+1, R17
   \                     ??Subroutine247_0:
   \   0000001A   E001               LDI     R16, 1
   \   0000001C   0E40               ADD     R4, R16
   \   0000001E   E000               LDI     R16, 0
   \   00000020   1E50               ADC     R5, R16
   \   00000022   9508               RET

   \                                 In segment FARCODE, align 2, keep-with-next
   \                     ?Subroutine15:
   \   00000000   0182               MOVW    R17:R16, R5:R4
   \   00000002   0F00               LSL     R16
   \   00000004   1F11               ROL     R17
   \   00000006   016C               MOVW    R13:R12, R25:R24
   \   00000008   0EC0               ADD     R12, R16
   \   0000000A   1ED1               ADC     R13, R17
   \   0000000C   01F6               MOVW    R31:R30, R13:R12
   \   0000000E   8107               LDD     R16, Z+7
   \   00000010   8510               LDD     R17, Z+8
   \   00000012   ....               RCALL   ?Subroutine291
   \                     ??__CCRETURN_5:
   \                     ??Subroutine15_0:
   \   00000014   01F6               MOVW    R31:R30, R13:R12
   \   00000016                      REQUIRE ?Subroutine290
   \   00000016                      ;               // Fall through to label ?Subroutine290

   \                                 In segment FARCODE, align 2, keep-with-next
   \                     ?Subroutine290:
   \   00000000   8307               STD     Z+7, R16
   \   00000002   8710               STD     Z+8, R17
   \   00000004   ....               RJMP    ??Subroutine247_0

   \                                 In segment FARCODE, align 2, keep-with-next
   \                     ?Subroutine14:
   \   00000000   E042               LDI     R20, 2
   \   00000002   E050               LDI     R21, 0
   \   00000004   019E               MOVW    R19:R18, R29:R28
   \   00000006   5E2E               SUBI    R18, 238
   \   00000008   4F3F               SBCI    R19, 255
   \   0000000A   0182               MOVW    R17:R16, R5:R4
   \   0000000C   0D0C               ADD     R16, R12
   \   0000000E   1D1D               ADC     R17, R13
   \   00000010   0F00               LSL     R16
   \   00000012   1F11               ROL     R17
   \   00000014   5610               SUBI    R17, 96
   \   00000016   ....               RJMP    ?Subroutine247

   \                                 In segment FARCODE, align 2, keep-with-next
   \                     ?Subroutine13:
   \   00000000   E042               LDI     R20, 2
   \   00000002   E050               LDI     R21, 0
   \   00000004   019E               MOVW    R19:R18, R29:R28
   \   00000006   5E2E               SUBI    R18, 238
   \   00000008   4F3F               SBCI    R19, 255
   \   0000000A   0182               MOVW    R17:R16, R5:R4
   \   0000000C   0D0C               ADD     R16, R12
   \   0000000E   1D1D               ADC     R17, R13
   \   00000010   0F00               LSL     R16
   \   00000012   1F11               ROL     R17
   \   00000014   5D1E               SUBI    R17, 222
   \   00000016   ....               RJMP    ?Subroutine247

   \                                 In segment FARCODE, align 2, keep-with-next
   \                     ?Subroutine12:
   \   00000000   E042               LDI     R20, 2
   \   00000002   E050               LDI     R21, 0
   \   00000004   019E               MOVW    R19:R18, R29:R28
   \   00000006   5E2E               SUBI    R18, 238
   \   00000008   4F3F               SBCI    R19, 255
   \   0000000A   0182               MOVW    R17:R16, R5:R4
   \   0000000C   0D0C               ADD     R16, R12
   \   0000000E   1D1D               ADC     R17, R13
   \   00000010   0F00               LSL     R16
   \   00000012   1F11               ROL     R17
   \   00000014   5210               SUBI    R17, 32
   \   00000016   ....               RJMP    ?Subroutine247

   \                                 In segment FARCODE, align 2, keep-with-next
   \                     ?Subroutine11:
   \   00000000   0182               MOVW    R17:R16, R5:R4
   \   00000002   0F00               LSL     R16
   \   00000004   1F11               ROL     R17
   \   00000006   013C               MOVW    R7:R6, R25:R24
   \   00000008   0E60               ADD     R6, R16
   \   0000000A   1E71               ADC     R7, R17
   \   0000000C   01F3               MOVW    R31:R30, R7:R6
   \   0000000E   8107               LDD     R16, Z+7
   \   00000010   8510               LDD     R17, Z+8
   \   00000012   ....               RCALL   ?Subroutine291
   \                     ??__CCRETURN_6:
   \                     ??Subroutine11_0:
   \   00000014   01F3               MOVW    R31:R30, R7:R6
   \   00000016   ....               RJMP    ?Subroutine290

   \                                 In segment FARCODE, align 2, keep-with-next
   \                     ?Subroutine10:
   \   00000000   0182               MOVW    R17:R16, R5:R4
   \   00000002   0F00               LSL     R16
   \   00000004   1F11               ROL     R17
   \   00000006   014C               MOVW    R9:R8, R25:R24
   \   00000008   0E80               ADD     R8, R16
   \   0000000A   1E91               ADC     R9, R17
   \   0000000C   01F4               MOVW    R31:R30, R9:R8
   \   0000000E   8107               LDD     R16, Z+7
   \   00000010   8510               LDD     R17, Z+8
   \   00000012   ....               RCALL   ?Subroutine291
   \                     ??__CCRETURN_7:
   \                     ??Subroutine10_0:
   \   00000014   01F4               MOVW    R31:R30, R9:R8
   \   00000016   ....               RJMP    ?Subroutine290

   \                                 In segment FARCODE, align 2, keep-with-next
   \                     ?Subroutine3:
   \   00000000   01AC               MOVW    R21:R20, R25:R24
   \   00000002   0F44               LSL     R20
   \   00000004   1F55               ROL     R21
   \   00000006   0197               MOVW    R19:R18, R15:R14
   \   00000008   5A28               SUBI    R18, 168
   \   0000000A   4F3D               SBCI    R19, 253
   \   0000000C   ........           CALL    RdFromFleshToArr
   \   00000010   2444               CLR     R4
   \   00000012   2455               CLR     R5
   \   00000014   C013               RJMP    ??Subroutine3_0
   \                     ??Subroutine3_1:
   \   00000016   0192               MOVW    R19:R18, R5:R4
   \   00000018   0F22               LSL     R18
   \   0000001A   1F33               ROL     R19
   \   0000001C   01F7               MOVW    R31:R30, R15:R14
   \   0000001E   0FE2               ADD     R30, R18
   \   00000020   1FF3               ADC     R31, R19
   \   00000022   5AE8               SUBI    R30, 168
   \   00000024   4FFD               SBCI    R31, 253
   \   00000026   8140               LD      R20, Z
   \   00000028   8151               LDD     R21, Z+1
   \   0000002A   81EE               LDD     R30, Y+6
   \   0000002C   81FF               LDD     R31, Y+7
   \   0000002E   0FE2               ADD     R30, R18
   \   00000030   1FF3               ADC     R31, R19
   \   00000032   8340               ST      Z, R20
   \   00000034   8351               STD     Z+1, R21
   \   00000036   E001               LDI     R16, 1
   \   00000038   0E40               ADD     R4, R16
   \   0000003A   1C5D               ADC     R5, R13
   \                     ??Subroutine3_0:
   \   0000003C   1648               CP      R4, R24
   \   0000003E   0659               CPC     R5, R25
   \   00000040   F350               BRCS    ??Subroutine3_1
   \   00000042   9508               RET

   \                                 In segment FARCODE, align 2, keep-with-next
   \                     ?Subroutine2:
   \   00000000   8108               LD      R16, Y
   \   00000002   8119               LDD     R17, Y+1
   \   00000004   1A60               SUB     R6, R16
   \   00000006   0A71               SBC     R7, R17
   \   00000008   0183               MOVW    R17:R16, R7:R6
   \   0000000A   1908               SUB     R16, R8
   \   0000000C   0919               SBC     R17, R9
   \   0000000E   0148               MOVW    R9:R8, R17:R16
   \   00000010   E001               LDI     R16, 1
   \   00000012   0E80               ADD     R8, R16
   \   00000014   E000               LDI     R16, 0
   \   00000016   1E90               ADC     R9, R16
   \   00000018   01A4               MOVW    R21:R20, R9:R8
   \   0000001A   0F44               LSL     R20
   \   0000001C   1F55               ROL     R21
   \   0000001E   0197               MOVW    R19:R18, R15:R14
   \   00000020   5128               SUBI    R18, 24
   \   00000022   4F3C               SBCI    R19, 252
   \   00000024   018B               MOVW    R17:R16, R23:R22
   \   00000026   ........           CALL    RdFromFleshToArr
   \   0000002A   2444               CLR     R4
   \   0000002C   2455               CLR     R5
   \   0000002E   C014               RJMP    ??Subroutine2_0
   \                     ??Subroutine2_1:
   \   00000030   0162               MOVW    R13:R12, R5:R4
   \   00000032   0CCC               LSL     R12
   \   00000034   1CDD               ROL     R13
   \   00000036   01F7               MOVW    R31:R30, R15:R14
   \   00000038   0DEC               ADD     R30, R12
   \   0000003A   1DFD               ADC     R31, R13
   \   0000003C   51E8               SUBI    R30, 24
   \   0000003E   4FFC               SBCI    R31, 252
   \   00000040   8100               LD      R16, Z
   \   00000042   8111               LDD     R17, Z+1
   \   00000044   ....               RCALL   ?Subroutine291
   \                     ??__CCRETURN_8:
   \                     ??Subroutine2_2:
   \   00000046   01FC               MOVW    R31:R30, R25:R24
   \   00000048   0DEC               ADD     R30, R12
   \   0000004A   1DFD               ADC     R31, R13
   \   0000004C   8300               ST      Z, R16
   \   0000004E   8311               STD     Z+1, R17
   \   00000050   E001               LDI     R16, 1
   \   00000052   0E40               ADD     R4, R16
   \   00000054   E000               LDI     R16, 0
   \   00000056   1E50               ADC     R5, R16
   \                     ??Subroutine2_0:
   \   00000058   1448               CP      R4, R8
   \   0000005A   0459               CPC     R5, R9
   \   0000005C   F348               BRCS    ??Subroutine2_1
   \   0000005E   0143               MOVW    R9:R8, R7:R6
   \   00000060   9508               RET

   \                                 In segment FARCODE, align 2, keep-with-next
   \                     ?Subroutine1:
   \   00000000   2444               CLR     R4
   \   00000002   2455               CLR     R5
   \   00000004   C016               RJMP    ??Subroutine1_0
   \                     ??Subroutine1_1:
   \   00000006   0132               MOVW    R7:R6, R5:R4
   \   00000008   0C66               LSL     R6
   \   0000000A   1C77               ROL     R7
   \   0000000C   01F7               MOVW    R31:R30, R15:R14
   \   0000000E   0DE6               ADD     R30, R6
   \   00000010   1DF7               ADC     R31, R7
   \   00000012   51E8               SUBI    R30, 24
   \   00000014   4FFC               SBCI    R31, 252
   \   00000016   8100               LD      R16, Z
   \   00000018   8111               LDD     R17, Z+1
   \   0000001A   ....               RCALL   ?Subroutine291
   \                     ??__CCRETURN_9:
   \                     ??Subroutine1_2:
   \   0000001C   812E               LDD     R18, Y+6
   \   0000001E   813F               LDD     R19, Y+7
   \   00000020   0D26               ADD     R18, R6
   \   00000022   1D37               ADC     R19, R7
   \   00000024   01F9               MOVW    R31:R30, R19:R18
   \   00000026   8300               ST      Z, R16
   \   00000028   8311               STD     Z+1, R17
   \   0000002A   E001               LDI     R16, 1
   \   0000002C   0E40               ADD     R4, R16
   \   0000002E   E000               LDI     R16, 0
   \   00000030   1E50               ADC     R5, R16
   \                     ??Subroutine1_0:
   \   00000032   1648               CP      R4, R24
   \   00000034   0659               CPC     R5, R25
   \   00000036   F338               BRCS    ??Subroutine1_1
   \   00000038   9508               RET

   \                                 In segment FARCODE, align 2, keep-with-next
   \                     ?Subroutine0:
   \   00000000   806C               LDD     R6, Y+4
   \   00000002   807D               LDD     R7, Y+5
   \   00000004   1868               SUB     R6, R8
   \   00000006   0879               SBC     R7, R9
   \   00000008   01A3               MOVW    R21:R20, R7:R6
   \   0000000A   0F44               LSL     R20
   \   0000000C   1F55               ROL     R21
   \   0000000E   0197               MOVW    R19:R18, R15:R14
   \   00000010   5128               SUBI    R18, 24
   \   00000012   4F3C               SBCI    R19, 252
   \   00000014   018B               MOVW    R17:R16, R23:R22
   \                     ??Subroutine0_0:
   \   00000016   ........           CALL    RdFromFleshToArr
   \   0000001A   2444               CLR     R4
   \   0000001C   2455               CLR     R5
   \   0000001E   C014               RJMP    ??Subroutine0_1
   \                     ??Subroutine0_2:
   \   00000020   0142               MOVW    R9:R8, R5:R4
   \   00000022   0C88               LSL     R8
   \   00000024   1C99               ROL     R9
   \   00000026   01F7               MOVW    R31:R30, R15:R14
   \   00000028   0DE8               ADD     R30, R8
   \   0000002A   1DF9               ADC     R31, R9
   \   0000002C   51E8               SUBI    R30, 24
   \   0000002E   4FFC               SBCI    R31, 252
   \   00000030   8100               LD      R16, Z
   \   00000032   8111               LDD     R17, Z+1
   \   00000034   ....               RCALL   ?Subroutine291
   \                     ??__CCRETURN_10:
   \                     ??Subroutine0_3:
   \   00000036   01FC               MOVW    R31:R30, R25:R24
   \   00000038   0DE8               ADD     R30, R8
   \   0000003A   1DF9               ADC     R31, R9
   \   0000003C   8300               ST      Z, R16
   \   0000003E   8311               STD     Z+1, R17
   \   00000040   E001               LDI     R16, 1
   \   00000042   0E40               ADD     R4, R16
   \   00000044   E000               LDI     R16, 0
   \   00000046   1E50               ADC     R5, R16
   \                     ??Subroutine0_1:
   \   00000048   1446               CP      R4, R6
   \   0000004A   0457               CPC     R5, R7
   \   0000004C   F348               BRCS    ??Subroutine0_2
   \   0000004E   ....               RJMP    ?Subroutine260

   \                                 In segment FARCODE, align 2, keep-with-next
   \                     ?Subroutine221:
   \   00000000   ....               LDI     R30, LOW(buf_tx_232)
   \   00000002   ....               LDI     R31, (buf_tx_232) >> 8
   \   00000004   9508               RET

   \                                 In segment FARCODE, align 2, keep-with-next
   \                     ?Subroutine252:
   \   00000000   E010               LDI     R17, 0
   \   00000002   ....               LDI     R30, LOW(Obj_ppp_tx)
   \   00000004   ....               LDI     R31, (Obj_ppp_tx) >> 8
   \                     ??Subroutine252_0:
   \   00000006   8706               STD     Z+14, R16
   \   00000008   8717               STD     Z+15, R17
   \   0000000A   9508               RET

   \                                 In segment FARCODE, align 2, keep-with-next
   \                     ?Subroutine50:
   \   00000000   0183               MOVW    R17:R16, R7:R6
   \                     ??Subroutine50_0:
   \   00000002   1908               SUB     R16, R8
   \   00000004   0919               SBC     R17, R9
   \   00000006   5F0F               SUBI    R16, 255
   \   00000008   4F1F               SBCI    R17, 255
   \                     ??Subroutine50_1:
   \   0000000A   1640               CP      R4, R16
   \   0000000C   0651               CPC     R5, R17
   \   0000000E   9508               RET

   \                                 In segment FARCODE, align 2, keep-with-next
   \                     ?Subroutine29:
   \   00000000   ........           CALL    WrArrayToFlesh
   \   00000004   E041               LDI     R20, 1
   \   00000006   E050               LDI     R21, 0
   \   00000008   ....               LDI     R18, LOW(ust_vhod)
   \   0000000A   ....               LDI     R19, (ust_vhod) >> 8
   \   0000000C   E700               LDI     R16, 112
   \   0000000E   9508               RET

   \                                 In segment FARCODE, align 2, keep-with-next
   \                     ?Subroutine22:
   \   00000000   E041               LDI     R20, 1
   \   00000002   E050               LDI     R21, 0
   \   00000004   ....               LDI     R18, LOW(ust_vhod)
   \   00000006   ....               LDI     R19, (ust_vhod) >> 8
   \   00000008   E700               LDI     R16, 112
   \   0000000A   ....               RJMP    ?Subroutine285

   \                                 In segment FARCODE, align 2, keep-with-next
   \                     ?Subroutine198:
   \   00000000   EF4F               LDI     R20, 255
   \   00000002   EF5F               LDI     R21, 255
   \   00000004   9508               RET

   \                                 In segment FARCODE, align 2, keep-with-next
   \                     ?Subroutine175:
   \   00000000   018D               MOVW    R17:R16, R27:R26
   \   00000002   ....               RJMP    ?Subroutine284
   5415           
   5416           ////////////////EEEEEEEEEEEEEEEEEEEEEEEEEEEEEEEEEEEEEEEEEEEEEEEEEEEEEEEEEEEEEEEEEEEEEEE
   5417           
   5418           
   5419           
   5420           
   5421           
   5422           
   5423           
   5424          
   5425           
   5426           
   5427           

   \                                 In segment FARCODE, align 2, keep-with-next
   5428          void analiz_ppp_rx(void)
   \                     analiz_ppp_rx:
   5429          {
   5430             
   5431            
   5432            
   5433            if(fl_ipcp.act_ipcp_end==0)return;
   5434            if (fl_ip.act_ip_end==0)return;         
   \   00000000   ........           CALL    ?Subroutine55
   \                     ??CrossCallReturnLabel_93:
   \   00000004   8104               LDD     R16, Z+4
   \   00000006   7001               ANDI    R16, 0x01
   \   00000008   8115               LDD     R17, Z+5
   \   0000000A   7011               ANDI    R17, 0x01
   \   0000000C   2310               AND     R17, R16
   \   0000000E   F101               BREQ    ??CrossCallReturnLabel_123
   5435            
   5436            if(Buf1_rx_ppp.rec==TRUE)
   \   00000010   9100....           LDS     R16, (Buf1_rx_ppp + 332)
   \   00000014   3001               CPI     R16, 1
   \   00000016   F461               BRNE    ??analiz_ppp_rx_0
   5437            {
   5438             
   5439            proc_ppp_packet(&Buf1_rx_ppp.data[0],Buf1_rx_ppp.ln_data); 
   \   00000018   ....               LDI     R30, LOW((Buf1_rx_ppp + 330))
   \   0000001A   ....               LDI     R31, HIGH((Buf1_rx_ppp + 330))
   \   0000001C   8120               LD      R18, Z
   \   0000001E   8131               LDD     R19, Z+1
   \   00000020   ....               LDI     R16, LOW(Buf1_rx_ppp)
   \   00000022   ....               LDI     R17, (Buf1_rx_ppp) >> 8
   \   00000024   ........           CALL    proc_ppp_packet
   5440            Buf1_rx_ppp.ln_data=0;
   \   00000028   E000               LDI     R16, 0
   \   0000002A   ....               LDI     R30, LOW((Buf1_rx_ppp + 330))
   \   0000002C   ....               LDI     R31, HIGH((Buf1_rx_ppp + 330))
   \   0000002E   ....               RJMP    ?Subroutine82
   5441            Buf1_rx_ppp.rec=FALSE;
   5442            Buf1_rx_ppp.busy=FALSE;
   5443            return;
   5444            }
   5445            
   5446            if(Buf2_rx_ppp.rec==TRUE)
   \                     ??analiz_ppp_rx_0:
   \   00000030   9100....           LDS     R16, (Buf2_rx_ppp + 332)
   \   00000034   3001               CPI     R16, 1
   \   00000036   F461               BRNE    ??CrossCallReturnLabel_123
   5447            {
   5448            
   5449           
   5450            
   5451            proc_ppp_packet(&Buf2_rx_ppp.data[0],Buf2_rx_ppp.ln_data); 
   \   00000038   ....               LDI     R30, LOW((Buf2_rx_ppp + 330))
   \   0000003A   ....               LDI     R31, HIGH((Buf2_rx_ppp + 330))
   \   0000003C   8120               LD      R18, Z
   \   0000003E   8131               LDD     R19, Z+1
   \   00000040   ....               LDI     R16, LOW(Buf2_rx_ppp)
   \   00000042   ....               LDI     R17, (Buf2_rx_ppp) >> 8
   \   00000044   ........           CALL    proc_ppp_packet
   5452            Buf2_rx_ppp.ln_data=0;
   \   00000048   E000               LDI     R16, 0
   \   0000004A   ....               LDI     R30, LOW((Buf2_rx_ppp + 330))
   \   0000004C   ....               LDI     R31, HIGH((Buf2_rx_ppp + 330))
   \   0000004E   ....               RCALL   ?Subroutine82
   5453            Buf2_rx_ppp.rec=FALSE;
   5454            Buf2_rx_ppp.busy=FALSE;
   5455            return;
   \                     ??CrossCallReturnLabel_123:
   \   00000050   9508               RET
   5456            }        
   5457                    
   5458          }

   \                                 In segment FARCODE, align 2, keep-with-next
   \                     ?Subroutine82:
   \   00000000   8300               ST      Z, R16
   \   00000002   8301               STD     Z+1, R16
   \   00000004   8302               STD     Z+2, R16
   \   00000006   8303               STD     Z+3, R16
   \   00000008   9508               RET
   5459          
   5460          

   \                                 In segment FARCODE, align 2, keep-with-next
   5461          unsigned char null_tii_485(unsigned char *pnt_buf)
   \                     null_tii_485:
   5462          {
   5463            if ( (sel_modul==1) && (pnt_buf[2]>4)) return(0); // ěęä
   \   00000000   ....               RCALL   ?Subroutine246
   \                     ??CrossCallReturnLabel_376:
   \   00000002   F421               BRNE    ??null_tii_485_0
   \   00000004   3025               CPI     R18, 5
   \   00000006   F020               BRCS    ??null_tii_485_1
   \                     ??null_tii_485_2:
   \   00000008   ........           JMP     ?Subroutine270
   5464            if ( (sel_modul!=1) && (pnt_buf[2]>=8)) return(0); // ěňń
   \                     ??null_tii_485_0:
   \   0000000C   3028               CPI     R18, 8
   \   0000000E   F7E0               BRCC    ??null_tii_485_2
   5465          //if (pnt_buf[2]>4) return(0);  
   5466          modbus_mem1[AD_TII1+pnt_buf[2]]=0;
   \                     ??null_tii_485_1:
   \   00000010   E020               LDI     R18, 0
   \   00000012   8102               LDD     R16, Z+2
   \   00000014   ....               RCALL   ?Subroutine251
   \                     ??CrossCallReturnLabel_393:
   \   00000016   8320               ST      Z, R18
   \   00000018   8321               STD     Z+1, R18
   5467          buf_tx_232[TR_OP_DATA+C1_DATA+2]=0;
   \   0000001A   9320....           STS     (buf_tx_232 + 46), R18
   5468          Obj_ppp_tx.l_data=4;
   \   0000001E   E004               LDI     R16, 4
   \   00000020   ....               LDI     R30, LOW(Obj_ppp_tx)
   \   00000022   ....               LDI     R31, (Obj_ppp_tx) >> 8
   \   00000024   8706               STD     Z+14, R16
   \   00000026   8727               STD     Z+15, R18
   5469          return(1);
   \   00000028   ....               RJMP    ?Subroutine276
   5470          }

   \                                 In segment FARCODE, align 2, keep-with-next
   \                     ?Subroutine246:
   \   00000000   9120....           LDS     R18, sel_modul
   \   00000004   3021               CPI     R18, 1
   \   00000006   01F8               MOVW    R31:R30, R17:R16
   \   00000008   8122               LDD     R18, Z+2
   \   0000000A   9508               RET

   \                                 In segment FARCODE, align 2, keep-with-next
   \                     ?Subroutine251:
   \   00000000   E012               LDI     R17, 2
   \   00000002   9F01               MUL     R16, R17
   \   00000004   01F0               MOVW    R31:R30, R1:R0
   \   00000006   ....               SUBI    R30, LOW((-(modbus_mem1) & 0xFFFF))
   \   00000008   ....               SBCI    R31, (-(modbus_mem1) & 0xFFFF) >> 8
   \   0000000A   9508               RET
   5471          

   \                                 In segment FARCODE, align 2, keep-with-next
   5472          unsigned char extract_tit_485(unsigned char *pnt_buf)
   \                     extract_tit_485:
   5473          {
   \   00000000   2F3B               MOV     R19, R27
   \   00000002   2F4A               MOV     R20, R26
   5474          if (pnt_buf[2]>1)return(0);
   \   00000004   01F8               MOVW    R31:R30, R17:R16
   \   00000006   8122               LDD     R18, Z+2
   \   00000008   3022               CPI     R18, 2
   \   0000000A   F010               BRCS    ??extract_tit_485_0
   \   0000000C   E000               LDI     R16, 0
   \   0000000E   C003               RJMP    ??CrossCallReturnLabel_553
   5475          buf_tx_232[TR_OP_DATA+C1_DATA+2]=pnt_buf[2];
   \                     ??extract_tit_485_0:
   \   00000010   ....               RCALL   ?Subroutine67
   5476          *(unsigned int*)&buf_tx_232[TR_OP_DATA+C1_DATA+3]=modbus_mem1[AD_TIT1+pnt_buf[2]];
   \                     ??CrossCallReturnLabel_391:
   \   00000012   ....               RCALL   ?Subroutine205
   \                     ??CrossCallReturnLabel_711:
   \   00000014   ....               RCALL   ?Subroutine76
   5477          Obj_ppp_tx.l_data=6;
   5478          return(1);
   \                     ??CrossCallReturnLabel_553:
   \   00000016                      REQUIRE ?Subroutine266
   \   00000016                      ;               // Fall through to label ?Subroutine266
   5479          }

   \                                 In segment FARCODE, align 2, keep-with-next
   \                     ?Subroutine266:
   \   00000000   2FA4               MOV     R26, R20
   \   00000002   2FB3               MOV     R27, R19
   \   00000004   9508               RET

   \                                 In segment FARCODE, align 2, keep-with-next
   \                     ?Subroutine76:
   \   00000000   01FD               MOVW    R31:R30, R27:R26
   \   00000002   A707               STD     Z+47, R16
   \   00000004   AB10               STD     Z+48, R17
   \   00000006   E006               LDI     R16, 6
   \   00000008   E010               LDI     R17, 0
   \   0000000A   ....               LDI     R30, LOW(Obj_ppp_tx)
   \   0000000C   ....               LDI     R31, (Obj_ppp_tx) >> 8
   \   0000000E   8706               STD     Z+14, R16
   \   00000010   8717               STD     Z+15, R17
   \   00000012   ....               RJMP    ?Subroutine276

   \                                 In segment FARCODE, align 2, keep-with-next
   \                     ?Subroutine67:
   \   00000000   ....               LDI     R26, LOW(buf_tx_232)
   \   00000002   ....               LDI     R27, (buf_tx_232) >> 8
   \   00000004   01FD               MOVW    R31:R30, R27:R26
   \   00000006   A726               STD     Z+46, R18
   \   00000008   01F8               MOVW    R31:R30, R17:R16
   \   0000000A   8102               LDD     R16, Z+2
   \   0000000C                      REQUIRE ?Subroutine251
   \   0000000C                      ;               // Fall through to label ?Subroutine251
   5480          

   \                                 In segment FARCODE, align 2, keep-with-next
   5481          unsigned char extract_tii_485(unsigned char *pnt_buf)
   \                     extract_tii_485:
   5482          {
   \   00000000   2F3B               MOV     R19, R27
   \   00000002   2F4A               MOV     R20, R26
   5483          //if (pnt_buf[2]>4)return(0);
   5484            if ( (sel_modul==1) && (pnt_buf[2]>4)) return(0); // ěęä
   \   00000004   ....               RCALL   ?Subroutine246
   \                     ??CrossCallReturnLabel_377:
   \   00000006   F421               BRNE    ??extract_tii_485_0
   \   00000008   3025               CPI     R18, 5
   \   0000000A   F020               BRCS    ??extract_tii_485_1
   \                     ??extract_tii_485_2:
   \   0000000C   E000               LDI     R16, 0
   \   0000000E   C005               RJMP    ??CrossCallReturnLabel_554
   5485            if ( (sel_modul!=1) && (pnt_buf[2]>=8)) return(0); // ěňń
   \                     ??extract_tii_485_0:
   \   00000010   3028               CPI     R18, 8
   \   00000012   F7E0               BRCC    ??extract_tii_485_2
   5486          
   5487          
   5488          buf_tx_232[TR_OP_DATA+C1_DATA+2]=pnt_buf[2];
   \                     ??extract_tii_485_1:
   \   00000014   ....               RCALL   ?Subroutine67
   5489          *(unsigned int*)&buf_tx_232[TR_OP_DATA+C1_DATA+3]=modbus_mem1[AD_TII1+pnt_buf[2]]; 
   \                     ??CrossCallReturnLabel_392:
   \   00000016   ....               RCALL   ?Subroutine265
   \                     ??CrossCallReturnLabel_748:
   \   00000018   ....               RCALL   ?Subroutine76
   5490          Obj_ppp_tx.l_data=6;
   5491          return(1);          
   \                     ??CrossCallReturnLabel_554:
   \   0000001A   ....               RJMP    ?Subroutine266
   5492          }
   5493          
   5494          
   5495          

   \                                 In segment FARCODE, align 2, keep-with-next
   5496          void tc_485(void)
   \                     tc_485:
   5497               {
   \   00000000   ........           CALL    ?Subroutine62
   5498               
   5499                     *(unsigned int*)&buf_tx_232[TR_OP_DATA+C1_DATA+2]=modbus_mem1[AD_TS]; 
   \                     ??CrossCallReturnLabel_105:
   \   00000004   ........           CALL    ?Subroutine69
   \                     ??CrossCallReturnLabel_114:
   \   00000008   ....               LDI     R30, LOW(modbus_mem1)
   \   0000000A   ....               LDI     R31, (modbus_mem1) >> 8
   \   0000000C   A900               LDD     R16, Z+48
   \   0000000E   A911               LDD     R17, Z+49
   \   00000010   01FD               MOVW    R31:R30, R27:R26
   \   00000012   A706               STD     Z+46, R16
   \   00000014   A717               STD     Z+47, R17
   5500                      read_ohr();
   \   00000016   ........           CALL    read_ohr
   5501                      buf_tx_232[TR_OP_DATA+C1_DATA+4]=bufer[0]; 
   \   0000001A   ....               LDI     R16, LOW(bufer)
   \   0000001C   ....               LDI     R17, (bufer) >> 8
   \   0000001E   01F8               MOVW    R31:R30, R17:R16
   \   00000020   8120               LD      R18, Z
   \   00000022   01FD               MOVW    R31:R30, R27:R26
   \   00000024   AB20               STD     Z+48, R18
   5502                      buf_tx_232[TR_OP_DATA+C1_DATA+5]=bufer[1]; 
   \   00000026   01F8               MOVW    R31:R30, R17:R16
   \   00000028   8101               LDD     R16, Z+1
   \   0000002A   01FD               MOVW    R31:R30, R27:R26
   \   0000002C   AB01               STD     Z+49, R16
   5503                     // buf_tx_232[TR_OP_DATA+C1_DATA+6]=crc_485(6,&buf_tx_232[TR_OP_DATA+C1_DATA]);
   5504                      Obj_ppp_tx.l_data=7;    
   \   0000002E   E007               LDI     R16, 7
   \   00000030   ....               RCALL   ?Subroutine252
   5505                }
   \                     ??CrossCallReturnLabel_403:
   \   00000032   ........           JMP     ?Subroutine93
   5506          
   5507          

   \                                 In segment FARCODE, align 2, keep-with-next
   5508          void null_all_tii_485(void)
   \                     null_all_tii_485:
   5509          {
   \   00000000   2F5B               MOV     R21, R27
   \   00000002   2F6A               MOV     R22, R26
   5510          char i,k,r;
   5511          k=0;  
   \   00000004   E000               LDI     R16, 0
   5512          if(buf_tx_232[TR_OP_DATA+C1_DATA]==6)k=1; 
   \   00000006   ....               RCALL   ?Subroutine221
   \                     ??CrossCallReturnLabel_690:
   \   00000008   A514               LDD     R17, Z+44
   \   0000000A   3016               CPI     R17, 6
   \   0000000C   F409               BRNE    ??null_all_tii_485_0
   \   0000000E   E001               LDI     R16, 1
   5513            if  (sel_modul==1) r=5;
   \                     ??null_all_tii_485_0:
   \   00000010   9110....           LDS     R17, sel_modul
   \   00000014   3011               CPI     R17, 1
   \   00000016   F411               BRNE    ??null_all_tii_485_1
   \   00000018   E025               LDI     R18, 5
   \   0000001A   C001               RJMP    ??null_all_tii_485_2
   5514                  else r=8;
   \                     ??null_all_tii_485_1:
   \   0000001C   E028               LDI     R18, 8
   5515            
   5516          for(i=k;i<r;i++) modbus_mem1[AD_TII1+i]=0;
   \                     ??null_all_tii_485_2:
   \   0000001E   2F30               MOV     R19, R16
   \   00000020   C008               RJMP    ??null_all_tii_485_3
   \                     ??null_all_tii_485_4:
   \   00000022   E042               LDI     R20, 2
   \   00000024   9F34               MUL     R19, R20
   \   00000026   01D0               MOVW    R27:R26, R1:R0
   \   00000028   ....               SUBI    R26, LOW((-(modbus_mem1) & 0xFFFF))
   \   0000002A   ....               SBCI    R27, (-(modbus_mem1) & 0xFFFF) >> 8
   \   0000002C   930D               ST      X+, R16
   \   0000002E   930C               ST      X, R16
   \   00000030   9533               INC     R19
   \                     ??null_all_tii_485_3:
   \   00000032   1732               CP      R19, R18
   \   00000034   E000               LDI     R16, 0
   \   00000036   F3A8               BRCS    ??null_all_tii_485_4
   5517          buf_tx_232[TR_OP_DATA+C1_DATA+2]=0;
   \   00000038   ....               RCALL   ?Subroutine42
   5518          Obj_ppp_tx.l_data=4;
   5519          }
   \                     ??CrossCallReturnLabel_396:
   \   0000003A   2FA6               MOV     R26, R22
   \   0000003C   2FB5               MOV     R27, R21
   \   0000003E   9508               RET

   \                                 In segment FARCODE, align 2, keep-with-next
   \                     ?Subroutine42:
   \   00000000   A706               STD     Z+46, R16
   \                     ??Subroutine42_0:
   \   00000002   E004               LDI     R16, 4
   \   00000004                      REQUIRE ?Subroutine252
   \   00000004                      ;               // Fall through to label ?Subroutine252
   5520          

   \                                 In segment FARCODE, align 2, keep-with-next
   5521          void extract_all_tii_485(void)
   \                     extract_all_tii_485:
   5522          {
   5523            char i;
   5524            for(i=0;i<16;i++) *(unsigned int*)&buf_tx_232[TR_OP_DATA+C1_DATA+2+(i<<1)]=modbus_mem1[AD_TII1+i];  
   \   00000000   E000               LDI     R16, 0
   \                     ??extract_all_tii_485_0:
   \   00000002   ....               RCALL   ?Subroutine251
   \                     ??CrossCallReturnLabel_394:
   \   00000004   8120               LD      R18, Z
   \   00000006   8131               LDD     R19, Z+1
   \   00000008   ....               RCALL   ?Subroutine200
   \                     ??CrossCallReturnLabel_509:
   \   0000000A   3100               CPI     R16, 16
   \   0000000C   F3D0               BRCS    ??extract_all_tii_485_0
   5525            Obj_ppp_tx.l_data=35; 
   \   0000000E   E203               LDI     R16, 35
   \   00000010   ....               RJMP    ?Subroutine252
   5526          }

   \                                 In segment FARCODE, align 2, keep-with-next
   \                     ?Subroutine200:
   \   00000000   01F0               MOVW    R31:R30, R1:R0
   \   00000002   ....               SUBI    R30, LOW((-(buf_tx_232) & 0xFFFF))
   \   00000004   ....               SBCI    R31, (-(buf_tx_232) & 0xFFFF) >> 8
   \   00000006   A726               STD     Z+46, R18
   \   00000008   A737               STD     Z+47, R19
   \   0000000A   ........           JMP     ?Subroutine269
   5527          

   \                                 In segment FARCODE, align 2, keep-with-next
   5528          void extract_all_tit_485(void)
   \                     extract_all_tit_485:
   5529          {
   5530            char i; 
   5531               for(i=0;i<8;i++) *(unsigned int*)&buf_tx_232[TR_OP_DATA+C1_DATA+2+(i<<1)]=modbus_mem1[AD_TIT1+i];     
   \   00000000   E000               LDI     R16, 0
   \                     ??extract_all_tit_485_0:
   \   00000002   ....               RCALL   ?Subroutine251
   \                     ??CrossCallReturnLabel_395:
   \   00000004   A120               LDD     R18, Z+32
   \   00000006   A131               LDD     R19, Z+33
   \   00000008   ....               RCALL   ?Subroutine200
   \                     ??CrossCallReturnLabel_510:
   \   0000000A   3008               CPI     R16, 8
   \   0000000C   F3D0               BRCS    ??extract_all_tit_485_0
   5532               Obj_ppp_tx.l_data=19;     
   \   0000000E   E103               LDI     R16, 19
   \   00000010   ....               RJMP    ?Subroutine252
   5533          }
   5534          
   5535          

   \                                 In segment FARCODE, align 2, keep-with-next
   5536          void com_disp (unsigned char *pnt_buf)
   \                     com_disp:
   5537          {
   \   00000000   ....               RCALL   ?Subroutine9
   \                     ??CrossCallReturnLabel_27:
   \   00000002                      REQUIRE ?Register_R4_is_cg_reg
   \   00000002                      REQUIRE ?Register_R5_is_cg_reg
   \   00000002   01F8               MOVW    R31:R30, R17:R16
   5538          unsigned int pred_sost;  
   5539            
   5540          buf_tx_232[TR_OP_DATA+C1_DATA+2]=pnt_buf[2];
   \   00000004   ....               LDI     R24, LOW(buf_tx_232)
   \   00000006   ....               LDI     R25, (buf_tx_232) >> 8
   \   00000008   8102               LDD     R16, Z+2
   \   0000000A   01FC               MOVW    R31:R30, R25:R24
   \   0000000C   A706               STD     Z+46, R16
   5541          
   5542                bit_registr1=bit_registr1 | TABLETKA; 
   \   0000000E   ....               LDI     R30, LOW(bit_registr1)
   \   00000010   ....               LDI     R31, (bit_registr1) >> 8
   \   00000012   8100               LD      R16, Z
   \   00000014   6008               ORI     R16, 0x08
   \   00000016   8300               ST      Z, R16
   5543                nomer_tab=0;
   \   00000018   E000               LDI     R16, 0
   \   0000001A   9300....           STS     nomer_tab, R16
   5544                pred_sost=sost; 
   \   0000001E   ....               LDI     R30, LOW(sost)
   \   00000020   ....               LDI     R31, (sost) >> 8
   \   00000022   8040               LD      R4, Z
   \   00000024   8051               LDD     R5, Z+1
   5545                switch(sost)
   \   00000026   91E0....           LDS     R30, sost
   \   0000002A   2DF5               MOV     R31, R5
   \   0000002C   9630               ADIW    R31:R30, 0
   \   0000002E   F049               BREQ    ??com_disp_0
   \   00000030   9731               SBIW    R31:R30, 1
   \   00000032   F051               BREQ    ??com_disp_1
   \   00000034   9731               SBIW    R31:R30, 1
   \   00000036   F059               BREQ    ??com_disp_2
   \   00000038   9731               SBIW    R31:R30, 1
   \   0000003A   F061               BREQ    ??com_disp_3
   \   0000003C   9731               SBIW    R31:R30, 1
   \   0000003E   F069               BREQ    ??com_disp_4
   \   00000040   C00E               RJMP    ??com_disp_5
   5546                                          {
   5547                                          case 0: test_vzat();  break;
   \                     ??com_disp_0:
   \   00000042   ........           CALL    test_vzat
   \   00000046   C00B               RJMP    ??com_disp_5
   5548                                          case 1: test_snat();  break;
   \                     ??com_disp_1:
   \   00000048   ........           CALL    test_snat
   \   0000004C   C008               RJMP    ??com_disp_5
   5549                                          case 2: test_alarm(); break;
   \                     ??com_disp_2:
   \   0000004E   ........           CALL    test_alarm
   \   00000052   C005               RJMP    ??com_disp_5
   5550                                          case 3: test_t_vhod(); break;
   \                     ??com_disp_3:
   \   00000054   ........           CALL    test_t_vhod
   \   00000058   C002               RJMP    ??com_disp_5
   5551                                          case 4: test_t_vihod(); break;
   \                     ??com_disp_4:
   \   0000005A   ........           CALL    test_t_vihod
   5552                                             default: break;
   5553                                           } 
   5554                          
   5555              if(pred_sost==sost) buf_tx_232[TR_OP_DATA+C1_DATA]=192;
   \                     ??com_disp_5:
   \   0000005E   ....               LDI     R30, LOW(sost)
   \   00000060   ....               LDI     R31, (sost) >> 8
   \   00000062   ....               RCALL   ?Subroutine265
   \                     ??CrossCallReturnLabel_749:
   \   00000064   ....               RCALL   ??Subroutine50_1
   \                     ??CrossCallReturnLabel_674:
   \   00000066   F419               BRNE    ??com_disp_6
   \   00000068   EC00               LDI     R16, 192
   \   0000006A   01FC               MOVW    R31:R30, R25:R24
   \   0000006C   A704               STD     Z+44, R16
   5556              Obj_ppp_tx.l_data=4; 
   \                     ??com_disp_6:
   \   0000006E   ....               RCALL   ??Subroutine42_0
   5557          }
   \                     ??CrossCallReturnLabel_404:
   \   00000070   ........           JMP     ?Subroutine277
   5558          

   \                                 In segment FARCODE, align 2, keep-with-next
   5559          void w_in_out_485(unsigned char *pnt_buf)
   \                     w_in_out_485:
   5560                    {
   \   00000000   01F8               MOVW    R31:R30, R17:R16
   5561                //   char i;
   5562          
   5563                //    for(i=0;i<4;i++)Rs485_buf_rx_tx[TX_BUF_RS485+i]=Rs485_buf_rx_tx[i]; 
   5564                    buf_tx_232[TR_OP_DATA+C1_DATA+2]=pnt_buf[2];
   \   00000002   ....               LDI     R18, LOW(buf_tx_232)
   \   00000004   ....               LDI     R19, (buf_tx_232) >> 8
   \   00000006   8102               LDD     R16, Z+2
   \   00000008   01F9               MOVW    R31:R30, R19:R18
   \   0000000A   ....               RCALL   ?Subroutine42
   5565          //          buf_tx_232[TR_OP_DATA+C1_DATA+3]=pnt_buf[3];
   5566                    Obj_ppp_tx.l_data=4;
   5567                    
   5568                    /*
   5569                    c_config_kd[AD_TM_VHOD]=Rs485_buf_rx_tx[2] & 0x1f;
   5570                    WrArrayToFleshInt(A_KD,&c_config_kd[AD_TM_VHOD],1,0,0); 
   5571                    ust_vhod=c_config_kd[AD_TM_VHOD]*1000;
   5572                    */
   5573          
   5574                    WrArrayToFlesh(A_SEG9,&buf_tx_232[TR_OP_DATA+C1_DATA+2],2,0,0); 
   \                     ??CrossCallReturnLabel_397:
   \   0000000C   E070               LDI     R23, 0
   \   0000000E   E060               LDI     R22, 0
   \   00000010   E042               LDI     R20, 2
   \   00000012   E050               LDI     R21, 0
   \   00000014   5D22               SUBI    R18, 210
   \   00000016   4F3F               SBCI    R19, 255
   \   00000018   E700               LDI     R16, 112
   \   0000001A   E014               LDI     R17, 4
   \   0000001C   ....               RCALL   ?Subroutine29
   5575                   // RdFromFleshToArr(A_SEG9,(unsigned char *)&ust_vhod,SEG9*2);
   5576                    RdFromFleshToArrInt(A_SEG9,&ust_vhod,1);
   \                     ??CrossCallReturnLabel_41:
   \   0000001E   ....               RJMP    ?Subroutine285
   5577          
   5578                    
   5579                     }  
   5580                        

   \                                 In segment FARCODE, align 2, keep-with-next
   5581                void r_in_out_485(void)
   \                     r_in_out_485:
   5582                    {
   5583                      RdFromFleshToArrInt(A_SEG9,&ust_vhod,1);
   \   00000000   ....               RCALL   ?Subroutine22
   5584                      buf_tx_232[TR_OP_DATA+C1_DATA+2]=ust_vhod;
   \                     ??CrossCallReturnLabel_602:
   \   00000002   9100....           LDS     R16, ust_vhod
   \   00000006   9300....           STS     (buf_tx_232 + 46), R16
   5585                      Obj_ppp_tx.l_data=4; 
   \   0000000A   ....               RJMP    ??Subroutine42_0
   5586                     } 
   5587          

   \                                 In segment FARCODE, align 2, keep-with-next
   5588          unsigned char proc_kamintel(unsigned char *pnt_buf,unsigned char length)
   \                     proc_kamintel:
   5589          {
   \   00000000   ........           CALL    ?Subroutine90
   \                     ??CrossCallReturnLabel_141:
   \   00000004   01D8               MOVW    R27:R26, R17:R16
   \   00000006   2F02               MOV     R16, R18
   5590            if(pnt_buf[length-1] !=crc_485(length-1, &pnt_buf[0]))return(0);
   \   00000008   E010               LDI     R17, 0
   \   0000000A   01FD               MOVW    R31:R30, R27:R26
   \   0000000C   0FE2               ADD     R30, R18
   \   0000000E   1FF1               ADC     R31, R17
   \   00000010   9182               LD      R24, -Z
   \   00000012   019D               MOVW    R19:R18, R27:R26
   \   00000014   ....               RCALL   ?Subroutine58
   \                     ??CrossCallReturnLabel_95:
   \   00000016   1780               CP      R24, R16
   \   00000018   F011               BREQ    ??proc_kamintel_0
   \                     ??proc_kamintel_1:
   \   0000001A   E000               LDI     R16, 0
   \   0000001C   C048               RJMP    ??proc_kamintel_2
   5591            
   5592            
   5593            switch(pnt_buf[0])
   \                     ??proc_kamintel_0:
   \   0000001E   910C               LD      R16, X
   \   00000020   5800               SUBI    R16, 128
   \   00000022   F181               BREQ    ??proc_kamintel_3
   \   00000024   5408               SUBI    R16, 72
   \   00000026   F1A1               BREQ    ??proc_kamintel_4
   \   00000028   950A               DEC     R16
   \   0000002A   F179               BREQ    ??proc_kamintel_5
   \   0000002C   5307               SUBI    R16, 55
   \   0000002E   F089               BREQ    ??proc_kamintel_6
   \   00000030   950A               DEC     R16
   \   00000032   F0A1               BREQ    ??proc_kamintel_7
   \   00000034   5002               SUBI    R16, 2
   \   00000036   F0A9               BREQ    ??proc_kamintel_8
   \   00000038   950A               DEC     R16
   \   0000003A   F0C1               BREQ    ??proc_kamintel_9
   \   0000003C   950A               DEC     R16
   \   0000003E   F0C1               BREQ    ??proc_kamintel_10
   \   00000040   950A               DEC     R16
   \   00000042   F0B1               BREQ    ??proc_kamintel_10
   \   00000044   5004               SUBI    R16, 4
   \   00000046   F0B1               BREQ    ??proc_kamintel_11
   \   00000048   950A               DEC     R16
   \   0000004A   F0B1               BREQ    ??proc_kamintel_12
   \   0000004C   5009               SUBI    R16, 9
   \   0000004E   F0B1               BREQ    ??proc_kamintel_13
   \   00000050   CFE4               RJMP    ??proc_kamintel_1
   5594          
   5595              {     
   5596           
   5597             case 0: if (null_tii_485(&pnt_buf[0])==0)return(0);else break;
   \                     ??proc_kamintel_6:
   \   00000052   018D               MOVW    R17:R16, R27:R26
   \   00000054   ....               RCALL   null_tii_485
   \                     ??proc_kamintel_14:
   \   00000056   2300               TST     R16
   \   00000058   F4E1               BRNE    ??proc_kamintel_15
   \   0000005A   CFDF               RJMP    ??proc_kamintel_1
   5598             case 1: if (extract_tit_485(&pnt_buf[0])==0)return(0);else break;
   \                     ??proc_kamintel_7:
   \   0000005C   018D               MOVW    R17:R16, R27:R26
   \   0000005E   ....               RCALL   extract_tit_485
   \   00000060   CFFA               RJMP    ??proc_kamintel_14
   5599             case 3:if (extract_tii_485(&pnt_buf[0])==0)return(0);else break;
   \                     ??proc_kamintel_8:
   \   00000062   018D               MOVW    R17:R16, R27:R26
   \   00000064   ....               RCALL   extract_tii_485
   \   00000066   2300               TST     R16
   \   00000068   F4A1               BRNE    ??proc_kamintel_15
   \   0000006A   CFD7               RJMP    ??proc_kamintel_1
   5600             case 4: tc_485();break;
   \                     ??proc_kamintel_9:
   \   0000006C   ....               RCALL   tc_485
   \   0000006E   C011               RJMP    ??proc_kamintel_15
   5601             case 5: 
   5602             case 6:  null_all_tii_485();break;
   \                     ??proc_kamintel_10:
   \   00000070   ....               RCALL   null_all_tii_485
   \   00000072   C00F               RJMP    ??proc_kamintel_15
   5603             case 10: extract_all_tii_485();break;
   \                     ??proc_kamintel_11:
   \   00000074   ....               RCALL   extract_all_tii_485
   \   00000076   C00D               RJMP    ??proc_kamintel_15
   5604             case 11: extract_all_tit_485();break;
   \                     ??proc_kamintel_12:
   \   00000078   ....               RCALL   extract_all_tit_485
   \   0000007A   C00B               RJMP    ??proc_kamintel_15
   5605             case 20: obmen_full=0;return(0);
   \                     ??proc_kamintel_13:
   \   0000007C   E000               LDI     R16, 0
   \   0000007E   9300....           STS     obmen_full, R16
   \   00000082   CFCB               RJMP    ??proc_kamintel_1
   5606              
   5607             case 128: com_disp(&pnt_buf[0]);break;//exo_485();break;
   \                     ??proc_kamintel_3:
   \   00000084   018D               MOVW    R17:R16, R27:R26
   \   00000086   ....               RCALL   com_disp
   \   00000088   C004               RJMP    ??proc_kamintel_15
   5608              
   5609              
   5610             case 201: w_in_out_485(&pnt_buf[0]);break;  // çŕäĺđćęŕ íŕ âőîä âűőîä çŕďčńŕňü
   \                     ??proc_kamintel_5:
   \   0000008A   018D               MOVW    R17:R16, R27:R26
   \   0000008C   ....               RCALL   w_in_out_485
   \   0000008E   C001               RJMP    ??proc_kamintel_15
   5611             case 200: r_in_out_485();break;  // çŕäĺđćęŕ íŕ âőîä âűőîä ďđî÷čňŕňü
   \                     ??proc_kamintel_4:
   \   00000090   ....               RCALL   r_in_out_485
   5612          
   5613              
   5614              default:return(0);
   5615              }
   5616            
   5617            buf_tx_232[TR_OP_DATA+C1_DATA+Obj_ppp_tx.l_data-1]=crc_485(Obj_ppp_tx.l_data-1,&buf_tx_232[TR_OP_DATA+C1_DATA]);
   \                     ??proc_kamintel_15:
   \   00000092   ....               LDI     R26, LOW((Obj_ppp_tx + 14))
   \   00000094   ....               LDI     R27, HIGH((Obj_ppp_tx + 14))
   \   00000096   ....               LDI     R18, LOW((buf_tx_232 + 44))
   \   00000098   ....               LDI     R19, HIGH((buf_tx_232 + 44))
   \   0000009A   910D               LD      R16, X+
   \   0000009C   9711               SBIW    R27:R26, 1
   \   0000009E   ....               RCALL   ?Subroutine58
   \                     ??CrossCallReturnLabel_94:
   \   000000A0   912D               LD      R18, X+
   \   000000A2   913C               LD      R19, X
   \   000000A4   01F9               MOVW    R31:R30, R19:R18
   \   000000A6   ....               SUBI    R30, LOW((-(buf_tx_232) & 0xFFFF))
   \   000000A8   ....               SBCI    R31, (-(buf_tx_232) & 0xFFFF) >> 8
   \   000000AA   A703               STD     Z+43, R16
   5618            return(1);
   \   000000AC   E001               LDI     R16, 1
   \                     ??proc_kamintel_2:
   \   000000AE   ........           JMP     ??Subroutine278_0
   5619          }

   \                                 In segment FARCODE, align 2, keep-with-next
   \                     ?Subroutine58:
   \   00000000   950A               DEC     R16
   \   00000002   ........           JMP     crc_485
   5620          
   5621          

   \                                 In segment FARCODE, align 2, keep-with-next
   5622          unsigned int proc_modbus(unsigned char *pnt_buf,unsigned char length)
   \                     proc_modbus:
   5623           {
   \   00000000   ....               RCALL   ?Subroutine9
   \                     ??CrossCallReturnLabel_28:
   \   00000002                      REQUIRE ?Register_R4_is_cg_reg
   \   00000002                      REQUIRE ?Register_R5_is_cg_reg
   \   00000002   01D8               MOVW    R27:R26, R17:R16
   \   00000004   2F82               MOV     R24, R18
   5624             unsigned int temp;
   5625             unsigned char i;
   5626          
   5627               i=pnt_buf[length-2];
   \   00000006   E030               LDI     R19, 0
   \   00000008   01F8               MOVW    R31:R30, R17:R16
   \   0000000A   ....               RCALL   ??Subroutine138_0
   \                     ??CrossCallReturnLabel_233:
   \   0000000C   9732               SBIW    R31:R30, 2
   \   0000000E   ....               RCALL   ?Subroutine265
   5628               pnt_buf[length-2]=pnt_buf[length-1];
   \                     ??CrossCallReturnLabel_745:
   \   00000010   8310               ST      Z, R17
   5629               pnt_buf[length-1]=i;                            
   \   00000012   8301               STD     Z+1, R16
   5630               if(*(unsigned int*)&pnt_buf[length-2]!=crc_m1(&pnt_buf[0],length-2,0xffff))return(0); //crc
   \   00000014   2E41               MOV     R4, R17
   \   00000016   2E50               MOV     R5, R16
   \   00000018   ....               RCALL   ?Subroutine198
   \                     ??CrossCallReturnLabel_661:
   \   0000001A   5022               SUBI    R18, 2
   \   0000001C   4030               SBCI    R19, 0
   \   0000001E   ....               RCALL   ?Subroutine175
   \                     ??CrossCallReturnLabel_595:
   \   00000020   ....               RCALL   ??Subroutine50_1
   \                     ??CrossCallReturnLabel_675:
   \   00000022   F011               BREQ    ??proc_modbus_0
   \                     ??proc_modbus_1:
   \   00000024   E000               LDI     R16, 0
   \   00000026   C061               RJMP    ??proc_modbus_2
   5631             
   5632             
   5633             switch (pnt_buf[1])
   \                     ??proc_modbus_0:
   \   00000028   ........           CALL    ?Subroutine121
   \                     ??CrossCallReturnLabel_737:
   \   0000002C   950A               DEC     R16
   \   0000002E   F059               BREQ    ??proc_modbus_3
   \   00000030   5002               SUBI    R16, 2
   \   00000032   F0E1               BREQ    ??proc_modbus_4
   \   00000034   950A               DEC     R16
   \   00000036   F0D1               BREQ    ??proc_modbus_4
   \   00000038   950A               DEC     R16
   \   0000003A   F141               BREQ    ??proc_modbus_5
   \   0000003C   950A               DEC     R16
   \   0000003E   F199               BREQ    ??proc_modbus_6
   \   00000040   500A               SUBI    R16, 10
   \   00000042   F1B1               BREQ    ??proc_modbus_7
   \   00000044   CFEF               RJMP    ??proc_modbus_1
   5634             {
   5635             case 1:if(length!=8)return(0);
   \                     ??proc_modbus_3:
   \   00000046   3088               CPI     R24, 8
   \   00000048   F769               BRNE    ??proc_modbus_1
   5636                  if(swap(*(unsigned int*)&pnt_buf[4])==0 || swap(*(unsigned int*)&pnt_buf[4])>2000){temp=pnt_buf[1];temp=temp<<8;return(temp | 0x8003);}
   \   0000004A   ....               RCALL   ?Subroutine161
   \                     ??CrossCallReturnLabel_259:
   \   0000004C   F021               BREQ    ??proc_modbus_8
   \   0000004E   ....               RCALL   ?Subroutine112
   \                     ??CrossCallReturnLabel_610:
   \   00000050   3D01               CPI     R16, 209
   \   00000052   4017               SBCI    R17, 7
   \   00000054   F028               BRCS    ??proc_modbus_9
   \                     ??proc_modbus_8:
   \   00000056   01FD               MOVW    R31:R30, R27:R26
   \   00000058   8111               LDD     R17, Z+1
   \   0000005A   E003               LDI     R16, 3
   \                     ??proc_modbus_10:
   \   0000005C   6810               ORI     R17, 0x80
   \   0000005E   C046               RJMP    ??proc_modbus_11
   5637                  if(swap(*(unsigned int*)&pnt_buf[4])>8)return(0);
   \                     ??proc_modbus_9:
   \   00000060   ....               RCALL   ?Subroutine112
   \                     ??CrossCallReturnLabel_609:
   \   00000062   3009               CPI     R16, 9
   \   00000064   4010               SBCI    R17, 0
   \   00000066   F6F0               BRCC    ??proc_modbus_1
   5638                  return(1);
   \   00000068   E001               LDI     R16, 1
   \   0000006A   C03F               RJMP    ??proc_modbus_2
   5639             case 3:
   5640             case 4:
   5641                if(length!=8)return(0);
   \                     ??proc_modbus_4:
   \   0000006C   3088               CPI     R24, 8
   \   0000006E   F6D1               BRNE    ??proc_modbus_1
   5642                if(swap(*(unsigned int*)&pnt_buf[4])==0 || swap(*(unsigned int*)&pnt_buf[4])>125){temp=pnt_buf[1];temp=temp<<8;return(temp | 0x8003);}
   \   00000070   ....               RCALL   ?Subroutine161
   \                     ??CrossCallReturnLabel_260:
   \   00000072   F389               BREQ    ??proc_modbus_8
   \   00000074   ....               RCALL   ?Subroutine112
   \                     ??CrossCallReturnLabel_608:
   \   00000076   370E               CPI     R16, 126
   \   00000078   4010               SBCI    R17, 0
   \   0000007A   F768               BRCC    ??proc_modbus_8
   5643                if (( 0xffff - swap(*(unsigned int*)&pnt_buf[2])) < ( swap(*(unsigned int*)&pnt_buf[4])-1 )){temp=pnt_buf[1];temp=temp<<8;return(temp | 0x8002);}
   \   0000007C   ....               RCALL   ?Subroutine111
   \                     ??CrossCallReturnLabel_189:
   \   0000007E   01FD               MOVW    R31:R30, R27:R26
   \   00000080   F418               BRCC    ??proc_modbus_12
   \   00000082   8111               LDD     R17, Z+1
   \   00000084   E002               LDI     R16, 2
   \   00000086   CFEA               RJMP    ??proc_modbus_10
   5644                break;   
   5645             case 5:
   5646                if(length!=8)return(0);
   5647                if(swap(*(unsigned int*)&pnt_buf[4])!=0 && swap(*(unsigned int*)&pnt_buf[4])!=0xff00){temp=pnt_buf[1];temp=temp<<8;return(0x8503);}
   5648                return(5);
   5649             case 6:
   5650               if(length!=8)return(0);
   5651               return(6);  
   5652             case 16:
   5653               if(length<11)return(0); 
   5654               if(length>249)return(0);
   5655               if(swap(*(unsigned int*)&pnt_buf[4])==0 || swap(*(unsigned int*)&pnt_buf[4])>120)return(0x9003);
   5656               temp=pnt_buf[5];
   5657               if(temp!=swap(*(unsigned int*)&pnt_buf[4]))return(0x9003);
   5658               if ((0xffff -swap(*(unsigned int*)&pnt_buf[2])) < (swap( *(unsigned int*)&pnt_buf[4])-1 ))return(0x9002);
   5659               return(16);
   5660             default: return(0);     
   5661             }
   5662             
   5663             return(pnt_buf[1]);
   \                     ??proc_modbus_12:
   \   00000088   8101               LDD     R16, Z+1
   \   0000008A   C02F               RJMP    ??proc_modbus_2
   \                     ??proc_modbus_5:
   \   0000008C   3088               CPI     R24, 8
   \   0000008E   F651               BRNE    ??proc_modbus_1
   \   00000090   ....               RCALL   ?Subroutine161
   \                     ??CrossCallReturnLabel_261:
   \   00000092   F039               BREQ    ??proc_modbus_13
   \   00000094   ....               RCALL   ?Subroutine112
   \                     ??CrossCallReturnLabel_607:
   \   00000096   3000               CPI     R16, 0
   \   00000098   4F1F               SBCI    R17, 255
   \   0000009A   F019               BREQ    ??proc_modbus_13
   \   0000009C   E003               LDI     R16, 3
   \   0000009E   E815               LDI     R17, 133
   \   000000A0   C025               RJMP    ??proc_modbus_11
   \                     ??proc_modbus_13:
   \   000000A2   E005               LDI     R16, 5
   \   000000A4   C022               RJMP    ??proc_modbus_2
   \                     ??proc_modbus_6:
   \   000000A6   3088               CPI     R24, 8
   \   000000A8   F009               BREQ    $+2+2
   \   000000AA   CFBC               RJMP    ??proc_modbus_1
   \   000000AC   E006               LDI     R16, 6
   \   000000AE   C01D               RJMP    ??proc_modbus_2
   \                     ??proc_modbus_7:
   \   000000B0   308B               CPI     R24, 11
   \   000000B2   F408               BRCC    $+2+2
   \   000000B4   CFB7               RJMP    ??proc_modbus_1
   \   000000B6   3F8A               CPI     R24, 250
   \   000000B8   F008               BRCS    $+2+2
   \   000000BA   CFB4               RJMP    ??proc_modbus_1
   \   000000BC   ....               RCALL   ?Subroutine161
   \                     ??CrossCallReturnLabel_262:
   \   000000BE   F029               BREQ    ??proc_modbus_14
   \   000000C0   ....               RCALL   ?Subroutine112
   \                     ??CrossCallReturnLabel_606:
   \   000000C2   3709               CPI     R16, 121
   \   000000C4   E090               LDI     R25, 0
   \   000000C6   4010               SBCI    R17, 0
   \   000000C8   F018               BRCS    ??proc_modbus_15
   \                     ??proc_modbus_14:
   \   000000CA   E003               LDI     R16, 3
   \                     ??proc_modbus_16:
   \   000000CC   E910               LDI     R17, 144
   \   000000CE   C00E               RJMP    ??proc_modbus_11
   \                     ??proc_modbus_15:
   \   000000D0   01FD               MOVW    R31:R30, R27:R26
   \   000000D2   8185               LDD     R24, Z+5
   \   000000D4   8104               LDD     R16, Z+4
   \   000000D6   2F18               MOV     R17, R24
   \   000000D8   ....               RCALL   ?Subroutine291
   \                     ??__CCRETURN_11:
   \                     ??proc_modbus_17:
   \   000000DA   1780               CP      R24, R16
   \   000000DC   0791               CPC     R25, R17
   \   000000DE   F7A9               BRNE    ??proc_modbus_14
   \   000000E0   ....               RCALL   ?Subroutine111
   \                     ??CrossCallReturnLabel_190:
   \   000000E2   F410               BRCC    ??proc_modbus_18
   \   000000E4   E002               LDI     R16, 2
   \   000000E6   CFF2               RJMP    ??proc_modbus_16
   \                     ??proc_modbus_18:
   \   000000E8   E100               LDI     R16, 16
   \                     ??proc_modbus_2:
   \   000000EA   E010               LDI     R17, 0
   \                     ??proc_modbus_11:
   \   000000EC   ........           JMP     ?Subroutine277
   5664           }

   \                                 In segment FARCODE, align 2, keep-with-next
   \                     ?Subroutine161:
   \   00000000   8104               LDD     R16, Z+4
   \   00000002   8115               LDD     R17, Z+5
   \   00000004   ....               RCALL   ?Subroutine291
   \                     ??__CCRETURN_12:
   \                     ??Subroutine161_0:
   \   00000006   2B01               OR      R16, R17
   \   00000008   9508               RET

   \                                 In segment FARCODE, align 2, keep-with-next
   \                     ?Subroutine112:
   \   00000000   01FD               MOVW    R31:R30, R27:R26
   \   00000002   8104               LDD     R16, Z+4
   \   00000004   8115               LDD     R17, Z+5
   \   00000006   ....               RJMP    ?Subroutine286

   \                                 In segment FARCODE, align 2, keep-with-next
   \                     ?Subroutine111:
   \   00000000   01FD               MOVW    R31:R30, R27:R26
   \   00000002   8102               LDD     R16, Z+2
   \   00000004   8113               LDD     R17, Z+3
   \   00000006   ....               RCALL   ?Subroutine291
   \                     ??__CCRETURN_13:
   \                     ??Subroutine111_0:
   \   00000008   EF8F               LDI     R24, 255
   \   0000000A   EF9F               LDI     R25, 255
   \   0000000C   1B80               SUB     R24, R16
   \   0000000E   0B91               SBC     R25, R17
   \   00000010   01FD               MOVW    R31:R30, R27:R26
   \   00000012   8104               LDD     R16, Z+4
   \   00000014   8115               LDD     R17, Z+5
   \   00000016   ....               RCALL   ?Subroutine291
   \                     ??__CCRETURN_14:
   \                     ??Subroutine111_1:
   \   00000018   5001               SUBI    R16, 1
   \   0000001A   4010               SBCI    R17, 0
   \   0000001C   1780               CP      R24, R16
   \   0000001E   0791               CPC     R25, R17
   \   00000020   9508               RET
   5665           
   5666          /*
   5667          
   5668          void razbor_input_packet(char smest)   // 
   5669          {
   5670          char size_of_pac;
   5671          
   5672          struct {
   5673                  unsigned char *point_out;
   5674                  unsigned char *point_in;
   5675                  unsigned char flag_elam;
   5676                  unsigned int count_in_elam;
   5677                  unsigned int index_elam;
   5678                  unsigned int size_of_pac;
   5679          
   5680          }mobus;
   5681          
   5682             mobus.point_out=& buf_tx_232[TR_OP_DATA+C1_DATA];        // âűőîäíîé áóôĺđ
   5683             mobus.point_in = & buf_rx_ppp[offset+C1_DATA+8];         // âőîäíîé áóôĺđ ń ěîäáŕń ďŕęĺňîě
   5684             mobus.index_elam =0;                                     // číäĺęń î÷ĺđĺäíîăî číęŕďńóëčđîâŕííîăî ĺëŕě ďŕęĺňŕ
   5685             mobus.flag_elam=0;
   5686             mobus.count_in_elam=length-10;
   5687           
   5688          //
   5689          //
   5690          //
   5691          //
   5692          next_elam:
   5693                      if ( (  * (  mobus.point_in +  mobus.index_elam) & 0xf8) !=0xf8) goto ne_elam;
   5694                       mobus.flag_elam=1;
   5695                      switch (* ( mobus.point_in +  mobus.index_elam + 2))
   5696                          {
   5697                          case 1:
   5698                          case 3:
   5699                          case 4:
   5700                          case 5:
   5701                          case 6:  mobus.size_of_pac=7;break;
   5702                          case 16:  mobus.size_of_pac=8 + *( mobus.point_in +  mobus.index_elam + 7);break;
   5703                          default : {respons();return;}
   5704                          }
   5705                          if ( mobus.count_in_elam < ( mobus.index_elam +  mobus.size_of_pac + 2) )  {respons();return;}
   5706                         
   5707                         
   5708          // ďđîâĺđęŕ ôđŕăěĺíňŕ íŕ CRC
   5709           mobus.modbus_crc_new=crc_m1(mobus.point_in + mobus.index_elam, size_of_pac , 0xffff);
   5710                       if(mobus.modbus_crc_new!=(  (  (unsigned int)( * (mobus.point_in + mobus.index_elam + mobus.size_of_pac) )<<8)
   5711                                       + (   unsigned int)( * (mobus.point_in + mobus.index_elam+size_of_pac + 1) ) )  )     {respons();return;}
   5712          
   5713                         
   5714                         
   5715                         //zapoln_otvet_elam();
   5716                         goto Performance;
   5717          FinitaPerformance:
   5718                         mobus.index_elam=mobus.index_elam + mobus.size_of_pac + 2;
   5719                         if (mobus.count_in_elam > mobus.index_elam ) goto next_elam;
   5720                         respons();
   5721                         return;
   5722          
   5723          ne_elam:
   5724                        if ( mobus.flag_elam==1)  {respons();return;}
   5725                        // ýňî îäčíî÷íűé ďŕęĺň
   5726                         
   5727           mobus.modbus_crc_new=crc_m1(mobus.point_in, mobus.count_in_elam-2,0xffff);
   5728           
   5729                        
   5730                          
   5731                          
   5732           
   5733                       if(mobus.modbus_crc_new!=(  (  (unsigned int)( * (mobus.point_in + mobus.count_in_elam-2) )<<8)
   5734                                       + (   unsigned int)( * (mobus.point_in + mobus.count_in_elam-1) ) ) ) {
   5735                                       
   5736                                       respons();return;}
   5737                       
   5738                       
   5739                      
   5740                   //    zapoln_otvet_elam();
   5741                       mobus.flag_elam=0;
   5742                       goto Performance;
   5743                       respons();
   5744                       return; 
   5745                        
   5746                                      
   5747          }
   5748          
   5749          */
   5750          
   5751          
   5752          

   Maximum stack usage in bytes:

     Function                 CSTACK RSTACK
     --------                 ------ ------
     analiz_ppp_rx                0      3
       -> proc_ppp_packet         0      3
       -> proc_ppp_packet         0      3
     calc_crc_ip                  8      3
     calc_crc_udp_2              10      3
     com_disp                     6      3
       -> test_vzat               6      3
       -> test_snat               6      3
       -> test_alarm              6      3
       -> test_t_vhod             6      3
       -> test_t_vihod            6      3
     extract_all_tii_485          0      3
     extract_all_tit_485          0      3
     extract_tii_485              0      3
     extract_tit_485              0      3
     hash_tabletka2              10      3
       -> RdFromFleshToArr       10      3
     monitor_act_IPCP             2      3
       -> run_ipcp_act            2      3
     monitor_act_LCP              2      3
       -> run_lcp_act             2      3
     monitor_act_PAP              7      3
       -> RdFromFleshToArr        7      3
       -> RdFromFleshToArr        7      3
       -> RdFromFleshToArr        7      3
       -> RdFromFleshToArr        7      3
       -> RdFromFleshToArr        7      3
       -> RdFromFleshToArr        7      3
       -> RdFromFleshToArr        7      3
       -> RdFromFleshToArr        7      3
       -> RdFromFleshToArr        7      3
       -> RdFromFleshToArr        7      3
       -> pppfcs16                7      3
       -> check_cts               7      3
     monitor_event_IPCP           4      3
       -> prov_uk_in_ipcp         4      3
       -> prov_uk_in_ipcp         4      3
       -> prov_uk_in_ipcp         4      3
       -> prov_uk_in_ipcp         4      3
       -> prov_uk_in_ipcp         4      3
       -> prov_uk_in_ipcp         4      3
       -> prov_uk_in_ipcp         4      3
       -> prov_uk_in_ipcp         4      3
       -> prov_uk_in_ipcp         4      3
       -> prov_uk_in_ipcp         4      3
       -> prov_uk_in_ipcp         4      3
       -> prov_uk_in_ipcp         4      3
       -> prov_uk_in_ipcp         4      3
       -> prov_uk_in_ipcp         4      3
     monitor_event_LCP            4      3
       -> prov_uk_in              4      3
       -> prov_uk_in              4      3
       -> prov_uk_in              4      3
       -> prov_uk_in              4      3
       -> prov_uk_in              4      3
       -> prov_uk_in              4      3
       -> prov_uk_in              4      3
       -> prov_uk_in              4      3
       -> prov_uk_in              4      3
       -> prov_uk_in              4      3
       -> prov_uk_in              4      3
       -> prov_uk_in              4      3
       -> prov_uk_in              4      3
       -> prov_uk_in              4      3
       -> prov_uk_in              4      3
       -> prov_uk_in              4      3
       -> prov_uk_in              4      3
       -> prov_uk_in              4      3
       -> prov_uk_in              4      3
       -> prov_uk_in              4      3
       -> prov_uk_in              4      3
       -> prov_uk_in              4      3
     monitor_event_PAP            0      3
     null_all_tii_485             0      3
     null_tii_485                 0      3
     pppfcs16                     0      3
     proc_kamintel                4      3
       -> crc_485                 4      3
       -> null_tii_485            4      3
       -> extract_tit_485         4      3
       -> extract_tii_485         4      3
       -> tc_485                  4      3
       -> null_all_tii_485        4      3
       -> extract_all_tii_485     4      3
       -> extract_all_tit_485     4      3
       -> com_disp                4      3
       -> w_in_out_485            4      3
       -> r_in_out_485            4      3
       -> crc_485                 4      3
     proc_modbus                  6      3
       -> crc_m1                  6      3
       -> swap                    6      3
       -> swap                    6      3
       -> swap                    6      3
       -> swap                    6      3
       -> swap                    6      3
       -> swap                    6      3
       -> swap                    6      3
       -> swap                    6      3
       -> swap                    6      3
       -> swap                    6      3
       -> swap                    6      3
       -> swap                    6      3
       -> swap                    6      3
       -> swap                    6      3
     proc_option                 16      6
       -> write_log_info         16      3
       -> lock_it                16      3
       -> write_log_info         16      3
       -> lock_it                16      3
       -> write_log_info         16      3
       -> lock_it                16      3
     proc_paging                  0      3
     proc_ppp_packet             15      3
       -> pppfcs16               15      3
       -> calc_crc_ip            15      3
       -> calc_crc_udp_2         15      3
       -> proc_udp_data          15      3
     proc_udp_data               88      3
       -> transform_buf          88      3
       -> crc_m1                 88      3
       -> proc_option            88      3
       -> send_size_pg           88      3
       -> send_info              88      3
       -> clr_cntr_nat           88      3
       -> send_info              88      3
       -> send_info              88      3
       -> send_info              88      3
       -> send_err485            88      3
       -> check_cont_485_1       88      3
       -> send_info              88      3
       -> send_err485            88      3
       -> send_info              88      3
       -> send_err485            88      3
       -> send_info              88      3
       -> send_err485            88      3
       -> proc_option            88      3
       -> send_no_sinc           88      3
       -> send_no_sinc           88      3
       -> send_info              88      3
       -> send_err485            88      3
       -> send_info              88      3
       -> send_err485            88      3
       -> check_cont_485_1       88      3
       -> send_info              88      3
       -> send_err485            88      3
       -> send_info              88      3
       -> send_err485            88      3
       -> send_info              88      3
       -> send_err485            88      3
       -> proc_option            88      3
       -> send_info              88      3
       -> send_err485            88      3
       -> send_info              88      3
       -> send_err485            88      3
       -> check_cont_485_1       88      3
       -> send_info              88      3
       -> send_err485            88      3
       -> send_info              88      3
       -> send_err485            88      3
       -> send_info              88      3
       -> send_err485            88      3
       -> proc_option            88      3
       -> send_info              88      3
       -> clr_cntr_nat           88      3
       -> clr_cntr_link          88      3
       -> burst_ds_r             88      3
       -> send_info              88      3
       -> form_buf_tx_ppp        88      3
       -> check_cts              88      3
       -> check_ln_conf          88      3
       -> WrArrayToFlesh         88      3
       -> RdFromFleshToArr       88      3
       -> proc_config            88      3
       -> clr_cntr_nat           88      3
       -> clr_cntr_link          88      3
       -> send_info              88      3
       -> form_buf_tx_ppp        88      3
       -> RdFromFleshToArr       88      3
       -> crc_ozu                88      3
       -> check_cts              88      3
       -> proc_option            88      3
       -> proc_paging            88      3
       -> send_no_sinc           88      3
       -> send_no_sinc           88      3
       -> move_to_saver          88      3
       -> boot_HUGE              88      3
       -> pop_from_saver         88      3
       -> move_to_saver          88      3
       -> r_p_flash              88      3
       -> pop_from_saver         88      3
       -> crc_m1                 88      3
       -> clr_cntr_nat           88      3
       -> clr_cntr_link          88      3
       -> send_info              88      3
       -> form_buf_tx_ppp        88      3
       -> check_cts              88      3
       -> delay                  88      3
       -> WrArrayToFlesh         88      3
       -> RdFromFleshToArr       88      3
       -> crc_m1                 88      3
       -> WrArrayToFlesh         88      3
       -> send_info              88      3
       -> reload_apl_HUGE        88      3
       -> proc_kamintel          88      3
       -> clr_cntr_nat           88      3
       -> clr_cntr_link          88      3
       -> clr_cntr_nat           88      3
       -> clr_cntr_link          88      3
       -> crc_m1                 88      3
       -> crc_m1                 88      3
       -> crc_m1                 88      3
       -> send_err485            88      3
       -> burst_ds_r             88      3
       -> RdFromFleshToArr       88      3
       -> swap                   88      3
       -> hash_tabletka2         88      3
       -> WrArrayToFlesh         88      3
       -> RdFromFleshToArr       88      3
       -> RdFromFleshToArr       88      3
       -> RdFromFleshToArr       88      3
       -> swap                   88      3
       -> RdFromFleshToArr       88      3
       -> swap                   88      3
       -> RdFromFleshToArr       88      3
       -> swap                   88      3
       -> RdFromFleshToArr       88      3
       -> swap                   88      3
       -> swap                   88      3
       -> swap                   88      3
       -> swap                   88      3
       -> swap                   88      3
       -> swap                   88      3
       -> swap                   88      3
       -> swap                   88      3
       -> swap                   88      3
       -> swap                   88      3
       -> swap                   88      3
       -> swap                   88      3
       -> RdFromFleshToArr       88      3
       -> swap                   88      3
       -> RdFromFleshToArr       88      3
       -> swap                   88      3
       -> swap                   88      3
       -> swap                   88      3
       -> RdFromFleshToArr       88      3
       -> swap                   88      3
       -> RdFromFleshToArr       88      3
       -> swap                   88      3
       -> RdFromFleshToArr       88      3
       -> swap                   88      3
       -> RdFromFleshToArr       88      3
       -> swap                   88      3
       -> RdFromFleshToArr       88      3
       -> swap                   88      3
       -> crc_m1                 88      3
       -> crc_m1                 88      3
       -> com_disp_mbus          88      3
       -> crc_m1                 88      3
       -> WrArrayToFlesh         88      3
       -> RdFromFleshToArrInt    88      3
       -> func_crc_tii           88      3
       -> RdFromFleshToArr       88      3
       -> WrArrayToFlesh         88      3
       -> RdFromFleshToArr       88      3
       -> refresh_a              88      3
       -> WrArrayToFlesh         88      3
       -> RdFromFleshToArrInt    88      3
       -> WrArrayToFlesh         88      3
       -> RdFromFleshToArr       88      3
       -> WrArrayToFlesh         88      3
       -> burst_ds_r             88      3
       -> set_rlt                88      3
       -> burst_ds_r             88      3
       -> crc_m1                 88      3
       -> burst_ds_r             88      3
       -> RdFromFleshToArr       88      3
       -> swap                   88      3
       -> swap                   88      3
       -> WrArrayToFlesh         88      3
       -> swap                   88      3
       -> WrArrayToFlesh         88      3
       -> RdFromFleshToArrInt    88      3
       -> swap                   88      3
       -> swap                   88      3
       -> swap                   88      3
       -> swap                   88      3
       -> swap                   88      3
       -> swap                   88      3
       -> swap                   88      3
       -> swap                   88      3
       -> swap                   88      3
       -> swap                   88      3
       -> WrArrayToFlesh         88      3
       -> swap                   88      3
       -> WrArrayToFlesh         88      3
       -> RdFromFleshToArr       88      3
       -> swap                   88      3
       -> WrArrayToFlesh         88      3
       -> swap                   88      3
       -> WrArrayToFlesh         88      3
       -> RdFromFleshToArrInt    88      3
       -> swap                   88      3
       -> WrArrayToFlesh         88      3
       -> swap                   88      3
       -> WrArrayToFlesh         88      3
       -> RdFromFleshToArr       88      3
       -> swap                   88      3
       -> WrArrayToFlesh         88      3
       -> swap                   88      3
       -> WrArrayToFlesh         88      3
       -> swap                   88      3
       -> swap                   88      3
       -> swap                   88      3
       -> swap                   88      3
       -> swap                   88      3
       -> swap                   88      3
       -> set_rlt                88      3
       -> burst_ds_r             88      3
       -> func_crc_tii           88      3
       -> send_info              88      3
       -> form_buf_tx_ppp        88      3
       -> check_cts              88      3
     prov_uk_in                   0      3
     prov_uk_in_ipcp              0      3
     r_in_out_485                 0      3
       -> RdFromFleshToArrInt     0      3
     run_ipcp_act                 6      3
       -> clr_cntr_nat            6      3
       -> pppfcs16                6      3
       -> pppfcs16                6      3
       -> check_cts               6      3
       -> pppfcs16                6      3
       -> check_cts               6      3
       -> pppfcs16                6      3
       -> check_cts               6      3
       -> pppfcs16                6      3
       -> check_cts               6      3
     run_lcp_act                  6      3
       -> pppfcs16                6      3
       -> pppfcs16                6      3
       -> check_cts               6      3
       -> pppfcs16                6      3
       -> check_cts               6      3
       -> pppfcs16                6      3
       -> check_cts               6      3
       -> pppfcs16                6      3
       -> check_cts               6      3
     send_no_sinc                 4      3
       -> clr_cntr_nat            4      3
       -> clr_cntr_link           4      3
       -> form_buf_tx_ppp         4      3
       -> check_cts               4      3
     send_size_pg                 4      3
       -> clr_cntr_nat            4      3
       -> clr_cntr_link           4      3
       -> form_buf_tx_ppp         4      3
       -> check_cts               4      3
     send_terminate_lcp           4      3
       -> pppfcs16                4      3
     swap                         0      3
     tc_485                       2      3
       -> read_ohr                2      3
     w_in_out_485                 0      3
       -> WrArrayToFlesh          0      3
       -> RdFromFleshToArrInt     0      3


   Segment part sizes:

     Function/Label      Bytes
     --------------      -----
     _A_UDR3                1
     _A_UDR0                1
     _A_UCSR0B              1
     _A_UCSR0A              1
     _A_WDTCSR              1
     _A_SREG                1
     _A_EIND                1
     _A_RAMPZ               1
     _A_PORTC               1
     _A_PORTA               1
     swap                   8
     new_version          119
     cnt_lcp_tm_out        63
     pagee                  2
     array_in_232           2
     off_buf                1
     total_kol_page         2
     contr_gluk1            1
     contr_gluk2            1
     saver_global_var       2
     Obj_ppp_tx            42
     fl_lcp1                2
     ip_pri_dns            63
     cnt_rst_lcp            1
     vol_cnt_rst_lcp        1
     cnt_rst_pap            1
     cnt_pap_tm_out         2
     cnt_ip_tm_cntr         4
     i_scj_lcp              1
     i_str_lcp              1
     i_sta_lcp              1
     i_scj_ipcp             1
     i_str_ipcp             1
     i_sta_ipcp             1
     buf_rejc_opt_lcp      34
     buf_nak_opt_lcp       56
     buf_rejc_opt_ipcp     31
     buf_nak_opt_ipcp      50
     fcstab               512
     hash_tabletka2        72
     ?Subroutine277         6
     ?Subroutine8           6
     ?Subroutine38         16
     ?Subroutine287         6
     ?Subroutine7          14
     ?Subroutine9           4
     prov_uk_in            32
     ?Subroutine57         12
     ?Subroutine55          6
     prov_uk_in_ipcp       30
     pppfcs16              48
     send_terminate_lcp   112
     ?Subroutine80         10
     ?Subroutine91          8
     ?Subroutine289        12
     ?Subroutine69          6
     ?Subroutine53         26
     ?Subroutine93          6
     ?Subroutine62          6
     ?Subroutine248        38
     ?Subroutine85         32
     run_lcp_act          408
     ?Subroutine151        10
     ?Subroutine133        10
     ?Subroutine117        12
     ?Subroutine71         32
     ?Subroutine51         56
     ?Subroutine4          52
     ?Subroutine288         4
     ?Subroutine87          6
     ?Subroutine86          6
     ?Subroutine107        12
     ?Subroutine106        14
     ?Subroutine78         12
     ?Subroutine74         12
     ?Subroutine46         12
     ?Subroutine90          4
     ?Subroutine249        28
     ?Subroutine278         8
     ?Subroutine328         4
     monitor_act_PAP      334
     ?Subroutine168         8
     ?Subroutine43         66
     ?Subroutine39         12
     ?Subroutine26         12
     ?Subroutine258         6
     ?Subroutine25         16
     ?Subroutine20         24
     ?Subroutine267         4
     ?Subroutine19         38
     ?Subroutine32         36
     ?Subroutine45          4
     ?Subroutine298         4
     ?Subroutine171         2
     ?Subroutine271         4
     ?Subroutine119         8
     ?Subroutine40          4
     ?Subroutine138         8
     monitor_event_PAP    128
     ?Subroutine174        14
     monitor_act_LCP       44
     ?Subroutine132        32
     monitor_event_LCP    264
     ?Subroutine115        14
     ?Subroutine95          8
     ?Subroutine72          4
     ?Subroutine268         4
     ?Subroutine41         36
     ?Subroutine279         4
     ?Subroutine176         6
     run_ipcp_act         608
     ?Subroutine118         8
     ?Subroutine269         4
     ?Subroutine59         24
     ?Subroutine44         66
     ?Subroutine17          4
     ?Subroutine5          40
     ?Subroutine270         4
     ?Subroutine308         4
     ?Subroutine307         4
     ?Subroutine177         4
     ?Subroutine136         6
     ?Subroutine128         6
     ?Subroutine265         6
     monitor_act_IPCP      44
     monitor_event_IPCP   256
     ?Subroutine280         2
     ?Subroutine131         4
     ?Subroutine99         10
     ?Subroutine97         26
     ?Subroutine73          6
     ?Subroutine100         6
     ?Subroutine181         6
     calc_crc_ip           94
     ?Subroutine192        10
     ?Subroutine254         8
     ?Subroutine185        12
     ?Subroutine137        28
     ?Subroutine134        14
     calc_crc_udp_2       152
     ?Subroutine188        12
     ?Subroutine187         6
     ?Subroutine31         18
     proc_ppp_packet     1302
     ?Subroutine199         6
     ?Subroutine197         8
     ?Subroutine150        10
     ?Subroutine122         6
     ?Subroutine103         8
     ?Subroutine102         8
     ?Subroutine101         8
     ?Subroutine98         36
     ?Subroutine96         20
     ?Subroutine61          8
     ?Subroutine37         12
     ?Subroutine259         6
     ?Subroutine6          42
     ?Subroutine121         2
     ?Subroutine272         4
     send_no_sinc          48
     ?Subroutine83         86
     ?Subroutine65         50
     ?Subroutine54          8
     ?Subroutine302         4
     ?Subroutine299         4
     proc_paging          128
     ?Subroutine205         6
     ?Subroutine204         6
     ?Subroutine304         4
     ?Subroutine303         4
     proc_option          666
     ?Subroutine281         6
     ?Subroutine207         6
     ?Subroutine159         2
     ?Subroutine255         8
     ?Subroutine157        12
     ?Subroutine156         2
     ?Subroutine256         8
     ?Subroutine126        10
     ?Subroutine123         8
     ?Subroutine120        12
     ?Subroutine104         6
     ?Subroutine273         4
     ?Subroutine206         6
     ?Subroutine180         8
     ?Subroutine264         6
     ?Subroutine113        10
     send_size_pg          56
     ?Subroutine327         4
     ?Subroutine326         4
     ?Subroutine325         4
     ?Subroutine324         4
     ?Subroutine323         4
     ?Subroutine322         4
     ?Subroutine321         4
     ?Subroutine320         4
     ?Subroutine319         2
     ?Subroutine318         4
     ?Subroutine317         4
     ?Subroutine316         4
     ?Subroutine315         4
     ?Subroutine314         4
     ?Subroutine313         4
     ?Subroutine312         4
     ?Subroutine311         4
     ?Subroutine310         4
     ?Subroutine309         4
     ?Subroutine306         4
     ?Subroutine305         4
     ?Subroutine301         4
     ?Subroutine300         4
     ?Subroutine297         4
     ?Subroutine296         4
     ?Subroutine295         4
     proc_udp_data       5532
     ?Subroutine294         2
     ?Subroutine293         2
     ?Subroutine292         4
     ?Subroutine291         4
     ?Subroutine245        14
     ?Subroutine274         4
     ?Subroutine244         6
     ?Subroutine243        10
     ?Subroutine242        10
     ?Subroutine241         8
     ?Subroutine240         6
     ?Subroutine239        10
     ?Subroutine238         8
     ?Subroutine237        10
     ?Subroutine236        10
     ?Subroutine235        16
     ?Subroutine260         6
     ?Subroutine233        16
     ?Subroutine232        10
     ?Subroutine231         2
     ?Subroutine261         6
     ?Subroutine230         2
     ?Subroutine262         6
     ?Subroutine229         8
     ?Subroutine228         8
     ?Subroutine227        20
     ?Subroutine226        20
     ?Subroutine257         8
     ?Subroutine253        10
     ?Subroutine222        10
     ?Subroutine220        10
     ?Subroutine219         6
     ?Subroutine218         8
     ?Subroutine217         8
     ?Subroutine216        10
     ?Subroutine215         6
     ?Subroutine214         4
     ?Subroutine283         8
     ?Subroutine212        10
     ?Subroutine211        10
     ?Subroutine210        12
     ?Subroutine284         4
     ?Subroutine208         6
     ?Subroutine203        10
     ?Subroutine202        10
     ?Subroutine201         8
     ?Subroutine196         6
     ?Subroutine195         4
     ?Subroutine263         6
     ?Subroutine194        10
     ?Subroutine193        10
     ?Subroutine191        10
     ?Subroutine190        18
     ?Subroutine189        12
     ?Subroutine184        34
     ?Subroutine285         6
     ?Subroutine182        14
     ?Subroutine173        10
     ?Subroutine172        12
     ?Subroutine170        14
     ?Subroutine169        20
     ?Subroutine167         6
     ?Subroutine286         2
     ?Subroutine166        10
     ?Subroutine164        10
     ?Subroutine163        10
     ?Subroutine162         8
     ?Subroutine160         6
     ?Subroutine158         6
     ?Subroutine155        18
     ?Subroutine154         6
     ?Subroutine153        38
     ?Subroutine152        14
     ?Subroutine148        10
     ?Subroutine147        10
     ?Subroutine146        12
     ?Subroutine145        18
     ?Subroutine144        16
     ?Subroutine143        16
     ?Subroutine282         4
     ?Subroutine142        18
     ?Subroutine141        18
     ?Subroutine140         4
     ?Subroutine139        16
     ?Subroutine135        10
     ?Subroutine130         6
     ?Subroutine127        14
     ?Subroutine276         4
     ?Subroutine125        14
     ?Subroutine124         6
     ?Subroutine116         6
     ?Subroutine114        12
     ?Subroutine110        10
     ?Subroutine250        16
     ?Subroutine109        14
     ?Subroutine108        12
     ?Subroutine105         8
     ?Subroutine94        138
     ?Subroutine92         14
     ?Subroutine88         14
     ?Subroutine81         20
     ?Subroutine79         36
     ?Subroutine75         24
     ?Subroutine70         10
     ?Subroutine68         12
     ?Subroutine66         70
     ?Subroutine64         74
     ?Subroutine63         78
     ?Subroutine60          4
     ?Subroutine56         16
     ?Subroutine49         50
     ?Subroutine48          4
     ?Subroutine275         4
     ?Subroutine47         26
     ?Subroutine36         10
     ?Subroutine35         20
     ?Subroutine34         18
     ?Subroutine33         18
     ?Subroutine30         12
     ?Subroutine28         10
     ?Subroutine27         10
     ?Subroutine24         10
     ?Subroutine23         12
     ?Subroutine21         18
     ?Subroutine18         16
     ?Subroutine16         30
     ?Subroutine247        36
     ?Subroutine15         22
     ?Subroutine290         6
     ?Subroutine14         24
     ?Subroutine13         24
     ?Subroutine12         24
     ?Subroutine11         24
     ?Subroutine10         24
     ?Subroutine3          68
     ?Subroutine2          98
     ?Subroutine1          58
     ?Subroutine0          80
     ?Subroutine221         6
     ?Subroutine252        12
     ?Subroutine50         16
     ?Subroutine29         16
     ?Subroutine22         12
     ?Subroutine198         6
     ?Subroutine175         4
     analiz_ppp_rx         82
     ?Subroutine82         10
     null_tii_485          42
     ?Subroutine246        12
     ?Subroutine251        12
     extract_tit_485       22
     ?Subroutine266         6
     ?Subroutine76         20
     ?Subroutine67         12
     extract_tii_485       28
     tc_485                54
     null_all_tii_485      64
     ?Subroutine42          4
     extract_all_tii_485   18
     ?Subroutine200        14
     extract_all_tit_485   18
     com_disp             116
     w_in_out_485          32
     r_in_out_485          12
     proc_kamintel        178
     ?Subroutine58          6
     proc_modbus          240
     ?Subroutine161        10
     ?Subroutine112         8
     ?Subroutine111        34
      Others                7

 
     19 bytes in segment ABSOLUTE
 15 544 bytes in segment FARCODE
      7 bytes in segment INITTAB
      2 bytes in segment MY_STACK1
    631 bytes in segment NEAR_F
    356 bytes in segment NEAR_Z
 
 16 175 bytes of CODE memory (+  7 bytes shared)
    358 bytes of DATA memory (+ 19 bytes shared)

Errors: none
Warnings: 1
