##############################################################################
#                                                                            #
#                                                      28/Sep/2007  13:27:26 #
# IAR Atmel AVR C/C++ Compiler V4.12A/W32, Evaluation Version                #
# Copyright 1996-2005 IAR Systems. All rights reserved.                      #
#                                                                            #
#    Source file  =  D:\PRJIAR\NSS270907\KP7(270907)\fppp1.c                 #
#    Command line =  "D:\PRJIAR\NSS270907\KP7(270907)\fppp1.c" --cpu=m1280   #
#                    -ms -o "D:\PRJIAR\NSS270907\KP7(270907)\Debug\Obj\"     #
#                    -lCN "D:\PRJIAR\NSS270907\KP7(270907)\Debug\List\" -lA  #
#                    "D:\PRJIAR\NSS270907\KP7(270907)\Debug\List\" -y        #
#                    --initializers_in_flash -z6 --no_inline                 #
#                    --no_cross_call --no_tbaa --debug -e -I "D:\Program     #
#                    Files\IAR Systems\Embedded Workbench 4.0                #
#                    Evaluation\avr\INC\" -I "D:\Program Files\IAR           #
#                    Systems\Embedded Workbench 4.0                          #
#                    Evaluation\avr\INC\DLIB\" --eeprom_size 4096            #
#                    --dlib_config "D:\Program Files\IAR Systems\Embedded    #
#                    Workbench 4.0 Evaluation\avr\LIB\DLIB\dlAVR-3s-ec-n.h"  #
#    List file    =  D:\PRJIAR\NSS270907\KP7(270907)\Debug\List\fppp1.lst    #
#    Object file  =  D:\PRJIAR\NSS270907\KP7(270907)\Debug\Obj\fppp1.r90     #
#                                                                            #
#                                                                            #
##############################################################################

D:\PRJIAR\NSS270907\KP7(270907)\fppp1.c
      1          #include <iom1280.h> 

   \                                 In segment ABSOLUTE, at 0x136
   \   union <unnamed> volatile __ext_io _A_UDR3
   \                     _A_UDR3:
   \   00000000                      DS 1

   \                                 In segment ABSOLUTE, at 0xc6
   \   union <unnamed> volatile __io _A_UDR0
   \                     _A_UDR0:
   \   00000000                      DS 1

   \                                 In segment ABSOLUTE, at 0xc1
   \   union <unnamed> volatile __io _A_UCSR0B
   \                     _A_UCSR0B:
   \   00000000                      DS 1

   \                                 In segment ABSOLUTE, at 0xc0
   \   union <unnamed> volatile __io _A_UCSR0A
   \                     _A_UCSR0A:
   \   00000000                      DS 1

   \                                 In segment ABSOLUTE, at 0x60
   \   union <unnamed> volatile __io _A_WDTCSR
   \                     _A_WDTCSR:
   \   00000000                      DS 1

   \                                 In segment ABSOLUTE, at 0x5f
   \   union <unnamed> volatile __io _A_SREG
   \                     _A_SREG:
   \   00000000                      DS 1

   \                                 In segment ABSOLUTE, at 0x5b
   \   union <unnamed> volatile __io _A_RAMPZ
   \                     _A_RAMPZ:
   \   00000000                      DS 1

   \                                 In segment ABSOLUTE, at 0x28
   \   union <unnamed> volatile __io _A_PORTC
   \                     _A_PORTC:
   \   00000000                      DS 1
      2          #include <inavr.h>
      3          #include "dfpin.h"
      4          #include "dfproc.h"
      5          #include "def_prot.h"
      6          #include "def_conf.h"
      7          #include "map_ef.h"
      8          #include "ozu_map.h"
      9          #include "def_at.h"
     10          #include "def_link.h"
     11          #include "dfcnst.h"
     12          
     13          
     14          #define C_GLUK1    0x55   
     15          #define C_GLUK2    0xaa
     16          
     17          void  transform_buf(unsigned char *p,unsigned int kol_byte,unsigned int s_rand);
     18          
     19          
     20          void boot(void);
     21          void r_p_flash(unsigned int adress);
     22          void reload_apl (void);
     23          
     24          void send_info(char size,char __flash *p,unsigned char fl_id,unsigned char id);
     25          

   \                                 In segment NEAR_F, align 1, keep-with-next
     26          __flash char evc_rld[]=            {'E','V','C',':','r','l','d'};
   \                     evc_rld:
   \   00000000   56453A436C72       DB 69, 86, 67, 58, 114, 108, 100
   \              64          
     27          
     28          __flash char rec_ctrl_ch[]=             {'R','E','C',':','c','t','r','l',' ','c','h'};
   \                     rec_ctrl_ch:
   \   00000007   45523A437463       DB 82, 69, 67, 58, 99, 116, 114, 108, 32, 99, 104
   \              6C72632068  
     29          __flash char rec_evc[]=             {'R','E','C',':','e','v','c'};
   \                     rec_evc:
   \   00000012   45523A437665       DB 82, 69, 67, 58, 101, 118, 99
   \              63          
     30          
     31          __flash char ans_in_ctrl_cl[]={'A','N','S','-','<','c','t','r','l',' ','c','l'};
   \                     ans_in_ctrl_cl:
   \   00000019   4E412D53633C       DB 65, 78, 83, 45, 60, 99, 116, 114, 108, 32, 99, 108
   \              7274206C6C63
     32          
     33          
     34          /*
     35          __flash char req_in_485_1[]={'R','E','Q','-','<','4','8','5','_','1'};
     36          __flash char req_in_485_2[]={'R','E','Q','-','<','4','8','5','_','2'};
     37          __flash char req_in_232[]={'R','E','Q','-','<','2','3','2'};
     38          __flash char req_in_st_contr[]={'R','E','Q','-','<','s','t',' ','c','o','n','t','r'};
     39          __flash char req_in_config[]={'R','E','Q','-','<','c','o','n','f','i','g'};
     40          __flash char req_in_prog[]={'R','E','Q','-','<','p','r','o','g'};
     41          */
     42          
     43          __flash char ans_out_485_1[]={'A','N','S','-','>','4','8','5','_','1'};
   \                     ans_out_485_1:
   \   00000025   4E412D53343E       DB 65, 78, 83, 45, 62, 52, 56, 53, 95, 49
   \              3538315F    
     44          __flash char ans_out_485_2[]={'A','N','S','-','>','4','8','5','_','2'};
   \                     ans_out_485_2:
   \   0000002F   4E412D53343E       DB 65, 78, 83, 45, 62, 52, 56, 53, 95, 50
   \              3538325F    
     45          __flash char ans_out_232[]={'A','N','S','-','>','2','3','2'};
   \                     ans_out_232:
   \   00000039   4E412D53323E       DB 65, 78, 83, 45, 62, 50, 51, 50
   \              3233        
     46          __flash char ans_out_st_contr[]={'A','N','S','-','>','s','t',' ','c','o','n','t','r'};
   \                     ans_out_st_contr:
   \   00000041   4E412D53733E       DB 65, 78, 83, 45, 62, 115, 116, 32, 99, 111, 110, 116, 114
   \              20746F63746E
   \              72          
     47          __flash char ans_out_config[]={'A','N','S','-','>','c','o','n','f','i','g'};
   \                     ans_out_config:
   \   0000004E   4E412D53633E       DB 65, 78, 83, 45, 62, 99, 111, 110, 102, 105, 103
   \              6E6F696667  
     48          __flash char ans_out_prog[]={'A','N','S','-','>','p','r','o','g'};
   \                     ans_out_prog:
   \   00000059   4E412D53703E       DB 65, 78, 83, 45, 62, 112, 114, 111, 103
   \              6F7267      
     49          
     50          //__flash char ans_out_ping[]={'A','N','S','-','>','p','i','n','g'};
     51          
     52          
     53          //#include "sec.h"
     54          
     55          //enum t_version {VER1 = 1 ,VER2,VER3,VER4};
     56          //enum t_type {ZAPR,OTV,SOOB,KVIT};
     57          extern unsigned char simka; //dobavka
     58          
     59          extern unsigned int num_self,num_seq_cl,port_udp;
     60          extern unsigned char ip_ls[4]; 
     61          
     62          
     63          extern unsigned long int cnt_no_link, vol_cnt_no_link;//dobavka
     64          
     65          void delay(unsigned int period);
     66          extern unsigned long int burst_ds_r(void);
     67          unsigned int proc_config(unsigned char *buf_rx_ppp,unsigned char offset,unsigned int count_rx_ppp);
     68          unsigned char check_ln_conf(unsigned char *buf_rx_ppp,unsigned char offset,unsigned int count_rx_ppp);
     69          unsigned char check_cont_485_1 (unsigned char *pointer);
     70          unsigned char check_cont_485_2 (unsigned char *pointer);
     71          
     72          extern unsigned char Regim;
     73          unsigned char proc_udp_data(unsigned char *buf_rx_ppp,unsigned int count_rx_ppp);
     74          unsigned int crc_m1(unsigned char *ka,unsigned int num,unsigned int crc);
     75          unsigned int crc_ozu(void);
     76          extern unsigned int prov_ozu;
     77          
     78          void clr_cntr_nat(void);
     79          void form_buf_tx_ppp(void);
     80          
     81          unsigned char check_cts(void);
     82          void clr_cntr_link(void);
     83          
     84          void RdFromFleshToArr(unsigned int adres_flesh, unsigned char *adres_ozu,unsigned int num);
     85          void WrArrayToFlesh(unsigned int adres_flesh,  unsigned char *adres_ozu, unsigned int num,unsigned char flag,unsigned char znach);
     86          
     87          void send_err485(unsigned char port,unsigned char err,unsigned char id,unsigned int dst);
     88          
     89          
     90          extern unsigned char point_log_buf;
     91          
     92            struct
     93            {
     94            unsigned char  ip         :1;
     95            unsigned char  udp        :1;
     96            unsigned char  num_self   :1;
     97            unsigned char cnt_reset;

   \                                 In segment NEAR_Z, align 1, keep-with-next
   \   00000000                      REQUIRE `?<Segment init: NEAR_Z>`
     98            }fl_rewrite;
     99          
    100          ///!!!!!!!!!!!!!!!!!!!!!!!!!!!!!!!!!!!для РРР
    101          extern  struct
    102           {
    103            unsigned char data[VOL_RX_PPP];//сам буфер
    104            unsigned int ln_data;  // длина данных
    105            enum bool rec; // пакет принят
    106            enum bool busy;// буфер занят
    107            enum bool check_busy;// проверка занят ли буфер
    108           }Buf1_rx_ppp,Buf2_rx_ppp; // 
    109          
    110          
    111          
    112          
    113          extern enum t_event_modem event_modem;
    114          
    115          extern unsigned char buf_tx_232[VOL_TX_PPP];
    116          extern unsigned int count_tx_ppp,vol_tx_ppp;
    117          extern unsigned char layer_PPP;
    118          
    119          struct
    120           {
    121            unsigned char act_lcp_end :1;  
    122            unsigned char lcp_tm_out_en :1;
    123            unsigned char t0_pl:1;
    124            unsigned char t0_mi:1;
    125           }fl_lcp; 
    126           
    127          
    128          struct
    129           {
    130            unsigned char act_ipcp_end :1;  
    131            unsigned char ipcp_tm_out_en :1;
    132            unsigned char t0_pl:1;
    133            unsigned char t0_mi:1;
    134           }fl_ipcp; 
    135          
    136          struct
    137           {
    138            unsigned char act_ip_end :1; 
    139            unsigned char ip_tm_cntr_en :1; 
    140            unsigned char ip_tm_nat_en :1;
    141           }fl_ip;
    142          
    143          
    144          
    145            
    146          struct
    147           {
    148            unsigned char act_pap_end :1;  
    149            unsigned char pap_tm_out_en:1;
    150            unsigned char t0_pl:1;
    151            unsigned char t0_mi:1;  
    152            unsigned char up: 1; 
    153           }fl_pap; 
    154          
    155          
    156           struct
    157           {
    158            unsigned char up :1;  
    159            unsigned char down :1;
    160           }fl_lcp1; 
    161          
    162          
    163          struct
    164           {
    165            unsigned char up :1;  
    166            unsigned char down :1;
    167           }fl_ipcp1;
    168           
    169           struct
    170           {
    171            unsigned char nac_rej :1; // reject - 1 
    172           }fl_lcp2;
    173             
    174           struct
    175           {
    176            unsigned char nac_rej :1; // reject - 1 
    177           }fl_ipcp2;
    178           
    179           
    180          
    181          unsigned char pap_act_buf,PAP_state,PAP_event;
    182          unsigned char LCP_state, LCP_event,LCP_act_buf[LCP_ACT_VOL];
    183          unsigned char IPCP_state, IPCP_event,IPCP_act_buf[IPCP_ACT_VOL];
    184          unsigned char uk_in_act_LCP,uk_out_act_LCP,uk_in_act_IPCP,uk_out_act_IPCP;
    185          
    186          unsigned char cnt_rst_lcp,vol_cnt_rst_lcp;
    187          unsigned char cnt_rst_ipcp,vol_cnt_rst_ipcp;                       
    188          unsigned char cnt_rst_pap,vol_cnt_rst_pap;       
    189                                
    190                                  
    191          unsigned int cnt_lcp_tm_out,cnt_ipcp_tm_out;
    192          unsigned int cnt_pap_tm_out;
    193          unsigned long int cnt_ip_tm_cntr;
    194          unsigned char rcvd_protokol;
    195          
    196          unsigned char  i_scr_lcp,i_scan_lcp;
    197          unsigned char  i_scj_lcp;//идентификаторы lcp
    198          unsigned char  i_str_lcp,i_sta_lcp;
    199           
    200          unsigned char  i_scr_ipcp,i_scan_ipcp;
    201          unsigned char  i_scj_ipcp;//идентификаторы ipcp
    202          unsigned char  i_str_ipcp,i_sta_ipcp; 
    203           
    204            
    205          unsigned char  i_scr_pap;
    206          
    207          
    208          unsigned char buf_rejc_opt_lcp[MAX_DL_LCP-6];
    209          unsigned char buf_ack_opt_lcp[MAX_DL_LCP-12];
    210          unsigned char buf_nak_opt_lcp[MAX_DL_LCP-12];
    211          unsigned char buf_rej_opt_lcp[MAX_DL_LCP-12];
    212          
    213          unsigned char buf_rejc_opt_ipcp[MAX_DL_IPCP-4];
    214          unsigned char buf_ack_opt_ipcp[MAX_DL_IPCP-10];
    215          unsigned char buf_nak_opt_ipcp[MAX_DL_IPCP-10];
    216          unsigned char buf_rej_opt_ipcp[MAX_DL_IPCP-10];
    217           
    218          
    219          unsigned char ln_rejc_lcp,ln_rej_lcp,ln_ack_lcp,ln_nak_lcp;
    220          
    221          unsigned char ln_rejc_ipcp,ln_rej_ipcp,ln_ack_ipcp,ln_nak_ipcp;
    222          
    223          
    224          extern struct                   //структура, описывающая объект передачи по PPP 
    225            {  
    226            enum bool link_no ; //связи нет
    227            enum bool link_waits; //ожидание квитка на контроль связи
    228            enum bool link;      //контроль связи    
    229            enum bool nat;      //контроль nat 
    230            unsigned int cnt_link; // счетчик
    231            unsigned int cnt_nat; // счетчик
    232            unsigned int vol_link; // значение  
    233            unsigned int vol_nat; // //значение 
    234            unsigned int vol_waits; // значение времени квитка ожидания контроля связи
    235            unsigned char cnt_try; // счетчик попыток получить квиток
    236            unsigned char vol_try; // rjkbxtcndj попыток получить квиток
    237            }Control;
    238          
    239           extern unsigned char ip_self[4];
    240           unsigned char ip_pri_dns[4],ip_sec_dns[4]; 
    241            //EEEEEEEEEEEEEEEEEEEEEEEEEEEEEEEEEEEEEEEEE 
    242          
    243           
    244           
    245           
    246             //!!!!!!!!!!!!!!!!!!!!!!!!!!!!!структуры приложения
    247          extern struct
    248          {
    249          unsigned char id;
    250          unsigned int p_in;// указатель свободной ячейки
    251          unsigned int p_out;
    252          unsigned int p_out_kv;
    253          unsigned int crc;
    254          unsigned int cnt_waits; // счетчик ожидания квитка
    255          unsigned char cnt_try; // счетчик попыток получить квиток 
    256          unsigned int l_data; // длина посылаемых данных
    257          unsigned char state;
    258          unsigned char event;
    259          unsigned int tm_vzat;
    260          unsigned int vol_tm_vzat;
    261          enum bool cntr_cl;
    262          enum bool en_cntr_cl;
    263          unsigned int cnt_cntr_cl;
    264          unsigned int vol_cntr_cl;
    265          }Appl_seq;
    266          
    267          extern unsigned char Appl_seq_des;
    268          extern unsigned char state_seq;
    269          
    270          
    271          
    272          extern struct
    273          {
    274          unsigned char en_tx :1;
    275          unsigned char kv_waits :1;
    276          unsigned char en_povtor:1;
    277          }fl_appl_seq;
    278          
    279          extern struct
    280          {
    281          unsigned char over_buf :1;
    282          unsigned char send_state :1;
    283          unsigned char enable:1; 
    284          }fl_appl_seq1; 
    285          
    286          
    287          extern unsigned char byte_state_net;
    288          
    289            //EEEEEEEEEEEEEEEEEEEEEEEEEEEEEEEEEEEEEEEEE
    290           
    291           unsigned int  delay_pre_tx;
    292           
    293           
    294          //!!!!!!!!!!!!!!!11удаленная загрузка 
    295          unsigned char off_buf,total_kol_page;
    296          unsigned int pagee;
    297          unsigned char contr_gluk1, contr_gluk2;
    298          unsigned char *array_in_232; 
    299          unsigned char reboot_byte;
    300           
    301           struct
    302           {
    303           unsigned char  end_pg      :1;// флаг последней страницы
    304           unsigned char  ch_crc      :1;// флаг проверки crc
    305           unsigned char  send_kv     :1;//флаг отсылки квитка
    306           unsigned char  cor_pg      :1;// флаг корректной страницы дальше
    307           unsigned char  first_pg    :1;//флаг первой страницы
    308           unsigned char  hold_pg     :1;// флаг захвата данных
    309           unsigned char  send_crc     :1;// флаг посылки опции СРС
    310           //unsigned char  yes_crc     :1;// верный crc
    311           }fl_pg_out;
    312           
    313           unsigned int pg_crc; //значение crc куска данных
    314           unsigned int cnt_pg;// реальный счетчик страниц
    315           unsigned char id_pg_kp;//циклический идентификатор страниц контроллера
    316           unsigned char id_pg_appl;//циклический идентификатор страниц верхнего приложения
    317           
    318           //EEEEEEEEEEEEEEEEEEEEEEEEEEEEEEEEEEE
    319           
    320           
    321          extern unsigned char Appl_RS485_1_data_buf[LN_BUF_485_1];// сам буфер
    322          extern unsigned char Appl_RS485_2_data_buf[LN_BUF_485_2];// сам буфер
    323          extern unsigned char Appl_RS232_2_data_buf[LN_BUF_232_2];// сам буфер
    324           
    325          extern struct                   //структура описывающая работу приложения "RS485_1" 
    326            {  
    327            enum bool fl_data_buf; //имеется ли забуферизированный пакет для передачи в порт RS485_1
    328            unsigned int ln_data_buf; // забуферизированная длина буфера
    329            unsigned int dst_buf; // забуферизированный получатель
    330            unsigned char cont_buf[8];// забуферизированный контекст
    331            unsigned char id_buf; // забуферизированный id
    332            unsigned int dst_tek;// текущий получатель
    333            unsigned char id_tek; // текущий id
    334            unsigned int pre_tx;//задержка перед передачей
    335            }Appl_RS485_1,Appl_RS485_2,Appl_RS232_2;
    336          
    337          /*  
    338          extern struct
    339           {
    340           unsigned char mon1 : 1;
    341           unsigned char mon2 : 1;
    342           } fl_tx485;
    343          */ 
    344          
    345          extern struct
    346           {
    347           unsigned char busy : 1;
    348           unsigned char rec : 1;
    349           unsigned char tm_out : 1;
    350           unsigned char tx : 1;
    351           unsigned char over : 1;
    352           unsigned char buffed : 1;
    353           }fl_485_1,fl_485_2,fl_232_2;
    354          
    355           
    356           
    357          
    358          
    359          
    360           struct                   //структура, описывающая объект передачи по PPP 
    361            {  
    362            enum bool prozr;      //версия       
    363            enum t_version version;      //версия 
    364            enum t_type   type_pac;     //тип пакета
    365            unsigned int num_src; // номер отправителя
    366            unsigned int num_dst; // номер получателя
    367            unsigned char id_pac; // идентификатор пакета  
    368            unsigned char * p_opt; // //указатель буфера опций  
    369            unsigned char l_opt;// длина буфера опций   
    370            unsigned char kol_opt;// количество опций   
    371            unsigned char * p_data;  //указатель буфера данных
    372            unsigned int l_data;   // длина данных
    373            }Obj_ppp_tx;
   \                     Obj_ppp_tx:
   \   00000000                      DS 16
   \                     delay_pre_tx:
   \   00000010                      DS 2
   \                     pagee:
   \   00000012                      DS 2
   \                     array_in_232:
   \   00000014                      DS 2
   \                     pg_crc:
   \   00000016                      DS 2
   \                     cnt_pg:
   \   00000018                      DS 2
   \                     fl_rewrite:
   \   0000001A                      DS 2
   \                     off_buf:
   \   0000001C                      DS 1
   \                     total_kol_page:
   \   0000001D                      DS 1
   \                     contr_gluk1:
   \   0000001E                      DS 1
   \                     contr_gluk2:
   \   0000001F                      DS 1
   \                     reboot_byte:
   \   00000020                      DS 1
   \                     fl_pg_out:
   \   00000021                      DS 1
   \                     id_pg_kp:
   \   00000022                      DS 1
   \                     id_pg_appl:
   \   00000023                      DS 1

   \                                 In segment NEAR_Z, align 1, keep-with-next
   \   00000000                      REQUIRE `?<Segment init: NEAR_Z>`
   \                     ip_pri_dns:
   \   00000000                      DS 4
   \                     ip_sec_dns:
   \   00000004                      DS 4
   \                     cnt_lcp_tm_out:
   \   00000008                      DS 2
   \                     fl_lcp:
   \   0000000A                      DS 1
   \                     fl_ipcp:
   \   0000000B                      DS 1
   \                     fl_ip:
   \   0000000C                      DS 1
   \                     fl_pap:
   \   0000000D                      DS 1
   \                     fl_lcp2:
   \   0000000E                      DS 1
   \                     fl_ipcp2:
   \   0000000F                      DS 1
   \                     pap_act_buf:
   \   00000010                      DS 1
   \                     PAP_state:
   \   00000011                      DS 1
   \                     PAP_event:
   \   00000012                      DS 1
   \                     LCP_event:
   \   00000013                      DS 1
   \                     LCP_act_buf:
   \   00000014                      DS 15
   \                     IPCP_event:
   \   00000023                      DS 1
   \                     uk_in_act_LCP:
   \   00000024                      DS 1
   \                     uk_out_act_LCP:
   \   00000025                      DS 1
   \                     uk_in_act_IPCP:
   \   00000026                      DS 1
   \                     uk_out_act_IPCP:
   \   00000027                      DS 1
   \                     cnt_rst_lcp:
   \   00000028                      DS 1
   \                     vol_cnt_rst_lcp:
   \   00000029                      DS 1
   \                     cnt_rst_ipcp:
   \   0000002A                      DS 1
   \                     vol_cnt_rst_ipcp:
   \   0000002B                      DS 1
   \                     rcvd_protokol:
   \   0000002C                      DS 1
   \                     i_scr_lcp:
   \   0000002D                      DS 1
   \                     i_scan_lcp:
   \   0000002E                      DS 1
   \                     i_scj_lcp:
   \   0000002F                      DS 1
   \                     i_str_lcp:
   \   00000030                      DS 1
   \                     i_sta_lcp:
   \   00000031                      DS 1
   \                     i_scr_ipcp:
   \   00000032                      DS 1
   \                     i_scan_ipcp:
   \   00000033                      DS 1
   \                     i_str_ipcp:
   \   00000034                      DS 1
   \                     i_sta_ipcp:
   \   00000035                      DS 1
   \                     i_scr_pap:
   \   00000036                      DS 1
   \                     ln_rejc_lcp:
   \   00000037                      DS 1
   \                     ln_rej_lcp:
   \   00000038                      DS 1
   \                     ln_ack_lcp:
   \   00000039                      DS 1
   \                     ln_nak_lcp:
   \   0000003A                      DS 1
   \                     ln_rejc_ipcp:
   \   0000003B                      DS 1
   \                     ln_rej_ipcp:
   \   0000003C                      DS 1
   \                     ln_ack_ipcp:
   \   0000003D                      DS 1
   \                     ln_nak_ipcp:
   \   0000003E                      DS 1

   \                                 In segment NEAR_Z, align 1, keep-with-next
   \   00000000                      REQUIRE `?<Segment init: NEAR_Z>`
   \                     fl_lcp1:
   \   00000000                      DS 1
   \                     LCP_state:
   \   00000001                      DS 1

   \                                 In segment NEAR_Z, align 1, keep-with-next
   \   00000000                      REQUIRE `?<Segment init: NEAR_Z>`
   \                     cnt_pap_tm_out:
   \   00000000                      DS 2
   \                     fl_ipcp1:
   \   00000002                      DS 1
   \                     IPCP_state:
   \   00000003                      DS 1
   \                     IPCP_act_buf:
   \   00000004                      DS 10
   \                     cnt_rst_pap:
   \   0000000E                      DS 1
   \                     vol_cnt_rst_pap:
   \   0000000F                      DS 1
   \                     buf_nak_opt_ipcp:
   \   00000010                      DS 25

   \                                 In segment NEAR_Z, align 1, keep-with-next
   \   00000000                      REQUIRE `?<Segment init: NEAR_Z>`
   \                     cnt_ipcp_tm_out:
   \   00000000                      DS 2
   \                     buf_rejc_opt_ipcp:
   \   00000002                      DS 31
   \                     buf_ack_opt_ipcp:
   \   00000021                      DS 25

   \                                 In segment NEAR_Z, align 1, keep-with-next
   \   00000000                      REQUIRE `?<Segment init: NEAR_Z>`
   \                     cnt_ip_tm_cntr:
   \   00000000                      DS 4

   \                                 In segment NEAR_Z, align 1, keep-with-next
   \   00000000                      REQUIRE `?<Segment init: NEAR_Z>`
   \                     i_scj_ipcp:
   \   00000000                      DS 1

   \                                 In segment NEAR_Z, align 1, keep-with-next
   \   00000000                      REQUIRE `?<Segment init: NEAR_Z>`
   \                     buf_rejc_opt_lcp:
   \   00000000                      DS 34

   \                                 In segment NEAR_Z, align 1, keep-with-next
   \   00000000                      REQUIRE `?<Segment init: NEAR_Z>`
   \                     buf_ack_opt_lcp:
   \   00000000                      DS 28
   \                     buf_nak_opt_lcp:
   \   0000001C                      DS 28

   \                                 In segment NEAR_Z, align 1, keep-with-next
   \   00000000                      REQUIRE `?<Segment init: NEAR_Z>`
   \                     buf_rej_opt_lcp:
   \   00000000                      DS 28

   \                                 In segment NEAR_Z, align 1, keep-with-next
   \   00000000                      REQUIRE `?<Segment init: NEAR_Z>`
   \                     buf_rej_opt_ipcp:
   \   00000000                      DS 25
    374          
    375           extern unsigned char buf_opt_tr[20]; 
    376           
    377           

   \                                 In segment NEAR_F, align 1, keep-with-next
    378           __flash unsigned int fcstab[256] = {
   \                     fcstab:
   \   00000000   000011892312       DW 0, 4489, 8978, 12955, 17956, 22445, 25910, 29887, 35912, 40385
   \              329B462457AD
   \              653674BF8C48
   \              9DC1        
   \   00000014   AF5ABED3CA6C       DW 44890, 48851, 51820, 56293, 59774, 63735, 4225, 264, 13203, 8730
   \              DBE5E97EF8F7
   \              108101083393
   \              221A        
   \   00000028   56A5472C75B7       DW 22181, 18220, 30135, 25662, 40137, 36160, 49115, 44626, 56045, 52068
   \              643E9CC98D40
   \              BFDBAE52DAED
   \              CB64        
   \   0000003C   F9FFE8762102       DW 63999, 59510, 8450, 12427, 528, 5017, 26406, 30383, 17460, 21949
   \              308B02101399
   \              672676AF4434
   \              55BD        
   \   00000050   AD4ABCC38E58       DW 44362, 48323, 36440, 40913, 60270, 64231, 51324, 55797, 12675, 8202
   \              9FD1EB6EFAE7
   \              C87CD9F53183
   \              200A        
   \   00000064   1291031877A7       DW 4753, 792, 30631, 26158, 21685, 17724, 48587, 44098, 40665, 36688
   \              662E54B5453C
   \              BDCBAC429ED9
   \              8F50        
   \   00000078   FBEFEA66D8FD       DW 64495, 60006, 55549, 51572, 16900, 21389, 24854, 28831, 1056, 5545
   \              C9744204538D
   \              6116709F0420
   \              15A9        
   \   0000008C   273236BBCE4C       DW 10034, 14011, 52812, 57285, 60766, 64727, 34920, 39393, 43898, 47859
   \              DFC5ED5EFCD7
   \              886899E1AB7A
   \              BAF3        
   \   000000A0   5285430C7197       DW 21125, 17164, 29079, 24606, 5281, 1320, 14259, 9786, 57037, 53060
   \              601E14A10528
   \              37B3263ADECD
   \              CF44        
   \   000000B4   FDDFEC5698E9       DW 64991, 60502, 39145, 35168, 48123, 43634, 25350, 29327, 16404, 20893
   \              8960BBFBAA72
   \              6306728F4014
   \              519D        
   \   000000C8   252234AB0630       DW 9506, 13483, 1584, 6073, 61262, 65223, 52316, 56789, 43370, 47331
   \              17B9EF4EFEC7
   \              CC5CDDD5A96A
   \              B8E3        
   \   000000DC   8A789BF17387       DW 35448, 39921, 29575, 25102, 20629, 16668, 13731, 9258, 5809, 1848
   \              620E5095411C
   \              35A3242A16B1
   \              0738        
   \   000000F0   FFCFEE46DCDD       DW 65487, 60998, 56541, 52564, 47595, 43106, 39673, 35696, 33800, 38273
   \              CD54B9EBA862
   \              9AF98B708408
   \              9581        
   \   00000104   A71AB693C22C       DW 42778, 46739, 49708, 54181, 57662, 61623, 2112, 6601, 11090, 15067
   \              D3A5E13EF0B7
   \              084019C92B52
   \              3ADB        
   \   00000118   4E645FED6D76       DW 20068, 24557, 28022, 31999, 38025, 34048, 47003, 42514, 53933, 49956
   \              7CFF94898500
   \              B79BA612D2AD
   \              C324        
   \   0000012C   F1BFE03618C1       DW 61887, 57398, 6337, 2376, 15315, 10842, 24293, 20332, 32247, 27774
   \              09483BD32A5A
   \              5EE54F6C7DF7
   \              6C7E        
   \   00000140   A50AB4838618       DW 42250, 46211, 34328, 38801, 58158, 62119, 49212, 53685, 10562, 14539
   \              9791E32EF2A7
   \              C03CD1B52942
   \              38CB        
   \   00000154   0A501BD96F66       DW 2640, 7129, 28518, 32495, 19572, 24061, 46475, 41986, 38553, 34576
   \              7EEF4C745DFD
   \              B58BA4029699
   \              8710        
   \   00000168   F3AFE226D0BD       DW 62383, 57894, 53437, 49460, 14787, 10314, 6865, 2904, 32743, 28270
   \              C13439C3284A
   \              1AD10B587FE7
   \              6E6E        
   \   0000017C   5CF54D7CC60C       DW 23797, 19836, 50700, 55173, 58654, 62615, 32808, 37281, 41786, 45747
   \              D785E51EF497
   \              802891A1A33A
   \              B2B3        
   \   00000190   4A445BCD6956       DW 19012, 23501, 26966, 30943, 3168, 7657, 12146, 16123, 54925, 50948
   \              78DF0C601DE9
   \              2F723EFBD68D
   \              C704        
   \   000001A4   F59FE41690A9       DW 62879, 58390, 37033, 33056, 46011, 41522, 23237, 19276, 31191, 26718
   \              8120B3BBA232
   \              5AC54B4C79D7
   \              685E        
   \   000001B8   1CE10D683FF3       DW 7393, 3432, 16371, 11898, 59150, 63111, 50204, 54677, 41258, 45219
   \              2E7AE70EF687
   \              C41CD595A12A
   \              B0A3        
   \   000001CC   823893B16B46       DW 33336, 37809, 27462, 31439, 18516, 23005, 11618, 15595, 3696, 8185
   \              7ACF485459DD
   \              2D623CEB0E70
   \              1FF9        
   \   000001E0   F78FE606D49D       DW 63375, 58886, 54429, 50452, 45483, 40994, 37561, 33584, 31687, 27214
   \              C514B1ABA022
   \              92B983307BC7
   \              6A4E        
   \   000001F4   58D5495C3DE3       DW 22741, 18780, 15843, 11370, 7921, 3960
   \              2C6A1EF10F78
    379                0x0000, 0x1189, 0x2312, 0x329b, 0x4624, 0x57ad, 0x6536, 0x74bf,
    380                0x8c48, 0x9dc1, 0xaf5a, 0xbed3, 0xca6c, 0xdbe5, 0xe97e, 0xf8f7,
    381                0x1081, 0x0108, 0x3393, 0x221a, 0x56a5, 0x472c, 0x75b7, 0x643e,
    382                0x9cc9, 0x8d40, 0xbfdb, 0xae52, 0xdaed, 0xcb64, 0xf9ff, 0xe876,
    383                0x2102, 0x308b, 0x0210, 0x1399, 0x6726, 0x76af, 0x4434, 0x55bd,
    384                0xad4a, 0xbcc3, 0x8e58, 0x9fd1, 0xeb6e, 0xfae7, 0xc87c, 0xd9f5,
    385                0x3183, 0x200a, 0x1291, 0x0318, 0x77a7, 0x662e, 0x54b5, 0x453c,
    386                0xbdcb, 0xac42, 0x9ed9, 0x8f50, 0xfbef, 0xea66, 0xd8fd, 0xc974,
    387                0x4204, 0x538d, 0x6116, 0x709f, 0x0420, 0x15a9, 0x2732, 0x36bb,
    388                0xce4c, 0xdfc5, 0xed5e, 0xfcd7, 0x8868, 0x99e1, 0xab7a, 0xbaf3,
    389                0x5285, 0x430c, 0x7197, 0x601e, 0x14a1, 0x0528, 0x37b3, 0x263a,
    390                0xdecd, 0xcf44, 0xfddf, 0xec56, 0x98e9, 0x8960, 0xbbfb, 0xaa72,
    391                0x6306, 0x728f, 0x4014, 0x519d, 0x2522, 0x34ab, 0x0630, 0x17b9,
    392                0xef4e, 0xfec7, 0xcc5c, 0xddd5, 0xa96a, 0xb8e3, 0x8a78, 0x9bf1,
    393                0x7387, 0x620e, 0x5095, 0x411c, 0x35a3, 0x242a, 0x16b1, 0x0738,
    394                0xffcf, 0xee46, 0xdcdd, 0xcd54, 0xb9eb, 0xa862, 0x9af9, 0x8b70,
    395                0x8408, 0x9581, 0xa71a, 0xb693, 0xc22c, 0xd3a5, 0xe13e, 0xf0b7,
    396                0x0840, 0x19c9, 0x2b52, 0x3adb, 0x4e64, 0x5fed, 0x6d76, 0x7cff,
    397                0x9489, 0x8500, 0xb79b, 0xa612, 0xd2ad, 0xc324, 0xf1bf, 0xe036,
    398                0x18c1, 0x0948, 0x3bd3, 0x2a5a, 0x5ee5, 0x4f6c, 0x7df7, 0x6c7e,
    399                0xa50a, 0xb483, 0x8618, 0x9791, 0xe32e, 0xf2a7, 0xc03c, 0xd1b5,
    400                0x2942, 0x38cb, 0x0a50, 0x1bd9, 0x6f66, 0x7eef, 0x4c74, 0x5dfd,
    401                0xb58b, 0xa402, 0x9699, 0x8710, 0xf3af, 0xe226, 0xd0bd, 0xc134,
    402                0x39c3, 0x284a, 0x1ad1, 0x0b58, 0x7fe7, 0x6e6e, 0x5cf5, 0x4d7c,
    403                0xc60c, 0xd785, 0xe51e, 0xf497, 0x8028, 0x91a1, 0xa33a, 0xb2b3,
    404                0x4a44, 0x5bcd, 0x6956, 0x78df, 0x0c60, 0x1de9, 0x2f72, 0x3efb,
    405                0xd68d, 0xc704, 0xf59f, 0xe416, 0x90a9, 0x8120, 0xb3bb, 0xa232,
    406                0x5ac5, 0x4b4c, 0x79d7, 0x685e, 0x1ce1, 0x0d68, 0x3ff3, 0x2e7a,
    407                0xe70e, 0xf687, 0xc41c, 0xd595, 0xa12a, 0xb0a3, 0x8238, 0x93b1,
    408                0x6b46, 0x7acf, 0x4854, 0x59dd, 0x2d62, 0x3ceb, 0x0e70, 0x1ff9,
    409                0xf78f, 0xe606, 0xd49d, 0xc514, 0xb1ab, 0xa022, 0x92b9, 0x8330,
    410                0x7bc7, 0x6a4e, 0x58d5, 0x495c, 0x3de3, 0x2c6a, 0x1ef1, 0x0f78
    411             };
    412          
    413          
    414           

   \                                 In segment CODE, align 2, keep-with-next
    415           void prov_uk_in(void)
   \                     prov_uk_in:
    416             {        
    417                    unsigned char temp;
    418                    
    419                    uk_in_act_LCP++;
   \   00000000   ....               LDI     R30, LOW(ip_pri_dns)
   \   00000002   ....               LDI     R31, (ip_pri_dns) >> 8
   \   00000004   A104               LDD     R16, Z+36
   \   00000006   9503               INC     R16
   \   00000008   A304               STD     Z+36, R16
    420                    if(uk_in_act_LCP>=LCP_ACT_VOL)uk_in_act_LCP=0;         
   \   0000000A   A104               LDD     R16, Z+36
   \   0000000C   300F               CPI     R16, 15
   \   0000000E   F010               BRCS    ??prov_uk_in_0
   \   00000010   E000               LDI     R16, 0
   \   00000012   A304               STD     Z+36, R16
    421                    if(uk_out_act_LCP==0)temp=LCP_ACT_VOL-1;else temp=uk_out_act_LCP-1;
   \                     ??prov_uk_in_0:
   \   00000014   A105               LDD     R16, Z+37
   \   00000016   2300               TST     R16
   \   00000018   F411               BRNE    ??prov_uk_in_1
   \   0000001A   E00E               LDI     R16, 14
   \   0000001C   C001               RJMP    ??prov_uk_in_2
   \                     ??prov_uk_in_1:
   \   0000001E   950A               DEC     R16
    422                 //   if(uk_in_act_LCP==temp){write_log_info(ST_ERROR,ERR3);lock_it();}//переполнение буфера
    423                   if(uk_in_act_LCP==temp)event_modem=EVM_PPP_ERR;//переполнение буфера
   \                     ??prov_uk_in_2:
   \   00000020   A114               LDD     R17, Z+36
   \   00000022   1710               CP      R17, R16
   \   00000024   F419               BRNE    ??prov_uk_in_3
   \   00000026   E005               LDI     R16, 5
   \   00000028   9300....           STS     event_modem, R16
    424              }  
   \                     ??prov_uk_in_3:
   \   0000002C   9508               RET
    425             
    426             

   \                                 In segment CODE, align 2, keep-with-next
    427             void prov_uk_in_ipcp(void)
   \                     prov_uk_in_ipcp:
    428             {        
    429                    unsigned char temp;
    430                    
    431                    uk_in_act_IPCP++;
   \   00000000   ....               LDI     R30, LOW(ip_pri_dns)
   \   00000002   ....               LDI     R31, (ip_pri_dns) >> 8
   \   00000004   A106               LDD     R16, Z+38
   \   00000006   9503               INC     R16
   \   00000008   A306               STD     Z+38, R16
    432                    if(uk_in_act_IPCP>=IPCP_ACT_VOL)uk_in_act_IPCP=0;         
   \   0000000A   A106               LDD     R16, Z+38
   \   0000000C   300A               CPI     R16, 10
   \   0000000E   F010               BRCS    ??prov_uk_in_ipcp_0
   \   00000010   E000               LDI     R16, 0
   \   00000012   A306               STD     Z+38, R16
    433                    if(uk_out_act_IPCP==0)temp=IPCP_ACT_VOL-1;else temp=uk_out_act_IPCP-1;
   \                     ??prov_uk_in_ipcp_0:
   \   00000014   A107               LDD     R16, Z+39
   \   00000016   2300               TST     R16
   \   00000018   F411               BRNE    ??prov_uk_in_ipcp_1
   \   0000001A   E009               LDI     R16, 9
   \   0000001C   C001               RJMP    ??prov_uk_in_ipcp_2
   \                     ??prov_uk_in_ipcp_1:
   \   0000001E   950A               DEC     R16
    434                  //  if(uk_in_act_IPCP==temp){write_log_info(ST_ERROR,ERR4);lock_it();}//переполнение буфера
    435                    if(uk_in_act_IPCP==temp)event_modem=EVM_PPP_ERR;//переполнение буфера
   \                     ??prov_uk_in_ipcp_2:
   \   00000020   A116               LDD     R17, Z+38
   \   00000022   1710               CP      R17, R16
   \   00000024   F419               BRNE    ??prov_uk_in_ipcp_3
   \   00000026   E005               LDI     R16, 5
   \   00000028   9300....           STS     event_modem, R16
    436                   
    437              }   
   \                     ??prov_uk_in_ipcp_3:
   \   0000002C   9508               RET
    438           
    439           
    440           
    441           

   \                                 In segment CODE, align 2, keep-with-next
    442          unsigned int pppfcs16(unsigned int fcs,unsigned char *cp,unsigned int len)
   \                     pppfcs16:
    443          
    444             {
   \   00000000   C011               RJMP    ??pppfcs16_0
    445          
    446                 while (len--)
    447                     fcs=(fcs >> 8) ^ fcstab[(fcs ^ *cp++) & 0xff];
   \                     ??pppfcs16_1:
   \   00000002   0118               MOVW    R3:R2, R17:R16
   \   00000004   ....               LDI     R22, LOW(fcstab)
   \   00000006   ....               LDI     R23, (fcstab) >> 8
   \   00000008   01F9               MOVW    R31:R30, R19:R18
   \   0000000A   9001               LD      R0, Z+
   \   0000000C   019F               MOVW    R19:R18, R31:R30
   \   0000000E   2DE0               MOV     R30, R0
   \   00000010   25E2               EOR     R30, R2
   \   00000012   E0F0               LDI     R31, 0
   \   00000014   0FEE               LSL     R30
   \   00000016   1FFF               ROL     R31
   \   00000018   0F6E               ADD     R22, R30
   \   0000001A   1F7F               ADC     R23, R31
   \   0000001C   01FB               MOVW    R31:R30, R23:R22
   \   0000001E   9105               LPM     R16, Z+
   \   00000020   9114               LPM     R17, Z
   \   00000022   2503               EOR     R16, R3
   \                     ??pppfcs16_0:
   \   00000024   01BA               MOVW    R23:R22, R21:R20
   \   00000026   5041               SUBI    R20, 1
   \   00000028   4050               SBCI    R21, 0
   \   0000002A   2B67               OR      R22, R23
   \   0000002C   F751               BRNE    ??pppfcs16_1
    448                 return (fcs);
   \   0000002E   9508               RET
    449             }
    450          
    451          

   \                                 In segment CODE, align 2, keep-with-next
    452          void run_lcp_act(void)
   \                     run_lcp_act:
    453                {  
   \   00000000   ........           CALL    ?PROLOGUE5_L09
   \   00000004                      REQUIRE ?Register_R4_is_cg_reg
   \   00000004   9722               SBIW    R29:R28, 2
    454                 unsigned char i;
    455                 
    456                 union
    457               {
    458                unsigned char bytes[2]; 
    459                unsigned int word;
    460               }temp;
    461                
    462                 
    463                 switch (LCP_act_buf[uk_out_act_LCP])
   \   00000006   ....               LDI     R24, LOW(ip_pri_dns)
   \   00000008   ....               LDI     R25, (ip_pri_dns) >> 8
   \   0000000A   01FC               MOVW    R31:R30, R25:R24
   \   0000000C   A446               LDD     R4, Z+46
   \   0000000E   ....               LDI     R26, LOW(buf_tx_232)
   \   00000010   ....               LDI     R27, (buf_tx_232) >> 8
   \   00000012   A105               LDD     R16, Z+37
   \   00000014   E010               LDI     R17, 0
   \   00000016   0FE0               ADD     R30, R16
   \   00000018   1FF1               ADC     R31, R17
   \   0000001A   8904               LDD     R16, Z+20
   \   0000001C   ....               LDI     R30, LOW(`?<Jumptable for run_lcp_act>_0`)
   \   0000001E   ....               LDI     R31, (`?<Jumptable for run_lcp_act>_0`) >> 16
   \   00000020   BFFB               OUT     0x3B, R31
   \   00000022   ....               LDI     R31, HIGH(`?<Jumptable for run_lcp_act>_0`)
   \   00000024   ........           JMP     ?CV_SWITCH_L06
    464                    {
    465                     case TLU:    
    466                          
    467          
    468                           
    469                          fl_pap.up=1;
   \                     ??run_lcp_act_0:
   \   00000028   01FC               MOVW    R31:R30, R25:R24
   \   0000002A   8505               LDD     R16, Z+13
   \   0000002C   6100               ORI     R16, 0x10
   \   0000002E   8705               STD     Z+13, R16
    470                          fl_lcp.act_lcp_end=0;
    471                          PAP_state=START_ST;
   \   00000030   E001               LDI     R16, 1
   \   00000032   8B01               STD     Z+17, R16
    472                          layer_PPP=LAYER_PAP;      
   \   00000034   E002               LDI     R16, 2
   \   00000036   9300....           STS     layer_PPP, R16
    473                          fl_lcp.act_lcp_end=1;
   \                     ??run_lcp_act_1:
   \   0000003A   8502               LDD     R16, Z+10
   \   0000003C   6001               ORI     R16, 0x01
   \                     ??run_lcp_act_2:
   \   0000003E   8702               STD     Z+10, R16
   \   00000040   C2A5               RJMP    ??run_lcp_act_3
    474                        break;
    475                     case TLD:  
    476                          fl_lcp.act_lcp_end=0;
    477                          layer_PPP=LAYER_LCP;  
   \                     ??run_lcp_act_4:
   \   00000042   E001               LDI     R16, 1
   \   00000044   9300....           STS     layer_PPP, R16
    478                          fl_lcp.act_lcp_end=1; 
   \   00000048   01FC               MOVW    R31:R30, R25:R24
   \   0000004A   CFF7               RJMP    ??run_lcp_act_1
    479                          break;
    480                     case TLS:   
    481                          fl_lcp.act_lcp_end=0;
   \                     ??run_lcp_act_5:
   \   0000004C   01FC               MOVW    R31:R30, R25:R24
   \   0000004E   8502               LDD     R16, Z+10
   \   00000050   7F0E               ANDI    R16, 0xFE
   \   00000052   8702               STD     Z+10, R16
    482                         // write_log_info(ST_ERROR,ERR5);
    483                         // lock_it();
    484                          event_modem=EVM_PPP_ERR; 
   \   00000054   E005               LDI     R16, 5
   \   00000056   9300....           STS     event_modem, R16
   \   0000005A   C298               RJMP    ??run_lcp_act_3
    485                          break;
    486                     case TLF:  
    487                          fl_lcp.act_lcp_end=0;
    488                         // write_log_info(ST_ERROR,ERR6);
    489                         // lock_it();
    490                          event_modem=EVM_PPP_ERR;
    491                          break;
    492                     case IRC:                   
    493                          fl_lcp.act_lcp_end=0;
    494                          cnt_lcp_tm_out=VOL_LCP_TM_OUT; 
   \                     ??run_lcp_act_6:
   \   0000005C   EB08               LDI     R16, 184
   \   0000005E   E01B               LDI     R17, 11
   \   00000060   01FC               MOVW    R31:R30, R25:R24
   \   00000062   8700               STD     Z+8, R16
   \   00000064   8711               STD     Z+9, R17
    495                          cnt_rst_lcp=vol_cnt_rst_lcp;
   \   00000066   A501               LDD     R16, Z+41
   \   00000068   A700               STD     Z+40, R16
    496                          fl_lcp.lcp_tm_out_en=1; 
    497                          fl_lcp.act_lcp_end=1; 
   \   0000006A   8502               LDD     R16, Z+10
   \   0000006C   6003               ORI     R16, 0x03
   \   0000006E   CFE7               RJMP    ??run_lcp_act_2
    498                               
    499                          break;
    500                     case ZRC:  
    501                          fl_lcp.act_lcp_end=0;
    502                          cnt_lcp_tm_out=VOL_LCP_TM_OUT; 
   \                     ??run_lcp_act_7:
   \   00000070   EB08               LDI     R16, 184
   \   00000072   E01B               LDI     R17, 11
   \   00000074   01FC               MOVW    R31:R30, R25:R24
   \   00000076   8700               STD     Z+8, R16
   \   00000078   8711               STD     Z+9, R17
    503                          cnt_rst_lcp=0;
   \   0000007A   E000               LDI     R16, 0
   \   0000007C   A700               STD     Z+40, R16
    504                          fl_lcp.lcp_tm_out_en=1; 
    505                          fl_lcp.act_lcp_end=1;  
   \   0000007E   8502               LDD     R16, Z+10
   \   00000080   6003               ORI     R16, 0x03
   \   00000082   8702               STD     Z+10, R16
   \   00000084   C283               RJMP    ??run_lcp_act_3
    506                          break;
    507                     case SCR:    
    508          
    509                                                      
    510                           fl_lcp.act_lcp_end=0;
   \                     ??run_lcp_act_8:
   \   00000086   01FC               MOVW    R31:R30, R25:R24
   \   00000088   8502               LDD     R16, Z+10
   \   0000008A   7F0E               ANDI    R16, 0xFE
   \   0000008C   8702               STD     Z+10, R16
    511                           buf_tx_232[0]=0x7e; 
   \   0000008E   E70E               LDI     R16, 126
   \   00000090   930C               ST      X, R16
    512                           buf_tx_232[1]=0xff;
   \   00000092   EF0F               LDI     R16, 255
   \   00000094   01FD               MOVW    R31:R30, R27:R26
   \   00000096   8301               STD     Z+1, R16
    513                           buf_tx_232[2]=0x03;
   \   00000098   E003               LDI     R16, 3
   \   0000009A   8302               STD     Z+2, R16
    514                           buf_tx_232[3]=0xc0;
   \   0000009C   EC00               LDI     R16, 192
   \   0000009E   8303               STD     Z+3, R16
    515                           buf_tx_232[4]=0x21;
   \   000000A0   E201               LDI     R16, 33
   \   000000A2   8304               STD     Z+4, R16
    516                           
    517                           buf_tx_232[5]=CONF_REQ; 
   \   000000A4   E001               LDI     R16, 1
   \   000000A6   8305               STD     Z+5, R16
    518                           buf_tx_232[6]=i_scr_lcp;   
   \   000000A8   01FC               MOVW    R31:R30, R25:R24
   \   000000AA   A505               LDD     R16, Z+45
   \   000000AC   01FD               MOVW    R31:R30, R27:R26
   \   000000AE   8306               STD     Z+6, R16
    519                           
    520                           buf_tx_232[7]=0; 
   \   000000B0   E000               LDI     R16, 0
   \   000000B2   8307               STD     Z+7, R16
    521                           buf_tx_232[8]=0x0e;
   \   000000B4   E00E               LDI     R16, 14
   \   000000B6   8700               STD     Z+8, R16
    522                           
    523                           buf_tx_232[9]=2; 
   \   000000B8   E002               LDI     R16, 2
   \   000000BA   8701               STD     Z+9, R16
    524                           buf_tx_232[10]=6;
   \   000000BC   E006               LDI     R16, 6
   \   000000BE   8702               STD     Z+10, R16
    525                          
    526                           buf_tx_232[11]=0; 
   \   000000C0   E000               LDI     R16, 0
   \   000000C2   8703               STD     Z+11, R16
    527                           buf_tx_232[12]=0x0a; 
   \   000000C4   E00A               LDI     R16, 10
   \   000000C6   8704               STD     Z+12, R16
    528                           buf_tx_232[13]=0;
   \   000000C8   E000               LDI     R16, 0
   \   000000CA   8705               STD     Z+13, R16
    529                           buf_tx_232[14]=0;
   \   000000CC   8706               STD     Z+14, R16
    530                          
    531                        
    532                          
    533                           
    534                           buf_tx_232[15]=7;
   \   000000CE   E007               LDI     R16, 7
   \   000000D0   8707               STD     Z+15, R16
    535                           buf_tx_232[16]=2;
   \   000000D2   E002               LDI     R16, 2
   \   000000D4   8B00               STD     Z+16, R16
    536                           
    537                           buf_tx_232[17]=8;
   \   000000D6   E008               LDI     R16, 8
   \   000000D8   8B01               STD     Z+17, R16
    538                           buf_tx_232[18]=2;
   \   000000DA   E002               LDI     R16, 2
   \   000000DC   8B02               STD     Z+18, R16
    539                           
    540                           temp.word=pppfcs16(PPPINITFCS16,&buf_tx_232[1],buf_tx_232[8]+4) ^ 0xffff;                
   \   000000DE   E142               LDI     R20, 18
   \   000000E0   E050               LDI     R21, 0
   \   000000E2   019D               MOVW    R19:R18, R27:R26
   \   000000E4   5F2F               SUBI    R18, 255
   \   000000E6   4F3F               SBCI    R19, 255
   \   000000E8   EF0F               LDI     R16, 255
   \   000000EA   EF1F               LDI     R17, 255
   \   000000EC   ....               RCALL   pppfcs16
   \   000000EE   EF2F               LDI     R18, 255
   \   000000F0   EF3F               LDI     R19, 255
   \   000000F2   2720               EOR     R18, R16
   \   000000F4   2731               EOR     R19, R17
   \   000000F6   8328               ST      Y, R18
   \   000000F8   8339               STD     Y+1, R19
    541                           buf_tx_232[19]=temp.bytes[0];
   \   000000FA   8108               LD      R16, Y
   \   000000FC   01FD               MOVW    R31:R30, R27:R26
   \   000000FE   8B03               STD     Z+19, R16
    542                           buf_tx_232[20]=temp.bytes[1];
   \   00000100   8109               LDD     R16, Y+1
   \   00000102   8B04               STD     Z+20, R16
    543                           
    544                           buf_tx_232[21]=0x7e; 
   \   00000104   E70E               LDI     R16, 126
   \   00000106   8B05               STD     Z+21, R16
    545                           
    546                          
    547                           count_tx_ppp=0;
   \   00000108   E000               LDI     R16, 0
   \   0000010A   E010               LDI     R17, 0
   \   0000010C   ....               LDI     R30, LOW(count_tx_ppp)
   \   0000010E   ....               LDI     R31, (count_tx_ppp) >> 8
   \   00000110   8300               ST      Z, R16
   \   00000112   8301               STD     Z+1, R16
    548                           vol_tx_ppp=buf_tx_232[8]+8;               
   \   00000114   E106               LDI     R16, 22
   \   00000116   ....               LDI     R30, LOW(vol_tx_ppp)
   \   00000118   ....               LDI     R31, (vol_tx_ppp) >> 8
   \   0000011A   8300               ST      Z, R16
   \   0000011C   8311               STD     Z+1, R17
    549                          
    550                           UCSR0A=UCSR0A | TXC; 
   \   0000011E   910000C0           LDS     R16, 192
   \   00000122   6400               ORI     R16, 0x40
   \   00000124   930000C0           STS     192, R16
    551                           UCSR0B=UCSR0B | TXEN;
   \   00000128   910000C1           LDS     R16, 193
   \   0000012C   6008               ORI     R16, 0x08
   \   0000012E   930000C1           STS     193, R16
    552                           UCSR0B=UCSR0B | TXCIE;
   \   00000132   910000C1           LDS     R16, 193
   \   00000136   6400               ORI     R16, 0x40
   \   00000138   930000C1           STS     193, R16
    553                           if(check_cts()==1) return;  
   \   0000013C   ........           CALL    check_cts
   \   00000140   3001               CPI     R16, 1
   \   00000142   F409               BRNE    $+2+2
   \   00000144   C223               RJMP    ??run_lcp_act_3
    554                           S2_RD;
   \   00000146   9A40               SBI     0x08, 0x00
   \   00000148   9841               CBI     0x08, 0x01
    555                           UDR0=buf_tx_232[0];
   \   0000014A   910C               LD      R16, X
   \   0000014C   930000C6           STS     198, R16
    556                           if(Regim==RG_DEBAG) UDR3=buf_tx_232[0];
   \   00000150   9100....           LDS     R16, Regim
   \   00000154   3001               CPI     R16, 1
   \   00000156   F009               BREQ    $+2+2
   \   00000158   C219               RJMP    ??run_lcp_act_3
   \                     ??run_lcp_act_9:
   \   0000015A   910C               LD      R16, X
   \   0000015C   93000136           STS     310, R16
   \   00000160   C215               RJMP    ??run_lcp_act_3
    557                           
    558                          
    559                              
    560                          break;
    561                     
    562                    case SCA: 
    563                           fl_lcp.act_lcp_end=0;
   \                     ??run_lcp_act_10:
   \   00000162   01FC               MOVW    R31:R30, R25:R24
   \   00000164   8502               LDD     R16, Z+10
   \   00000166   7F0E               ANDI    R16, 0xFE
   \   00000168   8702               STD     Z+10, R16
    564                           buf_tx_232[0]=0x7e; 
   \   0000016A   E70E               LDI     R16, 126
   \   0000016C   930C               ST      X, R16
    565                           buf_tx_232[1]=0xff;
   \   0000016E   EF0F               LDI     R16, 255
   \   00000170   01FD               MOVW    R31:R30, R27:R26
   \   00000172   8301               STD     Z+1, R16
    566                           buf_tx_232[2]=0x03;
   \   00000174   E003               LDI     R16, 3
   \   00000176   8302               STD     Z+2, R16
    567                           buf_tx_232[3]=0xc0;
   \   00000178   EC00               LDI     R16, 192
   \   0000017A   8303               STD     Z+3, R16
    568                           buf_tx_232[4]=0x21;  
   \   0000017C   E201               LDI     R16, 33
   \   0000017E   8304               STD     Z+4, R16
    569                           
    570                           buf_tx_232[5]=CONF_ACK;
   \   00000180   E002               LDI     R16, 2
   \   00000182   8305               STD     Z+5, R16
    571                           buf_tx_232[6]=i_scan_lcp;
   \   00000184   8246               STD     Z+6, R4
    572                           
    573                           temp.word=ln_ack_lcp+4;
   \   00000186   01FC               MOVW    R31:R30, R25:R24
   \   00000188   AD11               LDD     R17, Z+57
   \   0000018A   2F81               MOV     R24, R17
   \   0000018C   E090               LDI     R25, 0
   \   0000018E   019C               MOVW    R19:R18, R25:R24
   \   00000190   5F2C               SUBI    R18, 252
   \   00000192   4F3F               SBCI    R19, 255
   \   00000194   8328               ST      Y, R18
   \   00000196   8339               STD     Y+1, R19
    574                           buf_tx_232[7]=temp.bytes[1]; 
   \   00000198   8109               LDD     R16, Y+1
   \   0000019A   01FD               MOVW    R31:R30, R27:R26
   \   0000019C   8307               STD     Z+7, R16
    575                           buf_tx_232[8]=temp.bytes[0];
   \   0000019E   8108               LD      R16, Y
   \   000001A0   8700               STD     Z+8, R16
    576                          
    577                           temp.word=temp.word+4;         
   \   000001A2   8128               LD      R18, Y
   \   000001A4   8139               LDD     R19, Y+1
   \   000001A6   5F2C               SUBI    R18, 252
   \   000001A8   4F3F               SBCI    R19, 255
   \   000001AA   8328               ST      Y, R18
   \   000001AC   8339               STD     Y+1, R19
    578                           vol_tx_ppp=temp.word+4;  
   \   000001AE   8128               LD      R18, Y
   \   000001B0   8139               LDD     R19, Y+1
   \   000001B2   5F2C               SUBI    R18, 252
   \   000001B4   4F3F               SBCI    R19, 255
   \   000001B6   ....               LDI     R30, LOW(vol_tx_ppp)
   \   000001B8   ....               LDI     R31, (vol_tx_ppp) >> 8
   \   000001BA   8320               ST      Z, R18
   \   000001BC   8331               STD     Z+1, R19
    579                             
    580                           for(i=0;i<ln_ack_lcp;i++)buf_tx_232[9+i]=buf_ack_opt_lcp[i];
   \   000001BE   E000               LDI     R16, 0
   \   000001C0   C00B               RJMP    ??run_lcp_act_11
   \                     ??run_lcp_act_12:
   \   000001C2   2F20               MOV     R18, R16
   \   000001C4   E030               LDI     R19, 0
   \   000001C6   01F9               MOVW    R31:R30, R19:R18
   \   000001C8   ....               SUBI    R30, LOW((-(buf_ack_opt_lcp) & 0xFFFF))
   \   000001CA   ....               SBCI    R31, (-(buf_ack_opt_lcp) & 0xFFFF) >> 8
   \   000001CC   8140               LD      R20, Z
   \   000001CE   01FD               MOVW    R31:R30, R27:R26
   \   000001D0   0FE2               ADD     R30, R18
   \   000001D2   1FF9               ADC     R31, R25
   \   000001D4   8741               STD     Z+9, R20
   \   000001D6   9503               INC     R16
   \                     ??run_lcp_act_11:
   \   000001D8   1701               CP      R16, R17
   \   000001DA   F398               BRCS    ??run_lcp_act_12
    581                           
    582                           temp.word=pppfcs16(PPPINITFCS16,&buf_tx_232[1],temp.word) ^ 0xffff;                  
   \                     ??run_lcp_act_13:
   \   000001DC   8148               LD      R20, Y
   \   000001DE   8159               LDD     R21, Y+1
   \   000001E0   019D               MOVW    R19:R18, R27:R26
   \   000001E2   5F2F               SUBI    R18, 255
   \   000001E4   4F3F               SBCI    R19, 255
   \   000001E6   EF0F               LDI     R16, 255
   \   000001E8   EF1F               LDI     R17, 255
   \   000001EA   ....               RCALL   pppfcs16
   \   000001EC   EF2F               LDI     R18, 255
   \   000001EE   EF3F               LDI     R19, 255
   \   000001F0   2720               EOR     R18, R16
   \   000001F2   2731               EOR     R19, R17
   \   000001F4   8328               ST      Y, R18
   \   000001F6   8339               STD     Y+1, R19
    583                           buf_tx_232[9+ln_ack_lcp]=temp.bytes[0];
   \   000001F8   01FD               MOVW    R31:R30, R27:R26
   \   000001FA   0FE8               ADD     R30, R24
   \   000001FC   1FF9               ADC     R31, R25
   \   000001FE   8128               LD      R18, Y
   \   00000200   8721               STD     Z+9, R18
    584                           buf_tx_232[10+ln_ack_lcp]=temp.bytes[1];
   \   00000202   8129               LDD     R18, Y+1
   \   00000204   8722               STD     Z+10, R18
    585                           buf_tx_232[11+ln_ack_lcp]=0x7e;
   \   00000206   E70E               LDI     R16, 126
   \   00000208   8703               STD     Z+11, R16
    586                           
    587                           count_tx_ppp=0;                             
   \   0000020A   ....               LDI     R30, LOW(count_tx_ppp)
   \   0000020C   ....               LDI     R31, (count_tx_ppp) >> 8
   \   0000020E   8390               ST      Z, R25
   \   00000210   8391               STD     Z+1, R25
    588                           UCSR0A=UCSR0A | TXC;                            
   \                     ??run_lcp_act_14:
   \   00000212   910000C0           LDS     R16, 192
   \   00000216   6400               ORI     R16, 0x40
   \   00000218   930000C0           STS     192, R16
    589                           UCSR0B=UCSR0B | TXEN;
   \   0000021C   910000C1           LDS     R16, 193
   \   00000220   6008               ORI     R16, 0x08
   \   00000222   930000C1           STS     193, R16
    590                           UCSR0B=UCSR0B | TXCIE;
   \   00000226   910000C1           LDS     R16, 193
   \   0000022A   6400               ORI     R16, 0x40
   \   0000022C   930000C1           STS     193, R16
    591                           if(check_cts()==1) return;   
   \   00000230   ........           CALL    check_cts
   \   00000234   3001               CPI     R16, 1
   \   00000236   F409               BRNE    $+2+2
   \   00000238   C1A9               RJMP    ??run_lcp_act_3
    592                           S2_RD;
   \   0000023A   9A40               SBI     0x08, 0x00
   \   0000023C   9841               CBI     0x08, 0x01
    593                           UDR0=buf_tx_232[0]; 
   \   0000023E   910C               LD      R16, X
   \   00000240   930000C6           STS     198, R16
    594                           if(Regim==RG_DEBAG) UDR3=buf_tx_232[0];
   \   00000244   9100....           LDS     R16, Regim
   \   00000248   3001               CPI     R16, 1
   \   0000024A   F009               BREQ    $+2+2
   \   0000024C   C19F               RJMP    ??run_lcp_act_3
   \   0000024E   CF85               RJMP    ??run_lcp_act_9
    595                         
    596                           
    597                          
    598                            
    599                          break;
    600                     case SCN:  
    601          
    602                           fl_lcp.act_lcp_end=0;
   \                     ??run_lcp_act_15:
   \   00000250   01FC               MOVW    R31:R30, R25:R24
   \   00000252   8502               LDD     R16, Z+10
   \   00000254   7F0E               ANDI    R16, 0xFE
   \   00000256   8702               STD     Z+10, R16
    603                           buf_tx_232[0]=0x7e; 
   \   00000258   E70E               LDI     R16, 126
   \   0000025A   930C               ST      X, R16
    604                           buf_tx_232[1]=0xff;
   \   0000025C   EF0F               LDI     R16, 255
   \   0000025E   01FD               MOVW    R31:R30, R27:R26
   \   00000260   8301               STD     Z+1, R16
    605                           buf_tx_232[2]=0x03;
   \   00000262   E003               LDI     R16, 3
   \   00000264   8302               STD     Z+2, R16
    606                           buf_tx_232[3]=0xc0;
   \   00000266   EC00               LDI     R16, 192
   \   00000268   8303               STD     Z+3, R16
    607                           buf_tx_232[4]=0x21;   
   \   0000026A   E201               LDI     R16, 33
   \   0000026C   8304               STD     Z+4, R16
    608                           
    609                           if (fl_lcp2.nac_rej==0) 
   \   0000026E   01FC               MOVW    R31:R30, R25:R24
   \   00000270   8506               LDD     R16, Z+14
   \   00000272   FD00               SBRC    R16, 0
   \   00000274   C030               RJMP    ??run_lcp_act_16
    610                               {
    611                               buf_tx_232[5]=CONF_NAK;                       
   \   00000276   E003               LDI     R16, 3
   \   00000278   01FD               MOVW    R31:R30, R27:R26
   \   0000027A   8305               STD     Z+5, R16
    612                               
    613                               buf_tx_232[6]=i_scan_lcp;
   \   0000027C   8246               STD     Z+6, R4
    614                           
    615                               temp.word=ln_nak_lcp+4;
   \   0000027E   01FC               MOVW    R31:R30, R25:R24
   \   00000280   AD12               LDD     R17, Z+58
   \   00000282   2F81               MOV     R24, R17
   \   00000284   E090               LDI     R25, 0
   \   00000286   019C               MOVW    R19:R18, R25:R24
   \   00000288   5F2C               SUBI    R18, 252
   \   0000028A   4F3F               SBCI    R19, 255
   \   0000028C   8328               ST      Y, R18
   \   0000028E   8339               STD     Y+1, R19
    616                               buf_tx_232[7]=temp.bytes[1]; 
   \   00000290   8109               LDD     R16, Y+1
   \   00000292   01FD               MOVW    R31:R30, R27:R26
   \   00000294   8307               STD     Z+7, R16
    617                               buf_tx_232[8]=temp.bytes[0];
   \   00000296   8108               LD      R16, Y
   \   00000298   8700               STD     Z+8, R16
    618                              
    619                              temp.word=temp.word+4;         
   \   0000029A   8128               LD      R18, Y
   \   0000029C   8139               LDD     R19, Y+1
   \   0000029E   5F2C               SUBI    R18, 252
   \   000002A0   4F3F               SBCI    R19, 255
   \   000002A2   8328               ST      Y, R18
   \   000002A4   8339               STD     Y+1, R19
    620                              vol_tx_ppp=temp.word+4;
   \   000002A6   8128               LD      R18, Y
   \   000002A8   8139               LDD     R19, Y+1
   \   000002AA   5F2C               SUBI    R18, 252
   \   000002AC   4F3F               SBCI    R19, 255
   \   000002AE   ....               LDI     R30, LOW(vol_tx_ppp)
   \   000002B0   ....               LDI     R31, (vol_tx_ppp) >> 8
   \   000002B2   8320               ST      Z, R18
   \   000002B4   8331               STD     Z+1, R19
    621                               
    622          
    623                                
    624                               for(i=0;i<ln_nak_lcp;i++)buf_tx_232[9+i]=buf_nak_opt_lcp[i];
   \   000002B6   E000               LDI     R16, 0
   \   000002B8   C00B               RJMP    ??run_lcp_act_17
   \                     ??run_lcp_act_18:
   \   000002BA   2F20               MOV     R18, R16
   \   000002BC   E030               LDI     R19, 0
   \   000002BE   01F9               MOVW    R31:R30, R19:R18
   \   000002C0   ....               SUBI    R30, LOW((-(buf_ack_opt_lcp) & 0xFFFF))
   \   000002C2   ....               SBCI    R31, (-(buf_ack_opt_lcp) & 0xFFFF) >> 8
   \   000002C4   8D44               LDD     R20, Z+28
   \   000002C6   01FD               MOVW    R31:R30, R27:R26
   \   000002C8   0FE2               ADD     R30, R18
   \   000002CA   1FF9               ADC     R31, R25
   \   000002CC   8741               STD     Z+9, R20
   \   000002CE   9503               INC     R16
   \                     ??run_lcp_act_17:
   \   000002D0   1701               CP      R16, R17
   \   000002D2   F398               BRCS    ??run_lcp_act_18
    625                               temp.word=pppfcs16(PPPINITFCS16,&buf_tx_232[1],temp.word) ^ 0xffff;                  
   \   000002D4   CF83               RJMP    ??run_lcp_act_13
    626                               buf_tx_232[9+ln_nak_lcp]=temp.bytes[0];
    627                               buf_tx_232[10+ln_nak_lcp]=temp.bytes[1];
    628                               buf_tx_232[11+ln_nak_lcp]=0x7e;
    629                               
    630                               count_tx_ppp=0;                             
    631                               UCSR0A=UCSR0A | TXC;                            
    632                               UCSR0B=UCSR0B | TXEN;
    633                               UCSR0B=UCSR0B | TXCIE;
    634                               if(check_cts()==1) return;   
    635                               S2_RD;
    636                               UDR0=buf_tx_232[0];
    637                               if(Regim==RG_DEBAG) UDR3=buf_tx_232[0];
    638                               
    639                               }  
    640                               else
    641                               { 
    642                               fl_lcp2.nac_rej=0;
   \                     ??run_lcp_act_16:
   \   000002D6   8506               LDD     R16, Z+14
   \   000002D8   7F0E               ANDI    R16, 0xFE
   \   000002DA   8706               STD     Z+14, R16
    643                               buf_tx_232[5]=CONF_REJ;  
   \   000002DC   E004               LDI     R16, 4
   \   000002DE   01FD               MOVW    R31:R30, R27:R26
   \   000002E0   8305               STD     Z+5, R16
    644                               buf_tx_232[6]=i_scan_lcp;
   \   000002E2   8246               STD     Z+6, R4
    645                           
    646                               temp.word=ln_rej_lcp+4;
   \   000002E4   01FC               MOVW    R31:R30, R25:R24
   \   000002E6   AD10               LDD     R17, Z+56
   \   000002E8   2F81               MOV     R24, R17
   \   000002EA   E090               LDI     R25, 0
   \   000002EC   019C               MOVW    R19:R18, R25:R24
   \   000002EE   5F2C               SUBI    R18, 252
   \   000002F0   4F3F               SBCI    R19, 255
   \   000002F2   8328               ST      Y, R18
   \   000002F4   8339               STD     Y+1, R19
    647                               buf_tx_232[7]=temp.bytes[1]; 
   \   000002F6   8109               LDD     R16, Y+1
   \   000002F8   01FD               MOVW    R31:R30, R27:R26
   \   000002FA   8307               STD     Z+7, R16
    648                               buf_tx_232[8]=temp.bytes[0];
   \   000002FC   8108               LD      R16, Y
   \   000002FE   8700               STD     Z+8, R16
    649                                           
    650                              temp.word=temp.word+4;         
   \   00000300   8128               LD      R18, Y
   \   00000302   8139               LDD     R19, Y+1
   \   00000304   5F2C               SUBI    R18, 252
   \   00000306   4F3F               SBCI    R19, 255
   \   00000308   8328               ST      Y, R18
   \   0000030A   8339               STD     Y+1, R19
    651                              vol_tx_ppp=temp.word+4; 
   \   0000030C   8128               LD      R18, Y
   \   0000030E   8139               LDD     R19, Y+1
   \   00000310   5F2C               SUBI    R18, 252
   \   00000312   4F3F               SBCI    R19, 255
   \   00000314   ....               LDI     R30, LOW(vol_tx_ppp)
   \   00000316   ....               LDI     R31, (vol_tx_ppp) >> 8
   \   00000318   8320               ST      Z, R18
   \   0000031A   8331               STD     Z+1, R19
    652                               
    653                               for(i=0;i<ln_rej_lcp;i++)buf_tx_232[9+i]=buf_rej_opt_lcp[i];
   \   0000031C   E000               LDI     R16, 0
   \   0000031E   C00B               RJMP    ??run_lcp_act_19
   \                     ??run_lcp_act_20:
   \   00000320   2F20               MOV     R18, R16
   \   00000322   E030               LDI     R19, 0
   \   00000324   01F9               MOVW    R31:R30, R19:R18
   \   00000326   ....               SUBI    R30, LOW((-(buf_rej_opt_lcp) & 0xFFFF))
   \   00000328   ....               SBCI    R31, (-(buf_rej_opt_lcp) & 0xFFFF) >> 8
   \   0000032A   8140               LD      R20, Z
   \   0000032C   01FD               MOVW    R31:R30, R27:R26
   \   0000032E   0FE2               ADD     R30, R18
   \   00000330   1FF9               ADC     R31, R25
   \   00000332   8741               STD     Z+9, R20
   \   00000334   9503               INC     R16
   \                     ??run_lcp_act_19:
   \   00000336   1701               CP      R16, R17
   \   00000338   F398               BRCS    ??run_lcp_act_20
    654                               temp.word=pppfcs16(PPPINITFCS16,&buf_tx_232[1],temp.word) ^ 0xffff;                  
   \   0000033A   8148               LD      R20, Y
   \   0000033C   8159               LDD     R21, Y+1
   \   0000033E   019D               MOVW    R19:R18, R27:R26
   \   00000340   5F2F               SUBI    R18, 255
   \   00000342   4F3F               SBCI    R19, 255
   \   00000344   EF0F               LDI     R16, 255
   \   00000346   EF1F               LDI     R17, 255
   \   00000348   ....               RCALL   pppfcs16
   \   0000034A   EF2F               LDI     R18, 255
   \   0000034C   EF3F               LDI     R19, 255
   \   0000034E   2720               EOR     R18, R16
   \   00000350   2731               EOR     R19, R17
   \   00000352   8328               ST      Y, R18
   \   00000354   8339               STD     Y+1, R19
    655                               buf_tx_232[9+ln_rej_lcp]=temp.bytes[0];
   \   00000356   01FD               MOVW    R31:R30, R27:R26
   \   00000358   0FE8               ADD     R30, R24
   \   0000035A   1FF9               ADC     R31, R25
   \   0000035C   8128               LD      R18, Y
   \   0000035E   8721               STD     Z+9, R18
    656                               buf_tx_232[10+ln_rej_lcp]=temp.bytes[1];                     
   \   00000360   8129               LDD     R18, Y+1
   \   00000362   8722               STD     Z+10, R18
    657                               buf_tx_232[11+ln_rej_lcp]=0x7e;                     
   \   00000364   E70E               LDI     R16, 126
   \   00000366   8703               STD     Z+11, R16
    658                              
    659                               count_tx_ppp=0;                             
   \   00000368   ....               LDI     R30, LOW(count_tx_ppp)
   \   0000036A   ....               LDI     R31, (count_tx_ppp) >> 8
   \   0000036C   8390               ST      Z, R25
   \   0000036E   8391               STD     Z+1, R25
    660                               UCSR0A=UCSR0A | TXC;                            
   \                     ??run_lcp_act_21:
   \   00000370   910000C0           LDS     R16, 192
   \   00000374   6400               ORI     R16, 0x40
   \   00000376   930000C0           STS     192, R16
    661                               UCSR0B=UCSR0B | TXEN;
   \   0000037A   910000C1           LDS     R16, 193
   \   0000037E   6008               ORI     R16, 0x08
   \   00000380   930000C1           STS     193, R16
    662                               UCSR0B=UCSR0B | TXCIE;
   \   00000384   910000C1           LDS     R16, 193
   \   00000388   6400               ORI     R16, 0x40
   \   0000038A   930000C1           STS     193, R16
    663                               if(check_cts()==1) return;   
   \   0000038E   ........           CALL    check_cts
   \   00000392   3001               CPI     R16, 1
   \   00000394   F409               BRNE    $+2+2
   \   00000396   C0FA               RJMP    ??run_lcp_act_3
    664                               S2_RD;
   \   00000398   9A40               SBI     0x08, 0x00
   \   0000039A   9841               CBI     0x08, 0x01
    665                               UDR0=buf_tx_232[0]; 
   \   0000039C   910C               LD      R16, X
   \   0000039E   930000C6           STS     198, R16
    666                               if(Regim==RG_DEBAG) UDR3=buf_tx_232[0];
   \   000003A2   9100....           LDS     R16, Regim
   \   000003A6   3001               CPI     R16, 1
   \   000003A8   F009               BREQ    $+2+2
   \   000003AA   C0F0               RJMP    ??run_lcp_act_3
   \   000003AC   CED6               RJMP    ??run_lcp_act_9
    667                               }   
    668                               
    669          
    670                               
    671                          break; 
    672                     case STR: 
    673                           fl_lcp.act_lcp_end=0;
   \                     ??run_lcp_act_22:
   \   000003AE   01FC               MOVW    R31:R30, R25:R24
   \   000003B0   8502               LDD     R16, Z+10
   \   000003B2   7F0E               ANDI    R16, 0xFE
   \   000003B4   8702               STD     Z+10, R16
    674                           buf_tx_232[0]=0x7e; 
   \   000003B6   E70E               LDI     R16, 126
   \   000003B8   930C               ST      X, R16
    675                           buf_tx_232[1]=0xff;
   \   000003BA   EF0F               LDI     R16, 255
   \   000003BC   01FD               MOVW    R31:R30, R27:R26
   \   000003BE   8301               STD     Z+1, R16
    676                           buf_tx_232[2]=0x03;
   \   000003C0   E003               LDI     R16, 3
   \   000003C2   8302               STD     Z+2, R16
    677                           buf_tx_232[3]=0xc0;
   \   000003C4   EC00               LDI     R16, 192
   \   000003C6   8303               STD     Z+3, R16
    678                           buf_tx_232[4]=0x21;
   \   000003C8   E201               LDI     R16, 33
   \   000003CA   8304               STD     Z+4, R16
    679                           buf_tx_232[5]=TERM_REQ;  
   \   000003CC   E005               LDI     R16, 5
   \   000003CE   8305               STD     Z+5, R16
    680                           buf_tx_232[6]=i_str_lcp; 
   \   000003D0   01FC               MOVW    R31:R30, R25:R24
   \   000003D2   A900               LDD     R16, Z+48
   \   000003D4   01FD               MOVW    R31:R30, R27:R26
   \   000003D6   8306               STD     Z+6, R16
    681                           
    682                           buf_tx_232[7]=0; 
   \   000003D8   E000               LDI     R16, 0
   \   000003DA   8307               STD     Z+7, R16
    683                           buf_tx_232[8]=0x4;
   \   000003DC   E004               LDI     R16, 4
   \   000003DE   8700               STD     Z+8, R16
    684                           
    685                           vol_tx_ppp=buf_tx_232[8]+8;
   \   000003E0   E00C               LDI     R16, 12
   \   000003E2   E010               LDI     R17, 0
   \   000003E4   ....               LDI     R30, LOW(vol_tx_ppp)
   \   000003E6   ....               LDI     R31, (vol_tx_ppp) >> 8
   \   000003E8   8300               ST      Z, R16
   \   000003EA   8311               STD     Z+1, R17
    686                           
    687                           temp.word=pppfcs16(PPPINITFCS16,&buf_tx_232[1],buf_tx_232[8]+4) ^ 0xffff;                  
   \   000003EC   E048               LDI     R20, 8
   \   000003EE   E050               LDI     R21, 0
   \   000003F0   019D               MOVW    R19:R18, R27:R26
   \   000003F2   5F2F               SUBI    R18, 255
   \   000003F4   4F3F               SBCI    R19, 255
   \   000003F6   EF0F               LDI     R16, 255
   \   000003F8   EF1F               LDI     R17, 255
   \   000003FA   ....               RCALL   pppfcs16
   \   000003FC   EF2F               LDI     R18, 255
   \   000003FE   EF3F               LDI     R19, 255
   \   00000400   2720               EOR     R18, R16
   \   00000402   2731               EOR     R19, R17
   \   00000404   8328               ST      Y, R18
   \   00000406   8339               STD     Y+1, R19
    688                           buf_tx_232[9]=temp.bytes[0];
   \   00000408   8108               LD      R16, Y
   \   0000040A   01FD               MOVW    R31:R30, R27:R26
   \   0000040C   8701               STD     Z+9, R16
    689                           buf_tx_232[10]=temp.bytes[1];
   \   0000040E   8109               LDD     R16, Y+1
   \   00000410   8702               STD     Z+10, R16
    690                           
    691                           buf_tx_232[11]=0x7e;  
   \   00000412   E70E               LDI     R16, 126
   \   00000414   8703               STD     Z+11, R16
    692                           
    693                           
    694                           count_tx_ppp=0;                             
   \   00000416   E000               LDI     R16, 0
   \   00000418   ....               LDI     R30, LOW(count_tx_ppp)
   \   0000041A   ....               LDI     R31, (count_tx_ppp) >> 8
   \   0000041C   8300               ST      Z, R16
   \   0000041E   8301               STD     Z+1, R16
    695                               UCSR0A=UCSR0A | TXC;                            
   \   00000420   CEF8               RJMP    ??run_lcp_act_14
    696                               UCSR0B=UCSR0B | TXEN;
    697                               UCSR0B=UCSR0B | TXCIE;
    698                               if(check_cts()==1) return;
    699                           S2_RD;
    700                           UDR0=buf_tx_232[0];
    701                           if(Regim==RG_DEBAG) UDR3=buf_tx_232[0];
    702                           
    703                            
    704                          break; 
    705                     case STA:    
    706                           fl_lcp.act_lcp_end=0;
   \                     ??run_lcp_act_23:
   \   00000422   01FC               MOVW    R31:R30, R25:R24
   \   00000424   8502               LDD     R16, Z+10
   \   00000426   7F0E               ANDI    R16, 0xFE
   \   00000428   8702               STD     Z+10, R16
    707                           buf_tx_232[0]=0x7e; 
   \   0000042A   E70E               LDI     R16, 126
   \   0000042C   930C               ST      X, R16
    708                           buf_tx_232[1]=0xff;
   \   0000042E   EF0F               LDI     R16, 255
   \   00000430   01FD               MOVW    R31:R30, R27:R26
   \   00000432   8301               STD     Z+1, R16
    709                           buf_tx_232[2]=0x03;
   \   00000434   E003               LDI     R16, 3
   \   00000436   8302               STD     Z+2, R16
    710                           buf_tx_232[3]=0xc0;
   \   00000438   EC00               LDI     R16, 192
   \   0000043A   8303               STD     Z+3, R16
    711                           buf_tx_232[4]=0x21;
   \   0000043C   E201               LDI     R16, 33
   \   0000043E   8304               STD     Z+4, R16
    712                           buf_tx_232[5]=TERM_ACK;  
   \   00000440   E006               LDI     R16, 6
   \   00000442   8305               STD     Z+5, R16
    713                           
    714                            buf_tx_232[6]=i_sta_lcp; 
   \   00000444   01FC               MOVW    R31:R30, R25:R24
   \   00000446   A901               LDD     R16, Z+49
   \   00000448   01FD               MOVW    R31:R30, R27:R26
   \   0000044A   8306               STD     Z+6, R16
    715                           
    716                           buf_tx_232[7]=0; 
   \   0000044C   E000               LDI     R16, 0
   \   0000044E   8307               STD     Z+7, R16
    717                           buf_tx_232[8]=0x4;
   \   00000450   E004               LDI     R16, 4
   \   00000452   8700               STD     Z+8, R16
    718                           
    719                           vol_tx_ppp=buf_tx_232[8]+8;
   \   00000454   E00C               LDI     R16, 12
   \   00000456   E010               LDI     R17, 0
   \   00000458   ....               LDI     R30, LOW(vol_tx_ppp)
   \   0000045A   ....               LDI     R31, (vol_tx_ppp) >> 8
   \   0000045C   8300               ST      Z, R16
   \   0000045E   8311               STD     Z+1, R17
    720                           
    721                           temp.word=pppfcs16(PPPINITFCS16,&buf_tx_232[1],buf_tx_232[8]+4) ^ 0xffff;                  
   \   00000460   E048               LDI     R20, 8
   \   00000462   E050               LDI     R21, 0
   \   00000464   019D               MOVW    R19:R18, R27:R26
   \   00000466   5F2F               SUBI    R18, 255
   \   00000468   4F3F               SBCI    R19, 255
   \   0000046A   EF0F               LDI     R16, 255
   \   0000046C   EF1F               LDI     R17, 255
   \   0000046E   ....               RCALL   pppfcs16
   \   00000470   EF2F               LDI     R18, 255
   \   00000472   EF3F               LDI     R19, 255
   \   00000474   2720               EOR     R18, R16
   \   00000476   2731               EOR     R19, R17
   \   00000478   8328               ST      Y, R18
   \   0000047A   8339               STD     Y+1, R19
    722                           buf_tx_232[9]=temp.bytes[0];
   \   0000047C   8108               LD      R16, Y
   \   0000047E   01FD               MOVW    R31:R30, R27:R26
   \   00000480   8701               STD     Z+9, R16
    723                           buf_tx_232[10]=temp.bytes[1];
   \   00000482   8109               LDD     R16, Y+1
   \   00000484   8702               STD     Z+10, R16
    724                           
    725                           buf_tx_232[11]=0x7e;  
   \   00000486   E70E               LDI     R16, 126
   \   00000488   8703               STD     Z+11, R16
    726                          
    727                           count_tx_ppp=0;                             
   \   0000048A   E000               LDI     R16, 0
   \   0000048C   ....               LDI     R30, LOW(count_tx_ppp)
   \   0000048E   ....               LDI     R31, (count_tx_ppp) >> 8
   \   00000490   8300               ST      Z, R16
   \   00000492   8301               STD     Z+1, R16
    728                               UCSR0A=UCSR0A | TXC;                            
   \   00000494   CF6D               RJMP    ??run_lcp_act_21
    729                               UCSR0B=UCSR0B | TXEN;
    730                               UCSR0B=UCSR0B | TXCIE;
    731                               if(check_cts()==1) return;
    732                           S2_RD;
    733                           UDR0=buf_tx_232[0]; 
    734                           if(Regim==RG_DEBAG) UDR3=buf_tx_232[0];
    735                          
    736                          break;           
    737                                             
    738                     case SCJ:   
    739                           fl_lcp.act_lcp_end=0;
   \                     ??run_lcp_act_24:
   \   00000496   01FC               MOVW    R31:R30, R25:R24
   \   00000498   8502               LDD     R16, Z+10
   \   0000049A   7F0E               ANDI    R16, 0xFE
   \   0000049C   8702               STD     Z+10, R16
    740                           buf_tx_232[0]=0x7e; 
   \   0000049E   E70E               LDI     R16, 126
   \   000004A0   930C               ST      X, R16
    741                           buf_tx_232[1]=0xff;
   \   000004A2   EF0F               LDI     R16, 255
   \   000004A4   01FD               MOVW    R31:R30, R27:R26
   \   000004A6   8301               STD     Z+1, R16
    742                           buf_tx_232[2]=0x03;
   \   000004A8   E003               LDI     R16, 3
   \   000004AA   8302               STD     Z+2, R16
    743                           buf_tx_232[3]=0xc0;
   \   000004AC   EC00               LDI     R16, 192
   \   000004AE   8303               STD     Z+3, R16
    744                           buf_tx_232[4]=0x21;  
   \   000004B0   E201               LDI     R16, 33
   \   000004B2   8304               STD     Z+4, R16
    745                           buf_tx_232[5]=CODE_REJ; 
   \   000004B4   E007               LDI     R16, 7
   \   000004B6   8305               STD     Z+5, R16
    746                           
    747                           buf_tx_232[6]=i_scj_lcp;
   \   000004B8   01FC               MOVW    R31:R30, R25:R24
   \   000004BA   A507               LDD     R16, Z+47
   \   000004BC   01FD               MOVW    R31:R30, R27:R26
   \   000004BE   8306               STD     Z+6, R16
    748                           i_scj_lcp++;
   \   000004C0   01FC               MOVW    R31:R30, R25:R24
   \   000004C2   A507               LDD     R16, Z+47
   \   000004C4   9503               INC     R16
   \   000004C6   A707               STD     Z+47, R16
    749                           
    750                           temp.word=ln_rejc_lcp+4;
   \   000004C8   A917               LDD     R17, Z+55
   \   000004CA   2F81               MOV     R24, R17
   \   000004CC   E090               LDI     R25, 0
   \   000004CE   019C               MOVW    R19:R18, R25:R24
   \   000004D0   5F2C               SUBI    R18, 252
   \   000004D2   4F3F               SBCI    R19, 255
   \   000004D4   8328               ST      Y, R18
   \   000004D6   8339               STD     Y+1, R19
    751                           buf_tx_232[7]=temp.bytes[1]; 
   \   000004D8   8109               LDD     R16, Y+1
   \   000004DA   01FD               MOVW    R31:R30, R27:R26
   \   000004DC   8307               STD     Z+7, R16
    752                           buf_tx_232[8]=temp.bytes[0];
   \   000004DE   8108               LD      R16, Y
   \   000004E0   8700               STD     Z+8, R16
    753                         
    754                           temp.word=temp.word+4;         
   \   000004E2   8128               LD      R18, Y
   \   000004E4   8139               LDD     R19, Y+1
   \   000004E6   5F2C               SUBI    R18, 252
   \   000004E8   4F3F               SBCI    R19, 255
   \   000004EA   8328               ST      Y, R18
   \   000004EC   8339               STD     Y+1, R19
    755                           vol_tx_ppp=temp.word+4;  
   \   000004EE   8128               LD      R18, Y
   \   000004F0   8139               LDD     R19, Y+1
   \   000004F2   5F2C               SUBI    R18, 252
   \   000004F4   4F3F               SBCI    R19, 255
   \   000004F6   ....               LDI     R30, LOW(vol_tx_ppp)
   \   000004F8   ....               LDI     R31, (vol_tx_ppp) >> 8
   \   000004FA   8320               ST      Z, R18
   \   000004FC   8331               STD     Z+1, R19
    756                          
    757                          
    758                
    759                           
    760                          for(i=0;i<ln_rejc_lcp;i++)buf_tx_232[9+i]=buf_rejc_opt_lcp[i];
   \   000004FE   E000               LDI     R16, 0
   \   00000500   C00B               RJMP    ??run_lcp_act_25
   \                     ??run_lcp_act_26:
   \   00000502   2F20               MOV     R18, R16
   \   00000504   E030               LDI     R19, 0
   \   00000506   01F9               MOVW    R31:R30, R19:R18
   \   00000508   ....               SUBI    R30, LOW((-(buf_rejc_opt_lcp) & 0xFFFF))
   \   0000050A   ....               SBCI    R31, (-(buf_rejc_opt_lcp) & 0xFFFF) >> 8
   \   0000050C   8140               LD      R20, Z
   \   0000050E   01FD               MOVW    R31:R30, R27:R26
   \   00000510   0FE2               ADD     R30, R18
   \   00000512   1FF9               ADC     R31, R25
   \   00000514   8741               STD     Z+9, R20
   \   00000516   9503               INC     R16
   \                     ??run_lcp_act_25:
   \   00000518   1701               CP      R16, R17
   \   0000051A   F398               BRCS    ??run_lcp_act_26
    761                          temp.word=pppfcs16(PPPINITFCS16,&buf_tx_232[1],temp.word) ^ 0xffff;                  
   \   0000051C   8148               LD      R20, Y
   \   0000051E   8159               LDD     R21, Y+1
   \   00000520   019D               MOVW    R19:R18, R27:R26
   \   00000522   5F2F               SUBI    R18, 255
   \   00000524   4F3F               SBCI    R19, 255
   \   00000526   EF0F               LDI     R16, 255
   \   00000528   EF1F               LDI     R17, 255
   \   0000052A   ....               RCALL   pppfcs16
   \   0000052C   EF2F               LDI     R18, 255
   \   0000052E   EF3F               LDI     R19, 255
   \   00000530   2720               EOR     R18, R16
   \   00000532   2731               EOR     R19, R17
   \   00000534   8328               ST      Y, R18
   \   00000536   8339               STD     Y+1, R19
    762                          
    763                          buf_tx_232[9+ln_rejc_lcp]=temp.bytes[0];
   \   00000538   01FD               MOVW    R31:R30, R27:R26
   \   0000053A   0FE8               ADD     R30, R24
   \   0000053C   1FF9               ADC     R31, R25
   \   0000053E   8128               LD      R18, Y
   \   00000540   8721               STD     Z+9, R18
    764                          buf_tx_232[10+ln_rejc_lcp]=temp.bytes[1];                     
   \   00000542   8129               LDD     R18, Y+1
   \   00000544   8722               STD     Z+10, R18
    765                          buf_tx_232[11+ln_rejc_lcp]=0x7e;    
   \   00000546   E70E               LDI     R16, 126
   \   00000548   8703               STD     Z+11, R16
    766                          
    767                           count_tx_ppp=0;                             
   \   0000054A   ....               LDI     R30, LOW(count_tx_ppp)
   \   0000054C   ....               LDI     R31, (count_tx_ppp) >> 8
   \   0000054E   8390               ST      Z, R25
   \   00000550   8391               STD     Z+1, R25
    768                               UCSR0A=UCSR0A | TXC;                            
   \   00000552   910000C0           LDS     R16, 192
   \   00000556   6400               ORI     R16, 0x40
   \   00000558   930000C0           STS     192, R16
    769                               UCSR0B=UCSR0B | TXEN;
   \   0000055C   910000C1           LDS     R16, 193
   \   00000560   6008               ORI     R16, 0x08
   \   00000562   930000C1           STS     193, R16
    770                               UCSR0B=UCSR0B | TXCIE;
   \   00000566   910000C1           LDS     R16, 193
   \   0000056A   6400               ORI     R16, 0x40
   \   0000056C   930000C1           STS     193, R16
    771                               if(check_cts()==1) return;
   \   00000570   ........           CALL    check_cts
   \   00000574   3001               CPI     R16, 1
   \   00000576   F051               BREQ    ??run_lcp_act_3
    772                           S2_RD;
   \   00000578   9A40               SBI     0x08, 0x00
   \   0000057A   9841               CBI     0x08, 0x01
    773                           UDR0=buf_tx_232[0];
   \   0000057C   910C               LD      R16, X
   \   0000057E   930000C6           STS     198, R16
    774                           if(Regim==RG_DEBAG) UDR3=buf_tx_232[0];
   \   00000582   9100....           LDS     R16, Regim
   \   00000586   3001               CPI     R16, 1
   \   00000588   F409               BRNE    $+2+2
   \   0000058A   CDE7               RJMP    ??run_lcp_act_9
   \                     ??run_lcp_act_3:
   \   0000058C   9622               ADIW    R29:R28, 2
   \   0000058E   E0E5               LDI     R30, 5
   \   00000590   ........           JMP     ?EPILOGUE_B5_L09
    775                          break;  
    776                    // case SER:
    777                    //      break;       
    778                    }                  
    779                }
    780          
    781          
    782          

   \                                 In segment CODE, align 2, keep-with-next
    783          void monitor_act_PAP(void)
   \                     monitor_act_PAP:
    784                {  
   \   00000000   ........           CALL    ?PROLOGUE4_L09
   \   00000004   9723               SBIW    R29:R28, 3
    785                 
    786                // unsigned char i;
    787                 unsigned char temp1;
    788                 
    789                 union
    790               {
    791                unsigned char bytes[2]; 
    792                unsigned int word;
    793               }temp;
    794                
    795                 
    796                 if((pap_act_buf==SCR)&&(fl_pap.act_pap_end==1)&&(fl_lcp.act_lcp_end==1)&&(fl_ipcp.act_ipcp_end==1)&&(fl_ip.act_ip_end==1))
   \   00000006   ....               LDI     R16, LOW(ip_pri_dns)
   \   00000008   ....               LDI     R17, (ip_pri_dns) >> 8
   \   0000000A   01F8               MOVW    R31:R30, R17:R16
   \   0000000C   8920               LDD     R18, Z+16
   \   0000000E   3026               CPI     R18, 6
   \   00000010   F009               BREQ    $+2+2
   \   00000012   C131               RJMP    ??monitor_act_PAP_0
   \   00000014   8525               LDD     R18, Z+13
   \   00000016   7021               ANDI    R18, 0x01
   \   00000018   8532               LDD     R19, Z+10
   \   0000001A   7031               ANDI    R19, 0x01
   \   0000001C   2332               AND     R19, R18
   \   0000001E   8523               LDD     R18, Z+11
   \   00000020   7021               ANDI    R18, 0x01
   \   00000022   2323               AND     R18, R19
   \   00000024   8534               LDD     R19, Z+12
   \   00000026   7031               ANDI    R19, 0x01
   \   00000028   2332               AND     R19, R18
   \   0000002A   F409               BRNE    $+2+2
   \   0000002C   C124               RJMP    ??monitor_act_PAP_0
    797                  {        
    798                         
    799                          
    800                          
    801                           pap_act_buf=NO_EVENT;
   \   0000002E   EF2F               LDI     R18, 255
   \   00000030   8B20               STD     Z+16, R18
    802                            
    803                           fl_pap.act_pap_end=0;
   \   00000032   8525               LDD     R18, Z+13
   \   00000034   7F2E               ANDI    R18, 0xFE
   \   00000036   8725               STD     Z+13, R18
    804                           buf_tx_232[0]=0x7e; 
   \   00000038   ....               LDI     R26, LOW(buf_tx_232)
   \   0000003A   ....               LDI     R27, (buf_tx_232) >> 8
   \   0000003C   E72E               LDI     R18, 126
   \   0000003E   932C               ST      X, R18
    805                           buf_tx_232[1]=0xc0;
   \   00000040   EC20               LDI     R18, 192
   \   00000042   01FD               MOVW    R31:R30, R27:R26
   \   00000044   8321               STD     Z+1, R18
    806                           buf_tx_232[2]=0x23;
   \   00000046   E223               LDI     R18, 35
   \   00000048   8322               STD     Z+2, R18
    807                           
    808                           buf_tx_232[3]=CONF_REQ; 
   \   0000004A   E021               LDI     R18, 1
   \   0000004C   8323               STD     Z+3, R18
    809                           
    810                           i_scr_pap++;
   \   0000004E   01F8               MOVW    R31:R30, R17:R16
   \   00000050   A926               LDD     R18, Z+54
   \   00000052   9523               INC     R18
   \   00000054   AB26               STD     Z+54, R18
    811                           buf_tx_232[4]=i_scr_pap;         
   \   00000056   A906               LDD     R16, Z+54
   \   00000058   01FD               MOVW    R31:R30, R27:R26
   \   0000005A   8304               STD     Z+4, R16
    812                          
    813                           
    814              if(simka==SIM_BASE)//!!!!!!!!!!dobavka
   \   0000005C   9100....           LDS     R16, simka
   \   00000060   2300               TST     R16
   \   00000062   E041               LDI     R20, 1
   \   00000064   E050               LDI     R21, 0
   \   00000066   019E               MOVW    R19:R18, R29:R28
   \   00000068   F009               BREQ    $+2+2
   \   0000006A   C055               RJMP    ??monitor_act_PAP_1
    815                           {
    816                           RdFromFleshToArr(A_C_GPRS,&temp1,1);// количество байт APN                 
   \   0000006C   5F2E               SUBI    R18, 254
   \   0000006E   4F3F               SBCI    R19, 255
   \   00000070   E104               LDI     R16, 20
   \   00000072   E010               LDI     R17, 0
   \   00000074   ........           CALL    RdFromFleshToArr
    817                           RdFromFleshToArr(A_C_GPRS+temp1+1,&temp.bytes[0],1);// количество логина
   \   00000078   E041               LDI     R20, 1
   \   0000007A   E050               LDI     R21, 0
   \   0000007C   019E               MOVW    R19:R18, R29:R28
   \   0000007E   810A               LDD     R16, Y+2
   \   00000080   E010               LDI     R17, 0
   \   00000082   5E0B               SUBI    R16, 235
   \   00000084   4F1F               SBCI    R17, 255
   \   00000086   ........           CALL    RdFromFleshToArr
    818                           RdFromFleshToArr(A_C_GPRS+temp1+temp.bytes[0]+2,&temp.bytes[1],1);// количество пароля
   \   0000008A   E041               LDI     R20, 1
   \   0000008C   E050               LDI     R21, 0
   \   0000008E   019E               MOVW    R19:R18, R29:R28
   \   00000090   5F2F               SUBI    R18, 255
   \   00000092   4F3F               SBCI    R19, 255
   \   00000094   816A               LDD     R22, Y+2
   \   00000096   8108               LD      R16, Y
   \   00000098   E010               LDI     R17, 0
   \   0000009A   0F06               ADD     R16, R22
   \   0000009C   1F15               ADC     R17, R21
   \   0000009E   5E0A               SUBI    R16, 234
   \   000000A0   4F1F               SBCI    R17, 255
   \   000000A2   ........           CALL    RdFromFleshToArr
    819                           
    820                        
    821                           if((temp.bytes[0]==0)||(temp.bytes[0]>MAX_VOL_US_NAME)) buf_tx_232[7]=0;
   \   000000A6   8108               LD      R16, Y
   \   000000A8   2300               TST     R16
   \   000000AA   F019               BREQ    ??monitor_act_PAP_2
   \   000000AC   8108               LD      R16, Y
   \   000000AE   300D               CPI     R16, 13
   \   000000B0   F020               BRCS    ??monitor_act_PAP_3
   \                     ??monitor_act_PAP_2:
   \   000000B2   E000               LDI     R16, 0
   \   000000B4   01FD               MOVW    R31:R30, R27:R26
   \   000000B6   8307               STD     Z+7, R16
   \   000000B8   C00E               RJMP    ??monitor_act_PAP_4
    822                              else {buf_tx_232[7]=temp.bytes[0];RdFromFleshToArr(A_C_GPRS+temp1+2,&buf_tx_232[8],temp.bytes[0]);}
   \                     ??monitor_act_PAP_3:
   \   000000BA   8108               LD      R16, Y
   \   000000BC   01FD               MOVW    R31:R30, R27:R26
   \   000000BE   8307               STD     Z+7, R16
   \   000000C0   8148               LD      R20, Y
   \   000000C2   E050               LDI     R21, 0
   \   000000C4   019D               MOVW    R19:R18, R27:R26
   \   000000C6   5F28               SUBI    R18, 248
   \   000000C8   4F3F               SBCI    R19, 255
   \   000000CA   810A               LDD     R16, Y+2
   \   000000CC   E010               LDI     R17, 0
   \   000000CE   5E0A               SUBI    R16, 234
   \   000000D0   4F1F               SBCI    R17, 255
   \   000000D2   ........           CALL    RdFromFleshToArr
    823                         
    824                           if((temp.bytes[1]==0)||(temp.bytes[1]>MAX_VOL_PSW)) buf_tx_232[8+buf_tx_232[7]]=0;
   \                     ??monitor_act_PAP_4:
   \   000000D6   8149               LDD     R20, Y+1
   \   000000D8   2344               TST     R20
   \   000000DA   F011               BREQ    ??monitor_act_PAP_5
   \   000000DC   304D               CPI     R20, 13
   \   000000DE   F038               BRCS    ??monitor_act_PAP_6
   \                     ??monitor_act_PAP_5:
   \   000000E0   E000               LDI     R16, 0
   \   000000E2   01FD               MOVW    R31:R30, R27:R26
   \   000000E4   8127               LDD     R18, Z+7
   \   000000E6   0FE2               ADD     R30, R18
   \   000000E8   1FF0               ADC     R31, R16
   \   000000EA   8700               STD     Z+8, R16
   \   000000EC   C066               RJMP    ??monitor_act_PAP_7
    825                              else {buf_tx_232[8+buf_tx_232[7]]=temp.bytes[1];RdFromFleshToArr(A_C_GPRS+temp1+temp.bytes[0]+3,&buf_tx_232[9+buf_tx_232[7]],temp.bytes[1]);}
   \                     ??monitor_act_PAP_6:
   \   000000EE   01FD               MOVW    R31:R30, R27:R26
   \   000000F0   8107               LDD     R16, Z+7
   \   000000F2   E010               LDI     R17, 0
   \   000000F4   0FE0               ADD     R30, R16
   \   000000F6   1FF1               ADC     R31, R17
   \   000000F8   8740               STD     Z+8, R20
   \   000000FA   E050               LDI     R21, 0
   \   000000FC   01FD               MOVW    R31:R30, R27:R26
   \   000000FE   8107               LDD     R16, Z+7
   \   00000100   019D               MOVW    R19:R18, R27:R26
   \   00000102   0F20               ADD     R18, R16
   \   00000104   1F35               ADC     R19, R21
   \   00000106   5F27               SUBI    R18, 247
   \   00000108   4F3F               SBCI    R19, 255
   \   0000010A   816A               LDD     R22, Y+2
   \   0000010C   8108               LD      R16, Y
   \   0000010E   0F06               ADD     R16, R22
   \   00000110   1F15               ADC     R17, R21
   \   00000112   5E09               SUBI    R16, 233
   \   00000114   C04F               RJMP    ??monitor_act_PAP_8
    826                           }
    827                           else   //!!!!!!!!!!dobavka
    828                           {
    829                           RdFromFleshToArr(A_CR_GPRS,&temp1,1);// количество байт APN                 
   \                     ??monitor_act_PAP_1:
   \   00000116   5F2E               SUBI    R18, 254
   \   00000118   4F3F               SBCI    R19, 255
   \   0000011A   E500               LDI     R16, 80
   \   0000011C   E010               LDI     R17, 0
   \   0000011E   ........           CALL    RdFromFleshToArr
    830                           RdFromFleshToArr(A_CR_GPRS+temp1+1,&temp.bytes[0],1);// количество логина
   \   00000122   E041               LDI     R20, 1
   \   00000124   E050               LDI     R21, 0
   \   00000126   019E               MOVW    R19:R18, R29:R28
   \   00000128   810A               LDD     R16, Y+2
   \   0000012A   E010               LDI     R17, 0
   \   0000012C   5A0F               SUBI    R16, 175
   \   0000012E   4F1F               SBCI    R17, 255
   \   00000130   ........           CALL    RdFromFleshToArr
    831                           RdFromFleshToArr(A_CR_GPRS+temp1+temp.bytes[0]+2,&temp.bytes[1],1);// количество пароля
   \   00000134   E041               LDI     R20, 1
   \   00000136   E050               LDI     R21, 0
   \   00000138   019E               MOVW    R19:R18, R29:R28
   \   0000013A   5F2F               SUBI    R18, 255
   \   0000013C   4F3F               SBCI    R19, 255
   \   0000013E   816A               LDD     R22, Y+2
   \   00000140   8108               LD      R16, Y
   \   00000142   E010               LDI     R17, 0
   \   00000144   0F06               ADD     R16, R22
   \   00000146   1F15               ADC     R17, R21
   \   00000148   5A0E               SUBI    R16, 174
   \   0000014A   4F1F               SBCI    R17, 255
   \   0000014C   ........           CALL    RdFromFleshToArr
    832                           
    833                        
    834                           if((temp.bytes[0]==0)||(temp.bytes[0]>MAX_VOL_US_NAME)) buf_tx_232[7]=0;
   \   00000150   8108               LD      R16, Y
   \   00000152   2300               TST     R16
   \   00000154   F019               BREQ    ??monitor_act_PAP_9
   \   00000156   8108               LD      R16, Y
   \   00000158   300D               CPI     R16, 13
   \   0000015A   F020               BRCS    ??monitor_act_PAP_10
   \                     ??monitor_act_PAP_9:
   \   0000015C   E000               LDI     R16, 0
   \   0000015E   01FD               MOVW    R31:R30, R27:R26
   \   00000160   8307               STD     Z+7, R16
   \   00000162   C00E               RJMP    ??monitor_act_PAP_11
    835                              else {buf_tx_232[7]=temp.bytes[0];RdFromFleshToArr(A_CR_GPRS+temp1+2,&buf_tx_232[8],temp.bytes[0]);}
   \                     ??monitor_act_PAP_10:
   \   00000164   8108               LD      R16, Y
   \   00000166   01FD               MOVW    R31:R30, R27:R26
   \   00000168   8307               STD     Z+7, R16
   \   0000016A   8148               LD      R20, Y
   \   0000016C   E050               LDI     R21, 0
   \   0000016E   019D               MOVW    R19:R18, R27:R26
   \   00000170   5F28               SUBI    R18, 248
   \   00000172   4F3F               SBCI    R19, 255
   \   00000174   810A               LDD     R16, Y+2
   \   00000176   E010               LDI     R17, 0
   \   00000178   5A0E               SUBI    R16, 174
   \   0000017A   4F1F               SBCI    R17, 255
   \   0000017C   ........           CALL    RdFromFleshToArr
    836                         
    837                           if((temp.bytes[1]==0)||(temp.bytes[1]>MAX_VOL_PSW)) buf_tx_232[8+buf_tx_232[7]]=0;
   \                     ??monitor_act_PAP_11:
   \   00000180   8149               LDD     R20, Y+1
   \   00000182   2344               TST     R20
   \   00000184   F409               BRNE    $+2+2
   \   00000186   CFAC               RJMP    ??monitor_act_PAP_5
   \   00000188   304D               CPI     R20, 13
   \   0000018A   F008               BRCS    $+2+2
   \   0000018C   CFA9               RJMP    ??monitor_act_PAP_5
    838                              else {buf_tx_232[8+buf_tx_232[7]]=temp.bytes[1];RdFromFleshToArr(A_CR_GPRS+temp1+temp.bytes[0]+3,&buf_tx_232[9+buf_tx_232[7]],temp.bytes[1]);}
   \   0000018E   01FD               MOVW    R31:R30, R27:R26
   \   00000190   8107               LDD     R16, Z+7
   \   00000192   E010               LDI     R17, 0
   \   00000194   0FE0               ADD     R30, R16
   \   00000196   1FF1               ADC     R31, R17
   \   00000198   8740               STD     Z+8, R20
   \   0000019A   E050               LDI     R21, 0
   \   0000019C   01FD               MOVW    R31:R30, R27:R26
   \   0000019E   8107               LDD     R16, Z+7
   \   000001A0   019D               MOVW    R19:R18, R27:R26
   \   000001A2   0F20               ADD     R18, R16
   \   000001A4   1F35               ADC     R19, R21
   \   000001A6   5F27               SUBI    R18, 247
   \   000001A8   4F3F               SBCI    R19, 255
   \   000001AA   816A               LDD     R22, Y+2
   \   000001AC   8108               LD      R16, Y
   \   000001AE   0F06               ADD     R16, R22
   \   000001B0   1F15               ADC     R17, R21
   \   000001B2   5A0D               SUBI    R16, 173
   \                     ??monitor_act_PAP_8:
   \   000001B4   4F1F               SBCI    R17, 255
   \   000001B6   ........           CALL    RdFromFleshToArr
   \                     ??monitor_act_PAP_7:
   \   000001BA   01FD               MOVW    R31:R30, R27:R26
   \   000001BC   8107               LDD     R16, Z+7
   \   000001BE   E010               LDI     R17, 0
   \   000001C0   0FE0               ADD     R30, R16
   \   000001C2   1FF1               ADC     R31, R17
   \   000001C4   8580               LDD     R24, Z+8
   \   000001C6   E090               LDI     R25, 0
   \   000001C8   0F80               ADD     R24, R16
   \   000001CA   1F91               ADC     R25, R17
   \   000001CC   9606               ADIW    R25:R24, 6
   \   000001CE   8388               ST      Y, R24
   \   000001D0   8399               STD     Y+1, R25
    839                           }
    840                            //!!!!!!!!!!dobavka       
    841            
    842                             
    843                           
    844                           
    845                           temp.word=6+buf_tx_232[7]+buf_tx_232[8+buf_tx_232[7]];
    846                           
    847                          
    848                            
    849                           buf_tx_232[5]=temp.bytes[1]; 
   \   000001D2   8109               LDD     R16, Y+1
   \   000001D4   01FD               MOVW    R31:R30, R27:R26
   \   000001D6   8305               STD     Z+5, R16
    850                           buf_tx_232[6]=temp.bytes[0]; 
   \   000001D8   8108               LD      R16, Y
   \   000001DA   8306               STD     Z+6, R16
    851                           
    852                           temp.word=temp.word+2;
   \   000001DC   8108               LD      R16, Y
   \   000001DE   8119               LDD     R17, Y+1
   \   000001E0   5F0E               SUBI    R16, 254
   \   000001E2   4F1F               SBCI    R17, 255
   \   000001E4   8308               ST      Y, R16
   \   000001E6   8319               STD     Y+1, R17
    853                           vol_tx_ppp=temp.word+4;
   \   000001E8   8188               LD      R24, Y
   \   000001EA   8199               LDD     R25, Y+1
   \   000001EC   9604               ADIW    R25:R24, 4
   \   000001EE   ....               LDI     R30, LOW(vol_tx_ppp)
   \   000001F0   ....               LDI     R31, (vol_tx_ppp) >> 8
   \   000001F2   8380               ST      Z, R24
   \   000001F4   8391               STD     Z+1, R25
    854                            
    855                           
    856                           
    857                            
    858          
    859                           temp.word=pppfcs16(PPPINITFCS16,&buf_tx_232[1],temp.word) ^ 0xffff;                  
   \   000001F6   8148               LD      R20, Y
   \   000001F8   8159               LDD     R21, Y+1
   \   000001FA   019D               MOVW    R19:R18, R27:R26
   \   000001FC   5F2F               SUBI    R18, 255
   \   000001FE   4F3F               SBCI    R19, 255
   \   00000200   EF0F               LDI     R16, 255
   \   00000202   EF1F               LDI     R17, 255
   \   00000204   ....               RCALL   pppfcs16
   \   00000206   EF2F               LDI     R18, 255
   \   00000208   EF3F               LDI     R19, 255
   \   0000020A   2720               EOR     R18, R16
   \   0000020C   2731               EOR     R19, R17
   \   0000020E   8328               ST      Y, R18
   \   00000210   8339               STD     Y+1, R19
    860                           buf_tx_232[vol_tx_ppp-3]=temp.bytes[0];
   \   00000212   ....               LDI     R30, LOW(vol_tx_ppp)
   \   00000214   ....               LDI     R31, (vol_tx_ppp) >> 8
   \   00000216   8100               LD      R16, Z
   \   00000218   8111               LDD     R17, Z+1
   \   0000021A   01FD               MOVW    R31:R30, R27:R26
   \   0000021C   0FE0               ADD     R30, R16
   \   0000021E   1FF1               ADC     R31, R17
   \   00000220   9733               SBIW    R31:R30, 3
   \   00000222   8128               LD      R18, Y
   \   00000224   8320               ST      Z, R18
    861                           buf_tx_232[vol_tx_ppp-2]=temp.bytes[1];
   \   00000226   8129               LDD     R18, Y+1
   \   00000228   8321               STD     Z+1, R18
    862                           
    863                           buf_tx_232[vol_tx_ppp-1]=0x7e; 
   \   0000022A   E70E               LDI     R16, 126
   \   0000022C   8302               STD     Z+2, R16
    864                           
    865                          
    866          
    867                
    868                           count_tx_ppp=0;                            
   \   0000022E   E000               LDI     R16, 0
   \   00000230   ....               LDI     R30, LOW(count_tx_ppp)
   \   00000232   ....               LDI     R31, (count_tx_ppp) >> 8
   \   00000234   8300               ST      Z, R16
   \   00000236   8301               STD     Z+1, R16
    869                           UCSR0A=UCSR0A | TXC;                            
   \   00000238   910000C0           LDS     R16, 192
   \   0000023C   6400               ORI     R16, 0x40
   \   0000023E   930000C0           STS     192, R16
    870                           UCSR0B=UCSR0B | TXEN;
   \   00000242   910000C1           LDS     R16, 193
   \   00000246   6008               ORI     R16, 0x08
   \   00000248   930000C1           STS     193, R16
    871                           UCSR0B=UCSR0B | TXCIE;
   \   0000024C   910000C1           LDS     R16, 193
   \   00000250   6400               ORI     R16, 0x40
   \   00000252   930000C1           STS     193, R16
    872                           if(check_cts()==1) return;    
   \   00000256   ........           CALL    check_cts
   \   0000025A   3001               CPI     R16, 1
   \   0000025C   F061               BREQ    ??monitor_act_PAP_0
    873                           
    874                           S2_RD;
   \   0000025E   9A40               SBI     0x08, 0x00
   \   00000260   9841               CBI     0x08, 0x01
    875                           UDR0=buf_tx_232[0];  
   \   00000262   910C               LD      R16, X
   \   00000264   930000C6           STS     198, R16
    876                           if(Regim==RG_DEBAG) UDR3=buf_tx_232[0];
   \   00000268   9100....           LDS     R16, Regim
   \   0000026C   3001               CPI     R16, 1
   \   0000026E   F419               BRNE    ??monitor_act_PAP_0
   \   00000270   910C               LD      R16, X
   \   00000272   93000136           STS     310, R16
   \                     ??monitor_act_PAP_0:
   \   00000276   9623               ADIW    R29:R28, 3
   \   00000278   E0E4               LDI     R30, 4
   \   0000027A   ........           JMP     ?EPILOGUE_B4_L09
    877                          
    878          
    879                  }
    880                }
    881          
    882          
    883          
    884          
    885          

   \                                 In segment CODE, align 2, keep-with-next
    886          void monitor_event_PAP(void)
   \                     monitor_event_PAP:
    887              {
   \   00000000   019D               MOVW    R19:R18, R27:R26
    888               if (fl_pap.up==1)      //UP
   \   00000002   ....               LDI     R30, LOW(ip_pri_dns)
   \   00000004   ....               LDI     R31, (ip_pri_dns) >> 8
   \   00000006   8901               LDD     R16, Z+17
   \   00000008   ....               LDI     R26, LOW(cnt_pap_tm_out)
   \   0000000A   ....               LDI     R27, (cnt_pap_tm_out) >> 8
   \   0000000C   8515               LDD     R17, Z+13
   \   0000000E   FF14               SBRS    R17, 4
   \   00000010   C019               RJMP    ??monitor_event_PAP_0
    889                   {
    890                   fl_pap.up=0; 
   \   00000012   8515               LDD     R17, Z+13
   \   00000014   7E1F               ANDI    R17, 0xEF
   \   00000016   8715               STD     Z+13, R17
    891                     switch(PAP_state)
   \   00000018   5001               SUBI    R16, 1
   \   0000001A   F009               BREQ    $+2+2
   \   0000001C   C04F               RJMP    ??monitor_event_PAP_1
    892                         {
    893                          case START_ST:                                                                
    894                                      vol_cnt_rst_pap=VOL_PAP_MC;  
   \                     ??monitor_event_PAP_2:
   \   0000001E   E005               LDI     R16, 5
   \   00000020   961F               ADIW    R27:R26, 15
   \   00000022   930C               ST      X, R16
   \   00000024   971F               SBIW    R27:R26, 15
    895                                     
    896                                     // IRC;   //!!!!!!!!!!!!!!111                                            
    897                                      cnt_pap_tm_out=VOL_PAP_TM_OUT; 
   \   00000026   EB08               LDI     R16, 184
   \   00000028   E01B               LDI     R17, 11
   \   0000002A   930D               ST      X+, R16
   \   0000002C   931C               ST      X, R17
   \   0000002E   9711               SBIW    R27:R26, 1
    898                                      cnt_rst_pap=vol_cnt_rst_pap;
   \   00000030   E005               LDI     R16, 5
   \   00000032   961E               ADIW    R27:R26, 14
   \   00000034   930C               ST      X, R16
    899                                      fl_pap.pap_tm_out_en=1; 
    900                                      fl_pap.act_pap_end=1;  
   \   00000036   8505               LDD     R16, Z+13
   \   00000038   6003               ORI     R16, 0x03
   \   0000003A   8705               STD     Z+13, R16
    901                                      
    902                                      pap_act_buf=SCR;                    
   \                     ??monitor_event_PAP_3:
   \   0000003C   E006               LDI     R16, 6
   \   0000003E   8B00               STD     Z+16, R16
    903                                      PAP_state=SEND_REQ; 
   \   00000040   8B01               STD     Z+17, R16
    904                          return;
   \   00000042   C03C               RJMP    ??monitor_event_PAP_1
    905                         }
    906                      
    907                   return;
    908                   }
    909               
    910              
    911               
    912               if(fl_pap.t0_pl==1)        //TO_PL
   \                     ??monitor_event_PAP_0:
   \   00000044   8515               LDD     R17, Z+13
   \   00000046   FF12               SBRS    R17, 2
   \   00000048   C009               RJMP    ??monitor_event_PAP_4
    913                  {
    914                   fl_pap.t0_pl=0; 
   \   0000004A   8515               LDD     R17, Z+13
   \   0000004C   7F1B               ANDI    R17, 0xFB
   \   0000004E   8715               STD     Z+13, R17
    915                   switch(PAP_state)
   \   00000050   5006               SUBI    R16, 6
   \   00000052   F5A1               BRNE    ??monitor_event_PAP_1
    916                         {                     
    917                                         
    918                          case SEND_REQ:
    919                                      vol_cnt_rst_pap=VOL_PAP_MC;                                                    
   \   00000054   E005               LDI     R16, 5
   \   00000056   961F               ADIW    R27:R26, 15
   \   00000058   930C               ST      X, R16
    920                                      pap_act_buf=SCR;               
   \   0000005A   CFF0               RJMP    ??monitor_event_PAP_3
    921                                      PAP_state=SEND_REQ;
    922                                      return;
    923                                                                                      
    924                         } 
    925                      
    926                   return;
    927                  }       
    928                 
    929                   
    930                if(fl_pap.t0_mi==1)       //TO_MI
   \                     ??monitor_event_PAP_4:
   \   0000005C   8515               LDD     R17, Z+13
   \   0000005E   FF13               SBRS    R17, 3
   \   00000060   C009               RJMP    ??monitor_event_PAP_5
    931                  {
    932                   fl_pap.t0_mi=0;
   \   00000062   8515               LDD     R17, Z+13
   \   00000064   7F17               ANDI    R17, 0xF7
   \   00000066   8715               STD     Z+13, R17
    933                   switch(PAP_state)
   \   00000068   5006               SUBI    R16, 6
   \   0000006A   F541               BRNE    ??monitor_event_PAP_1
    934                         {                     
    935                                                        
    936                          case SEND_REQ:  
    937                                      event_modem=EVM_PPP_ERR;
   \   0000006C   E005               LDI     R16, 5
   \   0000006E   9300....           STS     event_modem, R16
    938                                      //write_log_info(ST_ERROR,ERR7);
    939                                      //lock_it();                                                  
    940                                      return;                                                                           
   \   00000072   C024               RJMP    ??monitor_event_PAP_1
    941                         } 
    942                   return;
    943                  }   
    944                  
    945                  
    946                  
    947                  
    948               switch (PAP_event)
   \                     ??monitor_event_PAP_5:
   \   00000074   8912               LDD     R17, Z+18
   \   00000076   5018               SUBI    R17, 8
   \   00000078   F019               BREQ    ??monitor_event_PAP_6
   \   0000007A   951A               DEC     R17
   \   0000007C   F0D1               BREQ    ??monitor_event_PAP_7
   \   0000007E   C01E               RJMP    ??monitor_event_PAP_1
    949                  {
    950                 
    951                         
    952                 
    953                  case RCA:  
    954                     
    955                  
    956                      PAP_event=NO_EVENT;
   \                     ??monitor_event_PAP_6:
   \   00000080   EF1F               LDI     R17, 255
   \   00000082   8B12               STD     Z+18, R17
    957                      switch(PAP_state)
   \   00000084   5006               SUBI    R16, 6
   \   00000086   F4D1               BRNE    ??monitor_event_PAP_1
    958                         {                     
    959          
    960                        
    961                          case SEND_REQ:                                                                                                     
    962                                      //TLU;  
    963                                      
    964                                      fl_pap.up=0;  
   \   00000088   8505               LDD     R16, Z+13
   \   0000008A   7E0F               ANDI    R16, 0xEF
   \   0000008C   8705               STD     Z+13, R16
    965                                      PAP_state=OPEN_ST; 
   \   0000008E   E009               LDI     R16, 9
   \   00000090   8B01               STD     Z+17, R16
    966                                      IPCP_state=START_ST;  
   \   00000092   E001               LDI     R16, 1
   \   00000094   9613               ADIW    R27:R26, 3
   \   00000096   930C               ST      X, R16
   \   00000098   9713               SBIW    R27:R26, 3
    967                                      fl_ipcp.act_ipcp_end=1; 
   \   0000009A   8503               LDD     R16, Z+11
   \   0000009C   6001               ORI     R16, 0x01
   \   0000009E   8703               STD     Z+11, R16
    968                                      fl_ipcp1.up=1;
    969                                      fl_ipcp1.down=0;
   \   000000A0   01FD               MOVW    R31:R30, R27:R26
   \   000000A2   8102               LDD     R16, Z+2
   \   000000A4   7F0D               ANDI    R16, 0xFD
   \   000000A6   6001               ORI     R16, 0x01
   \   000000A8   8302               STD     Z+2, R16
    970                                      layer_PPP=LAYER_IPCP;
   \   000000AA   E003               LDI     R16, 3
   \   000000AC   9300....           STS     layer_PPP, R16
    971          
    972                                      return;
   \   000000B0   C005               RJMP    ??monitor_event_PAP_1
    973                                                                                           
    974                         }  
    975                       return; 
    976                  
    977                  
    978                  case RCN: 
    979                  PAP_event=NO_EVENT;
   \                     ??monitor_event_PAP_7:
   \   000000B2   EF1F               LDI     R17, 255
   \   000000B4   8B12               STD     Z+18, R17
    980                  switch(PAP_state)        
   \   000000B6   5006               SUBI    R16, 6
   \   000000B8   F409               BRNE    $+2+2
   \   000000BA   CFB1               RJMP    ??monitor_event_PAP_2
   \                     ??monitor_event_PAP_1:
   \   000000BC   01D9               MOVW    R27:R26, R19:R18
   \   000000BE   9508               RET
    981                         {                     
    982          
    983                          
    984                          case SEND_REQ:                                                                
    985                                      vol_cnt_rst_pap=VOL_PAP_MC;  
    986                                      // IRC;   //!!!!!!!!!!!!!!111                                            
    987                                      cnt_pap_tm_out=VOL_PAP_TM_OUT; 
    988                                      cnt_rst_pap=vol_cnt_rst_pap;
    989                                      fl_pap.pap_tm_out_en=1; 
    990                                      fl_pap.act_pap_end=1;
    991                                      
    992                                      pap_act_buf=SCR;                                        
    993                                      PAP_state=SEND_REQ;  
    994                                      return;         
    995                                                                                            
    996                         }  
    997                       return; 
    998                 
    999                
   1000          
   1001                                    
   1002                  }
   1003              
   1004              }
   1005          
   1006          
   1007          

   \                                 In segment CODE, align 2, keep-with-next
   1008          void monitor_act_LCP(void)
   \                     monitor_act_LCP:
   1009                {  
   \   00000000   93BA               ST      -Y, R27
   \   00000002   93AA               ST      -Y, R26
   1010                 
   1011                 if((uk_in_act_LCP!=uk_out_act_LCP)&&(fl_lcp.act_lcp_end==1)&&(fl_pap.act_pap_end==1)&&(fl_ipcp.act_ipcp_end==1)&&(fl_ip.act_ip_end==1))
   \   00000004   ....               LDI     R26, LOW(ip_pri_dns)
   \   00000006   ....               LDI     R27, (ip_pri_dns) >> 8
   \   00000008   9694               ADIW    R27:R26, 36
   \   0000000A   910C               LD      R16, X
   \   0000000C   9794               SBIW    R27:R26, 36
   \   0000000E   9695               ADIW    R27:R26, 37
   \   00000010   911C               LD      R17, X
   \   00000012   9795               SBIW    R27:R26, 37
   \   00000014   1701               CP      R16, R17
   \   00000016   F111               BREQ    ??monitor_act_LCP_0
   \   00000018   961A               ADIW    R27:R26, 10
   \   0000001A   910C               LD      R16, X
   \   0000001C   971A               SBIW    R27:R26, 10
   \   0000001E   7001               ANDI    R16, 0x01
   \   00000020   961D               ADIW    R27:R26, 13
   \   00000022   911C               LD      R17, X
   \   00000024   971D               SBIW    R27:R26, 13
   \   00000026   7011               ANDI    R17, 0x01
   \   00000028   2310               AND     R17, R16
   \   0000002A   961B               ADIW    R27:R26, 11
   \   0000002C   910C               LD      R16, X
   \   0000002E   971B               SBIW    R27:R26, 11
   \   00000030   7001               ANDI    R16, 0x01
   \   00000032   2301               AND     R16, R17
   \   00000034   961C               ADIW    R27:R26, 12
   \   00000036   911C               LD      R17, X
   \   00000038   971C               SBIW    R27:R26, 12
   \   0000003A   7011               ANDI    R17, 0x01
   \   0000003C   2310               AND     R17, R16
   \   0000003E   F071               BREQ    ??monitor_act_LCP_0
   1012                  {   
   1013                  run_lcp_act();
   \   00000040   ....               RCALL   run_lcp_act
   1014                  uk_out_act_LCP++;  
   \   00000042   9695               ADIW    R27:R26, 37
   \   00000044   910C               LD      R16, X
   \   00000046   9503               INC     R16
   \   00000048   930C               ST      X, R16
   \   0000004A   9795               SBIW    R27:R26, 37
   1015                  if (uk_out_act_LCP>=LCP_ACT_VOL)uk_out_act_LCP=0; 
   \   0000004C   9695               ADIW    R27:R26, 37
   \   0000004E   910C               LD      R16, X
   \   00000050   9795               SBIW    R27:R26, 37
   \   00000052   300F               CPI     R16, 15
   \   00000054   F018               BRCS    ??monitor_act_LCP_0
   \   00000056   E000               LDI     R16, 0
   \   00000058   9695               ADIW    R27:R26, 37
   \   0000005A   930C               ST      X, R16
   1016                  }
   1017                }
   \                     ??monitor_act_LCP_0:
   \   0000005C   91A9               LD      R26, Y+
   \   0000005E   91B9               LD      R27, Y+
   \   00000060   9508               RET
   1018           
   1019           
   1020            

   \                                 In segment CODE, align 2, keep-with-next
   1021          void monitor_event_LCP(void)
   \                     monitor_event_LCP:
   1022              {
   \   00000000   ........           CALL    ?PROLOGUE7_L09
   \   00000004                      REQUIRE ?Register_R6_is_cg_reg
   1023               if (fl_lcp1.up==1)      //UP
   \   00000004   ....               LDI     R26, LOW(ip_pri_dns)
   \   00000006   ....               LDI     R27, (ip_pri_dns) >> 8
   \   00000008   01FD               MOVW    R31:R30, R27:R26
   \   0000000A   A104               LDD     R16, Z+36
   \   0000000C   E010               LDI     R17, 0
   \   0000000E   01CD               MOVW    R25:R24, R27:R26
   \   00000010   0F80               ADD     R24, R16
   \   00000012   1F91               ADC     R25, R17
   \   00000014   ....               LDI     R30, LOW(fl_lcp1)
   \   00000016   ....               LDI     R31, (fl_lcp1) >> 8
   \   00000018   8061               LDD     R6, Z+1
   \   0000001A   8100               LD      R16, Z
   \   0000001C   FF00               SBRS    R16, 0
   \   0000001E   C018               RJMP    ??monitor_event_LCP_0
   1024                   {  
   1025                   
   1026                    
   1027                   fl_lcp1.up=0; 
   \   00000020   8100               LD      R16, Z
   \   00000022   7F0E               ANDI    R16, 0xFE
   \   00000024   8300               ST      Z, R16
   1028                     switch(LCP_state)
   \   00000026   2D06               MOV     R16, R6
   \   00000028   5001               SUBI    R16, 1
   \   0000002A   F569               BRNE    ??monitor_event_LCP_1
   1029                         {
   1030                          case START_ST:                                                                
   1031          
   1032                                      vol_cnt_rst_lcp=VOL_LCP_MC;  
   \                     ??monitor_event_LCP_2:
   \   0000002C   E00A               LDI     R16, 10
   \   0000002E   01FD               MOVW    R31:R30, R27:R26
   \   00000030   A701               STD     Z+41, R16
   1033                                      LCP_act_buf[uk_in_act_LCP]=IRC;  
   \   00000032   E004               LDI     R16, 4
   \                     ??monitor_event_LCP_3:
   \   00000034   01FC               MOVW    R31:R30, R25:R24
   \   00000036   8B04               STD     Z+20, R16
   1034                                      prov_uk_in();                    
   \   00000038   ....               RCALL   prov_uk_in
   1035                                      LCP_act_buf[uk_in_act_LCP]=SCR;  
   \   0000003A   E006               LDI     R16, 6
   \                     ??monitor_event_LCP_4:
   \   0000003C   01FD               MOVW    R31:R30, R27:R26
   \                     ??monitor_event_LCP_5:
   \   0000003E   A124               LDD     R18, Z+36
   \   00000040   E030               LDI     R19, 0
   \   00000042   0FA2               ADD     R26, R18
   \   00000044   1FB3               ADC     R27, R19
   \   00000046   01FD               MOVW    R31:R30, R27:R26
   \                     ??monitor_event_LCP_6:
   \   00000048   8B04               STD     Z+20, R16
   1036                                      prov_uk_in();                    
   \   0000004A   ....               RCALL   prov_uk_in
   1037                                      LCP_state=SEND_REQ;  
   1038                                      
   1039                       
   1040                                     
   1041                          return;
   1042                         }
   1043                      
   1044                   return;
   1045                   }
   1046               
   1047               if (fl_lcp1.down==1)      //DOWN
   1048                   {      
   1049                   
   1050                    fl_lcp1.down=0;
   1051                    switch(LCP_state)
   1052                         {                     
   1053          
   1054                          case STOP_ST:                                                                
   1055                                      LCP_act_buf[uk_in_act_LCP]=TLS;  
   1056                                      prov_uk_in();   
   1057                                      fl_lcp.lcp_tm_out_en=0;                 
   1058                                      LCP_state=START_ST;
   1059                                      return;        
   1060                          case OSTANOV:                                                                
   1061                                      fl_lcp.lcp_tm_out_en=0;                 
   1062                                      LCP_state=START_ST;
   1063                                      return;  
   1064                          case SEND_REQ:                                                                
   1065                                      fl_lcp.lcp_tm_out_en=0;                 
   1066                                      LCP_state=START_ST;
   1067                                      return;
   1068                          case REC_ACK:                                                                
   1069                                      fl_lcp.lcp_tm_out_en=0;                 
   1070                                      LCP_state=START_ST;
   1071                                      return;
   1072                          case SEND_ACK:                                                                
   1073                                      fl_lcp.lcp_tm_out_en=0;                 
   1074                                      LCP_state=START_ST;
   1075                                      return;
   1076                          case OPEN_ST:                                                                
   1077                                      LCP_act_buf[uk_in_act_LCP]=TLD;  
   1078                                      prov_uk_in();   
   1079                                      fl_lcp.lcp_tm_out_en=0;                 
   1080                                      LCP_state=START_ST;
   1081                                      return;                                                                    
   1082                         } 
   1083                      
   1084                   return;
   1085                   }
   1086               
   1087               if(fl_lcp.t0_pl==1)        //TO_PL
   1088                  {
   1089                   fl_lcp.t0_pl=0; 
   1090                   switch(LCP_state)
   1091                         {                     
   1092                                         
   1093                          case OSTANOV:                                                                
   1094                                      vol_cnt_rst_lcp=VOL_LCP_MT;
   1095                                      LCP_act_buf[uk_in_act_LCP]=STR;  
   1096                                      prov_uk_in();                 
   1097                                      LCP_state=OSTANOV;
   1098                                      return;  
   1099                          case SEND_REQ:
   1100                                      vol_cnt_rst_lcp=VOL_LCP_MC;                                                    
   1101                                      LCP_act_buf[uk_in_act_LCP]=SCR;  
   1102                                      prov_uk_in();                 
   1103                                      LCP_state=SEND_REQ;
   1104                                      return;
   1105                          case REC_ACK:      
   1106                                      vol_cnt_rst_lcp=VOL_LCP_MC;                                              
   1107                                      LCP_act_buf[uk_in_act_LCP]=SCR;  
   1108                                      prov_uk_in();                 
   1109                                      LCP_state=SEND_REQ;
   1110                                      return;
   1111                          case SEND_ACK: 
   1112                                      vol_cnt_rst_lcp=VOL_LCP_MC;                                                   
   1113                                      LCP_act_buf[uk_in_act_LCP]=SCR;  
   1114                                      prov_uk_in();                 
   1115                                      LCP_state=SEND_ACK;
   1116                                      return;                                                              
   1117                         } 
   1118                      
   1119                   return;
   1120                  }  
   1121                if(fl_lcp.t0_mi==1)       //TO_MI
   1122                  {
   1123                   fl_lcp.t0_mi=0;
   1124                   switch(LCP_state)
   1125                         {                     
   1126                                         
   1127                          case OSTANOV:  
   1128                                      fl_lcp.lcp_tm_out_en=0;                                                  
   1129                                      LCP_act_buf[uk_in_act_LCP]=TLF;  
   1130                                      prov_uk_in();                   
   1131                                      LCP_state=STOP_ST;
   1132                                      return;  
   1133                          case SEND_REQ:                                                                
   1134                                      fl_lcp.lcp_tm_out_en=0;                                                  
   1135                                      LCP_act_buf[uk_in_act_LCP]=TLF;  
   1136                                      prov_uk_in();                   
   1137                                      LCP_state=STOP_ST;
   1138                                      return;
   1139                          case REC_ACK:                                                                
   1140                                      fl_lcp.lcp_tm_out_en=0;                                                  
   1141                                      LCP_act_buf[uk_in_act_LCP]=TLF;  
   1142                                      prov_uk_in();                   
   1143                                      LCP_state=STOP_ST;
   1144                                      return;
   1145                          case SEND_ACK:                                                                
   1146                                      fl_lcp.lcp_tm_out_en=0;                                                  
   1147                                      LCP_act_buf[uk_in_act_LCP]=TLF;  
   1148                                      prov_uk_in();                   
   1149                                      LCP_state=STOP_ST;
   1150                                      return;                                                              
   1151                         } 
   1152                   return;
   1153                  }   
   1154               switch (LCP_event)
   1155                  {
   1156                  case RCR_PL:  
   1157                      LCP_event=NO_EVENT; 
   1158                      switch(LCP_state)
   1159                         {                     
   1160          
   1161                          case STOP_ST:        
   1162                                      vol_cnt_rst_lcp=VOL_LCP_MC;  
   1163                                      LCP_act_buf[uk_in_act_LCP]=IRC;  
   1164                                      prov_uk_in();                    
   1165                                      LCP_act_buf[uk_in_act_LCP]=SCR;  
   1166                                      prov_uk_in();   
   1167                                      LCP_act_buf[uk_in_act_LCP]=SCA;  
   1168                                      prov_uk_in();                 
   1169                                      LCP_state=SEND_ACK;  
   1170                                      
   1171                                      return;        
   1172                          case OSTANOV:                                                                                
   1173                                      LCP_state=OSTANOV; 
   1174                              
   1175                                      return;  
   1176                          case SEND_REQ:                                                                
   1177                                      LCP_act_buf[uk_in_act_LCP]=SCA;  
   1178                                      prov_uk_in();                 
   1179                                      LCP_state=SEND_ACK;   
   1180          
   1181                                      return;
   1182                          case REC_ACK:
   1183                  
   1184                                      LCP_act_buf[uk_in_act_LCP]=SCA;  
   1185                                      prov_uk_in();       
   1186                                      LCP_act_buf[uk_in_act_LCP]=TLU;  
   1187                                      prov_uk_in();          
   1188                                      LCP_state=OPEN_ST;  
   1189                                     
   1190                                      return;
   1191                          case SEND_ACK:                                                                
   1192                                      LCP_act_buf[uk_in_act_LCP]=SCA;  
   1193                                      prov_uk_in();                 
   1194                                      LCP_state=SEND_ACK; 
   1195                             
   1196                                      return;
   1197                          case OPEN_ST:      
   1198                                      LCP_act_buf[uk_in_act_LCP]=TLD;  
   1199                                      prov_uk_in();    
   1200                                      vol_cnt_rst_lcp=VOL_LCP_MC; 
   1201                                      LCP_act_buf[uk_in_act_LCP]=SCR;  
   1202                                      prov_uk_in();                                                                
   1203                                      LCP_act_buf[uk_in_act_LCP]=SCA;  
   1204                                      prov_uk_in();                 
   1205                                      LCP_state=SEND_ACK; 
   1206                             
   1207                                      return;                                                                    
   1208                         }  
   1209                       return; 
   1210                  case RCR_MI: 
   1211                      
   1212                      LCP_event=NO_EVENT;
   1213                      switch(LCP_state)
   1214                         {                     
   1215          
   1216                          case STOP_ST:        
   1217                                      vol_cnt_rst_lcp=VOL_LCP_MC;  
   1218                                      LCP_act_buf[uk_in_act_LCP]=IRC;  
   1219                                      prov_uk_in();                    
   1220                                      LCP_act_buf[uk_in_act_LCP]=SCR;  
   1221                                      prov_uk_in();   
   1222                                      LCP_act_buf[uk_in_act_LCP]=SCN;  
   1223                                      prov_uk_in();                 
   1224                                      LCP_state=SEND_REQ; 
   1225                              
   1226                                      return;        
   1227                          case OSTANOV:                                                                                
   1228                                      LCP_state=OSTANOV; 
   1229                                    
   1230                                      return;  
   1231                          case SEND_REQ:                                                                
   1232                                      
   1233                                 
   1234                                      LCP_act_buf[uk_in_act_LCP]=SCN;  
   1235                                      prov_uk_in();                 
   1236                                      LCP_state=SEND_REQ;    
   1237                               
   1238                                      return;
   1239                          case REC_ACK:                                                                
   1240                                      LCP_act_buf[uk_in_act_LCP]=SCN;  
   1241                                      prov_uk_in();              
   1242                                      LCP_state=REC_ACK;     
   1243                                     
   1244                                      return;
   1245                          case SEND_ACK:                                                                
   1246                                      LCP_act_buf[uk_in_act_LCP]=SCN;  
   1247                                      prov_uk_in();                 
   1248                                      LCP_state=SEND_REQ;
   1249                                   
   1250                                      return;
   1251                          case OPEN_ST:      
   1252                                      LCP_act_buf[uk_in_act_LCP]=TLD;  
   1253                                      prov_uk_in();   
   1254                                      vol_cnt_rst_lcp=VOL_LCP_MC;
   1255                                      LCP_act_buf[uk_in_act_LCP]=SCR;  
   1256                                      prov_uk_in();                                                                
   1257                                      LCP_act_buf[uk_in_act_LCP]=SCN;  
   1258                                      prov_uk_in();                 
   1259                                      LCP_state=SEND_REQ;
   1260                                    
   1261                                      return;                                                                    
   1262                         }  
   1263                       return; 
   1264                  case RCA:    
   1265           
   1266            
   1267            
   1268                      LCP_event=NO_EVENT;
   1269                      switch(LCP_state)
   1270                         {                     
   1271                          
   1272                          case STOP_ST:        
   1273                                      fl_lcp.lcp_tm_out_en=0;
   1274                                      LCP_act_buf[uk_in_act_LCP]=STA;  
   1275                                      prov_uk_in();                 
   1276                                      LCP_state=STOP_ST; 
   1277                                    
   1278                                      return;        
   1279                          case OSTANOV:                                                                                
   1280                                      LCP_state=OSTANOV;  
   1281                              
   1282                                      return;  
   1283                          case SEND_REQ: 
   1284                                      
   1285                                      vol_cnt_rst_lcp=VOL_LCP_MC;  
   1286                                      LCP_act_buf[uk_in_act_LCP]=IRC;  
   1287                                      prov_uk_in();                                        
   1288                                      LCP_state=REC_ACK; 
   1289                               
   1290                                      return;
   1291                          case REC_ACK:       
   1292                                      vol_cnt_rst_lcp=VOL_LCP_MC;                                             
   1293                                      LCP_act_buf[uk_in_act_LCP]=SCR;  
   1294                                      prov_uk_in();                 
   1295                                      LCP_state=SEND_REQ;
   1296                                      return;
   1297                          case SEND_ACK:                                                                
   1298                                      vol_cnt_rst_lcp=VOL_LCP_MC;  
   1299                                      LCP_act_buf[uk_in_act_LCP]=IRC;  
   1300                                      prov_uk_in();                                        
   1301                                      LCP_act_buf[uk_in_act_LCP]=TLU;  
   1302                                      prov_uk_in();
   1303                                      LCP_state=OPEN_ST;
   1304          
   1305                                      return;
   1306                          case OPEN_ST:
   1307                                      vol_cnt_rst_lcp=VOL_LCP_MC;
   1308                                      LCP_act_buf[uk_in_act_LCP]=TLD;  
   1309                                      prov_uk_in();   
   1310                                      LCP_act_buf[uk_in_act_LCP]=SCR;  
   1311                                      prov_uk_in();                                                                               
   1312                                      LCP_state=SEND_REQ;
   1313                                   
   1314                                      return;                                                                    
   1315                         }  
   1316                       return; 
   1317                  case RCN: 
   1318                          LCP_event=NO_EVENT;
   1319                  switch(LCP_state)
   1320                         {                     
   1321          
   1322                          case STOP_ST:        
   1323                                      fl_lcp.lcp_tm_out_en=0;
   1324                                      LCP_act_buf[uk_in_act_LCP]=STA;  
   1325                                      prov_uk_in();                 
   1326                                      LCP_state=STOP_ST; 
   1327                                  
   1328                                      return;        
   1329                          case OSTANOV:                                                                                
   1330                                      LCP_state=OSTANOV; 
   1331                                   
   1332                                      return;  
   1333                          case SEND_REQ:                                                                
   1334                                      vol_cnt_rst_lcp=VOL_LCP_MC;  
   1335                                      LCP_act_buf[uk_in_act_LCP]=IRC;  
   1336                                      prov_uk_in(); 
   1337                                      LCP_act_buf[uk_in_act_LCP]=SCR;  
   1338                                      prov_uk_in();                                       
   1339                                      LCP_state=SEND_REQ;
   1340                                    
   1341                                      return;
   1342                          case REC_ACK:     
   1343                                      vol_cnt_rst_lcp=VOL_LCP_MC;                                               
   1344                                      LCP_act_buf[uk_in_act_LCP]=SCR;  
   1345                                      prov_uk_in();                 
   1346                                      LCP_state=SEND_REQ;
   1347                                    
   1348                                      return;
   1349                          case SEND_ACK:                                                                
   1350                                      vol_cnt_rst_lcp=VOL_LCP_MC;  
   1351                                      LCP_act_buf[uk_in_act_LCP]=IRC;  
   1352                                      prov_uk_in();                                        
   1353                                      LCP_act_buf[uk_in_act_LCP]=SCR;  
   1354                                      prov_uk_in();
   1355                                      LCP_state=SEND_ACK;
   1356                                  
   1357                                      return;
   1358                          case OPEN_ST:      
   1359                                      LCP_act_buf[uk_in_act_LCP]=TLD;  
   1360                                      prov_uk_in(); 
   1361                                      vol_cnt_rst_lcp=VOL_LCP_MC;  
   1362                                      LCP_act_buf[uk_in_act_LCP]=SCR;  
   1363                                      prov_uk_in();                                                                               
   1364                                      LCP_state=SEND_REQ;
   1365                                
   1366                                      return;                                                                    
   1367                         }  
   1368                       return; 
   1369                  case RTR:
   1370                       LCP_event=NO_EVENT;
   1371                       switch(LCP_state)
   1372                         {                     
   1373          
   1374                          case STOP_ST:                                                                
   1375                                      fl_lcp.lcp_tm_out_en=0;
   1376                                      LCP_act_buf[uk_in_act_LCP]=STA;  
   1377                                      prov_uk_in();                 
   1378                                      LCP_state=STOP_ST; 
   1379                                     
   1380                                      return;        
   1381                          case OSTANOV:                                                                
   1382                                      LCP_act_buf[uk_in_act_LCP]=STA;  
   1383                                      prov_uk_in();                 
   1384                                      LCP_state=OSTANOV; 
   1385                                  
   1386                                      return;  
   1387                          case SEND_REQ:                                                                
   1388                                      LCP_act_buf[uk_in_act_LCP]=STA;  
   1389                                      prov_uk_in();                 
   1390                                      LCP_state=SEND_REQ;
   1391                                   
   1392                                      return;
   1393                          case REC_ACK:                                                                
   1394                                      LCP_act_buf[uk_in_act_LCP]=STA;  
   1395                                      prov_uk_in();                 
   1396                                      LCP_state=SEND_REQ;
   1397                                  
   1398                                      return;
   1399                          case SEND_ACK:                                                                
   1400                                      LCP_act_buf[uk_in_act_LCP]=STA;  
   1401                                      prov_uk_in();                 
   1402                                      LCP_state=SEND_REQ;
   1403                                    
   1404                                      return;
   1405                          case OPEN_ST:                                                                
   1406                                      vol_cnt_rst_lcp=VOL_LCP_MC;  
   1407                                      LCP_act_buf[uk_in_act_LCP]=TLD;  
   1408                                      prov_uk_in(); 
   1409                                      LCP_act_buf[uk_in_act_LCP]=ZRC; 
   1410                                      prov_uk_in();  
   1411                                      LCP_act_buf[uk_in_act_LCP]=STA;  
   1412                                      prov_uk_in();                                  
   1413                                      LCP_state=STOP_ST; 
   1414                                      
   1415                                      return;                                                                    
   1416                         }  
   1417                       return; 
   1418                  case RTA: 
   1419                       LCP_event=NO_EVENT;
   1420                       switch(LCP_state)
   1421                         {                     
   1422          
   1423                          case STOP_ST:                                                                 
   1424                                      fl_lcp.lcp_tm_out_en=0;                 
   1425                                      LCP_state=STOP_ST;
   1426                               
   1427                                      return;        
   1428                          case OSTANOV:                                                                
   1429                                      fl_lcp.lcp_tm_out_en=0;                                                  
   1430                                      LCP_act_buf[uk_in_act_LCP]=TLF;  
   1431                                      prov_uk_in();                   
   1432                                      LCP_state=STOP_ST; 
   1433                   
   1434                                      return;  
   1435                          case SEND_REQ:                                                                                
   1436                                      LCP_state=SEND_REQ;
   \                     ??monitor_event_LCP_7:
   \   0000004C   E006               LDI     R16, 6
   \   0000004E   C018               RJMP    ??monitor_event_LCP_8
   \                     ??monitor_event_LCP_0:
   \   00000050   8100               LD      R16, Z
   \   00000052   FF01               SBRS    R16, 1
   \   00000054   C01D               RJMP    ??monitor_event_LCP_9
   \   00000056   8100               LD      R16, Z
   \   00000058   7F0D               ANDI    R16, 0xFD
   \   0000005A   8300               ST      Z, R16
   \   0000005C   2D06               MOV     R16, R6
   \   0000005E   5003               SUBI    R16, 3
   \   00000060   F031               BREQ    ??monitor_event_LCP_10
   \   00000062   5002               SUBI    R16, 2
   \   00000064   F080               BRCS    ??monitor_event_LCP_1
   \   00000066   5004               SUBI    R16, 4
   \   00000068   F030               BRCS    ??monitor_event_LCP_11
   \   0000006A   F081               BREQ    ??monitor_event_LCP_12
   \   0000006C   C00C               RJMP    ??monitor_event_LCP_1
   \                     ??monitor_event_LCP_10:
   \   0000006E   E002               LDI     R16, 2
   \                     ??monitor_event_LCP_13:
   \   00000070   01FC               MOVW    R31:R30, R25:R24
   \   00000072   8B04               STD     Z+20, R16
   \   00000074   ....               RCALL   prov_uk_in
   \                     ??monitor_event_LCP_11:
   \   00000076   01FD               MOVW    R31:R30, R27:R26
   \   00000078   8502               LDD     R16, Z+10
   \   0000007A   7F0D               ANDI    R16, 0xFD
   \   0000007C   8702               STD     Z+10, R16
   \   0000007E   E001               LDI     R16, 1
   \                     ??monitor_event_LCP_8:
   \   00000080   ....               LDI     R30, LOW(fl_lcp1)
   \   00000082   ....               LDI     R31, (fl_lcp1) >> 8
   \   00000084   8301               STD     Z+1, R16
   \                     ??monitor_event_LCP_1:
   \   00000086   E0E7               LDI     R30, 7
   \   00000088   ........           JMP     ?EPILOGUE_B7_L09
   \                     ??monitor_event_LCP_12:
   \   0000008C   E001               LDI     R16, 1
   \   0000008E   CFF0               RJMP    ??monitor_event_LCP_13
   \                     ??monitor_event_LCP_9:
   \   00000090   01FD               MOVW    R31:R30, R27:R26
   \   00000092   8502               LDD     R16, Z+10
   \   00000094   FF02               SBRS    R16, 2
   \   00000096   C01F               RJMP    ??monitor_event_LCP_14
   \   00000098   8502               LDD     R16, Z+10
   \   0000009A   7F0B               ANDI    R16, 0xFB
   \   0000009C   8702               STD     Z+10, R16
   \   0000009E   2D06               MOV     R16, R6
   \   000000A0   5005               SUBI    R16, 5
   \   000000A2   F049               BREQ    ??monitor_event_LCP_15
   \   000000A4   950A               DEC     R16
   \   000000A6   F409               BRNE    $+2+2
   \   000000A8   C0E0               RJMP    ??monitor_event_LCP_16
   \   000000AA   950A               DEC     R16
   \   000000AC   F409               BRNE    $+2+2
   \   000000AE   C0DD               RJMP    ??monitor_event_LCP_16
   \   000000B0   950A               DEC     R16
   \   000000B2   F049               BREQ    ??monitor_event_LCP_17
   \   000000B4   CFE8               RJMP    ??monitor_event_LCP_1
   \                     ??monitor_event_LCP_15:
   \   000000B6   E002               LDI     R16, 2
   \   000000B8   A701               STD     Z+41, R16
   \   000000BA   E009               LDI     R16, 9
   \                     ??monitor_event_LCP_18:
   \   000000BC   01FC               MOVW    R31:R30, R25:R24
   \                     ??monitor_event_LCP_19:
   \   000000BE   8B04               STD     Z+20, R16
   \   000000C0   ....               RCALL   prov_uk_in
   \                     ??monitor_event_LCP_20:
   \   000000C2   E005               LDI     R16, 5
   \   000000C4   CFDD               RJMP    ??monitor_event_LCP_8
   \                     ??monitor_event_LCP_17:
   \   000000C6   E00A               LDI     R16, 10
   \   000000C8   A701               STD     Z+41, R16
   \   000000CA   E006               LDI     R16, 6
   \                     ??monitor_event_LCP_21:
   \   000000CC   01FC               MOVW    R31:R30, R25:R24
   \                     ??monitor_event_LCP_22:
   \   000000CE   8B04               STD     Z+20, R16
   \   000000D0   ....               RCALL   prov_uk_in
   1437                             
   1438                                      return;
   1439                          case REC_ACK:                                                                                
   1440                                      LCP_state=SEND_REQ;
   1441                                  
   1442                                      return;
   1443                          case SEND_ACK:                                                                
   1444                                      fl_lcp.lcp_tm_out_en=0;                 
   1445                                      LCP_state=SEND_ACK;
   1446                           
   1447                                      return;
   1448                          case OPEN_ST:                                                                
   1449                                      vol_cnt_rst_lcp=VOL_LCP_MC;  
   1450                                      LCP_act_buf[uk_in_act_LCP]=TLD;  
   1451                                      prov_uk_in();   
   1452                                      LCP_act_buf[uk_in_act_LCP]=SCR;  
   1453                                      prov_uk_in();                                  
   1454                                      LCP_state=SEND_REQ;
   1455                       
   1456                                      return;                                                                    
   1457                         }  
   1458                       return;
   1459                  case RUC:  
   1460                       LCP_event=NO_EVENT;
   1461                       switch(LCP_state)
   1462                         {                     
   1463          
   1464                          case STOP_ST:                                                                
   1465                                      LCP_act_buf[uk_in_act_LCP]=SCJ;  
   1466                                      prov_uk_in();   
   1467                                      fl_lcp.lcp_tm_out_en=0;                 
   1468                                      LCP_state=STOP_ST; 
   1469          
   1470                                      return;        
   1471                          case OSTANOV:                                                                
   1472                                      LCP_act_buf[uk_in_act_LCP]=SCJ;  
   1473                                      prov_uk_in();                   
   1474                                      LCP_state=OSTANOV; 
   1475                  
   1476                                      return;  
   1477                          case SEND_REQ:                                                                
   1478                                      LCP_act_buf[uk_in_act_LCP]=SCJ;  
   1479                                      prov_uk_in();                   
   1480                                      LCP_state=SEND_REQ;
   1481          
   1482                                      return;
   1483                          case REC_ACK:                                                                
   1484                                      LCP_act_buf[uk_in_act_LCP]=SCJ;  
   1485                                      prov_uk_in();                   
   1486                                      LCP_state=REC_ACK; 
   1487                      
   1488                                      return;
   1489                          case SEND_ACK:                                                                
   1490                                      LCP_act_buf[uk_in_act_LCP]=SCJ;  
   1491                                      prov_uk_in();                   
   1492                                      LCP_state=SEND_ACK;
   1493                
   1494                                      return;
   1495                          case OPEN_ST:                                                                
   1496                                      LCP_act_buf[uk_in_act_LCP]=SCJ;  
   1497                                      prov_uk_in();                   
   1498                                      LCP_state=OPEN_ST; 
   1499           
   1500                                      return;                                                                    
   1501                         }  
   1502                       return; 
   1503                  case RXJ_PL:  
   1504                       LCP_event=NO_EVENT;
   1505                       switch(LCP_state)
   1506                         {                     
   1507                          
   1508                          case STOP_ST:      
   1509                                      fl_lcp.lcp_tm_out_en=0;                                                              
   1510                                      LCP_state=START_ST;
   1511                                      return;        
   1512                          case OSTANOV:                                                                               
   1513                                      LCP_state=OSTANOV;
   1514                                      return;  
   1515                          case SEND_REQ:                                                                                 
   1516                                      LCP_state=SEND_REQ;
   1517                                      return;
   1518                          case REC_ACK:                                                                              
   1519                                      LCP_state=REC_ACK;
   1520                                      return;
   1521                          case SEND_ACK:                                                                              
   1522                                      LCP_state=SEND_ACK;
   \                     ??monitor_event_LCP_23:
   \   000000D2   E008               LDI     R16, 8
   \   000000D4   CFD5               RJMP    ??monitor_event_LCP_8
   \                     ??monitor_event_LCP_14:
   \   000000D6   8502               LDD     R16, Z+10
   \   000000D8   FF03               SBRS    R16, 3
   \   000000DA   C010               RJMP    ??monitor_event_LCP_24
   \   000000DC   8502               LDD     R16, Z+10
   \   000000DE   7F07               ANDI    R16, 0xF7
   \   000000E0   8702               STD     Z+10, R16
   \   000000E2   2D06               MOV     R16, R6
   \   000000E4   5005               SUBI    R16, 5
   \   000000E6   5004               SUBI    R16, 4
   \   000000E8   F670               BRCC    ??monitor_event_LCP_1
   \                     ??monitor_event_LCP_25:
   \   000000EA   8502               LDD     R16, Z+10
   \   000000EC   7F0D               ANDI    R16, 0xFD
   \   000000EE   8702               STD     Z+10, R16
   \   000000F0   E003               LDI     R16, 3
   \                     ??monitor_event_LCP_26:
   \   000000F2   01FC               MOVW    R31:R30, R25:R24
   \                     ??monitor_event_LCP_27:
   \   000000F4   8B04               STD     Z+20, R16
   \   000000F6   ....               RCALL   prov_uk_in
   \                     ??monitor_event_LCP_28:
   \   000000F8   E003               LDI     R16, 3
   \   000000FA   CFC2               RJMP    ??monitor_event_LCP_8
   \                     ??monitor_event_LCP_24:
   \   000000FC   8903               LDD     R16, Z+19
   \   000000FE   ....               LDI     R30, LOW(`?<Jumptable for monitor_event_LCP>_0`)
   \   00000100   ....               LDI     R31, (`?<Jumptable for monitor_event_LCP>_0`) >> 16
   \   00000102   BFFB               OUT     0x3B, R31
   \   00000104   ....               LDI     R31, HIGH(`?<Jumptable for monitor_event_LCP>_0`)
   \   00000106   ........           JMP     ?CV_SWITCH_L06
   \                     ??monitor_event_LCP_29:
   \   0000010A   EF0F               LDI     R16, 255
   \   0000010C   01FD               MOVW    R31:R30, R27:R26
   \   0000010E   8B03               STD     Z+19, R16
   \   00000110   2D06               MOV     R16, R6
   \   00000112   5003               SUBI    R16, 3
   \   00000114   F059               BREQ    ??monitor_event_LCP_30
   \   00000116   5002               SUBI    R16, 2
   \   00000118   F2A1               BREQ    ??monitor_event_LCP_20
   \   0000011A   950A               DEC     R16
   \   0000011C   F0A9               BREQ    ??monitor_event_LCP_31
   \   0000011E   950A               DEC     R16
   \   00000120   F0D9               BREQ    ??monitor_event_LCP_32
   \   00000122   950A               DEC     R16
   \   00000124   F089               BREQ    ??monitor_event_LCP_31
   \   00000126   950A               DEC     R16
   \   00000128   F129               BREQ    ??monitor_event_LCP_33
   \   0000012A   CFAD               RJMP    ??monitor_event_LCP_1
   \                     ??monitor_event_LCP_30:
   \   0000012C   E00A               LDI     R16, 10
   \   0000012E   A701               STD     Z+41, R16
   \   00000130   E004               LDI     R16, 4
   \   00000132   01FC               MOVW    R31:R30, R25:R24
   \   00000134   8B04               STD     Z+20, R16
   \   00000136   ....               RCALL   prov_uk_in
   \   00000138   E006               LDI     R16, 6
   \   0000013A   01FD               MOVW    R31:R30, R27:R26
   \                     ??monitor_event_LCP_34:
   \   0000013C   A124               LDD     R18, Z+36
   \   0000013E   E030               LDI     R19, 0
   \   00000140   0FE2               ADD     R30, R18
   \   00000142   1FF3               ADC     R31, R19
   \   00000144   8B04               STD     Z+20, R16
   \   00000146   ....               RCALL   prov_uk_in
   \                     ??monitor_event_LCP_31:
   \   00000148   E007               LDI     R16, 7
   \                     ??monitor_event_LCP_35:
   \   0000014A   01FD               MOVW    R31:R30, R27:R26
   \   0000014C   A124               LDD     R18, Z+36
   \   0000014E   E030               LDI     R19, 0
   \   00000150   0FA2               ADD     R26, R18
   \   00000152   1FB3               ADC     R27, R19
   \   00000154   01FD               MOVW    R31:R30, R27:R26
   \   00000156   CFBB               RJMP    ??monitor_event_LCP_22
   \                     ??monitor_event_LCP_32:
   \   00000158   E007               LDI     R16, 7
   \                     ??monitor_event_LCP_36:
   \   0000015A   01FC               MOVW    R31:R30, R25:R24
   \   0000015C   8B04               STD     Z+20, R16
   \   0000015E   ....               RCALL   prov_uk_in
   \   00000160   E000               LDI     R16, 0
   \   00000162   01FD               MOVW    R31:R30, R27:R26
   \   00000164   A124               LDD     R18, Z+36
   \   00000166   0FA2               ADD     R26, R18
   \   00000168   1FB0               ADC     R27, R16
   \   0000016A   01FD               MOVW    R31:R30, R27:R26
   \                     ??monitor_event_LCP_37:
   \   0000016C   8B04               STD     Z+20, R16
   \   0000016E   ....               RCALL   prov_uk_in
   1523                                      return;
   1524                          case OPEN_ST:                                                                                
   1525                                      LCP_state=OPEN_ST;
   \                     ??monitor_event_LCP_38:
   \   00000170   E009               LDI     R16, 9
   \   00000172   CF86               RJMP    ??monitor_event_LCP_8
   \                     ??monitor_event_LCP_33:
   \   00000174   E001               LDI     R16, 1
   \   00000176   01FC               MOVW    R31:R30, R25:R24
   \   00000178   8B04               STD     Z+20, R16
   \   0000017A   ....               RCALL   prov_uk_in
   \   0000017C   E00A               LDI     R16, 10
   \   0000017E   01FD               MOVW    R31:R30, R27:R26
   \   00000180   A701               STD     Z+41, R16
   \   00000182   E006               LDI     R16, 6
   \   00000184   CFDB               RJMP    ??monitor_event_LCP_34
   \                     ??monitor_event_LCP_39:
   \   00000186   EF0F               LDI     R16, 255
   \   00000188   01FD               MOVW    R31:R30, R27:R26
   \   0000018A   8B03               STD     Z+19, R16
   \   0000018C   2D06               MOV     R16, R6
   \   0000018E   5003               SUBI    R16, 3
   \   00000190   F061               BREQ    ??monitor_event_LCP_40
   \   00000192   5002               SUBI    R16, 2
   \   00000194   F409               BRNE    $+2+2
   \   00000196   CF95               RJMP    ??monitor_event_LCP_20
   \   00000198   950A               DEC     R16
   \   0000019A   F0A9               BREQ    ??monitor_event_LCP_41
   \   0000019C   950A               DEC     R16
   \   0000019E   F0A9               BREQ    ??monitor_event_LCP_42
   \   000001A0   950A               DEC     R16
   \   000001A2   F089               BREQ    ??monitor_event_LCP_41
   \   000001A4   950A               DEC     R16
   \   000001A6   F0B1               BREQ    ??monitor_event_LCP_43
   \   000001A8   CF6E               RJMP    ??monitor_event_LCP_1
   \                     ??monitor_event_LCP_40:
   \   000001AA   E00A               LDI     R16, 10
   \   000001AC   A701               STD     Z+41, R16
   \   000001AE   E004               LDI     R16, 4
   \   000001B0   01FC               MOVW    R31:R30, R25:R24
   \   000001B2   8B04               STD     Z+20, R16
   \   000001B4   ....               RCALL   prov_uk_in
   \   000001B6   E006               LDI     R16, 6
   \   000001B8   01FD               MOVW    R31:R30, R27:R26
   \                     ??monitor_event_LCP_44:
   \   000001BA   A124               LDD     R18, Z+36
   \   000001BC   E030               LDI     R19, 0
   \   000001BE   0FE2               ADD     R30, R18
   \   000001C0   1FF3               ADC     R31, R19
   \   000001C2   8B04               STD     Z+20, R16
   \   000001C4   ....               RCALL   prov_uk_in
   \                     ??monitor_event_LCP_41:
   \   000001C6   E008               LDI     R16, 8
   \   000001C8   CF39               RJMP    ??monitor_event_LCP_4
   \                     ??monitor_event_LCP_42:
   \   000001CA   E008               LDI     R16, 8
   \                     ??monitor_event_LCP_45:
   \   000001CC   01FC               MOVW    R31:R30, R25:R24
   \   000001CE   8B04               STD     Z+20, R16
   \   000001D0   ....               RCALL   prov_uk_in
   \   000001D2   C0CB               RJMP    ??monitor_event_LCP_46
   \                     ??monitor_event_LCP_43:
   \   000001D4   E001               LDI     R16, 1
   \   000001D6   01FC               MOVW    R31:R30, R25:R24
   \   000001D8   8B04               STD     Z+20, R16
   \   000001DA   ....               RCALL   prov_uk_in
   \   000001DC   E00A               LDI     R16, 10
   \   000001DE   01FD               MOVW    R31:R30, R27:R26
   \   000001E0   A701               STD     Z+41, R16
   \   000001E2   E006               LDI     R16, 6
   \   000001E4   CFEA               RJMP    ??monitor_event_LCP_44
   \                     ??monitor_event_LCP_47:
   \   000001E6   EF0F               LDI     R16, 255
   \   000001E8   01FD               MOVW    R31:R30, R27:R26
   \   000001EA   8B03               STD     Z+19, R16
   \   000001EC   2D06               MOV     R16, R6
   \   000001EE   5003               SUBI    R16, 3
   \   000001F0   F061               BREQ    ??monitor_event_LCP_48
   \   000001F2   5002               SUBI    R16, 2
   \   000001F4   F409               BRNE    $+2+2
   \   000001F6   CF65               RJMP    ??monitor_event_LCP_20
   \   000001F8   950A               DEC     R16
   \   000001FA   F061               BREQ    ??monitor_event_LCP_49
   \   000001FC   950A               DEC     R16
   \   000001FE   F1A9               BREQ    ??monitor_event_LCP_16
   \   00000200   950A               DEC     R16
   \   00000202   F061               BREQ    ??monitor_event_LCP_50
   \                     ??monitor_event_LCP_51:
   \   00000204   950A               DEC     R16
   \   00000206   F071               BREQ    ??monitor_event_LCP_52
   \   00000208   CF3E               RJMP    ??monitor_event_LCP_1
   \                     ??monitor_event_LCP_48:
   \   0000020A   8502               LDD     R16, Z+10
   \   0000020C   7F0D               ANDI    R16, 0xFD
   \   0000020E   8702               STD     Z+10, R16
   \   00000210   E00A               LDI     R16, 10
   \   00000212   CF6F               RJMP    ??monitor_event_LCP_26
   \                     ??monitor_event_LCP_49:
   \   00000214   E00A               LDI     R16, 10
   \   00000216   A701               STD     Z+41, R16
   \   00000218   E004               LDI     R16, 4
   \   0000021A   CFD8               RJMP    ??monitor_event_LCP_45
   \                     ??monitor_event_LCP_50:
   \   0000021C   E00A               LDI     R16, 10
   \   0000021E   A701               STD     Z+41, R16
   \   00000220   E004               LDI     R16, 4
   \   00000222   CF9B               RJMP    ??monitor_event_LCP_36
   \                     ??monitor_event_LCP_52:
   \   00000224   E00A               LDI     R16, 10
   \   00000226   A701               STD     Z+41, R16
   \   00000228   E001               LDI     R16, 1
   \   0000022A   CF04               RJMP    ??monitor_event_LCP_3
   \                     ??monitor_event_LCP_53:
   \   0000022C   EF0F               LDI     R16, 255
   \   0000022E   01FD               MOVW    R31:R30, R27:R26
   \   00000230   8B03               STD     Z+19, R16
   \   00000232   2D06               MOV     R16, R6
   \   00000234   5003               SUBI    R16, 3
   \   00000236   F349               BREQ    ??monitor_event_LCP_48
   \   00000238   5002               SUBI    R16, 2
   \   0000023A   F409               BRNE    $+2+2
   \   0000023C   CF42               RJMP    ??monitor_event_LCP_20
   \   0000023E   950A               DEC     R16
   \   00000240   F409               BRNE    $+2+2
   \   00000242   CEF4               RJMP    ??monitor_event_LCP_2
   \   00000244   950A               DEC     R16
   \   00000246   F089               BREQ    ??monitor_event_LCP_16
   \   00000248   950A               DEC     R16
   \   0000024A   F019               BREQ    ??monitor_event_LCP_54
   \   0000024C   950A               DEC     R16
   \   0000024E   F049               BREQ    ??monitor_event_LCP_55
   \   00000250   CF1A               RJMP    ??monitor_event_LCP_1
   \                     ??monitor_event_LCP_54:
   \   00000252   E00A               LDI     R16, 10
   \   00000254   A701               STD     Z+41, R16
   \   00000256   E004               LDI     R16, 4
   \   00000258   01FC               MOVW    R31:R30, R25:R24
   \   0000025A   8B04               STD     Z+20, R16
   \   0000025C   ....               RCALL   prov_uk_in
   \   0000025E   E006               LDI     R16, 6
   \   00000260   CF74               RJMP    ??monitor_event_LCP_35
   \                     ??monitor_event_LCP_55:
   \   00000262   E001               LDI     R16, 1
   \   00000264   01FC               MOVW    R31:R30, R25:R24
   \   00000266   8B04               STD     Z+20, R16
   \   00000268   ....               RCALL   prov_uk_in
   \                     ??monitor_event_LCP_16:
   \   0000026A   E00A               LDI     R16, 10
   \   0000026C   01FD               MOVW    R31:R30, R27:R26
   \   0000026E   A701               STD     Z+41, R16
   \   00000270   E006               LDI     R16, 6
   \   00000272   CEE5               RJMP    ??monitor_event_LCP_5
   \                     ??monitor_event_LCP_56:
   \   00000274   EF0F               LDI     R16, 255
   \   00000276   01FD               MOVW    R31:R30, R27:R26
   \   00000278   8B03               STD     Z+19, R16
   \   0000027A   2D06               MOV     R16, R6
   \   0000027C   5003               SUBI    R16, 3
   \   0000027E   F229               BREQ    ??monitor_event_LCP_48
   \   00000280   5002               SUBI    R16, 2
   \   00000282   F031               BREQ    ??monitor_event_LCP_57
   \   00000284   5001               SUBI    R16, 1
   \   00000286   F018               BRCS    ??monitor_event_LCP_58
   \   00000288   5003               SUBI    R16, 3
   \   0000028A   F020               BRCS    ??monitor_event_LCP_59
   \   0000028C   F031               BREQ    ??monitor_event_LCP_60
   \                     ??monitor_event_LCP_58:
   \   0000028E   CEFB               RJMP    ??monitor_event_LCP_1
   \                     ??monitor_event_LCP_57:
   \   00000290   E00A               LDI     R16, 10
   \   00000292   CF14               RJMP    ??monitor_event_LCP_18
   \                     ??monitor_event_LCP_59:
   \   00000294   E00A               LDI     R16, 10
   \                     ??monitor_event_LCP_61:
   \   00000296   01FC               MOVW    R31:R30, R25:R24
   \   00000298   CED7               RJMP    ??monitor_event_LCP_6
   \                     ??monitor_event_LCP_60:
   \   0000029A   E00A               LDI     R16, 10
   \   0000029C   A701               STD     Z+41, R16
   \   0000029E   E001               LDI     R16, 1
   \   000002A0   01FC               MOVW    R31:R30, R25:R24
   \   000002A2   8B04               STD     Z+20, R16
   \   000002A4   ....               RCALL   prov_uk_in
   \   000002A6   E005               LDI     R16, 5
   \   000002A8   01FD               MOVW    R31:R30, R27:R26
   \   000002AA   A124               LDD     R18, Z+36
   \   000002AC   E030               LDI     R19, 0
   \   000002AE   0FE2               ADD     R30, R18
   \   000002B0   1FF3               ADC     R31, R19
   \   000002B2   8B04               STD     Z+20, R16
   \   000002B4   ....               RCALL   prov_uk_in
   \   000002B6   E00A               LDI     R16, 10
   \   000002B8   01FD               MOVW    R31:R30, R27:R26
   \   000002BA   A124               LDD     R18, Z+36
   \   000002BC   E030               LDI     R19, 0
   \   000002BE   0FA2               ADD     R26, R18
   \   000002C0   1FB3               ADC     R27, R19
   \   000002C2   01FD               MOVW    R31:R30, R27:R26
   \   000002C4   CF17               RJMP    ??monitor_event_LCP_27
   \                     ??monitor_event_LCP_62:
   \   000002C6   EF0F               LDI     R16, 255
   \   000002C8   01FD               MOVW    R31:R30, R27:R26
   \   000002CA   8B03               STD     Z+19, R16
   \   000002CC   2D06               MOV     R16, R6
   \   000002CE   5003               SUBI    R16, 3
   \   000002D0   F061               BREQ    ??monitor_event_LCP_63
   \   000002D2   5002               SUBI    R16, 2
   \   000002D4   F409               BRNE    $+2+2
   \   000002D6   CF09               RJMP    ??monitor_event_LCP_25
   \   000002D8   950A               DEC     R16
   \   000002DA   F409               BRNE    $+2+2
   \   000002DC   CEB7               RJMP    ??monitor_event_LCP_7
   \   000002DE   950A               DEC     R16
   \   000002E0   F409               BRNE    $+2+2
   \   000002E2   CEB4               RJMP    ??monitor_event_LCP_7
   \   000002E4   950A               DEC     R16
   \   000002E6   F031               BREQ    ??monitor_event_LCP_64
   \   000002E8   CF8D               RJMP    ??monitor_event_LCP_51
   \                     ??monitor_event_LCP_63:
   \   000002EA   01FD               MOVW    R31:R30, R27:R26
   \   000002EC   8502               LDD     R16, Z+10
   \   000002EE   7F0D               ANDI    R16, 0xFD
   \   000002F0   8702               STD     Z+10, R16
   \   000002F2   CF02               RJMP    ??monitor_event_LCP_28
   \                     ??monitor_event_LCP_64:
   \   000002F4   8502               LDD     R16, Z+10
   \   000002F6   7F0D               ANDI    R16, 0xFD
   \   000002F8   8702               STD     Z+10, R16
   \   000002FA   CEEB               RJMP    ??monitor_event_LCP_23
   \                     ??monitor_event_LCP_65:
   \   000002FC   EF0F               LDI     R16, 255
   \   000002FE   01FD               MOVW    R31:R30, R27:R26
   \   00000300   8B03               STD     Z+19, R16
   \   00000302   2D06               MOV     R16, R6
   \   00000304   5003               SUBI    R16, 3
   \   00000306   F059               BREQ    ??monitor_event_LCP_66
   \   00000308   5002               SUBI    R16, 2
   \   0000030A   F071               BREQ    ??monitor_event_LCP_67
   \   0000030C   950A               DEC     R16
   \   0000030E   F071               BREQ    ??monitor_event_LCP_68
   \   00000310   950A               DEC     R16
   \   00000312   F071               BREQ    ??monitor_event_LCP_69
   \   00000314   950A               DEC     R16
   \   00000316   F071               BREQ    ??monitor_event_LCP_70
   \   00000318   950A               DEC     R16
   \   0000031A   F071               BREQ    ??monitor_event_LCP_71
   \   0000031C   CEB4               RJMP    ??monitor_event_LCP_1
   \                     ??monitor_event_LCP_66:
   \   0000031E   E00B               LDI     R16, 11
   \   00000320   01FC               MOVW    R31:R30, R25:R24
   \   00000322   8B04               STD     Z+20, R16
   \   00000324   ....               RCALL   prov_uk_in
   \   00000326   CFE1               RJMP    ??monitor_event_LCP_63
   \                     ??monitor_event_LCP_67:
   \   00000328   E00B               LDI     R16, 11
   \   0000032A   CEC8               RJMP    ??monitor_event_LCP_18
   \                     ??monitor_event_LCP_68:
   \   0000032C   E00B               LDI     R16, 11
   \   0000032E   CFB3               RJMP    ??monitor_event_LCP_61
   \                     ??monitor_event_LCP_69:
   \   00000330   E00B               LDI     R16, 11
   \   00000332   CF4C               RJMP    ??monitor_event_LCP_45
   \                     ??monitor_event_LCP_70:
   \   00000334   E00B               LDI     R16, 11
   \   00000336   CECA               RJMP    ??monitor_event_LCP_21
   \                     ??monitor_event_LCP_71:
   \   00000338   E00B               LDI     R16, 11
   \   0000033A   01FC               MOVW    R31:R30, R25:R24
   \   0000033C   CF17               RJMP    ??monitor_event_LCP_37
   \                     ??monitor_event_LCP_72:
   \   0000033E   EF0F               LDI     R16, 255
   \   00000340   01FD               MOVW    R31:R30, R27:R26
   \   00000342   8B03               STD     Z+19, R16
   \   00000344   2D06               MOV     R16, R6
   \   00000346   5003               SUBI    R16, 3
   \   00000348   F409               BRNE    $+2+2
   \   0000034A   CE95               RJMP    ??monitor_event_LCP_11
   \   0000034C   5002               SUBI    R16, 2
   \   0000034E   F409               BRNE    $+2+2
   \   00000350   CEB8               RJMP    ??monitor_event_LCP_20
   \   00000352   950A               DEC     R16
   \   00000354   F409               BRNE    $+2+2
   \   00000356   CE7A               RJMP    ??monitor_event_LCP_7
   \   00000358   950A               DEC     R16
   \   0000035A   F039               BREQ    ??monitor_event_LCP_46
   \   0000035C   950A               DEC     R16
   \   0000035E   F409               BRNE    $+2+2
   \   00000360   CEB8               RJMP    ??monitor_event_LCP_23
   \   00000362   950A               DEC     R16
   \   00000364   F409               BRNE    $+2+2
   \   00000366   CF04               RJMP    ??monitor_event_LCP_38
   \   00000368   CE8E               RJMP    ??monitor_event_LCP_1
   \                     ??monitor_event_LCP_46:
   \   0000036A   E007               LDI     R16, 7
   \   0000036C   CE89               RJMP    ??monitor_event_LCP_8
   1526                                      return;                                                                    
   1527                         }  
   1528                       return; 
   1529                  case RXJ_MI:  
   1530                      LCP_event=NO_EVENT;
   \                     ??monitor_event_LCP_73:
   \   0000036E   EF0F               LDI     R16, 255
   \   00000370   01FD               MOVW    R31:R30, R27:R26
   \   00000372   8B03               STD     Z+19, R16
   1531                      switch(LCP_state)
   \   00000374   2D06               MOV     R16, R6
   \   00000376   5003               SUBI    R16, 3
   \   00000378   F409               BRNE    $+2+2
   \   0000037A   CEB7               RJMP    ??monitor_event_LCP_25
   \   0000037C   5002               SUBI    R16, 2
   \   0000037E   F020               BRCS    ??monitor_event_LCP_74
   \   00000380   5004               SUBI    R16, 4
   \   00000382   F408               BRCC    $+2+2
   \   00000384   CEB2               RJMP    ??monitor_event_LCP_25
   \   00000386   F009               BREQ    ??monitor_event_LCP_75
   \                     ??monitor_event_LCP_74:
   \   00000388   CE7E               RJMP    ??monitor_event_LCP_1
   1532                         {                     
   1533                          case STOP_ST:  
   1534                                      fl_lcp.lcp_tm_out_en=0;                                                  
   1535                                      LCP_act_buf[uk_in_act_LCP]=TLF;  
   1536                                      prov_uk_in();                   
   1537                                      LCP_state=STOP_ST;
   1538                                      return;               
   1539                          case OSTANOV:  
   1540                                      fl_lcp.lcp_tm_out_en=0;                                                  
   1541                                      LCP_act_buf[uk_in_act_LCP]=TLF;  
   1542                                      prov_uk_in();                   
   1543                                      LCP_state=STOP_ST;
   1544                                      return;  
   1545                          case SEND_REQ:                                                                
   1546                                      fl_lcp.lcp_tm_out_en=0;                                                  
   1547                                      LCP_act_buf[uk_in_act_LCP]=TLF;  
   1548                                      prov_uk_in();                   
   1549                                      LCP_state=STOP_ST;
   1550                                      return;
   1551                          case REC_ACK:                                                                
   1552                                      fl_lcp.lcp_tm_out_en=0;                                                  
   1553                                      LCP_act_buf[uk_in_act_LCP]=TLF;  
   1554                                      prov_uk_in();                   
   1555                                      LCP_state=STOP_ST;
   1556                                      return;
   1557                          case SEND_ACK:                                                                
   1558                                      fl_lcp.lcp_tm_out_en=0;                                                  
   1559                                      LCP_act_buf[uk_in_act_LCP]=TLF;  
   1560                                      prov_uk_in();                   
   1561                                      LCP_state=STOP_ST;
   1562                                      return;
   1563                          case OPEN_ST:                                                                
   1564                                      vol_cnt_rst_lcp=VOL_LCP_MT;  
   \                     ??monitor_event_LCP_75:
   \   0000038A   E002               LDI     R16, 2
   \   0000038C   A701               STD     Z+41, R16
   1565                                      LCP_act_buf[uk_in_act_LCP]=TLD;  
   \   0000038E   E001               LDI     R16, 1
   \   00000390   01FC               MOVW    R31:R30, R25:R24
   \   00000392   8B04               STD     Z+20, R16
   1566                                      prov_uk_in(); 
   \   00000394   ....               RCALL   prov_uk_in
   1567                                      LCP_act_buf[uk_in_act_LCP]=IRC; 
   \   00000396   E004               LDI     R16, 4
   \   00000398   01FD               MOVW    R31:R30, R27:R26
   \   0000039A   A124               LDD     R18, Z+36
   \   0000039C   E030               LDI     R19, 0
   \   0000039E   0FE2               ADD     R30, R18
   \   000003A0   1FF3               ADC     R31, R19
   \   000003A2   8B04               STD     Z+20, R16
   1568                                      prov_uk_in();  
   \   000003A4   ....               RCALL   prov_uk_in
   1569                                      LCP_act_buf[uk_in_act_LCP]=STR;  
   \   000003A6   E009               LDI     R16, 9
   \   000003A8   01FD               MOVW    R31:R30, R27:R26
   \   000003AA   A124               LDD     R18, Z+36
   \   000003AC   E030               LDI     R19, 0
   \   000003AE   0FA2               ADD     R26, R18
   \   000003B0   1FB3               ADC     R27, R19
   \   000003B2   01FD               MOVW    R31:R30, R27:R26
   \   000003B4   CE84               RJMP    ??monitor_event_LCP_19
   1570                                      prov_uk_in();                                  
   1571                                      LCP_state=OSTANOV;  
   1572                                      return;                                                                        
   1573                         } 
   1574                       return;  
   1575                  case RXR:       
   1576                       LCP_event=NO_EVENT;
   1577                       switch(LCP_state)
   1578                         {                     
   1579          
   1580                          case STOP_ST:      
   1581                                      fl_lcp.lcp_tm_out_en=0;                                                              
   1582                                      LCP_state=START_ST;
   1583                                      return;        
   1584                          case OSTANOV:                                                                               
   1585                                      LCP_state=OSTANOV;
   1586                                      return;  
   1587                          case SEND_REQ:                                                                                 
   1588                                      LCP_state=SEND_REQ;
   1589                                      return;
   1590                          case REC_ACK:                                                                              
   1591                                      LCP_state=REC_ACK;
   1592                                      return;
   1593                          case SEND_ACK:                                                                              
   1594                                      LCP_state=SEND_ACK;
   1595                                      return;
   1596                          case OPEN_ST:                                                                                
   1597                                   //   LCP_act_buf[uk_in_act_LCP]=SER;  
   1598                                   //   prov_uk_in();
   1599                                      LCP_state=OPEN_ST;
   1600                                      return;                                                                 
   1601                         }  
   1602                       return;                                  
   1603                  }
   1604              
   1605              }
   1606           
   1607            
   1608            
   1609            ////////////////мониторы IPCP        
   1610            

   \                                 In segment CODE, align 2, keep-with-next
   1611            void run_ipcp_act(void)
   \                     run_ipcp_act:
   1612                {  
   \   00000000   ........           CALL    ?PROLOGUE5_L09
   \   00000004                      REQUIRE ?Register_R4_is_cg_reg
   \   00000004   9722               SBIW    R29:R28, 2
   1613                 unsigned char i;
   1614                 
   1615                 union
   1616               {
   1617                unsigned char bytes[2]; 
   1618                unsigned int word;
   1619               }temp;
   1620                
   1621                 
   1622                 switch (IPCP_act_buf[uk_out_act_IPCP])
   \   00000006   ....               LDI     R24, LOW(ip_pri_dns)
   \   00000008   ....               LDI     R25, (ip_pri_dns) >> 8
   \   0000000A   01FC               MOVW    R31:R30, R25:R24
   \   0000000C   A843               LDD     R4, Z+51
   \   0000000E   ....               LDI     R26, LOW(buf_tx_232)
   \   00000010   ....               LDI     R27, (buf_tx_232) >> 8
   \   00000012   A107               LDD     R16, Z+39
   \   00000014   E010               LDI     R17, 0
   \   00000016   01F8               MOVW    R31:R30, R17:R16
   \   00000018   ....               SUBI    R30, LOW((-(cnt_pap_tm_out) & 0xFFFF))
   \   0000001A   ....               SBCI    R31, (-(cnt_pap_tm_out) & 0xFFFF) >> 8
   \   0000001C   8104               LDD     R16, Z+4
   \   0000001E   ....               LDI     R30, LOW(`?<Jumptable for run_ipcp_act>_0`)
   \   00000020   ....               LDI     R31, (`?<Jumptable for run_ipcp_act>_0`) >> 16
   \   00000022   BFFB               OUT     0x3B, R31
   \   00000024   ....               LDI     R31, HIGH(`?<Jumptable for run_ipcp_act>_0`)
   \   00000026   ........           JMP     ?CV_SWITCH_L06
   1623                    {
   1624                     case TLU:     
   1625          
   1626                          event_modem=EVM_PPP_OK;
   \                     ??run_ipcp_act_0:
   \   0000002A   E004               LDI     R16, 4
   \   0000002C   9300....           STS     event_modem, R16
   1627           
   1628                          layer_PPP=LAYER_IP;   
   \   00000030   9300....           STS     layer_PPP, R16
   1629                          fl_ip.act_ip_end=1;   
   \   00000034   01FC               MOVW    R31:R30, R25:R24
   \   00000036   8504               LDD     R16, Z+12
   \   00000038   6001               ORI     R16, 0x01
   \   0000003A   8704               STD     Z+12, R16
   1630                          fl_ipcp.act_ipcp_end=1; 
   \   0000003C   8503               LDD     R16, Z+11
   \   0000003E   6001               ORI     R16, 0x01
   \   00000040   8703               STD     Z+11, R16
   1631                       
   1632                         if(Control.vol_link!=0)fl_ip.ip_tm_cntr_en=1;
   \   00000042   ....               LDI     R26, LOW(Control)
   \   00000044   ....               LDI     R27, (Control) >> 8
   \   00000046   01FD               MOVW    R31:R30, R27:R26
   \   00000048   8500               LDD     R16, Z+8
   \   0000004A   8511               LDD     R17, Z+9
   \   0000004C   2B01               OR      R16, R17
   \   0000004E   F021               BREQ    ??run_ipcp_act_1
   \   00000050   01FC               MOVW    R31:R30, R25:R24
   \   00000052   8504               LDD     R16, Z+12
   \   00000054   6002               ORI     R16, 0x02
   \   00000056   8704               STD     Z+12, R16
   1633                         if(Control.vol_nat!=0)fl_ip.ip_tm_nat_en=1;
   \                     ??run_ipcp_act_1:
   \   00000058   01FD               MOVW    R31:R30, R27:R26
   \   0000005A   8502               LDD     R16, Z+10
   \   0000005C   8513               LDD     R17, Z+11
   \   0000005E   2B01               OR      R16, R17
   \   00000060   F021               BREQ    ??run_ipcp_act_2
   \   00000062   01FC               MOVW    R31:R30, R25:R24
   \   00000064   8504               LDD     R16, Z+12
   \   00000066   6004               ORI     R16, 0x04
   \   00000068   8704               STD     Z+12, R16
   1634                         Control.cnt_try=0;
   \                     ??run_ipcp_act_2:
   \   0000006A   E000               LDI     R16, 0
   \   0000006C   01FD               MOVW    R31:R30, R27:R26
   \   0000006E   8706               STD     Z+14, R16
   1635                         Control.cnt_link=BEG_CNTR_LINK;
   \   00000070   E00A               LDI     R16, 10
   \   00000072   E010               LDI     R17, 0
   \   00000074   8304               STD     Z+4, R16
   \   00000076   8315               STD     Z+5, R17
   1636                         clr_cntr_nat();
   \   00000078   ........           CALL    clr_cntr_nat
   1637                         
   1638                         Control.cnt_nat=BEG_CNTR_LINK-1; // пустой пакет!!!!
   \   0000007C   E009               LDI     R16, 9
   \   0000007E   E010               LDI     R17, 0
   \   00000080   01FD               MOVW    R31:R30, R27:R26
   \   00000082   8306               STD     Z+6, R16
   \   00000084   8317               STD     Z+7, R17
   \   00000086   C29F               RJMP    ??run_ipcp_act_3
   1639                         
   1640                        break;
   1641                     case TLD:  
   1642                          fl_ipcp.act_ipcp_end=0;
   1643                          layer_PPP=LAYER_LCP;  
   \                     ??run_ipcp_act_4:
   \   00000088   E001               LDI     R16, 1
   \   0000008A   9300....           STS     layer_PPP, R16
   1644                          fl_ipcp.act_ipcp_end=1; 
   \   0000008E   01FC               MOVW    R31:R30, R25:R24
   \   00000090   8503               LDD     R16, Z+11
   \   00000092   6001               ORI     R16, 0x01
   \                     ??run_ipcp_act_5:
   \   00000094   8703               STD     Z+11, R16
   \   00000096   C297               RJMP    ??run_ipcp_act_3
   1645                          break;
   1646                     case TLS:   
   1647                          fl_ipcp.act_ipcp_end=0;
   \                     ??run_ipcp_act_6:
   \   00000098   01FC               MOVW    R31:R30, R25:R24
   \   0000009A   8503               LDD     R16, Z+11
   \   0000009C   7F0E               ANDI    R16, 0xFE
   \   0000009E   8703               STD     Z+11, R16
   1648                          event_modem=EVM_PPP_ERR;
   \   000000A0   E005               LDI     R16, 5
   \   000000A2   9300....           STS     event_modem, R16
   \   000000A6   C28F               RJMP    ??run_ipcp_act_3
   1649                          //write_log_info(ST_ERROR,ERR8);
   1650                          //lock_it();
   1651                          break;
   1652                     case TLF:  
   1653                          fl_ipcp.act_ipcp_end=0;
   1654                          event_modem=EVM_PPP_ERR;
   1655                          //write_log_info(ST_ERROR,ERR9);
   1656                          //lock_it();
   1657                          break;
   1658                     case IRC:                   
   1659                          fl_ipcp.act_ipcp_end=0;
   1660                          cnt_ipcp_tm_out=VOL_IPCP_TM_OUT; 
   \                     ??run_ipcp_act_7:
   \   000000A8   EB08               LDI     R16, 184
   \   000000AA   E01B               LDI     R17, 11
   \   000000AC   ....               LDI     R30, LOW(cnt_ipcp_tm_out)
   \   000000AE   ....               LDI     R31, (cnt_ipcp_tm_out) >> 8
   \   000000B0   8300               ST      Z, R16
   \   000000B2   8311               STD     Z+1, R17
   1661                          cnt_rst_ipcp=vol_cnt_rst_ipcp;
   \   000000B4   01FC               MOVW    R31:R30, R25:R24
   \   000000B6   A503               LDD     R16, Z+43
   \   000000B8   A702               STD     Z+42, R16
   1662                          fl_ipcp.ipcp_tm_out_en=1; 
   1663                          fl_ipcp.act_ipcp_end=1; 
   \   000000BA   8503               LDD     R16, Z+11
   \   000000BC   6003               ORI     R16, 0x03
   \   000000BE   CFEA               RJMP    ??run_ipcp_act_5
   1664                               
   1665                          break;
   1666                     case ZRC:  
   1667                          fl_ipcp.act_ipcp_end=0;
   1668                          cnt_ipcp_tm_out=VOL_IPCP_TM_OUT; 
   \                     ??run_ipcp_act_8:
   \   000000C0   EB08               LDI     R16, 184
   \   000000C2   E01B               LDI     R17, 11
   \   000000C4   ....               LDI     R30, LOW(cnt_ipcp_tm_out)
   \   000000C6   ....               LDI     R31, (cnt_ipcp_tm_out) >> 8
   \   000000C8   8300               ST      Z, R16
   \   000000CA   8311               STD     Z+1, R17
   1669                          cnt_rst_ipcp=0;
   \   000000CC   E000               LDI     R16, 0
   \   000000CE   01FC               MOVW    R31:R30, R25:R24
   \   000000D0   A702               STD     Z+42, R16
   1670                          fl_ipcp.ipcp_tm_out_en=1; 
   1671                          fl_ipcp.act_ipcp_end=1;  
   \   000000D2   8503               LDD     R16, Z+11
   \   000000D4   6003               ORI     R16, 0x03
   \   000000D6   8703               STD     Z+11, R16
   \   000000D8   C276               RJMP    ??run_ipcp_act_3
   1672                          break;
   1673                     case SCR:    
   1674          
   1675                           fl_ipcp.act_ipcp_end=0;
   \                     ??run_ipcp_act_9:
   \   000000DA   01FC               MOVW    R31:R30, R25:R24
   \   000000DC   8503               LDD     R16, Z+11
   \   000000DE   7F0E               ANDI    R16, 0xFE
   \   000000E0   8703               STD     Z+11, R16
   1676                           buf_tx_232[0]=0x7e;               
   \   000000E2   E70E               LDI     R16, 126
   \   000000E4   930C               ST      X, R16
   1677                           buf_tx_232[1]=0x80;
   \   000000E6   E800               LDI     R16, 128
   \   000000E8   01FD               MOVW    R31:R30, R27:R26
   \   000000EA   8301               STD     Z+1, R16
   1678                           buf_tx_232[2]=0x21;
   \   000000EC   E201               LDI     R16, 33
   \   000000EE   8302               STD     Z+2, R16
   1679                           
   1680                           buf_tx_232[3]=CONF_REQ; 
   \   000000F0   E001               LDI     R16, 1
   \   000000F2   8303               STD     Z+3, R16
   1681                           buf_tx_232[4]=i_scr_ipcp;   
   \   000000F4   01FC               MOVW    R31:R30, R25:R24
   \   000000F6   A902               LDD     R16, Z+50
   \   000000F8   01FD               MOVW    R31:R30, R27:R26
   \   000000FA   8304               STD     Z+4, R16
   1682           
   1683                           
   1684                           buf_tx_232[5]=0;
   \   000000FC   E000               LDI     R16, 0
   \   000000FE   8305               STD     Z+5, R16
   1685                           buf_tx_232[6]=10;//без DNS
   \   00000100   E00A               LDI     R16, 10
   \   00000102   8306               STD     Z+6, R16
   1686                            
   1687                         //  buf_tx_232[6]=22;//c DNS 
   1688                                        
   1689                           buf_tx_232[7]=3;      //запрос IP контроллера
   \   00000104   E003               LDI     R16, 3
   \   00000106   8307               STD     Z+7, R16
   1690                           buf_tx_232[8]=6;
   \   00000108   E006               LDI     R16, 6
   \   0000010A   8700               STD     Z+8, R16
   1691                           buf_tx_232[9]=ip_self[0]; 
   \   0000010C   ....               LDI     R16, LOW(ip_self)
   \   0000010E   ....               LDI     R17, (ip_self) >> 8
   \   00000110   01F8               MOVW    R31:R30, R17:R16
   \   00000112   8120               LD      R18, Z
   \   00000114   01FD               MOVW    R31:R30, R27:R26
   \   00000116   8721               STD     Z+9, R18
   1692                           buf_tx_232[10]=ip_self[1]; 
   \   00000118   01F8               MOVW    R31:R30, R17:R16
   \   0000011A   8121               LDD     R18, Z+1
   \   0000011C   01FD               MOVW    R31:R30, R27:R26
   \   0000011E   8722               STD     Z+10, R18
   1693                           buf_tx_232[11]=ip_self[2];
   \   00000120   01F8               MOVW    R31:R30, R17:R16
   \   00000122   8122               LDD     R18, Z+2
   \   00000124   01FD               MOVW    R31:R30, R27:R26
   \   00000126   8723               STD     Z+11, R18
   1694                           buf_tx_232[12]=ip_self[3];
   \   00000128   01F8               MOVW    R31:R30, R17:R16
   \   0000012A   8103               LDD     R16, Z+3
   \   0000012C   01FD               MOVW    R31:R30, R27:R26
   \   0000012E   8704               STD     Z+12, R16
   1695                           
   1696                           
   1697                         //  buf_tx_232[13]=0x81;      //запрос IP_PRI_DNS
   1698                         //  buf_tx_232[14]=6;
   1699                         //  buf_tx_232[15]=ip_pri_dns[0]; 
   1700                         //  buf_tx_232[16]=ip_pri_dns[1]; 
   1701                          // buf_tx_232[17]=ip_pri_dns[2];
   1702                          // buf_tx_232[18]=ip_pri_dns[3];
   1703                           
   1704                          // buf_tx_232[19]=0x83;      //запрос IP_SEC_DNS
   1705                          // buf_tx_232[20]=6;
   1706                          // buf_tx_232[21]=ip_sec_dns[0]; 
   1707                          // buf_tx_232[22]=ip_sec_dns[1]; 
   1708                          // buf_tx_232[23]=ip_sec_dns[2];
   1709                          // buf_tx_232[24]=ip_sec_dns[3];
   1710                                            
   1711                           
   1712                           temp.word=pppfcs16(PPPINITFCS16,&buf_tx_232[1],buf_tx_232[6]+2) ^ 0xffff;                  
   \   00000130   E04C               LDI     R20, 12
   \   00000132   E050               LDI     R21, 0
   \   00000134   019D               MOVW    R19:R18, R27:R26
   \   00000136   5F2F               SUBI    R18, 255
   \   00000138   4F3F               SBCI    R19, 255
   \   0000013A   EF0F               LDI     R16, 255
   \   0000013C   EF1F               LDI     R17, 255
   \   0000013E   ....               RCALL   pppfcs16
   \   00000140   EF2F               LDI     R18, 255
   \   00000142   EF3F               LDI     R19, 255
   \   00000144   2720               EOR     R18, R16
   \   00000146   2731               EOR     R19, R17
   \   00000148   8328               ST      Y, R18
   \   0000014A   8339               STD     Y+1, R19
   1713                           buf_tx_232[13]=temp.bytes[0];//без DNS
   \   0000014C   8108               LD      R16, Y
   \   0000014E   01FD               MOVW    R31:R30, R27:R26
   \   00000150   8705               STD     Z+13, R16
   1714                           buf_tx_232[14]=temp.bytes[1];//без DNS
   \   00000152   8109               LDD     R16, Y+1
   \   00000154   8706               STD     Z+14, R16
   1715                           
   1716                           buf_tx_232[15]=0x7e; //без DNS
   \   00000156   E70E               LDI     R16, 126
   \   00000158   8707               STD     Z+15, R16
   1717                         //  buf_tx_232[25]=temp.bytes[0];//c DNS 
   1718                         //  buf_tx_232[26]=temp.bytes[1]; //c DNS              
   1719                         //  buf_tx_232[27]=0x7e; //c DNS 
   1720                          
   1721                           count_tx_ppp=0;
   \   0000015A   E000               LDI     R16, 0
   \   0000015C   E010               LDI     R17, 0
   \   0000015E   ....               LDI     R30, LOW(count_tx_ppp)
   \   00000160   ....               LDI     R31, (count_tx_ppp) >> 8
   \   00000162   8300               ST      Z, R16
   \   00000164   8301               STD     Z+1, R16
   1722                           vol_tx_ppp=buf_tx_232[6]+6;               
   \   00000166   E100               LDI     R16, 16
   \   00000168   ....               LDI     R30, LOW(vol_tx_ppp)
   \   0000016A   ....               LDI     R31, (vol_tx_ppp) >> 8
   \   0000016C   8300               ST      Z, R16
   \   0000016E   8311               STD     Z+1, R17
   1723                           UCSR0A=UCSR0A | TXC;                            
   \   00000170   910000C0           LDS     R16, 192
   \   00000174   6400               ORI     R16, 0x40
   \   00000176   930000C0           STS     192, R16
   1724                           UCSR0B=UCSR0B | TXEN;
   \   0000017A   910000C1           LDS     R16, 193
   \   0000017E   6008               ORI     R16, 0x08
   \   00000180   930000C1           STS     193, R16
   1725                           UCSR0B=UCSR0B | TXCIE;
   \   00000184   910000C1           LDS     R16, 193
   \   00000188   6400               ORI     R16, 0x40
   \   0000018A   930000C1           STS     193, R16
   1726                           if(check_cts()==1) return;   
   \   0000018E   ........           CALL    check_cts
   \   00000192   3001               CPI     R16, 1
   \   00000194   F409               BRNE    $+2+2
   \   00000196   C217               RJMP    ??run_ipcp_act_3
   1727                           S2_RD;
   \   00000198   9A40               SBI     0x08, 0x00
   \   0000019A   9841               CBI     0x08, 0x01
   1728                           UDR0=buf_tx_232[0]; 
   \   0000019C   910C               LD      R16, X
   \   0000019E   930000C6           STS     198, R16
   1729                           if(Regim==RG_DEBAG) UDR3=buf_tx_232[0];
   \   000001A2   9100....           LDS     R16, Regim
   \   000001A6   3001               CPI     R16, 1
   \   000001A8   F009               BREQ    $+2+2
   \   000001AA   C20D               RJMP    ??run_ipcp_act_3
   \                     ??run_ipcp_act_10:
   \   000001AC   910C               LD      R16, X
   \   000001AE   93000136           STS     310, R16
   \   000001B2   C209               RJMP    ??run_ipcp_act_3
   1730                         
   1731                           
   1732                         
   1733                          break; 
   1734                           
   1735                     case SCA: 
   1736                           fl_ipcp.act_ipcp_end=0;
   \                     ??run_ipcp_act_11:
   \   000001B4   01FC               MOVW    R31:R30, R25:R24
   \   000001B6   8503               LDD     R16, Z+11
   \   000001B8   7F0E               ANDI    R16, 0xFE
   \   000001BA   8703               STD     Z+11, R16
   1737                           buf_tx_232[0]=0x7e; 
   \   000001BC   E70E               LDI     R16, 126
   \   000001BE   930C               ST      X, R16
   1738                           buf_tx_232[1]=0x80;
   \   000001C0   E800               LDI     R16, 128
   \   000001C2   01FD               MOVW    R31:R30, R27:R26
   \   000001C4   8301               STD     Z+1, R16
   1739                           buf_tx_232[2]=0x21;
   \   000001C6   E201               LDI     R16, 33
   \   000001C8   8302               STD     Z+2, R16
   1740                                           
   1741                           buf_tx_232[3]=CONF_ACK;
   \   000001CA   E002               LDI     R16, 2
   \   000001CC   8303               STD     Z+3, R16
   1742                           buf_tx_232[4]=i_scan_ipcp;
   \   000001CE   8244               STD     Z+4, R4
   1743                           
   1744                           temp.word=ln_ack_ipcp+4;
   \   000001D0   96CD               ADIW    R25:R24, 61
   \   000001D2   01FC               MOVW    R31:R30, R25:R24
   \   000001D4   8110               LD      R17, Z
   \   000001D6   2F81               MOV     R24, R17
   \   000001D8   E090               LDI     R25, 0
   \   000001DA   019C               MOVW    R19:R18, R25:R24
   \   000001DC   5F2C               SUBI    R18, 252
   \   000001DE   4F3F               SBCI    R19, 255
   \   000001E0   8328               ST      Y, R18
   \   000001E2   8339               STD     Y+1, R19
   1745                           buf_tx_232[5]=temp.bytes[1]; 
   \   000001E4   8109               LDD     R16, Y+1
   \   000001E6   01FD               MOVW    R31:R30, R27:R26
   \   000001E8   8305               STD     Z+5, R16
   1746                           buf_tx_232[6]=temp.bytes[0];
   \   000001EA   8108               LD      R16, Y
   \   000001EC   8306               STD     Z+6, R16
   1747                          
   1748                           temp.word=temp.word+2;         
   \   000001EE   8128               LD      R18, Y
   \   000001F0   8139               LDD     R19, Y+1
   \   000001F2   5F2E               SUBI    R18, 254
   \   000001F4   4F3F               SBCI    R19, 255
   \   000001F6   8328               ST      Y, R18
   \   000001F8   8339               STD     Y+1, R19
   1749                           vol_tx_ppp=temp.word+4;  
   \   000001FA   8128               LD      R18, Y
   \   000001FC   8139               LDD     R19, Y+1
   \   000001FE   5F2C               SUBI    R18, 252
   \   00000200   4F3F               SBCI    R19, 255
   \   00000202   ....               LDI     R30, LOW(vol_tx_ppp)
   \   00000204   ....               LDI     R31, (vol_tx_ppp) >> 8
   \   00000206   8320               ST      Z, R18
   \   00000208   8331               STD     Z+1, R19
   1750                             
   1751                           for(i=0;i<ln_ack_ipcp;i++)buf_tx_232[7+i]=buf_ack_opt_ipcp[i];
   \   0000020A   E000               LDI     R16, 0
   \   0000020C   C00B               RJMP    ??run_ipcp_act_12
   \                     ??run_ipcp_act_13:
   \   0000020E   2F20               MOV     R18, R16
   \   00000210   E030               LDI     R19, 0
   \   00000212   01F9               MOVW    R31:R30, R19:R18
   \   00000214   ....               SUBI    R30, LOW((-(cnt_ipcp_tm_out) & 0xFFFF))
   \   00000216   ....               SBCI    R31, (-(cnt_ipcp_tm_out) & 0xFFFF) >> 8
   \   00000218   A141               LDD     R20, Z+33
   \   0000021A   01FD               MOVW    R31:R30, R27:R26
   \   0000021C   0FE2               ADD     R30, R18
   \   0000021E   1FF9               ADC     R31, R25
   \   00000220   8347               STD     Z+7, R20
   \   00000222   9503               INC     R16
   \                     ??run_ipcp_act_12:
   \   00000224   1701               CP      R16, R17
   \   00000226   F398               BRCS    ??run_ipcp_act_13
   1752                           
   1753                           temp.word=pppfcs16(PPPINITFCS16,&buf_tx_232[1],temp.word) ^ 0xffff;                  
   \                     ??run_ipcp_act_14:
   \   00000228   8148               LD      R20, Y
   \   0000022A   8159               LDD     R21, Y+1
   \   0000022C   019D               MOVW    R19:R18, R27:R26
   \   0000022E   5F2F               SUBI    R18, 255
   \   00000230   4F3F               SBCI    R19, 255
   \   00000232   EF0F               LDI     R16, 255
   \   00000234   EF1F               LDI     R17, 255
   \   00000236   ....               RCALL   pppfcs16
   \   00000238   EF2F               LDI     R18, 255
   \   0000023A   EF3F               LDI     R19, 255
   \   0000023C   2720               EOR     R18, R16
   \   0000023E   2731               EOR     R19, R17
   \   00000240   8328               ST      Y, R18
   \   00000242   8339               STD     Y+1, R19
   1754                           buf_tx_232[7+ln_ack_ipcp]=temp.bytes[0];
   \   00000244   01FD               MOVW    R31:R30, R27:R26
   \   00000246   0FE8               ADD     R30, R24
   \   00000248   1FF9               ADC     R31, R25
   \   0000024A   8128               LD      R18, Y
   \   0000024C   8327               STD     Z+7, R18
   1755                           buf_tx_232[8+ln_ack_ipcp]=temp.bytes[1];
   \   0000024E   8129               LDD     R18, Y+1
   \   00000250   8720               STD     Z+8, R18
   1756                           buf_tx_232[9+ln_ack_ipcp]=0x7e;
   \   00000252   E70E               LDI     R16, 126
   \   00000254   8701               STD     Z+9, R16
   1757                           
   1758                           count_tx_ppp=0;                             
   \   00000256   ....               LDI     R30, LOW(count_tx_ppp)
   \   00000258   ....               LDI     R31, (count_tx_ppp) >> 8
   \   0000025A   8390               ST      Z, R25
   \   0000025C   8391               STD     Z+1, R25
   1759                               UCSR0A=UCSR0A | TXC;                            
   \                     ??run_ipcp_act_15:
   \   0000025E   910000C0           LDS     R16, 192
   \   00000262   6400               ORI     R16, 0x40
   \   00000264   930000C0           STS     192, R16
   1760                               UCSR0B=UCSR0B | TXEN;
   \   00000268   910000C1           LDS     R16, 193
   \   0000026C   6008               ORI     R16, 0x08
   \   0000026E   930000C1           STS     193, R16
   1761                               UCSR0B=UCSR0B | TXCIE;
   \   00000272   910000C1           LDS     R16, 193
   \   00000276   6400               ORI     R16, 0x40
   \   00000278   930000C1           STS     193, R16
   1762                               if(check_cts()==1) return;
   \   0000027C   ........           CALL    check_cts
   \   00000280   3001               CPI     R16, 1
   \   00000282   F409               BRNE    $+2+2
   \   00000284   C1A0               RJMP    ??run_ipcp_act_3
   1763                           S2_RD;
   \   00000286   9A40               SBI     0x08, 0x00
   \   00000288   9841               CBI     0x08, 0x01
   1764                           UDR0=buf_tx_232[0]; 
   \   0000028A   910C               LD      R16, X
   \   0000028C   930000C6           STS     198, R16
   1765                           if(Regim==RG_DEBAG) UDR3=buf_tx_232[0];
   \   00000290   9100....           LDS     R16, Regim
   \   00000294   3001               CPI     R16, 1
   \   00000296   F009               BREQ    $+2+2
   \   00000298   C196               RJMP    ??run_ipcp_act_3
   \   0000029A   CF88               RJMP    ??run_ipcp_act_10
   1766                         
   1767                          
   1768                            
   1769                          break;
   1770                     case SCN:  
   1771                          
   1772                          
   1773          
   1774                           fl_ipcp.act_ipcp_end=0;
   \                     ??run_ipcp_act_16:
   \   0000029C   01FC               MOVW    R31:R30, R25:R24
   \   0000029E   8503               LDD     R16, Z+11
   \   000002A0   7F0E               ANDI    R16, 0xFE
   \   000002A2   8703               STD     Z+11, R16
   1775                           buf_tx_232[0]=0x7e; 
   \   000002A4   E70E               LDI     R16, 126
   \   000002A6   930C               ST      X, R16
   1776                           buf_tx_232[1]=0x80;
   \   000002A8   E800               LDI     R16, 128
   \   000002AA   01FD               MOVW    R31:R30, R27:R26
   \   000002AC   8301               STD     Z+1, R16
   1777                           buf_tx_232[2]=0x21;
   \   000002AE   E201               LDI     R16, 33
   \   000002B0   8302               STD     Z+2, R16
   1778          
   1779                           
   1780                           if (fl_ipcp2.nac_rej==0) 
   \   000002B2   01FC               MOVW    R31:R30, R25:R24
   \   000002B4   8507               LDD     R16, Z+15
   \   000002B6   FD00               SBRC    R16, 0
   \   000002B8   C031               RJMP    ??run_ipcp_act_17
   1781                               {
   1782                               buf_tx_232[3]=CONF_NAK;                       
   \   000002BA   E003               LDI     R16, 3
   \   000002BC   01FD               MOVW    R31:R30, R27:R26
   \   000002BE   8303               STD     Z+3, R16
   1783                               
   1784                               buf_tx_232[4]=i_scan_ipcp;
   \   000002C0   8244               STD     Z+4, R4
   1785                           
   1786                               temp.word=ln_nak_ipcp+4;
   \   000002C2   96CE               ADIW    R25:R24, 62
   \   000002C4   01FC               MOVW    R31:R30, R25:R24
   \   000002C6   8110               LD      R17, Z
   \   000002C8   2F81               MOV     R24, R17
   \   000002CA   E090               LDI     R25, 0
   \   000002CC   019C               MOVW    R19:R18, R25:R24
   \   000002CE   5F2C               SUBI    R18, 252
   \   000002D0   4F3F               SBCI    R19, 255
   \   000002D2   8328               ST      Y, R18
   \   000002D4   8339               STD     Y+1, R19
   1787                               buf_tx_232[5]=temp.bytes[1]; 
   \   000002D6   8109               LDD     R16, Y+1
   \   000002D8   01FD               MOVW    R31:R30, R27:R26
   \   000002DA   8305               STD     Z+5, R16
   1788                               buf_tx_232[6]=temp.bytes[0];
   \   000002DC   8108               LD      R16, Y
   \   000002DE   8306               STD     Z+6, R16
   1789                              
   1790                              temp.word=temp.word+2;         
   \   000002E0   8128               LD      R18, Y
   \   000002E2   8139               LDD     R19, Y+1
   \   000002E4   5F2E               SUBI    R18, 254
   \   000002E6   4F3F               SBCI    R19, 255
   \   000002E8   8328               ST      Y, R18
   \   000002EA   8339               STD     Y+1, R19
   1791                              vol_tx_ppp=temp.word+4;
   \   000002EC   8128               LD      R18, Y
   \   000002EE   8139               LDD     R19, Y+1
   \   000002F0   5F2C               SUBI    R18, 252
   \   000002F2   4F3F               SBCI    R19, 255
   \   000002F4   ....               LDI     R30, LOW(vol_tx_ppp)
   \   000002F6   ....               LDI     R31, (vol_tx_ppp) >> 8
   \   000002F8   8320               ST      Z, R18
   \   000002FA   8331               STD     Z+1, R19
   1792                               
   1793          
   1794                                
   1795                               for(i=0;i<ln_nak_ipcp;i++)buf_tx_232[7+i]=buf_nak_opt_ipcp[i];
   \   000002FC   E000               LDI     R16, 0
   \   000002FE   C00B               RJMP    ??run_ipcp_act_18
   \                     ??run_ipcp_act_19:
   \   00000300   2F20               MOV     R18, R16
   \   00000302   E030               LDI     R19, 0
   \   00000304   01F9               MOVW    R31:R30, R19:R18
   \   00000306   ....               SUBI    R30, LOW((-(cnt_pap_tm_out) & 0xFFFF))
   \   00000308   ....               SBCI    R31, (-(cnt_pap_tm_out) & 0xFFFF) >> 8
   \   0000030A   8940               LDD     R20, Z+16
   \   0000030C   01FD               MOVW    R31:R30, R27:R26
   \   0000030E   0FE2               ADD     R30, R18
   \   00000310   1FF9               ADC     R31, R25
   \   00000312   8347               STD     Z+7, R20
   \   00000314   9503               INC     R16
   \                     ??run_ipcp_act_18:
   \   00000316   1701               CP      R16, R17
   \   00000318   F398               BRCS    ??run_ipcp_act_19
   1796                               temp.word=pppfcs16(PPPINITFCS16,&buf_tx_232[1],temp.word) ^ 0xffff;                  
   \   0000031A   CF86               RJMP    ??run_ipcp_act_14
   1797                               buf_tx_232[7+ln_nak_ipcp]=temp.bytes[0];
   1798                               buf_tx_232[8+ln_nak_ipcp]=temp.bytes[1];
   1799                               buf_tx_232[9+ln_nak_ipcp]=0x7e;
   1800                               
   1801                               count_tx_ppp=0;                             
   1802                               UCSR0A=UCSR0A | TXC;                            
   1803                               UCSR0B=UCSR0B | TXEN;
   1804                               UCSR0B=UCSR0B | TXCIE;
   1805                               if(check_cts()==1) return;
   1806                               S2_RD;
   1807                               UDR0=buf_tx_232[0];
   1808                               if(Regim==RG_DEBAG) UDR3=buf_tx_232[0];
   1809                               
   1810                               }  
   1811                               else
   1812                               { 
   1813                               fl_ipcp2.nac_rej=0;
   \                     ??run_ipcp_act_17:
   \   0000031C   8507               LDD     R16, Z+15
   \   0000031E   7F0E               ANDI    R16, 0xFE
   \   00000320   8707               STD     Z+15, R16
   1814                               buf_tx_232[3]=CONF_REJ;  
   \   00000322   E004               LDI     R16, 4
   \   00000324   01FD               MOVW    R31:R30, R27:R26
   \   00000326   8303               STD     Z+3, R16
   1815                               buf_tx_232[4]=i_scan_ipcp;
   \   00000328   8244               STD     Z+4, R4
   1816                           
   1817                               temp.word=ln_rej_ipcp+4;
   \   0000032A   96CC               ADIW    R25:R24, 60
   \   0000032C   01FC               MOVW    R31:R30, R25:R24
   \   0000032E   8110               LD      R17, Z
   \   00000330   2F81               MOV     R24, R17
   \   00000332   E090               LDI     R25, 0
   \   00000334   019C               MOVW    R19:R18, R25:R24
   \   00000336   5F2C               SUBI    R18, 252
   \   00000338   4F3F               SBCI    R19, 255
   \   0000033A   8328               ST      Y, R18
   \   0000033C   8339               STD     Y+1, R19
   1818                               buf_tx_232[5]=temp.bytes[1]; 
   \   0000033E   8109               LDD     R16, Y+1
   \   00000340   01FD               MOVW    R31:R30, R27:R26
   \   00000342   8305               STD     Z+5, R16
   1819                               buf_tx_232[6]=temp.bytes[0];
   \   00000344   8108               LD      R16, Y
   \   00000346   8306               STD     Z+6, R16
   1820                                           
   1821                              temp.word=temp.word+2;         
   \   00000348   8128               LD      R18, Y
   \   0000034A   8139               LDD     R19, Y+1
   \   0000034C   5F2E               SUBI    R18, 254
   \   0000034E   4F3F               SBCI    R19, 255
   \   00000350   8328               ST      Y, R18
   \   00000352   8339               STD     Y+1, R19
   1822                              vol_tx_ppp=temp.word+4; 
   \   00000354   8128               LD      R18, Y
   \   00000356   8139               LDD     R19, Y+1
   \   00000358   5F2C               SUBI    R18, 252
   \   0000035A   4F3F               SBCI    R19, 255
   \   0000035C   ....               LDI     R30, LOW(vol_tx_ppp)
   \   0000035E   ....               LDI     R31, (vol_tx_ppp) >> 8
   \   00000360   8320               ST      Z, R18
   \   00000362   8331               STD     Z+1, R19
   1823                               
   1824                               for(i=0;i<ln_rej_ipcp;i++)buf_tx_232[7+i]=buf_rej_opt_ipcp[i];
   \   00000364   E000               LDI     R16, 0
   \   00000366   C00B               RJMP    ??run_ipcp_act_20
   \                     ??run_ipcp_act_21:
   \   00000368   2F20               MOV     R18, R16
   \   0000036A   E030               LDI     R19, 0
   \   0000036C   01F9               MOVW    R31:R30, R19:R18
   \   0000036E   ....               SUBI    R30, LOW((-(buf_rej_opt_ipcp) & 0xFFFF))
   \   00000370   ....               SBCI    R31, (-(buf_rej_opt_ipcp) & 0xFFFF) >> 8
   \   00000372   8140               LD      R20, Z
   \   00000374   01FD               MOVW    R31:R30, R27:R26
   \   00000376   0FE2               ADD     R30, R18
   \   00000378   1FF9               ADC     R31, R25
   \   0000037A   8347               STD     Z+7, R20
   \   0000037C   9503               INC     R16
   \                     ??run_ipcp_act_20:
   \   0000037E   1701               CP      R16, R17
   \   00000380   F398               BRCS    ??run_ipcp_act_21
   1825                               temp.word=pppfcs16(PPPINITFCS16,&buf_tx_232[1],temp.word) ^ 0xffff;                  
   \   00000382   8148               LD      R20, Y
   \   00000384   8159               LDD     R21, Y+1
   \   00000386   019D               MOVW    R19:R18, R27:R26
   \   00000388   5F2F               SUBI    R18, 255
   \   0000038A   4F3F               SBCI    R19, 255
   \   0000038C   EF0F               LDI     R16, 255
   \   0000038E   EF1F               LDI     R17, 255
   \   00000390   ........           CALL    pppfcs16
   \   00000394   EF2F               LDI     R18, 255
   \   00000396   EF3F               LDI     R19, 255
   \   00000398   2720               EOR     R18, R16
   \   0000039A   2731               EOR     R19, R17
   \   0000039C   8328               ST      Y, R18
   \   0000039E   8339               STD     Y+1, R19
   1826                               buf_tx_232[7+ln_rej_ipcp]=temp.bytes[0];
   \   000003A0   01FD               MOVW    R31:R30, R27:R26
   \   000003A2   0FE8               ADD     R30, R24
   \   000003A4   1FF9               ADC     R31, R25
   \   000003A6   8128               LD      R18, Y
   \   000003A8   8327               STD     Z+7, R18
   1827                               buf_tx_232[8+ln_rej_ipcp]=temp.bytes[1];                     
   \   000003AA   8129               LDD     R18, Y+1
   \   000003AC   8720               STD     Z+8, R18
   1828                               buf_tx_232[9+ln_rej_ipcp]=0x7e;                     
   \   000003AE   E70E               LDI     R16, 126
   \   000003B0   8701               STD     Z+9, R16
   1829                              
   1830                               count_tx_ppp=0;                             
   \   000003B2   ....               LDI     R30, LOW(count_tx_ppp)
   \   000003B4   ....               LDI     R31, (count_tx_ppp) >> 8
   \   000003B6   8390               ST      Z, R25
   \   000003B8   8391               STD     Z+1, R25
   1831                               UCSR0A=UCSR0A | TXC;                            
   \                     ??run_ipcp_act_22:
   \   000003BA   910000C0           LDS     R16, 192
   \   000003BE   6400               ORI     R16, 0x40
   \   000003C0   930000C0           STS     192, R16
   1832                               UCSR0B=UCSR0B | TXEN;
   \   000003C4   910000C1           LDS     R16, 193
   \   000003C8   6008               ORI     R16, 0x08
   \   000003CA   930000C1           STS     193, R16
   1833                               UCSR0B=UCSR0B | TXCIE;
   \   000003CE   910000C1           LDS     R16, 193
   \   000003D2   6400               ORI     R16, 0x40
   \   000003D4   930000C1           STS     193, R16
   1834                               if(check_cts()==1) return;                 
   \   000003D8   ........           CALL    check_cts
   \   000003DC   3001               CPI     R16, 1
   \   000003DE   F409               BRNE    $+2+2
   \   000003E0   C0F2               RJMP    ??run_ipcp_act_3
   1835                               S2_RD;
   \   000003E2   9A40               SBI     0x08, 0x00
   \   000003E4   9841               CBI     0x08, 0x01
   1836                               UDR0=buf_tx_232[0]; 
   \   000003E6   910C               LD      R16, X
   \   000003E8   930000C6           STS     198, R16
   1837                               if(Regim==RG_DEBAG) UDR3=buf_tx_232[0];
   \   000003EC   9100....           LDS     R16, Regim
   \   000003F0   3001               CPI     R16, 1
   \   000003F2   F009               BREQ    $+2+2
   \   000003F4   C0E8               RJMP    ??run_ipcp_act_3
   \   000003F6   CEDA               RJMP    ??run_ipcp_act_10
   1838                               }   
   1839                               
   1840          
   1841                               
   1842                          break; 
   1843                     case STR: 
   1844                           fl_ipcp.act_ipcp_end=0;
   \                     ??run_ipcp_act_23:
   \   000003F8   01FC               MOVW    R31:R30, R25:R24
   \   000003FA   8503               LDD     R16, Z+11
   \   000003FC   7F0E               ANDI    R16, 0xFE
   \   000003FE   8703               STD     Z+11, R16
   1845                           buf_tx_232[0]=0x7e; 
   \   00000400   E70E               LDI     R16, 126
   \   00000402   930C               ST      X, R16
   1846                          
   1847                           buf_tx_232[1]=0x80;
   \   00000404   E800               LDI     R16, 128
   \   00000406   01FD               MOVW    R31:R30, R27:R26
   \   00000408   8301               STD     Z+1, R16
   1848                           buf_tx_232[2]=0x21;
   \   0000040A   E201               LDI     R16, 33
   \   0000040C   8302               STD     Z+2, R16
   1849                           
   1850                           buf_tx_232[3]=TERM_REQ;  
   \   0000040E   E005               LDI     R16, 5
   \   00000410   8303               STD     Z+3, R16
   1851                           buf_tx_232[4]=i_str_ipcp; 
   \   00000412   01FC               MOVW    R31:R30, R25:R24
   \   00000414   A904               LDD     R16, Z+52
   \   00000416   01FD               MOVW    R31:R30, R27:R26
   \   00000418   8304               STD     Z+4, R16
   1852                           
   1853                           buf_tx_232[5]=0; 
   \   0000041A   E000               LDI     R16, 0
   \   0000041C   8305               STD     Z+5, R16
   1854                           buf_tx_232[6]=0x4;
   \   0000041E   E004               LDI     R16, 4
   \   00000420   8306               STD     Z+6, R16
   1855                           
   1856                           vol_tx_ppp=buf_tx_232[8]+6;
   \   00000422   8580               LDD     R24, Z+8
   \   00000424   E090               LDI     R25, 0
   \   00000426   9606               ADIW    R25:R24, 6
   \   00000428   ....               LDI     R30, LOW(vol_tx_ppp)
   \   0000042A   ....               LDI     R31, (vol_tx_ppp) >> 8
   \   0000042C   8380               ST      Z, R24
   \   0000042E   8391               STD     Z+1, R25
   1857                           
   1858                           temp.word=pppfcs16(PPPINITFCS16,&buf_tx_232[1],buf_tx_232[6]+2) ^ 0xffff;                  
   \   00000430   E046               LDI     R20, 6
   \   00000432   E050               LDI     R21, 0
   \   00000434   019D               MOVW    R19:R18, R27:R26
   \   00000436   5F2F               SUBI    R18, 255
   \   00000438   4F3F               SBCI    R19, 255
   \   0000043A   EF0F               LDI     R16, 255
   \   0000043C   EF1F               LDI     R17, 255
   \   0000043E   ........           CALL    pppfcs16
   \   00000442   EF2F               LDI     R18, 255
   \   00000444   EF3F               LDI     R19, 255
   \   00000446   2720               EOR     R18, R16
   \   00000448   2731               EOR     R19, R17
   \   0000044A   8328               ST      Y, R18
   \   0000044C   8339               STD     Y+1, R19
   1859                           buf_tx_232[7]=temp.bytes[0];
   \   0000044E   8108               LD      R16, Y
   \   00000450   01FD               MOVW    R31:R30, R27:R26
   \   00000452   8307               STD     Z+7, R16
   1860                           buf_tx_232[8]=temp.bytes[1];
   \   00000454   8109               LDD     R16, Y+1
   \   00000456   8700               STD     Z+8, R16
   1861                           
   1862                           buf_tx_232[9]=0x7e;  
   \   00000458   E70E               LDI     R16, 126
   \   0000045A   8701               STD     Z+9, R16
   1863                           
   1864                           
   1865                           count_tx_ppp=0;                             
   \   0000045C   E000               LDI     R16, 0
   \   0000045E   ....               LDI     R30, LOW(count_tx_ppp)
   \   00000460   ....               LDI     R31, (count_tx_ppp) >> 8
   \   00000462   8300               ST      Z, R16
   \   00000464   8301               STD     Z+1, R16
   1866                               UCSR0A=UCSR0A | TXC;                            
   \   00000466   CEFB               RJMP    ??run_ipcp_act_15
   1867                               UCSR0B=UCSR0B | TXEN;
   1868                               UCSR0B=UCSR0B | TXCIE;
   1869                               if(check_cts()==1) return;
   1870                           S2_RD;
   1871                           UDR0=buf_tx_232[0];
   1872                           if(Regim==RG_DEBAG) UDR3=buf_tx_232[0];
   1873                           
   1874                            
   1875                          break; 
   1876                     case STA:    
   1877                           fl_ipcp.act_ipcp_end=0;
   \                     ??run_ipcp_act_24:
   \   00000468   01FC               MOVW    R31:R30, R25:R24
   \   0000046A   8503               LDD     R16, Z+11
   \   0000046C   7F0E               ANDI    R16, 0xFE
   \   0000046E   8703               STD     Z+11, R16
   1878                           buf_tx_232[0]=0x7e; 
   \   00000470   E70E               LDI     R16, 126
   \   00000472   930C               ST      X, R16
   1879                           buf_tx_232[1]=0x80;
   \   00000474   E800               LDI     R16, 128
   \   00000476   01FD               MOVW    R31:R30, R27:R26
   \   00000478   8301               STD     Z+1, R16
   1880                           buf_tx_232[2]=0x21;
   \   0000047A   E201               LDI     R16, 33
   \   0000047C   8302               STD     Z+2, R16
   1881                    
   1882                           buf_tx_232[3]=TERM_ACK;  
   \   0000047E   E006               LDI     R16, 6
   \   00000480   8303               STD     Z+3, R16
   1883                           
   1884                            buf_tx_232[4]=i_sta_ipcp; 
   \   00000482   01FC               MOVW    R31:R30, R25:R24
   \   00000484   A905               LDD     R16, Z+53
   \   00000486   01FD               MOVW    R31:R30, R27:R26
   \   00000488   8304               STD     Z+4, R16
   1885                           
   1886                           buf_tx_232[5]=0; 
   \   0000048A   E000               LDI     R16, 0
   \   0000048C   8305               STD     Z+5, R16
   1887                           buf_tx_232[6]=0x4;
   \   0000048E   E004               LDI     R16, 4
   \   00000490   8306               STD     Z+6, R16
   1888                           
   1889                           vol_tx_ppp=buf_tx_232[6]+6;
   \   00000492   E00A               LDI     R16, 10
   \   00000494   E010               LDI     R17, 0
   \   00000496   ....               LDI     R30, LOW(vol_tx_ppp)
   \   00000498   ....               LDI     R31, (vol_tx_ppp) >> 8
   \   0000049A   8300               ST      Z, R16
   \   0000049C   8311               STD     Z+1, R17
   1890                           
   1891                           temp.word=pppfcs16(PPPINITFCS16,&buf_tx_232[1],buf_tx_232[6]+2) ^ 0xffff;                  
   \   0000049E   E046               LDI     R20, 6
   \   000004A0   E050               LDI     R21, 0
   \   000004A2   019D               MOVW    R19:R18, R27:R26
   \   000004A4   5F2F               SUBI    R18, 255
   \   000004A6   4F3F               SBCI    R19, 255
   \   000004A8   EF0F               LDI     R16, 255
   \   000004AA   EF1F               LDI     R17, 255
   \   000004AC   ........           CALL    pppfcs16
   \   000004B0   EF2F               LDI     R18, 255
   \   000004B2   EF3F               LDI     R19, 255
   \   000004B4   2720               EOR     R18, R16
   \   000004B6   2731               EOR     R19, R17
   \   000004B8   8328               ST      Y, R18
   \   000004BA   8339               STD     Y+1, R19
   1892                           buf_tx_232[7]=temp.bytes[0];
   \   000004BC   8108               LD      R16, Y
   \   000004BE   01FD               MOVW    R31:R30, R27:R26
   \   000004C0   8307               STD     Z+7, R16
   1893                           buf_tx_232[8]=temp.bytes[1];
   \   000004C2   8109               LDD     R16, Y+1
   \   000004C4   8700               STD     Z+8, R16
   1894                           
   1895                           buf_tx_232[9]=0x7e;  
   \   000004C6   E70E               LDI     R16, 126
   \   000004C8   8701               STD     Z+9, R16
   1896                          
   1897                           count_tx_ppp=0;                             
   \   000004CA   E000               LDI     R16, 0
   \   000004CC   ....               LDI     R30, LOW(count_tx_ppp)
   \   000004CE   ....               LDI     R31, (count_tx_ppp) >> 8
   \   000004D0   8300               ST      Z, R16
   \   000004D2   8301               STD     Z+1, R16
   1898                               UCSR0A=UCSR0A | TXC;                            
   \   000004D4   CF72               RJMP    ??run_ipcp_act_22
   1899                               UCSR0B=UCSR0B | TXEN;
   1900                               UCSR0B=UCSR0B | TXCIE;
   1901                               if(check_cts()==1) return; 
   1902                           S2_RD;
   1903                           UDR0=buf_tx_232[0]; 
   1904                           if(Regim==RG_DEBAG) UDR3=buf_tx_232[0];
   1905                          
   1906                          break;           
   1907                                             
   1908                     case SCJ:   
   1909                           fl_ipcp.act_ipcp_end=0;
   \                     ??run_ipcp_act_25:
   \   000004D6   01FC               MOVW    R31:R30, R25:R24
   \   000004D8   8503               LDD     R16, Z+11
   \   000004DA   7F0E               ANDI    R16, 0xFE
   \   000004DC   8703               STD     Z+11, R16
   1910                           buf_tx_232[0]=0x7e; 
   \   000004DE   E70E               LDI     R16, 126
   \   000004E0   930C               ST      X, R16
   1911                           buf_tx_232[1]=0x80;
   \   000004E2   E800               LDI     R16, 128
   \   000004E4   01FD               MOVW    R31:R30, R27:R26
   \   000004E6   8301               STD     Z+1, R16
   1912                           buf_tx_232[2]=0x21;
   \   000004E8   E201               LDI     R16, 33
   \   000004EA   8302               STD     Z+2, R16
   1913                           
   1914                           buf_tx_232[3]=CODE_REJ; 
   \   000004EC   E007               LDI     R16, 7
   \   000004EE   8303               STD     Z+3, R16
   1915                           
   1916                           buf_tx_232[4]=i_scj_lcp;
   \   000004F0   01FC               MOVW    R31:R30, R25:R24
   \   000004F2   A507               LDD     R16, Z+47
   \   000004F4   01FD               MOVW    R31:R30, R27:R26
   \   000004F6   8304               STD     Z+4, R16
   1917                           i_scj_lcp++;
   \   000004F8   01FC               MOVW    R31:R30, R25:R24
   \   000004FA   A507               LDD     R16, Z+47
   \   000004FC   9503               INC     R16
   \   000004FE   A707               STD     Z+47, R16
   1918                           
   1919                           temp.word=ln_rejc_ipcp+4;
   \   00000500   AD13               LDD     R17, Z+59
   \   00000502   2F81               MOV     R24, R17
   \   00000504   E090               LDI     R25, 0
   \   00000506   019C               MOVW    R19:R18, R25:R24
   \   00000508   5F2C               SUBI    R18, 252
   \   0000050A   4F3F               SBCI    R19, 255
   \   0000050C   8328               ST      Y, R18
   \   0000050E   8339               STD     Y+1, R19
   1920                           buf_tx_232[5]=temp.bytes[1]; 
   \   00000510   8109               LDD     R16, Y+1
   \   00000512   01FD               MOVW    R31:R30, R27:R26
   \   00000514   8305               STD     Z+5, R16
   1921                           buf_tx_232[6]=temp.bytes[0];
   \   00000516   8108               LD      R16, Y
   \   00000518   8306               STD     Z+6, R16
   1922                         
   1923                           temp.word=temp.word+2;         
   \   0000051A   8128               LD      R18, Y
   \   0000051C   8139               LDD     R19, Y+1
   \   0000051E   5F2E               SUBI    R18, 254
   \   00000520   4F3F               SBCI    R19, 255
   \   00000522   8328               ST      Y, R18
   \   00000524   8339               STD     Y+1, R19
   1924                           vol_tx_ppp=temp.word+4;  
   \   00000526   8128               LD      R18, Y
   \   00000528   8139               LDD     R19, Y+1
   \   0000052A   5F2C               SUBI    R18, 252
   \   0000052C   4F3F               SBCI    R19, 255
   \   0000052E   ....               LDI     R30, LOW(vol_tx_ppp)
   \   00000530   ....               LDI     R31, (vol_tx_ppp) >> 8
   \   00000532   8320               ST      Z, R18
   \   00000534   8331               STD     Z+1, R19
   1925                          
   1926                          
   1927                
   1928                           
   1929                          for(i=0;i<ln_rejc_ipcp;i++)buf_tx_232[7+i]=buf_rejc_opt_ipcp[i];
   \   00000536   E000               LDI     R16, 0
   \   00000538   C00B               RJMP    ??run_ipcp_act_26
   \                     ??run_ipcp_act_27:
   \   0000053A   2F20               MOV     R18, R16
   \   0000053C   E030               LDI     R19, 0
   \   0000053E   01F9               MOVW    R31:R30, R19:R18
   \   00000540   ....               SUBI    R30, LOW((-(cnt_ipcp_tm_out) & 0xFFFF))
   \   00000542   ....               SBCI    R31, (-(cnt_ipcp_tm_out) & 0xFFFF) >> 8
   \   00000544   8142               LDD     R20, Z+2
   \   00000546   01FD               MOVW    R31:R30, R27:R26
   \   00000548   0FE2               ADD     R30, R18
   \   0000054A   1FF9               ADC     R31, R25
   \   0000054C   8347               STD     Z+7, R20
   \   0000054E   9503               INC     R16
   \                     ??run_ipcp_act_26:
   \   00000550   1701               CP      R16, R17
   \   00000552   F398               BRCS    ??run_ipcp_act_27
   1930                          temp.word=pppfcs16(PPPINITFCS16,&buf_tx_232[1],temp.word) ^ 0xffff;                  
   \   00000554   8148               LD      R20, Y
   \   00000556   8159               LDD     R21, Y+1
   \   00000558   019D               MOVW    R19:R18, R27:R26
   \   0000055A   5F2F               SUBI    R18, 255
   \   0000055C   4F3F               SBCI    R19, 255
   \   0000055E   EF0F               LDI     R16, 255
   \   00000560   EF1F               LDI     R17, 255
   \   00000562   ........           CALL    pppfcs16
   \   00000566   EF2F               LDI     R18, 255
   \   00000568   EF3F               LDI     R19, 255
   \   0000056A   2720               EOR     R18, R16
   \   0000056C   2731               EOR     R19, R17
   \   0000056E   8328               ST      Y, R18
   \   00000570   8339               STD     Y+1, R19
   1931                          
   1932                          buf_tx_232[7+ln_rejc_ipcp]=temp.bytes[0];
   \   00000572   01FD               MOVW    R31:R30, R27:R26
   \   00000574   0FE8               ADD     R30, R24
   \   00000576   1FF9               ADC     R31, R25
   \   00000578   8128               LD      R18, Y
   \   0000057A   8327               STD     Z+7, R18
   1933                          buf_tx_232[8+ln_rejc_ipcp]=temp.bytes[1];                     
   \   0000057C   8129               LDD     R18, Y+1
   \   0000057E   8720               STD     Z+8, R18
   1934                          buf_tx_232[9+ln_rejc_ipcp]=0x7e;    
   \   00000580   E70E               LDI     R16, 126
   \   00000582   8701               STD     Z+9, R16
   1935                          
   1936                           count_tx_ppp=0;                             
   \   00000584   ....               LDI     R30, LOW(count_tx_ppp)
   \   00000586   ....               LDI     R31, (count_tx_ppp) >> 8
   \   00000588   8390               ST      Z, R25
   \   0000058A   8391               STD     Z+1, R25
   1937                               UCSR0A=UCSR0A | TXC;                            
   \   0000058C   910000C0           LDS     R16, 192
   \   00000590   6400               ORI     R16, 0x40
   \   00000592   930000C0           STS     192, R16
   1938                               UCSR0B=UCSR0B | TXEN;
   \   00000596   910000C1           LDS     R16, 193
   \   0000059A   6008               ORI     R16, 0x08
   \   0000059C   930000C1           STS     193, R16
   1939                               UCSR0B=UCSR0B | TXCIE;
   \   000005A0   910000C1           LDS     R16, 193
   \   000005A4   6400               ORI     R16, 0x40
   \   000005A6   930000C1           STS     193, R16
   1940                               if(check_cts()==1) return; 
   \   000005AA   ........           CALL    check_cts
   \   000005AE   3001               CPI     R16, 1
   \   000005B0   F051               BREQ    ??run_ipcp_act_3
   1941                           S2_RD;
   \   000005B2   9A40               SBI     0x08, 0x00
   \   000005B4   9841               CBI     0x08, 0x01
   1942                           UDR0=buf_tx_232[0];
   \   000005B6   910C               LD      R16, X
   \   000005B8   930000C6           STS     198, R16
   1943                           if(Regim==RG_DEBAG) UDR3=buf_tx_232[0];
   \   000005BC   9100....           LDS     R16, Regim
   \   000005C0   3001               CPI     R16, 1
   \   000005C2   F409               BRNE    $+2+2
   \   000005C4   CDF3               RJMP    ??run_ipcp_act_10
   \                     ??run_ipcp_act_3:
   \   000005C6   9622               ADIW    R29:R28, 2
   \   000005C8   E0E5               LDI     R30, 5
   \   000005CA   ........           JMP     ?EPILOGUE_B5_L09
   1944                          break;  
   1945                    // case SER:
   1946                    //      break;       
   1947                    }                  
   1948                }
   1949            
   1950            
   1951          
   1952            
   1953             

   \                                 In segment CODE, align 2, keep-with-next
   1954            void monitor_act_IPCP(void)
   \                     monitor_act_IPCP:
   1955                {  
   \   00000000   93BA               ST      -Y, R27
   \   00000002   93AA               ST      -Y, R26
   1956                 
   1957                 if((uk_in_act_IPCP!=uk_out_act_IPCP)&&(fl_lcp.act_lcp_end==1)&&(fl_pap.act_pap_end==1)&&(fl_ipcp.act_ipcp_end==1)&&(fl_ip.act_ip_end==1))
   \   00000004   ....               LDI     R26, LOW(ip_pri_dns)
   \   00000006   ....               LDI     R27, (ip_pri_dns) >> 8
   \   00000008   9696               ADIW    R27:R26, 38
   \   0000000A   910C               LD      R16, X
   \   0000000C   9796               SBIW    R27:R26, 38
   \   0000000E   9697               ADIW    R27:R26, 39
   \   00000010   911C               LD      R17, X
   \   00000012   9797               SBIW    R27:R26, 39
   \   00000014   1701               CP      R16, R17
   \   00000016   F111               BREQ    ??monitor_act_IPCP_0
   \   00000018   961A               ADIW    R27:R26, 10
   \   0000001A   910C               LD      R16, X
   \   0000001C   971A               SBIW    R27:R26, 10
   \   0000001E   7001               ANDI    R16, 0x01
   \   00000020   961D               ADIW    R27:R26, 13
   \   00000022   911C               LD      R17, X
   \   00000024   971D               SBIW    R27:R26, 13
   \   00000026   7011               ANDI    R17, 0x01
   \   00000028   2310               AND     R17, R16
   \   0000002A   961B               ADIW    R27:R26, 11
   \   0000002C   910C               LD      R16, X
   \   0000002E   971B               SBIW    R27:R26, 11
   \   00000030   7001               ANDI    R16, 0x01
   \   00000032   2301               AND     R16, R17
   \   00000034   961C               ADIW    R27:R26, 12
   \   00000036   911C               LD      R17, X
   \   00000038   971C               SBIW    R27:R26, 12
   \   0000003A   7011               ANDI    R17, 0x01
   \   0000003C   2310               AND     R17, R16
   \   0000003E   F071               BREQ    ??monitor_act_IPCP_0
   1958                  {   
   1959                  run_ipcp_act();
   \   00000040   ....               RCALL   run_ipcp_act
   1960                  uk_out_act_IPCP++;  
   \   00000042   9697               ADIW    R27:R26, 39
   \   00000044   910C               LD      R16, X
   \   00000046   9503               INC     R16
   \   00000048   930C               ST      X, R16
   \   0000004A   9797               SBIW    R27:R26, 39
   1961                  if (uk_out_act_IPCP>=IPCP_ACT_VOL)uk_out_act_IPCP=0; 
   \   0000004C   9697               ADIW    R27:R26, 39
   \   0000004E   910C               LD      R16, X
   \   00000050   9797               SBIW    R27:R26, 39
   \   00000052   300A               CPI     R16, 10
   \   00000054   F018               BRCS    ??monitor_act_IPCP_0
   \   00000056   E000               LDI     R16, 0
   \   00000058   9697               ADIW    R27:R26, 39
   \   0000005A   930C               ST      X, R16
   1962                  }
   1963                }
   \                     ??monitor_act_IPCP_0:
   \   0000005C   91A9               LD      R26, Y+
   \   0000005E   91B9               LD      R27, Y+
   \   00000060   9508               RET
   1964           
   1965           
   1966            

   \                                 In segment CODE, align 2, keep-with-next
   1967          void monitor_event_IPCP(void)
   \                     monitor_event_IPCP:
   1968              {
   \   00000000   ........           CALL    ?PROLOGUE7_L09
   \   00000004                      REQUIRE ?Register_R6_is_cg_reg
   1969               if (fl_ipcp1.up==1)      //UP
   \   00000004   ....               LDI     R26, LOW(ip_pri_dns)
   \   00000006   ....               LDI     R27, (ip_pri_dns) >> 8
   \   00000008   01FD               MOVW    R31:R30, R27:R26
   \   0000000A   A106               LDD     R16, Z+38
   \   0000000C   E010               LDI     R17, 0
   \   0000000E   ....               LDI     R24, LOW(cnt_pap_tm_out)
   \   00000010   ....               LDI     R25, (cnt_pap_tm_out) >> 8
   \   00000012   0F80               ADD     R24, R16
   \   00000014   1F91               ADC     R25, R17
   \   00000016   ....               LDI     R30, LOW(cnt_pap_tm_out)
   \   00000018   ....               LDI     R31, (cnt_pap_tm_out) >> 8
   \   0000001A   8063               LDD     R6, Z+3
   \   0000001C   8102               LDD     R16, Z+2
   \   0000001E   FF00               SBRS    R16, 0
   \   00000020   C01B               RJMP    ??monitor_event_IPCP_0
   1970                   {  
   1971                   
   1972                    
   1973                   fl_ipcp1.up=0; 
   \   00000022   8102               LDD     R16, Z+2
   \   00000024   7F0E               ANDI    R16, 0xFE
   \   00000026   8302               STD     Z+2, R16
   1974                     switch(IPCP_state)
   \   00000028   2D06               MOV     R16, R6
   \   0000002A   5001               SUBI    R16, 1
   \   0000002C   F589               BRNE    ??monitor_event_IPCP_1
   1975                         {
   1976                          case START_ST:                                                                
   1977                                      vol_cnt_rst_ipcp=VOL_IPCP_MC;  
   \                     ??monitor_event_IPCP_2:
   \   0000002E   E00A               LDI     R16, 10
   \   00000030   01FD               MOVW    R31:R30, R27:R26
   \   00000032   A703               STD     Z+43, R16
   1978                                      IPCP_act_buf[uk_in_act_IPCP]=IRC;  
   \   00000034   E004               LDI     R16, 4
   \                     ??monitor_event_IPCP_3:
   \   00000036   01FC               MOVW    R31:R30, R25:R24
   \   00000038   8304               STD     Z+4, R16
   1979                                      prov_uk_in_ipcp();                    
   \   0000003A   ........           CALL    prov_uk_in_ipcp
   1980                                      IPCP_act_buf[uk_in_act_IPCP]=SCR;  
   \   0000003E   E006               LDI     R16, 6
   \                     ??monitor_event_IPCP_4:
   \   00000040   01FD               MOVW    R31:R30, R27:R26
   \                     ??monitor_event_IPCP_5:
   \   00000042   A126               LDD     R18, Z+38
   \   00000044   E030               LDI     R19, 0
   \   00000046   ....               LDI     R30, LOW(cnt_pap_tm_out)
   \   00000048   ....               LDI     R31, (cnt_pap_tm_out) >> 8
   \   0000004A   0FE2               ADD     R30, R18
   \   0000004C   1FF3               ADC     R31, R19
   \                     ??monitor_event_IPCP_6:
   \   0000004E   8304               STD     Z+4, R16
   1981                                      prov_uk_in_ipcp();                    
   \   00000050   ........           CALL    prov_uk_in_ipcp
   1982                                      IPCP_state=SEND_REQ; 
   1983                                     
   1984                          return;
   1985                         }
   1986                      
   1987                   return;
   1988                   }
   1989               
   1990               if (fl_ipcp1.down==1)      //DOWN
   1991                   {      
   1992                   
   1993                    fl_ipcp1.down=0;
   1994                    switch(IPCP_state)
   1995                         {                     
   1996          
   1997                          case STOP_ST:                                                                
   1998                                      IPCP_act_buf[uk_in_act_IPCP]=TLS;  
   1999                                      prov_uk_in_ipcp();   
   2000                                      fl_ipcp.ipcp_tm_out_en=0;                 
   2001                                      IPCP_state=START_ST;
   2002                                      return;        
   2003                          case OSTANOV:                                                                
   2004                                      fl_ipcp.ipcp_tm_out_en=0;                 
   2005                                      IPCP_state=START_ST;
   2006                                      return;  
   2007                          case SEND_REQ:                                                                
   2008                                      fl_ipcp.ipcp_tm_out_en=0;                 
   2009                                      IPCP_state=START_ST;
   2010                                      return;
   2011                          case REC_ACK:                                                                
   2012                                      fl_ipcp.ipcp_tm_out_en=0;                 
   2013                                      IPCP_state=START_ST;
   2014                                      return;
   2015                          case SEND_ACK:                                                                
   2016                                      fl_ipcp.ipcp_tm_out_en=0;                 
   2017                                      IPCP_state=START_ST;
   2018                                      return;
   2019                          case OPEN_ST:                                                                
   2020                                      IPCP_act_buf[uk_in_act_IPCP]=TLD;  
   2021                                      prov_uk_in_ipcp();   
   2022                                      fl_ipcp.ipcp_tm_out_en=0;                 
   2023                                      IPCP_state=START_ST;
   2024                                      return;                                                                    
   2025                         } 
   2026                      
   2027                   return;
   2028                   }
   2029               
   2030               if(fl_ipcp.t0_pl==1)        //TO_PL
   2031                  {
   2032                   fl_ipcp.t0_pl=0; 
   2033                   switch(IPCP_state)
   2034                         {                     
   2035                                         
   2036                          case OSTANOV:                                                                
   2037                                      vol_cnt_rst_ipcp=VOL_IPCP_MT;
   2038                                      IPCP_act_buf[uk_in_act_IPCP]=STR;  
   2039                                      prov_uk_in_ipcp();                 
   2040                                      IPCP_state=OSTANOV;
   2041                                      return;  
   2042                          case SEND_REQ:
   2043                                      vol_cnt_rst_ipcp=VOL_IPCP_MC;                                                    
   2044                                      IPCP_act_buf[uk_in_act_IPCP]=SCR;  
   2045                                      prov_uk_in_ipcp();                 
   2046                                      IPCP_state=SEND_REQ;
   2047                                      return;
   2048                          case REC_ACK:      
   2049                                      vol_cnt_rst_ipcp=VOL_IPCP_MC;                                              
   2050                                      IPCP_act_buf[uk_in_act_IPCP]=SCR;  
   2051                                      prov_uk_in_ipcp();                 
   2052                                      IPCP_state=SEND_REQ;
   2053                                      return;
   2054                          case SEND_ACK: 
   2055                                      vol_cnt_rst_ipcp=VOL_IPCP_MC;                                                   
   2056                                      IPCP_act_buf[uk_in_act_IPCP]=SCR;  
   2057                                      prov_uk_in_ipcp();                 
   2058                                      IPCP_state=SEND_ACK;
   2059                                      return;                                                              
   2060                         } 
   2061                      
   2062                   return;
   2063                  }  
   2064                if(fl_ipcp.t0_mi==1)       //TO_MI
   2065                  {
   2066                   fl_ipcp.t0_mi=0;
   2067                   switch(IPCP_state)
   2068                         {                     
   2069                                         
   2070                          case OSTANOV:  
   2071                                      fl_ipcp.ipcp_tm_out_en=0;                                                  
   2072                                      IPCP_act_buf[uk_in_act_IPCP]=TLF;  
   2073                                      prov_uk_in_ipcp();                   
   2074                                      IPCP_state=STOP_ST;
   2075                                      return;  
   2076                          case SEND_REQ:                                                                
   2077                                      fl_ipcp.ipcp_tm_out_en=0;                                                  
   2078                                      IPCP_act_buf[uk_in_act_IPCP]=TLF;  
   2079                                      prov_uk_in_ipcp();                   
   2080                                      IPCP_state=STOP_ST;
   2081                                      return;
   2082                          case REC_ACK:                                                                
   2083                                      fl_ipcp.ipcp_tm_out_en=0;                                                  
   2084                                      IPCP_act_buf[uk_in_act_IPCP]=TLF;  
   2085                                      prov_uk_in_ipcp();                   
   2086                                      IPCP_state=STOP_ST;
   2087                                      return;
   2088                          case SEND_ACK:                                                                
   2089                                      fl_ipcp.ipcp_tm_out_en=0;                                                  
   2090                                      IPCP_act_buf[uk_in_act_IPCP]=TLF;  
   2091                                      prov_uk_in_ipcp();                   
   2092                                      IPCP_state=STOP_ST;
   2093                                      return;                                                              
   2094                         } 
   2095                   return;
   2096                  }   
   2097               switch (IPCP_event)
   2098                  {
   2099                  case RCR_PL:  
   2100                      IPCP_event=NO_EVENT; 
   2101                      switch(IPCP_state)
   2102                         {                     
   2103          
   2104                          case STOP_ST:        
   2105                                      vol_cnt_rst_ipcp=VOL_IPCP_MC;  
   2106                                      IPCP_act_buf[uk_in_act_IPCP]=IRC;  
   2107                                      prov_uk_in_ipcp();                    
   2108                                      IPCP_act_buf[uk_in_act_IPCP]=SCR;  
   2109                                      prov_uk_in_ipcp();   
   2110                                      IPCP_act_buf[uk_in_act_IPCP]=SCA;  
   2111                                      prov_uk_in_ipcp();                 
   2112                                      IPCP_state=SEND_ACK;  
   2113                                      
   2114                                      return;        
   2115                          case OSTANOV:                                                                                
   2116                                      IPCP_state=OSTANOV; 
   2117                              
   2118                                      return;  
   2119                          case SEND_REQ:                                                                
   2120                                      IPCP_act_buf[uk_in_act_IPCP]=SCA;  
   2121                                      prov_uk_in_ipcp();                 
   2122                                      IPCP_state=SEND_ACK;   
   2123                                   
   2124                                      return;
   2125                          case REC_ACK:
   2126                  
   2127                                      IPCP_act_buf[uk_in_act_IPCP]=SCA;  
   2128                                      prov_uk_in_ipcp();       
   2129                                      IPCP_act_buf[uk_in_act_IPCP]=TLU;  
   2130                                      prov_uk_in_ipcp();          
   2131                                      IPCP_state=OPEN_ST;  
   2132                                     
   2133                                      return;
   2134                          case SEND_ACK:                                                                
   2135                                      IPCP_act_buf[uk_in_act_IPCP]=SCA;  
   2136                                      prov_uk_in_ipcp();                 
   2137                                      IPCP_state=SEND_ACK; 
   2138                             
   2139                                      return;
   2140                          case OPEN_ST:      
   2141                            //proverka!!!!!
   2142                                     // IPCP_act_buf[uk_in_act_IPCP]=TLD;  
   2143                                    //  prov_uk_in_ipcp();    
   2144                                    //  vol_cnt_rst_ipcp=VOL_IPCP_MC; 
   2145                                    //  IPCP_act_buf[uk_in_act_IPCP]=SCR;  
   2146                                    //  prov_uk_in_ipcp();                                                                
   2147                                      IPCP_act_buf[uk_in_act_IPCP]=SCA;  
   2148                                      prov_uk_in_ipcp();                 
   2149                                  //    IPCP_state=SEND_ACK; 
   2150                             
   2151                                      return;                                                                    
   2152                         }  
   2153                       return; 
   2154                  case RCR_MI: 
   2155                     
   2156                      
   2157                      
   2158                      IPCP_event=NO_EVENT;
   2159                      switch(IPCP_state)
   2160                         {                     
   2161          
   2162                          case STOP_ST:        
   2163                                      vol_cnt_rst_ipcp=VOL_IPCP_MC;  
   2164                                      IPCP_act_buf[uk_in_act_IPCP]=IRC;  
   2165                                      prov_uk_in_ipcp();                    
   2166                                      IPCP_act_buf[uk_in_act_IPCP]=SCR;  
   2167                                      prov_uk_in_ipcp();   
   2168                                      IPCP_act_buf[uk_in_act_IPCP]=SCN;  
   2169                                      prov_uk_in_ipcp();                 
   2170                                      IPCP_state=SEND_REQ; 
   2171                              
   2172                                      return;        
   2173                          case OSTANOV:                                                                                
   2174                                      IPCP_state=OSTANOV; 
   2175                                    
   2176                                      return;  
   2177                          case SEND_REQ:                                                                
   2178                                      
   2179                                 
   2180                                      IPCP_act_buf[uk_in_act_IPCP]=SCN;  
   2181                                      prov_uk_in_ipcp();                 
   2182                                      IPCP_state=SEND_REQ;    
   2183                               
   2184                                      return;
   2185                          case REC_ACK:                                                                
   2186                                      IPCP_act_buf[uk_in_act_IPCP]=SCN;  
   2187                                      prov_uk_in_ipcp();              
   2188                                      IPCP_state=REC_ACK;     
   2189                                     
   2190                                      return;
   2191                          case SEND_ACK:                                                                
   2192                                      IPCP_act_buf[uk_in_act_IPCP]=SCN;  
   2193                                      prov_uk_in_ipcp();                 
   2194                                      IPCP_state=SEND_REQ;
   2195                                   
   2196                                      return;
   2197                          case OPEN_ST:      
   2198                                      IPCP_act_buf[uk_in_act_IPCP]=TLD;  
   2199                                      prov_uk_in_ipcp();   
   2200                                      vol_cnt_rst_ipcp=VOL_IPCP_MC;
   2201                                      IPCP_act_buf[uk_in_act_IPCP]=SCR;  
   2202                                      prov_uk_in_ipcp();                                                                
   2203                                      IPCP_act_buf[uk_in_act_IPCP]=SCN;  
   2204                                      prov_uk_in_ipcp();                 
   2205                                      IPCP_state=SEND_REQ;
   2206                                    
   2207                                      return;                                                                    
   2208                         }  
   2209                       return; 
   2210                  case RCA:  
   2211                      
   2212                      
   2213                     
   2214                      
   2215                      IPCP_event=NO_EVENT;
   2216                      switch(IPCP_state)
   2217                         {                     
   2218          
   2219                          case STOP_ST:        
   2220                                      fl_ipcp.ipcp_tm_out_en=0;
   2221                                      IPCP_act_buf[uk_in_act_IPCP]=STA;  
   2222                                      prov_uk_in_ipcp();                 
   2223                                      IPCP_state=STOP_ST; 
   2224                                    
   2225                                      return;        
   2226                          case OSTANOV:                                                                                
   2227                                      IPCP_state=OSTANOV;  
   2228                              
   2229                                      return;  
   2230                          case SEND_REQ: 
   2231                                      
   2232                                      vol_cnt_rst_ipcp=VOL_IPCP_MC;  
   2233                                      IPCP_act_buf[uk_in_act_IPCP]=IRC;  
   2234                                      prov_uk_in_ipcp();                                        
   2235                                      IPCP_state=REC_ACK; 
   2236                               
   2237                                      return;
   2238                          case REC_ACK:       
   2239                                      vol_cnt_rst_ipcp=VOL_IPCP_MC;                                             
   2240                                      IPCP_act_buf[uk_in_act_IPCP]=SCR;  
   2241                                      prov_uk_in_ipcp();                 
   2242                                      IPCP_state=SEND_REQ;
   2243                               
   2244                                      return;
   2245                          case SEND_ACK:                                                                
   2246          
   2247                                      
   2248                                      vol_cnt_rst_ipcp=VOL_IPCP_MC;  
   2249                                      IPCP_act_buf[uk_in_act_IPCP]=IRC;  
   2250                                      prov_uk_in_ipcp();                                        
   2251                                      IPCP_act_buf[uk_in_act_IPCP]=TLU;  
   2252                                      prov_uk_in_ipcp();
   2253                                      IPCP_state=OPEN_ST;
   2254                            
   2255                                      return;
   2256                          case OPEN_ST:
   2257                                      vol_cnt_rst_ipcp=VOL_IPCP_MC;
   2258                                      IPCP_act_buf[uk_in_act_IPCP]=TLD;  
   2259                                      prov_uk_in_ipcp();   
   2260                                      IPCP_act_buf[uk_in_act_IPCP]=SCR;  
   2261                                      prov_uk_in_ipcp();                                                                               
   2262                                      IPCP_state=SEND_REQ;
   2263                                   
   2264                                      return;                                                                    
   2265                         }  
   2266                       return; 
   2267                  case RCN: 
   2268                          IPCP_event=NO_EVENT;
   2269                  switch(IPCP_state)
   2270                         {                     
   2271          
   2272                          case STOP_ST:        
   2273                                      fl_ipcp.ipcp_tm_out_en=0;
   2274                                      IPCP_act_buf[uk_in_act_IPCP]=STA;  
   2275                                      prov_uk_in_ipcp();                 
   2276                                      IPCP_state=STOP_ST; 
   2277                                  
   2278                                      return;        
   2279                          case OSTANOV:                                                                                
   2280                                      IPCP_state=OSTANOV; 
   2281                                   
   2282                                      return;  
   2283                          case SEND_REQ:                                                                
   2284                                      vol_cnt_rst_ipcp=VOL_IPCP_MC;  
   2285                                      IPCP_act_buf[uk_in_act_IPCP]=IRC;  
   2286                                      prov_uk_in_ipcp(); 
   2287                                      IPCP_act_buf[uk_in_act_IPCP]=SCR;  
   2288                                      prov_uk_in_ipcp();                                       
   2289                                      IPCP_state=SEND_REQ;
   2290                                    
   2291                                      return;
   2292                          case REC_ACK:     
   2293                                      vol_cnt_rst_ipcp=VOL_IPCP_MC;                                               
   2294                                      IPCP_act_buf[uk_in_act_IPCP]=SCR;  
   2295                                      prov_uk_in_ipcp();                 
   2296                                      IPCP_state=SEND_REQ;
   2297                                    
   2298                                      return;
   2299                          case SEND_ACK:                                                                
   2300                                      vol_cnt_rst_ipcp=VOL_IPCP_MC;  
   2301                                      IPCP_act_buf[uk_in_act_IPCP]=IRC;  
   2302                                      prov_uk_in_ipcp();                                        
   2303                                      IPCP_act_buf[uk_in_act_IPCP]=SCR;  
   2304                                      prov_uk_in_ipcp();
   2305                                      IPCP_state=SEND_ACK;
   2306                                  
   2307                                      return;
   2308                          case OPEN_ST:      
   2309                                      IPCP_act_buf[uk_in_act_IPCP]=TLD;  
   2310                                      prov_uk_in_ipcp(); 
   2311                                      vol_cnt_rst_ipcp=VOL_IPCP_MC;  
   2312                                      IPCP_act_buf[uk_in_act_IPCP]=SCR;  
   2313                                      prov_uk_in_ipcp();                                                                               
   2314                                      IPCP_state=SEND_REQ;
   2315                                
   2316                                      return;                                                                    
   2317                         }  
   2318                       return; 
   2319                  case RTR:
   2320                       IPCP_event=NO_EVENT;
   2321                       switch(IPCP_state)
   2322                         {                     
   2323          
   2324                          case STOP_ST:                                                                
   2325                                      fl_ipcp.ipcp_tm_out_en=0;
   2326                                      IPCP_act_buf[uk_in_act_IPCP]=STA;  
   2327                                      prov_uk_in_ipcp();                 
   2328                                      IPCP_state=STOP_ST; 
   2329                                     
   2330                                      return;        
   2331                          case OSTANOV:                                                                
   2332                                      IPCP_act_buf[uk_in_act_IPCP]=STA;  
   2333                                      prov_uk_in_ipcp();                 
   2334                                      IPCP_state=OSTANOV; 
   2335                                  
   2336                                      return;  
   2337                          case SEND_REQ:                                                                
   2338                                      IPCP_act_buf[uk_in_act_IPCP]=STA;  
   2339                                      prov_uk_in_ipcp();                 
   2340                                      IPCP_state=SEND_REQ;
   2341                                   
   2342                                      return;
   2343                          case REC_ACK:                                                                
   2344                                      IPCP_act_buf[uk_in_act_IPCP]=STA;  
   2345                                      prov_uk_in_ipcp();                 
   2346                                      IPCP_state=SEND_REQ;
   2347                                  
   2348                                      return;
   2349                          case SEND_ACK:                                                                
   2350                                      IPCP_act_buf[uk_in_act_IPCP]=STA;  
   2351                                      prov_uk_in_ipcp();                 
   2352                                      IPCP_state=SEND_REQ;
   2353                                    
   2354                                      return;
   2355                          case OPEN_ST:                                                                
   2356                                      vol_cnt_rst_ipcp=VOL_IPCP_MC;  
   2357                                      IPCP_act_buf[uk_in_act_IPCP]=TLD;  
   2358                                      prov_uk_in_ipcp(); 
   2359                                      IPCP_act_buf[uk_in_act_IPCP]=ZRC; 
   2360                                      prov_uk_in_ipcp();  
   2361                                      IPCP_act_buf[uk_in_act_IPCP]=STA;  
   2362                                      prov_uk_in_ipcp();                                  
   2363                                      IPCP_state=STOP_ST; 
   2364                                      
   2365                                      return;                                                                    
   2366                         }  
   2367                       return; 
   2368                  case RTA: 
   2369                       IPCP_event=NO_EVENT;
   2370                       switch(IPCP_state)
   2371                         {                     
   2372          
   2373                          case STOP_ST:                                                                 
   2374                                      fl_ipcp.ipcp_tm_out_en=0;                 
   2375                                      IPCP_state=STOP_ST;
   2376                               
   2377                                      return;        
   2378                          case OSTANOV:                                                                
   2379                                      fl_ipcp.ipcp_tm_out_en=0;                                                  
   2380                                      IPCP_act_buf[uk_in_act_IPCP]=TLF;  
   2381                                      prov_uk_in_ipcp();                   
   2382                                      IPCP_state=STOP_ST; 
   2383                   
   2384                                      return;  
   2385                          case SEND_REQ:                                                                                
   2386                                      IPCP_state=SEND_REQ;
   \                     ??monitor_event_IPCP_7:
   \   00000054   E006               LDI     R16, 6
   \   00000056   C019               RJMP    ??monitor_event_IPCP_8
   \                     ??monitor_event_IPCP_0:
   \   00000058   8102               LDD     R16, Z+2
   \   0000005A   FF01               SBRS    R16, 1
   \   0000005C   C01E               RJMP    ??monitor_event_IPCP_9
   \   0000005E   8102               LDD     R16, Z+2
   \   00000060   7F0D               ANDI    R16, 0xFD
   \   00000062   8302               STD     Z+2, R16
   \   00000064   2D06               MOV     R16, R6
   \   00000066   5003               SUBI    R16, 3
   \   00000068   F031               BREQ    ??monitor_event_IPCP_10
   \   0000006A   5002               SUBI    R16, 2
   \   0000006C   F088               BRCS    ??monitor_event_IPCP_1
   \   0000006E   5004               SUBI    R16, 4
   \   00000070   F038               BRCS    ??monitor_event_IPCP_11
   \   00000072   F089               BREQ    ??monitor_event_IPCP_12
   \   00000074   C00D               RJMP    ??monitor_event_IPCP_1
   \                     ??monitor_event_IPCP_10:
   \   00000076   E002               LDI     R16, 2
   \                     ??monitor_event_IPCP_13:
   \   00000078   01FC               MOVW    R31:R30, R25:R24
   \   0000007A   8304               STD     Z+4, R16
   \   0000007C   ........           CALL    prov_uk_in_ipcp
   \                     ??monitor_event_IPCP_11:
   \   00000080   01FD               MOVW    R31:R30, R27:R26
   \   00000082   8503               LDD     R16, Z+11
   \   00000084   7F0D               ANDI    R16, 0xFD
   \   00000086   8703               STD     Z+11, R16
   \   00000088   E001               LDI     R16, 1
   \                     ??monitor_event_IPCP_8:
   \   0000008A   ....               LDI     R30, LOW(cnt_pap_tm_out)
   \   0000008C   ....               LDI     R31, (cnt_pap_tm_out) >> 8
   \   0000008E   8303               STD     Z+3, R16
   \                     ??monitor_event_IPCP_1:
   \   00000090   E0E7               LDI     R30, 7
   \   00000092   ........           JMP     ?EPILOGUE_B7_L09
   \                     ??monitor_event_IPCP_12:
   \   00000096   E001               LDI     R16, 1
   \   00000098   CFEF               RJMP    ??monitor_event_IPCP_13
   \                     ??monitor_event_IPCP_9:
   \   0000009A   01FD               MOVW    R31:R30, R27:R26
   \   0000009C   8503               LDD     R16, Z+11
   \   0000009E   FF02               SBRS    R16, 2
   \   000000A0   C021               RJMP    ??monitor_event_IPCP_14
   \   000000A2   8503               LDD     R16, Z+11
   \   000000A4   7F0B               ANDI    R16, 0xFB
   \   000000A6   8703               STD     Z+11, R16
   \   000000A8   2D06               MOV     R16, R6
   \   000000AA   5005               SUBI    R16, 5
   \   000000AC   F049               BREQ    ??monitor_event_IPCP_15
   \   000000AE   950A               DEC     R16
   \   000000B0   F409               BRNE    $+2+2
   \   000000B2   C0F0               RJMP    ??monitor_event_IPCP_16
   \   000000B4   950A               DEC     R16
   \   000000B6   F409               BRNE    $+2+2
   \   000000B8   C0ED               RJMP    ??monitor_event_IPCP_16
   \   000000BA   950A               DEC     R16
   \   000000BC   F051               BREQ    ??monitor_event_IPCP_17
   \   000000BE   CFE8               RJMP    ??monitor_event_IPCP_1
   \                     ??monitor_event_IPCP_15:
   \   000000C0   E002               LDI     R16, 2
   \   000000C2   A703               STD     Z+43, R16
   \   000000C4   E009               LDI     R16, 9
   \                     ??monitor_event_IPCP_18:
   \   000000C6   01FC               MOVW    R31:R30, R25:R24
   \                     ??monitor_event_IPCP_19:
   \   000000C8   8304               STD     Z+4, R16
   \   000000CA   ........           CALL    prov_uk_in_ipcp
   \                     ??monitor_event_IPCP_20:
   \   000000CE   E005               LDI     R16, 5
   \   000000D0   CFDC               RJMP    ??monitor_event_IPCP_8
   \                     ??monitor_event_IPCP_17:
   \   000000D2   E00A               LDI     R16, 10
   \   000000D4   A703               STD     Z+43, R16
   \   000000D6   E006               LDI     R16, 6
   \                     ??monitor_event_IPCP_21:
   \   000000D8   01FC               MOVW    R31:R30, R25:R24
   \                     ??monitor_event_IPCP_22:
   \   000000DA   8304               STD     Z+4, R16
   \   000000DC   ........           CALL    prov_uk_in_ipcp
   2387                             
   2388                                      return;
   2389                          case REC_ACK:                                                                                
   2390                                      IPCP_state=SEND_REQ;
   2391                                  
   2392                                      return;
   2393                          case SEND_ACK:                                                                
   2394                                      fl_ipcp.ipcp_tm_out_en=0;                 
   2395                                      IPCP_state=SEND_ACK;
   2396                           
   2397                                      return;
   2398                          case OPEN_ST:                                                                
   2399                                      vol_cnt_rst_ipcp=VOL_IPCP_MC;  
   2400                                      IPCP_act_buf[uk_in_act_IPCP]=TLD;  
   2401                                      prov_uk_in_ipcp();   
   2402                                      IPCP_act_buf[uk_in_act_IPCP]=SCR;  
   2403                                      prov_uk_in_ipcp();                                  
   2404                                      IPCP_state=SEND_REQ;
   2405                       
   2406                                      return;                                                                    
   2407                         }  
   2408                       return;
   2409                  case RUC:  
   2410                       IPCP_event=NO_EVENT;
   2411                       switch(IPCP_state)
   2412                         {                     
   2413          
   2414                          case STOP_ST:                                                                
   2415                                      IPCP_act_buf[uk_in_act_IPCP]=SCJ;  
   2416                                      prov_uk_in_ipcp();   
   2417                                      fl_ipcp.ipcp_tm_out_en=0;                 
   2418                                      IPCP_state=STOP_ST; 
   2419          
   2420                                      return;        
   2421                          case OSTANOV:                                                                
   2422                                      IPCP_act_buf[uk_in_act_IPCP]=SCJ;  
   2423                                      prov_uk_in_ipcp();                   
   2424                                      IPCP_state=OSTANOV; 
   2425                  
   2426                                      return;  
   2427                          case SEND_REQ:                                                                
   2428                                      IPCP_act_buf[uk_in_act_IPCP]=SCJ;  
   2429                                      prov_uk_in_ipcp();                   
   2430                                      IPCP_state=SEND_REQ;
   2431          
   2432                                      return;
   2433                          case REC_ACK:                                                                
   2434                                      IPCP_act_buf[uk_in_act_IPCP]=SCJ;  
   2435                                      prov_uk_in_ipcp();                   
   2436                                      IPCP_state=REC_ACK; 
   2437                      
   2438                                      return;
   2439                          case SEND_ACK:                                                                
   2440                                      IPCP_act_buf[uk_in_act_IPCP]=SCJ;  
   2441                                      prov_uk_in_ipcp();                   
   2442                                      IPCP_state=SEND_ACK;
   2443                
   2444                                      return;
   2445                          case OPEN_ST:                                                                
   2446                                      IPCP_act_buf[uk_in_act_IPCP]=SCJ;  
   2447                                      prov_uk_in_ipcp();                   
   2448                                      IPCP_state=OPEN_ST; 
   2449           
   2450                                      return;                                                                    
   2451                         }  
   2452                       return; 
   2453                  case RXJ_PL:  
   2454                       IPCP_event=NO_EVENT;
   2455                       switch(IPCP_state)
   2456                         {                     
   2457                          
   2458                          case STOP_ST:      
   2459                                      fl_ipcp.ipcp_tm_out_en=0;                                                              
   2460                                      IPCP_state=START_ST;
   2461                                      return;        
   2462                          case OSTANOV:                                                                               
   2463                                      IPCP_state=OSTANOV;
   2464                                      return;  
   2465                          case SEND_REQ:                                                                                 
   2466                                      IPCP_state=SEND_REQ;
   2467                                      return;
   2468                          case REC_ACK:                                                                              
   2469                                      IPCP_state=REC_ACK;
   2470                                      return;
   2471                          case SEND_ACK:                                                                              
   2472                                      IPCP_state=SEND_ACK;
   \                     ??monitor_event_IPCP_23:
   \   000000E0   E008               LDI     R16, 8
   \   000000E2   CFD3               RJMP    ??monitor_event_IPCP_8
   \                     ??monitor_event_IPCP_14:
   \   000000E4   8503               LDD     R16, Z+11
   \   000000E6   FF03               SBRS    R16, 3
   \   000000E8   C011               RJMP    ??monitor_event_IPCP_24
   \   000000EA   8503               LDD     R16, Z+11
   \   000000EC   7F07               ANDI    R16, 0xF7
   \   000000EE   8703               STD     Z+11, R16
   \   000000F0   2D06               MOV     R16, R6
   \   000000F2   5005               SUBI    R16, 5
   \   000000F4   5004               SUBI    R16, 4
   \   000000F6   F660               BRCC    ??monitor_event_IPCP_1
   \                     ??monitor_event_IPCP_25:
   \   000000F8   8503               LDD     R16, Z+11
   \   000000FA   7F0D               ANDI    R16, 0xFD
   \   000000FC   8703               STD     Z+11, R16
   \   000000FE   E003               LDI     R16, 3
   \                     ??monitor_event_IPCP_26:
   \   00000100   01FC               MOVW    R31:R30, R25:R24
   \                     ??monitor_event_IPCP_27:
   \   00000102   8304               STD     Z+4, R16
   \   00000104   ........           CALL    prov_uk_in_ipcp
   \                     ??monitor_event_IPCP_28:
   \   00000108   E003               LDI     R16, 3
   \   0000010A   CFBF               RJMP    ??monitor_event_IPCP_8
   \                     ??monitor_event_IPCP_24:
   \   0000010C   A103               LDD     R16, Z+35
   \   0000010E   ....               LDI     R30, LOW(`?<Jumptable for monitor_event_IPCP>_0`)
   \   00000110   ....               LDI     R31, (`?<Jumptable for monitor_event_IPCP>_0`) >> 16
   \   00000112   BFFB               OUT     0x3B, R31
   \   00000114   ....               LDI     R31, HIGH(`?<Jumptable for monitor_event_IPCP>_0`)
   \   00000116   ........           JMP     ?CV_SWITCH_L06
   \                     ??monitor_event_IPCP_29:
   \   0000011A   EF0F               LDI     R16, 255
   \   0000011C   01FD               MOVW    R31:R30, R27:R26
   \   0000011E   A303               STD     Z+35, R16
   \   00000120   2D06               MOV     R16, R6
   \   00000122   5003               SUBI    R16, 3
   \   00000124   F059               BREQ    ??monitor_event_IPCP_30
   \   00000126   5002               SUBI    R16, 2
   \   00000128   F291               BREQ    ??monitor_event_IPCP_20
   \   0000012A   950A               DEC     R16
   \   0000012C   F0C9               BREQ    ??monitor_event_IPCP_31
   \   0000012E   950A               DEC     R16
   \   00000130   F101               BREQ    ??monitor_event_IPCP_32
   \   00000132   950A               DEC     R16
   \   00000134   F0A9               BREQ    ??monitor_event_IPCP_31
   \   00000136   950A               DEC     R16
   \   00000138   F169               BREQ    ??monitor_event_IPCP_33
   \   0000013A   CFAA               RJMP    ??monitor_event_IPCP_1
   \                     ??monitor_event_IPCP_30:
   \   0000013C   E00A               LDI     R16, 10
   \   0000013E   A703               STD     Z+43, R16
   \   00000140   E004               LDI     R16, 4
   \   00000142   01FC               MOVW    R31:R30, R25:R24
   \   00000144   8304               STD     Z+4, R16
   \   00000146   ........           CALL    prov_uk_in_ipcp
   \   0000014A   E006               LDI     R16, 6
   \   0000014C   01FD               MOVW    R31:R30, R27:R26
   \   0000014E   A126               LDD     R18, Z+38
   \   00000150   E030               LDI     R19, 0
   \   00000152   ....               LDI     R30, LOW(cnt_pap_tm_out)
   \   00000154   ....               LDI     R31, (cnt_pap_tm_out) >> 8
   \   00000156   0FE2               ADD     R30, R18
   \   00000158   1FF3               ADC     R31, R19
   \   0000015A   8304               STD     Z+4, R16
   \   0000015C   ........           CALL    prov_uk_in_ipcp
   \                     ??monitor_event_IPCP_31:
   \   00000160   E007               LDI     R16, 7
   \                     ??monitor_event_IPCP_34:
   \   00000162   01FD               MOVW    R31:R30, R27:R26
   \   00000164   A126               LDD     R18, Z+38
   \   00000166   E030               LDI     R19, 0
   \   00000168   ....               LDI     R30, LOW(cnt_pap_tm_out)
   \   0000016A   ....               LDI     R31, (cnt_pap_tm_out) >> 8
   \   0000016C   0FE2               ADD     R30, R18
   \   0000016E   1FF3               ADC     R31, R19
   \   00000170   CFB4               RJMP    ??monitor_event_IPCP_22
   \                     ??monitor_event_IPCP_32:
   \   00000172   E007               LDI     R16, 7
   \                     ??monitor_event_IPCP_35:
   \   00000174   01FC               MOVW    R31:R30, R25:R24
   \   00000176   8304               STD     Z+4, R16
   \   00000178   ........           CALL    prov_uk_in_ipcp
   \   0000017C   E000               LDI     R16, 0
   \   0000017E   01FD               MOVW    R31:R30, R27:R26
   \   00000180   A126               LDD     R18, Z+38
   \   00000182   ....               LDI     R30, LOW(cnt_pap_tm_out)
   \   00000184   ....               LDI     R31, (cnt_pap_tm_out) >> 8
   \   00000186   0FE2               ADD     R30, R18
   \   00000188   1FF0               ADC     R31, R16
   \                     ??monitor_event_IPCP_36:
   \   0000018A   8304               STD     Z+4, R16
   \   0000018C   ........           CALL    prov_uk_in_ipcp
   2473                                      return;
   2474                          case OPEN_ST:                                                                                
   2475                                      IPCP_state=OPEN_ST;
   \                     ??monitor_event_IPCP_37:
   \   00000190   E009               LDI     R16, 9
   \   00000192   CF7B               RJMP    ??monitor_event_IPCP_8
   \                     ??monitor_event_IPCP_33:
   \   00000194   E007               LDI     R16, 7
   \   00000196   01FC               MOVW    R31:R30, R25:R24
   \   00000198   8304               STD     Z+4, R16
   \   0000019A   ........           CALL    prov_uk_in_ipcp
   \   0000019E   CF78               RJMP    ??monitor_event_IPCP_1
   \                     ??monitor_event_IPCP_38:
   \   000001A0   EF0F               LDI     R16, 255
   \   000001A2   01FD               MOVW    R31:R30, R27:R26
   \   000001A4   A303               STD     Z+35, R16
   \   000001A6   2D06               MOV     R16, R6
   \   000001A8   5003               SUBI    R16, 3
   \   000001AA   F061               BREQ    ??monitor_event_IPCP_39
   \   000001AC   5002               SUBI    R16, 2
   \   000001AE   F409               BRNE    $+2+2
   \   000001B0   CF8E               RJMP    ??monitor_event_IPCP_20
   \   000001B2   950A               DEC     R16
   \   000001B4   F0C9               BREQ    ??monitor_event_IPCP_40
   \   000001B6   950A               DEC     R16
   \   000001B8   F0C9               BREQ    ??monitor_event_IPCP_41
   \   000001BA   950A               DEC     R16
   \   000001BC   F0A9               BREQ    ??monitor_event_IPCP_40
   \   000001BE   950A               DEC     R16
   \   000001C0   F0D9               BREQ    ??monitor_event_IPCP_42
   \   000001C2   CF66               RJMP    ??monitor_event_IPCP_1
   \                     ??monitor_event_IPCP_39:
   \   000001C4   E00A               LDI     R16, 10
   \   000001C6   A703               STD     Z+43, R16
   \   000001C8   E004               LDI     R16, 4
   \   000001CA   01FC               MOVW    R31:R30, R25:R24
   \   000001CC   8304               STD     Z+4, R16
   \   000001CE   ........           CALL    prov_uk_in_ipcp
   \   000001D2   E006               LDI     R16, 6
   \   000001D4   01FD               MOVW    R31:R30, R27:R26
   \                     ??monitor_event_IPCP_43:
   \   000001D6   A126               LDD     R18, Z+38
   \   000001D8   E030               LDI     R19, 0
   \   000001DA   ....               LDI     R30, LOW(cnt_pap_tm_out)
   \   000001DC   ....               LDI     R31, (cnt_pap_tm_out) >> 8
   \   000001DE   0FE2               ADD     R30, R18
   \   000001E0   1FF3               ADC     R31, R19
   \   000001E2   8304               STD     Z+4, R16
   \   000001E4   ........           CALL    prov_uk_in_ipcp
   \                     ??monitor_event_IPCP_40:
   \   000001E8   E008               LDI     R16, 8
   \   000001EA   CF2A               RJMP    ??monitor_event_IPCP_4
   \                     ??monitor_event_IPCP_41:
   \   000001EC   E008               LDI     R16, 8
   \                     ??monitor_event_IPCP_44:
   \   000001EE   01FC               MOVW    R31:R30, R25:R24
   \   000001F0   8304               STD     Z+4, R16
   \   000001F2   ........           CALL    prov_uk_in_ipcp
   \   000001F6   C0D4               RJMP    ??monitor_event_IPCP_45
   \                     ??monitor_event_IPCP_42:
   \   000001F8   E001               LDI     R16, 1
   \   000001FA   01FC               MOVW    R31:R30, R25:R24
   \   000001FC   8304               STD     Z+4, R16
   \   000001FE   ........           CALL    prov_uk_in_ipcp
   \   00000202   E00A               LDI     R16, 10
   \   00000204   01FD               MOVW    R31:R30, R27:R26
   \   00000206   A703               STD     Z+43, R16
   \   00000208   E006               LDI     R16, 6
   \   0000020A   CFE5               RJMP    ??monitor_event_IPCP_43
   \                     ??monitor_event_IPCP_46:
   \   0000020C   EF0F               LDI     R16, 255
   \   0000020E   01FD               MOVW    R31:R30, R27:R26
   \   00000210   A303               STD     Z+35, R16
   \   00000212   2D06               MOV     R16, R6
   \   00000214   5003               SUBI    R16, 3
   \   00000216   F061               BREQ    ??monitor_event_IPCP_47
   \   00000218   5002               SUBI    R16, 2
   \   0000021A   F409               BRNE    $+2+2
   \   0000021C   CF58               RJMP    ??monitor_event_IPCP_20
   \   0000021E   950A               DEC     R16
   \   00000220   F061               BREQ    ??monitor_event_IPCP_48
   \   00000222   950A               DEC     R16
   \   00000224   F1B9               BREQ    ??monitor_event_IPCP_16
   \   00000226   950A               DEC     R16
   \   00000228   F061               BREQ    ??monitor_event_IPCP_49
   \                     ??monitor_event_IPCP_50:
   \   0000022A   950A               DEC     R16
   \   0000022C   F071               BREQ    ??monitor_event_IPCP_51
   \   0000022E   CF30               RJMP    ??monitor_event_IPCP_1
   \                     ??monitor_event_IPCP_47:
   \   00000230   8503               LDD     R16, Z+11
   \   00000232   7F0D               ANDI    R16, 0xFD
   \   00000234   8703               STD     Z+11, R16
   \   00000236   E00A               LDI     R16, 10
   \   00000238   CF63               RJMP    ??monitor_event_IPCP_26
   \                     ??monitor_event_IPCP_48:
   \   0000023A   E00A               LDI     R16, 10
   \   0000023C   A703               STD     Z+43, R16
   \   0000023E   E004               LDI     R16, 4
   \   00000240   CFD6               RJMP    ??monitor_event_IPCP_44
   \                     ??monitor_event_IPCP_49:
   \   00000242   E00A               LDI     R16, 10
   \   00000244   A703               STD     Z+43, R16
   \   00000246   E004               LDI     R16, 4
   \   00000248   CF95               RJMP    ??monitor_event_IPCP_35
   \                     ??monitor_event_IPCP_51:
   \   0000024A   E00A               LDI     R16, 10
   \   0000024C   A703               STD     Z+43, R16
   \   0000024E   E001               LDI     R16, 1
   \   00000250   CEF2               RJMP    ??monitor_event_IPCP_3
   \                     ??monitor_event_IPCP_52:
   \   00000252   EF0F               LDI     R16, 255
   \   00000254   01FD               MOVW    R31:R30, R27:R26
   \   00000256   A303               STD     Z+35, R16
   \   00000258   2D06               MOV     R16, R6
   \   0000025A   5003               SUBI    R16, 3
   \   0000025C   F349               BREQ    ??monitor_event_IPCP_47
   \   0000025E   5002               SUBI    R16, 2
   \   00000260   F409               BRNE    $+2+2
   \   00000262   CF35               RJMP    ??monitor_event_IPCP_20
   \   00000264   950A               DEC     R16
   \   00000266   F409               BRNE    $+2+2
   \   00000268   CEE2               RJMP    ??monitor_event_IPCP_2
   \   0000026A   950A               DEC     R16
   \   0000026C   F099               BREQ    ??monitor_event_IPCP_16
   \   0000026E   950A               DEC     R16
   \   00000270   F019               BREQ    ??monitor_event_IPCP_53
   \   00000272   950A               DEC     R16
   \   00000274   F051               BREQ    ??monitor_event_IPCP_54
   \   00000276   CF0C               RJMP    ??monitor_event_IPCP_1
   \                     ??monitor_event_IPCP_53:
   \   00000278   E00A               LDI     R16, 10
   \   0000027A   A703               STD     Z+43, R16
   \   0000027C   E004               LDI     R16, 4
   \   0000027E   01FC               MOVW    R31:R30, R25:R24
   \   00000280   8304               STD     Z+4, R16
   \   00000282   ........           CALL    prov_uk_in_ipcp
   \   00000286   E006               LDI     R16, 6
   \   00000288   CF6C               RJMP    ??monitor_event_IPCP_34
   \                     ??monitor_event_IPCP_54:
   \   0000028A   E001               LDI     R16, 1
   \   0000028C   01FC               MOVW    R31:R30, R25:R24
   \   0000028E   8304               STD     Z+4, R16
   \   00000290   ........           CALL    prov_uk_in_ipcp
   \                     ??monitor_event_IPCP_16:
   \   00000294   E00A               LDI     R16, 10
   \   00000296   01FD               MOVW    R31:R30, R27:R26
   \   00000298   A703               STD     Z+43, R16
   \   0000029A   E006               LDI     R16, 6
   \   0000029C   CED2               RJMP    ??monitor_event_IPCP_5
   \                     ??monitor_event_IPCP_55:
   \   0000029E   EF0F               LDI     R16, 255
   \   000002A0   01FD               MOVW    R31:R30, R27:R26
   \   000002A2   A303               STD     Z+35, R16
   \   000002A4   2D06               MOV     R16, R6
   \   000002A6   5003               SUBI    R16, 3
   \   000002A8   F219               BREQ    ??monitor_event_IPCP_47
   \   000002AA   5002               SUBI    R16, 2
   \   000002AC   F031               BREQ    ??monitor_event_IPCP_56
   \   000002AE   5001               SUBI    R16, 1
   \   000002B0   F018               BRCS    ??monitor_event_IPCP_57
   \   000002B2   5003               SUBI    R16, 3
   \   000002B4   F020               BRCS    ??monitor_event_IPCP_58
   \   000002B6   F031               BREQ    ??monitor_event_IPCP_59
   \                     ??monitor_event_IPCP_57:
   \   000002B8   CEEB               RJMP    ??monitor_event_IPCP_1
   \                     ??monitor_event_IPCP_56:
   \   000002BA   E00A               LDI     R16, 10
   \   000002BC   CF04               RJMP    ??monitor_event_IPCP_18
   \                     ??monitor_event_IPCP_58:
   \   000002BE   E00A               LDI     R16, 10
   \                     ??monitor_event_IPCP_60:
   \   000002C0   01FC               MOVW    R31:R30, R25:R24
   \   000002C2   CEC5               RJMP    ??monitor_event_IPCP_6
   \                     ??monitor_event_IPCP_59:
   \   000002C4   E00A               LDI     R16, 10
   \   000002C6   A703               STD     Z+43, R16
   \   000002C8   E001               LDI     R16, 1
   \   000002CA   01FC               MOVW    R31:R30, R25:R24
   \   000002CC   8304               STD     Z+4, R16
   \   000002CE   ........           CALL    prov_uk_in_ipcp
   \   000002D2   E005               LDI     R16, 5
   \   000002D4   01FD               MOVW    R31:R30, R27:R26
   \   000002D6   A126               LDD     R18, Z+38
   \   000002D8   E030               LDI     R19, 0
   \   000002DA   ....               LDI     R30, LOW(cnt_pap_tm_out)
   \   000002DC   ....               LDI     R31, (cnt_pap_tm_out) >> 8
   \   000002DE   0FE2               ADD     R30, R18
   \   000002E0   1FF3               ADC     R31, R19
   \   000002E2   8304               STD     Z+4, R16
   \   000002E4   ........           CALL    prov_uk_in_ipcp
   \   000002E8   E00A               LDI     R16, 10
   \   000002EA   01FD               MOVW    R31:R30, R27:R26
   \   000002EC   A126               LDD     R18, Z+38
   \   000002EE   E030               LDI     R19, 0
   \   000002F0   ....               LDI     R30, LOW(cnt_pap_tm_out)
   \   000002F2   ....               LDI     R31, (cnt_pap_tm_out) >> 8
   \   000002F4   0FE2               ADD     R30, R18
   \   000002F6   1FF3               ADC     R31, R19
   \   000002F8   CF04               RJMP    ??monitor_event_IPCP_27
   \                     ??monitor_event_IPCP_61:
   \   000002FA   EF0F               LDI     R16, 255
   \   000002FC   01FD               MOVW    R31:R30, R27:R26
   \   000002FE   A303               STD     Z+35, R16
   \   00000300   2D06               MOV     R16, R6
   \   00000302   5003               SUBI    R16, 3
   \   00000304   F061               BREQ    ??monitor_event_IPCP_62
   \   00000306   5002               SUBI    R16, 2
   \   00000308   F409               BRNE    $+2+2
   \   0000030A   CEF6               RJMP    ??monitor_event_IPCP_25
   \   0000030C   950A               DEC     R16
   \   0000030E   F409               BRNE    $+2+2
   \   00000310   CEA1               RJMP    ??monitor_event_IPCP_7
   \   00000312   950A               DEC     R16
   \   00000314   F409               BRNE    $+2+2
   \   00000316   CE9E               RJMP    ??monitor_event_IPCP_7
   \   00000318   950A               DEC     R16
   \   0000031A   F031               BREQ    ??monitor_event_IPCP_63
   \   0000031C   CF86               RJMP    ??monitor_event_IPCP_50
   \                     ??monitor_event_IPCP_62:
   \   0000031E   01FD               MOVW    R31:R30, R27:R26
   \   00000320   8503               LDD     R16, Z+11
   \   00000322   7F0D               ANDI    R16, 0xFD
   \   00000324   8703               STD     Z+11, R16
   \   00000326   CEF0               RJMP    ??monitor_event_IPCP_28
   \                     ??monitor_event_IPCP_63:
   \   00000328   8503               LDD     R16, Z+11
   \   0000032A   7F0D               ANDI    R16, 0xFD
   \   0000032C   8703               STD     Z+11, R16
   \   0000032E   CED8               RJMP    ??monitor_event_IPCP_23
   \                     ??monitor_event_IPCP_64:
   \   00000330   EF0F               LDI     R16, 255
   \   00000332   01FD               MOVW    R31:R30, R27:R26
   \   00000334   A303               STD     Z+35, R16
   \   00000336   2D06               MOV     R16, R6
   \   00000338   5003               SUBI    R16, 3
   \   0000033A   F059               BREQ    ??monitor_event_IPCP_65
   \   0000033C   5002               SUBI    R16, 2
   \   0000033E   F079               BREQ    ??monitor_event_IPCP_66
   \   00000340   950A               DEC     R16
   \   00000342   F079               BREQ    ??monitor_event_IPCP_67
   \   00000344   950A               DEC     R16
   \   00000346   F079               BREQ    ??monitor_event_IPCP_68
   \   00000348   950A               DEC     R16
   \   0000034A   F079               BREQ    ??monitor_event_IPCP_69
   \   0000034C   950A               DEC     R16
   \   0000034E   F079               BREQ    ??monitor_event_IPCP_70
   \   00000350   CE9F               RJMP    ??monitor_event_IPCP_1
   \                     ??monitor_event_IPCP_65:
   \   00000352   E00B               LDI     R16, 11
   \   00000354   01FC               MOVW    R31:R30, R25:R24
   \   00000356   8304               STD     Z+4, R16
   \   00000358   ........           CALL    prov_uk_in_ipcp
   \   0000035C   CFE0               RJMP    ??monitor_event_IPCP_62
   \                     ??monitor_event_IPCP_66:
   \   0000035E   E00B               LDI     R16, 11
   \   00000360   CEB2               RJMP    ??monitor_event_IPCP_18
   \                     ??monitor_event_IPCP_67:
   \   00000362   E00B               LDI     R16, 11
   \   00000364   CFAD               RJMP    ??monitor_event_IPCP_60
   \                     ??monitor_event_IPCP_68:
   \   00000366   E00B               LDI     R16, 11
   \   00000368   CF42               RJMP    ??monitor_event_IPCP_44
   \                     ??monitor_event_IPCP_69:
   \   0000036A   E00B               LDI     R16, 11
   \   0000036C   CEB5               RJMP    ??monitor_event_IPCP_21
   \                     ??monitor_event_IPCP_70:
   \   0000036E   E00B               LDI     R16, 11
   \   00000370   01FC               MOVW    R31:R30, R25:R24
   \   00000372   CF0B               RJMP    ??monitor_event_IPCP_36
   \                     ??monitor_event_IPCP_71:
   \   00000374   EF0F               LDI     R16, 255
   \   00000376   01FD               MOVW    R31:R30, R27:R26
   \   00000378   A303               STD     Z+35, R16
   \   0000037A   2D06               MOV     R16, R6
   \   0000037C   5003               SUBI    R16, 3
   \   0000037E   F409               BRNE    $+2+2
   \   00000380   CE7F               RJMP    ??monitor_event_IPCP_11
   \   00000382   5002               SUBI    R16, 2
   \   00000384   F409               BRNE    $+2+2
   \   00000386   CEA3               RJMP    ??monitor_event_IPCP_20
   \   00000388   950A               DEC     R16
   \   0000038A   F409               BRNE    $+2+2
   \   0000038C   CE63               RJMP    ??monitor_event_IPCP_7
   \   0000038E   950A               DEC     R16
   \   00000390   F039               BREQ    ??monitor_event_IPCP_45
   \   00000392   950A               DEC     R16
   \   00000394   F409               BRNE    $+2+2
   \   00000396   CEA4               RJMP    ??monitor_event_IPCP_23
   \   00000398   950A               DEC     R16
   \   0000039A   F409               BRNE    $+2+2
   \   0000039C   CEF9               RJMP    ??monitor_event_IPCP_37
   \   0000039E   CE78               RJMP    ??monitor_event_IPCP_1
   \                     ??monitor_event_IPCP_45:
   \   000003A0   E007               LDI     R16, 7
   \   000003A2   CE73               RJMP    ??monitor_event_IPCP_8
   2476                                      return;                                                                    
   2477                         }  
   2478                       return; 
   2479                  case RXJ_MI:  
   2480                      IPCP_event=NO_EVENT;
   \                     ??monitor_event_IPCP_72:
   \   000003A4   EF0F               LDI     R16, 255
   \   000003A6   01FD               MOVW    R31:R30, R27:R26
   \   000003A8   A303               STD     Z+35, R16
   2481                      switch(IPCP_state)
   \   000003AA   2D06               MOV     R16, R6
   \   000003AC   5003               SUBI    R16, 3
   \   000003AE   F409               BRNE    $+2+2
   \   000003B0   CEA3               RJMP    ??monitor_event_IPCP_25
   \   000003B2   5002               SUBI    R16, 2
   \   000003B4   F020               BRCS    ??monitor_event_IPCP_73
   \   000003B6   5004               SUBI    R16, 4
   \   000003B8   F408               BRCC    $+2+2
   \   000003BA   CE9E               RJMP    ??monitor_event_IPCP_25
   \   000003BC   F009               BREQ    ??monitor_event_IPCP_74
   \                     ??monitor_event_IPCP_73:
   \   000003BE   CE68               RJMP    ??monitor_event_IPCP_1
   2482                         {                     
   2483                          case STOP_ST:  
   2484                                      fl_ipcp.ipcp_tm_out_en=0;                                                  
   2485                                      IPCP_act_buf[uk_in_act_IPCP]=TLF;  
   2486                                      prov_uk_in_ipcp();                   
   2487                                      IPCP_state=STOP_ST;
   2488                                      return;               
   2489                          case OSTANOV:  
   2490                                      fl_ipcp.ipcp_tm_out_en=0;                                                  
   2491                                      IPCP_act_buf[uk_in_act_IPCP]=TLF;  
   2492                                      prov_uk_in_ipcp();                   
   2493                                      IPCP_state=STOP_ST;
   2494                                      return;  
   2495                          case SEND_REQ:                                                                
   2496                                      fl_ipcp.ipcp_tm_out_en=0;                                                  
   2497                                      IPCP_act_buf[uk_in_act_IPCP]=TLF;  
   2498                                      prov_uk_in_ipcp();                   
   2499                                      IPCP_state=STOP_ST;
   2500                                      return;
   2501                          case REC_ACK:                                                                
   2502                                      fl_ipcp.ipcp_tm_out_en=0;                                                  
   2503                                      IPCP_act_buf[uk_in_act_IPCP]=TLF;  
   2504                                      prov_uk_in_ipcp();                   
   2505                                      IPCP_state=STOP_ST;
   2506                                      return;
   2507                          case SEND_ACK:                                                                
   2508                                      fl_ipcp.ipcp_tm_out_en=0;                                                  
   2509                                      IPCP_act_buf[uk_in_act_IPCP]=TLF;  
   2510                                      prov_uk_in_ipcp();                   
   2511                                      IPCP_state=STOP_ST;
   2512                                      return;
   2513                          case OPEN_ST:                                                                
   2514                                      vol_cnt_rst_ipcp=VOL_IPCP_MT;  
   \                     ??monitor_event_IPCP_74:
   \   000003C0   E002               LDI     R16, 2
   \   000003C2   A703               STD     Z+43, R16
   2515                                      IPCP_act_buf[uk_in_act_IPCP]=TLD;  
   \   000003C4   E001               LDI     R16, 1
   \   000003C6   01FC               MOVW    R31:R30, R25:R24
   \   000003C8   8304               STD     Z+4, R16
   2516                                      prov_uk_in_ipcp(); 
   \   000003CA   ........           CALL    prov_uk_in_ipcp
   2517                                      IPCP_act_buf[uk_in_act_IPCP]=IRC; 
   \   000003CE   E004               LDI     R16, 4
   \   000003D0   01FD               MOVW    R31:R30, R27:R26
   \   000003D2   A126               LDD     R18, Z+38
   \   000003D4   E030               LDI     R19, 0
   \   000003D6   ....               LDI     R30, LOW(cnt_pap_tm_out)
   \   000003D8   ....               LDI     R31, (cnt_pap_tm_out) >> 8
   \   000003DA   0FE2               ADD     R30, R18
   \   000003DC   1FF3               ADC     R31, R19
   \   000003DE   8304               STD     Z+4, R16
   2518                                      prov_uk_in_ipcp();  
   \   000003E0   ........           CALL    prov_uk_in_ipcp
   2519                                      IPCP_act_buf[uk_in_act_IPCP]=STR;  
   \   000003E4   E009               LDI     R16, 9
   \   000003E6   01FD               MOVW    R31:R30, R27:R26
   \   000003E8   A126               LDD     R18, Z+38
   \   000003EA   E030               LDI     R19, 0
   \   000003EC   ....               LDI     R30, LOW(cnt_pap_tm_out)
   \   000003EE   ....               LDI     R31, (cnt_pap_tm_out) >> 8
   \   000003F0   0FE2               ADD     R30, R18
   \   000003F2   1FF3               ADC     R31, R19
   \   000003F4   CE69               RJMP    ??monitor_event_IPCP_19
   2520                                      prov_uk_in_ipcp();                                  
   2521                                      IPCP_state=OSTANOV;  
   2522                                      return;                                                                        
   2523                         } 
   2524                       return;  
   2525                  case RXR:       
   2526                       IPCP_event=NO_EVENT;
   2527                       switch(IPCP_state)
   2528                         {                     
   2529          
   2530                          case STOP_ST:      
   2531                                      fl_ipcp.ipcp_tm_out_en=0;                                                              
   2532                                      IPCP_state=START_ST;
   2533                                      return;        
   2534                          case OSTANOV:                                                                               
   2535                                      IPCP_state=OSTANOV;
   2536                                      return;  
   2537                          case SEND_REQ:                                                                                 
   2538                                      IPCP_state=SEND_REQ;
   2539                                      return;
   2540                          case REC_ACK:                                                                              
   2541                                      IPCP_state=REC_ACK;
   2542                                      return;
   2543                          case SEND_ACK:                                                                              
   2544                                      IPCP_state=SEND_ACK;
   2545                                      return;
   2546                          case OPEN_ST:                                                                                
   2547                                   //   IPCP_act_buf[uk_in_act_IPCP]=SER;  
   2548                                   //   prov_uk_in_ipcp();
   2549                                      IPCP_state=OPEN_ST;
   2550                                      return;                                                                 
   2551                         }  
   2552                       return;                                  
   2553                  }
   2554              
   2555              }
   2556            
   2557            
   2558            ////////////////  конец мониторы IPCP 
   2559          

   \                                 In segment CODE, align 2, keep-with-next
   2560            unsigned int calc_crc_ip(unsigned char *p,unsigned int count)
   \                     calc_crc_ip:
   2561                {      
   \   00000000   9726               SBIW    R29:R28, 6
   \   00000002   01F8               MOVW    R31:R30, R17:R16
   2562                
   2563                    union          
   2564                    {
   2565                     unsigned char bytes[2]; 
   2566                     unsigned int word;
   2567                    }temp1; 
   2568                   
   2569                    union
   2570                    {
   2571                     unsigned char bytes[4]; 
   2572                     unsigned long int long_word;
   2573                    }temp2; 
   2574                 
   2575                   temp1.word=0;
   \   00000004   E000               LDI     R16, 0
   \   00000006   E010               LDI     R17, 0
   \   00000008   8308               ST      Y, R16
   \   0000000A   8309               STD     Y+1, R16
   2576                   temp2.long_word=0;
   \   0000000C   830A               STD     Y+2, R16
   \   0000000E   830B               STD     Y+3, R16
   \   00000010   830C               STD     Y+4, R16
   \   00000012   830D               STD     Y+5, R16
   \   00000014   C015               RJMP    ??calc_crc_ip_0
   2577          
   2578                  while( count > 1 )  {
   2579                     /*  This is the inner loop */  
   2580                         temp1.bytes[0]=*p;
   \                     ??calc_crc_ip_1:
   \   00000016   8100               LD      R16, Z
   \   00000018   8308               ST      Y, R16
   2581                         temp1.bytes[1]=*(p+1); 
   \   0000001A   8101               LDD     R16, Z+1
   \   0000001C   8309               STD     Y+1, R16
   2582                         temp2.long_word=temp2.long_word+temp1.word; 
   \   0000001E   8148               LD      R20, Y
   \   00000020   8159               LDD     R21, Y+1
   \   00000022   800A               LDD     R0, Y+2
   \   00000024   801B               LDD     R1, Y+3
   \   00000026   802C               LDD     R2, Y+4
   \   00000028   803D               LDD     R3, Y+5
   \   0000002A   0E04               ADD     R0, R20
   \   0000002C   1E15               ADC     R1, R21
   \   0000002E   1E21               ADC     R2, R17
   \   00000030   1E31               ADC     R3, R17
   \   00000032   820A               STD     Y+2, R0
   \   00000034   821B               STD     Y+3, R1
   \   00000036   822C               STD     Y+4, R2
   \   00000038   823D               STD     Y+5, R3
   2583                         p=p+2;         
   \   0000003A   9632               ADIW    R31:R30, 2
   2584                         count -= 2;
   \   0000003C   5022               SUBI    R18, 2
   \   0000003E   4030               SBCI    R19, 0
   2585                                      }
   \                     ??calc_crc_ip_0:
   \   00000040   3022               CPI     R18, 2
   \   00000042   0731               CPC     R19, R17
   \   00000044   F740               BRCC    ??calc_crc_ip_1
   2586          
   2587                     /*  Add left-over byte, if any */
   2588                 if( count > 0 )   
   \   00000046   2B23               OR      R18, R19
   \   00000048   F109               BREQ    ??calc_crc_ip_2
   2589                         {
   2590                         temp1.bytes[0]=0;
   \   0000004A   8318               ST      Y, R17
   2591                         temp1.bytes[1]=*p; 
   \   0000004C   8100               LD      R16, Z
   \   0000004E   8309               STD     Y+1, R16
   2592                         temp2.long_word=temp2.long_word+temp1.word; 
   \   00000050   8108               LD      R16, Y
   \   00000052   8119               LDD     R17, Y+1
   \   00000054   E020               LDI     R18, 0
   \   00000056   814A               LDD     R20, Y+2
   \   00000058   815B               LDD     R21, Y+3
   \   0000005A   816C               LDD     R22, Y+4
   \   0000005C   817D               LDD     R23, Y+5
   \   0000005E   0F40               ADD     R20, R16
   \   00000060   1F51               ADC     R21, R17
   \   00000062   1F62               ADC     R22, R18
   \   00000064   1F72               ADC     R23, R18
   \   00000066   834A               STD     Y+2, R20
   \   00000068   835B               STD     Y+3, R21
   \   0000006A   836C               STD     Y+4, R22
   \   0000006C   837D               STD     Y+5, R23
   \   0000006E   C00E               RJMP    ??calc_crc_ip_2
   2593                         } 
   2594                    
   2595              
   2596                     /*  Fold 32-bit sum to 16 bits */
   2597                 while (temp2.long_word>>16)
   2598                     temp2.long_word = (temp2.long_word & 0xffff) + (temp2.long_word >> 16);
   \                     ??calc_crc_ip_3:
   \   00000070   811B               LDD     R17, Y+3
   \   00000072   E020               LDI     R18, 0
   \   00000074   816C               LDD     R22, Y+4
   \   00000076   817D               LDD     R23, Y+5
   \   00000078   2F46               MOV     R20, R22
   \   0000007A   2F57               MOV     R21, R23
   \   0000007C   E060               LDI     R22, 0
   \   0000007E   0F40               ADD     R20, R16
   \   00000080   1F51               ADC     R21, R17
   \   00000082   1F62               ADC     R22, R18
   \   00000084   834A               STD     Y+2, R20
   \   00000086   835B               STD     Y+3, R21
   \   00000088   836C               STD     Y+4, R22
   \   0000008A   832D               STD     Y+5, R18
   \                     ??calc_crc_ip_2:
   \   0000008C   812C               LDD     R18, Y+4
   \   0000008E   813D               LDD     R19, Y+5
   \   00000090   E000               LDI     R16, 0
   \   00000092   2B02               OR      R16, R18
   \   00000094   2B03               OR      R16, R19
   \   00000096   810A               LDD     R16, Y+2
   \   00000098   F759               BRNE    ??calc_crc_ip_3
   2599          
   2600                 temp1.bytes[0]=~temp2.bytes[0];
   \   0000009A   9500               COM     R16
   \   0000009C   8308               ST      Y, R16
   2601                 temp1.bytes[1]=~temp2.bytes[1];  
   \   0000009E   810B               LDD     R16, Y+3
   \   000000A0   9500               COM     R16
   \   000000A2   8309               STD     Y+1, R16
   2602                 
   2603            
   2604                    
   2605                 return(temp1.word);
   \   000000A4   8108               LD      R16, Y
   \   000000A6   8119               LDD     R17, Y+1
   \   000000A8   9626               ADIW    R29:R28, 6
   \   000000AA   9508               RET
   2606                }
   2607                 
   2608          
   2609          
   2610          
   2611           

   \                                 In segment CODE, align 2, keep-with-next
   2612           unsigned int calc_crc_udp_2(unsigned char *buf_rx_ppp,unsigned int count)
   \                     calc_crc_udp_2:
   2613                {      
   \   00000000   ........           CALL    ?PROLOGUE4_L09
   \   00000004   9726               SBIW    R29:R28, 6
   \   00000006   01D8               MOVW    R27:R26, R17:R16
   \   00000008   01C9               MOVW    R25:R24, R19:R18
   2614                    unsigned char *p;
   2615                
   2616                    union          
   2617                    {
   2618                     unsigned char bytes[2]; 
   2619                     unsigned int word;
   2620                    }temp1; 
   2621                   
   2622                    union
   2623                    {
   2624                     unsigned char bytes[4]; 
   2625                     unsigned long int long_word;
   2626                    }temp2; 
   2627                   p=buf_rx_ppp+22;
   \   0000000A   01FD               MOVW    R31:R30, R27:R26
   \   0000000C   9676               ADIW    R31:R30, 22
   2628                   temp1.word=0;
   \   0000000E   E020               LDI     R18, 0
   \   00000010   E030               LDI     R19, 0
   \   00000012   8328               ST      Y, R18
   \   00000014   8329               STD     Y+1, R18
   2629                   temp2.long_word=0;
   \   00000016   832A               STD     Y+2, R18
   \   00000018   832B               STD     Y+3, R18
   \   0000001A   832C               STD     Y+4, R18
   \   0000001C   832D               STD     Y+5, R18
   \   0000001E   C014               RJMP    ??calc_crc_udp_2_0
   2630          
   2631                  while( count > 1 )  {
   2632                     /*  This is the inner loop */  
   2633                         temp1.bytes[0]=*p;
   \                     ??calc_crc_udp_2_1:
   \   00000020   8120               LD      R18, Z
   \   00000022   8328               ST      Y, R18
   2634                         temp1.bytes[1]=*(p+1); 
   \   00000024   8121               LDD     R18, Z+1
   \   00000026   8329               STD     Y+1, R18
   2635                         temp2.long_word=temp2.long_word+temp1.word; 
   \   00000028   8148               LD      R20, Y
   \   0000002A   8159               LDD     R21, Y+1
   \   0000002C   800A               LDD     R0, Y+2
   \   0000002E   801B               LDD     R1, Y+3
   \   00000030   802C               LDD     R2, Y+4
   \   00000032   803D               LDD     R3, Y+5
   \   00000034   0E04               ADD     R0, R20
   \   00000036   1E15               ADC     R1, R21
   \   00000038   1E23               ADC     R2, R19
   \   0000003A   1E33               ADC     R3, R19
   \   0000003C   820A               STD     Y+2, R0
   \   0000003E   821B               STD     Y+3, R1
   \   00000040   822C               STD     Y+4, R2
   \   00000042   823D               STD     Y+5, R3
   2636                         p=p+2;         
   \   00000044   9632               ADIW    R31:R30, 2
   2637                         count -= 2;
   \   00000046   9702               SBIW    R25:R24, 2
   2638                                      }
   \                     ??calc_crc_udp_2_0:
   \   00000048   3082               CPI     R24, 2
   \   0000004A   0793               CPC     R25, R19
   \   0000004C   F748               BRCC    ??calc_crc_udp_2_1
   2639          
   2640                     /*  Add left-over byte, if any */
   2641                 if( count > 0 )   
   \   0000004E   2B89               OR      R24, R25
   \   00000050   F089               BREQ    ??calc_crc_udp_2_2
   2642                         {
   2643                         //temp1.bytes[0]=0;
   2644                         //temp1.bytes[1]=*p; 
   2645                         temp1.bytes[0]=*p; 
   \   00000052   8100               LD      R16, Z
   \   00000054   8308               ST      Y, R16
   2646                         temp1.bytes[1]=0;
   \   00000056   8339               STD     Y+1, R19
   2647                         temp2.long_word=temp2.long_word+temp1.word; 
   \   00000058   8108               LD      R16, Y
   \   0000005A   8119               LDD     R17, Y+1
   \   0000005C   814A               LDD     R20, Y+2
   \   0000005E   815B               LDD     R21, Y+3
   \   00000060   816C               LDD     R22, Y+4
   \   00000062   817D               LDD     R23, Y+5
   \   00000064   0F40               ADD     R20, R16
   \   00000066   1F51               ADC     R21, R17
   \   00000068   1F63               ADC     R22, R19
   \   0000006A   1F73               ADC     R23, R19
   \   0000006C   834A               STD     Y+2, R20
   \   0000006E   835B               STD     Y+3, R21
   \   00000070   836C               STD     Y+4, R22
   \   00000072   837D               STD     Y+5, R23
   2648                         } 
   2649                    
   2650                    
   2651                    
   2652                    temp1.bytes[0]=buf_rx_ppp[14];
   \                     ??calc_crc_udp_2_2:
   \   00000074   01FD               MOVW    R31:R30, R27:R26
   \   00000076   8506               LDD     R16, Z+14
   \   00000078   8308               ST      Y, R16
   2653                    temp1.bytes[1]=buf_rx_ppp[15]; 
   \   0000007A   8507               LDD     R16, Z+15
   \   0000007C   8309               STD     Y+1, R16
   2654                    temp2.long_word=temp2.long_word+temp1.word;  
   \   0000007E   8108               LD      R16, Y
   \   00000080   8119               LDD     R17, Y+1
   \   00000082   814A               LDD     R20, Y+2
   \   00000084   815B               LDD     R21, Y+3
   \   00000086   816C               LDD     R22, Y+4
   \   00000088   817D               LDD     R23, Y+5
   \   0000008A   0F40               ADD     R20, R16
   \   0000008C   1F51               ADC     R21, R17
   \   0000008E   1F63               ADC     R22, R19
   \   00000090   1F73               ADC     R23, R19
   \   00000092   834A               STD     Y+2, R20
   \   00000094   835B               STD     Y+3, R21
   \   00000096   836C               STD     Y+4, R22
   \   00000098   837D               STD     Y+5, R23
   2655                    temp1.bytes[0]=buf_rx_ppp[16];
   \   0000009A   8900               LDD     R16, Z+16
   \   0000009C   8308               ST      Y, R16
   2656                    temp1.bytes[1]=buf_rx_ppp[17]; 
   \   0000009E   8901               LDD     R16, Z+17
   \   000000A0   8309               STD     Y+1, R16
   2657                    temp2.long_word=temp2.long_word+temp1.word;  
   \   000000A2   8108               LD      R16, Y
   \   000000A4   8119               LDD     R17, Y+1
   \   000000A6   814A               LDD     R20, Y+2
   \   000000A8   815B               LDD     R21, Y+3
   \   000000AA   816C               LDD     R22, Y+4
   \   000000AC   817D               LDD     R23, Y+5
   \   000000AE   0F40               ADD     R20, R16
   \   000000B0   1F51               ADC     R21, R17
   \   000000B2   1F63               ADC     R22, R19
   \   000000B4   1F73               ADC     R23, R19
   \   000000B6   834A               STD     Y+2, R20
   \   000000B8   835B               STD     Y+3, R21
   \   000000BA   836C               STD     Y+4, R22
   \   000000BC   837D               STD     Y+5, R23
   2658                    
   2659                    temp1.bytes[0]=buf_rx_ppp[18];
   \   000000BE   8902               LDD     R16, Z+18
   \   000000C0   8308               ST      Y, R16
   2660                    temp1.bytes[1]=buf_rx_ppp[19]; 
   \   000000C2   8903               LDD     R16, Z+19
   \   000000C4   8309               STD     Y+1, R16
   2661                    temp2.long_word=temp2.long_word+temp1.word;  
   \   000000C6   8108               LD      R16, Y
   \   000000C8   8119               LDD     R17, Y+1
   \   000000CA   814A               LDD     R20, Y+2
   \   000000CC   815B               LDD     R21, Y+3
   \   000000CE   816C               LDD     R22, Y+4
   \   000000D0   817D               LDD     R23, Y+5
   \   000000D2   0F40               ADD     R20, R16
   \   000000D4   1F51               ADC     R21, R17
   \   000000D6   1F63               ADC     R22, R19
   \   000000D8   1F73               ADC     R23, R19
   \   000000DA   834A               STD     Y+2, R20
   \   000000DC   835B               STD     Y+3, R21
   \   000000DE   836C               STD     Y+4, R22
   \   000000E0   837D               STD     Y+5, R23
   2662                    temp1.bytes[0]=buf_rx_ppp[20];
   \   000000E2   8904               LDD     R16, Z+20
   \   000000E4   8308               ST      Y, R16
   2663                    temp1.bytes[1]=buf_rx_ppp[21]; 
   \   000000E6   8905               LDD     R16, Z+21
   \   000000E8   8309               STD     Y+1, R16
   2664                    temp2.long_word=temp2.long_word+temp1.word;  
   \   000000EA   8108               LD      R16, Y
   \   000000EC   8119               LDD     R17, Y+1
   \   000000EE   814A               LDD     R20, Y+2
   \   000000F0   815B               LDD     R21, Y+3
   \   000000F2   816C               LDD     R22, Y+4
   \   000000F4   817D               LDD     R23, Y+5
   \   000000F6   0F40               ADD     R20, R16
   \   000000F8   1F51               ADC     R21, R17
   \   000000FA   1F63               ADC     R22, R19
   \   000000FC   1F73               ADC     R23, R19
   \   000000FE   834A               STD     Y+2, R20
   \   00000100   835B               STD     Y+3, R21
   \   00000102   836C               STD     Y+4, R22
   \   00000104   837D               STD     Y+5, R23
   2665                    
   2666                               
   2667                
   2668                    temp1.bytes[0]=0;
   \   00000106   8338               ST      Y, R19
   2669                    temp1.bytes[1]=0x11; 
   \   00000108   E101               LDI     R16, 17
   \   0000010A   8309               STD     Y+1, R16
   2670                    temp2.long_word=temp2.long_word+temp1.word;  
   \   0000010C   8108               LD      R16, Y
   \   0000010E   8119               LDD     R17, Y+1
   \   00000110   814A               LDD     R20, Y+2
   \   00000112   815B               LDD     R21, Y+3
   \   00000114   816C               LDD     R22, Y+4
   \   00000116   817D               LDD     R23, Y+5
   \   00000118   0F40               ADD     R20, R16
   \   0000011A   1F51               ADC     R21, R17
   \   0000011C   1F63               ADC     R22, R19
   \   0000011E   1F73               ADC     R23, R19
   \   00000120   834A               STD     Y+2, R20
   \   00000122   835B               STD     Y+3, R21
   \   00000124   836C               STD     Y+4, R22
   \   00000126   837D               STD     Y+5, R23
   2671                     
   2672                    temp1.bytes[0]=buf_rx_ppp[26];                                //длина
   \   00000128   8D02               LDD     R16, Z+26
   \   0000012A   8308               ST      Y, R16
   2673                    temp1.bytes[1]=buf_rx_ppp[27]; 
   \   0000012C   8D03               LDD     R16, Z+27
   \   0000012E   8309               STD     Y+1, R16
   2674                    temp2.long_word=temp2.long_word+temp1.word; 
   \   00000130   8108               LD      R16, Y
   \   00000132   8119               LDD     R17, Y+1
   \   00000134   814A               LDD     R20, Y+2
   \   00000136   815B               LDD     R21, Y+3
   \   00000138   816C               LDD     R22, Y+4
   \   0000013A   817D               LDD     R23, Y+5
   \   0000013C   0F40               ADD     R20, R16
   \   0000013E   1F51               ADC     R21, R17
   \   00000140   1F63               ADC     R22, R19
   \   00000142   1F73               ADC     R23, R19
   \   00000144   834A               STD     Y+2, R20
   \   00000146   835B               STD     Y+3, R21
   \   00000148   836C               STD     Y+4, R22
   \   0000014A   837D               STD     Y+5, R23
   \   0000014C   C00E               RJMP    ??calc_crc_udp_2_3
   2675                   
   2676                
   2677                    
   2678                   
   2679                    
   2680              
   2681                     /*  Fold 32-bit sum to 16 bits */
   2682                 while (temp2.long_word>>16)
   2683                     temp2.long_word = (temp2.long_word & 0xffff) + (temp2.long_word >> 16);
   \                     ??calc_crc_udp_2_4:
   \   0000014E   811B               LDD     R17, Y+3
   \   00000150   E020               LDI     R18, 0
   \   00000152   816C               LDD     R22, Y+4
   \   00000154   817D               LDD     R23, Y+5
   \   00000156   2F46               MOV     R20, R22
   \   00000158   2F57               MOV     R21, R23
   \   0000015A   E060               LDI     R22, 0
   \   0000015C   0F40               ADD     R20, R16
   \   0000015E   1F51               ADC     R21, R17
   \   00000160   1F62               ADC     R22, R18
   \   00000162   834A               STD     Y+2, R20
   \   00000164   835B               STD     Y+3, R21
   \   00000166   836C               STD     Y+4, R22
   \   00000168   832D               STD     Y+5, R18
   \                     ??calc_crc_udp_2_3:
   \   0000016A   812C               LDD     R18, Y+4
   \   0000016C   813D               LDD     R19, Y+5
   \   0000016E   E000               LDI     R16, 0
   \   00000170   2B02               OR      R16, R18
   \   00000172   2B03               OR      R16, R19
   \   00000174   810A               LDD     R16, Y+2
   \   00000176   F759               BRNE    ??calc_crc_udp_2_4
   2684          
   2685                temp1.bytes[0]=~temp2.bytes[0];
   \   00000178   9500               COM     R16
   \   0000017A   8308               ST      Y, R16
   2686                temp1.bytes[1]=~temp2.bytes[1]; 
   \   0000017C   810B               LDD     R16, Y+3
   \   0000017E   9500               COM     R16
   \   00000180   8309               STD     Y+1, R16
   2687                    
   2688                 return(temp1.word);
   \   00000182   8108               LD      R16, Y
   \   00000184   8119               LDD     R17, Y+1
   \   00000186   9626               ADIW    R29:R28, 6
   \   00000188   E0E4               LDI     R30, 4
   \   0000018A   ........           JMP     ?EPILOGUE_B4_L09
   2689                }
   2690           
   2691           
   2692           
   2693           

   \                                 In segment CODE, align 2, keep-with-next
   2694           unsigned char proc_ppp_packet(unsigned char *buf_rx_ppp,unsigned int count_rx_ppp)
   \                     proc_ppp_packet:
   2695           {                
   \   00000000   ........           CALL    ?PROLOGUE9_L09
   \   00000004                      REQUIRE ?Register_R4_is_cg_reg
   \   00000004                      REQUIRE ?Register_R5_is_cg_reg
   \   00000004                      REQUIRE ?Register_R6_is_cg_reg
   \   00000004                      REQUIRE ?Register_R7_is_cg_reg
   \   00000004                      REQUIRE ?Register_R8_is_cg_reg
   \   00000004   9724               SBIW    R29:R28, 4
   \   00000006   01C8               MOVW    R25:R24, R17:R16
   \   00000008   0139               MOVW    R7:R6, R19:R18
   2696              unsigned int i;
   2697              unsigned char vol_length_opt;
   2698              unsigned char ind_opt,count_length_opt;
   2699               
   2700               struct
   2701           {
   2702            unsigned char mru :1;  
   2703            unsigned char accm :1; 
   2704            unsigned char aut_prot :1; 
   2705            unsigned char pfc :1;
   2706            unsigned char acfc :1;
   2707            unsigned char zap_opt:1;
   2708            unsigned char ip_self:1;
   2709            unsigned char ip_pri_dns:1;
   2710           }fl_opt;     
   2711                                     
   2712            
   2713            
   2714            union
   2715           {
   2716           unsigned char bytes[2]; 
   2717           unsigned int word;
   2718           } Crc_out,temp,length;
   2719              
   2720              
   2721             
   2722           
   2723            if(count_rx_ppp<=5)return(1); 
   \   0000000A   3026               CPI     R18, 6
   \   0000000C   E000               LDI     R16, 0
   \   0000000E   0670               CPC     R7, R16
   \   00000010   F428               BRCC    ??proc_ppp_packet_0
   \                     ??proc_ppp_packet_1:
   \   00000012   E001               LDI     R16, 1
   \   00000014   9624               ADIW    R29:R28, 4
   \   00000016   E0E9               LDI     R30, 9
   \   00000018   ........           JMP     ?EPILOGUE_B9_L09
   2724             
   2725              //подсчет FCS      
   2726            if (pppfcs16(PPPINITFCS16,&buf_rx_ppp[1],count_rx_ppp-2)!=PPPGOODFCS16)return(1);       
   \                     ??proc_ppp_packet_0:
   \   0000001C   01A3               MOVW    R21:R20, R7:R6
   \   0000001E   5042               SUBI    R20, 2
   \   00000020   4050               SBCI    R21, 0
   \   00000022   019C               MOVW    R19:R18, R25:R24
   \   00000024   5F2F               SUBI    R18, 255
   \   00000026   4F3F               SBCI    R19, 255
   \   00000028   EF0F               LDI     R16, 255
   \   0000002A   EF1F               LDI     R17, 255
   \   0000002C   ........           CALL    pppfcs16
   \   00000030   3B08               CPI     R16, 184
   \   00000032   EF20               LDI     R18, 240
   \   00000034   0712               CPC     R17, R18
   \   00000036   F769               BRNE    ??proc_ppp_packet_1
   2727           
   2728           
   2729            if ((buf_rx_ppp[1]==0xff)&&(buf_rx_ppp[2]==0x03)&&(buf_rx_ppp[3]==0xc0)&&(buf_rx_ppp[4]==0x21)&&(layer_PPP!=LAYER_HW))rcvd_protokol=PR_LCP; 
   \   00000038   ....               LDI     R26, LOW(ip_pri_dns)
   \   0000003A   ....               LDI     R27, (ip_pri_dns) >> 8
   \   0000003C   01FC               MOVW    R31:R30, R25:R24
   \   0000003E   8101               LDD     R16, Z+1
   \   00000040   3F0F               CPI     R16, 255
   \   00000042   F481               BRNE    ??proc_ppp_packet_2
   \   00000044   8102               LDD     R16, Z+2
   \   00000046   3003               CPI     R16, 3
   \   00000048   F469               BRNE    ??proc_ppp_packet_2
   \   0000004A   8103               LDD     R16, Z+3
   \   0000004C   3C00               CPI     R16, 192
   \   0000004E   F451               BRNE    ??proc_ppp_packet_2
   \   00000050   8104               LDD     R16, Z+4
   \   00000052   3201               CPI     R16, 33
   \   00000054   F439               BRNE    ??proc_ppp_packet_2
   \   00000056   9100....           LDS     R16, layer_PPP
   \   0000005A   2300               TST     R16
   \   0000005C   F019               BREQ    ??proc_ppp_packet_2
   \   0000005E   E000               LDI     R16, 0
   \   00000060   01FD               MOVW    R31:R30, R27:R26
   \   00000062   A704               STD     Z+44, R16
   2730            if ((buf_rx_ppp[1]==0xc0)&&(buf_rx_ppp[2]==0x23)&&(layer_PPP==LAYER_PAP))rcvd_protokol=PR_PAP;
   \                     ??proc_ppp_packet_2:
   \   00000064   01FC               MOVW    R31:R30, R25:R24
   \   00000066   8101               LDD     R16, Z+1
   \   00000068   3C00               CPI     R16, 192
   \   0000006A   F451               BRNE    ??proc_ppp_packet_3
   \   0000006C   8102               LDD     R16, Z+2
   \   0000006E   3203               CPI     R16, 35
   \   00000070   F439               BRNE    ??proc_ppp_packet_3
   \   00000072   9100....           LDS     R16, layer_PPP
   \   00000076   3002               CPI     R16, 2
   \   00000078   F419               BRNE    ??proc_ppp_packet_3
   \   0000007A   E001               LDI     R16, 1
   \   0000007C   01FD               MOVW    R31:R30, R27:R26
   \   0000007E   A704               STD     Z+44, R16
   2731            if ((buf_rx_ppp[1]==0x80)&&(buf_rx_ppp[2]==0x21)&&((layer_PPP==LAYER_IP)||(layer_PPP==LAYER_IPCP)))rcvd_protokol=PR_IPCP; 
   \                     ??proc_ppp_packet_3:
   \   00000080   01FC               MOVW    R31:R30, R25:R24
   \   00000082   8101               LDD     R16, Z+1
   \   00000084   3800               CPI     R16, 128
   \   00000086   F471               BRNE    ??proc_ppp_packet_4
   \   00000088   8102               LDD     R16, Z+2
   \   0000008A   3201               CPI     R16, 33
   \   0000008C   F459               BRNE    ??proc_ppp_packet_4
   \   0000008E   9100....           LDS     R16, layer_PPP
   \   00000092   3004               CPI     R16, 4
   \   00000094   F021               BREQ    ??proc_ppp_packet_5
   \   00000096   9100....           LDS     R16, layer_PPP
   \   0000009A   3003               CPI     R16, 3
   \   0000009C   F419               BRNE    ??proc_ppp_packet_4
   \                     ??proc_ppp_packet_5:
   \   0000009E   E002               LDI     R16, 2
   \   000000A0   01FD               MOVW    R31:R30, R27:R26
   \   000000A2   A704               STD     Z+44, R16
   2732            if ((buf_rx_ppp[1]==0x21)&&(layer_PPP==LAYER_IP))rcvd_protokol=PR_IP; 
   \                     ??proc_ppp_packet_4:
   \   000000A4   01FC               MOVW    R31:R30, R25:R24
   \   000000A6   8101               LDD     R16, Z+1
   \   000000A8   3201               CPI     R16, 33
   \   000000AA   F439               BRNE    ??proc_ppp_packet_6
   \   000000AC   9100....           LDS     R16, layer_PPP
   \   000000B0   3004               CPI     R16, 4
   \   000000B2   F419               BRNE    ??proc_ppp_packet_6
   \   000000B4   E003               LDI     R16, 3
   \   000000B6   01FD               MOVW    R31:R30, R27:R26
   \   000000B8   A704               STD     Z+44, R16
   2733            
   2734            
   2735          
   2736           
   2737            
   2738               
   2739               switch (rcvd_protokol) 
   \                     ??proc_ppp_packet_6:
   \   000000BA   01A3               MOVW    R21:R20, R7:R6
   \   000000BC   5044               SUBI    R20, 4
   \   000000BE   4050               SBCI    R21, 0
   \   000000C0   0183               MOVW    R17:R16, R7:R6
   \   000000C2   5006               SUBI    R16, 6
   \   000000C4   4010               SBCI    R17, 0
   \   000000C6   ....               LDI     R18, LOW(ip_self)
   \   000000C8   2E42               MOV     R4, R18
   \   000000CA   ....               LDI     R18, (ip_self) >> 8
   \   000000CC   2E52               MOV     R5, R18
   \   000000CE   01FD               MOVW    R31:R30, R27:R26
   \   000000D0   A524               LDD     R18, Z+44
   \   000000D2   5020               SUBI    R18, 0
   \   000000D4   F051               BREQ    ??proc_ppp_packet_7
   \   000000D6   952A               DEC     R18
   \   000000D8   F409               BRNE    $+2+2
   \   000000DA   C1BD               RJMP    ??proc_ppp_packet_8
   \   000000DC   952A               DEC     R18
   \   000000DE   F409               BRNE    $+2+2
   \   000000E0   C1E2               RJMP    ??proc_ppp_packet_9
   \   000000E2   952A               DEC     R18
   \   000000E4   F409               BRNE    $+2+2
   \   000000E6   C48A               RJMP    ??proc_ppp_packet_10
   \   000000E8   CF94               RJMP    ??proc_ppp_packet_1
   2740                {
   2741                 case PR_LCP:
   2742                        
   2743                     
   2744                        // здесь  проверка общей длины     
   2745                        length.bytes[1]=buf_rx_ppp[7];
   \                     ??proc_ppp_packet_7:
   \   000000EA   01FC               MOVW    R31:R30, R25:R24
   \   000000EC   8107               LDD     R16, Z+7
   \   000000EE   8309               STD     Y+1, R16
   2746                        length.bytes[0]=buf_rx_ppp[8];
   \   000000F0   8500               LDD     R16, Z+8
   \   000000F2   8308               ST      Y, R16
   2747                        if (length.word!=count_rx_ppp-8)return(1);
   \   000000F4   8108               LD      R16, Y
   \   000000F6   8119               LDD     R17, Y+1
   \   000000F8   01F3               MOVW    R31:R30, R7:R6
   \   000000FA   9738               SBIW    R31:R30, 8
   \   000000FC   170E               CP      R16, R30
   \   000000FE   071F               CPC     R17, R31
   \   00000100   F009               BREQ    $+2+2
   \   00000102   CF87               RJMP    ??proc_ppp_packet_1
   2748                        if (count_rx_ppp>MAX_DL_LCP)return(1);//не воспринимать длинные пакеты                           
   \   00000104   E209               LDI     R16, 41
   \   00000106   1660               CP      R6, R16
   \   00000108   E000               LDI     R16, 0
   \   0000010A   0670               CPC     R7, R16
   \   0000010C   F008               BRCS    $+2+2
   \   0000010E   CF81               RJMP    ??proc_ppp_packet_1
   2749                        
   2750                        vol_length_opt=count_rx_ppp-12;
   \   00000110   EF04               LDI     R16, 244
   \   00000112   0E60               ADD     R6, R16
   2751                        count_length_opt=0;
   \   00000114   2400               CLR     R0
   2752                        ind_opt=9;  
   \   00000116   E069               LDI     R22, 9
   2753                       
   2754                        ln_rejc_lcp=0;
   \   00000118   01FD               MOVW    R31:R30, R27:R26
   \   0000011A   AA07               STD     Z+55, R0
   2755                        ln_ack_lcp=0;
   \   0000011C   AE01               STD     Z+57, R0
   2756                        ln_nak_lcp=0;
   \   0000011E   AE02               STD     Z+58, R0
   2757                        ln_rej_lcp=0; 
   \   00000120   AE00               STD     Z+56, R0
   2758                        
   2759                                            
   2760                       
   2761                                     
   2762                        switch (buf_rx_ppp[5])      
   \   00000122   A505               LDD     R16, Z+45
   \   00000124   01FC               MOVW    R31:R30, R25:R24
   \   00000126   8115               LDD     R17, Z+5
   \   00000128   5011               SUBI    R17, 1
   \   0000012A   F081               BREQ    ??proc_ppp_packet_11
   \   0000012C   951A               DEC     R17
   \   0000012E   F409               BRNE    $+2+2
   \   00000130   C0BC               RJMP    ??proc_ppp_packet_12
   \   00000132   951A               DEC     R17
   \   00000134   F409               BRNE    $+2+2
   \   00000136   C171               RJMP    ??proc_ppp_packet_13
   \   00000138   951A               DEC     R17
   \   0000013A   F409               BRNE    $+2+2
   \   0000013C   C16E               RJMP    ??proc_ppp_packet_13
   \   0000013E   951A               DEC     R17
   \   00000140   F409               BRNE    $+2+2
   \   00000142   C175               RJMP    ??proc_ppp_packet_14
   \   00000144   951A               DEC     R17
   \   00000146   F409               BRNE    $+2+2
   \   00000148   C17A               RJMP    ??proc_ppp_packet_15
   \   0000014A   CF63               RJMP    ??proc_ppp_packet_1
   2763                            {
   2764                            case CONF_REQ :          
   2765                           // (если вообще не те опции то сброс кода дать) 
   2766                                //проверка предложенной конфигурации от сервера    
   2767                                //если нужная конфигурация то событие RCR+                  
   2768                                //если нет то RCR-;                       
   2769                              
   2770                       /*
   2771                             for(i=0;i<vol_length_opt;i++)              //соглашение на любую конфигурацию
   2772                                 {
   2773                                 buf_ack_opt_lcp[ln_ack_lcp]=buf_rx_ppp[ind_opt];
   2774                                 ln_ack_lcp++;
   2775                                 //count_length_opt++;
   2776                                 ind_opt++;
   2777                                 }
   2778                            
   2779                            LCP_event=RCR_PL;
   2780                            i_scan_lcp=buf_rx_ppp[6];    // присвоение идентификатора                   
   2781                            return(1); 
   2782                               */
   2783                          
   2784                              fl_opt.zap_opt=0;  
   \                     ??proc_ppp_packet_11:
   \   0000014C   94E8               CLT
   \   0000014E   F885               BLD     R8, 5
   \   00000150   C020               RJMP    ??proc_ppp_packet_16
   2785                          
   2786          next_opt_lcp_11:  if(count_length_opt==vol_length_opt) { 
   2787              
   2788                                                                       goto end_pcp_opt_11;
   2789                                                                       }   //обработаны все опции
   2790                  switch(buf_rx_ppp[ind_opt])
   2791                  {
   2792                     case AUT_PROT:
   2793          
   2794                          if ((buf_rx_ppp[ind_opt+2]!=0xc0)||(buf_rx_ppp[ind_opt+3]!=0x23))
   2795                          {
   2796                            fl_opt.zap_opt=1;
   2797                            
   2798                                                    
   2799                            buf_nak_opt_lcp[ln_nak_lcp]=3;
   2800                            ln_nak_lcp++;                                        
   2801                            buf_nak_opt_lcp[ln_nak_lcp]=4;
   2802                            ln_nak_lcp++;
   2803                            buf_nak_opt_lcp[ln_nak_lcp]=0xc0; 
   2804                            ln_nak_lcp++;                     
   2805                            buf_nak_opt_lcp[ln_nak_lcp]=0x23; 
   2806                            ln_nak_lcp++;        
   2807                           
   2808                            count_length_opt=count_length_opt+buf_rx_ppp[ind_opt+1];        
   2809                            ind_opt=ind_opt+buf_rx_ppp[ind_opt+1];      
   2810                          }
   2811                          else for(i=0;i<buf_rx_ppp[ind_opt+1];i++){buf_ack_opt_lcp[ln_ack_lcp]=buf_rx_ppp[ind_opt+i];ln_ack_lcp++;}
   \                     ??proc_ppp_packet_17:
   \   00000152   0119               MOVW    R3:R2, R19:R18
   \   00000154   0E24               ADD     R2, R20
   \   00000156   1E35               ADC     R3, R21
   \   00000158   01FC               MOVW    R31:R30, R25:R24
   \   0000015A   0DE2               ADD     R30, R2
   \   0000015C   1DF3               ADC     R31, R3
   \   0000015E   8170               LD      R23, Z
   \   00000160   01FD               MOVW    R31:R30, R27:R26
   \   00000162   AC21               LDD     R2, Z+57
   \   00000164   2433               CLR     R3
   \   00000166   01F1               MOVW    R31:R30, R3:R2
   \   00000168   ....               SUBI    R30, LOW((-(buf_ack_opt_lcp) & 0xFFFF))
   \   0000016A   ....               SBCI    R31, (-(buf_ack_opt_lcp) & 0xFFFF) >> 8
   \   0000016C   8370               ST      Z, R23
   \   0000016E   01FD               MOVW    R31:R30, R27:R26
   \   00000170   AD71               LDD     R23, Z+57
   \   00000172   9573               INC     R23
   \   00000174   AF71               STD     Z+57, R23
   \   00000176   5F2F               SUBI    R18, 255
   \   00000178   4F3F               SBCI    R19, 255
   \                     ??proc_ppp_packet_18:
   \   0000017A   01F8               MOVW    R31:R30, R17:R16
   \   0000017C   8021               LDD     R2, Z+1
   \   0000017E   1522               CP      R18, R2
   \   00000180   0735               CPC     R19, R21
   \   00000182   F338               BRCS    ??proc_ppp_packet_17
   2812                          
   2813                      count_length_opt=count_length_opt+buf_rx_ppp[ind_opt+1];        
   \                     ??proc_ppp_packet_19:
   \   00000184   01FC               MOVW    R31:R30, R25:R24
   \   00000186   0FE6               ADD     R30, R22
   \   00000188   1FF5               ADC     R31, R21
   \   0000018A   8101               LDD     R16, Z+1
   \   0000018C   0E00               ADD     R0, R16
   2814                      ind_opt=ind_opt+buf_rx_ppp[ind_opt+1];     
   \   0000018E   8101               LDD     R16, Z+1
   \   00000190   0F60               ADD     R22, R16
   2815                      goto next_opt_lcp_11;                                  
   \                     ??proc_ppp_packet_16:
   \   00000192   1406               CP      R0, R6
   \   00000194   F409               BRNE    $+2+2
   \   00000196   C07D               RJMP    ??proc_ppp_packet_20
   \   00000198   E070               LDI     R23, 0
   \   0000019A   018C               MOVW    R17:R16, R25:R24
   \   0000019C   0F06               ADD     R16, R22
   \   0000019E   1F17               ADC     R17, R23
   \   000001A0   2F46               MOV     R20, R22
   \   000001A2   E050               LDI     R21, 0
   \   000001A4   01F8               MOVW    R31:R30, R17:R16
   \   000001A6   8120               LD      R18, Z
   \   000001A8   5023               SUBI    R18, 3
   \   000001AA   F5D1               BRNE    ??proc_ppp_packet_21
   \   000001AC   8122               LDD     R18, Z+2
   \   000001AE   3C20               CPI     R18, 192
   \   000001B0   F419               BRNE    ??proc_ppp_packet_22
   \   000001B2   8123               LDD     R18, Z+3
   \   000001B4   3223               CPI     R18, 35
   \   000001B6   F189               BREQ    ??proc_ppp_packet_23
   \                     ??proc_ppp_packet_22:
   \   000001B8   9468               SET
   \   000001BA   F885               BLD     R8, 5
   \   000001BC   E023               LDI     R18, 3
   \   000001BE   01FD               MOVW    R31:R30, R27:R26
   \   000001C0   AD42               LDD     R20, Z+58
   \   000001C2   01FA               MOVW    R31:R30, R21:R20
   \   000001C4   ....               SUBI    R30, LOW((-(buf_ack_opt_lcp) & 0xFFFF))
   \   000001C6   ....               SBCI    R31, (-(buf_ack_opt_lcp) & 0xFFFF) >> 8
   \   000001C8   8F24               STD     Z+28, R18
   \   000001CA   01FD               MOVW    R31:R30, R27:R26
   \   000001CC   AD22               LDD     R18, Z+58
   \   000001CE   9523               INC     R18
   \   000001D0   AF22               STD     Z+58, R18
   \   000001D2   E024               LDI     R18, 4
   \   000001D4   AD42               LDD     R20, Z+58
   \   000001D6   01FA               MOVW    R31:R30, R21:R20
   \   000001D8   ....               SUBI    R30, LOW((-(buf_ack_opt_lcp) & 0xFFFF))
   \   000001DA   ....               SBCI    R31, (-(buf_ack_opt_lcp) & 0xFFFF) >> 8
   \   000001DC   8F24               STD     Z+28, R18
   \   000001DE   01FD               MOVW    R31:R30, R27:R26
   \   000001E0   AD22               LDD     R18, Z+58
   \   000001E2   9523               INC     R18
   \   000001E4   AF22               STD     Z+58, R18
   \   000001E6   EC20               LDI     R18, 192
   \   000001E8   AD42               LDD     R20, Z+58
   \   000001EA   01FA               MOVW    R31:R30, R21:R20
   \   000001EC   ....               SUBI    R30, LOW((-(buf_ack_opt_lcp) & 0xFFFF))
   \   000001EE   ....               SBCI    R31, (-(buf_ack_opt_lcp) & 0xFFFF) >> 8
   \   000001F0   8F24               STD     Z+28, R18
   \   000001F2   01FD               MOVW    R31:R30, R27:R26
   \   000001F4   AD22               LDD     R18, Z+58
   \   000001F6   9523               INC     R18
   \   000001F8   AF22               STD     Z+58, R18
   \   000001FA   E223               LDI     R18, 35
   \   000001FC   AD42               LDD     R20, Z+58
   \   000001FE   01FA               MOVW    R31:R30, R21:R20
   \   00000200   ....               SUBI    R30, LOW((-(buf_ack_opt_lcp) & 0xFFFF))
   \   00000202   ....               SBCI    R31, (-(buf_ack_opt_lcp) & 0xFFFF) >> 8
   \   00000204   8F24               STD     Z+28, R18
   \   00000206   01FD               MOVW    R31:R30, R27:R26
   \   00000208   AD22               LDD     R18, Z+58
   \   0000020A   9523               INC     R18
   \   0000020C   AF22               STD     Z+58, R18
   \   0000020E   01F8               MOVW    R31:R30, R17:R16
   \   00000210   8121               LDD     R18, Z+1
   \   00000212   0E02               ADD     R0, R18
   \   00000214   8101               LDD     R16, Z+1
   \   00000216   0F60               ADD     R22, R16
   \   00000218   CFB5               RJMP    ??proc_ppp_packet_19
   \                     ??proc_ppp_packet_23:
   \   0000021A   E020               LDI     R18, 0
   \   0000021C   E030               LDI     R19, 0
   \   0000021E   CFAD               RJMP    ??proc_ppp_packet_18
   2816                     
   2817                       default:             
   2818                       for(i=0;i<buf_rx_ppp[ind_opt+1];i++){buf_ack_opt_lcp[ln_ack_lcp]=buf_rx_ppp[ind_opt+i];ln_ack_lcp++;}
   \                     ??proc_ppp_packet_21:
   \   00000220   E020               LDI     R18, 0
   \   00000222   E030               LDI     R19, 0
   \   00000224   C014               RJMP    ??proc_ppp_packet_24
   \                     ??proc_ppp_packet_25:
   \   00000226   0119               MOVW    R3:R2, R19:R18
   \   00000228   0E24               ADD     R2, R20
   \   0000022A   1E35               ADC     R3, R21
   \   0000022C   01FC               MOVW    R31:R30, R25:R24
   \   0000022E   0DE2               ADD     R30, R2
   \   00000230   1DF3               ADC     R31, R3
   \   00000232   8170               LD      R23, Z
   \   00000234   01FD               MOVW    R31:R30, R27:R26
   \   00000236   AC21               LDD     R2, Z+57
   \   00000238   2433               CLR     R3
   \   0000023A   01F1               MOVW    R31:R30, R3:R2
   \   0000023C   ....               SUBI    R30, LOW((-(buf_ack_opt_lcp) & 0xFFFF))
   \   0000023E   ....               SBCI    R31, (-(buf_ack_opt_lcp) & 0xFFFF) >> 8
   \   00000240   8370               ST      Z, R23
   \   00000242   01FD               MOVW    R31:R30, R27:R26
   \   00000244   AD71               LDD     R23, Z+57
   \   00000246   9573               INC     R23
   \   00000248   AF71               STD     Z+57, R23
   \   0000024A   5F2F               SUBI    R18, 255
   \   0000024C   4F3F               SBCI    R19, 255
   \                     ??proc_ppp_packet_24:
   \   0000024E   01F8               MOVW    R31:R30, R17:R16
   \   00000250   8021               LDD     R2, Z+1
   \   00000252   1522               CP      R18, R2
   \   00000254   0735               CPC     R19, R21
   \   00000256   F338               BRCS    ??proc_ppp_packet_25
   2819                       for(i=0;i<buf_rx_ppp[ind_opt+1];i++){buf_nak_opt_lcp[ln_nak_lcp]=buf_rx_ppp[ind_opt+i];ln_nak_lcp++;}
   \   00000258   E020               LDI     R18, 0
   \   0000025A   E030               LDI     R19, 0
   \                     ??proc_ppp_packet_26:
   \   0000025C   01F8               MOVW    R31:R30, R17:R16
   \   0000025E   8021               LDD     R2, Z+1
   \   00000260   1522               CP      R18, R2
   \   00000262   0735               CPC     R19, R21
   \   00000264   F008               BRCS    $+2+2
   \   00000266   CF8E               RJMP    ??proc_ppp_packet_19
   \   00000268   0119               MOVW    R3:R2, R19:R18
   \   0000026A   0E24               ADD     R2, R20
   \   0000026C   1E35               ADC     R3, R21
   \   0000026E   01FC               MOVW    R31:R30, R25:R24
   \   00000270   0DE2               ADD     R30, R2
   \   00000272   1DF3               ADC     R31, R3
   \   00000274   8170               LD      R23, Z
   \   00000276   01FD               MOVW    R31:R30, R27:R26
   \   00000278   AC22               LDD     R2, Z+58
   \   0000027A   2433               CLR     R3
   \   0000027C   01F1               MOVW    R31:R30, R3:R2
   \   0000027E   ....               SUBI    R30, LOW((-(buf_ack_opt_lcp) & 0xFFFF))
   \   00000280   ....               SBCI    R31, (-(buf_ack_opt_lcp) & 0xFFFF) >> 8
   \   00000282   8F74               STD     Z+28, R23
   \   00000284   01FD               MOVW    R31:R30, R27:R26
   \   00000286   AD72               LDD     R23, Z+58
   \   00000288   9573               INC     R23
   \   0000028A   AF72               STD     Z+58, R23
   \   0000028C   5F2F               SUBI    R18, 255
   \   0000028E   4F3F               SBCI    R19, 255
   \   00000290   CFE5               RJMP    ??proc_ppp_packet_26
   2820                       count_length_opt=count_length_opt+buf_rx_ppp[ind_opt+1];        
   2821                       ind_opt=ind_opt+buf_rx_ppp[ind_opt+1];   
   2822                       goto next_opt_lcp_11; 
   2823                  }
   2824                                   
   2825             end_pcp_opt_11:                     
   2826                          
   2827                            if(fl_opt.zap_opt==0)LCP_event=RCR_PL;else LCP_event=RCR_MI;
   \                     ??proc_ppp_packet_20:
   \   00000292   FA85               BST     R8, 5
   \   00000294   F016               BRTS    ??proc_ppp_packet_27
   \   00000296   E006               LDI     R16, 6
   \   00000298   C001               RJMP    ??proc_ppp_packet_28
   \                     ??proc_ppp_packet_27:
   \   0000029A   E007               LDI     R16, 7
   \                     ??proc_ppp_packet_28:
   \   0000029C   01FD               MOVW    R31:R30, R27:R26
   \   0000029E   8B03               STD     Z+19, R16
   2828                            fl_opt.zap_opt=0;
   2829                            i_scan_lcp=buf_rx_ppp[6];    // присвоение идентификатора                   
   \   000002A0   01FC               MOVW    R31:R30, R25:R24
   \   000002A2   8106               LDD     R16, Z+6
   \   000002A4   01FD               MOVW    R31:R30, R27:R26
   \   000002A6   A706               STD     Z+46, R16
   \   000002A8   CEB4               RJMP    ??proc_ppp_packet_1
   2830                            return(1); 
   2831                               
   2832                             
   2833                            
   2834                 next_opt_lcp_1:  if(count_length_opt==vol_length_opt) { 
   2835              
   2836                                                                       goto end_pcp_opt_1;
   2837                                                                       }   //обработаны все опции
   2838                                 
   2839                                 switch(buf_rx_ppp[ind_opt])
   2840                                    {
   2841                                      case MRU: 
   2842             
   2843                                           if (buf_rx_ppp[ind_opt+1]!=4)
   2844                                                {                                        
   2845                                                  for(i=5;i<=count_rx_ppp-4;i++){buf_rejc_opt_lcp[ln_rejc_lcp]=buf_rx_ppp[i];ln_rejc_lcp++;}
   2846                                                  LCP_event=RUC;
   2847                                                  return(1);
   2848                                                  } 
   2849                                           if ((buf_rx_ppp[ind_opt+2]==DL_PPP_IN_HI)&&(buf_rx_ppp[ind_opt+3]==DL_PPP_IN_LO)) 
   2850                                                 {    
   2851                                                  fl_opt.mru=1;
   2852                                                  buf_ack_opt_lcp[ln_ack_lcp]=buf_rx_ppp[ind_opt];
   2853                                                  ln_ack_lcp++;
   2854                                                  
   2855                                                  buf_ack_opt_lcp[ln_ack_lcp]=buf_rx_ppp[ind_opt+1];
   2856                                                  ln_ack_lcp++;
   2857                                                  
   2858                                                  buf_ack_opt_lcp[ln_ack_lcp]=buf_rx_ppp[ind_opt+2]; 
   2859                                                  ln_ack_lcp++;  
   2860                                                  
   2861                                                  buf_ack_opt_lcp[ln_ack_lcp]=buf_rx_ppp[ind_opt+3]; 
   2862                                                  ln_ack_lcp++; 
   2863                                                 }
   2864                                               else   
   2865                                                  {
   2866                                                  buf_nak_opt_lcp[ln_nak_lcp]=buf_rx_ppp[ind_opt];
   2867                                                  ln_nak_lcp++;
   2868                                                  
   2869                                                  buf_nak_opt_lcp[ln_nak_lcp]=buf_rx_ppp[ind_opt+1];
   2870                                                  ln_nak_lcp++;
   2871                                                  
   2872                                                  buf_nak_opt_lcp[ln_nak_lcp]=buf_rx_ppp[ind_opt+2]; 
   2873                                                  ln_nak_lcp++;  
   2874                                                  
   2875                                                  buf_nak_opt_lcp[ln_nak_lcp]=buf_rx_ppp[ind_opt+3]; 
   2876                                                  ln_nak_lcp++; 
   2877                                                  }  
   2878                                           count_length_opt=count_length_opt+buf_rx_ppp[ind_opt+1];        
   2879                                           ind_opt=ind_opt+buf_rx_ppp[ind_opt+1];
   2880                                           goto next_opt_lcp_1;   
   2881                                           
   2882                                      case ACCM:       
   2883                                            if (buf_rx_ppp[ind_opt+1]!=6)
   2884                                                {
   2885                                                  for(i=5;i<=count_rx_ppp-4;i++){buf_rejc_opt_lcp[ln_rejc_lcp]=buf_rx_ppp[i];ln_rejc_lcp++;}
   2886                                                  LCP_event=RUC;
   2887                                                  return(1);
   2888                                                  } 
   2889                                              
   2890                                              if ( 
   2891                                                     (buf_rx_ppp[ind_opt+2]==0)&&
   2892                                                     (buf_rx_ppp[ind_opt+3]==0)&& 
   2893                                                     (buf_rx_ppp[ind_opt+4]==0)&&
   2894                                                     (buf_rx_ppp[ind_opt+5]==0) 
   2895                                                  ) 
   2896                                                 
   2897                                                 {   
   2898                                                 
   2899                                                  fl_opt.accm=1;
   2900                                                  buf_ack_opt_lcp[ln_ack_lcp]=buf_rx_ppp[ind_opt];
   2901                                                  ln_ack_lcp++;
   2902                                                  
   2903                                                  buf_ack_opt_lcp[ln_ack_lcp]=buf_rx_ppp[ind_opt+1];
   2904                                                  ln_ack_lcp++;
   2905                                                  
   2906                                                  buf_ack_opt_lcp[ln_ack_lcp]=buf_rx_ppp[ind_opt+2]; 
   2907                                                  ln_ack_lcp++;  
   2908                                                  
   2909                                                  buf_ack_opt_lcp[ln_ack_lcp]=buf_rx_ppp[ind_opt+3]; 
   2910                                                  ln_ack_lcp++; 
   2911                                                  
   2912                                                  buf_ack_opt_lcp[ln_ack_lcp]=buf_rx_ppp[ind_opt+4]; 
   2913                                                  ln_ack_lcp++;
   2914                                                  
   2915                                                  buf_ack_opt_lcp[ln_ack_lcp]=buf_rx_ppp[ind_opt+5]; 
   2916                                                  ln_ack_lcp++;
   2917                                                 }
   2918                                               else   
   2919                                                  {
   2920                                                  buf_nak_opt_lcp[ln_nak_lcp]=buf_rx_ppp[ind_opt];
   2921                                                  ln_nak_lcp++;
   2922                                                  
   2923                                                  buf_nak_opt_lcp[ln_nak_lcp]=buf_rx_ppp[ind_opt+1];
   2924                                                  ln_nak_lcp++;
   2925                                                  
   2926                                                  buf_nak_opt_lcp[ln_nak_lcp]=buf_rx_ppp[ind_opt+2]; 
   2927                                                  ln_nak_lcp++;  
   2928                                                  
   2929                                                  buf_nak_opt_lcp[ln_nak_lcp]=buf_rx_ppp[ind_opt+3]; 
   2930                                                  ln_nak_lcp++;    
   2931                                                  
   2932                                                  buf_nak_opt_lcp[ln_nak_lcp]=buf_rx_ppp[ind_opt+4]; 
   2933                                                  ln_nak_lcp++;  
   2934                                                  
   2935                                                  buf_nak_opt_lcp[ln_nak_lcp]=buf_rx_ppp[ind_opt+5]; 
   2936                                                  ln_nak_lcp++; 
   2937                                                  }  
   2938                                           count_length_opt=count_length_opt+buf_rx_ppp[ind_opt+1];        
   2939                                           ind_opt=ind_opt+buf_rx_ppp[ind_opt+1];
   2940                                           goto next_opt_lcp_1;                                       
   2941          
   2942                                               
   2943                                      
   2944                                      case AUT_PROT:
   2945                                                if (((buf_rx_ppp[ind_opt+1]-2)%2)!=0) 
   2946                                                    {
   2947                                                     for(i=5;i<=count_rx_ppp-4;i++){buf_rejc_opt_lcp[ln_rejc_lcp]=buf_rx_ppp[i];ln_rejc_lcp++;}
   2948                                                     LCP_event=RUC;
   2949                                                     return(1);
   2950                                                    }  
   2951                                                for(i=0;i<(buf_rx_ppp[ind_opt+1]-2);i=i+2)               
   2952                                                   {
   2953                                                   if ((buf_rx_ppp[ind_opt+2+i]==0xc0)&&(buf_rx_ppp[ind_opt+3+i]==0x23)) 
   2954                                                        {
   2955                                                         
   2956                                                         fl_opt.aut_prot=1;
   2957                                                         
   2958                                                         buf_ack_opt_lcp[ln_ack_lcp]=buf_rx_ppp[ind_opt];
   2959                                                         ln_ack_lcp++;
   2960                                             
   2961                                                         buf_ack_opt_lcp[ln_ack_lcp]=buf_rx_ppp[ind_opt+1];
   2962                                                         ln_ack_lcp++;
   2963                                                  
   2964                                                         buf_ack_opt_lcp[ln_ack_lcp]=buf_rx_ppp[ind_opt+2+i]; 
   2965                                                         ln_ack_lcp++;  
   2966                                                  
   2967                                                         buf_ack_opt_lcp[ln_ack_lcp]=buf_rx_ppp[ind_opt+3+i]; 
   2968                                                         ln_ack_lcp++; 
   2969                                                        }
   2970                                                      else   
   2971                                                       {
   2972                                                       
   2973                                                       if (fl_opt.zap_opt==0)
   2974                                                           {
   2975                                                            fl_opt.zap_opt=1;                                            
   2976                                                            buf_nak_opt_lcp[ln_nak_lcp]=buf_rx_ppp[ind_opt];
   2977                                                            ln_nak_lcp++;                                        
   2978                                                            buf_nak_opt_lcp[ln_nak_lcp]=buf_rx_ppp[ind_opt+1];
   2979                                                            ln_nak_lcp++;
   2980                                                            }
   2981                                                       buf_nak_opt_lcp[ln_nak_lcp]=buf_rx_ppp[ind_opt+2+i]; 
   2982                                                       ln_nak_lcp++;                     
   2983                                                        buf_nak_opt_lcp[ln_nak_lcp]=buf_rx_ppp[ind_opt+3+i]; 
   2984                                                       ln_nak_lcp++;                                             
   2985                                                      }              
   2986                                                      
   2987                                                     }  
   2988                                           count_length_opt=count_length_opt+buf_rx_ppp[ind_opt+1];        
   2989                                           ind_opt=ind_opt+buf_rx_ppp[ind_opt+1];          
   2990                                           goto next_opt_lcp_1;                   
   2991                                            
   2992                                      case PFC:
   2993                                            if (buf_rx_ppp[ind_opt+1]!=2)
   2994                                                {                                        
   2995                                                  for(i=5;i<=count_rx_ppp-4;i++){buf_rejc_opt_lcp[ln_rejc_lcp]=buf_rx_ppp[i];ln_rejc_lcp++;}
   2996                                                  LCP_event=RUC;
   2997                                                  return(1);
   2998                                                  } 
   2999          
   3000          
   3001                                                  fl_opt.pfc=1;
   3002                                                  buf_ack_opt_lcp[ln_ack_lcp]=buf_rx_ppp[ind_opt];
   3003                                                  ln_ack_lcp++;
   3004                                                  
   3005                                                  buf_ack_opt_lcp[ln_ack_lcp]=buf_rx_ppp[ind_opt+1];
   3006                                                  ln_ack_lcp++;                                        
   3007                                                  
   3008                                                  count_length_opt=count_length_opt+buf_rx_ppp[ind_opt+1];        
   3009                                                  ind_opt=ind_opt+buf_rx_ppp[ind_opt+1];          
   3010                                                  goto next_opt_lcp_1;   
   3011                                                   
   3012                                            
   3013                                      case ACFC:      
   3014                                             if (buf_rx_ppp[ind_opt+1]!=2)
   3015                                                {                                        
   3016                                                  for(i=5;i<=count_rx_ppp-4;i++){buf_rejc_opt_lcp[ln_rejc_lcp]=buf_rx_ppp[i];ln_rejc_lcp++;}
   3017                                                  LCP_event=RUC;
   3018                                                  return(1);
   3019                                                  } 
   3020                                                  
   3021                                                  
   3022                                                  fl_opt.acfc=1;
   3023                                                  buf_ack_opt_lcp[ln_ack_lcp]=buf_rx_ppp[ind_opt];
   3024                                                  ln_ack_lcp++;
   3025                                                  
   3026                                                  buf_ack_opt_lcp[ln_ack_lcp]=buf_rx_ppp[ind_opt+1];
   3027                                                  ln_ack_lcp++;                                        
   3028                                                  
   3029                                                  count_length_opt=count_length_opt+buf_rx_ppp[ind_opt+1];        
   3030                                                  ind_opt=ind_opt+buf_rx_ppp[ind_opt+1];          
   3031                                                  goto next_opt_lcp_1;   
   3032                                      
   3033                                      default:
   3034          
   3035                                                  for(i=0;i<buf_rx_ppp[ind_opt+1];i++){buf_rej_opt_lcp[ln_rej_lcp]=buf_rx_ppp[ind_opt+i];ln_rej_lcp++;}
   3036                                                  count_length_opt=count_length_opt+buf_rx_ppp[ind_opt+1];        
   3037                                                  ind_opt=ind_opt+buf_rx_ppp[ind_opt+1];      
   3038                                            goto next_opt_lcp_1;        
   3039                                    }
   3040                                                      
   3041           end_pcp_opt_1:        
   3042                                 
   3043                             
   3044                                                                                          
   3045                                 
   3046                                 if (ln_rej_lcp!=0)                    
   3047                                   {
   3048               
   3049                                   LCP_event=RCR_MI;
   3050                                   fl_lcp2.nac_rej=1;
   3051                                   return(1); 
   3052                                   }
   3053                                 
   3054                                 
   3055                                  /*
   3056                              
   3057                                if(fl_opt.mru==0) 
   3058                                     {   
   3059                     
   3060                                      buf_nak_opt_lcp[ln_nak_lcp]=MRU;
   3061                                      ln_nak_lcp++;
   3062                                                  
   3063                                      buf_nak_opt_lcp[ln_nak_lcp]=4;
   3064                                      ln_nak_lcp++;
   3065                                                  
   3066                                      buf_nak_opt_lcp[ln_nak_lcp]=DL_PPP_IN_HI; 
   3067                                      ln_nak_lcp++;  
   3068                                      
   3069                                      buf_nak_opt_lcp[ln_nak_lcp]=DL_PPP_IN_LO; 
   3070                                      ln_nak_lcp++;                                                    
   3071                                     }
   3072                                     
   3073                                     */
   3074                                     
   3075                                if(fl_opt.accm==0) 
   3076                                      {  
   3077                                      buf_nak_opt_lcp[ln_nak_lcp]=ACCM;
   3078                                      ln_nak_lcp++;                                        
   3079                                      buf_nak_opt_lcp[ln_nak_lcp]=6;
   3080                                      ln_nak_lcp++;
   3081                                      buf_nak_opt_lcp[ln_nak_lcp]=0; 
   3082                                      ln_nak_lcp++;  
   3083                                      buf_nak_opt_lcp[ln_nak_lcp]=0; 
   3084                                      ln_nak_lcp++;             
   3085                                      buf_nak_opt_lcp[ln_nak_lcp]=0; 
   3086                                      ln_nak_lcp++;                              
   3087                                      buf_nak_opt_lcp[ln_nak_lcp]=0; 
   3088                                      ln_nak_lcp++; 
   3089                                      }
   3090                                               
   3091                                if(fl_opt.aut_prot==0) 
   3092                                      {    
   3093                                        
   3094                                
   3095                                   
   3096                                       
   3097                                      buf_nak_opt_lcp[ln_nak_lcp]=AUT_PROT;
   3098                                      ln_nak_lcp++;
   3099                                                  
   3100                                      buf_nak_opt_lcp[ln_nak_lcp]=4;
   3101                                      ln_nak_lcp++;
   3102                                                  
   3103                                      buf_nak_opt_lcp[ln_nak_lcp]=0xc0; 
   3104                                      ln_nak_lcp++;  
   3105                                      
   3106                                      buf_nak_opt_lcp[ln_nak_lcp]=0x23; 
   3107                                      ln_nak_lcp++;                    
   3108                                      }   
   3109                                if(fl_opt.pfc==0) 
   3110                                      { 
   3111                                      buf_nak_opt_lcp[ln_nak_lcp]=PFC;
   3112                                      ln_nak_lcp++;
   3113                                                  
   3114                                      buf_nak_opt_lcp[ln_nak_lcp]=2;
   3115                                      ln_nak_lcp++; 
   3116                                      }                  
   3117                               if(fl_opt.acfc==0) 
   3118                                      { 
   3119                                       buf_nak_opt_lcp[ln_nak_lcp]=ACFC;
   3120                                      ln_nak_lcp++;
   3121                                                  
   3122                                      buf_nak_opt_lcp[ln_nak_lcp]=2;
   3123                                      ln_nak_lcp++; 
   3124                                      }                   
   3125                                   
   3126                          
   3127                           
   3128                                                   
   3129                                   if (ln_nak_lcp!=0)                    
   3130                                   { 
   3131                 
   3132                                   LCP_event=RCR_MI;
   3133                                   fl_lcp2.nac_rej=0;  
   3134                                   i_scan_lcp=buf_rx_ppp[6];     // присвоение идентификатора                 
   3135                                   return(1); 
   3136                                   } 
   3137                                 
   3138                                   if (ln_ack_lcp!=0)                    
   3139                                   {
   3140                                   
   3141                                   
   3142                                   LCP_event=RCR_PL;
   3143                                   i_scan_lcp=buf_rx_ppp[6];    // присвоение идентификатора                   
   3144                                   return(1); 
   3145                                   }  
   3146                                
   3147                                
   3148                                  
   3149                                break;    
   3150                                 
   3151                            case CONF_ACK : 
   3152                                //проверка опций (если вообще не те опции то сброс кода дать)
   3153                                //опции та, то событие RCA
   3154                              
   3155                                                    
   3156                              
   3157                              if(buf_rx_ppp[6]!=i_scr_lcp)return(1);                        //проверка идентификатора
   \                     ??proc_ppp_packet_12:
   \   000002AA   8116               LDD     R17, Z+6
   \   000002AC   1710               CP      R17, R16
   \   000002AE   F099               BREQ    ??proc_ppp_packet_29
   \   000002B0   CEB0               RJMP    ??proc_ppp_packet_1
   3158                                
   3159             next_opt_lcp_2:  if(count_length_opt==vol_length_opt) goto end_pcp_opt_2;   //обработаны все опции
   3160                                 
   3161                                 switch(buf_rx_ppp[ind_opt])
   3162                                    {
   3163                                      case ACCM:       
   3164                                            if (buf_rx_ppp[ind_opt+1]!=6)
   3165                                                {
   3166                                                  for(i=5;i<=count_rx_ppp-4;i++){buf_rejc_opt_lcp[ln_rejc_lcp]=buf_rx_ppp[i];ln_rejc_lcp++;}
   3167                                                  LCP_event=RUC;
   3168                                                  return(1);
   3169                                                  } 
   3170                                              
   3171                                              if ( 
   3172                                                     (buf_rx_ppp[ind_opt+2]==0)&&
   3173                                                     (buf_rx_ppp[ind_opt+3]==0x0a)&& 
   3174                                                     (buf_rx_ppp[ind_opt+4]==0)&&
   3175                                                     (buf_rx_ppp[ind_opt+5]==0) 
   3176                                                  )  fl_opt.accm=1;                                        
   \                     ??proc_ppp_packet_30:
   \   000002B2   8102               LDD     R16, Z+2
   \   000002B4   2300               TST     R16
   \   000002B6   F459               BRNE    ??proc_ppp_packet_31
   \   000002B8   8103               LDD     R16, Z+3
   \   000002BA   300A               CPI     R16, 10
   \   000002BC   F441               BRNE    ??proc_ppp_packet_31
   \   000002BE   8104               LDD     R16, Z+4
   \   000002C0   2300               TST     R16
   \   000002C2   F429               BRNE    ??proc_ppp_packet_31
   \   000002C4   8105               LDD     R16, Z+5
   \   000002C6   2300               TST     R16
   \   000002C8   F411               BRNE    ??proc_ppp_packet_31
   \   000002CA   9468               SET
   \   000002CC   F881               BLD     R8, 1
   3177                                               
   3178                                                 
   3179                                               
   3180                                                
   3181                                           count_length_opt=count_length_opt+buf_rx_ppp[ind_opt+1];        
   \                     ??proc_ppp_packet_31:
   \   000002CE   8101               LDD     R16, Z+1
   \   000002D0   0E00               ADD     R0, R16
   3182                                           ind_opt=ind_opt+buf_rx_ppp[ind_opt+1];
   \   000002D2   8101               LDD     R16, Z+1
   \   000002D4   0F60               ADD     R22, R16
   3183                                           goto next_opt_lcp_2;     
   \                     ??proc_ppp_packet_29:
   \   000002D6   1406               CP      R0, R6
   \   000002D8   F409               BRNE    $+2+2
   \   000002DA   C07C               RJMP    ??proc_ppp_packet_32
   \   000002DC   E070               LDI     R23, 0
   \   000002DE   01FC               MOVW    R31:R30, R25:R24
   \   000002E0   0FE6               ADD     R30, R22
   \   000002E2   1FF7               ADC     R31, R23
   \   000002E4   8100               LD      R16, Z
   \   000002E6   5002               SUBI    R16, 2
   \   000002E8   F029               BREQ    ??proc_ppp_packet_33
   \   000002EA   5005               SUBI    R16, 5
   \   000002EC   F109               BREQ    ??proc_ppp_packet_34
   \   000002EE   950A               DEC     R16
   \   000002F0   F1E1               BREQ    ??proc_ppp_packet_35
   \   000002F2   C058               RJMP    ??proc_ppp_packet_36
   \                     ??proc_ppp_packet_33:
   \   000002F4   8101               LDD     R16, Z+1
   \   000002F6   3006               CPI     R16, 6
   \   000002F8   F2E1               BREQ    ??proc_ppp_packet_30
   \   000002FA   E025               LDI     R18, 5
   \   000002FC   E030               LDI     R19, 0
   \   000002FE   C011               RJMP    ??proc_ppp_packet_37
   \                     ??proc_ppp_packet_38:
   \   00000300   01FC               MOVW    R31:R30, R25:R24
   \   00000302   0FE2               ADD     R30, R18
   \   00000304   1FF3               ADC     R31, R19
   \   00000306   8160               LD      R22, Z
   \   00000308   01FD               MOVW    R31:R30, R27:R26
   \   0000030A   A907               LDD     R16, Z+55
   \   0000030C   E010               LDI     R17, 0
   \   0000030E   01F8               MOVW    R31:R30, R17:R16
   \   00000310   ....               SUBI    R30, LOW((-(buf_rejc_opt_lcp) & 0xFFFF))
   \   00000312   ....               SBCI    R31, (-(buf_rejc_opt_lcp) & 0xFFFF) >> 8
   \   00000314   8360               ST      Z, R22
   \   00000316   01FD               MOVW    R31:R30, R27:R26
   \   00000318   A907               LDD     R16, Z+55
   \   0000031A   9503               INC     R16
   \   0000031C   AB07               STD     Z+55, R16
   \   0000031E   5F2F               SUBI    R18, 255
   \   00000320   4F3F               SBCI    R19, 255
   \                     ??proc_ppp_packet_37:
   \   00000322   1742               CP      R20, R18
   \   00000324   0753               CPC     R21, R19
   \   00000326   F760               BRCC    ??proc_ppp_packet_38
   \                     ??proc_ppp_packet_39:
   \   00000328   E00C               LDI     R16, 12
   \   0000032A   01FD               MOVW    R31:R30, R27:R26
   \   0000032C   8B03               STD     Z+19, R16
   \   0000032E   CE71               RJMP    ??proc_ppp_packet_1
   3184                                        
   3185                                        case PFC:
   3186                                            if (buf_rx_ppp[ind_opt+1]!=2)
   \                     ??proc_ppp_packet_34:
   \   00000330   8101               LDD     R16, Z+1
   \   00000332   3002               CPI     R16, 2
   \   00000334   F0B9               BREQ    ??proc_ppp_packet_40
   3187                                                {                                        
   3188                                                  for(i=5;i<=count_rx_ppp-4;i++){buf_rejc_opt_lcp[ln_rejc_lcp]=buf_rx_ppp[i];ln_rejc_lcp++;}
   \   00000336   E025               LDI     R18, 5
   \   00000338   E030               LDI     R19, 0
   \                     ??proc_ppp_packet_41:
   \   0000033A   1742               CP      R20, R18
   \   0000033C   0753               CPC     R21, R19
   \   0000033E   F3A0               BRCS    ??proc_ppp_packet_39
   \   00000340   01FC               MOVW    R31:R30, R25:R24
   \   00000342   0FE2               ADD     R30, R18
   \   00000344   1FF3               ADC     R31, R19
   \   00000346   8160               LD      R22, Z
   \   00000348   01FD               MOVW    R31:R30, R27:R26
   \   0000034A   A907               LDD     R16, Z+55
   \   0000034C   E010               LDI     R17, 0
   \   0000034E   01F8               MOVW    R31:R30, R17:R16
   \   00000350   ....               SUBI    R30, LOW((-(buf_rejc_opt_lcp) & 0xFFFF))
   \   00000352   ....               SBCI    R31, (-(buf_rejc_opt_lcp) & 0xFFFF) >> 8
   \   00000354   8360               ST      Z, R22
   \   00000356   01FD               MOVW    R31:R30, R27:R26
   \   00000358   A907               LDD     R16, Z+55
   \   0000035A   9503               INC     R16
   \   0000035C   AB07               STD     Z+55, R16
   \   0000035E   5F2F               SUBI    R18, 255
   \   00000360   4F3F               SBCI    R19, 255
   \   00000362   CFEB               RJMP    ??proc_ppp_packet_41
   3189                                                  LCP_event=RUC;
   3190                                                  return(1);
   3191                                                  } 
   3192          
   3193                                                  fl_opt.pfc=1;
   \                     ??proc_ppp_packet_40:
   \   00000364   9468               SET
   \   00000366   F883               BLD     R8, 3
   \   00000368   CFB2               RJMP    ??proc_ppp_packet_31
   3194                                                  count_length_opt=count_length_opt+buf_rx_ppp[ind_opt+1];        
   3195                                                  ind_opt=ind_opt+buf_rx_ppp[ind_opt+1];          
   3196                                                  goto next_opt_lcp_2;   
   3197                                                   
   3198                                            
   3199                                      case ACFC:      
   3200                                             if (buf_rx_ppp[ind_opt+1]!=2)
   \                     ??proc_ppp_packet_35:
   \   0000036A   8101               LDD     R16, Z+1
   \   0000036C   3002               CPI     R16, 2
   \   0000036E   F0B9               BREQ    ??proc_ppp_packet_42
   3201                                                {                                        
   3202                                                  for(i=5;i<=count_rx_ppp-4;i++){buf_rejc_opt_lcp[ln_rejc_lcp]=buf_rx_ppp[i];ln_rejc_lcp++;}
   \   00000370   E025               LDI     R18, 5
   \   00000372   E030               LDI     R19, 0
   \                     ??proc_ppp_packet_43:
   \   00000374   1742               CP      R20, R18
   \   00000376   0753               CPC     R21, R19
   \   00000378   F2B8               BRCS    ??proc_ppp_packet_39
   \   0000037A   01FC               MOVW    R31:R30, R25:R24
   \   0000037C   0FE2               ADD     R30, R18
   \   0000037E   1FF3               ADC     R31, R19
   \   00000380   8160               LD      R22, Z
   \   00000382   01FD               MOVW    R31:R30, R27:R26
   \   00000384   A907               LDD     R16, Z+55
   \   00000386   E010               LDI     R17, 0
   \   00000388   01F8               MOVW    R31:R30, R17:R16
   \   0000038A   ....               SUBI    R30, LOW((-(buf_rejc_opt_lcp) & 0xFFFF))
   \   0000038C   ....               SBCI    R31, (-(buf_rejc_opt_lcp) & 0xFFFF) >> 8
   \   0000038E   8360               ST      Z, R22
   \   00000390   01FD               MOVW    R31:R30, R27:R26
   \   00000392   A907               LDD     R16, Z+55
   \   00000394   9503               INC     R16
   \   00000396   AB07               STD     Z+55, R16
   \   00000398   5F2F               SUBI    R18, 255
   \   0000039A   4F3F               SBCI    R19, 255
   \   0000039C   CFEB               RJMP    ??proc_ppp_packet_43
   3203                                                  LCP_event=RUC;
   3204                                                  return(1);
   3205                                                  } 
   3206          
   3207                                                  fl_opt.acfc=1;
   \                     ??proc_ppp_packet_42:
   \   0000039E   9468               SET
   \   000003A0   F884               BLD     R8, 4
   \   000003A2   CF95               RJMP    ??proc_ppp_packet_31
   3208                                                                                      
   3209                                                  
   3210                                                  count_length_opt=count_length_opt+buf_rx_ppp[ind_opt+1];        
   3211                                                  ind_opt=ind_opt+buf_rx_ppp[ind_opt+1];          
   3212                                                  goto next_opt_lcp_2;      
   3213                                      
   3214                                      default:    for(i=5;i<=count_rx_ppp-4;i++){buf_rejc_opt_lcp[ln_rejc_lcp]=buf_rx_ppp[i];ln_rejc_lcp++;}
   \                     ??proc_ppp_packet_36:
   \   000003A4   E025               LDI     R18, 5
   \   000003A6   E030               LDI     R19, 0
   \                     ??proc_ppp_packet_44:
   \   000003A8   1742               CP      R20, R18
   \   000003AA   0753               CPC     R21, R19
   \   000003AC   F408               BRCC    $+2+2
   \   000003AE   CFBC               RJMP    ??proc_ppp_packet_39
   \   000003B0   01FC               MOVW    R31:R30, R25:R24
   \   000003B2   0FE2               ADD     R30, R18
   \   000003B4   1FF3               ADC     R31, R19
   \   000003B6   8160               LD      R22, Z
   \   000003B8   01FD               MOVW    R31:R30, R27:R26
   \   000003BA   A907               LDD     R16, Z+55
   \   000003BC   E010               LDI     R17, 0
   \   000003BE   01F8               MOVW    R31:R30, R17:R16
   \   000003C0   ....               SUBI    R30, LOW((-(buf_rejc_opt_lcp) & 0xFFFF))
   \   000003C2   ....               SBCI    R31, (-(buf_rejc_opt_lcp) & 0xFFFF) >> 8
   \   000003C4   8360               ST      Z, R22
   \   000003C6   01FD               MOVW    R31:R30, R27:R26
   \   000003C8   A907               LDD     R16, Z+55
   \   000003CA   9503               INC     R16
   \   000003CC   AB07               STD     Z+55, R16
   \   000003CE   5F2F               SUBI    R18, 255
   \   000003D0   4F3F               SBCI    R19, 255
   \   000003D2   CFEA               RJMP    ??proc_ppp_packet_44
   3215                                                  LCP_event=RUC;
   3216                                                  return(1);    
   3217                                            
   3218                                    }
   3219                                
   3220                                
   3221            end_pcp_opt_2:      if((fl_opt.accm==1)&&(fl_opt.acfc==1)&&(fl_opt.pfc==1))
   \                     ??proc_ppp_packet_32:
   \   000003D4   E10A               LDI     R16, 26
   \   000003D6   2280               AND     R8, R16
   \   000003D8   1680               CP      R8, R16
   \   000003DA   F439               BRNE    ??proc_ppp_packet_45
   3222                                  {       
   3223                                            
   3224                                   LCP_event=RCA;
   \   000003DC   E008               LDI     R16, 8
   \   000003DE   01FD               MOVW    R31:R30, R27:R26
   \   000003E0   8B03               STD     Z+19, R16
   3225                                   i_scr_lcp++;//приращение идентификатора                      
   \   000003E2   A505               LDD     R16, Z+45
   \   000003E4   9503               INC     R16
   \   000003E6   A705               STD     Z+45, R16
   \   000003E8   CE14               RJMP    ??proc_ppp_packet_1
   3226                                   return(1);      
   3227                                  } 
   3228                                  else
   3229                                  {
   3230                                  for(i=5;i<=count_rx_ppp-4;i++){buf_rejc_opt_lcp[ln_rejc_lcp]=buf_rx_ppp[i];ln_rejc_lcp++;}
   \                     ??proc_ppp_packet_45:
   \   000003EA   E025               LDI     R18, 5
   \   000003EC   E030               LDI     R19, 0
   \                     ??proc_ppp_packet_46:
   \   000003EE   1742               CP      R20, R18
   \   000003F0   0753               CPC     R21, R19
   \   000003F2   F408               BRCC    $+2+2
   \   000003F4   CF99               RJMP    ??proc_ppp_packet_39
   \   000003F6   01FC               MOVW    R31:R30, R25:R24
   \   000003F8   0FE2               ADD     R30, R18
   \   000003FA   1FF3               ADC     R31, R19
   \   000003FC   8160               LD      R22, Z
   \   000003FE   01FD               MOVW    R31:R30, R27:R26
   \   00000400   A907               LDD     R16, Z+55
   \   00000402   E010               LDI     R17, 0
   \   00000404   01F8               MOVW    R31:R30, R17:R16
   \   00000406   ....               SUBI    R30, LOW((-(buf_rejc_opt_lcp) & 0xFFFF))
   \   00000408   ....               SBCI    R31, (-(buf_rejc_opt_lcp) & 0xFFFF) >> 8
   \   0000040A   8360               ST      Z, R22
   \   0000040C   01FD               MOVW    R31:R30, R27:R26
   \   0000040E   A907               LDD     R16, Z+55
   \   00000410   9503               INC     R16
   \   00000412   AB07               STD     Z+55, R16
   \   00000414   5F2F               SUBI    R18, 255
   \   00000416   4F3F               SBCI    R19, 255
   \   00000418   CFEA               RJMP    ??proc_ppp_packet_46
   3231                                  LCP_event=RUC;
   3232                                  return(1);               
   3233                                  }
   3234                                          
   3235                                 
   3236                            case CONF_NAK :                     
   3237                                  // то RCN но все равно запрос тех же опций  
   3238                                if(buf_rx_ppp[6]!=i_scr_lcp)return(1);                        //проверка идентификатора
   \                     ??proc_ppp_packet_13:
   \   0000041A   8116               LDD     R17, Z+6
   \   0000041C   1710               CP      R17, R16
   \   0000041E   F009               BREQ    $+2+2
   \   00000420   CDF8               RJMP    ??proc_ppp_packet_1
   3239                                i_scr_lcp++;//приращение идентификатора
   \   00000422   01FD               MOVW    R31:R30, R27:R26
   \   00000424   A505               LDD     R16, Z+45
   \   00000426   9503               INC     R16
   \   00000428   A705               STD     Z+45, R16
   3240                                LCP_event=RCN; 
   \   0000042A   8B63               STD     Z+19, R22
   \   0000042C   CDF2               RJMP    ??proc_ppp_packet_1
   3241                                
   3242                                
   3243                                return(1); 
   3244                            case CONF_REJ :
   3245                                 // то RCN но все равно запрос тех же опций 
   3246                                if(buf_rx_ppp[6]!=i_scr_lcp)return(1);                        //проверка идентификатора
   3247                                i_scr_lcp++;//приращение идентификатора
   3248                                LCP_event=RCN;
   3249          
   3250                                return(1);      
   3251                                 
   3252                            case TERM_REQ :
   3253                                 LCP_event=RTR;
   \                     ??proc_ppp_packet_14:
   \   0000042E   E00A               LDI     R16, 10
   \   00000430   01FD               MOVW    R31:R30, R27:R26
   \   00000432   8B03               STD     Z+19, R16
   3254                                 i_sta_lcp=buf_rx_ppp[6];   // присвоение идентификатора
   \   00000434   01FC               MOVW    R31:R30, R25:R24
   \   00000436   8106               LDD     R16, Z+6
   \   00000438   01FD               MOVW    R31:R30, R27:R26
   \   0000043A   AB01               STD     Z+49, R16
   \   0000043C   CDEA               RJMP    ??proc_ppp_packet_1
   3255                                 return(1); 
   3256                            case TERM_ACK : 
   3257                                if(buf_rx_ppp[6]!=i_str_lcp)return(1); 
   \                     ??proc_ppp_packet_15:
   \   0000043E   8106               LDD     R16, Z+6
   \   00000440   01FD               MOVW    R31:R30, R27:R26
   \   00000442   A910               LDD     R17, Z+48
   \   00000444   1701               CP      R16, R17
   \   00000446   F009               BREQ    $+2+2
   \   00000448   CDE4               RJMP    ??proc_ppp_packet_1
   3258                                LCP_event=RTA;
   \   0000044A   E00B               LDI     R16, 11
   \   0000044C   8B03               STD     Z+19, R16
   3259                                i_str_lcp++;   //приращение идентификатора
   \   0000044E   A900               LDD     R16, Z+48
   \   00000450   9503               INC     R16
   \   00000452   AB00               STD     Z+48, R16
   \   00000454   CDDE               RJMP    ??proc_ppp_packet_1
   3260                                return(1);  
   3261                            case CODE_REJ :;   //как то сигнализировать. но ничего не делать
   3262                                return(1);                   
   3263                            } 
   3264                              
   3265                 break;
   3266                 case PR_PAP:   
   3267                      
   3268                      
   3269                      
   3270                    
   3271            
   3272                         
   3273                      // здесь  проверка общей длины     
   3274                        length.bytes[1]=buf_rx_ppp[5];
   \                     ??proc_ppp_packet_8:
   \   00000456   01FC               MOVW    R31:R30, R25:R24
   \   00000458   8125               LDD     R18, Z+5
   \   0000045A   8329               STD     Y+1, R18
   3275                        length.bytes[0]=buf_rx_ppp[6];
   \   0000045C   8126               LDD     R18, Z+6
   \   0000045E   8328               ST      Y, R18
   3276                        if (length.word!=count_rx_ppp-6)return(1);
   \   00000460   8128               LD      R18, Y
   \   00000462   8139               LDD     R19, Y+1
   \   00000464   1720               CP      R18, R16
   \   00000466   0731               CPC     R19, R17
   \   00000468   F009               BREQ    $+2+2
   \   0000046A   CDD3               RJMP    ??proc_ppp_packet_1
   3277                        if (count_rx_ppp>MAX_DL_PAP)return(1);//не воспринимать длинные пакеты                           
   \   0000046C   E30D               LDI     R16, 61
   \   0000046E   1660               CP      R6, R16
   \   00000470   E000               LDI     R16, 0
   \   00000472   0670               CPC     R7, R16
   \   00000474   F008               BRCS    $+2+2
   \   00000476   CDCD               RJMP    ??proc_ppp_packet_1
   3278                          
   3279          
   3280                                     
   3281                        switch (buf_rx_ppp[3])      
   \   00000478   01FD               MOVW    R31:R30, R27:R26
   \   0000047A   A906               LDD     R16, Z+54
   \   0000047C   01FC               MOVW    R31:R30, R25:R24
   \   0000047E   8113               LDD     R17, Z+3
   \   00000480   5012               SUBI    R17, 2
   \   00000482   F019               BREQ    ??proc_ppp_packet_47
   \   00000484   951A               DEC     R17
   \   00000486   F049               BREQ    ??proc_ppp_packet_48
   \   00000488   CDC4               RJMP    ??proc_ppp_packet_1
   3282                            {
   3283                            case CONF_ACK :
   3284                                 if(buf_rx_ppp[4]!=i_scr_pap)return(1);     //проверка идентификатора
   \                     ??proc_ppp_packet_47:
   \   0000048A   8114               LDD     R17, Z+4
   \   0000048C   1710               CP      R17, R16
   \   0000048E   F009               BREQ    $+2+2
   \   00000490   CDC0               RJMP    ??proc_ppp_packet_1
   3285                                 PAP_event=RCA; 
   \   00000492   E008               LDI     R16, 8
   \                     ??proc_ppp_packet_49:
   \   00000494   01FD               MOVW    R31:R30, R27:R26
   \   00000496   8B02               STD     Z+18, R16
   \   00000498   CDBC               RJMP    ??proc_ppp_packet_1
   3286                                 return(1);
   3287                            case CONF_NAK :                      
   3288                                 if(buf_rx_ppp[4]!=i_scr_pap)return(1);     //проверка идентификатора
   \                     ??proc_ppp_packet_48:
   \   0000049A   8114               LDD     R17, Z+4
   \   0000049C   1710               CP      R17, R16
   \   0000049E   F009               BREQ    $+2+2
   \   000004A0   CDB8               RJMP    ??proc_ppp_packet_1
   3289                                 PAP_event=RCN;
   \   000004A2   E009               LDI     R16, 9
   \   000004A4   CFF7               RJMP    ??proc_ppp_packet_49
   3290                                 return(1);
   3291                            } 
   3292                  
   3293                 break;
   3294                 
   3295                 
   3296                 case PR_IPCP: 
   3297                 
   3298                       
   3299                        
   3300                        // здесь  проверка общей длины     
   3301                        length.bytes[1]=buf_rx_ppp[5];
   \                     ??proc_ppp_packet_9:
   \   000004A6   01FC               MOVW    R31:R30, R25:R24
   \   000004A8   8125               LDD     R18, Z+5
   \   000004AA   8329               STD     Y+1, R18
   3302                        length.bytes[0]=buf_rx_ppp[6];
   \   000004AC   8126               LDD     R18, Z+6
   \   000004AE   8328               ST      Y, R18
   3303                        if (length.word!=count_rx_ppp-6)return(1);
   \   000004B0   8128               LD      R18, Y
   \   000004B2   8139               LDD     R19, Y+1
   \   000004B4   1720               CP      R18, R16
   \   000004B6   0731               CPC     R19, R17
   \   000004B8   F009               BREQ    $+2+2
   \   000004BA   CDAB               RJMP    ??proc_ppp_packet_1
   3304                        if (count_rx_ppp>MAX_DL_IPCP)return(1);//не воспринимать длинные пакеты                           
   \   000004BC   E204               LDI     R16, 36
   \   000004BE   1660               CP      R6, R16
   \   000004C0   E000               LDI     R16, 0
   \   000004C2   0670               CPC     R7, R16
   \   000004C4   F008               BRCS    $+2+2
   \   000004C6   CDA5               RJMP    ??proc_ppp_packet_1
   3305                        
   3306                        vol_length_opt=count_rx_ppp-10;
   \   000004C8   EF06               LDI     R16, 246
   \   000004CA   0E60               ADD     R6, R16
   3307                        count_length_opt=0;
   \   000004CC   2400               CLR     R0
   3308                        ind_opt=7;  
   \   000004CE   E067               LDI     R22, 7
   3309                       
   3310                        ln_rejc_ipcp=0;
   \   000004D0   01FD               MOVW    R31:R30, R27:R26
   \   000004D2   AE03               STD     Z+59, R0
   3311                        ln_ack_ipcp=0;
   \   000004D4   96FD               ADIW    R31:R30, 61
   \   000004D6   8200               ST      Z, R0
   3312                        ln_nak_ipcp=0;
   \   000004D8   01FD               MOVW    R31:R30, R27:R26
   \   000004DA   96FE               ADIW    R31:R30, 62
   \   000004DC   8200               ST      Z, R0
   3313                        ln_rej_ipcp=0; 
   \   000004DE   01FD               MOVW    R31:R30, R27:R26
   \   000004E0   96FC               ADIW    R31:R30, 60
   \   000004E2   8200               ST      Z, R0
   3314                        
   3315                       
   3316                                     
   3317                        switch (buf_rx_ppp[3])      
   \   000004E4   01FD               MOVW    R31:R30, R27:R26
   \   000004E6   A912               LDD     R17, Z+50
   \   000004E8   01FC               MOVW    R31:R30, R25:R24
   \   000004EA   8103               LDD     R16, Z+3
   \   000004EC   5001               SUBI    R16, 1
   \   000004EE   F1A9               BREQ    ??proc_ppp_packet_50
   \   000004F0   950A               DEC     R16
   \   000004F2   F069               BREQ    ??proc_ppp_packet_51
   \   000004F4   950A               DEC     R16
   \   000004F6   F409               BRNE    $+2+2
   \   000004F8   C1B4               RJMP    ??proc_ppp_packet_52
   \   000004FA   950A               DEC     R16
   \   000004FC   F409               BRNE    $+2+2
   \   000004FE   C260               RJMP    ??proc_ppp_packet_53
   \   00000500   950A               DEC     R16
   \   00000502   F409               BRNE    $+2+2
   \   00000504   C267               RJMP    ??proc_ppp_packet_54
   \   00000506   950A               DEC     R16
   \   00000508   F409               BRNE    $+2+2
   \   0000050A   C26C               RJMP    ??proc_ppp_packet_55
   \   0000050C   CD82               RJMP    ??proc_ppp_packet_1
   3318                            {
   3319                            case CONF_REQ : 
   3320                            
   3321                             
   3322                                     
   3323                           // (если вообще не те опции то сброс кода дать) 
   3324                                //проверка предложенной конфигурации от сервера    
   3325                                //если нужная конфигурация то событие RCR+                  
   3326                                //если нет то RCR-;                       
   3327                              
   3328                               
   3329                               
   3330                                                  
   3331                 next_opt_ipcp_1:  if(count_length_opt==vol_length_opt) goto end_ipcp_opt_1;   //обработаны все опции
   3332                                 
   3333                                 switch(buf_rx_ppp[ind_opt])
   3334                                    {
   3335                                       
   3336                                           
   3337                                      case IP_SELF:       
   3338                                            if (buf_rx_ppp[ind_opt+1]!=6)
   3339                                                {
   3340                                                  for(i=3;i<=count_rx_ppp-4;i++){buf_rejc_opt_ipcp[ln_rejc_ipcp]=buf_rx_ppp[i];ln_rejc_ipcp++;}
   3341                                                  IPCP_event=RUC;
   3342                                                  return(1);
   3343                                                  } 
   3344                                              
   3345                                             
   3346                                                  fl_opt.ip_self=1;
   3347                                                  
   3348                                                  buf_ack_opt_ipcp[ln_ack_ipcp]=buf_rx_ppp[ind_opt];
   3349                                                  ln_ack_ipcp++;
   3350                                                  
   3351                                                  buf_ack_opt_ipcp[ln_ack_ipcp]=buf_rx_ppp[ind_opt+1];
   3352                                                  ln_ack_ipcp++;
   3353                                                  
   3354                                                  buf_ack_opt_ipcp[ln_ack_ipcp]=buf_rx_ppp[ind_opt+2]; 
   3355                                                 // ip_serv_gprs[0]=buf_rx_ppp[ind_opt+2];
   3356                                                  ln_ack_ipcp++;  
   3357                                                  
   3358                                                  buf_ack_opt_ipcp[ln_ack_ipcp]=buf_rx_ppp[ind_opt+3]; 
   3359                                                 // ip_serv_gprs[1]=buf_rx_ppp[ind_opt+3];
   3360                                                  ln_ack_ipcp++; 
   3361                                                  
   3362                                                  buf_ack_opt_ipcp[ln_ack_ipcp]=buf_rx_ppp[ind_opt+4]; 
   3363                                                 // ip_serv_gprs[2]=buf_rx_ppp[ind_opt+4];
   3364                                                  ln_ack_ipcp++;
   3365                                                  
   3366                                                  buf_ack_opt_ipcp[ln_ack_ipcp]=buf_rx_ppp[ind_opt+5]; 
   3367                                                 // ip_serv_gprs[3]=buf_rx_ppp[ind_opt+5];
   3368                                                  ln_ack_ipcp++;
   3369                                                 
   3370                                              
   3371                                           count_length_opt=count_length_opt+buf_rx_ppp[ind_opt+1];        
   3372                                           ind_opt=ind_opt+buf_rx_ppp[ind_opt+1];
   3373                                           goto next_opt_ipcp_1;                                       
   3374                                      
   3375                                      
   3376                                     /*
   3377                                      case IP_PRI_DNS:  
   3378                                      case IP_SEC_DNS:     
   3379                                            if (buf_rx_ppp[ind_opt+1]!=6)
   3380                                                {
   3381                                                  for(i=3;i<=count_rx_ppp-4;i++){buf_rejc_opt_ipcp[ln_rejc_ipcp]=buf_rx_ppp[i];ln_rejc_ipcp++;}
   3382                                                  IPCP_event=RUC;
   3383                                                  return(1);
   3384                                                  } 
   3385                                              
   3386                                                  buf_ack_opt_ipcp[ln_ack_ipcp]=buf_rx_ppp[ind_opt];
   3387                                                  buf_ack_opt_ipcp[ln_ack_ipcp]=buf_rx_ppp[ind_opt+1];
   3388                                                  buf_ack_opt_ipcp[ln_ack_ipcp]=buf_rx_ppp[ind_opt+2];  
   3389                                                  buf_ack_opt_ipcp[ln_ack_ipcp]=buf_rx_ppp[ind_opt+3]; 
   3390                                                  buf_ack_opt_ipcp[ln_ack_ipcp]=buf_rx_ppp[ind_opt+4]; 
   3391                                                  buf_ack_opt_ipcp[ln_ack_ipcp]=buf_rx_ppp[ind_opt+5]; 
   3392                                                  ln_ack_ipcp=ln_ack_ipcp+6;                                     
   3393                                                
   3394                                           count_length_opt=count_length_opt+buf_rx_ppp[ind_opt+1];        
   3395                                           ind_opt=ind_opt+buf_rx_ppp[ind_opt+1];
   3396                                           goto next_opt_ipcp_1; 
   3397                                       
   3398                                      
   3399                                      
   3400                                      
   3401                                      default:
   3402          
   3403                                                  for(i=0;i<buf_rx_ppp[ind_opt+1];i++){buf_rej_opt_ipcp[ln_rej_ipcp]=buf_rx_ppp[ind_opt+i];ln_rej_ipcp++;}
   3404                                                  count_length_opt=count_length_opt+buf_rx_ppp[ind_opt+1];        
   3405                                                  ind_opt=ind_opt+buf_rx_ppp[ind_opt+1];      
   3406                                            goto next_opt_ipcp_1;        
   3407                                   */
   3408                                     default:  // подтверждать все !!!!!!!!!!
   3409          
   3410                                                  for(i=0;i<buf_rx_ppp[ind_opt+1];i++){buf_ack_opt_ipcp[ln_ack_ipcp]=buf_rx_ppp[ind_opt+i];ln_ack_ipcp++;}
   3411                                                  count_length_opt=count_length_opt+buf_rx_ppp[ind_opt+1];        
   3412                                                  ind_opt=ind_opt+buf_rx_ppp[ind_opt+1];      
   3413                                            goto next_opt_ipcp_1;        
   3414                                   
   3415                                    }
   3416                                                      
   3417           end_ipcp_opt_1:        
   3418                                 
   3419                                                 
   3420                                 if (ln_rej_ipcp!=0)                    
   3421                                   {
   3422               
   3423                                   IPCP_event=RCR_MI;
   3424                                   fl_ipcp2.nac_rej=1;
   3425                                   return(1); 
   3426                                   }
   3427                                                              
   3428                               
   3429                                if(fl_opt.ip_self==0) return(1);
   3430                                      
   3431                                 
   3432                                   if (ln_ack_ipcp!=0)                    
   3433                                   {
   3434                                    
   3435                                   IPCP_event=RCR_PL;
   3436                                   i_scan_ipcp=buf_rx_ppp[4];    // присвоение идентификатора                   
   3437                                   return(1); 
   3438                                   }  
   3439                                                        
   3440                                break;    
   3441                                
   3442                                
   3443                                 
   3444                            case CONF_ACK : 
   3445                                //проверка опций (если вообще не те опции то сброс кода дать)
   3446                                //опции та, то событие RCA
   3447                            //  led2_on;    //пока
   3448                            //  lock_it();    // пока
   3449                              
   3450                             
   3451                                                   
   3452                              
   3453                              
   3454                              if(buf_rx_ppp[4]!=i_scr_ipcp)return(1);                        //проверка идентификатора
   \                     ??proc_ppp_packet_51:
   \   0000050E   8104               LDD     R16, Z+4
   \   00000510   1701               CP      R16, R17
   \   00000512   F409               BRNE    $+2+2
   \   00000514   C0D1               RJMP    ??proc_ppp_packet_56
   \   00000516   CD7D               RJMP    ??proc_ppp_packet_1
   \                     ??proc_ppp_packet_57:
   \   00000518   2E26               MOV     R2, R22
   \   0000051A   0E22               ADD     R2, R18
   \   0000051C   1E33               ADC     R3, R19
   \   0000051E   01FC               MOVW    R31:R30, R25:R24
   \   00000520   0DE2               ADD     R30, R2
   \   00000522   1DF3               ADC     R31, R3
   \   00000524   8010               LD      R1, Z
   \   00000526   01FD               MOVW    R31:R30, R27:R26
   \   00000528   96FD               ADIW    R31:R30, 61
   \   0000052A   8020               LD      R2, Z
   \   0000052C   2433               CLR     R3
   \   0000052E   01F1               MOVW    R31:R30, R3:R2
   \   00000530   ....               SUBI    R30, LOW((-(cnt_ipcp_tm_out) & 0xFFFF))
   \   00000532   ....               SBCI    R31, (-(cnt_ipcp_tm_out) & 0xFFFF) >> 8
   \   00000534   A211               STD     Z+33, R1
   \   00000536   01FD               MOVW    R31:R30, R27:R26
   \   00000538   96FD               ADIW    R31:R30, 61
   \   0000053A   8170               LD      R23, Z
   \   0000053C   9573               INC     R23
   \   0000053E   8370               ST      Z, R23
   \   00000540   5F2F               SUBI    R18, 255
   \   00000542   4F3F               SBCI    R19, 255
   \                     ??proc_ppp_packet_58:
   \   00000544   01F8               MOVW    R31:R30, R17:R16
   \   00000546   8021               LDD     R2, Z+1
   \   00000548   2433               CLR     R3
   \   0000054A   1522               CP      R18, R2
   \   0000054C   0533               CPC     R19, R3
   \   0000054E   F320               BRCS    ??proc_ppp_packet_57
   \                     ??proc_ppp_packet_59:
   \   00000550   01F8               MOVW    R31:R30, R17:R16
   \   00000552   8121               LDD     R18, Z+1
   \   00000554   0E02               ADD     R0, R18
   \   00000556   8101               LDD     R16, Z+1
   \   00000558   0F60               ADD     R22, R16
   \                     ??proc_ppp_packet_50:
   \   0000055A   01FD               MOVW    R31:R30, R27:R26
   \   0000055C   96FD               ADIW    R31:R30, 61
   \   0000055E   8170               LD      R23, Z
   \   00000560   1406               CP      R0, R6
   \   00000562   F409               BRNE    $+2+2
   \   00000564   C07D               RJMP    ??proc_ppp_packet_60
   \   00000566   2F26               MOV     R18, R22
   \   00000568   E030               LDI     R19, 0
   \   0000056A   018C               MOVW    R17:R16, R25:R24
   \   0000056C   0F02               ADD     R16, R18
   \   0000056E   1F13               ADC     R17, R19
   \   00000570   01F8               MOVW    R31:R30, R17:R16
   \   00000572   8120               LD      R18, Z
   \   00000574   5023               SUBI    R18, 3
   \   00000576   F009               BREQ    $+2+2
   \   00000578   C071               RJMP    ??proc_ppp_packet_61
   \   0000057A   8121               LDD     R18, Z+1
   \   0000057C   3026               CPI     R18, 6
   \   0000057E   F0D1               BREQ    ??proc_ppp_packet_62
   \   00000580   E023               LDI     R18, 3
   \   00000582   C011               RJMP    ??proc_ppp_packet_63
   \                     ??proc_ppp_packet_64:
   \   00000584   01FC               MOVW    R31:R30, R25:R24
   \   00000586   0FE2               ADD     R30, R18
   \   00000588   1FF3               ADC     R31, R19
   \   0000058A   8160               LD      R22, Z
   \   0000058C   01FD               MOVW    R31:R30, R27:R26
   \   0000058E   AD03               LDD     R16, Z+59
   \   00000590   E010               LDI     R17, 0
   \   00000592   01F8               MOVW    R31:R30, R17:R16
   \   00000594   ....               SUBI    R30, LOW((-(cnt_ipcp_tm_out) & 0xFFFF))
   \   00000596   ....               SBCI    R31, (-(cnt_ipcp_tm_out) & 0xFFFF) >> 8
   \   00000598   8362               STD     Z+2, R22
   \   0000059A   01FD               MOVW    R31:R30, R27:R26
   \   0000059C   AD03               LDD     R16, Z+59
   \   0000059E   9503               INC     R16
   \   000005A0   AF03               STD     Z+59, R16
   \   000005A2   5F2F               SUBI    R18, 255
   \   000005A4   4F3F               SBCI    R19, 255
   \                     ??proc_ppp_packet_63:
   \   000005A6   1742               CP      R20, R18
   \   000005A8   0753               CPC     R21, R19
   \   000005AA   F760               BRCC    ??proc_ppp_packet_64
   \                     ??proc_ppp_packet_65:
   \   000005AC   E00C               LDI     R16, 12
   \   000005AE   01FD               MOVW    R31:R30, R27:R26
   \                     ??proc_ppp_packet_66:
   \   000005B0   A303               STD     Z+35, R16
   \   000005B2   CD2F               RJMP    ??proc_ppp_packet_1
   \                     ??proc_ppp_packet_62:
   \   000005B4   9468               SET
   \   000005B6   F886               BLD     R8, 6
   \   000005B8   8010               LD      R1, Z
   \   000005BA   2F27               MOV     R18, R23
   \   000005BC   01F9               MOVW    R31:R30, R19:R18
   \   000005BE   ....               SUBI    R30, LOW((-(cnt_ipcp_tm_out) & 0xFFFF))
   \   000005C0   ....               SBCI    R31, (-(cnt_ipcp_tm_out) & 0xFFFF) >> 8
   \   000005C2   A211               STD     Z+33, R1
   \   000005C4   01FD               MOVW    R31:R30, R27:R26
   \   000005C6   96FD               ADIW    R31:R30, 61
   \   000005C8   8120               LD      R18, Z
   \   000005CA   9523               INC     R18
   \   000005CC   8320               ST      Z, R18
   \   000005CE   01F8               MOVW    R31:R30, R17:R16
   \   000005D0   8171               LDD     R23, Z+1
   \   000005D2   01FD               MOVW    R31:R30, R27:R26
   \   000005D4   96FD               ADIW    R31:R30, 61
   \   000005D6   8120               LD      R18, Z
   \   000005D8   01F9               MOVW    R31:R30, R19:R18
   \   000005DA   ....               SUBI    R30, LOW((-(cnt_ipcp_tm_out) & 0xFFFF))
   \   000005DC   ....               SBCI    R31, (-(cnt_ipcp_tm_out) & 0xFFFF) >> 8
   \   000005DE   A371               STD     Z+33, R23
   \   000005E0   01FD               MOVW    R31:R30, R27:R26
   \   000005E2   96FD               ADIW    R31:R30, 61
   \   000005E4   8120               LD      R18, Z
   \   000005E6   9523               INC     R18
   \   000005E8   8320               ST      Z, R18
   \   000005EA   01F8               MOVW    R31:R30, R17:R16
   \   000005EC   8172               LDD     R23, Z+2
   \   000005EE   01FD               MOVW    R31:R30, R27:R26
   \   000005F0   96FD               ADIW    R31:R30, 61
   \   000005F2   8120               LD      R18, Z
   \   000005F4   01F9               MOVW    R31:R30, R19:R18
   \   000005F6   ....               SUBI    R30, LOW((-(cnt_ipcp_tm_out) & 0xFFFF))
   \   000005F8   ....               SBCI    R31, (-(cnt_ipcp_tm_out) & 0xFFFF) >> 8
   \   000005FA   A371               STD     Z+33, R23
   \   000005FC   01FD               MOVW    R31:R30, R27:R26
   \   000005FE   96FD               ADIW    R31:R30, 61
   \   00000600   8120               LD      R18, Z
   \   00000602   9523               INC     R18
   \   00000604   8320               ST      Z, R18
   \   00000606   01F8               MOVW    R31:R30, R17:R16
   \   00000608   8173               LDD     R23, Z+3
   \   0000060A   01FD               MOVW    R31:R30, R27:R26
   \   0000060C   96FD               ADIW    R31:R30, 61
   \   0000060E   8120               LD      R18, Z
   \   00000610   01F9               MOVW    R31:R30, R19:R18
   \   00000612   ....               SUBI    R30, LOW((-(cnt_ipcp_tm_out) & 0xFFFF))
   \   00000614   ....               SBCI    R31, (-(cnt_ipcp_tm_out) & 0xFFFF) >> 8
   \   00000616   A371               STD     Z+33, R23
   \   00000618   01FD               MOVW    R31:R30, R27:R26
   \   0000061A   96FD               ADIW    R31:R30, 61
   \   0000061C   8120               LD      R18, Z
   \   0000061E   9523               INC     R18
   \   00000620   8320               ST      Z, R18
   \   00000622   01F8               MOVW    R31:R30, R17:R16
   \   00000624   8174               LDD     R23, Z+4
   \   00000626   01FD               MOVW    R31:R30, R27:R26
   \   00000628   96FD               ADIW    R31:R30, 61
   \   0000062A   8120               LD      R18, Z
   \   0000062C   01F9               MOVW    R31:R30, R19:R18
   \   0000062E   ....               SUBI    R30, LOW((-(cnt_ipcp_tm_out) & 0xFFFF))
   \   00000630   ....               SBCI    R31, (-(cnt_ipcp_tm_out) & 0xFFFF) >> 8
   \   00000632   A371               STD     Z+33, R23
   \   00000634   01FD               MOVW    R31:R30, R27:R26
   \   00000636   96FD               ADIW    R31:R30, 61
   \   00000638   8120               LD      R18, Z
   \   0000063A   9523               INC     R18
   \   0000063C   8320               ST      Z, R18
   \   0000063E   01F8               MOVW    R31:R30, R17:R16
   \   00000640   8175               LDD     R23, Z+5
   \   00000642   01FD               MOVW    R31:R30, R27:R26
   \   00000644   96FD               ADIW    R31:R30, 61
   \   00000646   8120               LD      R18, Z
   \   00000648   01F9               MOVW    R31:R30, R19:R18
   \   0000064A   ....               SUBI    R30, LOW((-(cnt_ipcp_tm_out) & 0xFFFF))
   \   0000064C   ....               SBCI    R31, (-(cnt_ipcp_tm_out) & 0xFFFF) >> 8
   \   0000064E   A371               STD     Z+33, R23
   \   00000650   01FD               MOVW    R31:R30, R27:R26
   \   00000652   96FD               ADIW    R31:R30, 61
   \   00000654   8120               LD      R18, Z
   \   00000656   9523               INC     R18
   \   00000658   8320               ST      Z, R18
   \   0000065A   CF7A               RJMP    ??proc_ppp_packet_59
   \                     ??proc_ppp_packet_61:
   \   0000065C   E020               LDI     R18, 0
   \   0000065E   CF72               RJMP    ??proc_ppp_packet_58
   \                     ??proc_ppp_packet_60:
   \   00000660   FA86               BST     R8, 6
   \   00000662   F00E               BRTS    $+2+2
   \   00000664   CCD6               RJMP    ??proc_ppp_packet_1
   \   00000666   2377               TST     R23
   \   00000668   F409               BRNE    $+2+2
   \   0000066A   CCD3               RJMP    ??proc_ppp_packet_1
   \   0000066C   E006               LDI     R16, 6
   \   0000066E   01FD               MOVW    R31:R30, R27:R26
   \   00000670   A303               STD     Z+35, R16
   \   00000672   01FC               MOVW    R31:R30, R25:R24
   \   00000674   8104               LDD     R16, Z+4
   \   00000676   01FD               MOVW    R31:R30, R27:R26
   \   00000678   AB03               STD     Z+51, R16
   \   0000067A   CCCB               RJMP    ??proc_ppp_packet_1
   3455                                
   3456             next_opt_ipcp_2:  if(count_length_opt==vol_length_opt) goto end_ipcp_opt_2;   //обработаны все опции
   3457                                 
   3458                                 switch(buf_rx_ppp[ind_opt])
   3459                                    { 
   3460                                    
   3461                                      case IP_SELF:       
   3462                                            if (buf_rx_ppp[ind_opt+1]!=6)
   3463                                                {
   3464                                                  
   3465                                                  for(i=3;i<=count_rx_ppp-4;i++){buf_rejc_opt_ipcp[ln_rejc_ipcp]=buf_rx_ppp[i];ln_rejc_ipcp++;}
   3466                                                  IPCP_event=RUC;
   3467                                                  return(1);
   3468                                                  } 
   3469                                              
   3470                                              if ( 
   3471                                                   
   3472                                                     (buf_rx_ppp[ind_opt+2]==ip_self[0])&&
   3473                                                     (buf_rx_ppp[ind_opt+3]==ip_self[1])&& 
   3474                                                     (buf_rx_ppp[ind_opt+4]==ip_self[2])&&
   3475                                                     (buf_rx_ppp[ind_opt+5]==ip_self[3]) 
   3476                                                  )  
   \                     ??proc_ppp_packet_67:
   \   0000067C   8122               LDD     R18, Z+2
   \   0000067E   01F2               MOVW    R31:R30, R5:R4
   \   00000680   8130               LD      R19, Z
   \   00000682   1723               CP      R18, R19
   \   00000684   F4A1               BRNE    ??proc_ppp_packet_68
   \   00000686   01F8               MOVW    R31:R30, R17:R16
   \   00000688   8123               LDD     R18, Z+3
   \   0000068A   01F2               MOVW    R31:R30, R5:R4
   \   0000068C   8131               LDD     R19, Z+1
   \   0000068E   1723               CP      R18, R19
   \   00000690   F471               BRNE    ??proc_ppp_packet_68
   \   00000692   01F8               MOVW    R31:R30, R17:R16
   \   00000694   8124               LDD     R18, Z+4
   \   00000696   01F2               MOVW    R31:R30, R5:R4
   \   00000698   8132               LDD     R19, Z+2
   \   0000069A   1723               CP      R18, R19
   \   0000069C   F441               BRNE    ??proc_ppp_packet_68
   \   0000069E   01F8               MOVW    R31:R30, R17:R16
   \   000006A0   8125               LDD     R18, Z+5
   \   000006A2   01F2               MOVW    R31:R30, R5:R4
   \   000006A4   8133               LDD     R19, Z+3
   \   000006A6   1723               CP      R18, R19
   \   000006A8   F411               BRNE    ??proc_ppp_packet_68
   3477                                                  {
   3478                                                  fl_opt.ip_self=1;                                        
   \   000006AA   9468               SET
   \   000006AC   F886               BLD     R8, 6
   3479                                                  }
   3480                                                
   3481                                           count_length_opt=count_length_opt+buf_rx_ppp[ind_opt+1];        
   \                     ??proc_ppp_packet_68:
   \   000006AE   01F8               MOVW    R31:R30, R17:R16
   \   000006B0   8121               LDD     R18, Z+1
   \   000006B2   0E02               ADD     R0, R18
   3482                                           ind_opt=ind_opt+buf_rx_ppp[ind_opt+1];
   \   000006B4   8101               LDD     R16, Z+1
   \   000006B6   0F60               ADD     R22, R16
   3483                                           goto next_opt_ipcp_2;  
   \                     ??proc_ppp_packet_56:
   \   000006B8   1406               CP      R0, R6
   \   000006BA   F409               BRNE    $+2+2
   \   000006BC   C0B1               RJMP    ??proc_ppp_packet_69
   \   000006BE   E070               LDI     R23, 0
   \   000006C0   018C               MOVW    R17:R16, R25:R24
   \   000006C2   0F06               ADD     R16, R22
   \   000006C4   1F17               ADC     R17, R23
   \   000006C6   01F8               MOVW    R31:R30, R17:R16
   \   000006C8   8120               LD      R18, Z
   \   000006CA   5821               SUBI    R18, 129
   \   000006CC   F109               BREQ    ??proc_ppp_packet_70
   \   000006CE   5022               SUBI    R18, 2
   \   000006D0   F409               BRNE    $+2+2
   \   000006D2   C055               RJMP    ??proc_ppp_packet_71
   \   000006D4   5820               SUBI    R18, 128
   \   000006D6   F009               BREQ    $+2+2
   \   000006D8   C08B               RJMP    ??proc_ppp_packet_72
   \   000006DA   8121               LDD     R18, Z+1
   \   000006DC   3026               CPI     R18, 6
   \   000006DE   F271               BREQ    ??proc_ppp_packet_67
   \   000006E0   E023               LDI     R18, 3
   \   000006E2   E030               LDI     R19, 0
   \                     ??proc_ppp_packet_73:
   \   000006E4   1742               CP      R20, R18
   \   000006E6   0753               CPC     R21, R19
   \   000006E8   F408               BRCC    $+2+2
   \   000006EA   CF60               RJMP    ??proc_ppp_packet_65
   \   000006EC   01FC               MOVW    R31:R30, R25:R24
   \   000006EE   0FE2               ADD     R30, R18
   \   000006F0   1FF3               ADC     R31, R19
   \   000006F2   8160               LD      R22, Z
   \   000006F4   01FD               MOVW    R31:R30, R27:R26
   \   000006F6   AD03               LDD     R16, Z+59
   \   000006F8   E010               LDI     R17, 0
   \   000006FA   01F8               MOVW    R31:R30, R17:R16
   \   000006FC   ....               SUBI    R30, LOW((-(cnt_ipcp_tm_out) & 0xFFFF))
   \   000006FE   ....               SBCI    R31, (-(cnt_ipcp_tm_out) & 0xFFFF) >> 8
   \   00000700   8362               STD     Z+2, R22
   \   00000702   01FD               MOVW    R31:R30, R27:R26
   \   00000704   AD03               LDD     R16, Z+59
   \   00000706   9503               INC     R16
   \   00000708   AF03               STD     Z+59, R16
   \   0000070A   5F2F               SUBI    R18, 255
   \   0000070C   4F3F               SBCI    R19, 255
   \   0000070E   CFEA               RJMP    ??proc_ppp_packet_73
   3484                                       
   3485                                       
   3486                                      case IP_PRI_DNS:       
   3487                                            if (buf_rx_ppp[ind_opt+1]!=6)
   \                     ??proc_ppp_packet_70:
   \   00000710   8121               LDD     R18, Z+1
   \   00000712   3026               CPI     R18, 6
   \   00000714   F0C1               BREQ    ??proc_ppp_packet_74
   3488                                                {
   3489                                                  for(i=3;i<=count_rx_ppp-4;i++){buf_rejc_opt_ipcp[ln_rejc_ipcp]=buf_rx_ppp[i];ln_rejc_ipcp++;}
   \   00000716   E023               LDI     R18, 3
   \   00000718   E030               LDI     R19, 0
   \                     ??proc_ppp_packet_75:
   \   0000071A   1742               CP      R20, R18
   \   0000071C   0753               CPC     R21, R19
   \   0000071E   F408               BRCC    $+2+2
   \   00000720   CF45               RJMP    ??proc_ppp_packet_65
   \   00000722   01FC               MOVW    R31:R30, R25:R24
   \   00000724   0FE2               ADD     R30, R18
   \   00000726   1FF3               ADC     R31, R19
   \   00000728   8160               LD      R22, Z
   \   0000072A   01FD               MOVW    R31:R30, R27:R26
   \   0000072C   AD03               LDD     R16, Z+59
   \   0000072E   E010               LDI     R17, 0
   \   00000730   01F8               MOVW    R31:R30, R17:R16
   \   00000732   ....               SUBI    R30, LOW((-(cnt_ipcp_tm_out) & 0xFFFF))
   \   00000734   ....               SBCI    R31, (-(cnt_ipcp_tm_out) & 0xFFFF) >> 8
   \   00000736   8362               STD     Z+2, R22
   \   00000738   01FD               MOVW    R31:R30, R27:R26
   \   0000073A   AD03               LDD     R16, Z+59
   \   0000073C   9503               INC     R16
   \   0000073E   AF03               STD     Z+59, R16
   \   00000740   5F2F               SUBI    R18, 255
   \   00000742   4F3F               SBCI    R19, 255
   \   00000744   CFEA               RJMP    ??proc_ppp_packet_75
   3490                                                  IPCP_event=RUC;
   3491                                                  return(1);
   3492                                                  } 
   3493                                              
   3494                                              if ( 
   3495                                                     (buf_rx_ppp[ind_opt+2]==ip_pri_dns[0])&&
   3496                                                     (buf_rx_ppp[ind_opt+3]==ip_pri_dns[1])&& 
   3497                                                     (buf_rx_ppp[ind_opt+4]==ip_pri_dns[2])&&
   3498                                                     (buf_rx_ppp[ind_opt+5]==ip_pri_dns[3]) 
   3499                                                  )  fl_opt.ip_pri_dns=1;                                        
   \                     ??proc_ppp_packet_74:
   \   00000746   8122               LDD     R18, Z+2
   \   00000748   913C               LD      R19, X
   \   0000074A   1723               CP      R18, R19
   \   0000074C   F009               BREQ    $+2+2
   \   0000074E   CFAF               RJMP    ??proc_ppp_packet_68
   \   00000750   8123               LDD     R18, Z+3
   \   00000752   01FD               MOVW    R31:R30, R27:R26
   \   00000754   8131               LDD     R19, Z+1
   \   00000756   1723               CP      R18, R19
   \   00000758   F009               BREQ    $+2+2
   \   0000075A   CFA9               RJMP    ??proc_ppp_packet_68
   \   0000075C   01F8               MOVW    R31:R30, R17:R16
   \   0000075E   8124               LDD     R18, Z+4
   \   00000760   01FD               MOVW    R31:R30, R27:R26
   \   00000762   8132               LDD     R19, Z+2
   \   00000764   1723               CP      R18, R19
   \   00000766   F009               BREQ    $+2+2
   \   00000768   CFA2               RJMP    ??proc_ppp_packet_68
   \   0000076A   01F8               MOVW    R31:R30, R17:R16
   \   0000076C   8125               LDD     R18, Z+5
   \   0000076E   01FD               MOVW    R31:R30, R27:R26
   \   00000770   8133               LDD     R19, Z+3
   \   00000772   1723               CP      R18, R19
   \   00000774   F009               BREQ    $+2+2
   \   00000776   CF9B               RJMP    ??proc_ppp_packet_68
   \   00000778   9468               SET
   \   0000077A   F887               BLD     R8, 7
   \   0000077C   CF98               RJMP    ??proc_ppp_packet_68
   3500                                                
   3501                                           count_length_opt=count_length_opt+buf_rx_ppp[ind_opt+1];        
   3502                                           ind_opt=ind_opt+buf_rx_ppp[ind_opt+1];
   3503                                           goto next_opt_ipcp_2; 
   3504                                       
   3505                                      
   3506                                      case IP_SEC_DNS:       
   3507                                            if (buf_rx_ppp[ind_opt+1]!=6)
   \                     ??proc_ppp_packet_71:
   \   0000077E   8121               LDD     R18, Z+1
   \   00000780   3026               CPI     R18, 6
   \   00000782   F0C1               BREQ    ??proc_ppp_packet_76
   3508                                                {
   3509                                                  for(i=3;i<=count_rx_ppp-4;i++){buf_rejc_opt_ipcp[ln_rejc_ipcp]=buf_rx_ppp[i];ln_rejc_ipcp++;}
   \   00000784   E023               LDI     R18, 3
   \   00000786   E030               LDI     R19, 0
   \                     ??proc_ppp_packet_77:
   \   00000788   1742               CP      R20, R18
   \   0000078A   0753               CPC     R21, R19
   \   0000078C   F408               BRCC    $+2+2
   \   0000078E   CF0E               RJMP    ??proc_ppp_packet_65
   \   00000790   01FC               MOVW    R31:R30, R25:R24
   \   00000792   0FE2               ADD     R30, R18
   \   00000794   1FF3               ADC     R31, R19
   \   00000796   8160               LD      R22, Z
   \   00000798   01FD               MOVW    R31:R30, R27:R26
   \   0000079A   AD03               LDD     R16, Z+59
   \   0000079C   E010               LDI     R17, 0
   \   0000079E   01F8               MOVW    R31:R30, R17:R16
   \   000007A0   ....               SUBI    R30, LOW((-(cnt_ipcp_tm_out) & 0xFFFF))
   \   000007A2   ....               SBCI    R31, (-(cnt_ipcp_tm_out) & 0xFFFF) >> 8
   \   000007A4   8362               STD     Z+2, R22
   \   000007A6   01FD               MOVW    R31:R30, R27:R26
   \   000007A8   AD03               LDD     R16, Z+59
   \   000007AA   9503               INC     R16
   \   000007AC   AF03               STD     Z+59, R16
   \   000007AE   5F2F               SUBI    R18, 255
   \   000007B0   4F3F               SBCI    R19, 255
   \   000007B2   CFEA               RJMP    ??proc_ppp_packet_77
   3510                                                  IPCP_event=RUC;
   3511                                                  return(1);
   3512                                                  } 
   3513                                              
   3514                                              if ( 
   3515                                                     (buf_rx_ppp[ind_opt+2]==ip_sec_dns[0])&&
   3516                                                     (buf_rx_ppp[ind_opt+3]==ip_sec_dns[1])&& 
   3517                                                     (buf_rx_ppp[ind_opt+4]==ip_sec_dns[2])&&
   3518                                                     (buf_rx_ppp[ind_opt+5]==ip_sec_dns[3]) 
   3519                                                  )  fl_opt.mru=1;                                        
   \                     ??proc_ppp_packet_76:
   \   000007B4   8122               LDD     R18, Z+2
   \   000007B6   01FD               MOVW    R31:R30, R27:R26
   \   000007B8   8134               LDD     R19, Z+4
   \   000007BA   1723               CP      R18, R19
   \   000007BC   F009               BREQ    $+2+2
   \   000007BE   CF77               RJMP    ??proc_ppp_packet_68
   \   000007C0   01F8               MOVW    R31:R30, R17:R16
   \   000007C2   8123               LDD     R18, Z+3
   \   000007C4   01FD               MOVW    R31:R30, R27:R26
   \   000007C6   8135               LDD     R19, Z+5
   \   000007C8   1723               CP      R18, R19
   \   000007CA   F009               BREQ    $+2+2
   \   000007CC   CF70               RJMP    ??proc_ppp_packet_68
   \   000007CE   01F8               MOVW    R31:R30, R17:R16
   \   000007D0   8124               LDD     R18, Z+4
   \   000007D2   01FD               MOVW    R31:R30, R27:R26
   \   000007D4   8136               LDD     R19, Z+6
   \   000007D6   1723               CP      R18, R19
   \   000007D8   F009               BREQ    $+2+2
   \   000007DA   CF69               RJMP    ??proc_ppp_packet_68
   \   000007DC   01F8               MOVW    R31:R30, R17:R16
   \   000007DE   8125               LDD     R18, Z+5
   \   000007E0   01FD               MOVW    R31:R30, R27:R26
   \   000007E2   8137               LDD     R19, Z+7
   \   000007E4   1723               CP      R18, R19
   \   000007E6   F009               BREQ    $+2+2
   \   000007E8   CF62               RJMP    ??proc_ppp_packet_68
   \   000007EA   9468               SET
   \   000007EC   F880               BLD     R8, 0
   \   000007EE   CF5F               RJMP    ??proc_ppp_packet_68
   3520                                                
   3521                                           count_length_opt=count_length_opt+buf_rx_ppp[ind_opt+1];        
   3522                                           ind_opt=ind_opt+buf_rx_ppp[ind_opt+1];
   3523                                           goto next_opt_ipcp_2; 
   3524                                       
   3525          
   3526                                      
   3527                                      default:    for(i=3;i<=count_rx_ppp-4;i++){buf_rejc_opt_ipcp[ln_rejc_ipcp]=buf_rx_ppp[i];ln_rejc_ipcp++;}
   \                     ??proc_ppp_packet_72:
   \   000007F0   E023               LDI     R18, 3
   \   000007F2   E030               LDI     R19, 0
   \                     ??proc_ppp_packet_78:
   \   000007F4   1742               CP      R20, R18
   \   000007F6   0753               CPC     R21, R19
   \   000007F8   F408               BRCC    $+2+2
   \   000007FA   CED8               RJMP    ??proc_ppp_packet_65
   \   000007FC   01FC               MOVW    R31:R30, R25:R24
   \   000007FE   0FE2               ADD     R30, R18
   \   00000800   1FF3               ADC     R31, R19
   \   00000802   8160               LD      R22, Z
   \   00000804   01FD               MOVW    R31:R30, R27:R26
   \   00000806   AD03               LDD     R16, Z+59
   \   00000808   E010               LDI     R17, 0
   \   0000080A   01F8               MOVW    R31:R30, R17:R16
   \   0000080C   ....               SUBI    R30, LOW((-(cnt_ipcp_tm_out) & 0xFFFF))
   \   0000080E   ....               SBCI    R31, (-(cnt_ipcp_tm_out) & 0xFFFF) >> 8
   \   00000810   8362               STD     Z+2, R22
   \   00000812   01FD               MOVW    R31:R30, R27:R26
   \   00000814   AD03               LDD     R16, Z+59
   \   00000816   9503               INC     R16
   \   00000818   AF03               STD     Z+59, R16
   \   0000081A   5F2F               SUBI    R18, 255
   \   0000081C   4F3F               SBCI    R19, 255
   \   0000081E   CFEA               RJMP    ??proc_ppp_packet_78
   3528                                                  IPCP_event=RUC;
   3529                                                  return(1);    
   3530                                            
   3531                                    }
   3532                                
   3533                                
   3534            end_ipcp_opt_2:      //if((fl_opt.ip_self==1)&&(fl_opt.ip_pri_dns==1)&&(fl_opt.mru==1))
   3535                                   if(fl_opt.ip_self==1)
   \                     ??proc_ppp_packet_69:
   \   00000820   FA86               BST     R8, 6
   \   00000822   F43E               BRTC    ??proc_ppp_packet_79
   3536                                  {   
   3537                                   
   3538                                   
   3539                                   IPCP_event=RCA;
   \   00000824   E008               LDI     R16, 8
   \   00000826   01FD               MOVW    R31:R30, R27:R26
   \   00000828   A303               STD     Z+35, R16
   3540                                   i_scr_ipcp++;//приращение идентификатора                      
   \   0000082A   A902               LDD     R16, Z+50
   \   0000082C   9503               INC     R16
   \   0000082E   AB02               STD     Z+50, R16
   \   00000830   CBF0               RJMP    ??proc_ppp_packet_1
   3541                                   return(1);      
   3542                                  } 
   3543                                  else
   3544                                  {
   3545                                  for(i=3;i<=count_rx_ppp-4;i++){buf_rejc_opt_ipcp[ln_rejc_ipcp]=buf_rx_ppp[i];ln_rejc_ipcp++;}
   \                     ??proc_ppp_packet_79:
   \   00000832   E023               LDI     R18, 3
   \   00000834   E030               LDI     R19, 0
   \                     ??proc_ppp_packet_80:
   \   00000836   1742               CP      R20, R18
   \   00000838   0753               CPC     R21, R19
   \   0000083A   F408               BRCC    $+2+2
   \   0000083C   CEB7               RJMP    ??proc_ppp_packet_65
   \   0000083E   01FC               MOVW    R31:R30, R25:R24
   \   00000840   0FE2               ADD     R30, R18
   \   00000842   1FF3               ADC     R31, R19
   \   00000844   8160               LD      R22, Z
   \   00000846   01FD               MOVW    R31:R30, R27:R26
   \   00000848   AD03               LDD     R16, Z+59
   \   0000084A   E010               LDI     R17, 0
   \   0000084C   01F8               MOVW    R31:R30, R17:R16
   \   0000084E   ....               SUBI    R30, LOW((-(cnt_ipcp_tm_out) & 0xFFFF))
   \   00000850   ....               SBCI    R31, (-(cnt_ipcp_tm_out) & 0xFFFF) >> 8
   \   00000852   8362               STD     Z+2, R22
   \   00000854   01FD               MOVW    R31:R30, R27:R26
   \   00000856   AD03               LDD     R16, Z+59
   \   00000858   9503               INC     R16
   \   0000085A   AF03               STD     Z+59, R16
   \   0000085C   5F2F               SUBI    R18, 255
   \   0000085E   4F3F               SBCI    R19, 255
   \   00000860   CFEA               RJMP    ??proc_ppp_packet_80
   3546                                  IPCP_event=RUC;
   3547                                  return(1);               
   3548                                  }
   3549                                          
   3550                                 
   3551                            case CONF_NAK :                     
   3552                                  // то RCN но все равно запрос тех же опций  
   3553                              
   3554                        
   3555                                
   3556                                if(buf_rx_ppp[4]!=i_scr_ipcp)return(1);                        //проверка идентификатора
   \                     ??proc_ppp_packet_52:
   \   00000862   8104               LDD     R16, Z+4
   \   00000864   1701               CP      R16, R17
   \   00000866   F0A9               BREQ    ??proc_ppp_packet_81
   \   00000868   CBD4               RJMP    ??proc_ppp_packet_1
   3557                               
   3558                               
   3559              next_opt_ipcp_3:  if(count_length_opt==vol_length_opt) goto end_ipcp_opt_3;   //обработаны все опции
   3560                                 
   3561                                 switch(buf_rx_ppp[ind_opt])
   3562                                    { 
   3563                                    
   3564                                      case IP_SELF:       
   3565                                            if (buf_rx_ppp[ind_opt+1]!=6)
   3566                                                {
   3567                                                  for(i=3;i<=count_rx_ppp-4;i++){buf_rejc_opt_ipcp[ln_rejc_ipcp]=buf_rx_ppp[i];ln_rejc_ipcp++;}
   3568                                                  IPCP_event=RUC;
   3569                                                  return(1);
   3570                                                  } 
   3571                                                   
   3572          
   3573                                                                                            
   3574                                                    
   3575                                                            
   3576                                                   
   3577                                                    ip_self[0]=buf_rx_ppp[ind_opt+2];
   \                     ??proc_ppp_packet_82:
   \   0000086A   8122               LDD     R18, Z+2
   \   0000086C   01F2               MOVW    R31:R30, R5:R4
   \   0000086E   8320               ST      Z, R18
   3578                                                    ip_self[1]=buf_rx_ppp[ind_opt+3];
   \   00000870   01F8               MOVW    R31:R30, R17:R16
   \   00000872   8123               LDD     R18, Z+3
   \   00000874   01F2               MOVW    R31:R30, R5:R4
   \   00000876   8321               STD     Z+1, R18
   3579                                                    ip_self[2]=buf_rx_ppp[ind_opt+4];
   \   00000878   01F8               MOVW    R31:R30, R17:R16
   \   0000087A   8124               LDD     R18, Z+4
   \   0000087C   01F2               MOVW    R31:R30, R5:R4
   \   0000087E   8322               STD     Z+2, R18
   3580                                                    ip_self[3]=buf_rx_ppp[ind_opt+5]; 
   \   00000880   01F8               MOVW    R31:R30, R17:R16
   \   00000882   8125               LDD     R18, Z+5
   \   00000884   01F2               MOVW    R31:R30, R5:R4
   \                     ??proc_ppp_packet_83:
   \   00000886   8323               STD     Z+3, R18
   3581                                                    
   3582                                                    fl_opt.ip_self=1;                                        
   3583                                                
   3584                                           count_length_opt=count_length_opt+buf_rx_ppp[ind_opt+1];        
   \                     ??proc_ppp_packet_84:
   \   00000888   01F8               MOVW    R31:R30, R17:R16
   \   0000088A   8121               LDD     R18, Z+1
   \   0000088C   0E02               ADD     R0, R18
   3585                                           ind_opt=ind_opt+buf_rx_ppp[ind_opt+1];
   \   0000088E   8101               LDD     R16, Z+1
   \   00000890   0F60               ADD     R22, R16
   3586                                           goto next_opt_ipcp_3;  
   \                     ??proc_ppp_packet_81:
   \   00000892   1406               CP      R0, R6
   \   00000894   F409               BRNE    $+2+2
   \   00000896   C098               RJMP    ??proc_ppp_packet_85
   \   00000898   E070               LDI     R23, 0
   \   0000089A   018C               MOVW    R17:R16, R25:R24
   \   0000089C   0F06               ADD     R16, R22
   \   0000089E   1F17               ADC     R17, R23
   \   000008A0   01F8               MOVW    R31:R30, R17:R16
   \   000008A2   8120               LD      R18, Z
   \   000008A4   5821               SUBI    R18, 129
   \   000008A6   F109               BREQ    ??proc_ppp_packet_86
   \   000008A8   5022               SUBI    R18, 2
   \   000008AA   F409               BRNE    $+2+2
   \   000008AC   C046               RJMP    ??proc_ppp_packet_87
   \   000008AE   5820               SUBI    R18, 128
   \   000008B0   F009               BREQ    $+2+2
   \   000008B2   C06E               RJMP    ??proc_ppp_packet_88
   \   000008B4   8121               LDD     R18, Z+1
   \   000008B6   3026               CPI     R18, 6
   \   000008B8   F2C1               BREQ    ??proc_ppp_packet_82
   \   000008BA   E023               LDI     R18, 3
   \   000008BC   E030               LDI     R19, 0
   \                     ??proc_ppp_packet_89:
   \   000008BE   1742               CP      R20, R18
   \   000008C0   0753               CPC     R21, R19
   \   000008C2   F408               BRCC    $+2+2
   \   000008C4   CE73               RJMP    ??proc_ppp_packet_65
   \   000008C6   01FC               MOVW    R31:R30, R25:R24
   \   000008C8   0FE2               ADD     R30, R18
   \   000008CA   1FF3               ADC     R31, R19
   \   000008CC   8160               LD      R22, Z
   \   000008CE   01FD               MOVW    R31:R30, R27:R26
   \   000008D0   AD03               LDD     R16, Z+59
   \   000008D2   E010               LDI     R17, 0
   \   000008D4   01F8               MOVW    R31:R30, R17:R16
   \   000008D6   ....               SUBI    R30, LOW((-(cnt_ipcp_tm_out) & 0xFFFF))
   \   000008D8   ....               SBCI    R31, (-(cnt_ipcp_tm_out) & 0xFFFF) >> 8
   \   000008DA   8362               STD     Z+2, R22
   \   000008DC   01FD               MOVW    R31:R30, R27:R26
   \   000008DE   AD03               LDD     R16, Z+59
   \   000008E0   9503               INC     R16
   \   000008E2   AF03               STD     Z+59, R16
   \   000008E4   5F2F               SUBI    R18, 255
   \   000008E6   4F3F               SBCI    R19, 255
   \   000008E8   CFEA               RJMP    ??proc_ppp_packet_89
   3587                                       
   3588                                       
   3589                                      case IP_PRI_DNS:       
   3590                                            if (buf_rx_ppp[ind_opt+1]!=6)
   \                     ??proc_ppp_packet_86:
   \   000008EA   8121               LDD     R18, Z+1
   \   000008EC   3026               CPI     R18, 6
   \   000008EE   F0C1               BREQ    ??proc_ppp_packet_90
   3591                                                {
   3592                                                  for(i=3;i<=count_rx_ppp-4;i++){buf_rejc_opt_ipcp[ln_rejc_ipcp]=buf_rx_ppp[i];ln_rejc_ipcp++;}
   \   000008F0   E023               LDI     R18, 3
   \   000008F2   E030               LDI     R19, 0
   \                     ??proc_ppp_packet_91:
   \   000008F4   1742               CP      R20, R18
   \   000008F6   0753               CPC     R21, R19
   \   000008F8   F408               BRCC    $+2+2
   \   000008FA   CE58               RJMP    ??proc_ppp_packet_65
   \   000008FC   01FC               MOVW    R31:R30, R25:R24
   \   000008FE   0FE2               ADD     R30, R18
   \   00000900   1FF3               ADC     R31, R19
   \   00000902   8160               LD      R22, Z
   \   00000904   01FD               MOVW    R31:R30, R27:R26
   \   00000906   AD03               LDD     R16, Z+59
   \   00000908   E010               LDI     R17, 0
   \   0000090A   01F8               MOVW    R31:R30, R17:R16
   \   0000090C   ....               SUBI    R30, LOW((-(cnt_ipcp_tm_out) & 0xFFFF))
   \   0000090E   ....               SBCI    R31, (-(cnt_ipcp_tm_out) & 0xFFFF) >> 8
   \   00000910   8362               STD     Z+2, R22
   \   00000912   01FD               MOVW    R31:R30, R27:R26
   \   00000914   AD03               LDD     R16, Z+59
   \   00000916   9503               INC     R16
   \   00000918   AF03               STD     Z+59, R16
   \   0000091A   5F2F               SUBI    R18, 255
   \   0000091C   4F3F               SBCI    R19, 255
   \   0000091E   CFEA               RJMP    ??proc_ppp_packet_91
   3593                                                  IPCP_event=RUC;
   3594                                                  return(1);
   3595                                                  } 
   3596                                                     
   3597                                                    ip_pri_dns[0]=buf_rx_ppp[ind_opt+2];
   \                     ??proc_ppp_packet_90:
   \   00000920   8122               LDD     R18, Z+2
   \   00000922   932C               ST      X, R18
   3598                                                    ip_pri_dns[1]=buf_rx_ppp[ind_opt+3];
   \   00000924   8123               LDD     R18, Z+3
   \   00000926   01FD               MOVW    R31:R30, R27:R26
   \   00000928   8321               STD     Z+1, R18
   3599                                                    ip_pri_dns[2]=buf_rx_ppp[ind_opt+4];
   \   0000092A   01F8               MOVW    R31:R30, R17:R16
   \   0000092C   8124               LDD     R18, Z+4
   \   0000092E   01FD               MOVW    R31:R30, R27:R26
   \   00000930   8322               STD     Z+2, R18
   3600                                                    ip_pri_dns[3]=buf_rx_ppp[ind_opt+5]; 
   \   00000932   01F8               MOVW    R31:R30, R17:R16
   \   00000934   8125               LDD     R18, Z+5
   \   00000936   01FD               MOVW    R31:R30, R27:R26
   \   00000938   CFA6               RJMP    ??proc_ppp_packet_83
   3601                            
   3602                                                    fl_opt.ip_pri_dns=1;                                        
   3603                                                
   3604                                           count_length_opt=count_length_opt+buf_rx_ppp[ind_opt+1];        
   3605                                           ind_opt=ind_opt+buf_rx_ppp[ind_opt+1];
   3606                                           goto next_opt_ipcp_3; 
   3607                                       
   3608                                      
   3609                                      case IP_SEC_DNS:       
   3610                                            if (buf_rx_ppp[ind_opt+1]!=6)
   \                     ??proc_ppp_packet_87:
   \   0000093A   8121               LDD     R18, Z+1
   \   0000093C   3026               CPI     R18, 6
   \   0000093E   F0C1               BREQ    ??proc_ppp_packet_92
   3611                                                {
   3612                                                  for(i=3;i<=count_rx_ppp-4;i++){buf_rejc_opt_ipcp[ln_rejc_ipcp]=buf_rx_ppp[i];ln_rejc_ipcp++;}
   \   00000940   E023               LDI     R18, 3
   \   00000942   E030               LDI     R19, 0
   \                     ??proc_ppp_packet_93:
   \   00000944   1742               CP      R20, R18
   \   00000946   0753               CPC     R21, R19
   \   00000948   F408               BRCC    $+2+2
   \   0000094A   CE30               RJMP    ??proc_ppp_packet_65
   \   0000094C   01FC               MOVW    R31:R30, R25:R24
   \   0000094E   0FE2               ADD     R30, R18
   \   00000950   1FF3               ADC     R31, R19
   \   00000952   8160               LD      R22, Z
   \   00000954   01FD               MOVW    R31:R30, R27:R26
   \   00000956   AD03               LDD     R16, Z+59
   \   00000958   E010               LDI     R17, 0
   \   0000095A   01F8               MOVW    R31:R30, R17:R16
   \   0000095C   ....               SUBI    R30, LOW((-(cnt_ipcp_tm_out) & 0xFFFF))
   \   0000095E   ....               SBCI    R31, (-(cnt_ipcp_tm_out) & 0xFFFF) >> 8
   \   00000960   8362               STD     Z+2, R22
   \   00000962   01FD               MOVW    R31:R30, R27:R26
   \   00000964   AD03               LDD     R16, Z+59
   \   00000966   9503               INC     R16
   \   00000968   AF03               STD     Z+59, R16
   \   0000096A   5F2F               SUBI    R18, 255
   \   0000096C   4F3F               SBCI    R19, 255
   \   0000096E   CFEA               RJMP    ??proc_ppp_packet_93
   3613                                                  IPCP_event=RUC;
   3614                                                  return(1);
   3615                                                  } 
   3616                                              
   3617                                                    ip_sec_dns[0]=buf_rx_ppp[ind_opt+2];
   \                     ??proc_ppp_packet_92:
   \   00000970   8122               LDD     R18, Z+2
   \   00000972   01FD               MOVW    R31:R30, R27:R26
   \   00000974   8324               STD     Z+4, R18
   3618                                                    ip_sec_dns[1]=buf_rx_ppp[ind_opt+3];
   \   00000976   01F8               MOVW    R31:R30, R17:R16
   \   00000978   8123               LDD     R18, Z+3
   \   0000097A   01FD               MOVW    R31:R30, R27:R26
   \   0000097C   8325               STD     Z+5, R18
   3619                                                    ip_sec_dns[2]=buf_rx_ppp[ind_opt+4];
   \   0000097E   01F8               MOVW    R31:R30, R17:R16
   \   00000980   8124               LDD     R18, Z+4
   \   00000982   01FD               MOVW    R31:R30, R27:R26
   \   00000984   8326               STD     Z+6, R18
   3620                                                    ip_sec_dns[3]=buf_rx_ppp[ind_opt+5]; 
   \   00000986   01F8               MOVW    R31:R30, R17:R16
   \   00000988   8125               LDD     R18, Z+5
   \   0000098A   01FD               MOVW    R31:R30, R27:R26
   \   0000098C   8327               STD     Z+7, R18
   3621                                                    fl_opt.mru=1;                                        
   3622                                                
   3623                                           count_length_opt=count_length_opt+buf_rx_ppp[ind_opt+1];        
   \   0000098E   CF7C               RJMP    ??proc_ppp_packet_84
   3624                                           ind_opt=ind_opt+buf_rx_ppp[ind_opt+1];
   3625                                           goto next_opt_ipcp_3; 
   3626                                       
   3627          
   3628                                      
   3629                                      default:    for(i=3;i<=count_rx_ppp-4;i++){buf_rejc_opt_ipcp[ln_rejc_ipcp]=buf_rx_ppp[i];ln_rejc_ipcp++;}
   \                     ??proc_ppp_packet_88:
   \   00000990   E023               LDI     R18, 3
   \   00000992   E030               LDI     R19, 0
   \                     ??proc_ppp_packet_94:
   \   00000994   1742               CP      R20, R18
   \   00000996   0753               CPC     R21, R19
   \   00000998   F408               BRCC    $+2+2
   \   0000099A   CE08               RJMP    ??proc_ppp_packet_65
   \   0000099C   01FC               MOVW    R31:R30, R25:R24
   \   0000099E   0FE2               ADD     R30, R18
   \   000009A0   1FF3               ADC     R31, R19
   \   000009A2   8160               LD      R22, Z
   \   000009A4   01FD               MOVW    R31:R30, R27:R26
   \   000009A6   AD03               LDD     R16, Z+59
   \   000009A8   E010               LDI     R17, 0
   \   000009AA   01F8               MOVW    R31:R30, R17:R16
   \   000009AC   ....               SUBI    R30, LOW((-(cnt_ipcp_tm_out) & 0xFFFF))
   \   000009AE   ....               SBCI    R31, (-(cnt_ipcp_tm_out) & 0xFFFF) >> 8
   \   000009B0   8362               STD     Z+2, R22
   \   000009B2   01FD               MOVW    R31:R30, R27:R26
   \   000009B4   AD03               LDD     R16, Z+59
   \   000009B6   9503               INC     R16
   \   000009B8   AF03               STD     Z+59, R16
   \   000009BA   5F2F               SUBI    R18, 255
   \   000009BC   4F3F               SBCI    R19, 255
   \   000009BE   CFEA               RJMP    ??proc_ppp_packet_94
   3630                                                  IPCP_event=RUC;
   3631                                                  return(1);    
   3632                                            
   3633                                    }
   3634                                
   3635                                
   3636            end_ipcp_opt_3:                                        
   3637                                i_scr_ipcp++;//приращение идентификатора
   3638                                IPCP_event=RCN;                                             
   3639                                return(1);         
   3640                                 
   3641                            case CONF_REJ :
   3642                                 // то RCN но все равно запрос тех же опций 
   3643                                if(buf_rx_ppp[4]!=i_scr_ipcp)return(1);                        //проверка идентификатора
   \                     ??proc_ppp_packet_53:
   \   000009C0   8104               LDD     R16, Z+4
   \   000009C2   1701               CP      R16, R17
   \   000009C4   F009               BREQ    $+2+2
   \   000009C6   CB25               RJMP    ??proc_ppp_packet_1
   \                     ??proc_ppp_packet_85:
   \   000009C8   01FD               MOVW    R31:R30, R27:R26
   \   000009CA   A902               LDD     R16, Z+50
   \   000009CC   9503               INC     R16
   \   000009CE   AB02               STD     Z+50, R16
   \   000009D0   E009               LDI     R16, 9
   \   000009D2   CDEE               RJMP    ??proc_ppp_packet_66
   3644                                i_scr_ipcp++;//приращение идентификатора
   3645                                IPCP_event=RCN;
   3646          
   3647                                return(1);      
   3648                                 
   3649                            case TERM_REQ :
   3650                                 IPCP_event=RTR;
   \                     ??proc_ppp_packet_54:
   \   000009D4   E00A               LDI     R16, 10
   \   000009D6   01FD               MOVW    R31:R30, R27:R26
   \   000009D8   A303               STD     Z+35, R16
   3651                                 i_sta_ipcp=buf_rx_ppp[4];   // присвоение идентификатора
   \   000009DA   01FC               MOVW    R31:R30, R25:R24
   \   000009DC   8104               LDD     R16, Z+4
   \   000009DE   01FD               MOVW    R31:R30, R27:R26
   \   000009E0   AB05               STD     Z+53, R16
   \   000009E2   CB17               RJMP    ??proc_ppp_packet_1
   3652                                 return(1); 
   3653                            case TERM_ACK : 
   3654                                if(buf_rx_ppp[4]!=i_str_ipcp)return(1); 
   \                     ??proc_ppp_packet_55:
   \   000009E4   8104               LDD     R16, Z+4
   \   000009E6   01FD               MOVW    R31:R30, R27:R26
   \   000009E8   A914               LDD     R17, Z+52
   \   000009EA   1701               CP      R16, R17
   \   000009EC   F009               BREQ    $+2+2
   \   000009EE   CB11               RJMP    ??proc_ppp_packet_1
   3655                                IPCP_event=RTA;
   \   000009F0   E00B               LDI     R16, 11
   \   000009F2   A303               STD     Z+35, R16
   3656                                i_str_ipcp++;   //приращение идентификатора
   \   000009F4   A904               LDD     R16, Z+52
   \   000009F6   9503               INC     R16
   \   000009F8   AB04               STD     Z+52, R16
   \   000009FA   CB0B               RJMP    ??proc_ppp_packet_1
   3657                                return(1);  
   3658                            case CODE_REJ :;   //как то сигнализировать. но ничего не делать
   3659                                return(1);                   
   3660                            } 
   3661                                      
   3662                 break;        
   3663                 
   3664                  
   3665                 case PR_IP:            
   3666             
   3667             
   3668            
   3669            if(count_rx_ppp<(33+MIN_TR_HEAD))return(1); 
   \                     ??proc_ppp_packet_10:
   \   000009FC   E20D               LDI     R16, 45
   \   000009FE   1660               CP      R6, R16
   \   00000A00   E000               LDI     R16, 0
   \   00000A02   0670               CPC     R7, R16
   \   00000A04   F408               BRCC    $+2+2
   \   00000A06   CB05               RJMP    ??proc_ppp_packet_1
   3670                 
   3671            Crc_out.bytes[0]=buf_rx_ppp[12];    //проверка CRC IP 
   \   00000A08   01FC               MOVW    R31:R30, R25:R24
   \   00000A0A   8504               LDD     R16, Z+12
   \   00000A0C   830A               STD     Y+2, R16
   3672            Crc_out.bytes[1]=buf_rx_ppp[13];  
   \   00000A0E   8505               LDD     R16, Z+13
   \   00000A10   830B               STD     Y+3, R16
   3673            buf_rx_ppp[12]=0; 
   \   00000A12   E000               LDI     R16, 0
   \   00000A14   8704               STD     Z+12, R16
   3674            buf_rx_ppp[13]=0; 
   \   00000A16   8705               STD     Z+13, R16
   3675            temp.word=calc_crc_ip(&buf_rx_ppp[2],20);
   \   00000A18   E124               LDI     R18, 20
   \   00000A1A   E030               LDI     R19, 0
   \   00000A1C   018C               MOVW    R17:R16, R25:R24
   \   00000A1E   5F0E               SUBI    R16, 254
   \   00000A20   4F1F               SBCI    R17, 255
   \   00000A22   ....               RCALL   calc_crc_ip
   \   00000A24   8308               ST      Y, R16
   \   00000A26   8319               STD     Y+1, R17
   3676            if(Crc_out.word!=temp.word)return(1);
   \   00000A28   810A               LDD     R16, Y+2
   \   00000A2A   811B               LDD     R17, Y+3
   \   00000A2C   8128               LD      R18, Y
   \   00000A2E   8139               LDD     R19, Y+1
   \   00000A30   1702               CP      R16, R18
   \   00000A32   0713               CPC     R17, R19
   \   00000A34   F009               BREQ    $+2+2
   \   00000A36   CAED               RJMP    ??proc_ppp_packet_1
   3677          
   3678          
   3679            
   3680            
   3681            if((buf_rx_ppp[18]!=ip_self[0])||       //сверка со своим IP
   3682             (buf_rx_ppp[19]!=ip_self[1])|| 
   3683             (buf_rx_ppp[20]!=ip_self[2])|| 
   3684             (buf_rx_ppp[21]!=ip_self[3]))return(1);
   \   00000A38   01FC               MOVW    R31:R30, R25:R24
   \   00000A3A   8902               LDD     R16, Z+18
   \   00000A3C   ....               LDI     R30, LOW(ip_self)
   \   00000A3E   ....               LDI     R31, (ip_self) >> 8
   \   00000A40   8110               LD      R17, Z
   \   00000A42   1701               CP      R16, R17
   \   00000A44   F009               BREQ    $+2+2
   \   00000A46   CAE5               RJMP    ??proc_ppp_packet_1
   \   00000A48   01FC               MOVW    R31:R30, R25:R24
   \   00000A4A   8903               LDD     R16, Z+19
   \   00000A4C   ....               LDI     R30, LOW(ip_self)
   \   00000A4E   ....               LDI     R31, (ip_self) >> 8
   \   00000A50   8111               LDD     R17, Z+1
   \   00000A52   1701               CP      R16, R17
   \   00000A54   F009               BREQ    $+2+2
   \   00000A56   CADD               RJMP    ??proc_ppp_packet_1
   \   00000A58   01FC               MOVW    R31:R30, R25:R24
   \   00000A5A   8904               LDD     R16, Z+20
   \   00000A5C   ....               LDI     R30, LOW(ip_self)
   \   00000A5E   ....               LDI     R31, (ip_self) >> 8
   \   00000A60   8112               LDD     R17, Z+2
   \   00000A62   1701               CP      R16, R17
   \   00000A64   F009               BREQ    $+2+2
   \   00000A66   CAD5               RJMP    ??proc_ppp_packet_1
   \   00000A68   01FC               MOVW    R31:R30, R25:R24
   \   00000A6A   8905               LDD     R16, Z+21
   \   00000A6C   ....               LDI     R30, LOW(ip_self)
   \   00000A6E   ....               LDI     R31, (ip_self) >> 8
   \   00000A70   8113               LDD     R17, Z+3
   \   00000A72   1701               CP      R16, R17
   \   00000A74   F009               BREQ    $+2+2
   \   00000A76   CACD               RJMP    ??proc_ppp_packet_1
   3685            
   3686           
   3687            
   3688            if(buf_rx_ppp[11]!=0x11)return(1);  //сверка с протоколом UDP
   \   00000A78   01FC               MOVW    R31:R30, R25:R24
   \   00000A7A   8503               LDD     R16, Z+11
   \   00000A7C   3101               CPI     R16, 17
   \   00000A7E   F009               BREQ    $+2+2
   \   00000A80   CAC8               RJMP    ??proc_ppp_packet_1
   3689            
   3690            
   3691          
   3692            
   3693            Crc_out.bytes[0]=buf_rx_ppp[28];    //проверка CRC UDP 
   \   00000A82   8D04               LDD     R16, Z+28
   \   00000A84   830A               STD     Y+2, R16
   3694            Crc_out.bytes[1]=buf_rx_ppp[29];  
   \   00000A86   8D05               LDD     R16, Z+29
   \   00000A88   830B               STD     Y+3, R16
   3695            buf_rx_ppp[28]=0; 
   \   00000A8A   E000               LDI     R16, 0
   \   00000A8C   8F04               STD     Z+28, R16
   3696            buf_rx_ppp[29]=0; 
   \   00000A8E   8F05               STD     Z+29, R16
   3697            temp.bytes[1]=buf_rx_ppp[26]; 
   \   00000A90   8D02               LDD     R16, Z+26
   \   00000A92   8309               STD     Y+1, R16
   3698            temp.bytes[0]=buf_rx_ppp[27]; 
   \   00000A94   8D03               LDD     R16, Z+27
   \   00000A96   8308               ST      Y, R16
   3699            temp.word=calc_crc_udp_2(&buf_rx_ppp[0],temp.word);
   \   00000A98   8128               LD      R18, Y
   \   00000A9A   8139               LDD     R19, Y+1
   \   00000A9C   018C               MOVW    R17:R16, R25:R24
   \   00000A9E   ....               RCALL   calc_crc_udp_2
   \   00000AA0   8308               ST      Y, R16
   \   00000AA2   8319               STD     Y+1, R17
   3700            if(Crc_out.word!=temp.word)return(1); 
   \   00000AA4   810A               LDD     R16, Y+2
   \   00000AA6   811B               LDD     R17, Y+3
   \   00000AA8   8128               LD      R18, Y
   \   00000AAA   8139               LDD     R19, Y+1
   \   00000AAC   1702               CP      R16, R18
   \   00000AAE   0713               CPC     R17, R19
   \   00000AB0   F009               BREQ    $+2+2
   \   00000AB2   CAAF               RJMP    ??proc_ppp_packet_1
   3701             
   3702            
   3703             Crc_out.bytes[1]=port_udp>>8;
   \   00000AB4   ....               LDI     R30, LOW(port_udp)
   \   00000AB6   ....               LDI     R31, (port_udp) >> 8
   \   00000AB8   8111               LDD     R17, Z+1
   \   00000ABA   831B               STD     Y+3, R17
   3704             Crc_out.bytes[0]=port_udp;
   \   00000ABC   8100               LD      R16, Z
   \   00000ABE   830A               STD     Y+2, R16
   3705             if((buf_rx_ppp[24]!=Crc_out.bytes[1])||       //проверка UDP порта 
   3706                (buf_rx_ppp[25]!=Crc_out.bytes[0]))return(1); 
   \   00000AC0   01FC               MOVW    R31:R30, R25:R24
   \   00000AC2   8D00               LDD     R16, Z+24
   \   00000AC4   811B               LDD     R17, Y+3
   \   00000AC6   1701               CP      R16, R17
   \   00000AC8   F009               BREQ    $+2+2
   \   00000ACA   CAA3               RJMP    ??proc_ppp_packet_1
   \   00000ACC   8D01               LDD     R16, Z+25
   \   00000ACE   811A               LDD     R17, Y+2
   \   00000AD0   1701               CP      R16, R17
   \   00000AD2   F009               BREQ    $+2+2
   \   00000AD4   CA9E               RJMP    ??proc_ppp_packet_1
   3707            
   3708              
   3709            
   3710             
   3711             if(proc_udp_data(buf_rx_ppp,count_rx_ppp)==0)return(1); 
   \   00000AD6   0193               MOVW    R19:R18, R7:R6
   \   00000AD8   018C               MOVW    R17:R16, R25:R24
   \   00000ADA   ....               RCALL   proc_udp_data
   \   00000ADC   CA9A               RJMP    ??proc_ppp_packet_1
   3712           
   3713                           
   3714              break;
   3715                } 
   3716           
   3717           return(1);  
   3718           }
   3719           
   3720           
   3721           
   3722           //!!!!!!!!!!!!!!!!!!!!!!!!!!!!!!!!!!!!!!!!!!!!!!!!!!!!!!!!!!!!!!
   3723           

   \                                 In segment CODE, align 2, keep-with-next
   3724           void send_no_sinc(unsigned char id,unsigned int dst,unsigned char error)
   \                     send_no_sinc:
   3725              {
   \   00000000   ........           CALL    ?PROLOGUE4_L09
   \   00000004   2FB0               MOV     R27, R16
   \   00000006   01C9               MOVW    R25:R24, R19:R18
   \   00000008   2FA1               MOV     R26, R17
   3726                 if(fl_ip.act_ip_end!=1)return;
   \   0000000A   ....               LDI     R30, LOW(ip_pri_dns)
   \   0000000C   ....               LDI     R31, (ip_pri_dns) >> 8
   \   0000000E   8504               LDD     R16, Z+12
   \   00000010   FF00               SBRS    R16, 0
   \   00000012   C051               RJMP    ??send_no_sinc_0
   3727                    fl_ip.act_ip_end=0;      
   \   00000014   8504               LDD     R16, Z+12
   \   00000016   7F0E               ANDI    R16, 0xFE
   \   00000018   8704               STD     Z+12, R16
   3728                    clr_cntr_nat();
   \   0000001A   ........           CALL    clr_cntr_nat
   3729                    clr_cntr_link();
   \   0000001E   ........           CALL    clr_cntr_link
   3730                    Obj_ppp_tx.prozr=FALSE;            
   \   00000022   ....               LDI     R16, LOW(Obj_ppp_tx)
   \   00000024   ....               LDI     R17, (Obj_ppp_tx) >> 8
   \   00000026   E020               LDI     R18, 0
   \   00000028   01F8               MOVW    R31:R30, R17:R16
   \   0000002A   8320               ST      Z, R18
   3731                    Obj_ppp_tx.version=VER2;      //версия 
   \   0000002C   E022               LDI     R18, 2
   \   0000002E   8321               STD     Z+1, R18
   3732                    Obj_ppp_tx.type_pac=OTV;     //тип пакета
   \   00000030   E021               LDI     R18, 1
   \   00000032   8322               STD     Z+2, R18
   3733                    Obj_ppp_tx.num_src=num_self; // номер отправителя
   \   00000034   ....               LDI     R30, LOW(num_self)
   \   00000036   ....               LDI     R31, (num_self) >> 8
   \   00000038   8120               LD      R18, Z
   \   0000003A   8131               LDD     R19, Z+1
   \   0000003C   01F8               MOVW    R31:R30, R17:R16
   \   0000003E   8323               STD     Z+3, R18
   \   00000040   8334               STD     Z+4, R19
   3734                    Obj_ppp_tx.num_dst=dst; // номер получателя
   \   00000042   8385               STD     Z+5, R24
   \   00000044   8396               STD     Z+6, R25
   3735                   
   3736                    Obj_ppp_tx.id_pac=id; // идентификатор пакета  
   \   00000046   83B7               STD     Z+7, R27
   3737                    Obj_ppp_tx.p_opt=&buf_opt_tr[0]; // //указатель буфера опций          
   \   00000048   ....               LDI     R18, LOW(buf_opt_tr)
   \   0000004A   ....               LDI     R19, (buf_opt_tr) >> 8
   \   0000004C   8720               STD     Z+8, R18
   \   0000004E   8731               STD     Z+9, R19
   3738                    
   3739                    
   3740                  Obj_ppp_tx.l_opt=3;// длина буфера опций   
   \   00000050   E043               LDI     R20, 3
   \   00000052   8742               STD     Z+10, R20
   3741                  buf_opt_tr[0]=KOD_OP_ERROR;
   \   00000054   E044               LDI     R20, 4
   \   00000056   01F9               MOVW    R31:R30, R19:R18
   \   00000058   8340               ST      Z, R20
   3742                  buf_opt_tr[1]=3;
   \   0000005A   E043               LDI     R20, 3
   \   0000005C   8341               STD     Z+1, R20
   3743                  buf_opt_tr[2]=error;
   \   0000005E   83A2               STD     Z+2, R26
   3744                  
   3745                  //Obj_ppp_tx.kol_opt=1;// количество опций     
   3746                 
   3747                 
   3748                   Obj_ppp_tx.l_data=0;   // длина данных
   \   00000060   E020               LDI     R18, 0
   \   00000062   01F8               MOVW    R31:R30, R17:R16
   \   00000064   8726               STD     Z+14, R18
   \   00000066   8727               STD     Z+15, R18
   3749                   Obj_ppp_tx.p_data=&buf_tx_232[TR_OP_DATA+C1_PROT];  //указатель буфера данных
   \   00000068   ....               LDI     R18, LOW((buf_tx_232 + 42))
   \   0000006A   ....               LDI     R19, HIGH((buf_tx_232 + 42))
   \   0000006C   8724               STD     Z+12, R18
   \   0000006E   8735               STD     Z+13, R19
   3750                  
   3751                   form_buf_tx_ppp();                            
   \   00000070   ........           CALL    form_buf_tx_ppp
   3752                   UCSR0A=UCSR0A | TXC;                            
   \   00000074   910000C0           LDS     R16, 192
   \   00000078   6400               ORI     R16, 0x40
   \   0000007A   930000C0           STS     192, R16
   3753                   UCSR0B=UCSR0B | TXEN;
   \   0000007E   910000C1           LDS     R16, 193
   \   00000082   6008               ORI     R16, 0x08
   \   00000084   930000C1           STS     193, R16
   3754                   UCSR0B=UCSR0B | TXCIE;
   \   00000088   910000C1           LDS     R16, 193
   \   0000008C   6400               ORI     R16, 0x40
   \   0000008E   930000C1           STS     193, R16
   3755                   if(check_cts()==1) return;                
   \   00000092   ........           CALL    check_cts
   \   00000096   3001               CPI     R16, 1
   \   00000098   F071               BREQ    ??send_no_sinc_0
   3756                   S2_RD;
   \   0000009A   9A40               SBI     0x08, 0x00
   \   0000009C   9841               CBI     0x08, 0x01
   3757                   UDR0=buf_tx_232[0];
   \   0000009E   9100....           LDS     R16, buf_tx_232
   \   000000A2   930000C6           STS     198, R16
   3758                   if(Regim==RG_DEBAG) UDR3=buf_tx_232[0];
   \   000000A6   9100....           LDS     R16, Regim
   \   000000AA   3001               CPI     R16, 1
   \   000000AC   F421               BRNE    ??send_no_sinc_0
   \   000000AE   9100....           LDS     R16, buf_tx_232
   \   000000B2   93000136           STS     310, R16
   \                     ??send_no_sinc_0:
   \   000000B6   E0E4               LDI     R30, 4
   \   000000B8   ........           JMP     ?EPILOGUE_B4_L09
   3759                   return;     
   3760              }
   3761          
   3762          

   \                                 In segment CODE, align 2, keep-with-next
   3763          unsigned char proc_paging(void)
   \                     proc_paging:
   3764          { 
   \   00000000   01AC               MOVW    R21:R20, R25:R24
   3765           if(fl_pg_out.hold_pg==1)
   \   00000002   ....               LDI     R30, LOW(Obj_ppp_tx)
   \   00000004   ....               LDI     R31, (Obj_ppp_tx) >> 8
   \   00000006   A123               LDD     R18, Z+35
   \   00000008   A101               LDD     R16, Z+33
   \   0000000A   FF05               SBRS    R16, 5
   \   0000000C   C041               RJMP    ??proc_paging_0
   3766              {
   3767              
   3768                   if((fl_pg_out.first_pg==1)&&(cnt_pg==0))
   \   0000000E   8D00               LDD     R16, Z+24
   \   00000010   8D11               LDD     R17, Z+25
   \   00000012   A131               LDD     R19, Z+33
   \   00000014   FF34               SBRS    R19, 4
   \   00000016   C008               RJMP    ??proc_paging_1
   \   00000018   2F30               MOV     R19, R16
   \   0000001A   2B31               OR      R19, R17
   \   0000001C   F429               BRNE    ??proc_paging_1
   3769                   { 
   3770                   cnt_pg=0;
   3771                   fl_pg_out.first_pg=0;
   3772                   fl_pg_out.end_pg=0;
   3773                   fl_pg_out.hold_pg=0;
   3774                   fl_pg_out.ch_crc=0;
   3775                   fl_pg_out.cor_pg=0;
   \                     ??proc_paging_2:
   \   0000001E   A101               LDD     R16, Z+33
   \   00000020   7C04               ANDI    R16, 0xC4
   \   00000022   A301               STD     Z+33, R16
   3776                   // дать ошибку рассинхронизация 
   3777                   return(1);
   \   00000024   E001               LDI     R16, 1
   \   00000026   C015               RJMP    ??proc_paging_3
   3778                   }
   3779              
   3780                  if((fl_pg_out.first_pg==1)&&(cnt_pg!=0))
   \                     ??proc_paging_1:
   \   00000028   A131               LDD     R19, Z+33
   \   0000002A   FF34               SBRS    R19, 4
   \   0000002C   C014               RJMP    ??proc_paging_4
   \   0000002E   2B01               OR      R16, R17
   \   00000030   F091               BREQ    ??proc_paging_4
   3781                   {                                      // это в случае когда процесс прерван а потом заново возобновляется
   3782                    fl_pg_out.hold_pg=1;
   3783                    fl_pg_out.first_pg=0;
   3784                    cnt_pg=0;
   \                     ??proc_paging_5:
   \   00000032   E000               LDI     R16, 0
   \   00000034   8F00               STD     Z+24, R16
   \   00000036   8F01               STD     Z+25, R16
   3785                    id_pg_kp=id_pg_appl+1;
   \   00000038   9523               INC     R18
   \   0000003A   A322               STD     Z+34, R18
   3786                    fl_pg_out.cor_pg=1;
   \   0000003C   A101               LDD     R16, Z+33
   \   0000003E   7E0F               ANDI    R16, 0xEF
   \   00000040   6208               ORI     R16, 0x28
   \                     ??proc_paging_6:
   \   00000042   A301               STD     Z+33, R16
   3787                    goto check_end_pg;
   3788                   }
   3789                
   3790              
   3791               
   3792                
   3793                
   3794                if(id_pg_kp==id_pg_appl)
   3795                   {
   3796                    cnt_pg++;
   3797                    id_pg_kp++;
   3798                    fl_pg_out.cor_pg=1;
   3799                    goto check_end_pg;
   3800                   }
   3801                   else
   3802                   {
   3803                    fl_pg_out.cor_pg=0;
   3804                    if(id_pg_appl==(id_pg_kp-1))goto check_end_pg;
   3805                       else
   3806                       {
   3807                        cnt_pg=0;
   3808                        fl_pg_out.first_pg=0;
   3809                        fl_pg_out.end_pg=0;
   3810                        fl_pg_out.hold_pg=0;
   3811                        fl_pg_out.ch_crc=0;
   3812                        fl_pg_out.cor_pg=0;
   3813                        // дать ошибку рассинхронизация 
   3814                        return(1);
   3815                       }
   3816                   }   
   3817                   
   3818              }
   3819              else
   3820              {
   3821                if(fl_pg_out.first_pg==1)
   3822                   {
   3823                    fl_pg_out.hold_pg=1;
   3824                    fl_pg_out.first_pg=0;
   3825                    cnt_pg=0;
   3826                    id_pg_kp=id_pg_appl+1;
   3827                    fl_pg_out.cor_pg=1;
   3828                    goto check_end_pg;
   3829                   }
   3830                   else
   3831                   {
   3832                   cnt_pg=0;
   3833                   fl_pg_out.first_pg=0;
   3834                   fl_pg_out.end_pg=0;
   3835                   fl_pg_out.hold_pg=0;
   3836                   fl_pg_out.ch_crc=0;
   3837                   fl_pg_out.cor_pg=0;
   3838                   // дать ошибку рассинхронизация 
   3839                   return(1);
   3840                   }
   3841              }
   3842              
   3843          check_end_pg:
   3844              
   3845              if(fl_pg_out.end_pg==1)
   \                     ??proc_paging_7:
   \   00000044   A101               LDD     R16, Z+33
   \   00000046   FF00               SBRS    R16, 0
   \   00000048   C003               RJMP    ??proc_paging_8
   3846                 {
   3847                   fl_pg_out.hold_pg=0;
   3848                   fl_pg_out.first_pg=0;
   \   0000004A   A101               LDD     R16, Z+33
   \   0000004C   7C0F               ANDI    R16, 0xCF
   \   0000004E   A301               STD     Z+33, R16
   3849                 }
   3850                    
   3851          return(0);
   \                     ??proc_paging_8:
   \   00000050   E000               LDI     R16, 0
   \                     ??proc_paging_3:
   \   00000052   01CA               MOVW    R25:R24, R21:R20
   \   00000054   9508               RET
   \                     ??proc_paging_4:
   \   00000056   A182               LDD     R24, Z+34
   \   00000058   1782               CP      R24, R18
   \   0000005A   F461               BRNE    ??proc_paging_9
   \   0000005C   8D00               LDD     R16, Z+24
   \   0000005E   8D11               LDD     R17, Z+25
   \   00000060   5F0F               SUBI    R16, 255
   \   00000062   4F1F               SBCI    R17, 255
   \   00000064   8F00               STD     Z+24, R16
   \   00000066   8F11               STD     Z+25, R17
   \   00000068   A102               LDD     R16, Z+34
   \   0000006A   9503               INC     R16
   \   0000006C   A302               STD     Z+34, R16
   \   0000006E   A101               LDD     R16, Z+33
   \   00000070   6008               ORI     R16, 0x08
   \   00000072   CFE7               RJMP    ??proc_paging_6
   \                     ??proc_paging_9:
   \   00000074   A101               LDD     R16, Z+33
   \   00000076   7F07               ANDI    R16, 0xF7
   \   00000078   A301               STD     Z+33, R16
   \   0000007A   2F02               MOV     R16, R18
   \   0000007C   E010               LDI     R17, 0
   \   0000007E   E090               LDI     R25, 0
   \   00000080   9701               SBIW    R25:R24, 1
   \   00000082   1708               CP      R16, R24
   \   00000084   0719               CPC     R17, R25
   \   00000086   F2F1               BREQ    ??proc_paging_7
   \                     ??proc_paging_10:
   \   00000088   E000               LDI     R16, 0
   \   0000008A   8F00               STD     Z+24, R16
   \   0000008C   8F01               STD     Z+25, R16
   \   0000008E   CFC7               RJMP    ??proc_paging_2
   \                     ??proc_paging_0:
   \   00000090   A101               LDD     R16, Z+33
   \   00000092   FD04               SBRC    R16, 4
   \   00000094   CFCE               RJMP    ??proc_paging_5
   \   00000096   CFF8               RJMP    ??proc_paging_10
   3852          }
   3853           
   3854           

   \                                 In segment CODE, align 2, keep-with-next
   3855           unsigned char proc_option(unsigned char *buf_rx_ppp,unsigned int ind,unsigned int count_rx_opt)
   \                     proc_option:
   3856           {
   \   00000000   ........           CALL    ?PROLOGUE10_L09
   \   00000004                      REQUIRE ?Register_R4_is_cg_reg
   \   00000004                      REQUIRE ?Register_R5_is_cg_reg
   \   00000004                      REQUIRE ?Register_R6_is_cg_reg
   \   00000004                      REQUIRE ?Register_R7_is_cg_reg
   \   00000004                      REQUIRE ?Register_R8_is_cg_reg
   \   00000004                      REQUIRE ?Register_R9_is_cg_reg
   \   00000004   01C8               MOVW    R25:R24, R17:R16
   \   00000006   0129               MOVW    R5:R4, R19:R18
   \   00000008   014A               MOVW    R9:R8, R21:R20
   3857          
   3858           unsigned char tt;
   3859          //return 0 ошибка, игнорировать, весь некорректный пакет
   3860          // return 1 - прочитаны все опции (при поступившем запросе) дальше выход и выдача ответ на запрос 
   3861          // return 2 - ответить сразу размером страницы
   3862          unsigned char cnt=0;
   \   0000000A   2466               CLR     R6
   \   0000000C   C037               RJMP    ??proc_option_0
   3863           
   3864           next_option: 
   3865                         
   3866                         switch(buf_rx_ppp[ind])
   3867                           {
   3868                           case KOD_OP_ERROR:  
   3869                                            
   3870                                            if(buf_rx_ppp[ind+1]!=L_ERR_NO_INTABL)return(0);   
   3871                                            if(buf_rx_ppp[ind+2]!=ERR_NO_INTABL)return(0);
   3872                                            if(((buf_rx_ppp[TR_V]>>4)&0x03)!=KVIT)return(0);
   3873                                            if(*(unsigned int*)&buf_rx_ppp[ind+3]==num_seq_cl)
   3874                                             {
   3875                                      
   3876                                              Appl_seq.cnt_cntr_cl=0;
   3877                                              Appl_seq.cntr_cl=TRUE;
   3878                                              Appl_seq.en_cntr_cl=TRUE;
   3879                                              Appl_seq.cnt_try=0;
   3880                                              fl_appl_seq.en_povtor=0; 
   3881                                              Appl_seq.l_data=0; 
   3882                                              Appl_seq.cnt_waits=0;
   3883                                              fl_appl_seq.kv_waits=0;
   3884                                              }
   3885                                      
   3886                                               cnt_no_link=vol_cnt_no_link;//dobavka
   3887                                            
   3888                                               Control.link_waits=FALSE;
   3889                                               Control.cnt_link=Control.vol_link;                  
   3890                                               Control.link=FALSE; 
   3891                                     
   3892                                               Control.cnt_try=0;
   3893                                               Control.link_no=FALSE;
   3894                                               return(0);
   3895                           
   3896                           case KOD_OP_LUFKIN: 
   3897                                               if(buf_rx_ppp[ind+1]!=L_OP_LUFKIN)return(0);  
   3898                                               if(((buf_rx_ppp[TR_V]>>4)&0x03)!=ZAPR)return(0);
   3899                                               delay_pre_tx=*(unsigned int*)&buf_rx_ppp[ind+2]; 
   3900                                               if(delay_pre_tx>5000){delay_pre_tx=0;return(0); }//5 секунд                                       
   3901                                               return(1);
   3902                            
   3903                           case KOD_OP_SIZE_PG: 
   3904                                                if(buf_rx_ppp[ind+1]!=L_OP_SIZE_PG)return(0);   
   3905                                                if(((buf_rx_ppp[TR_V]>>4)&0x03)!=ZAPR)return(0);                                                             
   3906                                                return(2); 
   3907                           
   3908                           case KOD_WR_PG: 
   3909                                                if(buf_rx_ppp[ind+1]!=L_OP_WR_PG)return(0);   
   3910                                                if(((buf_rx_ppp[TR_V]>>4)&0x03)!=ZAPR)return(0);
   3911                                                if (buf_rx_ppp[ind+2] & FIRST_PG) fl_pg_out.first_pg=1;else fl_pg_out.first_pg=0; 
   3912                                                if (buf_rx_ppp[ind+2] & NO_END_PG) fl_pg_out.end_pg=0;else fl_pg_out.end_pg=1;                                                        
   3913                                                if (buf_rx_ppp[ind+2] & NADO_KV) fl_pg_out.send_kv=1;else fl_pg_out.send_kv=0;
   3914                                                id_pg_appl=buf_rx_ppp[ind+3];
   3915                                                break;
   3916                                                            
   3917                           case KOD_WR_PG_CRC: 
   3918                                               
   3919                                                fl_pg_out.ch_crc=0;
   \                     ??proc_option_1:
   \   0000000E   01F8               MOVW    R31:R30, R17:R16
   \   00000010   A121               LDD     R18, Z+33
   \   00000012   7F2D               ANDI    R18, 0xFD
   \   00000014   A321               STD     Z+33, R18
   3920                                                if(buf_rx_ppp[ind+1]!=L_OP_WR_PG_CRC)return(0);   
   \   00000016   01FD               MOVW    R31:R30, R27:R26
   \   00000018   8121               LDD     R18, Z+1
   \   0000001A   3024               CPI     R18, 4
   \   0000001C   F009               BREQ    $+2+2
   \   0000001E   C047               RJMP    ??proc_option_2
   3921                                                if(((buf_rx_ppp[TR_V]>>4)&0x03)!=ZAPR)return(0); 
   \   00000020   01FC               MOVW    R31:R30, R25:R24
   \   00000022   A124               LDD     R18, Z+36
   \   00000024   9522               SWAP    R18
   \   00000026   702F               ANDI    R18, 0x0F
   \   00000028   7023               ANDI    R18, 0x03
   \   0000002A   F009               BREQ    $+2+2
   \   0000002C   C040               RJMP    ??proc_option_2
   3922                                                fl_pg_out.ch_crc=1;
   \   0000002E   01F8               MOVW    R31:R30, R17:R16
   \   00000030   A121               LDD     R18, Z+33
   \   00000032   6022               ORI     R18, 0x02
   \   00000034   A321               STD     Z+33, R18
   3923                                                pg_crc=*(unsigned int*)&buf_rx_ppp[ind+2];                                                            
   \   00000036   01FD               MOVW    R31:R30, R27:R26
   \   00000038   8122               LDD     R18, Z+2
   \   0000003A   8133               LDD     R19, Z+3
   \   0000003C   01F8               MOVW    R31:R30, R17:R16
   \   0000003E   8B26               STD     Z+22, R18
   \   00000040   8B37               STD     Z+23, R19
   3924                                                break;
   3925                           
   3926                                            
   3927                           default:  return(0);   
   3928                                        
   3929                           }
   3930           
   3931           //здесь высчитывается длина заполнителя              
   3932           tt=4-((buf_rx_ppp[ind+1]+4)%4);
   \                     ??proc_option_3:
   \   00000042   01FD               MOVW    R31:R30, R27:R26
   \   00000044   8101               LDD     R16, Z+1
   \   00000046   E010               LDI     R17, 0
   \   00000048   5F0C               SUBI    R16, 252
   \   0000004A   4F1F               SBCI    R17, 255
   \   0000004C   E044               LDI     R20, 4
   \   0000004E   E050               LDI     R21, 0
   \   00000050   ........           CALL    ?SS_DIVMOD_L02
   \   00000054   E004               LDI     R16, 4
   \   00000056   1B04               SUB     R16, R20
   3933           if(tt==4)tt=0;           
   \   00000058   3004               CPI     R16, 4
   \   0000005A   F409               BRNE    ??proc_option_4
   \   0000005C   E000               LDI     R16, 0
   3934           ///////////////
   3935           
   3936           cnt=cnt+buf_rx_ppp[ind+1]+tt;
   \                     ??proc_option_4:
   \   0000005E   01FD               MOVW    R31:R30, R27:R26
   \   00000060   8111               LDD     R17, Z+1
   \   00000062   0F10               ADD     R17, R16
   \   00000064   0E61               ADD     R6, R17
   3937           if(cnt>=count_rx_opt)return(1);//все опции просчитаны
   \   00000066   2477               CLR     R7
   \   00000068   1468               CP      R6, R8
   \   0000006A   0479               CPC     R7, R9
   \   0000006C   F008               BRCS    $+2+2
   \   0000006E   C07D               RJMP    ??proc_option_5
   3938                  
   3939           ind=ind+buf_rx_ppp[ind+1]+tt;               
   \   00000070   8121               LDD     R18, Z+1
   \   00000072   E010               LDI     R17, 0
   \   00000074   0F02               ADD     R16, R18
   \   00000076   1D17               ADC     R17, R7
   \   00000078   0E40               ADD     R4, R16
   \   0000007A   1E51               ADC     R5, R17
   3940           //if(ind>=count_rx_opt)return(1);
   3941           goto next_option;
   \                     ??proc_option_0:
   \   0000007C   01DC               MOVW    R27:R26, R25:R24
   \   0000007E   0DA4               ADD     R26, R4
   \   00000080   1DB5               ADC     R27, R5
   \   00000082   ....               LDI     R16, LOW(Obj_ppp_tx)
   \   00000084   ....               LDI     R17, (Obj_ppp_tx) >> 8
   \   00000086   912C               LD      R18, X
   \   00000088   5021               SUBI    R18, 1
   \   0000008A   F409               BRNE    $+2+2
   \   0000008C   C070               RJMP    ??proc_option_6
   \   0000008E   952A               DEC     R18
   \   00000090   F409               BRNE    $+2+2
   \   00000092   C07B               RJMP    ??proc_option_7
   \   00000094   952A               DEC     R18
   \   00000096   F409               BRNE    $+2+2
   \   00000098   CFBA               RJMP    ??proc_option_1
   \   0000009A   952A               DEC     R18
   \   0000009C   F021               BREQ    ??proc_option_8
   \   0000009E   5022               SUBI    R18, 2
   \   000000A0   F409               BRNE    $+2+2
   \   000000A2   C049               RJMP    ??proc_option_9
   \   000000A4   C004               RJMP    ??proc_option_2
   \                     ??proc_option_8:
   \   000000A6   01FD               MOVW    R31:R30, R27:R26
   \   000000A8   8101               LDD     R16, Z+1
   \   000000AA   3005               CPI     R16, 5
   \   000000AC   F021               BREQ    ??proc_option_10
   \                     ??proc_option_2:
   \   000000AE   E000               LDI     R16, 0
   \                     ??proc_option_11:
   \   000000B0   E0EA               LDI     R30, 10
   \   000000B2   ........           JMP     ?EPILOGUE_B10_L09
   \                     ??proc_option_10:
   \   000000B6   8102               LDD     R16, Z+2
   \   000000B8   3001               CPI     R16, 1
   \   000000BA   F7C9               BRNE    ??proc_option_2
   \   000000BC   01FC               MOVW    R31:R30, R25:R24
   \   000000BE   A104               LDD     R16, Z+36
   \   000000C0   9502               SWAP    R16
   \   000000C2   700F               ANDI    R16, 0x0F
   \   000000C4   7003               ANDI    R16, 0x03
   \   000000C6   3003               CPI     R16, 3
   \   000000C8   F791               BRNE    ??proc_option_2
   \   000000CA   01FD               MOVW    R31:R30, R27:R26
   \   000000CC   8103               LDD     R16, Z+3
   \   000000CE   8114               LDD     R17, Z+4
   \   000000D0   ....               LDI     R30, LOW(num_seq_cl)
   \   000000D2   ....               LDI     R31, (num_seq_cl) >> 8
   \   000000D4   8120               LD      R18, Z
   \   000000D6   8131               LDD     R19, Z+1
   \   000000D8   1702               CP      R16, R18
   \   000000DA   0713               CPC     R17, R19
   \   000000DC   F499               BRNE    ??proc_option_12
   \   000000DE   ....               LDI     R30, LOW(Appl_seq)
   \   000000E0   ....               LDI     R31, (Appl_seq) >> 8
   \   000000E2   E000               LDI     R16, 0
   \   000000E4   E010               LDI     R17, 0
   \   000000E6   8B06               STD     Z+22, R16
   \   000000E8   8B07               STD     Z+23, R16
   \   000000EA   E001               LDI     R16, 1
   \   000000EC   8B04               STD     Z+20, R16
   \   000000EE   8B05               STD     Z+21, R16
   \   000000F0   8713               STD     Z+11, R17
   \   000000F2   8714               STD     Z+12, R17
   \   000000F4   8715               STD     Z+13, R17
   \   000000F6   8711               STD     Z+9, R17
   \   000000F8   8712               STD     Z+10, R17
   \   000000FA   ....               LDI     R30, LOW(fl_appl_seq)
   \   000000FC   ....               LDI     R31, (fl_appl_seq) >> 8
   \   000000FE   8100               LD      R16, Z
   \   00000100   7F09               ANDI    R16, 0xF9
   \   00000102   8300               ST      Z, R16
   \                     ??proc_option_12:
   \   00000104   ....               LDI     R30, LOW(vol_cnt_no_link)
   \   00000106   ....               LDI     R31, (vol_cnt_no_link) >> 8
   \   00000108   8100               LD      R16, Z
   \   0000010A   8111               LDD     R17, Z+1
   \   0000010C   8122               LDD     R18, Z+2
   \   0000010E   8133               LDD     R19, Z+3
   \   00000110   ....               LDI     R30, LOW(cnt_no_link)
   \   00000112   ....               LDI     R31, (cnt_no_link) >> 8
   \   00000114   8300               ST      Z, R16
   \   00000116   8311               STD     Z+1, R17
   \   00000118   8322               STD     Z+2, R18
   \   0000011A   8333               STD     Z+3, R19
   \   0000011C   ....               LDI     R30, LOW(Control)
   \   0000011E   ....               LDI     R31, (Control) >> 8
   \   00000120   E000               LDI     R16, 0
   \   00000122   8301               STD     Z+1, R16
   \   00000124   8500               LDD     R16, Z+8
   \   00000126   8511               LDD     R17, Z+9
   \   00000128   8304               STD     Z+4, R16
   \   0000012A   8315               STD     Z+5, R17
   \   0000012C   E000               LDI     R16, 0
   \   0000012E   8302               STD     Z+2, R16
   \   00000130   8706               STD     Z+14, R16
   \   00000132   8300               ST      Z, R16
   \   00000134   CFBC               RJMP    ??proc_option_2
   \                     ??proc_option_9:
   \   00000136   01FD               MOVW    R31:R30, R27:R26
   \   00000138   8121               LDD     R18, Z+1
   \   0000013A   3024               CPI     R18, 4
   \   0000013C   F009               BREQ    $+2+2
   \   0000013E   CFB7               RJMP    ??proc_option_2
   \   00000140   01FC               MOVW    R31:R30, R25:R24
   \   00000142   A124               LDD     R18, Z+36
   \   00000144   9522               SWAP    R18
   \   00000146   702F               ANDI    R18, 0x0F
   \   00000148   7023               ANDI    R18, 0x03
   \   0000014A   F009               BREQ    $+2+2
   \   0000014C   CFB0               RJMP    ??proc_option_2
   \   0000014E   01FD               MOVW    R31:R30, R27:R26
   \   00000150   8122               LDD     R18, Z+2
   \   00000152   8133               LDD     R19, Z+3
   \   00000154   01F8               MOVW    R31:R30, R17:R16
   \   00000156   8B20               STD     Z+16, R18
   \   00000158   8B31               STD     Z+17, R19
   \   0000015A   3829               CPI     R18, 137
   \   0000015C   E143               LDI     R20, 19
   \   0000015E   0734               CPC     R19, R20
   \   00000160   F020               BRCS    ??proc_option_5
   \   00000162   E020               LDI     R18, 0
   \   00000164   8B20               STD     Z+16, R18
   \   00000166   8B21               STD     Z+17, R18
   \   00000168   CFA2               RJMP    ??proc_option_2
   \                     ??proc_option_5:
   \   0000016A   E001               LDI     R16, 1
   \   0000016C   CFA1               RJMP    ??proc_option_11
   \                     ??proc_option_6:
   \   0000016E   01FD               MOVW    R31:R30, R27:R26
   \   00000170   8101               LDD     R16, Z+1
   \   00000172   3003               CPI     R16, 3
   \   00000174   F009               BREQ    $+2+2
   \   00000176   CF9B               RJMP    ??proc_option_2
   \   00000178   01FC               MOVW    R31:R30, R25:R24
   \   0000017A   A104               LDD     R16, Z+36
   \   0000017C   9502               SWAP    R16
   \   0000017E   700F               ANDI    R16, 0x0F
   \   00000180   7003               ANDI    R16, 0x03
   \   00000182   F009               BREQ    $+2+2
   \   00000184   CF94               RJMP    ??proc_option_2
   \   00000186   E002               LDI     R16, 2
   \   00000188   CF93               RJMP    ??proc_option_11
   \                     ??proc_option_7:
   \   0000018A   01FD               MOVW    R31:R30, R27:R26
   \   0000018C   8121               LDD     R18, Z+1
   \   0000018E   3024               CPI     R18, 4
   \   00000190   F009               BREQ    $+2+2
   \   00000192   CF8D               RJMP    ??proc_option_2
   \   00000194   01FC               MOVW    R31:R30, R25:R24
   \   00000196   A124               LDD     R18, Z+36
   \   00000198   9522               SWAP    R18
   \   0000019A   702F               ANDI    R18, 0x0F
   \   0000019C   7023               ANDI    R18, 0x03
   \   0000019E   F009               BREQ    $+2+2
   \   000001A0   CF86               RJMP    ??proc_option_2
   \   000001A2   01FD               MOVW    R31:R30, R27:R26
   \   000001A4   8122               LDD     R18, Z+2
   \   000001A6   01F8               MOVW    R31:R30, R17:R16
   \   000001A8   FF20               SBRS    R18, 0
   \   000001AA   C003               RJMP    ??proc_option_13
   \   000001AC   A121               LDD     R18, Z+33
   \   000001AE   6120               ORI     R18, 0x10
   \   000001B0   C002               RJMP    ??proc_option_14
   \                     ??proc_option_13:
   \   000001B2   A121               LDD     R18, Z+33
   \   000001B4   7E2F               ANDI    R18, 0xEF
   \                     ??proc_option_14:
   \   000001B6   A321               STD     Z+33, R18
   \   000001B8   01FD               MOVW    R31:R30, R27:R26
   \   000001BA   8122               LDD     R18, Z+2
   \   000001BC   01F8               MOVW    R31:R30, R17:R16
   \   000001BE   FF21               SBRS    R18, 1
   \   000001C0   C003               RJMP    ??proc_option_15
   \   000001C2   A121               LDD     R18, Z+33
   \   000001C4   7F2E               ANDI    R18, 0xFE
   \   000001C6   C002               RJMP    ??proc_option_16
   \                     ??proc_option_15:
   \   000001C8   A121               LDD     R18, Z+33
   \   000001CA   6021               ORI     R18, 0x01
   \                     ??proc_option_16:
   \   000001CC   A321               STD     Z+33, R18
   \   000001CE   01FD               MOVW    R31:R30, R27:R26
   \   000001D0   8122               LDD     R18, Z+2
   \   000001D2   01F8               MOVW    R31:R30, R17:R16
   \   000001D4   FF22               SBRS    R18, 2
   \   000001D6   C003               RJMP    ??proc_option_17
   \   000001D8   A121               LDD     R18, Z+33
   \   000001DA   6024               ORI     R18, 0x04
   \   000001DC   C002               RJMP    ??proc_option_18
   \                     ??proc_option_17:
   \   000001DE   A121               LDD     R18, Z+33
   \   000001E0   7F2B               ANDI    R18, 0xFB
   \                     ??proc_option_18:
   \   000001E2   A321               STD     Z+33, R18
   \   000001E4   01FD               MOVW    R31:R30, R27:R26
   \   000001E6   8123               LDD     R18, Z+3
   \   000001E8   01F8               MOVW    R31:R30, R17:R16
   \   000001EA   A323               STD     Z+35, R18
   \   000001EC   CF2A               RJMP    ??proc_option_3
   3942           } 
   3943           
   3944           
   3945           

   \                                 In segment CODE, align 2, keep-with-next
   3946           void send_size_pg(unsigned char id,unsigned int dst)
   \                     send_size_pg:
   3947              {
   \   00000000   ........           CALL    ?PROLOGUE4_L09
   \   00000004   2FA0               MOV     R26, R16
   \   00000006   01C9               MOVW    R25:R24, R19:R18
   3948                 if(fl_ip.act_ip_end!=1)return;
   \   00000008   ....               LDI     R30, LOW(ip_pri_dns)
   \   0000000A   ....               LDI     R31, (ip_pri_dns) >> 8
   \   0000000C   8504               LDD     R16, Z+12
   \   0000000E   FF00               SBRS    R16, 0
   \   00000010   C056               RJMP    ??send_size_pg_0
   3949                    fl_ip.act_ip_end=0;      
   \   00000012   8504               LDD     R16, Z+12
   \   00000014   7F0E               ANDI    R16, 0xFE
   \   00000016   8704               STD     Z+12, R16
   3950                    clr_cntr_nat();
   \   00000018   ........           CALL    clr_cntr_nat
   3951                    clr_cntr_link();
   \   0000001C   ........           CALL    clr_cntr_link
   3952                    Obj_ppp_tx.prozr=FALSE;            
   \   00000020   ....               LDI     R16, LOW(Obj_ppp_tx)
   \   00000022   ....               LDI     R17, (Obj_ppp_tx) >> 8
   \   00000024   E020               LDI     R18, 0
   \   00000026   01F8               MOVW    R31:R30, R17:R16
   \   00000028   8320               ST      Z, R18
   3953                    Obj_ppp_tx.version=VER2;      //версия 
   \   0000002A   E022               LDI     R18, 2
   \   0000002C   8321               STD     Z+1, R18
   3954                    Obj_ppp_tx.type_pac=OTV;     //тип пакета
   \   0000002E   E021               LDI     R18, 1
   \   00000030   8322               STD     Z+2, R18
   3955                    Obj_ppp_tx.num_src=num_self; // номер отправителя
   \   00000032   ....               LDI     R30, LOW(num_self)
   \   00000034   ....               LDI     R31, (num_self) >> 8
   \   00000036   8120               LD      R18, Z
   \   00000038   8131               LDD     R19, Z+1
   \   0000003A   01F8               MOVW    R31:R30, R17:R16
   \   0000003C   8323               STD     Z+3, R18
   \   0000003E   8334               STD     Z+4, R19
   3956                    Obj_ppp_tx.num_dst=dst; // номер получателя
   \   00000040   8385               STD     Z+5, R24
   \   00000042   8396               STD     Z+6, R25
   3957                   
   3958                    Obj_ppp_tx.id_pac=id; // идентификатор пакета  
   \   00000044   83A7               STD     Z+7, R26
   3959                    Obj_ppp_tx.p_opt=&buf_opt_tr[0]; // //указатель буфера опций          
   \   00000046   ....               LDI     R30, LOW(buf_opt_tr)
   \   00000048   ....               LDI     R31, (buf_opt_tr) >> 8
   \   0000004A   01D8               MOVW    R27:R26, R17:R16
   \   0000004C   9618               ADIW    R27:R26, 8
   \   0000004E   93ED               ST      X+, R30
   \   00000050   93FC               ST      X, R31
   3960                    
   3961                    
   3962                  Obj_ppp_tx.l_opt=4;// длина буфера опций   
   \   00000052   E024               LDI     R18, 4
   \   00000054   01D8               MOVW    R27:R26, R17:R16
   \   00000056   961A               ADIW    R27:R26, 10
   \   00000058   932C               ST      X, R18
   3963                  buf_opt_tr[0]=KOD_OP_SIZE_PG;
   \   0000005A   E021               LDI     R18, 1
   \   0000005C   8320               ST      Z, R18
   3964                  buf_opt_tr[1]=L_OP_SIZE_PG_OTV;
   \   0000005E   E024               LDI     R18, 4
   \   00000060   8321               STD     Z+1, R18
   3965                  *(unsigned int*)&buf_opt_tr[2]=256;  
   \   00000062   E020               LDI     R18, 0
   \   00000064   E031               LDI     R19, 1
   \   00000066   8322               STD     Z+2, R18
   \   00000068   8333               STD     Z+3, R19
   3966                  
   3967                  //Obj_ppp_tx.kol_opt=1;// количество опций     
   3968                 
   3969                 
   3970                   Obj_ppp_tx.l_data=0;   // длина данных
   \   0000006A   01F8               MOVW    R31:R30, R17:R16
   \   0000006C   8726               STD     Z+14, R18
   \   0000006E   8727               STD     Z+15, R18
   3971                   Obj_ppp_tx.p_data=&buf_tx_232[TR_OP_DATA+C1_PROT];  //указатель буфера данных
   \   00000070   ....               LDI     R18, LOW((buf_tx_232 + 42))
   \   00000072   ....               LDI     R19, HIGH((buf_tx_232 + 42))
   \   00000074   8724               STD     Z+12, R18
   \   00000076   8735               STD     Z+13, R19
   3972                  
   3973                   form_buf_tx_ppp();                            
   \   00000078   ........           CALL    form_buf_tx_ppp
   3974                   UCSR0A=UCSR0A | TXC;                            
   \   0000007C   910000C0           LDS     R16, 192
   \   00000080   6400               ORI     R16, 0x40
   \   00000082   930000C0           STS     192, R16
   3975                   UCSR0B=UCSR0B | TXEN;
   \   00000086   910000C1           LDS     R16, 193
   \   0000008A   6008               ORI     R16, 0x08
   \   0000008C   930000C1           STS     193, R16
   3976                   UCSR0B=UCSR0B | TXCIE;
   \   00000090   910000C1           LDS     R16, 193
   \   00000094   6400               ORI     R16, 0x40
   \   00000096   930000C1           STS     193, R16
   3977                   if(check_cts()==1) return;                
   \   0000009A   ........           CALL    check_cts
   \   0000009E   3001               CPI     R16, 1
   \   000000A0   F071               BREQ    ??send_size_pg_0
   3978                   S2_RD;
   \   000000A2   9A40               SBI     0x08, 0x00
   \   000000A4   9841               CBI     0x08, 0x01
   3979                   UDR0=buf_tx_232[0];
   \   000000A6   9100....           LDS     R16, buf_tx_232
   \   000000AA   930000C6           STS     198, R16
   3980                   if(Regim==RG_DEBAG) UDR3=buf_tx_232[0];
   \   000000AE   9100....           LDS     R16, Regim
   \   000000B2   3001               CPI     R16, 1
   \   000000B4   F421               BRNE    ??send_size_pg_0
   \   000000B6   9100....           LDS     R16, buf_tx_232
   \   000000BA   93000136           STS     310, R16
   \                     ??send_size_pg_0:
   \   000000BE   E0E4               LDI     R30, 4
   \   000000C0   ........           JMP     ?EPILOGUE_B4_L09
   3981                   return;     
   3982              }
   3983           
   3984          /* 
   3985           void send_otv_ping(unsigned char id,unsigned int dst)
   3986              {
   3987                 if(fl_ip.act_ip_end!=1)return;
   3988                    fl_ip.act_ip_end=0;      
   3989                    clr_cntr_nat();
   3990                    clr_cntr_link();
   3991                    Obj_ppp_tx.prozr=FALSE;            
   3992                    Obj_ppp_tx.version=VER2;      //версия 
   3993                    Obj_ppp_tx.type_pac=OTV;     //тип пакета
   3994                    Obj_ppp_tx.num_src=num_self; // номер отправителя
   3995                    Obj_ppp_tx.num_dst=dst; // номер получателя
   3996                   
   3997                    Obj_ppp_tx.id_pac=id; // идентификатор пакета  
   3998                        
   3999                    Obj_ppp_tx.kol_opt=0;// количество опций   
   4000                    Obj_ppp_tx.l_opt=0;// длина буфера опций   
   4001                  
   4002                    Obj_ppp_tx.l_data=0;   // длина данных
   4003                   
   4004                    
   4005                   form_buf_tx_ppp();                            
   4006                   UCSR0A=UCSR0A | TXC;                            
   4007                   UCSR0B=UCSR0B | TXEN;
   4008                   UCSR0B=UCSR0B | TXCIE;
   4009                   if(check_cts()==1) return;                
   4010                   S2_RD;
   4011                   UDR0=buf_tx_232[0];
   4012                   if(Regim==RG_DEBAG) UDR3=buf_tx_232[0];
   4013                   return;     
   4014              }
   4015           
   4016           */
   4017           

   \                                 In segment CODE, align 2, keep-with-next
   4018            unsigned char proc_udp_data(unsigned char *buf_rx_ppp,unsigned int count_rx_ppp)
   \                     proc_udp_data:
   4019                         {
   \   00000000   ........           CALL    ?PROLOGUE16_L09
   \   00000004                      REQUIRE ?Register_R4_is_cg_reg
   \   00000004                      REQUIRE ?Register_R5_is_cg_reg
   \   00000004                      REQUIRE ?Register_R6_is_cg_reg
   \   00000004                      REQUIRE ?Register_R7_is_cg_reg
   \   00000004                      REQUIRE ?Register_R10_is_cg_reg
   \   00000004                      REQUIRE ?Register_R11_is_cg_reg
   \   00000004                      REQUIRE ?Register_R12_is_cg_reg
   \   00000004                      REQUIRE ?Register_R13_is_cg_reg
   \   00000004                      REQUIRE ?Register_R14_is_cg_reg
   \   00000004                      REQUIRE ?Register_R15_is_cg_reg
   \   00000004   9722               SBIW    R29:R28, 2
   \   00000006   8328               ST      Y, R18
   \   00000008   8339               STD     Y+1, R19
   \   0000000A   01D8               MOVW    R27:R26, R17:R16
   4020                         unsigned int length,crc;
   4021                        // unsigned char *p_data;
   4022                         unsigned char length_head;
   4023                         unsigned char offset,i;
   4024                        // unsigned int ii;
   4025                       
   4026                        
   4027                         
   4028                         
   4029                         //проверка длины данных UDP 
   4030                         length=*(unsigned int*)&buf_rx_ppp[UDP_LN];
   4031                         if(length<MIN_TR_HEAD)return(0);
   \   0000000C   01FD               MOVW    R31:R30, R27:R26
   \   0000000E   8D82               LDD     R24, Z+26
   \   00000010   8D93               LDD     R25, Z+27
   \   00000012   308C               CPI     R24, 12
   \   00000014   4090               SBCI    R25, 0
   \   00000016   F428               BRCC    ??proc_udp_data_0
   \                     ??proc_udp_data_1:
   \   00000018   E000               LDI     R16, 0
   \                     ??proc_udp_data_2:
   \   0000001A   9622               ADIW    R29:R28, 2
   \   0000001C   E1E0               LDI     R30, 16
   \   0000001E   ........           JMP     ?EPILOGUE_B16_L09
   4032                         
   4033                         // проверка длины транспорта
   4034                         length=*(unsigned int*)&buf_rx_ppp[TR_LEN];
   \                     ??proc_udp_data_0:
   \   00000022   A0E0               LDD     R14, Z+32
   \   00000024   A0F1               LDD     R15, Z+33
   4035                         if (length<MIN_TR_HEAD) return(0);
   \   00000026   E00C               LDI     R16, 12
   \   00000028   16E0               CP      R14, R16
   \   0000002A   E000               LDI     R16, 0
   \   0000002C   06F0               CPC     R15, R16
   \   0000002E   F3A0               BRCS    ??proc_udp_data_1
   4036                         if (length>count_rx_ppp-5-20-8)return(0);
   \   00000030   8188               LD      R24, Y
   \   00000032   8199               LDD     R25, Y+1
   \   00000034   9781               SBIW    R25:R24, 33
   \   00000036   158E               CP      R24, R14
   \   00000038   059F               CPC     R25, R15
   \   0000003A   F370               BRCS    ??proc_udp_data_1
   4037                     
   4038                         transform_buf(&buf_rx_ppp[TR_ID],*(unsigned int*)&buf_rx_ppp[TR_LEN]-7,*(unsigned int*)&buf_rx_ppp[TR_KOD]);
   \   0000003C   A142               LDD     R20, Z+34
   \   0000003E   A153               LDD     R21, Z+35
   \   00000040   A120               LDD     R18, Z+32
   \   00000042   A131               LDD     R19, Z+33
   \   00000044   5027               SUBI    R18, 7
   \   00000046   4030               SBCI    R19, 0
   \   00000048   018D               MOVW    R17:R16, R27:R26
   \   0000004A   5D0B               SUBI    R16, 219
   \   0000004C   4F1F               SBCI    R17, 255
   \   0000004E   ........           CALL    transform_buf
   4039                         
   4040                         *(unsigned int*)&buf_rx_ppp[TR_KOD]=0;
   \   00000052   E000               LDI     R16, 0
   \   00000054   01FD               MOVW    R31:R30, R27:R26
   \   00000056   A302               STD     Z+34, R16
   \   00000058   A303               STD     Z+35, R16
   4041                          
   4042                         crc=*(unsigned int*)&buf_rx_ppp[TR_CRC];
   \   0000005A   A046               LDD     R4, Z+38
   \   0000005C   A057               LDD     R5, Z+39
   4043                         *(unsigned int*)&buf_rx_ppp[TR_CRC]=0;
   \   0000005E   A306               STD     Z+38, R16
   \   00000060   A307               STD     Z+39, R16
   4044                         
   4045                         //проверка crc
   4046                          if(crc!=crc_m1(&buf_rx_ppp[TR_SRC],*(unsigned int*)&buf_rx_ppp[TR_LEN],0xffff))return(0);         
   \   00000062   EF4F               LDI     R20, 255
   \   00000064   EF5F               LDI     R21, 255
   \   00000066   A120               LDD     R18, Z+32
   \   00000068   A131               LDD     R19, Z+33
   \   0000006A   018D               MOVW    R17:R16, R27:R26
   \   0000006C   5E02               SUBI    R16, 226
   \   0000006E   4F1F               SBCI    R17, 255
   \   00000070   ........           CALL    crc_m1
   \   00000074   1640               CP      R4, R16
   \   00000076   0651               CPC     R5, R17
   \   00000078   F679               BRNE    ??proc_udp_data_1
   4047                                   
   4048                          
   4049                          
   4050          
   4051                         if((buf_rx_ppp[TR_V]>>6)==VER2)// версия протокола VER2
   \   0000007A   01FD               MOVW    R31:R30, R27:R26
   \   0000007C   A104               LDD     R16, Z+36
   \   0000007E   7C00               ANDI    R16, 0xC0
   \   00000080   3800               CPI     R16, 128
   \   00000082   F651               BRNE    ??proc_udp_data_1
   4052                         { 
   4053                         
   4054                         
   4055                         if(*(unsigned int*)&buf_rx_ppp[TR_DST]!=num_self)return(0); 
   \   00000084   A500               LDD     R16, Z+40
   \   00000086   A511               LDD     R17, Z+41
   \   00000088   ....               LDI     R30, LOW(num_self)
   \   0000008A   ....               LDI     R31, (num_self) >> 8
   \   0000008C   8120               LD      R18, Z
   \   0000008E   8131               LDD     R19, Z+1
   \   00000090   1702               CP      R16, R18
   \   00000092   0713               CPC     R17, R19
   \   00000094   F609               BRNE    ??proc_udp_data_1
   4056                         
   4057                         
   4058                         
   4059                         length_head=(buf_rx_ppp[TR_V]&0x0f)*4;
   \   00000096   01FD               MOVW    R31:R30, R27:R26
   \   00000098   A0A4               LDD     R10, Z+36
   \   0000009A   E00F               LDI     R16, 15
   \   0000009C   22A0               AND     R10, R16
   \   0000009E   0CAA               LSL     R10
   \   000000A0   0CAA               LSL     R10
   4060                         
   4061                         
   4062                         if(length_head<MIN_TR_HEAD)return(0);
   \   000000A2   E00C               LDI     R16, 12
   \   000000A4   16A0               CP      R10, R16
   \   000000A6   F408               BRCC    $+2+2
   \   000000A8   CFB7               RJMP    ??proc_udp_data_1
   4063                         if(length_head>50)return(0);// пока ограничил
   \   000000AA   E303               LDI     R16, 51
   \   000000AC   16A0               CP      R10, R16
   \   000000AE   F008               BRCS    $+2+2
   \   000000B0   CFB3               RJMP    ??proc_udp_data_1
   4064                         
   4065                         
   4066                        
   4067                        
   4068                      
   4069                         
   4070                         length=count_rx_ppp-5-20-8-length_head;
   \   000000B2   017C               MOVW    R15:R14, R25:R24
   \   000000B4   24BB               CLR     R11
   \   000000B6   18EA               SUB     R14, R10
   \   000000B8   08FB               SBC     R15, R11
   4071                         
   4072                         
   4073                       
   4074                         if(length==0) //если длина данных 0 то контроль связи и проверка
   \   000000BA   2CCA               MOV     R12, R10
   \   000000BC   24DD               CLR     R13
   \   000000BE   EF04               LDI     R16, 244
   \   000000C0   0EC0               ADD     R12, R16
   \   000000C2   EF0F               LDI     R16, 255
   \   000000C4   1ED0               ADC     R13, R16
   \   000000C6   2D0E               MOV     R16, R14
   \   000000C8   290F               OR      R16, R15
   \   000000CA   F009               BREQ    $+2+2
   \   000000CC   C040               RJMP    ??proc_udp_data_3
   4075                            {
   4076                             
   4077                            if(length_head>MIN_TR_HEAD)
   \   000000CE   E00D               LDI     R16, 13
   \   000000D0   16A0               CP      R10, R16
   \   000000D2   F070               BRCS    ??proc_udp_data_4
   4078                              {
   4079                               if (proc_option(buf_rx_ppp,TR_OP_DATA,length_head-MIN_TR_HEAD)==2)
   \   000000D4   01A6               MOVW    R21:R20, R13:R12
   \   000000D6   E22A               LDI     R18, 42
   \   000000D8   E030               LDI     R19, 0
   \   000000DA   018D               MOVW    R17:R16, R27:R26
   \   000000DC   ....               RCALL   proc_option
   \   000000DE   3002               CPI     R16, 2
   \   000000E0   F009               BREQ    $+2+2
   \   000000E2   CF9A               RJMP    ??proc_udp_data_1
   4080                                 {
   4081                                  send_size_pg(buf_rx_ppp[TR_ID],*(unsigned int*)&buf_rx_ppp[TR_SRC]);
   \   000000E4   01FD               MOVW    R31:R30, R27:R26
   \   000000E6   8D26               LDD     R18, Z+30
   \   000000E8   8D37               LDD     R19, Z+31
   \   000000EA   A105               LDD     R16, Z+37
   \   000000EC   ....               RCALL   send_size_pg
   \   000000EE   CF94               RJMP    ??proc_udp_data_1
   4082                                 }
   4083                                return(0);
   4084                              }
   4085                            
   4086                            
   4087                          
   4088                            /*
   4089                            if(((buf_rx_ppp[TR_V]>>4)&0x03)==ZAPR)
   4090                            { 
   4091                              send_otv_ping(buf_rx_ppp[TR_ID],*(unsigned int*)&buf_rx_ppp[TR_SRC]);
   4092                              send_info(sizeof(ans_out_ping),ans_out_ping,1,buf_rx_ppp[TR_ID]);
   4093                              return(0); 
   4094                            }
   4095                            
   4096                            */
   4097          
   4098                             if(*(unsigned int*)&buf_rx_ppp[TR_SRC]!=NUM_SRV_LINK)return(0);
   \                     ??proc_udp_data_4:
   \   000000F0   8D06               LDD     R16, Z+30
   \   000000F2   8D17               LDD     R17, Z+31
   \   000000F4   2B01               OR      R16, R17
   \   000000F6   F009               BREQ    $+2+2
   \   000000F8   CF8F               RJMP    ??proc_udp_data_1
   4099          //                  if(buf_rx_ppp[TR_ID]!=ID_CC)return(0);
   4100          
   4101                            if(((buf_rx_ppp[TR_V]>>4)&0x03)!=KVIT)return(0); 
   \   000000FA   A104               LDD     R16, Z+36
   \   000000FC   9502               SWAP    R16
   \   000000FE   700F               ANDI    R16, 0x0F
   \   00000100   7003               ANDI    R16, 0x03
   \   00000102   3003               CPI     R16, 3
   \   00000104   F009               BREQ    $+2+2
   \   00000106   CF88               RJMP    ??proc_udp_data_1
   4102                             
   4103                            send_info(sizeof(rec_ctrl_ch),rec_ctrl_ch,1,buf_rx_ppp[TR_ID]);
   \   00000108   A145               LDD     R20, Z+37
   \   0000010A   E011               LDI     R17, 1
   \   0000010C   ....               LDI     R18, LOW((evc_rld + 7))
   \   0000010E   ....               LDI     R19, HIGH((evc_rld + 7))
   \   00000110   E00B               LDI     R16, 11
   \   00000112   ........           CALL    send_info
   4104                            
   4105                            if(Control.link_waits==TRUE)
   \   00000116   ....               LDI     R30, LOW(Control)
   \   00000118   ....               LDI     R31, (Control) >> 8
   \   0000011A   8101               LDD     R16, Z+1
   \   0000011C   3001               CPI     R16, 1
   \   0000011E   F009               BREQ    $+2+2
   \   00000120   CF7B               RJMP    ??proc_udp_data_1
   4106                               {   
   4107                               cnt_no_link=vol_cnt_no_link;//dobavka  
   \   00000122   ....               LDI     R30, LOW(vol_cnt_no_link)
   \   00000124   ....               LDI     R31, (vol_cnt_no_link) >> 8
   \   00000126   8100               LD      R16, Z
   \   00000128   8111               LDD     R17, Z+1
   \   0000012A   8122               LDD     R18, Z+2
   \   0000012C   8133               LDD     R19, Z+3
   \   0000012E   ....               LDI     R30, LOW(cnt_no_link)
   \   00000130   ....               LDI     R31, (cnt_no_link) >> 8
   \   00000132   8300               ST      Z, R16
   \   00000134   8311               STD     Z+1, R17
   \   00000136   8322               STD     Z+2, R18
   \   00000138   8333               STD     Z+3, R19
   4108                               Control.link_waits=FALSE;
   \   0000013A   ....               LDI     R30, LOW(Control)
   \   0000013C   ....               LDI     R31, (Control) >> 8
   \   0000013E   82B1               STD     Z+1, R11
   4109                               Control.cnt_link=Control.vol_link;                   
   \   00000140   8500               LDD     R16, Z+8
   \   00000142   8511               LDD     R17, Z+9
   \   00000144   8304               STD     Z+4, R16
   \   00000146   8315               STD     Z+5, R17
   4110                               Control.cnt_try=0;
   \   00000148   86B6               STD     Z+14, R11
   4111                               Control.link_no=FALSE;
   \   0000014A   82B0               ST      Z, R11
   \   0000014C   C373               RJMP    ??proc_udp_data_5
   4112                               return(1); 
   4113                               }
   4114                            return(0);
   4115                            } 
   4116                          
   4117                           
   4118                        
   4119                        
   4120                        
   4121                          // дальнейший разбор
   4122                           
   4123                           
   4124                           clr_cntr_nat();
   \                     ??proc_udp_data_3:
   \   0000014E   ........           CALL    clr_cntr_nat
   4125                           
   4126                           offset=2+20+8+length_head;
   \   00000152   2CBA               MOV     R11, R10
   \   00000154   E10E               LDI     R16, 30
   \   00000156   0EB0               ADD     R11, R16
   \   00000158   E010               LDI     R17, 0
   \   0000015A   012D               MOVW    R5:R4, R27:R26
   \   0000015C   0C4B               ADD     R4, R11
   \   0000015E   1E51               ADC     R5, R17
   \   00000160   ....               LDI     R16, LOW(Appl_seq)
   \   00000162   ....               LDI     R17, (Appl_seq) >> 8
   \   00000164   01F2               MOVW    R31:R30, R5:R4
   \   00000166   8120               LD      R18, Z
   \   00000168   3023               CPI     R18, 3
   \   0000016A   F009               BREQ    $+2+2
   \   0000016C   C049               RJMP    ??proc_udp_data_6
   4127                        
   4128                          
   4129                          
   4130                          
   4131                          if(buf_rx_ppp[offset+SL_LS_PROT]==PROT_SL_LS)
   4132                            {
   4133                              //разбор команд
   4134                              //пока одна команда - наличие отсутствие клиента в таблице маршрутизации
   4135                              if(((buf_rx_ppp[TR_V]>>4)&0x03)!=OTV)return(0);
   \   0000016E   01FD               MOVW    R31:R30, R27:R26
   \   00000170   A124               LDD     R18, Z+36
   \   00000172   9522               SWAP    R18
   \   00000174   702F               ANDI    R18, 0x0F
   \   00000176   7023               ANDI    R18, 0x03
   \   00000178   3021               CPI     R18, 1
   \   0000017A   F009               BREQ    $+2+2
   \   0000017C   CF4D               RJMP    ??proc_udp_data_1
   4136                              if(buf_rx_ppp[offset+SL_LS_PROT+1]!=COM_CNTR_CL)return(0);
   \   0000017E   01F2               MOVW    R31:R30, R5:R4
   \   00000180   8121               LDD     R18, Z+1
   \   00000182   3022               CPI     R18, 2
   \   00000184   F009               BREQ    $+2+2
   \   00000186   CF48               RJMP    ??proc_udp_data_1
   4137                              if(*(unsigned int*)&buf_rx_ppp[offset+SL_LS_PROT+2]!=L_OTV_CNTR_CL)return(0);
   \   00000188   8122               LDD     R18, Z+2
   \   0000018A   8133               LDD     R19, Z+3
   \   0000018C   3023               CPI     R18, 3
   \   0000018E   E040               LDI     R20, 0
   \   00000190   0734               CPC     R19, R20
   \   00000192   F009               BREQ    $+2+2
   \   00000194   CF41               RJMP    ??proc_udp_data_1
   4138                              if(*(unsigned int*)&buf_rx_ppp[offset+SL_LS_PROT+4]!=num_seq_cl)return(0);
   \   00000196   8124               LDD     R18, Z+4
   \   00000198   8135               LDD     R19, Z+5
   \   0000019A   ....               LDI     R30, LOW(num_seq_cl)
   \   0000019C   ....               LDI     R31, (num_seq_cl) >> 8
   \   0000019E   8140               LD      R20, Z
   \   000001A0   8151               LDD     R21, Z+1
   \   000001A2   1724               CP      R18, R20
   \   000001A4   0735               CPC     R19, R21
   \   000001A6   F009               BREQ    $+2+2
   \   000001A8   CF37               RJMP    ??proc_udp_data_1
   4139                              if(buf_rx_ppp[offset+SL_LS_PROT+6]!=0)
   \   000001AA   01F2               MOVW    R31:R30, R5:R4
   \   000001AC   8126               LDD     R18, Z+6
   \   000001AE   2322               TST     R18
   \   000001B0   F031               BREQ    ??proc_udp_data_7
   4140                                {// присутствие в таблице
   4141                                 
   4142                                 Appl_seq.en_cntr_cl=FALSE;
   \   000001B2   E020               LDI     R18, 0
   \   000001B4   01F8               MOVW    R31:R30, R17:R16
   \   000001B6   8B25               STD     Z+21, R18
   4143                                 Appl_seq.cntr_cl=FALSE;
   \   000001B8   8B24               STD     Z+20, R18
   4144                                 Appl_seq.cnt_cntr_cl=0;
   \   000001BA   8B26               STD     Z+22, R18
   \   000001BC   8B27               STD     Z+23, R18
   4145          
   4146                               // присутствие в таблице
   4147                                 }
   4148                             cnt_no_link=vol_cnt_no_link;//dobavka
   \                     ??proc_udp_data_7:
   \   000001BE   ....               LDI     R30, LOW(vol_cnt_no_link)
   \   000001C0   ....               LDI     R31, (vol_cnt_no_link) >> 8
   \   000001C2   8100               LD      R16, Z
   \   000001C4   8111               LDD     R17, Z+1
   \   000001C6   8122               LDD     R18, Z+2
   \   000001C8   8133               LDD     R19, Z+3
   \   000001CA   ....               LDI     R30, LOW(cnt_no_link)
   \   000001CC   ....               LDI     R31, (cnt_no_link) >> 8
   \   000001CE   8300               ST      Z, R16
   \   000001D0   8311               STD     Z+1, R17
   \   000001D2   8322               STD     Z+2, R18
   \   000001D4   8333               STD     Z+3, R19
   4149                             Control.link_waits=FALSE;
   \   000001D6   E000               LDI     R16, 0
   \   000001D8   ....               LDI     R30, LOW(Control)
   \   000001DA   ....               LDI     R31, (Control) >> 8
   \   000001DC   8301               STD     Z+1, R16
   4150                             Control.cnt_link=Control.vol_link;                  
   \   000001DE   8500               LDD     R16, Z+8
   \   000001E0   8511               LDD     R17, Z+9
   \   000001E2   8304               STD     Z+4, R16
   \   000001E4   8315               STD     Z+5, R17
   4151                             Control.link=FALSE;                           
   \   000001E6   E000               LDI     R16, 0
   \   000001E8   8302               STD     Z+2, R16
   4152                             Control.cnt_try=0;
   \   000001EA   8706               STD     Z+14, R16
   4153                             Control.link_no=FALSE;    
   \   000001EC   8300               ST      Z, R16
   4154                            
   4155                            send_info(sizeof(ans_in_ctrl_cl),ans_in_ctrl_cl,1,buf_rx_ppp[TR_ID]);
   \   000001EE   01FD               MOVW    R31:R30, R27:R26
   \   000001F0   A145               LDD     R20, Z+37
   \   000001F2   E011               LDI     R17, 1
   \   000001F4   ....               LDI     R18, LOW((evc_rld + 25))
   \   000001F6   ....               LDI     R19, HIGH((evc_rld + 25))
   \   000001F8   E00C               LDI     R16, 12
   \                     ??proc_udp_data_8:
   \   000001FA   ........           CALL    send_info
   \   000001FE   C31A               RJMP    ??proc_udp_data_5
   4156                            return(1);
   4157                            }
   4158                          
   4159                          
   4160                          
   4161                          
   4162                           if(buf_rx_ppp[offset+C1_PROT]!=PROT_C1)return(0);
   \                     ??proc_udp_data_6:
   \   00000200   8120               LD      R18, Z
   \   00000202   3021               CPI     R18, 1
   \   00000204   F009               BREQ    $+2+2
   \   00000206   CF08               RJMP    ??proc_udp_data_1
   \   00000208   ....               LDI     R24, LOW(Obj_ppp_tx)
   \   0000020A   ....               LDI     R25, (Obj_ppp_tx) >> 8
   \   0000020C   8121               LDD     R18, Z+1
   \   0000020E   5021               SUBI    R18, 1
   \   00000210   F081               BREQ    ??proc_udp_data_9
   \   00000212   952A               DEC     R18
   \   00000214   F409               BRNE    $+2+2
   \   00000216   C0D2               RJMP    ??proc_udp_data_10
   \   00000218   952A               DEC     R18
   \   0000021A   F409               BRNE    $+2+2
   \   0000021C   C192               RJMP    ??proc_udp_data_11
   \   0000021E   952A               DEC     R18
   \   00000220   F409               BRNE    $+2+2
   \   00000222   C252               RJMP    ??proc_udp_data_12
   \   00000224   5022               SUBI    R18, 2
   \   00000226   F409               BRNE    $+2+2
   \   00000228   C369               RJMP    ??proc_udp_data_13
   \   0000022A   952A               DEC     R18
   \   0000022C   F409               BRNE    $+2+2
   \   0000022E   C482               RJMP    ??proc_udp_data_14
   \   00000230   CEF3               RJMP    ??proc_udp_data_1
   4163                            
   4164                           
   4165                           
   4166                            
   4167                            
   4168                            switch(buf_rx_ppp[offset+C1_PORT])
   4169                                {
   4170                                 case PORT485_1:
   4171             
   4172                                      
   4173                                      if(length<11) 
   \                     ??proc_udp_data_9:
   \   00000232   E00B               LDI     R16, 11
   \   00000234   16E0               CP      R14, R16
   \   00000236   E000               LDI     R16, 0
   \   00000238   06F0               CPC     R15, R16
   \   0000023A   F488               BRCC    ??proc_udp_data_15
   4174                                            {
   4175                                              // можно отправиь сообщение об ошибке "некорректные данные"
   4176                                             send_info(sizeof(ans_out_485_1),ans_out_485_1,1,buf_rx_ppp[TR_ID]);
   \   0000023C   01FD               MOVW    R31:R30, R27:R26
   \   0000023E   A145               LDD     R20, Z+37
   \   00000240   E011               LDI     R17, 1
   \   00000242   ....               LDI     R18, LOW((evc_rld + 37))
   \   00000244   ....               LDI     R19, HIGH((evc_rld + 37))
   \   00000246   E00A               LDI     R16, 10
   \   00000248   ........           CALL    send_info
   4177                                             send_err485(NUM_RS485_1,RS_DATA_ERR,buf_rx_ppp[TR_ID],*(unsigned int*)&buf_rx_ppp[TR_SRC]);
   \   0000024C   01FD               MOVW    R31:R30, R27:R26
   \   0000024E   8D46               LDD     R20, Z+30
   \   00000250   8D57               LDD     R21, Z+31
   \   00000252   A125               LDD     R18, Z+37
   \   00000254   E016               LDI     R17, 6
   \                     ??proc_udp_data_16:
   \   00000256   E001               LDI     R16, 1
   \                     ??proc_udp_data_17:
   \   00000258   ........           CALL    send_err485
   \   0000025C   CEDD               RJMP    ??proc_udp_data_1
   4178                                             return(0);
   4179                                            }                 
   4180                            
   4181                                       if(length> LN_BUF_485_1+10) 
   \                     ??proc_udp_data_15:
   \   0000025E   E30D               LDI     R16, 61
   \   00000260   16E0               CP      R14, R16
   \   00000262   E000               LDI     R16, 0
   \   00000264   06F0               CPC     R15, R16
   \   00000266   F070               BRCS    ??proc_udp_data_18
   4182                                           {
   4183                                          // можно отправиь сообщение об ошибке "слишком длинные данные для приложения"
   4184                                             send_info(sizeof(ans_out_485_1),ans_out_485_1,1,buf_rx_ppp[TR_ID]);
   \   00000268   01FD               MOVW    R31:R30, R27:R26
   \   0000026A   A145               LDD     R20, Z+37
   \   0000026C   E011               LDI     R17, 1
   \   0000026E   ....               LDI     R18, LOW((evc_rld + 37))
   \   00000270   ....               LDI     R19, HIGH((evc_rld + 37))
   \   00000272   E00A               LDI     R16, 10
   \   00000274   ........           CALL    send_info
   4185                                             send_err485(NUM_RS485_1,RS_OVER_BUF_TX,buf_rx_ppp[TR_ID],*(unsigned int*)&buf_rx_ppp[TR_SRC]);
   \   00000278   01FD               MOVW    R31:R30, R27:R26
   \   0000027A   8D46               LDD     R20, Z+30
   \   0000027C   8D57               LDD     R21, Z+31
   \   0000027E   A125               LDD     R18, Z+37
   \   00000280   E015               LDI     R17, 5
   \   00000282   CFE9               RJMP    ??proc_udp_data_16
   4186                                             return(0);
   4187                                            } 
   4188                                      
   4189                                    
   4190                                      // здесь должна быть проверка контекста, если все нормально то дальше забит контекст
   4191                                      // то можно послать служебное сообщение
   4192                                     
   4193                                           if (check_cont_485_1 (&buf_rx_ppp[offset+C1_CONT])==1)
   \                     ??proc_udp_data_18:
   \   00000284   E002               LDI     R16, 2
   \   00000286   0E40               ADD     R4, R16
   \   00000288   E000               LDI     R16, 0
   \   0000028A   1E50               ADC     R5, R16
   \   0000028C   0182               MOVW    R17:R16, R5:R4
   \   0000028E   ........           CALL    check_cont_485_1
   \   00000292   3001               CPI     R16, 1
   \   00000294   F471               BRNE    ??proc_udp_data_19
   4194                                           {
   4195                                             send_info(sizeof(ans_out_485_1),ans_out_485_1,1,buf_rx_ppp[TR_ID]);
   \   00000296   01FD               MOVW    R31:R30, R27:R26
   \   00000298   A145               LDD     R20, Z+37
   \   0000029A   E011               LDI     R17, 1
   \   0000029C   ....               LDI     R18, LOW((evc_rld + 37))
   \   0000029E   ....               LDI     R19, HIGH((evc_rld + 37))
   \   000002A0   E00A               LDI     R16, 10
   \   000002A2   ........           CALL    send_info
   4196                                             send_err485(NUM_RS485_1,RS_NO_CONT,buf_rx_ppp[TR_ID],*(unsigned int*)&buf_rx_ppp[TR_SRC]);
   \   000002A6   01FD               MOVW    R31:R30, R27:R26
   \   000002A8   8D46               LDD     R20, Z+30
   \   000002AA   8D57               LDD     R21, Z+31
   \   000002AC   A125               LDD     R18, Z+37
   \   000002AE   E012               LDI     R17, 2
   \   000002B0   CFD2               RJMP    ??proc_udp_data_16
   4197                                             return(0);
   4198                                            } 
   4199                                     
   4200                                     
   4201                                      if(Appl_RS485_1.fl_data_buf==TRUE)
   \                     ??proc_udp_data_19:
   \   000002B2   ....               LDI     R16, LOW(Appl_RS485_1)
   \   000002B4   2E40               MOV     R4, R16
   \   000002B6   ....               LDI     R16, (Appl_RS485_1) >> 8
   \   000002B8   2E50               MOV     R5, R16
   \   000002BA   01F2               MOVW    R31:R30, R5:R4
   \   000002BC   8100               LD      R16, Z
   \   000002BE   3001               CPI     R16, 1
   \   000002C0   F471               BRNE    ??proc_udp_data_20
   4202                                         {
   4203                                         // то можно послать служебное сообщение что буфер переполнен
   4204                                         send_info(sizeof(ans_out_485_1),ans_out_485_1,1,buf_rx_ppp[TR_ID]);
   \   000002C2   01FD               MOVW    R31:R30, R27:R26
   \   000002C4   A145               LDD     R20, Z+37
   \   000002C6   E011               LDI     R17, 1
   \   000002C8   ....               LDI     R18, LOW((evc_rld + 37))
   \   000002CA   ....               LDI     R19, HIGH((evc_rld + 37))
   \   000002CC   E00A               LDI     R16, 10
   \   000002CE   ........           CALL    send_info
   4205                                         send_err485(NUM_RS485_1,RS_BUSY,buf_rx_ppp[TR_ID],*(unsigned int*)&buf_rx_ppp[TR_SRC]);
   \   000002D2   01FD               MOVW    R31:R30, R27:R26
   \   000002D4   8D46               LDD     R20, Z+30
   \   000002D6   8D57               LDD     R21, Z+31
   \   000002D8   A125               LDD     R18, Z+37
   \   000002DA   E013               LDI     R17, 3
   \   000002DC   CFBC               RJMP    ??proc_udp_data_16
   4206                                         break;
   4207                                         }
   4208                                         
   4209                                          
   4210                                         if(Regim==RG_DEBAG)
   \                     ??proc_udp_data_20:
   \   000002DE   9100....           LDS     R16, Regim
   \   000002E2   3001               CPI     R16, 1
   \   000002E4   F471               BRNE    ??proc_udp_data_21
   4211                                         {// включен тестовый режим!!!
   4212                                           send_info(sizeof(ans_out_485_1),ans_out_485_1,1,buf_rx_ppp[TR_ID]);
   \   000002E6   01FD               MOVW    R31:R30, R27:R26
   \   000002E8   A145               LDD     R20, Z+37
   \   000002EA   E011               LDI     R17, 1
   \   000002EC   ....               LDI     R18, LOW((evc_rld + 37))
   \   000002EE   ....               LDI     R19, HIGH((evc_rld + 37))
   \   000002F0   E00A               LDI     R16, 10
   \   000002F2   ........           CALL    send_info
   4213                                           send_err485(NUM_RS485_1,RS_TEST,buf_rx_ppp[TR_ID],*(unsigned int*)&buf_rx_ppp[TR_SRC]);
   \   000002F6   01FD               MOVW    R31:R30, R27:R26
   \   000002F8   8D46               LDD     R20, Z+30
   \   000002FA   8D57               LDD     R21, Z+31
   \   000002FC   A125               LDD     R18, Z+37
   \   000002FE   E018               LDI     R17, 8
   \   00000300   CFAA               RJMP    ??proc_udp_data_16
   4214                                           return(0);
   4215                                         }
   4216                                      
   4217                                      
   4218                                          Appl_RS485_1.pre_tx=0;
   \                     ??proc_udp_data_21:
   \   00000302   E000               LDI     R16, 0
   \   00000304   8B01               STD     Z+17, R16
   \   00000306   8B02               STD     Z+18, R16
   4219                                          if(length_head>MIN_TR_HEAD)
   \   00000308   E00D               LDI     R16, 13
   \   0000030A   16A0               CP      R10, R16
   \   0000030C   F070               BRCS    ??proc_udp_data_22
   4220                                            {
   4221                                              if (proc_option(buf_rx_ppp,TR_OP_DATA,length_head-MIN_TR_HEAD)!=1)return(0);                                                                  
   \   0000030E   01A6               MOVW    R21:R20, R13:R12
   \   00000310   E22A               LDI     R18, 42
   \   00000312   E030               LDI     R19, 0
   \   00000314   018D               MOVW    R17:R16, R27:R26
   \   00000316   ....               RCALL   proc_option
   \   00000318   3001               CPI     R16, 1
   \   0000031A   F009               BREQ    $+2+2
   \   0000031C   CE7D               RJMP    ??proc_udp_data_1
   4222                                              Appl_RS485_1.pre_tx=delay_pre_tx;//задержка перед передачей
   \   0000031E   01FC               MOVW    R31:R30, R25:R24
   \   00000320   8900               LDD     R16, Z+16
   \   00000322   8911               LDD     R17, Z+17
   \   00000324   01F2               MOVW    R31:R30, R5:R4
   \   00000326   8B01               STD     Z+17, R16
   \   00000328   8B12               STD     Z+18, R17
   4223                                            } 
   4224                                      
   4225                                         
   4226                                         
   4227                                         if(fl_485_1.busy==1)Appl_RS485_1.fl_data_buf=TRUE;
   \                     ??proc_udp_data_22:
   \   0000032A   ....               LDI     R30, LOW(fl_485_1)
   \   0000032C   ....               LDI     R31, (fl_485_1) >> 8
   \   0000032E   8100               LD      R16, Z
   \   00000330   FF00               SBRS    R16, 0
   \   00000332   C003               RJMP    ??proc_udp_data_23
   \   00000334   E001               LDI     R16, 1
   \   00000336   01F2               MOVW    R31:R30, R5:R4
   \   00000338   C002               RJMP    ??proc_udp_data_24
   4228                                         else fl_485_1.tx=1;
   \                     ??proc_udp_data_23:
   \   0000033A   8100               LD      R16, Z
   \   0000033C   6008               ORI     R16, 0x08
   \                     ??proc_udp_data_24:
   \   0000033E   8300               ST      Z, R16
   4229                                         Appl_RS485_1.dst_buf=*(unsigned int*)&buf_rx_ppp[TR_SRC];
   \   00000340   01FD               MOVW    R31:R30, R27:R26
   \   00000342   8D06               LDD     R16, Z+30
   \   00000344   8D17               LDD     R17, Z+31
   \   00000346   01F2               MOVW    R31:R30, R5:R4
   \   00000348   8303               STD     Z+3, R16
   \   0000034A   8314               STD     Z+4, R17
   4230                                         Appl_RS485_1.id_buf=buf_rx_ppp[TR_ID];
   \   0000034C   01FD               MOVW    R31:R30, R27:R26
   \   0000034E   A105               LDD     R16, Z+37
   \   00000350   01F2               MOVW    R31:R30, R5:R4
   \   00000352   8705               STD     Z+13, R16
   4231                                         
   4232                                         for(i=0;i<8;i++)Appl_RS485_1.cont_buf[i]=buf_rx_ppp[offset+C1_CONT+i];
   \   00000354   2466               CLR     R6
   \   00000356   C00F               RJMP    ??proc_udp_data_25
   \                     ??proc_udp_data_26:
   \   00000358   2D06               MOV     R16, R6
   \   0000035A   E010               LDI     R17, 0
   \   0000035C   2D2B               MOV     R18, R11
   \   0000035E   E030               LDI     R19, 0
   \   00000360   0F20               ADD     R18, R16
   \   00000362   1F31               ADC     R19, R17
   \   00000364   01FD               MOVW    R31:R30, R27:R26
   \   00000366   0FE2               ADD     R30, R18
   \   00000368   1FF3               ADC     R31, R19
   \   0000036A   8122               LDD     R18, Z+2
   \   0000036C   01F2               MOVW    R31:R30, R5:R4
   \   0000036E   0FE0               ADD     R30, R16
   \   00000370   1FF1               ADC     R31, R17
   \   00000372   8325               STD     Z+5, R18
   \   00000374   9463               INC     R6
   \                     ??proc_udp_data_25:
   \   00000376   E008               LDI     R16, 8
   \   00000378   1660               CP      R6, R16
   \   0000037A   F370               BRCS    ??proc_udp_data_26
   4233                                         
   4234                                         Appl_RS485_1.ln_data_buf=length-10;
   \   0000037C   EF06               LDI     R16, 246
   \   0000037E   0EE0               ADD     R14, R16
   \   00000380   EF0F               LDI     R16, 255
   \   00000382   1EF0               ADC     R15, R16
   \   00000384   01F2               MOVW    R31:R30, R5:R4
   \   00000386   82E1               STD     Z+1, R14
   \   00000388   82F2               STD     Z+2, R15
   4235                                         for(i=0;i<Appl_RS485_1.ln_data_buf;i++)Appl_RS485_1_data_buf[i]=buf_rx_ppp[offset+C1_DATA_RS+i];
   \   0000038A   2466               CLR     R6
   \                     ??proc_udp_data_27:
   \   0000038C   2477               CLR     R7
   \   0000038E   01F2               MOVW    R31:R30, R5:R4
   \   00000390   8101               LDD     R16, Z+1
   \   00000392   8112               LDD     R17, Z+2
   \   00000394   1660               CP      R6, R16
   \   00000396   0671               CPC     R7, R17
   \   00000398   F008               BRCS    $+2+2
   \   0000039A   CE3E               RJMP    ??proc_udp_data_1
   \   0000039C   2D06               MOV     R16, R6
   \   0000039E   E010               LDI     R17, 0
   \   000003A0   2D2B               MOV     R18, R11
   \   000003A2   E030               LDI     R19, 0
   \   000003A4   0F20               ADD     R18, R16
   \   000003A6   1D37               ADC     R19, R7
   \   000003A8   01FD               MOVW    R31:R30, R27:R26
   \   000003AA   0FE2               ADD     R30, R18
   \   000003AC   1FF3               ADC     R31, R19
   \   000003AE   8522               LDD     R18, Z+10
   \   000003B0   01F8               MOVW    R31:R30, R17:R16
   \   000003B2   ....               SUBI    R30, LOW((-(Appl_RS485_1_data_buf) & 0xFFFF))
   \   000003B4   ....               SBCI    R31, (-(Appl_RS485_1_data_buf) & 0xFFFF) >> 8
   \   000003B6   8320               ST      Z, R18
   \   000003B8   9463               INC     R6
   \   000003BA   CFE8               RJMP    ??proc_udp_data_27
   4236                                   
   4237                                      
   4238                                      break;
   4239                                 case PORT485_2:
   4240                                   
   4241             
   4242                                          if(length<11) 
   \                     ??proc_udp_data_10:
   \   000003BC   E00B               LDI     R16, 11
   \   000003BE   16E0               CP      R14, R16
   \   000003C0   E000               LDI     R16, 0
   \   000003C2   06F0               CPC     R15, R16
   \   000003C4   F478               BRCC    ??proc_udp_data_28
   4243                                            {
   4244                                              // можно отправиь сообщение об ошибке "некорректные данные"
   4245                                             send_info(sizeof(ans_out_485_2),ans_out_485_2,1,buf_rx_ppp[TR_ID]);
   \   000003C6   01FD               MOVW    R31:R30, R27:R26
   \   000003C8   A145               LDD     R20, Z+37
   \   000003CA   E011               LDI     R17, 1
   \   000003CC   ....               LDI     R18, LOW((evc_rld + 47))
   \   000003CE   ....               LDI     R19, HIGH((evc_rld + 47))
   \   000003D0   E00A               LDI     R16, 10
   \   000003D2   ........           CALL    send_info
   4246                                             send_err485(NUM_RS485_2,RS_DATA_ERR,buf_rx_ppp[TR_ID],*(unsigned int*)&buf_rx_ppp[TR_SRC]);
   \   000003D6   01FD               MOVW    R31:R30, R27:R26
   \   000003D8   8D46               LDD     R20, Z+30
   \   000003DA   8D57               LDD     R21, Z+31
   \   000003DC   A125               LDD     R18, Z+37
   \   000003DE   E016               LDI     R17, 6
   \                     ??proc_udp_data_29:
   \   000003E0   E002               LDI     R16, 2
   \   000003E2   CF3A               RJMP    ??proc_udp_data_17
   4247                                             return(0);
   4248                                            }                 
   4249                            
   4250                                       if(length> LN_BUF_485_2+10) 
   \                     ??proc_udp_data_28:
   \   000003E4   E00C               LDI     R16, 12
   \   000003E6   16E0               CP      R14, R16
   \   000003E8   E000               LDI     R16, 0
   \   000003EA   06F0               CPC     R15, R16
   \   000003EC   F070               BRCS    ??proc_udp_data_30
   4251                                           {
   4252                                          // можно отправиь сообщение об ошибке "слишком длинные данные для приложения"
   4253                                             send_info(sizeof(ans_out_485_2),ans_out_485_2,1,buf_rx_ppp[TR_ID]);
   \   000003EE   01FD               MOVW    R31:R30, R27:R26
   \   000003F0   A145               LDD     R20, Z+37
   \   000003F2   E011               LDI     R17, 1
   \   000003F4   ....               LDI     R18, LOW((evc_rld + 47))
   \   000003F6   ....               LDI     R19, HIGH((evc_rld + 47))
   \   000003F8   E00A               LDI     R16, 10
   \   000003FA   ........           CALL    send_info
   4254                                             send_err485(NUM_RS485_2,RS_OVER_BUF_TX,buf_rx_ppp[TR_ID],*(unsigned int*)&buf_rx_ppp[TR_SRC]);
   \   000003FE   01FD               MOVW    R31:R30, R27:R26
   \   00000400   8D46               LDD     R20, Z+30
   \   00000402   8D57               LDD     R21, Z+31
   \   00000404   A125               LDD     R18, Z+37
   \   00000406   E015               LDI     R17, 5
   \   00000408   CFEB               RJMP    ??proc_udp_data_29
   4255                                             return(0);
   4256                                            } 
   4257                                      
   4258                                      
   4259                                      // здесь должна быть проверка контекста, если все нормально то дальше забит контекст
   4260                                      // то можно послать служебное сообщение
   4261                                       if (check_cont_485_1 (&buf_rx_ppp[offset+C1_CONT])==1)
   \                     ??proc_udp_data_30:
   \   0000040A   E002               LDI     R16, 2
   \   0000040C   0E40               ADD     R4, R16
   \   0000040E   E000               LDI     R16, 0
   \   00000410   1E50               ADC     R5, R16
   \   00000412   0182               MOVW    R17:R16, R5:R4
   \   00000414   ........           CALL    check_cont_485_1
   \   00000418   3001               CPI     R16, 1
   \   0000041A   F471               BRNE    ??proc_udp_data_31
   4262                                           {
   4263                                             send_info(sizeof(ans_out_485_2),ans_out_485_2,1,buf_rx_ppp[TR_ID]);
   \   0000041C   01FD               MOVW    R31:R30, R27:R26
   \   0000041E   A145               LDD     R20, Z+37
   \   00000420   E011               LDI     R17, 1
   \   00000422   ....               LDI     R18, LOW((evc_rld + 47))
   \   00000424   ....               LDI     R19, HIGH((evc_rld + 47))
   \   00000426   E00A               LDI     R16, 10
   \   00000428   ........           CALL    send_info
   4264                                             send_err485(NUM_RS485_2,RS_NO_CONT,buf_rx_ppp[TR_ID],*(unsigned int*)&buf_rx_ppp[TR_SRC]);
   \   0000042C   01FD               MOVW    R31:R30, R27:R26
   \   0000042E   8D46               LDD     R20, Z+30
   \   00000430   8D57               LDD     R21, Z+31
   \   00000432   A125               LDD     R18, Z+37
   \   00000434   E012               LDI     R17, 2
   \   00000436   CFD4               RJMP    ??proc_udp_data_29
   4265                                             return(0);
   4266                                            } 
   4267                                      
   4268                                      
   4269                                      if(Appl_RS485_2.fl_data_buf==TRUE)
   \                     ??proc_udp_data_31:
   \   00000438   ....               LDI     R16, LOW(Appl_RS485_2)
   \   0000043A   2E40               MOV     R4, R16
   \   0000043C   ....               LDI     R16, (Appl_RS485_2) >> 8
   \   0000043E   2E50               MOV     R5, R16
   \   00000440   01F2               MOVW    R31:R30, R5:R4
   \   00000442   8100               LD      R16, Z
   \   00000444   3001               CPI     R16, 1
   \   00000446   F471               BRNE    ??proc_udp_data_32
   4270                                         {
   4271                                         // то можно послать служебное сообщение что буфер переполнен
   4272                                         send_info(sizeof(ans_out_485_2),ans_out_485_2,1,buf_rx_ppp[TR_ID]);
   \   00000448   01FD               MOVW    R31:R30, R27:R26
   \   0000044A   A145               LDD     R20, Z+37
   \   0000044C   E011               LDI     R17, 1
   \   0000044E   ....               LDI     R18, LOW((evc_rld + 47))
   \   00000450   ....               LDI     R19, HIGH((evc_rld + 47))
   \   00000452   E00A               LDI     R16, 10
   \   00000454   ........           CALL    send_info
   4273                                         send_err485(NUM_RS485_2,RS_BUSY,buf_rx_ppp[TR_ID],*(unsigned int*)&buf_rx_ppp[TR_SRC]);
   \   00000458   01FD               MOVW    R31:R30, R27:R26
   \   0000045A   8D46               LDD     R20, Z+30
   \   0000045C   8D57               LDD     R21, Z+31
   \   0000045E   A125               LDD     R18, Z+37
   \   00000460   E013               LDI     R17, 3
   \   00000462   CFBE               RJMP    ??proc_udp_data_29
   4274                                         break;
   4275                                         }
   4276                                         
   4277                                         if(Regim==RG_DEBAG)
   \                     ??proc_udp_data_32:
   \   00000464   9100....           LDS     R16, Regim
   \   00000468   3001               CPI     R16, 1
   \   0000046A   F471               BRNE    ??proc_udp_data_33
   4278                                         {// включен тестовый режим!!!
   4279                                            send_info(sizeof(ans_out_485_2),ans_out_485_2,1,buf_rx_ppp[TR_ID]);
   \   0000046C   01FD               MOVW    R31:R30, R27:R26
   \   0000046E   A145               LDD     R20, Z+37
   \   00000470   E011               LDI     R17, 1
   \   00000472   ....               LDI     R18, LOW((evc_rld + 47))
   \   00000474   ....               LDI     R19, HIGH((evc_rld + 47))
   \   00000476   E00A               LDI     R16, 10
   \   00000478   ........           CALL    send_info
   4280                                           send_err485(NUM_RS485_2,RS_TEST,buf_rx_ppp[TR_ID],*(unsigned int*)&buf_rx_ppp[TR_SRC]);
   \   0000047C   01FD               MOVW    R31:R30, R27:R26
   \   0000047E   8D46               LDD     R20, Z+30
   \   00000480   8D57               LDD     R21, Z+31
   \   00000482   A125               LDD     R18, Z+37
   \   00000484   E018               LDI     R17, 8
   \   00000486   CFAC               RJMP    ??proc_udp_data_29
   4281                                           return(0);
   4282                                         }
   4283                                         
   4284                                         Appl_RS485_2.pre_tx=0;
   \                     ??proc_udp_data_33:
   \   00000488   E000               LDI     R16, 0
   \   0000048A   8B01               STD     Z+17, R16
   \   0000048C   8B02               STD     Z+18, R16
   4285                                          if(length_head>MIN_TR_HEAD)
   \   0000048E   E00D               LDI     R16, 13
   \   00000490   16A0               CP      R10, R16
   \   00000492   F070               BRCS    ??proc_udp_data_34
   4286                                            {
   4287                                              if (proc_option(buf_rx_ppp,TR_OP_DATA,length_head-MIN_TR_HEAD)!=1)return(0);                                                                  
   \   00000494   01A6               MOVW    R21:R20, R13:R12
   \   00000496   E22A               LDI     R18, 42
   \   00000498   E030               LDI     R19, 0
   \   0000049A   018D               MOVW    R17:R16, R27:R26
   \   0000049C   ....               RCALL   proc_option
   \   0000049E   3001               CPI     R16, 1
   \   000004A0   F009               BREQ    $+2+2
   \   000004A2   CDBA               RJMP    ??proc_udp_data_1
   4288                                              Appl_RS485_2.pre_tx=delay_pre_tx;//задержка перед передачей
   \   000004A4   01FC               MOVW    R31:R30, R25:R24
   \   000004A6   8900               LDD     R16, Z+16
   \   000004A8   8911               LDD     R17, Z+17
   \   000004AA   01F2               MOVW    R31:R30, R5:R4
   \   000004AC   8B01               STD     Z+17, R16
   \   000004AE   8B12               STD     Z+18, R17
   4289                                            } 
   4290                                         
   4291                                         
   4292                                         if(fl_485_2.busy==1)Appl_RS485_2.fl_data_buf=TRUE;
   \                     ??proc_udp_data_34:
   \   000004B0   ....               LDI     R30, LOW(fl_485_2)
   \   000004B2   ....               LDI     R31, (fl_485_2) >> 8
   \   000004B4   8100               LD      R16, Z
   \   000004B6   FF00               SBRS    R16, 0
   \   000004B8   C003               RJMP    ??proc_udp_data_35
   \   000004BA   E001               LDI     R16, 1
   \   000004BC   01F2               MOVW    R31:R30, R5:R4
   \   000004BE   C002               RJMP    ??proc_udp_data_36
   4293                                         else fl_485_2.tx=1;
   \                     ??proc_udp_data_35:
   \   000004C0   8100               LD      R16, Z
   \   000004C2   6008               ORI     R16, 0x08
   \                     ??proc_udp_data_36:
   \   000004C4   8300               ST      Z, R16
   4294                                         Appl_RS485_2.dst_buf=*(unsigned int*)&buf_rx_ppp[TR_SRC];
   \   000004C6   01FD               MOVW    R31:R30, R27:R26
   \   000004C8   8D06               LDD     R16, Z+30
   \   000004CA   8D17               LDD     R17, Z+31
   \   000004CC   01F2               MOVW    R31:R30, R5:R4
   \   000004CE   8303               STD     Z+3, R16
   \   000004D0   8314               STD     Z+4, R17
   4295                                         Appl_RS485_2.id_buf=buf_rx_ppp[TR_ID];
   \   000004D2   01FD               MOVW    R31:R30, R27:R26
   \   000004D4   A105               LDD     R16, Z+37
   \   000004D6   01F2               MOVW    R31:R30, R5:R4
   \   000004D8   8705               STD     Z+13, R16
   4296                                         for(i=0;i<8;i++)Appl_RS485_2.cont_buf[i]=buf_rx_ppp[offset+C1_CONT+i];
   \   000004DA   2466               CLR     R6
   \   000004DC   C00F               RJMP    ??proc_udp_data_37
   \                     ??proc_udp_data_38:
   \   000004DE   2D06               MOV     R16, R6
   \   000004E0   E010               LDI     R17, 0
   \   000004E2   2D2B               MOV     R18, R11
   \   000004E4   E030               LDI     R19, 0
   \   000004E6   0F20               ADD     R18, R16
   \   000004E8   1F31               ADC     R19, R17
   \   000004EA   01FD               MOVW    R31:R30, R27:R26
   \   000004EC   0FE2               ADD     R30, R18
   \   000004EE   1FF3               ADC     R31, R19
   \   000004F0   8122               LDD     R18, Z+2
   \   000004F2   01F2               MOVW    R31:R30, R5:R4
   \   000004F4   0FE0               ADD     R30, R16
   \   000004F6   1FF1               ADC     R31, R17
   \   000004F8   8325               STD     Z+5, R18
   \   000004FA   9463               INC     R6
   \                     ??proc_udp_data_37:
   \   000004FC   E008               LDI     R16, 8
   \   000004FE   1660               CP      R6, R16
   \   00000500   F370               BRCS    ??proc_udp_data_38
   4297                                         Appl_RS485_2.ln_data_buf=length-10;
   \   00000502   EF06               LDI     R16, 246
   \   00000504   0EE0               ADD     R14, R16
   \   00000506   EF0F               LDI     R16, 255
   \   00000508   1EF0               ADC     R15, R16
   \   0000050A   01F2               MOVW    R31:R30, R5:R4
   \   0000050C   82E1               STD     Z+1, R14
   \   0000050E   82F2               STD     Z+2, R15
   4298                                         for(i=0;i<Appl_RS485_2.ln_data_buf;i++)Appl_RS485_2_data_buf[i]=buf_rx_ppp[offset+C1_DATA_RS+i];
   \   00000510   2466               CLR     R6
   \                     ??proc_udp_data_39:
   \   00000512   2477               CLR     R7
   \   00000514   01F2               MOVW    R31:R30, R5:R4
   \   00000516   8101               LDD     R16, Z+1
   \   00000518   8112               LDD     R17, Z+2
   \   0000051A   1660               CP      R6, R16
   \   0000051C   0671               CPC     R7, R17
   \   0000051E   F008               BRCS    $+2+2
   \   00000520   CD7B               RJMP    ??proc_udp_data_1
   \   00000522   2D06               MOV     R16, R6
   \   00000524   E010               LDI     R17, 0
   \   00000526   2D2B               MOV     R18, R11
   \   00000528   E030               LDI     R19, 0
   \   0000052A   0F20               ADD     R18, R16
   \   0000052C   1D37               ADC     R19, R7
   \   0000052E   01FD               MOVW    R31:R30, R27:R26
   \   00000530   0FE2               ADD     R30, R18
   \   00000532   1FF3               ADC     R31, R19
   \   00000534   8522               LDD     R18, Z+10
   \   00000536   01F8               MOVW    R31:R30, R17:R16
   \   00000538   ....               SUBI    R30, LOW((-(Appl_RS485_2_data_buf) & 0xFFFF))
   \   0000053A   ....               SBCI    R31, (-(Appl_RS485_2_data_buf) & 0xFFFF) >> 8
   \   0000053C   8320               ST      Z, R18
   \   0000053E   9463               INC     R6
   \   00000540   CFE8               RJMP    ??proc_udp_data_39
   4299                                         
   4300                                         
   4301                                      break;
   4302                                 
   4303                                      
   4304                               case PORT232_2:
   4305                                   
   4306             
   4307                                          if(length<11) 
   \                     ??proc_udp_data_11:
   \   00000542   E00B               LDI     R16, 11
   \   00000544   16E0               CP      R14, R16
   \   00000546   E000               LDI     R16, 0
   \   00000548   06F0               CPC     R15, R16
   \   0000054A   F478               BRCC    ??proc_udp_data_40
   4308                                            {
   4309                                              // можно отправиь сообщение об ошибке "некорректные данные"
   4310                                              send_info(sizeof(ans_out_232),ans_out_232,1,buf_rx_ppp[TR_ID]);
   \   0000054C   01FD               MOVW    R31:R30, R27:R26
   \   0000054E   A145               LDD     R20, Z+37
   \   00000550   E011               LDI     R17, 1
   \   00000552   ....               LDI     R18, LOW((evc_rld + 57))
   \   00000554   ....               LDI     R19, HIGH((evc_rld + 57))
   \   00000556   E008               LDI     R16, 8
   \   00000558   ........           CALL    send_info
   4311                                              send_err485(NUM_RS232_2,RS_DATA_ERR,buf_rx_ppp[TR_ID],*(unsigned int*)&buf_rx_ppp[TR_SRC]);
   \   0000055C   01FD               MOVW    R31:R30, R27:R26
   \   0000055E   8D46               LDD     R20, Z+30
   \   00000560   8D57               LDD     R21, Z+31
   \   00000562   A125               LDD     R18, Z+37
   \   00000564   E016               LDI     R17, 6
   \                     ??proc_udp_data_41:
   \   00000566   E003               LDI     R16, 3
   \   00000568   CE77               RJMP    ??proc_udp_data_17
   4312                                             return(0);
   4313                                            }                 
   4314                            
   4315                                       if(length> LN_BUF_232_2+10) 
   \                     ??proc_udp_data_40:
   \   0000056A   E30D               LDI     R16, 61
   \   0000056C   16E0               CP      R14, R16
   \   0000056E   E000               LDI     R16, 0
   \   00000570   06F0               CPC     R15, R16
   \   00000572   F070               BRCS    ??proc_udp_data_42
   4316                                           {
   4317                                          // можно отправиь сообщение об ошибке "слишком длинные данные для приложения"
   4318                                             send_info(sizeof(ans_out_232),ans_out_232,1,buf_rx_ppp[TR_ID]);
   \   00000574   01FD               MOVW    R31:R30, R27:R26
   \   00000576   A145               LDD     R20, Z+37
   \   00000578   E011               LDI     R17, 1
   \   0000057A   ....               LDI     R18, LOW((evc_rld + 57))
   \   0000057C   ....               LDI     R19, HIGH((evc_rld + 57))
   \   0000057E   E008               LDI     R16, 8
   \   00000580   ........           CALL    send_info
   4319                                             send_err485(NUM_RS232_2,RS_OVER_BUF_TX,buf_rx_ppp[TR_ID],*(unsigned int*)&buf_rx_ppp[TR_SRC]);
   \   00000584   01FD               MOVW    R31:R30, R27:R26
   \   00000586   8D46               LDD     R20, Z+30
   \   00000588   8D57               LDD     R21, Z+31
   \   0000058A   A125               LDD     R18, Z+37
   \   0000058C   E015               LDI     R17, 5
   \   0000058E   CFEB               RJMP    ??proc_udp_data_41
   4320                                             return(0);
   4321                                            } 
   4322                                      
   4323                                      
   4324                                      // здесь должна быть проверка контекста, если все нормально то дальше забит контекст
   4325                                      // то можно послать служебное сообщение
   4326                                       if (check_cont_485_1 (&buf_rx_ppp[offset+C1_CONT])==1)
   \                     ??proc_udp_data_42:
   \   00000590   E002               LDI     R16, 2
   \   00000592   0E40               ADD     R4, R16
   \   00000594   E000               LDI     R16, 0
   \   00000596   1E50               ADC     R5, R16
   \   00000598   0182               MOVW    R17:R16, R5:R4
   \   0000059A   ........           CALL    check_cont_485_1
   \   0000059E   3001               CPI     R16, 1
   \   000005A0   F471               BRNE    ??proc_udp_data_43
   4327                                           {
   4328                                             send_info(sizeof(ans_out_232),ans_out_232,1,buf_rx_ppp[TR_ID]);
   \   000005A2   01FD               MOVW    R31:R30, R27:R26
   \   000005A4   A145               LDD     R20, Z+37
   \   000005A6   E011               LDI     R17, 1
   \   000005A8   ....               LDI     R18, LOW((evc_rld + 57))
   \   000005AA   ....               LDI     R19, HIGH((evc_rld + 57))
   \   000005AC   E008               LDI     R16, 8
   \   000005AE   ........           CALL    send_info
   4329                                             send_err485(NUM_RS232_2,RS_NO_CONT,buf_rx_ppp[TR_ID],*(unsigned int*)&buf_rx_ppp[TR_SRC]);
   \   000005B2   01FD               MOVW    R31:R30, R27:R26
   \   000005B4   8D46               LDD     R20, Z+30
   \   000005B6   8D57               LDD     R21, Z+31
   \   000005B8   A125               LDD     R18, Z+37
   \   000005BA   E012               LDI     R17, 2
   \   000005BC   CFD4               RJMP    ??proc_udp_data_41
   4330                                             return(0);
   4331                                            } 
   4332                                      
   4333                                      
   4334                                      if(Appl_RS232_2.fl_data_buf==TRUE)
   \                     ??proc_udp_data_43:
   \   000005BE   ....               LDI     R16, LOW(Appl_RS232_2)
   \   000005C0   2E40               MOV     R4, R16
   \   000005C2   ....               LDI     R16, (Appl_RS232_2) >> 8
   \   000005C4   2E50               MOV     R5, R16
   \   000005C6   01F2               MOVW    R31:R30, R5:R4
   \   000005C8   8100               LD      R16, Z
   \   000005CA   3001               CPI     R16, 1
   \   000005CC   F471               BRNE    ??proc_udp_data_44
   4335                                         {
   4336                                         // то можно послать служебное сообщение что буфер переполнен
   4337                                         send_info(sizeof(ans_out_232),ans_out_232,1,buf_rx_ppp[TR_ID]);
   \   000005CE   01FD               MOVW    R31:R30, R27:R26
   \   000005D0   A145               LDD     R20, Z+37
   \   000005D2   E011               LDI     R17, 1
   \   000005D4   ....               LDI     R18, LOW((evc_rld + 57))
   \   000005D6   ....               LDI     R19, HIGH((evc_rld + 57))
   \   000005D8   E008               LDI     R16, 8
   \   000005DA   ........           CALL    send_info
   4338                                           send_err485(NUM_RS232_2,RS_BUSY,buf_rx_ppp[TR_ID],*(unsigned int*)&buf_rx_ppp[TR_SRC]);
   \   000005DE   01FD               MOVW    R31:R30, R27:R26
   \   000005E0   8D46               LDD     R20, Z+30
   \   000005E2   8D57               LDD     R21, Z+31
   \   000005E4   A125               LDD     R18, Z+37
   \   000005E6   E013               LDI     R17, 3
   \   000005E8   CFBE               RJMP    ??proc_udp_data_41
   4339                                         break;
   4340                                         }
   4341                                         
   4342                                         if(Regim==RG_DEBAG)
   \                     ??proc_udp_data_44:
   \   000005EA   9100....           LDS     R16, Regim
   \   000005EE   3001               CPI     R16, 1
   \   000005F0   F471               BRNE    ??proc_udp_data_45
   4343                                         {// включен тестовый режим!!!
   4344                                          send_info(sizeof(ans_out_232),ans_out_232,1,buf_rx_ppp[TR_ID]);
   \   000005F2   01FD               MOVW    R31:R30, R27:R26
   \   000005F4   A145               LDD     R20, Z+37
   \   000005F6   E011               LDI     R17, 1
   \   000005F8   ....               LDI     R18, LOW((evc_rld + 57))
   \   000005FA   ....               LDI     R19, HIGH((evc_rld + 57))
   \   000005FC   E008               LDI     R16, 8
   \   000005FE   ........           CALL    send_info
   4345                                           send_err485(NUM_RS232_2,RS_TEST,buf_rx_ppp[TR_ID],*(unsigned int*)&buf_rx_ppp[TR_SRC]);
   \   00000602   01FD               MOVW    R31:R30, R27:R26
   \   00000604   8D46               LDD     R20, Z+30
   \   00000606   8D57               LDD     R21, Z+31
   \   00000608   A125               LDD     R18, Z+37
   \   0000060A   E018               LDI     R17, 8
   \   0000060C   CFAC               RJMP    ??proc_udp_data_41
   4346                                           return(0);
   4347                                         }
   4348                                         
   4349                                         
   4350                                         Appl_RS232_2.pre_tx=0;
   \                     ??proc_udp_data_45:
   \   0000060E   E000               LDI     R16, 0
   \   00000610   8B01               STD     Z+17, R16
   \   00000612   8B02               STD     Z+18, R16
   4351                                          if(length_head>MIN_TR_HEAD)
   \   00000614   E00D               LDI     R16, 13
   \   00000616   16A0               CP      R10, R16
   \   00000618   F070               BRCS    ??proc_udp_data_46
   4352                                            {
   4353                                              if (proc_option(buf_rx_ppp,TR_OP_DATA,length_head-MIN_TR_HEAD)!=1)return(0);                                                                  
   \   0000061A   01A6               MOVW    R21:R20, R13:R12
   \   0000061C   E22A               LDI     R18, 42
   \   0000061E   E030               LDI     R19, 0
   \   00000620   018D               MOVW    R17:R16, R27:R26
   \   00000622   ....               RCALL   proc_option
   \   00000624   3001               CPI     R16, 1
   \   00000626   F009               BREQ    $+2+2
   \   00000628   CCF7               RJMP    ??proc_udp_data_1
   4354                                              Appl_RS232_2.pre_tx=delay_pre_tx;//задержка перед передачей
   \   0000062A   01FC               MOVW    R31:R30, R25:R24
   \   0000062C   8900               LDD     R16, Z+16
   \   0000062E   8911               LDD     R17, Z+17
   \   00000630   01F2               MOVW    R31:R30, R5:R4
   \   00000632   8B01               STD     Z+17, R16
   \   00000634   8B12               STD     Z+18, R17
   4355                                            } 
   4356                                         
   4357                                         
   4358                                         if(fl_232_2.busy==1)Appl_RS232_2.fl_data_buf=TRUE;
   \                     ??proc_udp_data_46:
   \   00000636   ....               LDI     R30, LOW(fl_232_2)
   \   00000638   ....               LDI     R31, (fl_232_2) >> 8
   \   0000063A   8100               LD      R16, Z
   \   0000063C   FF00               SBRS    R16, 0
   \   0000063E   C003               RJMP    ??proc_udp_data_47
   \   00000640   E001               LDI     R16, 1
   \   00000642   01F2               MOVW    R31:R30, R5:R4
   \   00000644   C002               RJMP    ??proc_udp_data_48
   4359                                         else fl_232_2.tx=1;
   \                     ??proc_udp_data_47:
   \   00000646   8100               LD      R16, Z
   \   00000648   6008               ORI     R16, 0x08
   \                     ??proc_udp_data_48:
   \   0000064A   8300               ST      Z, R16
   4360                                         Appl_RS232_2.dst_buf=*(unsigned int*)&buf_rx_ppp[TR_SRC];
   \   0000064C   01FD               MOVW    R31:R30, R27:R26
   \   0000064E   8D06               LDD     R16, Z+30
   \   00000650   8D17               LDD     R17, Z+31
   \   00000652   01F2               MOVW    R31:R30, R5:R4
   \   00000654   8303               STD     Z+3, R16
   \   00000656   8314               STD     Z+4, R17
   4361                                         Appl_RS232_2.id_buf=buf_rx_ppp[TR_ID];
   \   00000658   01FD               MOVW    R31:R30, R27:R26
   \   0000065A   A105               LDD     R16, Z+37
   \   0000065C   01F2               MOVW    R31:R30, R5:R4
   \   0000065E   8705               STD     Z+13, R16
   4362                                         for(i=0;i<8;i++)Appl_RS232_2.cont_buf[i]=buf_rx_ppp[offset+C1_CONT+i];
   \   00000660   2466               CLR     R6
   \   00000662   C00F               RJMP    ??proc_udp_data_49
   \                     ??proc_udp_data_50:
   \   00000664   2D06               MOV     R16, R6
   \   00000666   E010               LDI     R17, 0
   \   00000668   2D2B               MOV     R18, R11
   \   0000066A   E030               LDI     R19, 0
   \   0000066C   0F20               ADD     R18, R16
   \   0000066E   1F31               ADC     R19, R17
   \   00000670   01FD               MOVW    R31:R30, R27:R26
   \   00000672   0FE2               ADD     R30, R18
   \   00000674   1FF3               ADC     R31, R19
   \   00000676   8122               LDD     R18, Z+2
   \   00000678   01F2               MOVW    R31:R30, R5:R4
   \   0000067A   0FE0               ADD     R30, R16
   \   0000067C   1FF1               ADC     R31, R17
   \   0000067E   8325               STD     Z+5, R18
   \   00000680   9463               INC     R6
   \                     ??proc_udp_data_49:
   \   00000682   E008               LDI     R16, 8
   \   00000684   1660               CP      R6, R16
   \   00000686   F370               BRCS    ??proc_udp_data_50
   4363                                         Appl_RS232_2.ln_data_buf=length-10;
   \   00000688   EF06               LDI     R16, 246
   \   0000068A   0EE0               ADD     R14, R16
   \   0000068C   EF0F               LDI     R16, 255
   \   0000068E   1EF0               ADC     R15, R16
   \   00000690   01F2               MOVW    R31:R30, R5:R4
   \   00000692   82E1               STD     Z+1, R14
   \   00000694   82F2               STD     Z+2, R15
   4364                                         for(i=0;i<Appl_RS232_2.ln_data_buf;i++)Appl_RS232_2_data_buf[i]=buf_rx_ppp[offset+C1_DATA_RS+i];
   \   00000696   2466               CLR     R6
   \                     ??proc_udp_data_51:
   \   00000698   2477               CLR     R7
   \   0000069A   01F2               MOVW    R31:R30, R5:R4
   \   0000069C   8101               LDD     R16, Z+1
   \   0000069E   8112               LDD     R17, Z+2
   \   000006A0   1660               CP      R6, R16
   \   000006A2   0671               CPC     R7, R17
   \   000006A4   F008               BRCS    $+2+2
   \   000006A6   CCB8               RJMP    ??proc_udp_data_1
   \   000006A8   2D06               MOV     R16, R6
   \   000006AA   E010               LDI     R17, 0
   \   000006AC   2D2B               MOV     R18, R11
   \   000006AE   E030               LDI     R19, 0
   \   000006B0   0F20               ADD     R18, R16
   \   000006B2   1D37               ADC     R19, R7
   \   000006B4   01FD               MOVW    R31:R30, R27:R26
   \   000006B6   0FE2               ADD     R30, R18
   \   000006B8   1FF3               ADC     R31, R19
   \   000006BA   8522               LDD     R18, Z+10
   \   000006BC   01F8               MOVW    R31:R30, R17:R16
   \   000006BE   ....               SUBI    R30, LOW((-(Appl_RS232_2_data_buf) & 0xFFFF))
   \   000006C0   ....               SBCI    R31, (-(Appl_RS232_2_data_buf) & 0xFFFF) >> 8
   \   000006C2   8320               ST      Z, R18
   \   000006C4   9463               INC     R6
   \   000006C6   CFE8               RJMP    ??proc_udp_data_51
   4365                                         
   4366                                         
   4367                                      break;
   4368                                      
   4369                                      
   4370                                      
   4371          
   4372                                 case PORT_SEQ:
   4373                                      if(length<5)return(0);
   \                     ??proc_udp_data_12:
   \   000006C8   E025               LDI     R18, 5
   \   000006CA   16E2               CP      R14, R18
   \   000006CC   E020               LDI     R18, 0
   \   000006CE   06F2               CPC     R15, R18
   \   000006D0   F408               BRCC    $+2+2
   \   000006D2   CCA2               RJMP    ??proc_udp_data_1
   4374                                      if(*(unsigned int*)&buf_rx_ppp[TR_SRC]!=num_seq_cl)return(0);
   \   000006D4   01FD               MOVW    R31:R30, R27:R26
   \   000006D6   8D26               LDD     R18, Z+30
   \   000006D8   8D37               LDD     R19, Z+31
   \   000006DA   ....               LDI     R30, LOW(num_seq_cl)
   \   000006DC   ....               LDI     R31, (num_seq_cl) >> 8
   \   000006DE   8140               LD      R20, Z
   \   000006E0   8151               LDD     R21, Z+1
   \   000006E2   1724               CP      R18, R20
   \   000006E4   0735               CPC     R19, R21
   \   000006E6   F009               BREQ    $+2+2
   \   000006E8   CC97               RJMP    ??proc_udp_data_1
   4375                                         
   4376                                      if(((buf_rx_ppp[TR_V]>>4)&0x03)==KVIT)
   \   000006EA   01FD               MOVW    R31:R30, R27:R26
   \   000006EC   A124               LDD     R18, Z+36
   \   000006EE   9522               SWAP    R18
   \   000006F0   702F               ANDI    R18, 0x0F
   \   000006F2   7023               ANDI    R18, 0x03
   \   000006F4   3023               CPI     R18, 3
   \   000006F6   F481               BRNE    ??proc_udp_data_52
   4377                                          {
   4378                                          if(buf_rx_ppp[offset+C1_DATA]!=KVITOK_SEQ)return(0);
   \   000006F8   01F2               MOVW    R31:R30, R5:R4
   \   000006FA   8122               LDD     R18, Z+2
   \   000006FC   3021               CPI     R18, 1
   \   000006FE   F009               BREQ    $+2+2
   \   00000700   CC8B               RJMP    ??proc_udp_data_1
   4379                                          if(length!=5)return(0);
   \   00000702   E025               LDI     R18, 5
   \   00000704   16E2               CP      R14, R18
   \   00000706   E020               LDI     R18, 0
   \   00000708   06F2               CPC     R15, R18
   \   0000070A   F009               BREQ    $+2+2
   \   0000070C   CC85               RJMP    ??proc_udp_data_1
   4380                                          if(*(unsigned int*)&buf_rx_ppp[offset+C1_DATA+1]!=L_KVITOK)return(0);
   \   0000070E   8123               LDD     R18, Z+3
   \   00000710   8134               LDD     R19, Z+4
   \   00000712   2B23               OR      R18, R19
   \   00000714   F009               BREQ    $+2+2
   \   00000716   CC80               RJMP    ??proc_udp_data_1
   4381                                          }
   4382                                      
   4383                                      
   4384                                      if(((buf_rx_ppp[TR_V]>>4)&0x03)==ZAPR)
   \                     ??proc_udp_data_52:
   \   00000718   01FD               MOVW    R31:R30, R27:R26
   \   0000071A   A124               LDD     R18, Z+36
   \   0000071C   9522               SWAP    R18
   \   0000071E   702F               ANDI    R18, 0x0F
   \   00000720   7023               ANDI    R18, 0x03
   \   00000722   F009               BREQ    $+2+2
   \   00000724   C098               RJMP    ??proc_udp_data_53
   4385                                         {
   4386                                         if(buf_rx_ppp[offset+C1_DATA]!=ZAPR_TC)return(0);
   \   00000726   01F2               MOVW    R31:R30, R5:R4
   \   00000728   8102               LDD     R16, Z+2
   \   0000072A   3006               CPI     R16, 6
   \   0000072C   F009               BREQ    $+2+2
   \   0000072E   CC74               RJMP    ??proc_udp_data_1
   4387                                         if(length!=5)return(0);
   \   00000730   E005               LDI     R16, 5
   \   00000732   16E0               CP      R14, R16
   \   00000734   E000               LDI     R16, 0
   \   00000736   06F0               CPC     R15, R16
   \   00000738   F009               BREQ    $+2+2
   \   0000073A   CC6E               RJMP    ??proc_udp_data_1
   4388                                         if(*(unsigned int*)&buf_rx_ppp[offset+C1_DATA+1]!=L_ZAPR_TC)return(0);
   \   0000073C   8103               LDD     R16, Z+3
   \   0000073E   8114               LDD     R17, Z+4
   \   00000740   2B01               OR      R16, R17
   \   00000742   F009               BREQ    $+2+2
   \   00000744   CC69               RJMP    ??proc_udp_data_1
   4389                                          
   4390                                         if(fl_ip.act_ip_end!=1)return(0);
   \   00000746   ....               LDI     R30, LOW(ip_pri_dns)
   \   00000748   ....               LDI     R31, (ip_pri_dns) >> 8
   \   0000074A   8504               LDD     R16, Z+12
   \   0000074C   FF00               SBRS    R16, 0
   \   0000074E   CC64               RJMP    ??proc_udp_data_1
   4391                                         fl_ip.act_ip_end=0; 
   \   00000750   8504               LDD     R16, Z+12
   \   00000752   7F0E               ANDI    R16, 0xFE
   \   00000754   8704               STD     Z+12, R16
   4392                                         clr_cntr_nat();
   \   00000756   ........           CALL    clr_cntr_nat
   4393                                         clr_cntr_link();
   \   0000075A   ........           CALL    clr_cntr_link
   4394                                         Obj_ppp_tx.prozr=FALSE;            
   \   0000075E   E000               LDI     R16, 0
   \   00000760   01FC               MOVW    R31:R30, R25:R24
   \   00000762   8300               ST      Z, R16
   4395                                         Obj_ppp_tx.version=VER2;      //версия 
   \   00000764   E002               LDI     R16, 2
   \   00000766   8301               STD     Z+1, R16
   4396                                         Obj_ppp_tx.type_pac=OTV;     //тип пакета
   \   00000768   E001               LDI     R16, 1
   \   0000076A   8302               STD     Z+2, R16
   4397                                         Obj_ppp_tx.num_src=num_self; // номер отправителя
   \   0000076C   ....               LDI     R30, LOW(num_self)
   \   0000076E   ....               LDI     R31, (num_self) >> 8
   \   00000770   8100               LD      R16, Z
   \   00000772   8111               LDD     R17, Z+1
   \   00000774   01FC               MOVW    R31:R30, R25:R24
   \   00000776   8303               STD     Z+3, R16
   \   00000778   8314               STD     Z+4, R17
   4398                                         Obj_ppp_tx.num_dst=*(unsigned int*)&buf_rx_ppp[TR_SRC]; // номер получателя
   \   0000077A   01FD               MOVW    R31:R30, R27:R26
   \   0000077C   8D06               LDD     R16, Z+30
   \   0000077E   8D17               LDD     R17, Z+31
   \   00000780   01FC               MOVW    R31:R30, R25:R24
   \   00000782   8305               STD     Z+5, R16
   \   00000784   8316               STD     Z+6, R17
   4399                                         Obj_ppp_tx.id_pac=buf_rx_ppp[TR_ID]; // идентификатор пакета  
   \   00000786   01FD               MOVW    R31:R30, R27:R26
   \   00000788   A105               LDD     R16, Z+37
   \   0000078A   01FC               MOVW    R31:R30, R25:R24
   \   0000078C   8307               STD     Z+7, R16
   4400                                         Obj_ppp_tx.p_opt=&buf_opt_tr[0]; // //указатель буфера опций          
   \   0000078E   ....               LDI     R16, LOW(buf_opt_tr)
   \   00000790   ....               LDI     R17, (buf_opt_tr) >> 8
   \   00000792   8700               STD     Z+8, R16
   \   00000794   8711               STD     Z+9, R17
   4401                                         Obj_ppp_tx.l_opt=0;// длина буфера опций   
   \   00000796   E000               LDI     R16, 0
   \   00000798   8702               STD     Z+10, R16
   4402                                         buf_tx_232[TR_OP_DATA+C1_PROT]=PROT_C1;
   \   0000079A   E001               LDI     R16, 1
   \   0000079C   ....               LDI     R30, LOW(buf_tx_232)
   \   0000079E   ....               LDI     R31, (buf_tx_232) >> 8
   \   000007A0   A702               STD     Z+42, R16
   4403                                         buf_tx_232[TR_OP_DATA+C1_PORT]=PORT_SEQ;
   \   000007A2   E004               LDI     R16, 4
   \   000007A4   A703               STD     Z+43, R16
   4404                                         buf_tx_232[TR_OP_DATA+C1_DATA]=SEQ_STATE;
   \   000007A6   E006               LDI     R16, 6
   \   000007A8   A704               STD     Z+44, R16
   4405                                          *(unsigned int*)&buf_tx_232[TR_OP_DATA+C1_DATA+1]=L_STATE;
   \   000007AA   E007               LDI     R16, 7
   \   000007AC   E010               LDI     R17, 0
   \   000007AE   A705               STD     Z+45, R16
   \   000007B0   A716               STD     Z+46, R17
   4406                                          *(unsigned long int*)&buf_tx_232[TR_OP_DATA+C1_DATA+3]=burst_ds_r();
   \   000007B2   ........           CALL    burst_ds_r
   \   000007B6   ....               LDI     R30, LOW(buf_tx_232)
   \   000007B8   ....               LDI     R31, (buf_tx_232) >> 8
   \   000007BA   A707               STD     Z+47, R16
   \   000007BC   AB10               STD     Z+48, R17
   \   000007BE   AB21               STD     Z+49, R18
   \   000007C0   AB32               STD     Z+50, R19
   4407                                         buf_tx_232[TR_OP_DATA+C1_DATA+8]=0;
   \   000007C2   E000               LDI     R16, 0
   \   000007C4   AB04               STD     Z+52, R16
   4408                                         buf_tx_232[TR_OP_DATA+C1_DATA+9]=0;
   \   000007C6   AB05               STD     Z+53, R16
   4409                                                
   4410                                         if(Appl_seq_des==0)
   \   000007C8   9100....           LDS     R16, Appl_seq_des
   \   000007CC   2300               TST     R16
   \   000007CE   F441               BRNE    ??proc_udp_data_54
   4411                                          {
   4412                                        //   buf_tx_232[TR_OP_DATA+C1_DATA+7]=state_seq;         !!!!!!!!!!!!!!!!!!!!
   4413                                        //   buf_tx_232[TR_OP_DATA+C1_DATA+8]=sv_tc.bytes[0] & 0x01;!!!!!!!!!!!!!!!!!!!
   4414                                           buf_tx_232[TR_OP_DATA+C1_DATA+9]=byte_state_net & 0x01;
   \   000007D0   ....               LDI     R30, LOW(byte_state_net)
   \   000007D2   ....               LDI     R31, (byte_state_net) >> 8
   \   000007D4   8100               LD      R16, Z
   \   000007D6   7001               ANDI    R16, 0x01
   \   000007D8   ....               LDI     R30, LOW(buf_tx_232)
   \   000007DA   ....               LDI     R31, (buf_tx_232) >> 8
   \   000007DC   AB05               STD     Z+53, R16
   \   000007DE   C002               RJMP    ??proc_udp_data_55
   4415                                           }
   4416                                           else buf_tx_232[TR_OP_DATA+C1_DATA+7]=DES_SEQ;
   \                     ??proc_udp_data_54:
   \   000007E0   EF0F               LDI     R16, 255
   \   000007E2   AB03               STD     Z+51, R16
   4417                                          
   4418                                          Obj_ppp_tx.l_data=5+L_STATE;   // длина данных
   \                     ??proc_udp_data_55:
   \   000007E4   E00C               LDI     R16, 12
   \   000007E6   E010               LDI     R17, 0
   \   000007E8   01FC               MOVW    R31:R30, R25:R24
   \   000007EA   8706               STD     Z+14, R16
   \   000007EC   8717               STD     Z+15, R17
   4419                                          Obj_ppp_tx.p_data=&buf_tx_232[TR_OP_DATA+C1_PROT];  //указатель буфера данных
   \   000007EE   ....               LDI     R16, LOW(buf_tx_232)
   \   000007F0   ....               LDI     R17, (buf_tx_232) >> 8
   \   000007F2   5D06               SUBI    R16, 214
   \   000007F4   4F1F               SBCI    R17, 255
   \   000007F6   8704               STD     Z+12, R16
   \   000007F8   8715               STD     Z+13, R17
   4420                                       
   4421                                         send_info(sizeof(ans_out_st_contr),ans_out_st_contr,1,buf_rx_ppp[TR_ID]);
   \   000007FA   01FD               MOVW    R31:R30, R27:R26
   \   000007FC   A145               LDD     R20, Z+37
   \   000007FE   E011               LDI     R17, 1
   \   00000800   ....               LDI     R18, LOW((evc_rld + 65))
   \   00000802   ....               LDI     R19, HIGH((evc_rld + 65))
   \   00000804   E00D               LDI     R16, 13
   \   00000806   ........           CALL    send_info
   4422                                        
   4423                                         form_buf_tx_ppp();                            
   \   0000080A   ........           CALL    form_buf_tx_ppp
   4424                                         UCSR0A=UCSR0A | TXC;                            
   \   0000080E   910000C0           LDS     R16, 192
   \   00000812   6400               ORI     R16, 0x40
   \   00000814   930000C0           STS     192, R16
   4425                                         UCSR0B=UCSR0B | TXEN;
   \   00000818   910000C1           LDS     R16, 193
   \   0000081C   6008               ORI     R16, 0x08
   \   0000081E   930000C1           STS     193, R16
   4426                                         UCSR0B=UCSR0B | TXCIE;
   \   00000822   910000C1           LDS     R16, 193
   \   00000826   6400               ORI     R16, 0x40
   \   00000828   930000C1           STS     193, R16
   4427                                         if(check_cts()==1) return(1);                
   \   0000082C   ........           CALL    check_cts
   \   00000830   3001               CPI     R16, 1
   \   00000832   F411               BRNE    ??proc_udp_data_56
   \                     ??proc_udp_data_5:
   \   00000834   E001               LDI     R16, 1
   \   00000836   CBF1               RJMP    ??proc_udp_data_2
   4428                                         S2_RD
   \                     ??proc_udp_data_56:
   \   00000838   9A40               SBI     0x08, 0x00
   \   0000083A   9841               CBI     0x08, 0x01
   4429                                         UDR0=buf_tx_232[0]; 
   \   0000083C   ....               LDI     R30, LOW(buf_tx_232)
   \   0000083E   ....               LDI     R31, (buf_tx_232) >> 8
   \   00000840   8100               LD      R16, Z
   \   00000842   930000C6           STS     198, R16
   4430                                         if(Regim==RG_DEBAG) UDR3=buf_tx_232[0];
   \   00000846   9100....           LDS     R16, Regim
   \   0000084A   3001               CPI     R16, 1
   \   0000084C   F799               BRNE    ??proc_udp_data_5
   \                     ??proc_udp_data_57:
   \   0000084E   8100               LD      R16, Z
   \   00000850   93000136           STS     310, R16
   \   00000854   CFEF               RJMP    ??proc_udp_data_5
   4431                                         return(1);
   4432                                         } 
   4433                                      
   4434                                      
   4435                                      if(fl_appl_seq.kv_waits==1)
   \                     ??proc_udp_data_53:
   \   00000856   ....               LDI     R30, LOW(fl_appl_seq)
   \   00000858   ....               LDI     R31, (fl_appl_seq) >> 8
   \   0000085A   8120               LD      R18, Z
   \   0000085C   FF21               SBRS    R18, 1
   \   0000085E   CBDC               RJMP    ??proc_udp_data_1
   4436                                          {  
   4437                                           if(((buf_rx_ppp[TR_V]>>4)&0x03)!=KVIT)return(0); 
   \   00000860   01FD               MOVW    R31:R30, R27:R26
   \   00000862   A124               LDD     R18, Z+36
   \   00000864   9522               SWAP    R18
   \   00000866   702F               ANDI    R18, 0x0F
   \   00000868   7023               ANDI    R18, 0x03
   \   0000086A   3023               CPI     R18, 3
   \   0000086C   F009               BREQ    $+2+2
   \   0000086E   CBD4               RJMP    ??proc_udp_data_1
   4438                                           if(Appl_seq.id!=buf_rx_ppp[TR_ID])return(0);// проверка идентификатора
   \   00000870   01F8               MOVW    R31:R30, R17:R16
   \   00000872   8120               LD      R18, Z
   \   00000874   01FD               MOVW    R31:R30, R27:R26
   \   00000876   A135               LDD     R19, Z+37
   \   00000878   1723               CP      R18, R19
   \   0000087A   F009               BREQ    $+2+2
   \   0000087C   CBCD               RJMP    ??proc_udp_data_1
   4439                                          
   4440                                           
   4441                                           
   4442                                           Appl_seq.cnt_waits=0;
   \   0000087E   E020               LDI     R18, 0
   \   00000880   E030               LDI     R19, 0
   \   00000882   01F8               MOVW    R31:R30, R17:R16
   \   00000884   8721               STD     Z+9, R18
   \   00000886   8722               STD     Z+10, R18
   4443                                           fl_appl_seq.kv_waits=0;
   \   00000888   ....               LDI     R30, LOW(fl_appl_seq)
   \   0000088A   ....               LDI     R31, (fl_appl_seq) >> 8
   \   0000088C   8120               LD      R18, Z
   \   0000088E   7F2D               ANDI    R18, 0xFD
   \   00000890   8320               ST      Z, R18
   4444                                           
   4445                                           cnt_no_link=vol_cnt_no_link;//dobavka
   \   00000892   ....               LDI     R30, LOW(vol_cnt_no_link)
   \   00000894   ....               LDI     R31, (vol_cnt_no_link) >> 8
   \   00000896   8140               LD      R20, Z
   \   00000898   8151               LDD     R21, Z+1
   \   0000089A   8162               LDD     R22, Z+2
   \   0000089C   8173               LDD     R23, Z+3
   \   0000089E   ....               LDI     R30, LOW(cnt_no_link)
   \   000008A0   ....               LDI     R31, (cnt_no_link) >> 8
   \   000008A2   8340               ST      Z, R20
   \   000008A4   8351               STD     Z+1, R21
   \   000008A6   8362               STD     Z+2, R22
   \   000008A8   8373               STD     Z+3, R23
   4446                                           Control.link_waits=FALSE;
   \   000008AA   ....               LDI     R30, LOW(Control)
   \   000008AC   ....               LDI     R31, (Control) >> 8
   \   000008AE   8331               STD     Z+1, R19
   4447                                           Control.cnt_link=Control.vol_link;                   
   \   000008B0   8520               LDD     R18, Z+8
   \   000008B2   8531               LDD     R19, Z+9
   \   000008B4   8324               STD     Z+4, R18
   \   000008B6   8335               STD     Z+5, R19
   4448                                           Control.cnt_try=0;
   \   000008B8   E020               LDI     R18, 0
   \   000008BA   8726               STD     Z+14, R18
   4449                                           Control.link_no=FALSE;
   \   000008BC   8320               ST      Z, R18
   4450                                           
   4451                                           fl_appl_seq.en_povtor=0;
   \   000008BE   ....               LDI     R30, LOW(fl_appl_seq)
   \   000008C0   ....               LDI     R31, (fl_appl_seq) >> 8
   \   000008C2   8120               LD      R18, Z
   \   000008C4   7F2B               ANDI    R18, 0xFB
   \   000008C6   8320               ST      Z, R18
   4452                                           // КВИТИРОВАНИЕ
   4453                                           Appl_seq.p_out=Appl_seq.p_out_kv;
   \   000008C8   01F8               MOVW    R31:R30, R17:R16
   \   000008CA   8125               LDD     R18, Z+5
   \   000008CC   8136               LDD     R19, Z+6
   \   000008CE   8323               STD     Z+3, R18
   \   000008D0   8334               STD     Z+4, R19
   4454                                           Appl_seq.l_data=0;
   \   000008D2   E020               LDI     R18, 0
   \   000008D4   8724               STD     Z+12, R18
   \   000008D6   8725               STD     Z+13, R18
   4455                                           if(fl_appl_seq1.over_buf==1)
   \   000008D8   ....               LDI     R30, LOW(fl_appl_seq1)
   \   000008DA   ....               LDI     R31, (fl_appl_seq1) >> 8
   \   000008DC   8100               LD      R16, Z
   \   000008DE   FF00               SBRS    R16, 0
   \   000008E0   C006               RJMP    ??proc_udp_data_58
   4456                                              {
   4457                                              fl_appl_seq1.over_buf=0;
   4458                                              fl_appl_seq1.send_state=1;
   \   000008E2   9100....           LDS     R16, fl_appl_seq1
   \   000008E6   7F0E               ANDI    R16, 0xFE
   \   000008E8   6002               ORI     R16, 0x02
   \   000008EA   9300....           STS     fl_appl_seq1, R16
   4459                                              }
   4460                                           send_info(sizeof(rec_evc),rec_evc,1,buf_rx_ppp[TR_ID]);
   \                     ??proc_udp_data_58:
   \   000008EE   01FD               MOVW    R31:R30, R27:R26
   \   000008F0   A145               LDD     R20, Z+37
   \   000008F2   E011               LDI     R17, 1
   \   000008F4   ....               LDI     R18, LOW((evc_rld + 18))
   \   000008F6   ....               LDI     R19, HIGH((evc_rld + 18))
   \   000008F8   E007               LDI     R16, 7
   \   000008FA   CC7F               RJMP    ??proc_udp_data_8
   4461                                           return(1); 
   4462                                           }
   4463                                           
   4464                                           
   4465                                      break;     
   4466                                 case PORT_SYS:
   4467                                      break;
   4468                                  case PORT_CONF:
   4469                                      if(length<5)return(0);               
   \                     ??proc_udp_data_13:
   \   000008FC   E005               LDI     R16, 5
   \   000008FE   16E0               CP      R14, R16
   \   00000900   E000               LDI     R16, 0
   \   00000902   06F0               CPC     R15, R16
   \   00000904   F408               BRCC    $+2+2
   \   00000906   CB88               RJMP    ??proc_udp_data_1
   4470                                      if(((buf_rx_ppp[TR_V]>>4)&0x03)!=ZAPR)return(0);
   \   00000908   01FD               MOVW    R31:R30, R27:R26
   \   0000090A   A104               LDD     R16, Z+36
   \   0000090C   9502               SWAP    R16
   \   0000090E   700F               ANDI    R16, 0x0F
   \   00000910   7003               ANDI    R16, 0x03
   \   00000912   F009               BREQ    $+2+2
   \   00000914   CB81               RJMP    ??proc_udp_data_1
   4471                                      
   4472                                      if (check_ln_conf(&buf_rx_ppp[0],offset,count_rx_ppp)==1)return(0);
   \   00000916   8148               LD      R20, Y
   \   00000918   8159               LDD     R21, Y+1
   \   0000091A   2D2B               MOV     R18, R11
   \   0000091C   018D               MOVW    R17:R16, R27:R26
   \   0000091E   ........           CALL    check_ln_conf
   \   00000922   3001               CPI     R16, 1
   \   00000924   F409               BRNE    $+2+2
   \   00000926   CB78               RJMP    ??proc_udp_data_1
   4473                                      
   4474          
   4475                                      
   4476                                      if((buf_rx_ppp[offset+C1_DATA] & 0x7f)==CONF_LOG)
   \   00000928   01F2               MOVW    R31:R30, R5:R4
   \   0000092A   8102               LDD     R16, Z+2
   \   0000092C   770F               ANDI    R16, 0x7F
   \   0000092E   3100               CPI     R16, 16
   \   00000930   F009               BREQ    $+2+2
   \   00000932   C041               RJMP    ??proc_udp_data_59
   4477                                      {
   4478                                           if(length>5)return(0);
   \   00000934   E006               LDI     R16, 6
   \   00000936   16E0               CP      R14, R16
   \   00000938   E000               LDI     R16, 0
   \   0000093A   06F0               CPC     R15, R16
   \   0000093C   F008               BRCS    $+2+2
   \   0000093E   CB6C               RJMP    ??proc_udp_data_1
   4479                                           if(*(unsigned int*)&buf_rx_ppp[offset+C1_DATA+1]!=L_CONF_LOG)return(0);
   \   00000940   8103               LDD     R16, Z+3
   \   00000942   8114               LDD     R17, Z+4
   \   00000944   2B01               OR      R16, R17
   \   00000946   F009               BREQ    $+2+2
   \   00000948   CB67               RJMP    ??proc_udp_data_1
   4480                                           if((buf_rx_ppp[offset+C1_DATA] & 0x80)==0x80)
   \   0000094A   8102               LDD     R16, Z+2
   \   0000094C   FF07               SBRS    R16, 7
   \   0000094E   C017               RJMP    ??proc_udp_data_60
   4481                                              {
   4482                                              //стирание лог файла          
   4483                                              __watchdog_reset();
   \   00000950   95A8               WDR
   4484                                               WrArrayToFlesh(BEG_BUF_LOG,0,(L_LOG*6),0x01,0x00);
   \   00000952   E070               LDI     R23, 0
   \   00000954   E061               LDI     R22, 1
   \   00000956   EF40               LDI     R20, 240
   \   00000958   E050               LDI     R21, 0
   \   0000095A   E020               LDI     R18, 0
   \   0000095C   E030               LDI     R19, 0
   \   0000095E   EF04               LDI     R16, 244
   \   00000960   E011               LDI     R17, 1
   \   00000962   ........           CALL    WrArrayToFlesh
   4485                                              __watchdog_reset();
   \   00000966   95A8               WDR
   4486                                              point_log_buf=0;
   \   00000968   E000               LDI     R16, 0
   \   0000096A   9300....           STS     point_log_buf, R16
   4487                                              *(unsigned int*)&buf_tx_232[TR_OP_DATA+C1_DATA+1]=L_CONF_LOG+1;
   \   0000096E   E001               LDI     R16, 1
   \   00000970   E010               LDI     R17, 0
   \   00000972   ....               LDI     R30, LOW(buf_tx_232)
   \   00000974   ....               LDI     R31, (buf_tx_232) >> 8
   \   00000976   A705               STD     Z+45, R16
   \   00000978   A716               STD     Z+46, R17
   4488                                               Obj_ppp_tx.l_data=5+L_CONF_LOG+1;
   \   0000097A   E006               LDI     R16, 6
   \   0000097C   C011               RJMP    ??proc_udp_data_61
   4489                                            //  ii=0;
   4490                                              }
   4491                                              else
   4492                                              {
   4493                                              //чтение 
   4494                                              RdFromFleshToArr(BEG_BUF_LOG,&buf_tx_232[TR_OP_DATA+C1_DATA+4],(L_LOG*6));
   \                     ??proc_udp_data_60:
   \   0000097E   EF40               LDI     R20, 240
   \   00000980   E050               LDI     R21, 0
   \   00000982   ....               LDI     R18, LOW(buf_tx_232)
   \   00000984   ....               LDI     R19, (buf_tx_232) >> 8
   \   00000986   5D20               SUBI    R18, 208
   \   00000988   4F3F               SBCI    R19, 255
   \   0000098A   EF04               LDI     R16, 244
   \   0000098C   E011               LDI     R17, 1
   \   0000098E   ........           CALL    RdFromFleshToArr
   4495                                              *(unsigned int*)&buf_tx_232[TR_OP_DATA+C1_DATA+1]=L_CONF_LOG+(L_LOG*6)+1;
   \   00000992   EF01               LDI     R16, 241
   \   00000994   E010               LDI     R17, 0
   \   00000996   ....               LDI     R30, LOW(buf_tx_232)
   \   00000998   ....               LDI     R31, (buf_tx_232) >> 8
   \   0000099A   A705               STD     Z+45, R16
   \   0000099C   A716               STD     Z+46, R17
   4496                                               Obj_ppp_tx.l_data=5+L_CONF_LOG+(L_LOG*6)+1;
   \   0000099E   EF06               LDI     R16, 246
   \                     ??proc_udp_data_61:
   \   000009A0   01FC               MOVW    R31:R30, R25:R24
   \   000009A2   8706               STD     Z+14, R16
   \   000009A4   8717               STD     Z+15, R17
   4497                                             // ii=;
   4498                                              }
   4499                                          
   4500                                             buf_tx_232[TR_OP_DATA+C1_DATA]=buf_rx_ppp[offset+C1_DATA];
   \   000009A6   01F2               MOVW    R31:R30, R5:R4
   \   000009A8   8102               LDD     R16, Z+2
   \   000009AA   ....               LDI     R30, LOW(buf_tx_232)
   \   000009AC   ....               LDI     R31, (buf_tx_232) >> 8
   \   000009AE   A704               STD     Z+44, R16
   4501                                             buf_tx_232[TR_OP_DATA+C1_DATA+3]=0x00; //OK
   \   000009B0   E000               LDI     R16, 0
   \   000009B2   A707               STD     Z+47, R16
   4502                                             goto otv_conf;                              
   \   000009B4   C00F               RJMP    ??proc_udp_data_62
   4503                                        
   4504                                      }
   4505                                      
   4506                                       
   4507                                       
   4508                                     Obj_ppp_tx.l_data=proc_config(&buf_rx_ppp[0],offset,count_rx_ppp);
   \                     ??proc_udp_data_59:
   \   000009B6   8148               LD      R20, Y
   \   000009B8   8159               LDD     R21, Y+1
   \   000009BA   2D2B               MOV     R18, R11
   \   000009BC   018D               MOVW    R17:R16, R27:R26
   \   000009BE   ........           CALL    proc_config
   \   000009C2   01FC               MOVW    R31:R30, R25:R24
   \   000009C4   8706               STD     Z+14, R16
   \   000009C6   8717               STD     Z+15, R17
   4509                                     Obj_ppp_tx.l_data=Obj_ppp_tx.l_data+2;     
   \   000009C8   8506               LDD     R16, Z+14
   \   000009CA   8517               LDD     R17, Z+15
   \   000009CC   5F0E               SUBI    R16, 254
   \   000009CE   4F1F               SBCI    R17, 255
   \   000009D0   8706               STD     Z+14, R16
   \   000009D2   8717               STD     Z+15, R17
   4510                                    
   4511            
   4512            
   4513            otv_conf:                        
   4514                                     clr_cntr_nat();                                  
   \                     ??proc_udp_data_62:
   \   000009D4   ........           CALL    clr_cntr_nat
   4515                                     if(fl_ip.act_ip_end!=1)return(0);
   \   000009D8   ....               LDI     R30, LOW(ip_pri_dns)
   \   000009DA   ....               LDI     R31, (ip_pri_dns) >> 8
   \   000009DC   8504               LDD     R16, Z+12
   \   000009DE   FF00               SBRS    R16, 0
   \   000009E0   CB1B               RJMP    ??proc_udp_data_1
   4516                                     fl_ip.act_ip_end=0;      
   \   000009E2   8504               LDD     R16, Z+12
   \   000009E4   7F0E               ANDI    R16, 0xFE
   \   000009E6   8704               STD     Z+12, R16
   4517                                     clr_cntr_link();
   \   000009E8   ........           CALL    clr_cntr_link
   4518                                            Obj_ppp_tx.prozr=FALSE;            
   \   000009EC   E000               LDI     R16, 0
   \   000009EE   01FC               MOVW    R31:R30, R25:R24
   \   000009F0   8300               ST      Z, R16
   4519                                            Obj_ppp_tx.version=VER2;      //версия 
   \   000009F2   E002               LDI     R16, 2
   \   000009F4   8301               STD     Z+1, R16
   4520                                            Obj_ppp_tx.type_pac=OTV;     //тип пакета
   \   000009F6   E001               LDI     R16, 1
   \   000009F8   8302               STD     Z+2, R16
   4521                                            Obj_ppp_tx.num_src=num_self; // номер отправителя
   \   000009FA   ....               LDI     R30, LOW(num_self)
   \   000009FC   ....               LDI     R31, (num_self) >> 8
   \   000009FE   8100               LD      R16, Z
   \   00000A00   8111               LDD     R17, Z+1
   \   00000A02   01FC               MOVW    R31:R30, R25:R24
   \   00000A04   8303               STD     Z+3, R16
   \   00000A06   8314               STD     Z+4, R17
   4522                                            Obj_ppp_tx.num_dst=*(unsigned int*)&buf_rx_ppp[TR_SRC]; // номер получателя
   \   00000A08   01FD               MOVW    R31:R30, R27:R26
   \   00000A0A   8D06               LDD     R16, Z+30
   \   00000A0C   8D17               LDD     R17, Z+31
   \   00000A0E   01FC               MOVW    R31:R30, R25:R24
   \   00000A10   8305               STD     Z+5, R16
   \   00000A12   8316               STD     Z+6, R17
   4523                                            Obj_ppp_tx.id_pac=buf_rx_ppp[TR_ID]; // идентификатор пакета  
   \   00000A14   01FD               MOVW    R31:R30, R27:R26
   \   00000A16   A105               LDD     R16, Z+37
   \   00000A18   01FC               MOVW    R31:R30, R25:R24
   \   00000A1A   8307               STD     Z+7, R16
   4524                                            Obj_ppp_tx.p_opt=&buf_opt_tr[0]; // //указатель буфера опций  
   \   00000A1C   ....               LDI     R16, LOW(buf_opt_tr)
   \   00000A1E   ....               LDI     R17, (buf_opt_tr) >> 8
   \   00000A20   8700               STD     Z+8, R16
   \   00000A22   8711               STD     Z+9, R17
   4525                                            Obj_ppp_tx.l_opt=0;// длина буфера опций   
   \   00000A24   E000               LDI     R16, 0
   \   00000A26   8702               STD     Z+10, R16
   4526                                            Obj_ppp_tx.kol_opt=0;// количество опций   
   \   00000A28   8703               STD     Z+11, R16
   4527               
   4528                                            buf_tx_232[TR_OP_DATA+C1_PROT]=PROT_C1;
   \   00000A2A   E001               LDI     R16, 1
   \   00000A2C   ....               LDI     R30, LOW(buf_tx_232)
   \   00000A2E   ....               LDI     R31, (buf_tx_232) >> 8
   \   00000A30   A702               STD     Z+42, R16
   4529                                            buf_tx_232[TR_OP_DATA+C1_PORT]=PORT_CONF;
   \   00000A32   E006               LDI     R16, 6
   \   00000A34   A703               STD     Z+43, R16
   4530           
   4531                                          
   4532                                           Obj_ppp_tx.p_data=&buf_tx_232[TR_OP_DATA+C1_PROT];  //указатель буфера данных
   \   00000A36   ....               LDI     R16, LOW(buf_tx_232)
   \   00000A38   ....               LDI     R17, (buf_tx_232) >> 8
   \   00000A3A   5D06               SUBI    R16, 214
   \   00000A3C   4F1F               SBCI    R17, 255
   \   00000A3E   01FC               MOVW    R31:R30, R25:R24
   \   00000A40   8704               STD     Z+12, R16
   \   00000A42   8715               STD     Z+13, R17
   4533                  
   4534                                           
   4535                                          send_info(sizeof(ans_out_config),ans_out_config,1,buf_rx_ppp[TR_ID]); 
   \   00000A44   01FD               MOVW    R31:R30, R27:R26
   \   00000A46   A145               LDD     R20, Z+37
   \   00000A48   E011               LDI     R17, 1
   \   00000A4A   ....               LDI     R18, LOW((evc_rld + 78))
   \   00000A4C   ....               LDI     R19, HIGH((evc_rld + 78))
   \   00000A4E   E00B               LDI     R16, 11
   \   00000A50   ........           CALL    send_info
   4536                                          form_buf_tx_ppp();   
   \   00000A54   ........           CALL    form_buf_tx_ppp
   4537                                          
   4538                                          if((fl_rewrite.udp==1)||(fl_rewrite.udp==1)||(fl_rewrite.num_self==1))
   \   00000A58   01FC               MOVW    R31:R30, R25:R24
   \   00000A5A   8D02               LDD     R16, Z+26
   \   00000A5C   FD01               SBRC    R16, 1
   \   00000A5E   C004               RJMP    ??proc_udp_data_63
   \   00000A60   8D02               LDD     R16, Z+26
   \   00000A62   7006               ANDI    R16, 0x06
   \   00000A64   F409               BRNE    $+2+2
   \   00000A66   C045               RJMP    ??proc_udp_data_64
   4539                                             {
   4540                                              RdFromFleshToArr(A_IP_PAR,&buf_rx_ppp[0],L_IP_PAR);
   \                     ??proc_udp_data_63:
   \   00000A68   E04A               LDI     R20, 10
   \   00000A6A   E050               LDI     R21, 0
   \   00000A6C   019D               MOVW    R19:R18, R27:R26
   \   00000A6E   E80C               LDI     R16, 140
   \   00000A70   E010               LDI     R17, 0
   \   00000A72   ........           CALL    RdFromFleshToArr
   4541                                              if(fl_rewrite.num_self==1)num_self=*(unsigned int*)&buf_rx_ppp[OFS_NUM];
   \   00000A76   01FC               MOVW    R31:R30, R25:R24
   \   00000A78   8D02               LDD     R16, Z+26
   \   00000A7A   FF02               SBRS    R16, 2
   \   00000A7C   C007               RJMP    ??proc_udp_data_65
   \   00000A7E   01FD               MOVW    R31:R30, R27:R26
   \   00000A80   8106               LDD     R16, Z+6
   \   00000A82   8117               LDD     R17, Z+7
   \   00000A84   ....               LDI     R30, LOW(num_self)
   \   00000A86   ....               LDI     R31, (num_self) >> 8
   \   00000A88   8300               ST      Z, R16
   \   00000A8A   8311               STD     Z+1, R17
   4542                                              if(fl_rewrite.udp==1)port_udp=*(unsigned int*)&buf_rx_ppp[OFS_PORT];
   \                     ??proc_udp_data_65:
   \   00000A8C   01FC               MOVW    R31:R30, R25:R24
   \   00000A8E   8D02               LDD     R16, Z+26
   \   00000A90   FF01               SBRS    R16, 1
   \   00000A92   C007               RJMP    ??proc_udp_data_66
   \   00000A94   01FD               MOVW    R31:R30, R27:R26
   \   00000A96   8104               LDD     R16, Z+4
   \   00000A98   8115               LDD     R17, Z+5
   \   00000A9A   ....               LDI     R30, LOW(port_udp)
   \   00000A9C   ....               LDI     R31, (port_udp) >> 8
   \   00000A9E   8300               ST      Z, R16
   \   00000AA0   8311               STD     Z+1, R17
   4543                                              if(fl_rewrite.ip==1)
   \                     ??proc_udp_data_66:
   \   00000AA2   01FC               MOVW    R31:R30, R25:R24
   \   00000AA4   8D02               LDD     R16, Z+26
   \   00000AA6   FF00               SBRS    R16, 0
   \   00000AA8   C011               RJMP    ??proc_udp_data_67
   4544                                                    {
   4545                                                    ip_ls[0]=buf_rx_ppp[OFS_IP];
   \   00000AAA   ....               LDI     R16, LOW(ip_ls)
   \   00000AAC   ....               LDI     R17, (ip_ls) >> 8
   \   00000AAE   912C               LD      R18, X
   \   00000AB0   01F8               MOVW    R31:R30, R17:R16
   \   00000AB2   8320               ST      Z, R18
   4546                                                    ip_ls[1]=buf_rx_ppp[OFS_IP+1];
   \   00000AB4   01FD               MOVW    R31:R30, R27:R26
   \   00000AB6   8121               LDD     R18, Z+1
   \   00000AB8   01F8               MOVW    R31:R30, R17:R16
   \   00000ABA   8321               STD     Z+1, R18
   4547                                                    ip_ls[2]=buf_rx_ppp[OFS_IP+2];
   \   00000ABC   01FD               MOVW    R31:R30, R27:R26
   \   00000ABE   8122               LDD     R18, Z+2
   \   00000AC0   01F8               MOVW    R31:R30, R17:R16
   \   00000AC2   8322               STD     Z+2, R18
   4548                                                    ip_ls[3]=buf_rx_ppp[OFS_IP+3];
   \   00000AC4   01FD               MOVW    R31:R30, R27:R26
   \   00000AC6   8123               LDD     R18, Z+3
   \   00000AC8   01F8               MOVW    R31:R30, R17:R16
   \   00000ACA   8323               STD     Z+3, R18
   4549                                                    }
   4550                                             fl_rewrite.ip=0;
   4551                                             fl_rewrite.udp=0;
   4552                                             fl_rewrite.num_self=0;
   \                     ??proc_udp_data_67:
   \   00000ACC   01FC               MOVW    R31:R30, R25:R24
   \   00000ACE   8D02               LDD     R16, Z+26
   \   00000AD0   7F08               ANDI    R16, 0xF8
   \   00000AD2   8F02               STD     Z+26, R16
   4553                                             prov_ozu=crc_ozu();
   \   00000AD4   ........           CALL    crc_ozu
   \   00000AD8   ....               LDI     R30, LOW(prov_ozu)
   \   00000ADA   ....               LDI     R31, (prov_ozu) >> 8
   \   00000ADC   8300               ST      Z, R16
   \   00000ADE   8311               STD     Z+1, R17
   4554                                             
   4555                                             Control.cnt_link=3;
   \   00000AE0   E003               LDI     R16, 3
   \   00000AE2   E010               LDI     R17, 0
   \   00000AE4   ....               LDI     R30, LOW(Control)
   \   00000AE6   ....               LDI     R31, (Control) >> 8
   \   00000AE8   8304               STD     Z+4, R16
   \   00000AEA   8315               STD     Z+5, R17
   4556                                             Control.link_waits=FALSE;
   \   00000AEC   8311               STD     Z+1, R17
   4557                                             Control.cnt_try=0;
   \   00000AEE   8716               STD     Z+14, R17
   4558                                             Control.link_no=FALSE;
   \   00000AF0   8310               ST      Z, R17
   4559                                             }
   4560                                         
   4561                                                                   
   4562                                          UCSR0A=UCSR0A | TXC;                            
   \                     ??proc_udp_data_64:
   \   00000AF2   910000C0           LDS     R16, 192
   \   00000AF6   6400               ORI     R16, 0x40
   \   00000AF8   930000C0           STS     192, R16
   4563                                          UCSR0B=UCSR0B | TXEN;
   \   00000AFC   910000C1           LDS     R16, 193
   \   00000B00   6008               ORI     R16, 0x08
   \   00000B02   930000C1           STS     193, R16
   4564                                          UCSR0B=UCSR0B | TXCIE;
   \   00000B06   910000C1           LDS     R16, 193
   \   00000B0A   6400               ORI     R16, 0x40
   \   00000B0C   930000C1           STS     193, R16
   4565                                          if(check_cts()==1) return(1);   
   \   00000B10   ........           CALL    check_cts
   \   00000B14   3001               CPI     R16, 1
   \   00000B16   F409               BRNE    $+2+2
   \   00000B18   CE8D               RJMP    ??proc_udp_data_5
   4566                                          S2_RD             
   \   00000B1A   9A40               SBI     0x08, 0x00
   \   00000B1C   9841               CBI     0x08, 0x01
   4567                                          UDR0=buf_tx_232[0];
   \   00000B1E   ....               LDI     R30, LOW(buf_tx_232)
   \   00000B20   ....               LDI     R31, (buf_tx_232) >> 8
   \   00000B22   8100               LD      R16, Z
   \   00000B24   930000C6           STS     198, R16
   4568                                          if(Regim==RG_DEBAG) UDR3=buf_tx_232[0];
   \   00000B28   9100....           LDS     R16, Regim
   \   00000B2C   3001               CPI     R16, 1
   \   00000B2E   F009               BREQ    $+2+2
   \   00000B30   CE81               RJMP    ??proc_udp_data_5
   \   00000B32   CE8D               RJMP    ??proc_udp_data_57
   4569           
   4570                                       return(1);  
   4571                                       
   4572                                           
   4573                                     // break;
   4574                                 
   4575                                 
   4576                                 
   4577                                 
   4578                                 
   4579                                 case PORT_PROG:
   4580                                      
   4581                                      if(((buf_rx_ppp[TR_V]>>4)&0x03)!=ZAPR)return(0);
   \                     ??proc_udp_data_14:
   \   00000B34   01FD               MOVW    R31:R30, R27:R26
   \   00000B36   A104               LDD     R16, Z+36
   \   00000B38   9502               SWAP    R16
   \   00000B3A   700F               ANDI    R16, 0x0F
   \   00000B3C   7003               ANDI    R16, 0x03
   \   00000B3E   F009               BREQ    $+2+2
   \   00000B40   CA6B               RJMP    ??proc_udp_data_1
   4582                                      
   4583                                      if(length_head==MIN_TR_HEAD)return(0);     
   \   00000B42   E00C               LDI     R16, 12
   \   00000B44   16A0               CP      R10, R16
   \   00000B46   F409               BRNE    $+2+2
   \   00000B48   CA67               RJMP    ??proc_udp_data_1
   4584                                      if (proc_option(buf_rx_ppp,TR_OP_DATA,length_head-MIN_TR_HEAD)!=1)return(0); 
   \   00000B4A   01A6               MOVW    R21:R20, R13:R12
   \   00000B4C   E22A               LDI     R18, 42
   \   00000B4E   E030               LDI     R19, 0
   \   00000B50   018D               MOVW    R17:R16, R27:R26
   \   00000B52   ....               RCALL   proc_option
   \   00000B54   3001               CPI     R16, 1
   \   00000B56   F009               BREQ    $+2+2
   \   00000B58   CA5F               RJMP    ??proc_udp_data_1
   4585                                       
   4586                                      if(length!=5+L_COM_CODE_MEM_Z)return(0);        
   \   00000B5A   E005               LDI     R16, 5
   \   00000B5C   16E0               CP      R14, R16
   \   00000B5E   E001               LDI     R16, 1
   \   00000B60   06F0               CPC     R15, R16
   \   00000B62   F009               BREQ    $+2+2
   \   00000B64   CA59               RJMP    ??proc_udp_data_1
   4587                                      if((buf_rx_ppp[offset+C1_PORT+1])!=COM_CODE_MEM)return(0);
   \   00000B66   01F2               MOVW    R31:R30, R5:R4
   \   00000B68   8102               LDD     R16, Z+2
   \   00000B6A   3001               CPI     R16, 1
   \   00000B6C   F009               BREQ    $+2+2
   \   00000B6E   CA54               RJMP    ??proc_udp_data_1
   4588                                      if((*(unsigned int*)&buf_rx_ppp[offset+C1_PORT+2])!=L_COM_CODE_MEM_Z)return(0);
   \   00000B70   8103               LDD     R16, Z+3
   \   00000B72   8114               LDD     R17, Z+4
   \   00000B74   3000               CPI     R16, 0
   \   00000B76   E021               LDI     R18, 1
   \   00000B78   0712               CPC     R17, R18
   \   00000B7A   F009               BREQ    $+2+2
   \   00000B7C   CA4D               RJMP    ??proc_udp_data_1
   4589                                      
   4590                                      
   4591                                      
   4592                                      
   4593                                      
   4594                                      if(proc_paging()==1)
   \   00000B7E   ....               RCALL   proc_paging
   \   00000B80   3001               CPI     R16, 1
   \   00000B82   F439               BRNE    ??proc_udp_data_68
   4595                                         {
   4596                                         send_no_sinc(buf_rx_ppp[TR_ID],*(unsigned int*)&buf_rx_ppp[TR_SRC],NO_SINC_PG);
   \   00000B84   E012               LDI     R17, 2
   \                     ??proc_udp_data_69:
   \   00000B86   01FD               MOVW    R31:R30, R27:R26
   \   00000B88   8D26               LDD     R18, Z+30
   \   00000B8A   8D37               LDD     R19, Z+31
   \   00000B8C   A105               LDD     R16, Z+37
   \   00000B8E   ....               RCALL   send_no_sinc
   \   00000B90   CA43               RJMP    ??proc_udp_data_1
   4597                                         return(0);
   4598                                         }
   4599                                      
   4600                                     
   4601                                      
   4602                                      if(cnt_pg>251)    //(от 0 до 251) //можно грузить не более 252 стр 
   \                     ??proc_udp_data_68:
   \   00000B92   01FC               MOVW    R31:R30, R25:R24
   \   00000B94   8D20               LDD     R18, Z+24
   \   00000B96   8D31               LDD     R19, Z+25
   \   00000B98   3F2C               CPI     R18, 252
   \   00000B9A   E000               LDI     R16, 0
   \   00000B9C   0730               CPC     R19, R16
   \   00000B9E   F038               BRCS    ??proc_udp_data_70
   4603                                        {
   4604                                        cnt_pg=0;
   \   00000BA0   8F00               STD     Z+24, R16
   \   00000BA2   8F01               STD     Z+25, R16
   4605                                        fl_pg_out.send_crc=0;
   4606                                        fl_pg_out.hold_pg=0;    
   4607                                        fl_pg_out.ch_crc=0; 
   4608                                        fl_pg_out.end_pg=0;
   4609                                        fl_pg_out.cor_pg=0;
   \   00000BA4   A101               LDD     R16, Z+33
   \   00000BA6   7904               ANDI    R16, 0x94
   \   00000BA8   A301               STD     Z+33, R16
   4610                                        send_no_sinc(buf_rx_ppp[TR_ID],*(unsigned int*)&buf_rx_ppp[TR_SRC],OVER_PG);
   \   00000BAA   E013               LDI     R17, 3
   \   00000BAC   CFEC               RJMP    ??proc_udp_data_69
   4611                                        return(0);
   4612                                        }
   4613                                    
   4614                                  
   4615                                        reboot_byte=0; 
   \                     ??proc_udp_data_70:
   \   00000BAE   A300               STD     Z+32, R16
   4616                                        
   4617                                        if(fl_pg_out.cor_pg==1)
   \   00000BB0   A101               LDD     R16, Z+33
   \   00000BB2   FF03               SBRS    R16, 3
   \   00000BB4   C058               RJMP    ??proc_udp_data_71
   4618                                           {
   4619                                           fl_pg_out.cor_pg=0;
   \   00000BB6   A101               LDD     R16, Z+33
   \   00000BB8   7F07               ANDI    R16, 0xF7
   \   00000BBA   A301               STD     Z+33, R16
   4620                                            
   4621                                            
   4622                                            
   4623                                            //произвести запись страницы
   4624                                                pagee=cnt_pg;
   4625                                                pagee=pagee << 8;
   \   00000BBC   2F32               MOV     R19, R18
   \   00000BBE   E020               LDI     R18, 0
   \   00000BC0   8B22               STD     Z+18, R18
   \   00000BC2   8B33               STD     Z+19, R19
   4626                                                __disable_interrupt();                    
   \   00000BC4   94F8               CLI
   4627                                                __watchdog_reset();           
   \   00000BC6   95A8               WDR
   4628                                                off_buf=offset+C1_PORT+4;           
   \   00000BC8   E005               LDI     R16, 5
   \   00000BCA   0EB0               ADD     R11, R16
   \   00000BCC   8EB4               STD     Z+28, R11
   4629                                                RAMPZ=1; 
   \   00000BCE   E001               LDI     R16, 1
   \   00000BD0   BF0B               OUT     0x3B, R16
   4630                                                array_in_232=&buf_rx_ppp[0];
   \   00000BD2   8BA4               STD     Z+20, R26
   \   00000BD4   8BB5               STD     Z+21, R27
   4631                                                contr_gluk1=C_GLUK1;   
   \   00000BD6   E505               LDI     R16, 85
   \   00000BD8   8F06               STD     Z+30, R16
   4632                                                contr_gluk2=C_GLUK2; 
   \   00000BDA   EA0A               LDI     R16, 170
   \   00000BDC   8F07               STD     Z+31, R16
   4633                                                boot(); 
   \   00000BDE   ........           CALL    boot
   4634                                                
   4635           
   4636                                                
   4637                                                contr_gluk1=0;   
   \   00000BE2   E000               LDI     R16, 0
   \   00000BE4   01FC               MOVW    R31:R30, R25:R24
   \   00000BE6   8F06               STD     Z+30, R16
   4638                                                contr_gluk2=0; 
   \   00000BE8   8F07               STD     Z+31, R16
   4639                                                RAMPZ=0;  
   \   00000BEA   BF0B               OUT     0x3B, R16
   4640                                                __watchdog_reset();         
   \   00000BEC   95A8               WDR
   4641                                                __enable_interrupt();
   \   00000BEE   9478               SEI
   4642                                              
   4643                                           
   4644                                           if(fl_pg_out.end_pg==1)
   \   00000BF0   A101               LDD     R16, Z+33
   \   00000BF2   FF00               SBRS    R16, 0
   \   00000BF4   C038               RJMP    ??proc_udp_data_71
   4645                                            {
   4646                                          
   4647                                              total_kol_page=cnt_pg+1;
   \   00000BF6   8D00               LDD     R16, Z+24
   \   00000BF8   9503               INC     R16
   \   00000BFA   8F05               STD     Z+29, R16
   4648                                              fl_pg_out.end_pg=0;
   \   00000BFC   A101               LDD     R16, Z+33
   \   00000BFE   7F0E               ANDI    R16, 0xFE
   \   00000C00   A301               STD     Z+33, R16
   4649                                              //fl_pg_out.yes_crc=0; //обнулить флаг перезагрузки
   4650                                              if (fl_pg_out.ch_crc==1)
   \   00000C02   A101               LDD     R16, Z+33
   \   00000C04   FF01               SBRS    R16, 1
   \   00000C06   C02C               RJMP    ??proc_udp_data_72
   4651                                              {
   4652                                              
   4653                                                 //здесь проверка crc всего куска
   4654                                                
   4655                                                 length=0xffff;
   \   00000C08   24EE               CLR     R14
   \   00000C0A   94EA               DEC     R14
   \   00000C0C   2CFE               MOV     R15, R14
   4656                                                 __disable_interrupt();
   \   00000C0E   94F8               CLI
   4657                                                 
   4658                                                 
   4659                                                 
   4660                                                 for (i=0;i<total_kol_page;i++)
   \   00000C10   2466               CLR     R6
   \   00000C12   C014               RJMP    ??proc_udp_data_73
   4661                                                     {
   4662                                                      array_in_232=&buf_rx_ppp[offset+C1_PORT+4];
   \                     ??proc_udp_data_74:
   \   00000C14   0182               MOVW    R17:R16, R5:R4
   \   00000C16   5F0B               SUBI    R16, 251
   \   00000C18   4F1F               SBCI    R17, 255
   \   00000C1A   8B04               STD     Z+20, R16
   \   00000C1C   8B15               STD     Z+21, R17
   4663                                                      r_p_flash(i*256);                                                  
   \   00000C1E   2D16               MOV     R17, R6
   \   00000C20   E000               LDI     R16, 0
   \   00000C22   ........           CALL    r_p_flash
   4664                                                      length=crc_m1(&buf_rx_ppp[offset+C1_PORT+4],256,length);
   \   00000C26   01A7               MOVW    R21:R20, R15:R14
   \   00000C28   E020               LDI     R18, 0
   \   00000C2A   E031               LDI     R19, 1
   \   00000C2C   0182               MOVW    R17:R16, R5:R4
   \   00000C2E   5F0B               SUBI    R16, 251
   \   00000C30   4F1F               SBCI    R17, 255
   \   00000C32   ........           CALL    crc_m1
   \   00000C36   0178               MOVW    R15:R14, R17:R16
   4665                                                      __watchdog_reset();
   \   00000C38   95A8               WDR
   4666                                                     }   
   \   00000C3A   9463               INC     R6
   \                     ??proc_udp_data_73:
   \   00000C3C   01FC               MOVW    R31:R30, R25:R24
   \   00000C3E   8D05               LDD     R16, Z+29
   \   00000C40   1660               CP      R6, R16
   \   00000C42   F340               BRCS    ??proc_udp_data_74
   4667                                                  __enable_interrupt();
   \   00000C44   9478               SEI
   4668                        
   4669                                                
   4670                                                 
   4671                                              
   4672                                                 if(length==pg_crc)
   \   00000C46   8906               LDD     R16, Z+22
   \   00000C48   8917               LDD     R17, Z+23
   \   00000C4A   16E0               CP      R14, R16
   \   00000C4C   06F1               CPC     R15, R17
   \   00000C4E   F411               BRNE    ??proc_udp_data_75
   4673                                                  {
   4674                                                  // fl_pg_out.yes_crc=1;
   4675                                                  // выставить флаг перезагрузки буферов
   4676                                                   reboot_byte=0x55;
   \   00000C50   E505               LDI     R16, 85
   \   00000C52   C002               RJMP    ??proc_udp_data_76
   4677                                                  }
   4678                                                  else
   4679                                                  {
   4680                                                   total_kol_page=0;
   \                     ??proc_udp_data_75:
   \   00000C54   E000               LDI     R16, 0
   \   00000C56   8F05               STD     Z+29, R16
   4681                                                   reboot_byte=0;                                          
   \                     ??proc_udp_data_76:
   \   00000C58   A300               STD     Z+32, R16
   4682                                                  }
   4683                                              
   4684                                               fl_pg_out.send_crc=1;
   \   00000C5A   A101               LDD     R16, Z+33
   \   00000C5C   6400               ORI     R16, 0x40
   \   00000C5E   A301               STD     Z+33, R16
   4685                                               }    
   4686                                          
   4687                                              fl_pg_out.hold_pg=0;    
   4688                                              fl_pg_out.ch_crc=0; 
   \                     ??proc_udp_data_72:
   \   00000C60   A101               LDD     R16, Z+33
   \   00000C62   7D0D               ANDI    R16, 0xDD
   \   00000C64   A301               STD     Z+33, R16
   4689                                         
   4690                                            }                                                                                                                                
   4691                                           } 
   4692                                        
   4693                                        
   4694                                        
   4695                                        
   4696                                        //fl_pg_out.yes_crc=0;
   4697                                                                     
   4698                                        if(fl_pg_out.send_kv==1)
   \                     ??proc_udp_data_71:
   \   00000C66   A101               LDD     R16, Z+33
   \   00000C68   FF02               SBRS    R16, 2
   \   00000C6A   C098               RJMP    ??proc_udp_data_77
   4699                                          {
   4700                                          // выдать квиток с учетом записи опции crc записанного куска 
   4701                                                                         
   4702                                          if(reboot_byte!=0x55)
   \   00000C6C   A100               LDD     R16, Z+32
   \   00000C6E   3505               CPI     R16, 85
   \   00000C70   F061               BREQ    ??proc_udp_data_78
   4703                                           {
   4704                                           if(fl_ip.act_ip_end!=1){fl_pg_out.send_crc=0; reboot_byte=0; return(0);}
   \   00000C72   ....               LDI     R30, LOW(ip_pri_dns)
   \   00000C74   ....               LDI     R31, (ip_pri_dns) >> 8
   \   00000C76   8504               LDD     R16, Z+12
   \   00000C78   FD00               SBRC    R16, 0
   \   00000C7A   C007               RJMP    ??proc_udp_data_78
   \   00000C7C   01FC               MOVW    R31:R30, R25:R24
   \   00000C7E   A101               LDD     R16, Z+33
   \   00000C80   7B0F               ANDI    R16, 0xBF
   \   00000C82   A301               STD     Z+33, R16
   \   00000C84   E000               LDI     R16, 0
   \   00000C86   A300               STD     Z+32, R16
   \   00000C88   C9C7               RJMP    ??proc_udp_data_1
   4705                                           }
   4706                                          
   4707                                          fl_ip.act_ip_end=0;      
   \                     ??proc_udp_data_78:
   \   00000C8A   ....               LDI     R30, LOW(ip_pri_dns)
   \   00000C8C   ....               LDI     R31, (ip_pri_dns) >> 8
   \   00000C8E   8504               LDD     R16, Z+12
   \   00000C90   7F0E               ANDI    R16, 0xFE
   \   00000C92   8704               STD     Z+12, R16
   4708                                          clr_cntr_nat();
   \   00000C94   ........           CALL    clr_cntr_nat
   4709                                          clr_cntr_link();
   \   00000C98   ........           CALL    clr_cntr_link
   4710                                          Obj_ppp_tx.prozr=FALSE;            
   \   00000C9C   E000               LDI     R16, 0
   \   00000C9E   01FC               MOVW    R31:R30, R25:R24
   \   00000CA0   8300               ST      Z, R16
   4711                                          Obj_ppp_tx.version=VER2;      //версия 
   \   00000CA2   E002               LDI     R16, 2
   \   00000CA4   8301               STD     Z+1, R16
   4712                                          Obj_ppp_tx.type_pac=OTV;     //тип пакета
   \   00000CA6   E001               LDI     R16, 1
   \   00000CA8   8302               STD     Z+2, R16
   4713                                          Obj_ppp_tx.num_src=num_self; // номер отправителя
   \   00000CAA   ....               LDI     R30, LOW(num_self)
   \   00000CAC   ....               LDI     R31, (num_self) >> 8
   \   00000CAE   8100               LD      R16, Z
   \   00000CB0   8111               LDD     R17, Z+1
   \   00000CB2   01FC               MOVW    R31:R30, R25:R24
   \   00000CB4   8303               STD     Z+3, R16
   \   00000CB6   8314               STD     Z+4, R17
   4714                                          Obj_ppp_tx.num_dst=*(unsigned int*)&buf_rx_ppp[TR_SRC]; // номер получателя
   \   00000CB8   01FD               MOVW    R31:R30, R27:R26
   \   00000CBA   8D06               LDD     R16, Z+30
   \   00000CBC   8D17               LDD     R17, Z+31
   \   00000CBE   01FC               MOVW    R31:R30, R25:R24
   \   00000CC0   8305               STD     Z+5, R16
   \   00000CC2   8316               STD     Z+6, R17
   4715                   
   4716                                          Obj_ppp_tx.id_pac=buf_rx_ppp[TR_ID]; // идентификатор пакета  
   \   00000CC4   01FD               MOVW    R31:R30, R27:R26
   \   00000CC6   A105               LDD     R16, Z+37
   \   00000CC8   01FC               MOVW    R31:R30, R25:R24
   \   00000CCA   8307               STD     Z+7, R16
   4717                                          Obj_ppp_tx.p_opt=&buf_opt_tr[0]; // //указатель буфера опций          
   \   00000CCC   ....               LDI     R16, LOW(buf_opt_tr)
   \   00000CCE   ....               LDI     R17, (buf_opt_tr) >> 8
   \   00000CD0   8700               STD     Z+8, R16
   \   00000CD2   8711               STD     Z+9, R17
   4718                                          Obj_ppp_tx.l_opt=0;
   \   00000CD4   E000               LDI     R16, 0
   \   00000CD6   8702               STD     Z+10, R16
   4719                                          
   4720                                          if(fl_pg_out.send_crc==1)
   \   00000CD8   A101               LDD     R16, Z+33
   \   00000CDA   FF06               SBRS    R16, 6
   \   00000CDC   C00C               RJMP    ??proc_udp_data_79
   4721                                            {
   4722                                            Obj_ppp_tx.l_opt=4;// длина буфера опций   
   \   00000CDE   E004               LDI     R16, 4
   \   00000CE0   8702               STD     Z+10, R16
   4723                                            buf_opt_tr[0]=KOD_WR_PG_CRC;
   \   00000CE2   E003               LDI     R16, 3
   \   00000CE4   9300....           STS     buf_opt_tr, R16
   4724                                            buf_opt_tr[1]=L_OP_WR_PG_CRC;
   \   00000CE8   E004               LDI     R16, 4
   \   00000CEA   9300....           STS     (buf_opt_tr + 1), R16
   4725                                            *(unsigned int*)&buf_opt_tr[2]=length;//это crc
   \   00000CEE   ....               LDI     R30, LOW(buf_opt_tr)
   \   00000CF0   ....               LDI     R31, (buf_opt_tr) >> 8
   \   00000CF2   82E2               STD     Z+2, R14
   \   00000CF4   82F3               STD     Z+3, R15
   4726                                            }
   4727                                           fl_pg_out.send_crc=0;  
   \                     ??proc_udp_data_79:
   \   00000CF6   01FC               MOVW    R31:R30, R25:R24
   \   00000CF8   A101               LDD     R16, Z+33
   \   00000CFA   7B0F               ANDI    R16, 0xBF
   \   00000CFC   A301               STD     Z+33, R16
   4728                                        //Obj_ppp_tx.kol_opt=1;// количество опций     
   4729                 
   4730                                         buf_tx_232[TR_OP_DATA+C1_PROT+10]=PROT_C1;
   \   00000CFE   E001               LDI     R16, 1
   \   00000D00   ....               LDI     R30, LOW(buf_tx_232)
   \   00000D02   ....               LDI     R31, (buf_tx_232) >> 8
   \   00000D04   AB04               STD     Z+52, R16
   4731                                         buf_tx_232[TR_OP_DATA+C1_PROT+11]=PORT_PROG;
   \   00000D06   E007               LDI     R16, 7
   \   00000D08   AB05               STD     Z+53, R16
   4732                                         buf_tx_232[TR_OP_DATA+C1_PROT+12]=COM_CODE_MEM;
   \   00000D0A   E001               LDI     R16, 1
   \   00000D0C   AB06               STD     Z+54, R16
   4733                                         *(unsigned int*)&buf_tx_232[TR_OP_DATA+C1_PROT+13]=L_COM_CODE_MEM_A;
   \   00000D0E   E003               LDI     R16, 3
   \   00000D10   E010               LDI     R17, 0
   \   00000D12   AB07               STD     Z+55, R16
   \   00000D14   AF10               STD     Z+56, R17
   4734                                         buf_tx_232[TR_OP_DATA+C1_PROT+15]=0x00; //OK 
   \   00000D16   AF11               STD     Z+57, R17
   4735                                         *(unsigned int*)&buf_tx_232[TR_OP_DATA+C1_PROT+16]=cnt_pg; //OK 
   \   00000D18   01FC               MOVW    R31:R30, R25:R24
   \   00000D1A   8D00               LDD     R16, Z+24
   \   00000D1C   8D11               LDD     R17, Z+25
   \   00000D1E   ....               LDI     R30, LOW(buf_tx_232)
   \   00000D20   ....               LDI     R31, (buf_tx_232) >> 8
   \   00000D22   AF02               STD     Z+58, R16
   \   00000D24   AF13               STD     Z+59, R17
   4736             
   4737          
   4738                                         Obj_ppp_tx.l_data=5+L_COM_CODE_MEM_A;  // длина данных
   \   00000D26   E008               LDI     R16, 8
   \   00000D28   E010               LDI     R17, 0
   \   00000D2A   01FC               MOVW    R31:R30, R25:R24
   \   00000D2C   8706               STD     Z+14, R16
   \   00000D2E   8717               STD     Z+15, R17
   4739                                         Obj_ppp_tx.p_data=&buf_tx_232[TR_OP_DATA+C1_PROT+10];  //указатель буфера данных
   \   00000D30   ....               LDI     R16, LOW(buf_tx_232)
   \   00000D32   ....               LDI     R17, (buf_tx_232) >> 8
   \   00000D34   5C0C               SUBI    R16, 204
   \   00000D36   4F1F               SBCI    R17, 255
   \   00000D38   8704               STD     Z+12, R16
   \   00000D3A   8715               STD     Z+13, R17
   4740                  
   4741                                         send_info(sizeof(ans_out_prog),ans_out_prog,1,buf_rx_ppp[TR_ID]);
   \   00000D3C   01FD               MOVW    R31:R30, R27:R26
   \   00000D3E   A145               LDD     R20, Z+37
   \   00000D40   E011               LDI     R17, 1
   \   00000D42   ....               LDI     R18, LOW((evc_rld + 89))
   \   00000D44   ....               LDI     R19, HIGH((evc_rld + 89))
   \   00000D46   E009               LDI     R16, 9
   \   00000D48   ........           CALL    send_info
   4742                                         
   4743                                         form_buf_tx_ppp();                            
   \   00000D4C   ........           CALL    form_buf_tx_ppp
   4744                                         UCSR0A=UCSR0A | TXC;                            
   \   00000D50   910000C0           LDS     R16, 192
   \   00000D54   6400               ORI     R16, 0x40
   \   00000D56   930000C0           STS     192, R16
   4745                                         UCSR0B=UCSR0B | TXEN;
   \   00000D5A   910000C1           LDS     R16, 193
   \   00000D5E   6008               ORI     R16, 0x08
   \   00000D60   930000C1           STS     193, R16
   4746                                         UCSR0B=UCSR0B | TXCIE;
   \   00000D64   910000C1           LDS     R16, 193
   \   00000D68   6400               ORI     R16, 0x40
   \   00000D6A   930000C1           STS     193, R16
   4747                                      
   4748                                      if(reboot_byte!=0x55)
   \   00000D6E   01FC               MOVW    R31:R30, R25:R24
   \   00000D70   A100               LDD     R16, Z+32
   \   00000D72   3505               CPI     R16, 85
   \   00000D74   F029               BREQ    ??proc_udp_data_80
   4749                                           {   
   4750                                            // if(check_cts()==1){S5_RD; while(1)__watchdog_reset(); return(0);}
   4751                                              if(check_cts()==1) return(0);
   \   00000D76   ........           CALL    check_cts
   \   00000D7A   3001               CPI     R16, 1
   \   00000D7C   F409               BRNE    $+2+2
   \   00000D7E   C94C               RJMP    ??proc_udp_data_1
   4752                                           }                
   4753                                        
   4754                                         S2_RD;
   \                     ??proc_udp_data_80:
   \   00000D80   9A40               SBI     0x08, 0x00
   \   00000D82   9841               CBI     0x08, 0x01
   4755                                         UDR0=buf_tx_232[0];
   \   00000D84   ....               LDI     R30, LOW(buf_tx_232)
   \   00000D86   ....               LDI     R31, (buf_tx_232) >> 8
   \   00000D88   8100               LD      R16, Z
   \   00000D8A   930000C6           STS     198, R16
   4756                                         if(Regim==RG_DEBAG) UDR3=buf_tx_232[0];
   \   00000D8E   9100....           LDS     R16, Regim
   \   00000D92   3001               CPI     R16, 1
   \   00000D94   F419               BRNE    ??proc_udp_data_77
   \   00000D96   8100               LD      R16, Z
   \   00000D98   93000136           STS     310, R16
   4757                                          }                               
   4758                                          
   4759                                       
   4760                                         if(reboot_byte==0x55)
   \                     ??proc_udp_data_77:
   \   00000D9C   01FC               MOVW    R31:R30, R25:R24
   \   00000D9E   A100               LDD     R16, Z+32
   \   00000DA0   3505               CPI     R16, 85
   \   00000DA2   F009               BREQ    $+2+2
   \   00000DA4   CD47               RJMP    ??proc_udp_data_5
   4761                                           {
   4762                                             for(i=0;i<30;i++)
   \   00000DA6   2466               CLR     R6
   \   00000DA8   C006               RJMP    ??proc_udp_data_81
   4763                                              {
   4764                                              __watchdog_reset();
   \                     ??proc_udp_data_82:
   \   00000DAA   95A8               WDR
   4765                                              delay(45000);
   \   00000DAC   EC08               LDI     R16, 200
   \   00000DAE   EA1F               LDI     R17, 175
   \   00000DB0   ........           CALL    delay
   4766                                              }
   \   00000DB4   9463               INC     R6
   \                     ??proc_udp_data_81:
   \   00000DB6   E10E               LDI     R16, 30
   \   00000DB8   1660               CP      R6, R16
   \   00000DBA   F3B8               BRCS    ??proc_udp_data_82
   4767                                              
   4768                                             __disable_interrupt();
   \   00000DBC   94F8               CLI
   4769                                             WrArrayToFlesh(BEG_BUF_LOG,0,(L_LOG*6),0x01,0x00);
   \   00000DBE   E070               LDI     R23, 0
   \   00000DC0   E061               LDI     R22, 1
   \   00000DC2   EF40               LDI     R20, 240
   \   00000DC4   E050               LDI     R21, 0
   \   00000DC6   E020               LDI     R18, 0
   \   00000DC8   E030               LDI     R19, 0
   \   00000DCA   EF04               LDI     R16, 244
   \   00000DCC   E011               LDI     R17, 1
   \   00000DCE   ........           CALL    WrArrayToFlesh
   4770          
   4771                                             off_buf=0;
   \   00000DD2   E000               LDI     R16, 0
   \   00000DD4   01FC               MOVW    R31:R30, R25:R24
   \   00000DD6   8F04               STD     Z+28, R16
   4772                                             SREG=0;
   \   00000DD8   BF0F               OUT     0x3F, R16
   4773                                             WDTCSR=0x18;           
   \   00000DDA   E108               LDI     R16, 24
   \   00000DDC   93000060           STS     96, R16
   4774                                             WDTCSR=0x0f;           
   \   00000DE0   E00F               LDI     R16, 15
   \   00000DE2   93000060           STS     96, R16
   4775                                             __watchdog_reset();   
   \   00000DE6   95A8               WDR
   4776                                             contr_gluk1=C_GLUK1;   
   \   00000DE8   E505               LDI     R16, 85
   \   00000DEA   8F06               STD     Z+30, R16
   4777                                             contr_gluk2=C_GLUK2; 
   \   00000DEC   EA0A               LDI     R16, 170
   \   00000DEE   8F07               STD     Z+31, R16
   4778                                             send_info(sizeof(evc_rld),evc_rld,0,0);
   \   00000DF0   E040               LDI     R20, 0
   \   00000DF2   E010               LDI     R17, 0
   \   00000DF4   ....               LDI     R18, LOW(evc_rld)
   \   00000DF6   ....               LDI     R19, (evc_rld) >> 8
   \   00000DF8   E007               LDI     R16, 7
   \   00000DFA   ........           CALL    send_info
   4779                                             reload_apl(); 
   \   00000DFE   ........           CALL    reload_apl
   \   00000E02   CD18               RJMP    ??proc_udp_data_5
   4780                                           }          
   4781                                       
   4782                                          
   4783                                      return(1);                         
   4784                                }
   4785                        
   4786                        
   4787                        
   4788                        
   4789                         }//для версии VER2
   4790                         
   4791                        
   4792                            
   4793                         return(0);
   4794                         } 
   4795           
   4796           ////////////////EEEEEEEEEEEEEEEEEEEEEEEEEEEEEEEEEEEEEEEEEEEEEEEEEEEEEEEEEEEEEEEEEEEEEEE
   4797           
   4798           
   4799           
   4800           
   4801           
   4802           
   4803           
   4804          
   4805           
   4806           
   4807           

   \                                 In segment CODE, align 2, keep-with-next
   4808          void analiz_ppp_rx(void)
   \                     analiz_ppp_rx:
   4809          {
   4810             
   4811            
   4812            
   4813            if(fl_ipcp.act_ipcp_end==0)return;
   4814            if (fl_ip.act_ip_end==0)return;         
   \   00000000   ....               LDI     R30, LOW(ip_pri_dns)
   \   00000002   ....               LDI     R31, (ip_pri_dns) >> 8
   \   00000004   8503               LDD     R16, Z+11
   \   00000006   7001               ANDI    R16, 0x01
   \   00000008   8514               LDD     R17, Z+12
   \   0000000A   7011               ANDI    R17, 0x01
   \   0000000C   2310               AND     R17, R16
   \   0000000E   F159               BREQ    ??analiz_ppp_rx_0
   4815            
   4816            if(Buf1_rx_ppp.rec==TRUE)
   \   00000010   9100....           LDS     R16, (Buf1_rx_ppp + 332)
   \   00000014   3001               CPI     R16, 1
   \   00000016   F491               BRNE    ??analiz_ppp_rx_1
   4817            {
   4818             
   4819            proc_ppp_packet(&Buf1_rx_ppp.data[0],Buf1_rx_ppp.ln_data); 
   \   00000018   ....               LDI     R30, LOW((Buf1_rx_ppp + 330))
   \   0000001A   ....               LDI     R31, HIGH((Buf1_rx_ppp + 330))
   \   0000001C   8120               LD      R18, Z
   \   0000001E   8131               LDD     R19, Z+1
   \   00000020   ....               LDI     R16, LOW(Buf1_rx_ppp)
   \   00000022   ....               LDI     R17, (Buf1_rx_ppp) >> 8
   \   00000024   ........           CALL    proc_ppp_packet
   4820            Buf1_rx_ppp.ln_data=0;
   \   00000028   E000               LDI     R16, 0
   \   0000002A   ....               LDI     R30, LOW((Buf1_rx_ppp + 330))
   \   0000002C   ....               LDI     R31, HIGH((Buf1_rx_ppp + 330))
   \   0000002E   8300               ST      Z, R16
   \   00000030   8301               STD     Z+1, R16
   4821            Buf1_rx_ppp.rec=FALSE;
   \   00000032   9300....           STS     (Buf1_rx_ppp + 332), R16
   4822            Buf1_rx_ppp.busy=FALSE;
   \   00000036   9300....           STS     (Buf1_rx_ppp + 333), R16
   4823            return;
   \   0000003A   9508               RET
   4824            }
   4825            
   4826            if(Buf2_rx_ppp.rec==TRUE)
   \                     ??analiz_ppp_rx_1:
   \   0000003C   9100....           LDS     R16, (Buf2_rx_ppp + 332)
   \   00000040   3001               CPI     R16, 1
   \   00000042   F489               BRNE    ??analiz_ppp_rx_0
   4827            {
   4828            
   4829           
   4830            
   4831            proc_ppp_packet(&Buf2_rx_ppp.data[0],Buf2_rx_ppp.ln_data); 
   \   00000044   ....               LDI     R30, LOW((Buf2_rx_ppp + 330))
   \   00000046   ....               LDI     R31, HIGH((Buf2_rx_ppp + 330))
   \   00000048   8120               LD      R18, Z
   \   0000004A   8131               LDD     R19, Z+1
   \   0000004C   ....               LDI     R16, LOW(Buf2_rx_ppp)
   \   0000004E   ....               LDI     R17, (Buf2_rx_ppp) >> 8
   \   00000050   ........           CALL    proc_ppp_packet
   4832            Buf2_rx_ppp.ln_data=0;
   \   00000054   E000               LDI     R16, 0
   \   00000056   ....               LDI     R30, LOW((Buf2_rx_ppp + 330))
   \   00000058   ....               LDI     R31, HIGH((Buf2_rx_ppp + 330))
   \   0000005A   8300               ST      Z, R16
   \   0000005C   8301               STD     Z+1, R16
   4833            Buf2_rx_ppp.rec=FALSE;
   \   0000005E   9300....           STS     (Buf2_rx_ppp + 332), R16
   4834            Buf2_rx_ppp.busy=FALSE;
   \   00000062   9300....           STS     (Buf2_rx_ppp + 333), R16
   4835            return;
   \                     ??analiz_ppp_rx_0:
   \   00000066   9508               RET
   4836            }        
   4837                    
   4838          }

   \                                 In segment SWITCH, align 2, keep-with-next
   \                     `?<Jumptable for run_lcp_act>_0`:
   \   00000000   00                 DB      0
   \   00000001   00                 DB      0
   \   00000002   ....               DW      (??run_lcp_act_3) /2
   \   00000004   000C               DW      12
   \   00000006   ....               DW      (??run_lcp_act_0) /2
   \   00000008   ....               DW      (??run_lcp_act_4) /2
   \   0000000A   ....               DW      (??run_lcp_act_5) /2
   \   0000000C   ....               DW      (??run_lcp_act_5) /2
   \   0000000E   ....               DW      (??run_lcp_act_6) /2
   \   00000010   ....               DW      (??run_lcp_act_7) /2
   \   00000012   ....               DW      (??run_lcp_act_8) /2
   \   00000014   ....               DW      (??run_lcp_act_10) /2
   \   00000016   ....               DW      (??run_lcp_act_15) /2
   \   00000018   ....               DW      (??run_lcp_act_22) /2
   \   0000001A   ....               DW      (??run_lcp_act_23) /2
   \   0000001C   ....               DW      (??run_lcp_act_24) /2

   \                                 In segment SWITCH, align 2, keep-with-next
   \                     `?<Jumptable for monitor_event_LCP>_0`:
   \   00000000   06                 DB      6
   \   00000001   00                 DB      0
   \   00000002   ....               DW      (??monitor_event_LCP_1) /2
   \   00000004   000A               DW      10
   \   00000006   ....               DW      (??monitor_event_LCP_29) /2
   \   00000008   ....               DW      (??monitor_event_LCP_39) /2
   \   0000000A   ....               DW      (??monitor_event_LCP_47) /2
   \   0000000C   ....               DW      (??monitor_event_LCP_53) /2
   \   0000000E   ....               DW      (??monitor_event_LCP_56) /2
   \   00000010   ....               DW      (??monitor_event_LCP_62) /2
   \   00000012   ....               DW      (??monitor_event_LCP_65) /2
   \   00000014   ....               DW      (??monitor_event_LCP_72) /2
   \   00000016   ....               DW      (??monitor_event_LCP_73) /2
   \   00000018   ....               DW      (??monitor_event_LCP_72) /2

   \                                 In segment SWITCH, align 2, keep-with-next
   \                     `?<Jumptable for run_ipcp_act>_0`:
   \   00000000   00                 DB      0
   \   00000001   00                 DB      0
   \   00000002   ....               DW      (??run_ipcp_act_3) /2
   \   00000004   000C               DW      12
   \   00000006   ....               DW      (??run_ipcp_act_0) /2
   \   00000008   ....               DW      (??run_ipcp_act_4) /2
   \   0000000A   ....               DW      (??run_ipcp_act_6) /2
   \   0000000C   ....               DW      (??run_ipcp_act_6) /2
   \   0000000E   ....               DW      (??run_ipcp_act_7) /2
   \   00000010   ....               DW      (??run_ipcp_act_8) /2
   \   00000012   ....               DW      (??run_ipcp_act_9) /2
   \   00000014   ....               DW      (??run_ipcp_act_11) /2
   \   00000016   ....               DW      (??run_ipcp_act_16) /2
   \   00000018   ....               DW      (??run_ipcp_act_23) /2
   \   0000001A   ....               DW      (??run_ipcp_act_24) /2
   \   0000001C   ....               DW      (??run_ipcp_act_25) /2

   \                                 In segment SWITCH, align 2, keep-with-next
   \                     `?<Jumptable for monitor_event_IPCP>_0`:
   \   00000000   06                 DB      6
   \   00000001   00                 DB      0
   \   00000002   ....               DW      (??monitor_event_IPCP_1) /2
   \   00000004   000A               DW      10
   \   00000006   ....               DW      (??monitor_event_IPCP_29) /2
   \   00000008   ....               DW      (??monitor_event_IPCP_38) /2
   \   0000000A   ....               DW      (??monitor_event_IPCP_46) /2
   \   0000000C   ....               DW      (??monitor_event_IPCP_52) /2
   \   0000000E   ....               DW      (??monitor_event_IPCP_55) /2
   \   00000010   ....               DW      (??monitor_event_IPCP_61) /2
   \   00000012   ....               DW      (??monitor_event_IPCP_64) /2
   \   00000014   ....               DW      (??monitor_event_IPCP_71) /2
   \   00000016   ....               DW      (??monitor_event_IPCP_72) /2
   \   00000018   ....               DW      (??monitor_event_IPCP_71) /2
   4839          

   Maximum stack usage in bytes:

     Function              CSTACK RSTACK
     --------              ------ ------
     analiz_ppp_rx             0      2
       -> proc_ppp_packet      0      2
       -> proc_ppp_packet      0      2
     calc_crc_ip               8      2
     calc_crc_udp_2           10      2
     monitor_act_IPCP          2      2
       -> run_ipcp_act         2      2
     monitor_act_LCP           2      2
       -> run_lcp_act          2      2
     monitor_act_PAP           7      2
       -> RdFromFleshToArr     7      2
       -> RdFromFleshToArr     7      2
       -> RdFromFleshToArr     7      2
       -> RdFromFleshToArr     7      2
       -> RdFromFleshToArr     7      2
       -> RdFromFleshToArr     7      2
       -> RdFromFleshToArr     7      2
       -> RdFromFleshToArr     7      2
       -> RdFromFleshToArr     7      2
       -> RdFromFleshToArr     7      2
       -> pppfcs16             7      2
       -> check_cts            7      2
     monitor_event_IPCP        7      2
       -> prov_uk_in_ipcp      7      2
       -> prov_uk_in_ipcp      7      2
       -> prov_uk_in_ipcp      7      2
       -> prov_uk_in_ipcp      7      2
       -> prov_uk_in_ipcp      7      2
       -> prov_uk_in_ipcp      7      2
       -> prov_uk_in_ipcp      7      2
       -> prov_uk_in_ipcp      7      2
       -> prov_uk_in_ipcp      7      2
       -> prov_uk_in_ipcp      7      2
       -> prov_uk_in_ipcp      7      2
       -> prov_uk_in_ipcp      7      2
       -> prov_uk_in_ipcp      7      2
       -> prov_uk_in_ipcp      7      2
       -> prov_uk_in_ipcp      7      2
       -> prov_uk_in_ipcp      7      2
       -> prov_uk_in_ipcp      7      2
       -> prov_uk_in_ipcp      7      2
       -> prov_uk_in_ipcp      7      2
       -> prov_uk_in_ipcp      7      2
       -> prov_uk_in_ipcp      7      2
       -> prov_uk_in_ipcp      7      2
       -> prov_uk_in_ipcp      7      2
       -> prov_uk_in_ipcp      7      2
       -> prov_uk_in_ipcp      7      2
       -> prov_uk_in_ipcp      7      2
       -> prov_uk_in_ipcp      7      2
       -> prov_uk_in_ipcp      7      2
       -> prov_uk_in_ipcp      7      2
       -> prov_uk_in_ipcp      7      2
       -> prov_uk_in_ipcp      7      2
       -> prov_uk_in_ipcp      7      2
       -> prov_uk_in_ipcp      7      2
       -> prov_uk_in_ipcp      7      2
       -> prov_uk_in_ipcp      7      2
       -> prov_uk_in_ipcp      7      2
       -> prov_uk_in_ipcp      7      2
       -> prov_uk_in_ipcp      7      2
       -> prov_uk_in_ipcp      7      2
       -> prov_uk_in_ipcp      7      2
       -> prov_uk_in_ipcp      7      2
       -> prov_uk_in_ipcp      7      2
       -> prov_uk_in_ipcp      7      2
     monitor_event_LCP         7      2
       -> prov_uk_in           7      2
       -> prov_uk_in           7      2
       -> prov_uk_in           7      2
       -> prov_uk_in           7      2
       -> prov_uk_in           7      2
       -> prov_uk_in           7      2
       -> prov_uk_in           7      2
       -> prov_uk_in           7      2
       -> prov_uk_in           7      2
       -> prov_uk_in           7      2
       -> prov_uk_in           7      2
       -> prov_uk_in           7      2
       -> prov_uk_in           7      2
       -> prov_uk_in           7      2
       -> prov_uk_in           7      2
       -> prov_uk_in           7      2
       -> prov_uk_in           7      2
       -> prov_uk_in           7      2
       -> prov_uk_in           7      2
       -> prov_uk_in           7      2
       -> prov_uk_in           7      2
       -> prov_uk_in           7      2
       -> prov_uk_in           7      2
       -> prov_uk_in           7      2
       -> prov_uk_in           7      2
       -> prov_uk_in           7      2
       -> prov_uk_in           7      2
       -> prov_uk_in           7      2
       -> prov_uk_in           7      2
       -> prov_uk_in           7      2
       -> prov_uk_in           7      2
       -> prov_uk_in           7      2
       -> prov_uk_in           7      2
       -> prov_uk_in           7      2
       -> prov_uk_in           7      2
       -> prov_uk_in           7      2
       -> prov_uk_in           7      2
       -> prov_uk_in           7      2
       -> prov_uk_in           7      2
       -> prov_uk_in           7      2
       -> prov_uk_in           7      2
       -> prov_uk_in           7      2
       -> prov_uk_in           7      2
       -> prov_uk_in           7      2
     monitor_event_PAP         0      2
     pppfcs16                  0      2
     proc_option              10      4
     proc_paging               0      2
     proc_ppp_packet          13      2
       -> pppfcs16            13      2
       -> calc_crc_ip         13      2
       -> calc_crc_udp_2      13      2
       -> proc_udp_data       13      2
     proc_udp_data            18      2
       -> transform_buf       18      2
       -> crc_m1              18      2
       -> proc_option         18      2
       -> send_size_pg        18      2
       -> send_info           18      2
       -> clr_cntr_nat        18      2
       -> send_info           18      2
       -> send_info           18      2
       -> send_err485         18      2
       -> send_info           18      2
       -> send_err485         18      2
       -> check_cont_485_1    18      2
       -> send_info           18      2
       -> send_err485         18      2
       -> send_info           18      2
       -> send_err485         18      2
       -> send_info           18      2
       -> send_err485         18      2
       -> proc_option         18      2
       -> send_info           18      2
       -> send_err485         18      2
       -> send_info           18      2
       -> send_err485         18      2
       -> check_cont_485_1    18      2
       -> send_info           18      2
       -> send_err485         18      2
       -> send_info           18      2
       -> send_err485         18      2
       -> send_info           18      2
       -> send_err485         18      2
       -> proc_option         18      2
       -> send_info           18      2
       -> send_err485         18      2
       -> send_info           18      2
       -> send_err485         18      2
       -> check_cont_485_1    18      2
       -> send_info           18      2
       -> send_err485         18      2
       -> send_info           18      2
       -> send_err485         18      2
       -> send_info           18      2
       -> send_err485         18      2
       -> proc_option         18      2
       -> clr_cntr_nat        18      2
       -> clr_cntr_link       18      2
       -> burst_ds_r          18      2
       -> send_info           18      2
       -> form_buf_tx_ppp     18      2
       -> check_cts           18      2
       -> send_info           18      2
       -> check_ln_conf       18      2
       -> WrArrayToFlesh      18      2
       -> RdFromFleshToArr    18      2
       -> proc_config         18      2
       -> clr_cntr_nat        18      2
       -> clr_cntr_link       18      2
       -> send_info           18      2
       -> form_buf_tx_ppp     18      2
       -> RdFromFleshToArr    18      2
       -> crc_ozu             18      2
       -> check_cts           18      2
       -> proc_option         18      2
       -> proc_paging         18      2
       -> send_no_sinc        18      2
       -> send_no_sinc        18      2
       -> boot                18      2
       -> r_p_flash           18      2
       -> crc_m1              18      2
       -> clr_cntr_nat        18      2
       -> clr_cntr_link       18      2
       -> send_info           18      2
       -> form_buf_tx_ppp     18      2
       -> check_cts           18      2
       -> delay               18      2
       -> WrArrayToFlesh      18      2
       -> send_info           18      2
       -> reload_apl          18      2
     prov_uk_in                0      2
     prov_uk_in_ipcp           0      2
     run_ipcp_act              7      2
       -> clr_cntr_nat         7      2
       -> pppfcs16             7      2
       -> check_cts            7      2
       -> pppfcs16             7      2
       -> check_cts            7      2
       -> pppfcs16             7      2
       -> check_cts            7      2
       -> pppfcs16             7      2
       -> check_cts            7      2
       -> pppfcs16             7      2
       -> check_cts            7      2
       -> pppfcs16             7      2
       -> check_cts            7      2
       -> pppfcs16             7      2
       -> check_cts            7      2
     run_lcp_act               7      2
       -> pppfcs16             7      2
       -> check_cts            7      2
       -> pppfcs16             7      2
       -> check_cts            7      2
       -> pppfcs16             7      2
       -> check_cts            7      2
       -> pppfcs16             7      2
       -> check_cts            7      2
       -> pppfcs16             7      2
       -> check_cts            7      2
       -> pppfcs16             7      2
       -> check_cts            7      2
       -> pppfcs16             7      2
       -> check_cts            7      2
     send_no_sinc              4      2
       -> clr_cntr_nat         4      2
       -> clr_cntr_link        4      2
       -> form_buf_tx_ppp      4      2
       -> check_cts            4      2
     send_size_pg              4      2
       -> clr_cntr_nat         4      2
       -> clr_cntr_link        4      2
       -> form_buf_tx_ppp      4      2
       -> check_cts            4      2


   Segment part sizes:

     Function/Label                 Bytes
     --------------                 -----
     _A_UDR3                           1
     _A_UDR0                           1
     _A_UCSR0B                         1
     _A_UCSR0A                         1
     _A_WDTCSR                         1
     _A_SREG                           1
     _A_RAMPZ                          1
     _A_PORTC                          1
     evc_rld                          98
     Obj_ppp_tx                       36
     ip_pri_dns                       63
     fl_lcp1                           2
     cnt_pap_tm_out                   41
     cnt_ipcp_tm_out                  58
     cnt_ip_tm_cntr                    4
     i_scj_ipcp                        1
     buf_rejc_opt_lcp                 34
     buf_ack_opt_lcp                  56
     buf_rej_opt_lcp                  28
     buf_rej_opt_ipcp                 25
     fcstab                          512
     prov_uk_in                       46
     prov_uk_in_ipcp                  46
     pppfcs16                         48
     run_lcp_act                    1428
     monitor_act_PAP                 638
     monitor_event_PAP               192
     monitor_act_LCP                  98
     monitor_event_LCP               950
     run_ipcp_act                   1486
     monitor_act_IPCP                 98
     monitor_event_IPCP             1014
     calc_crc_ip                     172
     calc_crc_udp_2                  398
     proc_ppp_packet                2782
     send_no_sinc                    188
     proc_paging                     152
     proc_option                     494
     send_size_pg                    196
     proc_udp_data                  3588
     analiz_ppp_rx                   104
     ?<Jumptable for run_lcp_act>_0   30
     ?<Jumptable for monitor_event_LCP>_0
                                      26
     ?<Jumptable for run_ipcp_act>_0
                                      30
     ?<Jumptable for monitor_event_IPCP>_0
                                      26
      Others                           7

 
      8 bytes in segment ABSOLUTE
 14 118 bytes in segment CODE
      7 bytes in segment INITTAB
    610 bytes in segment NEAR_F
    348 bytes in segment NEAR_Z
    112 bytes in segment SWITCH
 
 14 840 bytes of CODE memory (+ 7 bytes shared)
    348 bytes of DATA memory (+ 8 bytes shared)

Errors: none
Warnings: none
