//////////////////////////////////////////////////////////////////////////////
//                                                                           /
//                                                     14/Nov/2007  18:01:15 /
// IAR Atmel AVR C/C++ Compiler V4.12A/W32, Evaluation Version               /
// Copyright 1996-2005 IAR Systems. All rights reserved.                     /
//                                                                           /
//    Source file  =  D:\PRJIAR\NSS141107\fppp2.c                            /
//    Command line =  D:\PRJIAR\NSS141107\fppp2.c --cpu=m1280 -ms -o         /
//                    D:\PRJIAR\NSS141107\Debug\Obj\ -lCN                    /
//                    D:\PRJIAR\NSS141107\Debug\List\ -lA                    /
//                    D:\PRJIAR\NSS141107\Debug\List\ -y                     /
//                    --initializers_in_flash -z6 --no_inline                /
//                    --no_cross_call --no_tbaa --debug -e -I "D:\Program    /
//                    Files\IAR Systems\Embedded Workbench 4.0               /
//                    Evaluation\avr\INC\" -I "D:\Program Files\IAR          /
//                    Systems\Embedded Workbench 4.0                         /
//                    Evaluation\avr\INC\DLIB\" --eeprom_size 4096           /
//                    --dlib_config "D:\Program Files\IAR Systems\Embedded   /
//                    Workbench 4.0 Evaluation\avr\LIB\DLIB\dlAVR-3s-ec-n.h" /
//    List file    =  D:\PRJIAR\NSS141107\Debug\List\fppp2.s90               /
//                                                                           /
//                                                                           /
//////////////////////////////////////////////////////////////////////////////

        NAME fppp2

        RTMODEL "__64bit_doubles", "disabled"
        RTMODEL "__cpu", "3"
        RTMODEL "__cpu_name", "ATmega1280"
        RTMODEL "__enhanced_core", "enabled"
        RTMODEL "__has_elpm", "true"
        RTMODEL "__memory_model", "2"
        RTMODEL "__no_rampd", "enabled"
        RTMODEL "__rt_version", "3"

        RSEG CSTACK:DATA:NOROOT(0)
        RSEG RSTACK:DATA:NOROOT(0)

        EXTERN ?EPILOGUE_B10_L09
        EXTERN ?EPILOGUE_B16_L09
        EXTERN ?EPILOGUE_B4_L09
        EXTERN ?PROLOGUE10_L09
        EXTERN ?PROLOGUE16_L09
        EXTERN ?PROLOGUE4_L09
        EXTERN ?Register_R10_is_cg_reg
        EXTERN ?Register_R11_is_cg_reg
        EXTERN ?Register_R12_is_cg_reg
        EXTERN ?Register_R13_is_cg_reg
        EXTERN ?Register_R14_is_cg_reg
        EXTERN ?Register_R15_is_cg_reg
        EXTERN ?Register_R4_is_cg_reg
        EXTERN ?Register_R5_is_cg_reg
        EXTERN ?Register_R6_is_cg_reg
        EXTERN ?Register_R7_is_cg_reg
        EXTERN ?Register_R8_is_cg_reg
        EXTERN ?Register_R9_is_cg_reg
        EXTERN ?SS_DIVMOD_L02
        EXTERN ?need_segment_init

        PUBWEAK `?<Segment init: NEAR_Z>`
        PUBLIC IPCP_act_buf
        PUBLIC IPCP_event
        PUBLIC IPCP_state
        PUBLIC LCP_act_buf
        PUBLIC LCP_event
        PUBLIC LCP_state
        PUBLIC Obj_ppp_tx
        PUBLIC PAP_event
        PUBLIC PAP_state
        PUBWEAK _A_PORTC
        PUBWEAK _A_RAMPZ
        PUBWEAK _A_SREG
        PUBWEAK _A_UCSR0A
        PUBWEAK _A_UCSR0B
        PUBWEAK _A_UDR0
        PUBWEAK _A_UDR3
        PUBWEAK _A_WDTCSR
        PUBWEAK __?EEARH
        PUBWEAK __?EEARL
        PUBWEAK __?EECR
        PUBWEAK __?EEDR
        PUBLIC analiz_ppp_rx
        FUNCTION analiz_ppp_rx,021203H
        LOCFRAME RSTACK, 2, STACK
        PUBLIC ans_in_ctrl_cl
        PUBLIC ans_out_232
        PUBLIC ans_out_485_1
        PUBLIC ans_out_485_2
        PUBLIC ans_out_config
        PUBLIC ans_out_prog
        PUBLIC ans_out_st_contr
        PUBLIC array_in_232
        PUBLIC buf_ack_opt_ipcp
        PUBLIC buf_ack_opt_lcp
        PUBLIC buf_nak_opt_ipcp
        PUBLIC buf_nak_opt_lcp
        PUBLIC buf_rej_opt_ipcp
        PUBLIC buf_rej_opt_lcp
        PUBLIC buf_rejc_opt_ipcp
        PUBLIC buf_rejc_opt_lcp
        PUBLIC calc_crc_ip
        FUNCTION calc_crc_ip,0203H
        LOCFRAME CSTACK, 8, STACK
        LOCFRAME RSTACK, 2, STACK
        PUBLIC calc_crc_udp_2
        FUNCTION calc_crc_udp_2,0203H
        LOCFRAME CSTACK, 10, STACK
        LOCFRAME RSTACK, 2, STACK
        PUBLIC cnt_ip_tm_cntr
        PUBLIC cnt_ipcp_tm_out
        PUBLIC cnt_lcp_tm_out
        PUBLIC cnt_pap_tm_out
        PUBLIC cnt_pg
        PUBLIC cnt_rst_ipcp
        PUBLIC cnt_rst_lcp
        PUBLIC cnt_rst_pap
        PUBLIC contr_gluk1
        PUBLIC contr_gluk2
        PUBLIC delay_pre_tx
        PUBLIC evc_rld
        PUBLIC fcstab
        PUBLIC fl_ip
        PUBLIC fl_ipcp
        PUBLIC fl_ipcp1
        PUBLIC fl_ipcp2
        PUBLIC fl_lcp
        PUBLIC fl_lcp1
        PUBLIC fl_lcp2
        PUBLIC fl_pap
        PUBLIC fl_pg_out
        PUBLIC fl_rewrite
        PUBLIC i_scan_ipcp
        PUBLIC i_scan_lcp
        PUBLIC i_scj_ipcp
        PUBLIC i_scj_lcp
        PUBLIC i_scr_ipcp
        PUBLIC i_scr_lcp
        PUBLIC i_scr_pap
        PUBLIC i_sta_ipcp
        PUBLIC i_sta_lcp
        PUBLIC i_str_ipcp
        PUBLIC i_str_lcp
        PUBLIC id_pg_appl
        PUBLIC id_pg_kp
        PUBLIC ip_pri_dns
        PUBLIC ip_sec_dns
        PUBLIC ln_ack_ipcp
        PUBLIC ln_ack_lcp
        PUBLIC ln_nak_ipcp
        PUBLIC ln_nak_lcp
        PUBLIC ln_rej_ipcp
        PUBLIC ln_rej_lcp
        PUBLIC ln_rejc_ipcp
        PUBLIC ln_rejc_lcp
        PUBLIC monitor_act_IPCP
        FUNCTION monitor_act_IPCP,021203H
        LOCFRAME CSTACK, 2, STACK
        LOCFRAME RSTACK, 2, STACK
        PUBLIC monitor_act_LCP
        FUNCTION monitor_act_LCP,021203H
        LOCFRAME CSTACK, 2, STACK
        LOCFRAME RSTACK, 2, STACK
        PUBLIC monitor_act_PAP
        FUNCTION monitor_act_PAP,021203H
        LOCFRAME CSTACK, 7, STACK
        LOCFRAME RSTACK, 2, STACK
        PUBLIC monitor_event_IPCP
        FUNCTION monitor_event_IPCP,021203H
        LOCFRAME CSTACK, 2, STACK
        LOCFRAME RSTACK, 2, STACK
        PUBLIC monitor_event_LCP
        FUNCTION monitor_event_LCP,021203H
        LOCFRAME CSTACK, 4, STACK
        LOCFRAME RSTACK, 2, STACK
        PUBLIC monitor_event_PAP
        FUNCTION monitor_event_PAP,0203H
        LOCFRAME RSTACK, 2, STACK
        PUBLIC off_buf
        PUBLIC pagee
        PUBLIC pap_act_buf
        PUBLIC pg_crc
        PUBLIC pppfcs16
        FUNCTION pppfcs16,0203H
        LOCFRAME RSTACK, 2, STACK
        PUBLIC proc_option
        FUNCTION proc_option,0203H
        LOCFRAME CSTACK, 10, STACK
        LOCFRAME RSTACK, 4, STACK
        PUBLIC proc_paging
        FUNCTION proc_paging,0203H
        LOCFRAME RSTACK, 2, STACK
        PUBLIC proc_ppp_packet
        FUNCTION proc_ppp_packet,021203H
        LOCFRAME CSTACK, 14, STACK
        LOCFRAME RSTACK, 2, STACK
        PUBLIC proc_udp_data
        FUNCTION proc_udp_data,021203H
        LOCFRAME CSTACK, 18, STACK
        LOCFRAME RSTACK, 2, STACK
        PUBLIC prov_uk_in
        FUNCTION prov_uk_in,0203H
        LOCFRAME RSTACK, 2, STACK
        PUBLIC prov_uk_in_ipcp
        FUNCTION prov_uk_in_ipcp,0203H
        LOCFRAME RSTACK, 2, STACK
        PUBLIC rcvd_protokol
        PUBLIC reboot_byte
        PUBLIC rec_ctrl_ch
        PUBLIC rec_evc
        PUBLIC run_ipcp_act
        FUNCTION run_ipcp_act,021203H
        LOCFRAME CSTACK, 6, STACK
        LOCFRAME RSTACK, 2, STACK
        PUBLIC run_lcp_act
        FUNCTION run_lcp_act,021203H
        LOCFRAME CSTACK, 6, STACK
        LOCFRAME RSTACK, 2, STACK
        PUBLIC send_no_sinc
        FUNCTION send_no_sinc,021203H
        LOCFRAME CSTACK, 4, STACK
        LOCFRAME RSTACK, 2, STACK
        PUBLIC send_size_pg
        FUNCTION send_size_pg,021203H
        LOCFRAME CSTACK, 4, STACK
        LOCFRAME RSTACK, 2, STACK
        PUBLIC total_kol_page
        PUBLIC uk_in_act_IPCP
        PUBLIC uk_in_act_LCP
        PUBLIC uk_out_act_IPCP
        PUBLIC uk_out_act_LCP
        PUBLIC vol_cnt_rst_ipcp
        PUBLIC vol_cnt_rst_lcp
        PUBLIC vol_cnt_rst_pap
        
        CFI Names cfiNames0
        CFI StackFrame CFA_Y Y DATA
        CFI StackFrame CFA_SP SP DATA
        CFI VirtualResource ?RetPad:1, ?RetHigh:8, ?RetLow:8, ?Ret:17
        CFI Resource R0:8, R1:8, R2:8, R3:8, R4:8, R5:8, R6:8, R7:8, R8:8, R9:8
        CFI Resource R10:8, R11:8, R12:8, R13:8, R14:8, R15:8, R16:8, R17:8
        CFI Resource R18:8, R19:8, R20:8, R21:8, R22:8, R23:8, R24:8, R25:8
        CFI Resource R26:8, R27:8, R28:8, R29:8, R30:8, R31:8
        CFI Resource ?RetHighByteMask:8, SP:16, SPH:8, SPL:8, Y:16
        CFI ResourceParts ?Ret ?RetHigh, ?RetLow, ?RetPad
        CFI ResourceParts SP SPH, SPL
        CFI ResourceParts Y R29, R28
        CFI EndNames cfiNames0
        
        CFI Common cfiCommon0 Using cfiNames0
        CFI CodeAlign 1
        CFI DataAlign 1
        CFI ReturnAddress ?Ret CODE
        CFI CFA_Y Y+0
        CFI CFA_SP SP+2
        CFI ?RetPad 0
        CFI ?RetHigh and(load(1, DATA, sub(CFA_SP, 1)), ?RetHighByteMask)
        CFI ?RetLow Frame(CFA_SP, 0)
        CFI ?Ret Concat
        CFI R0 Undefined
        CFI R1 Undefined
        CFI R2 Undefined
        CFI R3 Undefined
        CFI R4 SameValue
        CFI R5 SameValue
        CFI R6 SameValue
        CFI R7 SameValue
        CFI R8 SameValue
        CFI R9 SameValue
        CFI R10 SameValue
        CFI R11 SameValue
        CFI R12 SameValue
        CFI R13 SameValue
        CFI R14 SameValue
        CFI R15 SameValue
        CFI R16 Undefined
        CFI R17 Undefined
        CFI R18 Undefined
        CFI R19 Undefined
        CFI R20 Undefined
        CFI R21 Undefined
        CFI R22 Undefined
        CFI R23 Undefined
        CFI R24 SameValue
        CFI R25 SameValue
        CFI R26 SameValue
        CFI R27 SameValue
        CFI R28 Undefined
        CFI R29 Undefined
        CFI R30 Undefined
        CFI R31 Undefined
        CFI ?RetHighByteMask SameValue
        CFI SPH Undefined
        CFI SPL Undefined
        CFI EndCommon cfiCommon0
        
        EXTERN check_cts
        FUNCTION check_cts,0202H
        EXTERN RdFromFleshToArr
        FUNCTION RdFromFleshToArr,0202H
        EXTERN clr_cntr_nat
        FUNCTION clr_cntr_nat,0202H
        EXTERN clr_cntr_link
        FUNCTION clr_cntr_link,0202H
        EXTERN form_buf_tx_ppp
        FUNCTION form_buf_tx_ppp,0202H
        EXTERN transform_buf
        FUNCTION transform_buf,0202H
        EXTERN crc_m1
        FUNCTION crc_m1,0202H
        EXTERN send_info
        FUNCTION send_info,0202H
        EXTERN send_err485
        FUNCTION send_err485,0202H
        EXTERN check_cont_485_1
        FUNCTION check_cont_485_1,0202H
        EXTERN burst_ds_r
        FUNCTION burst_ds_r,0202H
        EXTERN check_ln_conf
        FUNCTION check_ln_conf,0202H
        EXTERN WrArrayToFlesh
        FUNCTION WrArrayToFlesh,0202H
        EXTERN proc_config
        FUNCTION proc_config,0202H
        EXTERN crc_ozu
        FUNCTION crc_ozu,0202H
        EXTERN boot
        FUNCTION boot,0202H
        EXTERN r_p_flash
        FUNCTION r_p_flash,0202H
        EXTERN delay
        FUNCTION delay,0202H
        EXTERN reload_apl
        FUNCTION reload_apl,0202H
        EXTERN Appl_RS232_2
        EXTERN Appl_RS232_2_data_buf
        EXTERN Appl_RS485_1
        EXTERN Appl_RS485_1_data_buf
        EXTERN Appl_RS485_2
        EXTERN Appl_RS485_2_data_buf
        EXTERN Appl_seq
        EXTERN Appl_seq_des
        EXTERN Buf1_rx_ppp
        EXTERN Buf2_rx_ppp
        EXTERN Control
        EXTERN Regim
        EXTERN buf_opt_tr
        EXTERN buf_tx_232
        EXTERN cnt_no_link
        EXTERN count_tx_ppp
        EXTERN event_modem
        EXTERN fl_232_2
        EXTERN fl_485_1
        EXTERN fl_485_2
        EXTERN fl_appl_seq
        EXTERN fl_appl_seq1
        EXTERN ip_ls
        EXTERN ip_self
        EXTERN layer_PPP
        EXTERN num_self
        EXTERN num_seq_cl
        EXTERN point_log_buf
        EXTERN port_udp
        EXTERN prov_ozu
        EXTERN simka
        EXTERN state_seq
        EXTERN struct_tcc1
        EXTERN struct_tcc2
        EXTERN sv1
        EXTERN sv2
        EXTERN vol_cnt_no_link
        EXTERN vol_tx_ppp

// D:\PRJIAR\NSS141107\fppp2.c
//    1 #include <iom1280.h> 

        ASEGN ABSOLUTE:DATA:NOROOT,0136H
// union <unnamed> volatile __ext_io _A_UDR3
_A_UDR3:
        DS 1

        ASEGN ABSOLUTE:DATA:NOROOT,0c6H
// union <unnamed> volatile __io _A_UDR0
_A_UDR0:
        DS 1

        ASEGN ABSOLUTE:DATA:NOROOT,0c1H
// union <unnamed> volatile __io _A_UCSR0B
_A_UCSR0B:
        DS 1

        ASEGN ABSOLUTE:DATA:NOROOT,0c0H
// union <unnamed> volatile __io _A_UCSR0A
_A_UCSR0A:
        DS 1

        ASEGN ABSOLUTE:DATA:NOROOT,060H
// union <unnamed> volatile __io _A_WDTCSR
_A_WDTCSR:
        DS 1

        ASEGN ABSOLUTE:DATA:NOROOT,05fH
// union <unnamed> volatile __io _A_SREG
_A_SREG:
        DS 1

        ASEGN ABSOLUTE:DATA:NOROOT,05bH
// union <unnamed> volatile __io _A_RAMPZ
_A_RAMPZ:
        DS 1

        ASEGN ABSOLUTE:DATA:NOROOT,028H
// union <unnamed> volatile __io _A_PORTC
_A_PORTC:
        DS 1
//    2 #include <inavr.h>
//    3 #include "dfpin.h"
//    4 #include "dfproc.h"
//    5 #include "def_prot.h"
//    6 #include "def_conf.h"
//    7 #include "map_ef.h"
//    8 #include "ozu_map.h"
//    9 #include "def_at.h"
//   10 #include "def_link.h"
//   11 #include "dfcnst.h"
//   12 
//   13 //ŕäîďňčđîâŕííűé îáđĺçŕííűé ńňĺę PPP 14.09.07
//   14 
//   15 #define C_GLUK1    0x55   
//   16 #define C_GLUK2    0xaa
//   17 
//   18 void  transform_buf(unsigned char *p,unsigned int kol_byte,unsigned int s_rand);
//   19 
//   20 
//   21 void boot(void);
//   22 void r_p_flash(unsigned int adress);
//   23 void reload_apl (void);
//   24 
//   25 void send_info(char size,char __flash *p,unsigned char fl_id,unsigned char id);
//   26 

        RSEG NEAR_F:CODE:NOROOT(0)
//   27 __flash char evc_rld[]=            {'E','V','C',':','r','l','d'};
evc_rld:
        DB 69, 86, 67, 58, 114, 108, 100
//   28 
//   29 __flash char rec_ctrl_ch[]=             {'R','E','C',':','c','t','r','l',' ','c','h'};
rec_ctrl_ch:
        DB 82, 69, 67, 58, 99, 116, 114, 108, 32, 99, 104
//   30 __flash char rec_evc[]=             {'R','E','C',':','e','v','c'};
rec_evc:
        DB 82, 69, 67, 58, 101, 118, 99
//   31 
//   32 __flash char ans_in_ctrl_cl[]={'A','N','S','-','<','c','t','r','l',' ','c','l'};
ans_in_ctrl_cl:
        DB 65, 78, 83, 45, 60, 99, 116, 114, 108, 32, 99, 108
//   33 
//   34 
//   35 /*
//   36 __flash char req_in_485_1[]={'R','E','Q','-','<','4','8','5','_','1'};
//   37 __flash char req_in_485_2[]={'R','E','Q','-','<','4','8','5','_','2'};
//   38 __flash char req_in_232[]={'R','E','Q','-','<','2','3','2'};
//   39 __flash char req_in_st_contr[]={'R','E','Q','-','<','s','t',' ','c','o','n','t','r'};
//   40 __flash char req_in_config[]={'R','E','Q','-','<','c','o','n','f','i','g'};
//   41 __flash char req_in_prog[]={'R','E','Q','-','<','p','r','o','g'};
//   42 */
//   43 
//   44 __flash char ans_out_485_1[]={'A','N','S','-','>','4','8','5','_','1'};
ans_out_485_1:
        DB 65, 78, 83, 45, 62, 52, 56, 53, 95, 49
//   45 __flash char ans_out_485_2[]={'A','N','S','-','>','4','8','5','_','2'};
ans_out_485_2:
        DB 65, 78, 83, 45, 62, 52, 56, 53, 95, 50
//   46 __flash char ans_out_232[]={'A','N','S','-','>','2','3','2'};
ans_out_232:
        DB 65, 78, 83, 45, 62, 50, 51, 50
//   47 __flash char ans_out_st_contr[]={'A','N','S','-','>','s','t',' ','c','o','n','t','r'};
ans_out_st_contr:
        DB 65, 78, 83, 45, 62, 115, 116, 32, 99, 111, 110, 116, 114
//   48 __flash char ans_out_config[]={'A','N','S','-','>','c','o','n','f','i','g'};
ans_out_config:
        DB 65, 78, 83, 45, 62, 99, 111, 110, 102, 105, 103
//   49 __flash char ans_out_prog[]={'A','N','S','-','>','p','r','o','g'};
ans_out_prog:
        DB 65, 78, 83, 45, 62, 112, 114, 111, 103
//   50 
//   51 //__flash char ans_out_ping[]={'A','N','S','-','>','p','i','n','g'};
//   52 
//   53 
//   54 //#include "sec.h"
//   55 
//   56 //enum t_version {VER1 = 1 ,VER2,VER3,VER4};
//   57 //enum t_type {ZAPR,OTV,SOOB,KVIT};
//   58 extern unsigned char simka; //dobavka
//   59 
//   60 extern unsigned int num_self,num_seq_cl,port_udp;
//   61 extern unsigned char ip_ls[4]; 
//   62 
//   63 
//   64 extern unsigned long int cnt_no_link, vol_cnt_no_link;//dobavka
//   65 
//   66 void delay(unsigned int period);
//   67 extern unsigned long int burst_ds_r(void);
//   68 unsigned int proc_config(unsigned char *buf_rx_ppp,unsigned char offset,unsigned int count_rx_ppp);
//   69 unsigned char check_ln_conf(unsigned char *buf_rx_ppp,unsigned char offset,unsigned int count_rx_ppp);
//   70 unsigned char check_cont_485_1 (unsigned char *pointer);
//   71 unsigned char check_cont_485_2 (unsigned char *pointer);
//   72 
//   73 extern unsigned char Regim;
//   74 unsigned char proc_udp_data(unsigned char *buf_rx_ppp,unsigned int count_rx_ppp);
//   75 unsigned int crc_m1(unsigned char *ka,unsigned int num,unsigned int crc);
//   76 unsigned int crc_ozu(void);
//   77 extern unsigned int prov_ozu;
//   78 
//   79 void clr_cntr_nat(void);
//   80 void form_buf_tx_ppp(void);
//   81 
//   82 unsigned char check_cts(void);
//   83 void clr_cntr_link(void);
//   84 
//   85 void RdFromFleshToArr(unsigned int adres_flesh, unsigned char *adres_ozu,unsigned int num);
//   86 void WrArrayToFlesh(unsigned int adres_flesh,  unsigned char *adres_ozu, unsigned int num,unsigned char flag,unsigned char znach);
//   87 
//   88 void send_err485(unsigned char port,unsigned char err,unsigned char id,unsigned int dst);
//   89 
//   90 
//   91 extern unsigned char point_log_buf;
//   92 
//   93   struct
//   94   {
//   95   unsigned char  ip         :1;
//   96   unsigned char  udp        :1;
//   97   unsigned char  num_self   :1;
//   98   unsigned char cnt_reset;

        RSEG NEAR_Z:DATA:NOROOT(0)
        REQUIRE `?<Segment init: NEAR_Z>`
//   99   }fl_rewrite;
//  100 
//  101 ///!!!!!!!!!!!!!!!!!!!!!!!!!!!!!!!!!!!äë˙ ĐĐĐ
//  102 extern  struct
//  103  {
//  104   unsigned char data[VOL_RX_PPP];//ńŕě áóôĺđ
//  105   unsigned int ln_data;  // äëčíŕ äŕííűő
//  106   enum bool rec; // ďŕęĺň ďđčí˙ň
//  107   enum bool busy;// áóôĺđ çŕí˙ň
//  108   enum bool check_busy;// ďđîâĺđęŕ çŕí˙ň ëč áóôĺđ
//  109  }Buf1_rx_ppp,Buf2_rx_ppp; // 
//  110 
//  111 
//  112 extern struct
//  113 {
//  114  
//  115   unsigned char tek_pin :1;
//  116   unsigned char old_pin :1;
//  117   unsigned char fl_ch_tc :1;
//  118   unsigned char real_tc;
//  119   unsigned int count_tc; 
//  120   unsigned char type;
//  121   unsigned char cnt_block_tc;
//  122 }struct_tcc1,struct_tcc2;
//  123 
//  124 extern struct
//  125 {
//  126   unsigned char tc:1;
//  127   unsigned char tc_old :1;
//  128 }sv1,sv2;
//  129 
//  130 
//  131 
//  132 
//  133 extern enum t_event_modem event_modem;
//  134 
//  135 extern unsigned char buf_tx_232[VOL_TX_PPP];
//  136 extern unsigned int count_tx_ppp,vol_tx_ppp;
//  137 extern unsigned char layer_PPP;
//  138 
//  139 struct
//  140  {
//  141   unsigned char act_lcp_end :1;  
//  142   unsigned char lcp_tm_out_en :1;
//  143   unsigned char t0_pl:1;
//  144   unsigned char t0_mi:1;
//  145  }fl_lcp; 
//  146  
//  147 
//  148 struct
//  149  {
//  150   unsigned char act_ipcp_end :1;  
//  151   unsigned char ipcp_tm_out_en :1;
//  152   unsigned char t0_pl:1;
//  153   unsigned char t0_mi:1;
//  154  }fl_ipcp; 
//  155 
//  156 struct
//  157  {
//  158   unsigned char act_ip_end :1; 
//  159   unsigned char ip_tm_cntr_en :1; 
//  160   unsigned char ip_tm_nat_en :1;
//  161  }fl_ip;
//  162 
//  163 
//  164 
//  165   
//  166 struct
//  167  {
//  168   unsigned char act_pap_end :1;  
//  169   unsigned char pap_tm_out_en:1;
//  170   unsigned char t0_pl:1;
//  171   unsigned char t0_mi:1;  
//  172   unsigned char up: 1; 
//  173  }fl_pap; 
//  174 
//  175 
//  176  struct
//  177  {
//  178   unsigned char up :1;  
//  179   unsigned char down :1;
//  180  }fl_lcp1; 
//  181 
//  182 
//  183 struct
//  184  {
//  185   unsigned char up :1;  
//  186   unsigned char down :1;
//  187  }fl_ipcp1;
//  188  
//  189  struct
//  190  {
//  191   unsigned char nac_rej :1; // reject - 1 
//  192  }fl_lcp2;
//  193    
//  194  struct
//  195  {
//  196   unsigned char nac_rej :1; // reject - 1 
//  197  }fl_ipcp2;
//  198  
//  199  
//  200 
//  201 unsigned char pap_act_buf,PAP_state,PAP_event;
//  202 unsigned char LCP_state, LCP_event,LCP_act_buf[LCP_ACT_VOL];
//  203 unsigned char IPCP_state, IPCP_event,IPCP_act_buf[IPCP_ACT_VOL];
//  204 unsigned char uk_in_act_LCP,uk_out_act_LCP,uk_in_act_IPCP,uk_out_act_IPCP;
//  205 
//  206 unsigned char cnt_rst_lcp,vol_cnt_rst_lcp;
//  207 unsigned char cnt_rst_ipcp,vol_cnt_rst_ipcp;                       
//  208 unsigned char cnt_rst_pap,vol_cnt_rst_pap;       
//  209                       
//  210                         
//  211 unsigned int cnt_lcp_tm_out,cnt_ipcp_tm_out;
//  212 unsigned int cnt_pap_tm_out;
//  213 unsigned long int cnt_ip_tm_cntr;
//  214 unsigned char rcvd_protokol;
//  215 
//  216 unsigned char  i_scr_lcp,i_scan_lcp;
//  217 unsigned char  i_scj_lcp;//čäĺíňčôčęŕňîđű lcp
//  218 unsigned char  i_str_lcp,i_sta_lcp;
//  219  
//  220 unsigned char  i_scr_ipcp,i_scan_ipcp;
//  221 unsigned char  i_scj_ipcp;//čäĺíňčôčęŕňîđű ipcp
//  222 unsigned char  i_str_ipcp,i_sta_ipcp; 
//  223  
//  224   
//  225 unsigned char  i_scr_pap;
//  226 
//  227 
//  228 unsigned char buf_rejc_opt_lcp[MAX_DL_LCP-6];
//  229 unsigned char buf_ack_opt_lcp[MAX_DL_LCP-12];
//  230 unsigned char buf_nak_opt_lcp[MAX_DL_LCP-12];
//  231 unsigned char buf_rej_opt_lcp[MAX_DL_LCP-12];
//  232 
//  233 unsigned char buf_rejc_opt_ipcp[MAX_DL_IPCP-4];
//  234 unsigned char buf_ack_opt_ipcp[MAX_DL_IPCP-10];
//  235 unsigned char buf_nak_opt_ipcp[MAX_DL_IPCP-10];
//  236 unsigned char buf_rej_opt_ipcp[MAX_DL_IPCP-10];
//  237  
//  238 
//  239 unsigned char ln_rejc_lcp,ln_rej_lcp,ln_ack_lcp,ln_nak_lcp;
//  240 
//  241 unsigned char ln_rejc_ipcp,ln_rej_ipcp,ln_ack_ipcp,ln_nak_ipcp;
//  242 
//  243 
//  244 extern struct                   //ńňđóęňóđŕ, îďčńűâŕţůŕ˙ îáúĺęň ďĺđĺäŕ÷č ďî PPP 
//  245   {  
//  246   enum bool link_no ; //ńâ˙çč íĺň
//  247   enum bool link_waits; //îćčäŕíčĺ ęâčňęŕ íŕ ęîíňđîëü ńâ˙çč
//  248   enum bool link;      //ęîíňđîëü ńâ˙çč    
//  249   enum bool nat;      //ęîíňđîëü nat 
//  250   unsigned int cnt_link; // ń÷ĺň÷čę
//  251   unsigned int cnt_nat; // ń÷ĺň÷čę
//  252   unsigned int vol_link; // çíŕ÷ĺíčĺ  
//  253   unsigned int vol_nat; // //çíŕ÷ĺíčĺ 
//  254   unsigned int vol_waits; // çíŕ÷ĺíčĺ âđĺěĺíč ęâčňęŕ îćčäŕíč˙ ęîíňđîë˙ ńâ˙çč
//  255   unsigned char cnt_try; // ń÷ĺň÷čę ďîďűňîę ďîëó÷čňü ęâčňîę
//  256   unsigned char vol_try; // rjkbxtcndj ďîďűňîę ďîëó÷čňü ęâčňîę
//  257   unsigned int vol_nat_r; // ń÷ĺň÷čę
//  258   }Control;
//  259 
//  260  extern unsigned char ip_self[4];
//  261  unsigned char ip_pri_dns[4],ip_sec_dns[4]; 
//  262   //EEEEEEEEEEEEEEEEEEEEEEEEEEEEEEEEEEEEEEEEE 
//  263 
//  264  
//  265  
//  266  
//  267    //!!!!!!!!!!!!!!!!!!!!!!!!!!!!!ńňđóęňóđű ďđčëîćĺíč˙
//  268 extern struct
//  269 {
//  270 unsigned char id;
//  271 unsigned int p_in;// óęŕçŕňĺëü ńâîáîäíîé ˙÷ĺéęč
//  272 unsigned int p_out;
//  273 unsigned int p_out_kv;
//  274 unsigned int crc;
//  275 unsigned int cnt_waits; // ń÷ĺň÷čę îćčäŕíč˙ ęâčňęŕ
//  276 unsigned char cnt_try; // ń÷ĺň÷čę ďîďűňîę ďîëó÷čňü ęâčňîę 
//  277 unsigned int l_data; // äëčíŕ ďîńűëŕĺěűő äŕííűő
//  278 unsigned char state;
//  279 unsigned char event;
//  280 unsigned int tm_vzat;
//  281 unsigned int vol_tm_vzat;
//  282 enum bool cntr_cl;
//  283 enum bool en_cntr_cl;
//  284 unsigned int cnt_cntr_cl;
//  285 unsigned int vol_cntr_cl;
//  286 }Appl_seq;
//  287 
//  288 extern unsigned char Appl_seq_des;
//  289 extern unsigned char state_seq;
//  290 
//  291 
//  292 
//  293 extern struct
//  294 {
//  295 unsigned char en_tx :1;
//  296 unsigned char kv_waits :1;
//  297 unsigned char en_povtor:1;
//  298 }fl_appl_seq;
//  299 
//  300 extern struct
//  301 {
//  302 unsigned char over_buf :1;
//  303 unsigned char send_state :1;
//  304 unsigned char enable:1; 
//  305 }fl_appl_seq1; 
//  306 
//  307 
//  308 //extern unsigned char byte_state_net;
//  309 
//  310   //EEEEEEEEEEEEEEEEEEEEEEEEEEEEEEEEEEEEEEEEE
//  311  
//  312  unsigned int  delay_pre_tx;
//  313  
//  314  
//  315 //!!!!!!!!!!!!!!!11óäŕëĺííŕ˙ çŕăđóçęŕ 
//  316 unsigned char off_buf,total_kol_page;
//  317 unsigned int pagee;
//  318 unsigned char contr_gluk1, contr_gluk2;
//  319 unsigned char *array_in_232; 
//  320 unsigned char reboot_byte;
//  321  
//  322  struct
//  323  {
//  324  unsigned char  end_pg      :1;// ôëŕă ďîńëĺäíĺé ńňđŕíčöű
//  325  unsigned char  ch_crc      :1;// ôëŕă ďđîâĺđęč crc
//  326  unsigned char  send_kv     :1;//ôëŕă îňńűëęč ęâčňęŕ
//  327  unsigned char  cor_pg      :1;// ôëŕă ęîđđĺęňíîé ńňđŕíčöű äŕëüřĺ
//  328  unsigned char  first_pg    :1;//ôëŕă ďĺđâîé ńňđŕíčöű
//  329  unsigned char  hold_pg     :1;// ôëŕă çŕőâŕňŕ äŕííűő
//  330  unsigned char  send_crc     :1;// ôëŕă ďîńűëęč îďöčč ŃĐŃ
//  331  //unsigned char  yes_crc     :1;// âĺđíűé crc
//  332  }fl_pg_out;
//  333  
//  334  unsigned int pg_crc; //çíŕ÷ĺíčĺ crc ęóńęŕ äŕííűő
//  335  unsigned int cnt_pg;// đĺŕëüíűé ń÷ĺň÷čę ńňđŕíčö
//  336  unsigned char id_pg_kp;//öčęëč÷ĺńęčé čäĺíňčôčęŕňîđ ńňđŕíčö ęîíňđîëëĺđŕ
//  337  unsigned char id_pg_appl;//öčęëč÷ĺńęčé čäĺíňčôčęŕňîđ ńňđŕíčö âĺđőíĺăî ďđčëîćĺíč˙
//  338  
//  339  //EEEEEEEEEEEEEEEEEEEEEEEEEEEEEEEEEEE
//  340  
//  341  
//  342 extern unsigned char Appl_RS485_1_data_buf[LN_BUF_485_1];// ńŕě áóôĺđ
//  343 extern unsigned char Appl_RS485_2_data_buf[LN_BUF_485_2];// ńŕě áóôĺđ
//  344 extern unsigned char Appl_RS232_2_data_buf[LN_BUF_232_2];// ńŕě áóôĺđ
//  345  
//  346 extern struct                   //ńňđóęňóđŕ îďčńűâŕţůŕ˙ đŕáîňó ďđčëîćĺíč˙ "RS485_1" 
//  347   {  
//  348   enum bool fl_data_buf; //čěĺĺňń˙ ëč çŕáóôĺđčçčđîâŕííűé ďŕęĺň äë˙ ďĺđĺäŕ÷č â ďîđň RS485_1
//  349   unsigned int ln_data_buf; // çŕáóôĺđčçčđîâŕííŕ˙ äëčíŕ áóôĺđŕ
//  350   unsigned int dst_buf; // çŕáóôĺđčçčđîâŕííűé ďîëó÷ŕňĺëü
//  351   unsigned char cont_buf[8];// çŕáóôĺđčçčđîâŕííűé ęîíňĺęńň
//  352   unsigned char id_buf; // çŕáóôĺđčçčđîâŕííűé id
//  353   unsigned int dst_tek;// ňĺęóůčé ďîëó÷ŕňĺëü
//  354   unsigned char id_tek; // ňĺęóůčé id
//  355   unsigned int pre_tx;//çŕäĺđćęŕ ďĺđĺä ďĺđĺäŕ÷ĺé
//  356   }Appl_RS485_1,Appl_RS485_2,Appl_RS232_2;
//  357 
//  358 /*  
//  359 extern struct
//  360  {
//  361  unsigned char mon1 : 1;
//  362  unsigned char mon2 : 1;
//  363  } fl_tx485;
//  364 */ 
//  365 
//  366 extern struct
//  367  {
//  368  unsigned char busy : 1;
//  369  unsigned char rec : 1;
//  370  unsigned char tm_out : 1;
//  371  unsigned char tx : 1;
//  372  unsigned char over : 1;
//  373  unsigned char buffed : 1;
//  374  }fl_485_1,fl_485_2,fl_232_2;
//  375 
//  376  
//  377  
//  378 
//  379 
//  380 
//  381  struct                   //ńňđóęňóđŕ, îďčńűâŕţůŕ˙ îáúĺęň ďĺđĺäŕ÷č ďî PPP 
//  382   {  
//  383   enum bool prozr;      //âĺđńč˙       
//  384   enum t_version version;      //âĺđńč˙ 
//  385   enum t_type   type_pac;     //ňčď ďŕęĺňŕ
//  386   unsigned int num_src; // íîěĺđ îňďđŕâčňĺë˙
//  387   unsigned int num_dst; // íîěĺđ ďîëó÷ŕňĺë˙
//  388   unsigned char id_pac; // čäĺíňčôčęŕňîđ ďŕęĺňŕ  
//  389   unsigned char * p_opt; // //óęŕçŕňĺëü áóôĺđŕ îďöčé  
//  390   unsigned char l_opt;// äëčíŕ áóôĺđŕ îďöčé   
//  391   unsigned char kol_opt;// ęîëč÷ĺńňâî îďöčé   
//  392   unsigned char * p_data;  //óęŕçŕňĺëü áóôĺđŕ äŕííűő
//  393   unsigned int l_data;   // äëčíŕ äŕííűő
//  394   }Obj_ppp_tx;
Obj_ppp_tx:
        DS 16
delay_pre_tx:
        DS 2
pagee:
        DS 2
array_in_232:
        DS 2
pg_crc:
        DS 2
cnt_pg:
        DS 2
fl_rewrite:
        DS 2
off_buf:
        DS 1
total_kol_page:
        DS 1
contr_gluk1:
        DS 1
contr_gluk2:
        DS 1
reboot_byte:
        DS 1
fl_pg_out:
        DS 1
id_pg_kp:
        DS 1
id_pg_appl:
        DS 1

        RSEG NEAR_Z:DATA:NOROOT(0)
        REQUIRE `?<Segment init: NEAR_Z>`
cnt_pap_tm_out:
        DS 2
fl_lcp:
        DS 1
fl_ipcp:
        DS 1
fl_ip:
        DS 1
fl_pap:
        DS 1
fl_ipcp1:
        DS 1
pap_act_buf:
        DS 1
PAP_state:
        DS 1
PAP_event:
        DS 1
IPCP_state:
        DS 1
IPCP_event:
        DS 1
IPCP_act_buf:
        DS 10
uk_in_act_LCP:
        DS 1
uk_out_act_LCP:
        DS 1
uk_in_act_IPCP:
        DS 1
uk_out_act_IPCP:
        DS 1
vol_cnt_rst_ipcp:
        DS 1
vol_cnt_rst_pap:
        DS 1
i_scr_lcp:
        DS 1
i_scan_lcp:
        DS 1
i_scr_ipcp:
        DS 1
i_scan_ipcp:
        DS 1
i_scr_pap:
        DS 1
buf_ack_opt_ipcp:
        DS 25
ln_rej_lcp:
        DS 1
ln_ack_lcp:
        DS 1
ln_rej_ipcp:
        DS 1
ln_ack_ipcp:
        DS 1
ln_nak_ipcp:
        DS 1

        RSEG NEAR_Z:DATA:NOROOT(0)
        REQUIRE `?<Segment init: NEAR_Z>`
fl_lcp1:
        DS 1
LCP_state:
        DS 1
LCP_act_buf:
        DS 15
buf_rej_opt_lcp:
        DS 28

        RSEG NEAR_Z:DATA:NOROOT(0)
        REQUIRE `?<Segment init: NEAR_Z>`
cnt_lcp_tm_out:
        DS 2
fl_lcp2:
        DS 1
LCP_event:
        DS 1
rcvd_protokol:
        DS 1
buf_ack_opt_lcp:
        DS 28
buf_nak_opt_lcp:
        DS 28
ln_rejc_lcp:
        DS 1
ln_nak_lcp:
        DS 1

        RSEG NEAR_Z:DATA:NOROOT(0)
        REQUIRE `?<Segment init: NEAR_Z>`
cnt_ipcp_tm_out:
        DS 2
fl_ipcp2:
        DS 1
cnt_rst_ipcp:
        DS 1
buf_nak_opt_ipcp:
        DS 25
buf_rej_opt_ipcp:
        DS 25

        RSEG NEAR_Z:DATA:NOROOT(0)
        REQUIRE `?<Segment init: NEAR_Z>`
cnt_rst_lcp:
        DS 1

        RSEG NEAR_Z:DATA:NOROOT(0)
        REQUIRE `?<Segment init: NEAR_Z>`
vol_cnt_rst_lcp:
        DS 1

        RSEG NEAR_Z:DATA:NOROOT(0)
        REQUIRE `?<Segment init: NEAR_Z>`
cnt_rst_pap:
        DS 1

        RSEG NEAR_Z:DATA:NOROOT(0)
        REQUIRE `?<Segment init: NEAR_Z>`
cnt_ip_tm_cntr:
        DS 4

        RSEG NEAR_Z:DATA:NOROOT(0)
        REQUIRE `?<Segment init: NEAR_Z>`
i_scj_lcp:
        DS 1

        RSEG NEAR_Z:DATA:NOROOT(0)
        REQUIRE `?<Segment init: NEAR_Z>`
i_str_lcp:
        DS 1

        RSEG NEAR_Z:DATA:NOROOT(0)
        REQUIRE `?<Segment init: NEAR_Z>`
i_sta_lcp:
        DS 1

        RSEG NEAR_Z:DATA:NOROOT(0)
        REQUIRE `?<Segment init: NEAR_Z>`
i_scj_ipcp:
        DS 1

        RSEG NEAR_Z:DATA:NOROOT(0)
        REQUIRE `?<Segment init: NEAR_Z>`
i_str_ipcp:
        DS 1

        RSEG NEAR_Z:DATA:NOROOT(0)
        REQUIRE `?<Segment init: NEAR_Z>`
i_sta_ipcp:
        DS 1

        RSEG NEAR_Z:DATA:NOROOT(0)
        REQUIRE `?<Segment init: NEAR_Z>`
buf_rejc_opt_lcp:
        DS 34

        RSEG NEAR_Z:DATA:NOROOT(0)
        REQUIRE `?<Segment init: NEAR_Z>`
buf_rejc_opt_ipcp:
        DS 31

        RSEG NEAR_Z:DATA:NOROOT(0)
        REQUIRE `?<Segment init: NEAR_Z>`
ip_pri_dns:
        DS 4
ip_sec_dns:
        DS 4
ln_rejc_ipcp:
        DS 1
//  395 
//  396  extern unsigned char buf_opt_tr[20]; 
//  397  
//  398  

        RSEG NEAR_F:CODE:NOROOT(0)
//  399  __flash unsigned int fcstab[256] = {
fcstab:
        DW 0, 4489, 8978, 12955, 17956, 22445, 25910, 29887, 35912, 40385
        DW 44890, 48851, 51820, 56293, 59774, 63735, 4225, 264, 13203, 8730
        DW 22181, 18220, 30135, 25662, 40137, 36160, 49115, 44626, 56045, 52068
        DW 63999, 59510, 8450, 12427, 528, 5017, 26406, 30383, 17460, 21949
        DW 44362, 48323, 36440, 40913, 60270, 64231, 51324, 55797, 12675, 8202
        DW 4753, 792, 30631, 26158, 21685, 17724, 48587, 44098, 40665, 36688
        DW 64495, 60006, 55549, 51572, 16900, 21389, 24854, 28831, 1056, 5545
        DW 10034, 14011, 52812, 57285, 60766, 64727, 34920, 39393, 43898, 47859
        DW 21125, 17164, 29079, 24606, 5281, 1320, 14259, 9786, 57037, 53060
        DW 64991, 60502, 39145, 35168, 48123, 43634, 25350, 29327, 16404, 20893
        DW 9506, 13483, 1584, 6073, 61262, 65223, 52316, 56789, 43370, 47331
        DW 35448, 39921, 29575, 25102, 20629, 16668, 13731, 9258, 5809, 1848
        DW 65487, 60998, 56541, 52564, 47595, 43106, 39673, 35696, 33800, 38273
        DW 42778, 46739, 49708, 54181, 57662, 61623, 2112, 6601, 11090, 15067
        DW 20068, 24557, 28022, 31999, 38025, 34048, 47003, 42514, 53933, 49956
        DW 61887, 57398, 6337, 2376, 15315, 10842, 24293, 20332, 32247, 27774
        DW 42250, 46211, 34328, 38801, 58158, 62119, 49212, 53685, 10562, 14539
        DW 2640, 7129, 28518, 32495, 19572, 24061, 46475, 41986, 38553, 34576
        DW 62383, 57894, 53437, 49460, 14787, 10314, 6865, 2904, 32743, 28270
        DW 23797, 19836, 50700, 55173, 58654, 62615, 32808, 37281, 41786, 45747
        DW 19012, 23501, 26966, 30943, 3168, 7657, 12146, 16123, 54925, 50948
        DW 62879, 58390, 37033, 33056, 46011, 41522, 23237, 19276, 31191, 26718
        DW 7393, 3432, 16371, 11898, 59150, 63111, 50204, 54677, 41258, 45219
        DW 33336, 37809, 27462, 31439, 18516, 23005, 11618, 15595, 3696, 8185
        DW 63375, 58886, 54429, 50452, 45483, 40994, 37561, 33584, 31687, 27214
        DW 22741, 18780, 15843, 11370, 7921, 3960
//  400       0x0000, 0x1189, 0x2312, 0x329b, 0x4624, 0x57ad, 0x6536, 0x74bf,
//  401       0x8c48, 0x9dc1, 0xaf5a, 0xbed3, 0xca6c, 0xdbe5, 0xe97e, 0xf8f7,
//  402       0x1081, 0x0108, 0x3393, 0x221a, 0x56a5, 0x472c, 0x75b7, 0x643e,
//  403       0x9cc9, 0x8d40, 0xbfdb, 0xae52, 0xdaed, 0xcb64, 0xf9ff, 0xe876,
//  404       0x2102, 0x308b, 0x0210, 0x1399, 0x6726, 0x76af, 0x4434, 0x55bd,
//  405       0xad4a, 0xbcc3, 0x8e58, 0x9fd1, 0xeb6e, 0xfae7, 0xc87c, 0xd9f5,
//  406       0x3183, 0x200a, 0x1291, 0x0318, 0x77a7, 0x662e, 0x54b5, 0x453c,
//  407       0xbdcb, 0xac42, 0x9ed9, 0x8f50, 0xfbef, 0xea66, 0xd8fd, 0xc974,
//  408       0x4204, 0x538d, 0x6116, 0x709f, 0x0420, 0x15a9, 0x2732, 0x36bb,
//  409       0xce4c, 0xdfc5, 0xed5e, 0xfcd7, 0x8868, 0x99e1, 0xab7a, 0xbaf3,
//  410       0x5285, 0x430c, 0x7197, 0x601e, 0x14a1, 0x0528, 0x37b3, 0x263a,
//  411       0xdecd, 0xcf44, 0xfddf, 0xec56, 0x98e9, 0x8960, 0xbbfb, 0xaa72,
//  412       0x6306, 0x728f, 0x4014, 0x519d, 0x2522, 0x34ab, 0x0630, 0x17b9,
//  413       0xef4e, 0xfec7, 0xcc5c, 0xddd5, 0xa96a, 0xb8e3, 0x8a78, 0x9bf1,
//  414       0x7387, 0x620e, 0x5095, 0x411c, 0x35a3, 0x242a, 0x16b1, 0x0738,
//  415       0xffcf, 0xee46, 0xdcdd, 0xcd54, 0xb9eb, 0xa862, 0x9af9, 0x8b70,
//  416       0x8408, 0x9581, 0xa71a, 0xb693, 0xc22c, 0xd3a5, 0xe13e, 0xf0b7,
//  417       0x0840, 0x19c9, 0x2b52, 0x3adb, 0x4e64, 0x5fed, 0x6d76, 0x7cff,
//  418       0x9489, 0x8500, 0xb79b, 0xa612, 0xd2ad, 0xc324, 0xf1bf, 0xe036,
//  419       0x18c1, 0x0948, 0x3bd3, 0x2a5a, 0x5ee5, 0x4f6c, 0x7df7, 0x6c7e,
//  420       0xa50a, 0xb483, 0x8618, 0x9791, 0xe32e, 0xf2a7, 0xc03c, 0xd1b5,
//  421       0x2942, 0x38cb, 0x0a50, 0x1bd9, 0x6f66, 0x7eef, 0x4c74, 0x5dfd,
//  422       0xb58b, 0xa402, 0x9699, 0x8710, 0xf3af, 0xe226, 0xd0bd, 0xc134,
//  423       0x39c3, 0x284a, 0x1ad1, 0x0b58, 0x7fe7, 0x6e6e, 0x5cf5, 0x4d7c,
//  424       0xc60c, 0xd785, 0xe51e, 0xf497, 0x8028, 0x91a1, 0xa33a, 0xb2b3,
//  425       0x4a44, 0x5bcd, 0x6956, 0x78df, 0x0c60, 0x1de9, 0x2f72, 0x3efb,
//  426       0xd68d, 0xc704, 0xf59f, 0xe416, 0x90a9, 0x8120, 0xb3bb, 0xa232,
//  427       0x5ac5, 0x4b4c, 0x79d7, 0x685e, 0x1ce1, 0x0d68, 0x3ff3, 0x2e7a,
//  428       0xe70e, 0xf687, 0xc41c, 0xd595, 0xa12a, 0xb0a3, 0x8238, 0x93b1,
//  429       0x6b46, 0x7acf, 0x4854, 0x59dd, 0x2d62, 0x3ceb, 0x0e70, 0x1ff9,
//  430       0xf78f, 0xe606, 0xd49d, 0xc514, 0xb1ab, 0xa022, 0x92b9, 0x8330,
//  431       0x7bc7, 0x6a4e, 0x58d5, 0x495c, 0x3de3, 0x2c6a, 0x1ef1, 0x0f78
//  432    };
//  433 
//  434 
//  435  

        RSEG CODE:CODE:NOROOT(1)
//  436  void prov_uk_in(void)
prov_uk_in:
        CFI Block cfiBlock0 Using cfiCommon0
        CFI Function prov_uk_in
//  437    {        
//  438           unsigned char temp;
//  439           
//  440           uk_in_act_LCP++;
        LDI	R30, LOW(cnt_pap_tm_out)
        LDI	R31, (cnt_pap_tm_out) >> 8
        LDD	R16, Z+22
        INC	R16
        STD	Z+22, R16
//  441           if(uk_in_act_LCP>=LCP_ACT_VOL)uk_in_act_LCP=0;         
        LDD	R16, Z+22
        CPI	R16, 15
        BRCS	??prov_uk_in_0
        LDI	R16, 0
        STD	Z+22, R16
//  442           if(uk_out_act_LCP==0)temp=LCP_ACT_VOL-1;else temp=uk_out_act_LCP-1;
??prov_uk_in_0:
        LDD	R16, Z+23
        TST	R16
        BRNE	??prov_uk_in_1
        LDI	R16, 14
        RJMP	??prov_uk_in_2
??prov_uk_in_1:
        DEC	R16
//  443        //   if(uk_in_act_LCP==temp){write_log_info(ST_ERROR,ERR3);lock_it();}//ďĺđĺďîëíĺíčĺ áóôĺđŕ
//  444          if(uk_in_act_LCP==temp)event_modem=EVM_PPP_ERR;//ďĺđĺďîëíĺíčĺ áóôĺđŕ
??prov_uk_in_2:
        LDD	R17, Z+22
        CP	R17, R16
        BRNE	??prov_uk_in_3
        LDI	R16, 5
        STS	event_modem, R16
//  445     }  
??prov_uk_in_3:
        RET
        CFI EndBlock cfiBlock0
//  446    
//  447    

        RSEG CODE:CODE:NOROOT(1)
//  448    void prov_uk_in_ipcp(void)
prov_uk_in_ipcp:
        CFI Block cfiBlock1 Using cfiCommon0
        CFI Function prov_uk_in_ipcp
//  449    {        
//  450           unsigned char temp;
//  451           
//  452           uk_in_act_IPCP++;
        LDI	R30, LOW(cnt_pap_tm_out)
        LDI	R31, (cnt_pap_tm_out) >> 8
        LDD	R16, Z+24
        INC	R16
        STD	Z+24, R16
//  453           if(uk_in_act_IPCP>=IPCP_ACT_VOL)uk_in_act_IPCP=0;         
        LDD	R16, Z+24
        CPI	R16, 10
        BRCS	??prov_uk_in_ipcp_0
        LDI	R16, 0
        STD	Z+24, R16
//  454           if(uk_out_act_IPCP==0)temp=IPCP_ACT_VOL-1;else temp=uk_out_act_IPCP-1;
??prov_uk_in_ipcp_0:
        LDD	R16, Z+25
        TST	R16
        BRNE	??prov_uk_in_ipcp_1
        LDI	R16, 9
        RJMP	??prov_uk_in_ipcp_2
??prov_uk_in_ipcp_1:
        DEC	R16
//  455         //  if(uk_in_act_IPCP==temp){write_log_info(ST_ERROR,ERR4);lock_it();}//ďĺđĺďîëíĺíčĺ áóôĺđŕ
//  456           if(uk_in_act_IPCP==temp)event_modem=EVM_PPP_ERR;//ďĺđĺďîëíĺíčĺ áóôĺđŕ
??prov_uk_in_ipcp_2:
        LDD	R17, Z+24
        CP	R17, R16
        BRNE	??prov_uk_in_ipcp_3
        LDI	R16, 5
        STS	event_modem, R16
//  457          
//  458     }   
??prov_uk_in_ipcp_3:
        RET
        CFI EndBlock cfiBlock1
//  459  
//  460  
//  461  
//  462  

        RSEG CODE:CODE:NOROOT(1)
//  463 unsigned int pppfcs16(unsigned int fcs,unsigned char *cp,unsigned int len)
pppfcs16:
        CFI Block cfiBlock2 Using cfiCommon0
        CFI Function pppfcs16
//  464 
//  465    {
        RJMP	??pppfcs16_0
//  466 
//  467        while (len--)
//  468            fcs=(fcs >> 8) ^ fcstab[(fcs ^ *cp++) & 0xff];
??pppfcs16_1:
        MOVW	R3:R2, R17:R16
        LDI	R22, LOW(fcstab)
        LDI	R23, (fcstab) >> 8
        MOVW	R31:R30, R19:R18
        LD	R0, Z+
        MOVW	R19:R18, R31:R30
        MOV	R30, R0
        EOR	R30, R2
        LDI	R31, 0
        LSL	R30
        ROL	R31
        ADD	R22, R30
        ADC	R23, R31
        MOVW	R31:R30, R23:R22
        LPM	R16, Z+
        LPM	R17, Z
        EOR	R16, R3
??pppfcs16_0:
        MOVW	R23:R22, R21:R20
        SUBI	R20, 1
        SBCI	R21, 0
        OR	R22, R23
        BRNE	??pppfcs16_1
//  469        return (fcs);
        RET
        CFI EndBlock cfiBlock2
//  470    }
//  471 
//  472 

        RSEG CODE:CODE:NOROOT(1)
//  473 void run_lcp_act(void)
run_lcp_act:
        CFI Block cfiBlock3 Using cfiCommon0
        CFI Function run_lcp_act
//  474       {  
        FUNCALL run_lcp_act, pppfcs16
        LOCFRAME CSTACK, 6, STACK
        LOCFRAME RSTACK, 2, STACK
        FUNCALL run_lcp_act, check_cts
        LOCFRAME CSTACK, 6, STACK
        LOCFRAME RSTACK, 2, STACK
        FUNCALL run_lcp_act, pppfcs16
        LOCFRAME CSTACK, 6, STACK
        LOCFRAME RSTACK, 2, STACK
        FUNCALL run_lcp_act, check_cts
        LOCFRAME CSTACK, 6, STACK
        LOCFRAME RSTACK, 2, STACK
        FUNCALL run_lcp_act, pppfcs16
        LOCFRAME CSTACK, 6, STACK
        LOCFRAME RSTACK, 2, STACK
        FUNCALL run_lcp_act, check_cts
        LOCFRAME CSTACK, 6, STACK
        LOCFRAME RSTACK, 2, STACK
        FUNCALL run_lcp_act, pppfcs16
        LOCFRAME CSTACK, 6, STACK
        LOCFRAME RSTACK, 2, STACK
        FUNCALL run_lcp_act, check_cts
        LOCFRAME CSTACK, 6, STACK
        LOCFRAME RSTACK, 2, STACK
        CALL	?PROLOGUE4_L09
        CFI R27 Frame(CFA_Y, -1)
        CFI R26 Frame(CFA_Y, -2)
        CFI R25 Frame(CFA_Y, -3)
        CFI R24 Frame(CFA_Y, -4)
        CFI CFA_Y Y+4
        SBIW	R29:R28, 2
        CFI CFA_Y Y+6
//  475        unsigned char i;
//  476        
//  477        union
//  478      {
//  479       unsigned char bytes[2]; 
//  480       unsigned int word;
//  481      }temp;
//  482       
//  483        
//  484        switch (LCP_act_buf[uk_out_act_LCP])
        LDI	R16, LOW(cnt_pap_tm_out)
        LDI	R17, (cnt_pap_tm_out) >> 8
        MOVW	R31:R30, R17:R16
        LDD	R20, Z+29
        LDI	R18, LOW(cnt_lcp_tm_out)
        LDI	R19, (cnt_lcp_tm_out) >> 8
        LDI	R26, LOW(buf_tx_232)
        LDI	R27, (buf_tx_232) >> 8
        LDD	R22, Z+23
        LDI	R23, 0
        MOVW	R31:R30, R23:R22
        SUBI	R30, LOW((-(fl_lcp1) & 0xFFFF))
        SBCI	R31, (-(fl_lcp1) & 0xFFFF) >> 8
        LDD	R21, Z+2
        SUBI	R21, 0
        BREQ	??run_lcp_act_0
        DEC	R21
        BREQ	??run_lcp_act_1
        SUBI	R21, 3
        BREQ	??run_lcp_act_2
        SUBI	R21, 2
        BREQ	??run_lcp_act_3
        DEC	R21
        BRNE	$+2+2
        RJMP	??run_lcp_act_4
        DEC	R21
        BRNE	$+2+2
        RJMP	??run_lcp_act_5
        RJMP	??run_lcp_act_6
//  485           {
//  486            case TLU:    
//  487                    
//  488                 fl_pap.up=1;
??run_lcp_act_0:
        MOVW	R31:R30, R17:R16
        LDD	R18, Z+5
        ORI	R18, 0x10
        STD	Z+5, R18
//  489                 fl_lcp.act_lcp_end=0;
//  490                 PAP_state=START_ST;
        LDI	R18, 1
        STD	Z+8, R18
//  491                 layer_PPP=LAYER_PAP;      
        LDI	R18, 2
        STS	layer_PPP, R18
//  492                 fl_lcp.act_lcp_end=1;
??run_lcp_act_7:
        LDD	R16, Z+2
        ORI	R16, 0x01
        STD	Z+2, R16
        RJMP	??run_lcp_act_6
//  493               break;
//  494            case TLD:  
//  495                 fl_lcp.act_lcp_end=0;
//  496                 layer_PPP=LAYER_LCP;  
??run_lcp_act_1:
        LDI	R18, 1
        STS	layer_PPP, R18
//  497                 fl_lcp.act_lcp_end=1; 
        MOVW	R31:R30, R17:R16
        RJMP	??run_lcp_act_7
//  498                 break;
//  499            
//  500            case IRC:                   
//  501                 fl_lcp.act_lcp_end=0;
//  502                 cnt_lcp_tm_out=VOL_LCP_TM_OUT; 
??run_lcp_act_2:
        LDI	R20, 184
        LDI	R21, 11
        MOVW	R31:R30, R19:R18
        ST	Z, R20
        STD	Z+1, R21
//  503               //  cnt_rst_lcp=vol_cnt_rst_lcp;
//  504                 fl_lcp.lcp_tm_out_en=1; 
//  505                 fl_lcp.act_lcp_end=1; 
        MOVW	R31:R30, R17:R16
        LDD	R16, Z+2
        ORI	R16, 0x03
        STD	Z+2, R16
        RJMP	??run_lcp_act_6
//  506                      
//  507                 break;
//  508            
//  509            case SCR:    
//  510 
//  511                                             
//  512                  fl_lcp.act_lcp_end=0;
??run_lcp_act_3:
        MOVW	R31:R30, R17:R16
        LDD	R18, Z+2
        ANDI	R18, 0xFE
        STD	Z+2, R18
//  513                  buf_tx_232[0]=0x7e; 
        LDI	R18, 126
        ST	X, R18
//  514                  buf_tx_232[1]=0xff;
        LDI	R18, 255
        MOVW	R31:R30, R27:R26
        STD	Z+1, R18
//  515                  buf_tx_232[2]=0x03;
        LDI	R18, 3
        STD	Z+2, R18
//  516                  buf_tx_232[3]=0xc0;
        LDI	R18, 192
        STD	Z+3, R18
//  517                  buf_tx_232[4]=0x21;
        LDI	R18, 33
        STD	Z+4, R18
//  518                  
//  519                  buf_tx_232[5]=CONF_REQ; 
        LDI	R18, 1
        STD	Z+5, R18
//  520                  buf_tx_232[6]=i_scr_lcp;   
        MOVW	R31:R30, R17:R16
        LDD	R16, Z+28
        MOVW	R31:R30, R27:R26
        STD	Z+6, R16
//  521                  
//  522                  buf_tx_232[7]=0; 
        STD	Z+7, R23
//  523                  buf_tx_232[8]=0x0e;
        LDI	R16, 14
        STD	Z+8, R16
//  524                  
//  525                  buf_tx_232[9]=2; 
        LDI	R16, 2
        STD	Z+9, R16
//  526                  buf_tx_232[10]=6;
        LDI	R16, 6
        STD	Z+10, R16
//  527                 
//  528                  buf_tx_232[11]=0; 
        STD	Z+11, R23
//  529                  buf_tx_232[12]=0x0a; 
        LDI	R16, 10
        STD	Z+12, R16
//  530                 // buf_tx_232[12]=0; 
//  531                  buf_tx_232[13]=0;
        STD	Z+13, R23
//  532                  buf_tx_232[14]=0;
        STD	Z+14, R23
//  533                 
//  534               
//  535                 
//  536                  
//  537                  buf_tx_232[15]=7;
        LDI	R16, 7
        STD	Z+15, R16
//  538                  buf_tx_232[16]=2;
        LDI	R16, 2
        STD	Z+16, R16
//  539                  
//  540                  buf_tx_232[17]=8;
        LDI	R16, 8
        STD	Z+17, R16
//  541                  buf_tx_232[18]=2;
        LDI	R16, 2
        STD	Z+18, R16
//  542                  
//  543                  temp.word=pppfcs16(PPPINITFCS16,&buf_tx_232[1],buf_tx_232[8]+4) ^ 0xffff;                
        LDI	R20, 18
        LDI	R21, 0
        MOVW	R19:R18, R27:R26
        SUBI	R18, 255
        SBCI	R19, 255
        LDI	R16, 255
        LDI	R17, 255
        RCALL	pppfcs16
        LDI	R18, 255
        LDI	R19, 255
        EOR	R18, R16
        EOR	R19, R17
        ST	Y, R18
        STD	Y+1, R19
//  544                  buf_tx_232[19]=temp.bytes[0];
        LD	R16, Y
        MOVW	R31:R30, R27:R26
        STD	Z+19, R16
//  545                  buf_tx_232[20]=temp.bytes[1];
        LDD	R16, Y+1
        STD	Z+20, R16
//  546                  
//  547                  buf_tx_232[21]=0x7e; 
        LDI	R16, 126
        STD	Z+21, R16
//  548                  
//  549                 
//  550                  count_tx_ppp=0;
        LDI	R16, 0
        LDI	R17, 0
        LDI	R30, LOW(count_tx_ppp)
        LDI	R31, (count_tx_ppp) >> 8
        ST	Z, R16
        STD	Z+1, R16
//  551                  vol_tx_ppp=buf_tx_232[8]+8;               
        LDI	R16, 22
        LDI	R30, LOW(vol_tx_ppp)
        LDI	R31, (vol_tx_ppp) >> 8
        ST	Z, R16
        STD	Z+1, R17
//  552                 
//  553                  UCSR0A=UCSR0A | TXC; 
        LDS	R16, 192
        ORI	R16, 0x40
        STS	192, R16
//  554                  UCSR0B=UCSR0B | TXEN;
        LDS	R16, 193
        ORI	R16, 0x08
        STS	193, R16
//  555                  UCSR0B=UCSR0B | TXCIE;
        LDS	R16, 193
        ORI	R16, 0x40
        STS	193, R16
//  556                  if(check_cts()==1) return;  
        CALL	check_cts
        CPI	R16, 1
        BRNE	$+2+2
        RJMP	??run_lcp_act_6
//  557                  S2_RD;
        SBI	0x08, 0x00
        CBI	0x08, 0x01
//  558                  UDR0=buf_tx_232[0];
        LD	R16, X
        STS	198, R16
//  559                  if(Regim==RG_DEBAG) UDR3=buf_tx_232[0];
        LDS	R16, Regim
        CPI	R16, 1
        BREQ	$+2+2
        RJMP	??run_lcp_act_6
??run_lcp_act_8:
        LD	R16, X
        STS	310, R16
        RJMP	??run_lcp_act_6
//  560                  
//  561                 
//  562                     
//  563                 break;
//  564            
//  565           case SCA: 
//  566                  fl_lcp.act_lcp_end=0;
??run_lcp_act_4:
        MOVW	R31:R30, R17:R16
        LDD	R21, Z+2
        ANDI	R21, 0xFE
        STD	Z+2, R21
//  567                  buf_tx_232[0]=0x7e; 
        LDI	R21, 126
        ST	X, R21
//  568                  buf_tx_232[1]=0xff;
        LDI	R21, 255
        MOVW	R31:R30, R27:R26
        STD	Z+1, R21
//  569                  buf_tx_232[2]=0x03;
        LDI	R21, 3
        STD	Z+2, R21
//  570                  buf_tx_232[3]=0xc0;
        LDI	R21, 192
        STD	Z+3, R21
//  571                  buf_tx_232[4]=0x21;  
        LDI	R21, 33
        STD	Z+4, R21
//  572                  
//  573                  buf_tx_232[5]=CONF_ACK;
        LDI	R21, 2
        STD	Z+5, R21
//  574                  buf_tx_232[6]=i_scan_lcp;
        STD	Z+6, R20
//  575                  
//  576                  temp.word=ln_ack_lcp+4;
        MOVW	R31:R30, R17:R16
        LDD	R17, Z+59
        MOV	R24, R17
        LDI	R25, 0
        MOVW	R21:R20, R25:R24
        SUBI	R20, 252
        SBCI	R21, 255
        ST	Y, R20
        STD	Y+1, R21
//  577                  buf_tx_232[7]=temp.bytes[1]; 
        LDD	R16, Y+1
        MOVW	R31:R30, R27:R26
        STD	Z+7, R16
//  578                  buf_tx_232[8]=temp.bytes[0];
        LD	R16, Y
        STD	Z+8, R16
//  579                 
//  580                  temp.word=temp.word+4;         
        LD	R20, Y
        LDD	R21, Y+1
        SUBI	R20, 252
        SBCI	R21, 255
        ST	Y, R20
        STD	Y+1, R21
//  581                  vol_tx_ppp=temp.word+4;  
        LD	R20, Y
        LDD	R21, Y+1
        SUBI	R20, 252
        SBCI	R21, 255
        LDI	R30, LOW(vol_tx_ppp)
        LDI	R31, (vol_tx_ppp) >> 8
        ST	Z, R20
        STD	Z+1, R21
//  582                    
//  583                  for(i=0;i<ln_ack_lcp;i++)buf_tx_232[9+i]=buf_ack_opt_lcp[i];
        LDI	R16, 0
        RJMP	??run_lcp_act_9
??run_lcp_act_10:
        MOV	R20, R16
        MOVW	R31:R30, R19:R18
        ADD	R30, R20
        ADC	R31, R23
        LDD	R22, Z+5
        MOVW	R31:R30, R27:R26
        ADD	R30, R20
        ADC	R31, R23
        STD	Z+9, R22
        INC	R16
??run_lcp_act_9:
        CP	R16, R17
        BRCS	??run_lcp_act_10
//  584                  
//  585                  temp.word=pppfcs16(PPPINITFCS16,&buf_tx_232[1],temp.word) ^ 0xffff;                  
??run_lcp_act_11:
        LD	R20, Y
        LDD	R21, Y+1
        MOVW	R19:R18, R27:R26
        SUBI	R18, 255
        SBCI	R19, 255
        LDI	R16, 255
        LDI	R17, 255
        RCALL	pppfcs16
        LDI	R18, 255
        LDI	R19, 255
        EOR	R18, R16
        EOR	R19, R17
        ST	Y, R18
        STD	Y+1, R19
//  586                  buf_tx_232[9+ln_ack_lcp]=temp.bytes[0];
        MOVW	R31:R30, R27:R26
        ADD	R30, R24
        ADC	R31, R25
        LD	R18, Y
        STD	Z+9, R18
//  587                  buf_tx_232[10+ln_ack_lcp]=temp.bytes[1];
        LDD	R18, Y+1
        STD	Z+10, R18
//  588                  buf_tx_232[11+ln_ack_lcp]=0x7e;
        LDI	R16, 126
        STD	Z+11, R16
//  589                  
//  590                  count_tx_ppp=0;                             
        LDI	R30, LOW(count_tx_ppp)
        LDI	R31, (count_tx_ppp) >> 8
        ST	Z, R25
        STD	Z+1, R25
//  591                  UCSR0A=UCSR0A | TXC;                            
        LDS	R16, 192
        ORI	R16, 0x40
        STS	192, R16
//  592                  UCSR0B=UCSR0B | TXEN;
        LDS	R16, 193
        ORI	R16, 0x08
        STS	193, R16
//  593                  UCSR0B=UCSR0B | TXCIE;
        LDS	R16, 193
        ORI	R16, 0x40
        STS	193, R16
//  594                  if(check_cts()==1) return;   
        CALL	check_cts
        CPI	R16, 1
        BRNE	$+2+2
        RJMP	??run_lcp_act_6
//  595                  S2_RD;
        SBI	0x08, 0x00
        CBI	0x08, 0x01
//  596                  UDR0=buf_tx_232[0]; 
        LD	R16, X
        STS	198, R16
//  597                  if(Regim==RG_DEBAG) UDR3=buf_tx_232[0];
        LDS	R16, Regim
        CPI	R16, 1
        BREQ	$+2+2
        RJMP	??run_lcp_act_6
        RJMP	??run_lcp_act_8
//  598                
//  599                  
//  600                 
//  601                   
//  602                 break;
//  603            case SCN:  
//  604 
//  605                  fl_lcp.act_lcp_end=0;
??run_lcp_act_5:
        MOVW	R31:R30, R17:R16
        LDD	R21, Z+2
        ANDI	R21, 0xFE
        STD	Z+2, R21
//  606                  buf_tx_232[0]=0x7e; 
        LDI	R21, 126
        ST	X, R21
//  607                  buf_tx_232[1]=0xff;
        LDI	R21, 255
        MOVW	R31:R30, R27:R26
        STD	Z+1, R21
//  608                  buf_tx_232[2]=0x03;
        LDI	R21, 3
        STD	Z+2, R21
//  609                  buf_tx_232[3]=0xc0;
        LDI	R21, 192
        STD	Z+3, R21
//  610                  buf_tx_232[4]=0x21;   
        LDI	R21, 33
        STD	Z+4, R21
//  611                  
//  612                  if (fl_lcp2.nac_rej==0) 
        MOVW	R31:R30, R19:R18
        LDD	R21, Z+2
        SBRC	R21, 0
        RJMP	??run_lcp_act_12
//  613                      {
//  614                      buf_tx_232[5]=CONF_NAK;                       
        LDI	R16, 3
        MOVW	R31:R30, R27:R26
        STD	Z+5, R16
//  615                      
//  616                      buf_tx_232[6]=i_scan_lcp;
        STD	Z+6, R20
//  617                  
//  618                      temp.word=ln_nak_lcp+4;
        MOVW	R31:R30, R19:R18
        ADIW	R31:R30, 62
        LD	R17, Z
        MOV	R24, R17
        LDI	R25, 0
        MOVW	R21:R20, R25:R24
        SUBI	R20, 252
        SBCI	R21, 255
        ST	Y, R20
        STD	Y+1, R21
//  619                      buf_tx_232[7]=temp.bytes[1]; 
        LDD	R16, Y+1
        MOVW	R31:R30, R27:R26
        STD	Z+7, R16
//  620                      buf_tx_232[8]=temp.bytes[0];
        LD	R16, Y
        STD	Z+8, R16
//  621                     
//  622                     temp.word=temp.word+4;         
        LD	R20, Y
        LDD	R21, Y+1
        SUBI	R20, 252
        SBCI	R21, 255
        ST	Y, R20
        STD	Y+1, R21
//  623                     vol_tx_ppp=temp.word+4;
        LD	R20, Y
        LDD	R21, Y+1
        SUBI	R20, 252
        SBCI	R21, 255
        LDI	R30, LOW(vol_tx_ppp)
        LDI	R31, (vol_tx_ppp) >> 8
        ST	Z, R20
        STD	Z+1, R21
//  624                      
//  625 
//  626                       
//  627                      for(i=0;i<ln_nak_lcp;i++)buf_tx_232[9+i]=buf_nak_opt_lcp[i];
        LDI	R16, 0
        RJMP	??run_lcp_act_13
??run_lcp_act_14:
        MOV	R20, R16
        MOVW	R31:R30, R19:R18
        ADD	R30, R20
        ADC	R31, R23
        LDD	R22, Z+33
        MOVW	R31:R30, R27:R26
        ADD	R30, R20
        ADC	R31, R23
        STD	Z+9, R22
        INC	R16
??run_lcp_act_13:
        CP	R16, R17
        BRCS	??run_lcp_act_14
//  628                      temp.word=pppfcs16(PPPINITFCS16,&buf_tx_232[1],temp.word) ^ 0xffff;                  
        RJMP	??run_lcp_act_11
//  629                      buf_tx_232[9+ln_nak_lcp]=temp.bytes[0];
//  630                      buf_tx_232[10+ln_nak_lcp]=temp.bytes[1];
//  631                      buf_tx_232[11+ln_nak_lcp]=0x7e;
//  632                      
//  633                      count_tx_ppp=0;                             
//  634                      UCSR0A=UCSR0A | TXC;                            
//  635                      UCSR0B=UCSR0B | TXEN;
//  636                      UCSR0B=UCSR0B | TXCIE;
//  637                      if(check_cts()==1) return;   
//  638                      S2_RD;
//  639                      UDR0=buf_tx_232[0];
//  640                      if(Regim==RG_DEBAG) UDR3=buf_tx_232[0];
//  641                      
//  642                      }  
//  643                      else
//  644                      { 
//  645                      fl_lcp2.nac_rej=0;
??run_lcp_act_12:
        LDD	R18, Z+2
        ANDI	R18, 0xFE
        STD	Z+2, R18
//  646                      buf_tx_232[5]=CONF_REJ;  
        LDI	R18, 4
        MOVW	R31:R30, R27:R26
        STD	Z+5, R18
//  647                      buf_tx_232[6]=i_scan_lcp;
        STD	Z+6, R20
//  648                  
//  649                      temp.word=ln_rej_lcp+4;
        MOVW	R31:R30, R17:R16
        LDD	R17, Z+58
        MOV	R24, R17
        LDI	R25, 0
        MOVW	R19:R18, R25:R24
        SUBI	R18, 252
        SBCI	R19, 255
        ST	Y, R18
        STD	Y+1, R19
//  650                      buf_tx_232[7]=temp.bytes[1]; 
        LDD	R16, Y+1
        MOVW	R31:R30, R27:R26
        STD	Z+7, R16
//  651                      buf_tx_232[8]=temp.bytes[0];
        LD	R16, Y
        STD	Z+8, R16
//  652                                  
//  653                     temp.word=temp.word+4;         
        LD	R18, Y
        LDD	R19, Y+1
        SUBI	R18, 252
        SBCI	R19, 255
        ST	Y, R18
        STD	Y+1, R19
//  654                     vol_tx_ppp=temp.word+4; 
        LD	R18, Y
        LDD	R19, Y+1
        SUBI	R18, 252
        SBCI	R19, 255
        LDI	R30, LOW(vol_tx_ppp)
        LDI	R31, (vol_tx_ppp) >> 8
        ST	Z, R18
        STD	Z+1, R19
//  655                      
//  656                      for(i=0;i<ln_rej_lcp;i++)buf_tx_232[9+i]=buf_rej_opt_lcp[i];
        LDI	R16, 0
        RJMP	??run_lcp_act_15
??run_lcp_act_16:
        MOV	R18, R16
        LDI	R19, 0
        MOVW	R31:R30, R19:R18
        SUBI	R30, LOW((-(fl_lcp1) & 0xFFFF))
        SBCI	R31, (-(fl_lcp1) & 0xFFFF) >> 8
        LDD	R20, Z+17
        MOVW	R31:R30, R27:R26
        ADD	R30, R18
        ADC	R31, R23
        STD	Z+9, R20
        INC	R16
??run_lcp_act_15:
        CP	R16, R17
        BRCS	??run_lcp_act_16
//  657                      temp.word=pppfcs16(PPPINITFCS16,&buf_tx_232[1],temp.word) ^ 0xffff;                  
        LD	R20, Y
        LDD	R21, Y+1
        MOVW	R19:R18, R27:R26
        SUBI	R18, 255
        SBCI	R19, 255
        LDI	R16, 255
        LDI	R17, 255
        RCALL	pppfcs16
        LDI	R18, 255
        LDI	R19, 255
        EOR	R18, R16
        EOR	R19, R17
        ST	Y, R18
        STD	Y+1, R19
//  658                      buf_tx_232[9+ln_rej_lcp]=temp.bytes[0];
        MOVW	R31:R30, R27:R26
        ADD	R30, R24
        ADC	R31, R25
        LD	R18, Y
        STD	Z+9, R18
//  659                      buf_tx_232[10+ln_rej_lcp]=temp.bytes[1];                     
        LDD	R18, Y+1
        STD	Z+10, R18
//  660                      buf_tx_232[11+ln_rej_lcp]=0x7e;                     
        LDI	R16, 126
        STD	Z+11, R16
//  661                     
//  662                      count_tx_ppp=0;                             
        LDI	R30, LOW(count_tx_ppp)
        LDI	R31, (count_tx_ppp) >> 8
        ST	Z, R25
        STD	Z+1, R25
//  663                      UCSR0A=UCSR0A | TXC;                            
        LDS	R16, 192
        ORI	R16, 0x40
        STS	192, R16
//  664                      UCSR0B=UCSR0B | TXEN;
        LDS	R16, 193
        ORI	R16, 0x08
        STS	193, R16
//  665                      UCSR0B=UCSR0B | TXCIE;
        LDS	R16, 193
        ORI	R16, 0x40
        STS	193, R16
//  666                      if(check_cts()==1) return;   
        CALL	check_cts
        CPI	R16, 1
        BREQ	??run_lcp_act_6
//  667                      S2_RD;
        SBI	0x08, 0x00
        CBI	0x08, 0x01
//  668                      UDR0=buf_tx_232[0]; 
        LD	R16, X
        STS	198, R16
//  669                      if(Regim==RG_DEBAG) UDR3=buf_tx_232[0];
        LDS	R16, Regim
        CPI	R16, 1
        BRNE	$+2+2
        RJMP	??run_lcp_act_8
??run_lcp_act_6:
        ADIW	R29:R28, 2
        CFI CFA_Y Y+4
        LDI	R30, 4
        JMP	?EPILOGUE_B4_L09
        CFI EndBlock cfiBlock3
//  670                      }   
//  671                      
//  672 
//  673                      
//  674                 break; 
//  675            
//  676           }                  
//  677       }
//  678 
//  679 
//  680 

        RSEG CODE:CODE:NOROOT(1)
//  681 void monitor_act_PAP(void)
monitor_act_PAP:
        CFI Block cfiBlock4 Using cfiCommon0
        CFI Function monitor_act_PAP
//  682       {  
        FUNCALL monitor_act_PAP, RdFromFleshToArr
        LOCFRAME CSTACK, 7, STACK
        LOCFRAME RSTACK, 2, STACK
        FUNCALL monitor_act_PAP, RdFromFleshToArr
        LOCFRAME CSTACK, 7, STACK
        LOCFRAME RSTACK, 2, STACK
        FUNCALL monitor_act_PAP, RdFromFleshToArr
        LOCFRAME CSTACK, 7, STACK
        LOCFRAME RSTACK, 2, STACK
        FUNCALL monitor_act_PAP, RdFromFleshToArr
        LOCFRAME CSTACK, 7, STACK
        LOCFRAME RSTACK, 2, STACK
        FUNCALL monitor_act_PAP, RdFromFleshToArr
        LOCFRAME CSTACK, 7, STACK
        LOCFRAME RSTACK, 2, STACK
        FUNCALL monitor_act_PAP, RdFromFleshToArr
        LOCFRAME CSTACK, 7, STACK
        LOCFRAME RSTACK, 2, STACK
        FUNCALL monitor_act_PAP, RdFromFleshToArr
        LOCFRAME CSTACK, 7, STACK
        LOCFRAME RSTACK, 2, STACK
        FUNCALL monitor_act_PAP, RdFromFleshToArr
        LOCFRAME CSTACK, 7, STACK
        LOCFRAME RSTACK, 2, STACK
        FUNCALL monitor_act_PAP, RdFromFleshToArr
        LOCFRAME CSTACK, 7, STACK
        LOCFRAME RSTACK, 2, STACK
        FUNCALL monitor_act_PAP, RdFromFleshToArr
        LOCFRAME CSTACK, 7, STACK
        LOCFRAME RSTACK, 2, STACK
        FUNCALL monitor_act_PAP, pppfcs16
        LOCFRAME CSTACK, 7, STACK
        LOCFRAME RSTACK, 2, STACK
        FUNCALL monitor_act_PAP, check_cts
        LOCFRAME CSTACK, 7, STACK
        LOCFRAME RSTACK, 2, STACK
        CALL	?PROLOGUE4_L09
        CFI R27 Frame(CFA_Y, -1)
        CFI R26 Frame(CFA_Y, -2)
        CFI R25 Frame(CFA_Y, -3)
        CFI R24 Frame(CFA_Y, -4)
        CFI CFA_Y Y+4
        SBIW	R29:R28, 3
        CFI CFA_Y Y+7
//  683        
//  684       // unsigned char i;
//  685        unsigned char temp1;
//  686        
//  687        union
//  688      {
//  689       unsigned char bytes[2]; 
//  690       unsigned int word;
//  691      }temp;
//  692       
//  693        
//  694        if((pap_act_buf==SCR)&&(fl_pap.act_pap_end==1)&&(fl_lcp.act_lcp_end==1)&&(fl_ipcp.act_ipcp_end==1)&&(fl_ip.act_ip_end==1))
        LDI	R16, LOW(cnt_pap_tm_out)
        LDI	R17, (cnt_pap_tm_out) >> 8
        MOVW	R31:R30, R17:R16
        LDD	R18, Z+7
        CPI	R18, 6
        BREQ	$+2+2
        RJMP	??monitor_act_PAP_0
        LDD	R18, Z+5
        ANDI	R18, 0x01
        LDD	R19, Z+2
        ANDI	R19, 0x01
        AND	R19, R18
        LDD	R18, Z+3
        ANDI	R18, 0x01
        AND	R18, R19
        LDD	R19, Z+4
        ANDI	R19, 0x01
        AND	R19, R18
        BRNE	$+2+2
        RJMP	??monitor_act_PAP_0
//  695         {        
//  696                
//  697                 
//  698                 
//  699                  pap_act_buf=NO_EVENT;
        LDI	R18, 255
        STD	Z+7, R18
//  700                   
//  701                  fl_pap.act_pap_end=0;
        LDD	R18, Z+5
        ANDI	R18, 0xFE
        STD	Z+5, R18
//  702                  buf_tx_232[0]=0x7e; 
        LDI	R26, LOW(buf_tx_232)
        LDI	R27, (buf_tx_232) >> 8
        LDI	R18, 126
        ST	X, R18
//  703                  buf_tx_232[1]=0xc0;
        LDI	R18, 192
        MOVW	R31:R30, R27:R26
        STD	Z+1, R18
//  704                  buf_tx_232[2]=0x23;
        LDI	R18, 35
        STD	Z+2, R18
//  705                  
//  706                  buf_tx_232[3]=CONF_REQ; 
        LDI	R18, 1
        STD	Z+3, R18
//  707                  
//  708                  i_scr_pap++;
        MOVW	R31:R30, R17:R16
        LDD	R18, Z+32
        INC	R18
        STD	Z+32, R18
//  709                  buf_tx_232[4]=i_scr_pap;         
        LDD	R16, Z+32
        MOVW	R31:R30, R27:R26
        STD	Z+4, R16
//  710                  
//  711         
//  712                  if(simka==SIM_BASE)
        LDS	R16, simka
        TST	R16
        LDI	R20, 1
        LDI	R21, 0
        MOVW	R19:R18, R29:R28
        BREQ	$+2+2
        RJMP	??monitor_act_PAP_1
//  713                  {
//  714                  RdFromFleshToArr(A_C_GPRS,&temp1,1);// ęîëč÷ĺńňâî áŕéň APN                 
        SUBI	R18, 254
        SBCI	R19, 255
        LDI	R16, 20
        LDI	R17, 0
        CALL	RdFromFleshToArr
//  715                  RdFromFleshToArr(A_C_GPRS+temp1+1,&temp.bytes[0],1);// ęîëč÷ĺńňâî ëîăčíŕ
        LDI	R20, 1
        LDI	R21, 0
        MOVW	R19:R18, R29:R28
        LDD	R16, Y+2
        LDI	R17, 0
        SUBI	R16, 235
        SBCI	R17, 255
        CALL	RdFromFleshToArr
//  716                  RdFromFleshToArr(A_C_GPRS+temp1+temp.bytes[0]+2,&temp.bytes[1],1);// ęîëč÷ĺńňâî ďŕđîë˙
        LDI	R20, 1
        LDI	R21, 0
        MOVW	R19:R18, R29:R28
        SUBI	R18, 255
        SBCI	R19, 255
        LDD	R22, Y+2
        LD	R16, Y
        LDI	R17, 0
        ADD	R16, R22
        ADC	R17, R21
        SUBI	R16, 234
        SBCI	R17, 255
        CALL	RdFromFleshToArr
//  717                  
//  718               
//  719                  if((temp.bytes[0]==0)||(temp.bytes[0]>MAX_VOL_US_NAME)) buf_tx_232[7]=0;
        LD	R16, Y
        TST	R16
        BREQ	??monitor_act_PAP_2
        LD	R16, Y
        CPI	R16, 13
        BRCS	??monitor_act_PAP_3
??monitor_act_PAP_2:
        LDI	R16, 0
        MOVW	R31:R30, R27:R26
        STD	Z+7, R16
        RJMP	??monitor_act_PAP_4
//  720                     else {buf_tx_232[7]=temp.bytes[0];RdFromFleshToArr(A_C_GPRS+temp1+2,&buf_tx_232[8],temp.bytes[0]);}
??monitor_act_PAP_3:
        LD	R16, Y
        MOVW	R31:R30, R27:R26
        STD	Z+7, R16
        LD	R20, Y
        LDI	R21, 0
        MOVW	R19:R18, R27:R26
        SUBI	R18, 248
        SBCI	R19, 255
        LDD	R16, Y+2
        LDI	R17, 0
        SUBI	R16, 234
        SBCI	R17, 255
        CALL	RdFromFleshToArr
//  721                
//  722                  if((temp.bytes[1]==0)||(temp.bytes[1]>MAX_VOL_PSW)) buf_tx_232[8+buf_tx_232[7]]=0;
??monitor_act_PAP_4:
        LDD	R20, Y+1
        TST	R20
        BREQ	??monitor_act_PAP_5
        CPI	R20, 13
        BRCS	??monitor_act_PAP_6
??monitor_act_PAP_5:
        LDI	R16, 0
        MOVW	R31:R30, R27:R26
        LDD	R18, Z+7
        ADD	R30, R18
        ADC	R31, R16
        STD	Z+8, R16
        RJMP	??monitor_act_PAP_7
//  723                     else {buf_tx_232[8+buf_tx_232[7]]=temp.bytes[1];RdFromFleshToArr(A_C_GPRS+temp1+temp.bytes[0]+3,&buf_tx_232[9+buf_tx_232[7]],temp.bytes[1]);}
??monitor_act_PAP_6:
        MOVW	R31:R30, R27:R26
        LDD	R16, Z+7
        LDI	R17, 0
        ADD	R30, R16
        ADC	R31, R17
        STD	Z+8, R20
        LDI	R21, 0
        MOVW	R31:R30, R27:R26
        LDD	R16, Z+7
        MOVW	R19:R18, R27:R26
        ADD	R18, R16
        ADC	R19, R21
        SUBI	R18, 247
        SBCI	R19, 255
        LDD	R22, Y+2
        LD	R16, Y
        ADD	R16, R22
        ADC	R17, R21
        SUBI	R16, 233
        RJMP	??monitor_act_PAP_8
//  724                  }
//  725                  else   //!!!!!!!!!!dobavka
//  726                  {
//  727                  RdFromFleshToArr(A_CR_GPRS,&temp1,1);// ęîëč÷ĺńňâî áŕéň APN                 
??monitor_act_PAP_1:
        SUBI	R18, 254
        SBCI	R19, 255
        LDI	R16, 80
        LDI	R17, 0
        CALL	RdFromFleshToArr
//  728                  RdFromFleshToArr(A_CR_GPRS+temp1+1,&temp.bytes[0],1);// ęîëč÷ĺńňâî ëîăčíŕ
        LDI	R20, 1
        LDI	R21, 0
        MOVW	R19:R18, R29:R28
        LDD	R16, Y+2
        LDI	R17, 0
        SUBI	R16, 175
        SBCI	R17, 255
        CALL	RdFromFleshToArr
//  729                  RdFromFleshToArr(A_CR_GPRS+temp1+temp.bytes[0]+2,&temp.bytes[1],1);// ęîëč÷ĺńňâî ďŕđîë˙
        LDI	R20, 1
        LDI	R21, 0
        MOVW	R19:R18, R29:R28
        SUBI	R18, 255
        SBCI	R19, 255
        LDD	R22, Y+2
        LD	R16, Y
        LDI	R17, 0
        ADD	R16, R22
        ADC	R17, R21
        SUBI	R16, 174
        SBCI	R17, 255
        CALL	RdFromFleshToArr
//  730                  
//  731               
//  732                  if((temp.bytes[0]==0)||(temp.bytes[0]>MAX_VOL_US_NAME)) buf_tx_232[7]=0;
        LD	R16, Y
        TST	R16
        BREQ	??monitor_act_PAP_9
        LD	R16, Y
        CPI	R16, 13
        BRCS	??monitor_act_PAP_10
??monitor_act_PAP_9:
        LDI	R16, 0
        MOVW	R31:R30, R27:R26
        STD	Z+7, R16
        RJMP	??monitor_act_PAP_11
//  733                     else {buf_tx_232[7]=temp.bytes[0];RdFromFleshToArr(A_CR_GPRS+temp1+2,&buf_tx_232[8],temp.bytes[0]);}
??monitor_act_PAP_10:
        LD	R16, Y
        MOVW	R31:R30, R27:R26
        STD	Z+7, R16
        LD	R20, Y
        LDI	R21, 0
        MOVW	R19:R18, R27:R26
        SUBI	R18, 248
        SBCI	R19, 255
        LDD	R16, Y+2
        LDI	R17, 0
        SUBI	R16, 174
        SBCI	R17, 255
        CALL	RdFromFleshToArr
//  734                
//  735                  if((temp.bytes[1]==0)||(temp.bytes[1]>MAX_VOL_PSW)) buf_tx_232[8+buf_tx_232[7]]=0;
??monitor_act_PAP_11:
        LDD	R20, Y+1
        TST	R20
        BRNE	$+2+2
        RJMP	??monitor_act_PAP_5
        CPI	R20, 13
        BRCS	$+2+2
        RJMP	??monitor_act_PAP_5
//  736                     else {buf_tx_232[8+buf_tx_232[7]]=temp.bytes[1];RdFromFleshToArr(A_CR_GPRS+temp1+temp.bytes[0]+3,&buf_tx_232[9+buf_tx_232[7]],temp.bytes[1]);}
        MOVW	R31:R30, R27:R26
        LDD	R16, Z+7
        LDI	R17, 0
        ADD	R30, R16
        ADC	R31, R17
        STD	Z+8, R20
        LDI	R21, 0
        MOVW	R31:R30, R27:R26
        LDD	R16, Z+7
        MOVW	R19:R18, R27:R26
        ADD	R18, R16
        ADC	R19, R21
        SUBI	R18, 247
        SBCI	R19, 255
        LDD	R22, Y+2
        LD	R16, Y
        ADD	R16, R22
        ADC	R17, R21
        SUBI	R16, 173
??monitor_act_PAP_8:
        SBCI	R17, 255
        CALL	RdFromFleshToArr
??monitor_act_PAP_7:
        MOVW	R31:R30, R27:R26
        LDD	R16, Z+7
        LDI	R17, 0
        ADD	R30, R16
        ADC	R31, R17
        LDD	R24, Z+8
        LDI	R25, 0
        ADD	R24, R16
        ADC	R25, R17
        ADIW	R25:R24, 6
        ST	Y, R24
        STD	Y+1, R25
//  737                  }
//  738                   //!!!!!!!!!!dobavka
//  739                    
//  740                  
//  741                  
//  742                  temp.word=6+buf_tx_232[7]+buf_tx_232[8+buf_tx_232[7]];
//  743                  
//  744                 
//  745                   
//  746                  buf_tx_232[5]=temp.bytes[1]; 
        LDD	R16, Y+1
        MOVW	R31:R30, R27:R26
        STD	Z+5, R16
//  747                  buf_tx_232[6]=temp.bytes[0]; 
        LD	R16, Y
        STD	Z+6, R16
//  748                  
//  749                  temp.word=temp.word+2;
        LD	R16, Y
        LDD	R17, Y+1
        SUBI	R16, 254
        SBCI	R17, 255
        ST	Y, R16
        STD	Y+1, R17
//  750                  vol_tx_ppp=temp.word+4;
        LD	R24, Y
        LDD	R25, Y+1
        ADIW	R25:R24, 4
        LDI	R30, LOW(vol_tx_ppp)
        LDI	R31, (vol_tx_ppp) >> 8
        ST	Z, R24
        STD	Z+1, R25
//  751                   
//  752                  
//  753                  
//  754                   
//  755 
//  756                  temp.word=pppfcs16(PPPINITFCS16,&buf_tx_232[1],temp.word) ^ 0xffff;                  
        LD	R20, Y
        LDD	R21, Y+1
        MOVW	R19:R18, R27:R26
        SUBI	R18, 255
        SBCI	R19, 255
        LDI	R16, 255
        LDI	R17, 255
        RCALL	pppfcs16
        LDI	R18, 255
        LDI	R19, 255
        EOR	R18, R16
        EOR	R19, R17
        ST	Y, R18
        STD	Y+1, R19
//  757                  buf_tx_232[vol_tx_ppp-3]=temp.bytes[0];
        LDI	R30, LOW(vol_tx_ppp)
        LDI	R31, (vol_tx_ppp) >> 8
        LD	R16, Z
        LDD	R17, Z+1
        MOVW	R31:R30, R27:R26
        ADD	R30, R16
        ADC	R31, R17
        SBIW	R31:R30, 3
        LD	R18, Y
        ST	Z, R18
//  758                  buf_tx_232[vol_tx_ppp-2]=temp.bytes[1];
        LDD	R18, Y+1
        STD	Z+1, R18
//  759                  
//  760                  buf_tx_232[vol_tx_ppp-1]=0x7e; 
        LDI	R16, 126
        STD	Z+2, R16
//  761                  
//  762                 
//  763 
//  764       
//  765                  count_tx_ppp=0;                            
        LDI	R16, 0
        LDI	R30, LOW(count_tx_ppp)
        LDI	R31, (count_tx_ppp) >> 8
        ST	Z, R16
        STD	Z+1, R16
//  766                  UCSR0A=UCSR0A | TXC;                            
        LDS	R16, 192
        ORI	R16, 0x40
        STS	192, R16
//  767                  UCSR0B=UCSR0B | TXEN;
        LDS	R16, 193
        ORI	R16, 0x08
        STS	193, R16
//  768                  UCSR0B=UCSR0B | TXCIE;
        LDS	R16, 193
        ORI	R16, 0x40
        STS	193, R16
//  769                  if(check_cts()==1) return;    
        CALL	check_cts
        CPI	R16, 1
        BREQ	??monitor_act_PAP_0
//  770                  
//  771                  S2_RD;
        SBI	0x08, 0x00
        CBI	0x08, 0x01
//  772                  UDR0=buf_tx_232[0];  
        LD	R16, X
        STS	198, R16
//  773                  if(Regim==RG_DEBAG) UDR3=buf_tx_232[0];
        LDS	R16, Regim
        CPI	R16, 1
        BRNE	??monitor_act_PAP_0
        LD	R16, X
        STS	310, R16
??monitor_act_PAP_0:
        ADIW	R29:R28, 3
        CFI CFA_Y Y+4
        LDI	R30, 4
        JMP	?EPILOGUE_B4_L09
        CFI EndBlock cfiBlock4
//  774                 
//  775 
//  776         }
//  777       }
//  778 
//  779 
//  780 
//  781 

        RSEG CODE:CODE:NOROOT(1)
//  782 void monitor_event_PAP(void)
monitor_event_PAP:
        CFI Block cfiBlock5 Using cfiCommon0
        CFI Function monitor_event_PAP
//  783     {
//  784      if (fl_pap.up==1)      //UP
        LDI	R30, LOW(cnt_pap_tm_out)
        LDI	R31, (cnt_pap_tm_out) >> 8
        LDD	R17, Z+8
        LDD	R16, Z+5
        SBRS	R16, 4
        RJMP	??monitor_event_PAP_0
//  785          {
//  786          fl_pap.up=0; 
        LDD	R16, Z+5
        ANDI	R16, 0xEF
        STD	Z+5, R16
//  787            switch(PAP_state)
        SUBI	R17, 1
        BRNE	??monitor_event_PAP_1
//  788                {
//  789                 case START_ST:                                                                
//  790                             vol_cnt_rst_pap=VOL_PAP_MC;  
        LDI	R16, 5
        STD	Z+27, R16
//  791                            
//  792                            // IRC;   //!!!!!!!!!!!!!!111                                            
//  793                             cnt_pap_tm_out=VOL_PAP_TM_OUT; 
        LDI	R16, 184
        LDI	R17, 11
        ST	Z, R16
        STD	Z+1, R17
//  794                            // cnt_rst_pap=vol_cnt_rst_pap;
//  795                             fl_pap.pap_tm_out_en=1; 
//  796                             fl_pap.act_pap_end=1;  
        LDD	R16, Z+5
        ORI	R16, 0x03
        STD	Z+5, R16
//  797                             pap_act_buf=SCR;                    
        RJMP	??monitor_event_PAP_2
//  798                             PAP_state=SEND_REQ; 
//  799                 return;
//  800                }
//  801             
//  802          return;
//  803          }
//  804      
//  805     
//  806      
//  807      if(fl_pap.t0_pl==1)        //TO_PL
??monitor_event_PAP_0:
        LDD	R16, Z+5
        SBRS	R16, 2
        RJMP	??monitor_event_PAP_3
//  808         {
//  809          fl_pap.t0_pl=0; 
        LDD	R16, Z+5
        ANDI	R16, 0xFB
        STD	Z+5, R16
//  810          switch(PAP_state)
        SUBI	R17, 6
        BRNE	??monitor_event_PAP_1
//  811                {                     
//  812                                
//  813                 case SEND_REQ:
//  814                            // vol_cnt_rst_pap=VOL_PAP_MC;                                                    
//  815                             cnt_pap_tm_out=VOL_PAP_TM_OUT; 
        LDI	R16, 184
        LDI	R17, 11
        ST	Z, R16
        STD	Z+1, R17
//  816                             pap_act_buf=SCR;               
??monitor_event_PAP_2:
        LDI	R16, 6
        STD	Z+7, R16
//  817                             PAP_state=SEND_REQ;
        STD	Z+8, R16
//  818                             return;
        RET
//  819                                                                             
//  820                } 
//  821             
//  822          return;
//  823         }       
//  824        
//  825          
//  826      
//  827      switch (PAP_event)
??monitor_event_PAP_3:
        LDD	R16, Z+9
        SUBI	R16, 8
        BRNE	??monitor_event_PAP_1
//  828         {
//  829        
//  830                
//  831        
//  832         case RCA:  
//  833            
//  834         
//  835             PAP_event=NO_EVENT;
        LDI	R16, 255
        STD	Z+9, R16
//  836             switch(PAP_state)
        SUBI	R17, 6
        BRNE	??monitor_event_PAP_1
//  837                {                     
//  838 
//  839               
//  840                 case SEND_REQ:                                                                                                     
//  841                             //TLU;  
//  842                             
//  843                             fl_pap.up=0;  
        LDD	R16, Z+5
        ANDI	R16, 0xEF
        STD	Z+5, R16
//  844                             PAP_state=OPEN_ST; 
        LDI	R16, 9
        STD	Z+8, R16
//  845                             IPCP_state=START_ST;  
        LDI	R16, 1
        STD	Z+10, R16
//  846                             fl_ipcp.act_ipcp_end=1; 
        LDD	R16, Z+3
        ORI	R16, 0x01
        STD	Z+3, R16
//  847                             fl_ipcp1.up=1;
//  848                             fl_ipcp1.down=0;
        LDD	R16, Z+6
        ANDI	R16, 0xFD
        ORI	R16, 0x01
        STD	Z+6, R16
//  849                             layer_PPP=LAYER_IPCP;
        LDI	R16, 3
        STS	layer_PPP, R16
//  850 
//  851                             return;
??monitor_event_PAP_1:
        RET
        CFI EndBlock cfiBlock5
//  852                                                                                  
//  853                }  
//  854              return; 
//  855         
//  856     
//  857     }
//  858  }
//  859 
//  860 
//  861 
//  862 

        RSEG CODE:CODE:NOROOT(1)
//  863 void monitor_act_LCP(void)
monitor_act_LCP:
        CFI Block cfiBlock6 Using cfiCommon0
        CFI Function monitor_act_LCP
//  864       {  
        FUNCALL monitor_act_LCP, run_lcp_act
        LOCFRAME CSTACK, 2, STACK
        LOCFRAME RSTACK, 2, STACK
        ST	-Y, R27
        CFI R27 Frame(CFA_Y, -1)
        CFI CFA_Y Y+1
        ST	-Y, R26
        CFI R26 Frame(CFA_Y, -2)
        CFI CFA_Y Y+2
//  865        
//  866        if((uk_in_act_LCP!=uk_out_act_LCP)&&(fl_lcp.act_lcp_end==1)&&(fl_pap.act_pap_end==1)&&(fl_ipcp.act_ipcp_end==1)&&(fl_ip.act_ip_end==1))
        LDI	R26, LOW(cnt_pap_tm_out)
        LDI	R27, (cnt_pap_tm_out) >> 8
        ADIW	R27:R26, 22
        LD	R16, X
        SBIW	R27:R26, 22
        ADIW	R27:R26, 23
        LD	R17, X
        SBIW	R27:R26, 23
        CP	R16, R17
        BREQ	??monitor_act_LCP_0
        ADIW	R27:R26, 2
        LD	R16, X
        SBIW	R27:R26, 2
        ANDI	R16, 0x01
        ADIW	R27:R26, 5
        LD	R17, X
        SBIW	R27:R26, 5
        ANDI	R17, 0x01
        AND	R17, R16
        ADIW	R27:R26, 3
        LD	R16, X
        SBIW	R27:R26, 3
        ANDI	R16, 0x01
        AND	R16, R17
        ADIW	R27:R26, 4
        LD	R17, X
        SBIW	R27:R26, 4
        ANDI	R17, 0x01
        AND	R17, R16
        BREQ	??monitor_act_LCP_0
//  867         {   
//  868         run_lcp_act();
        RCALL	run_lcp_act
//  869         uk_out_act_LCP++;  
        ADIW	R27:R26, 23
        LD	R16, X
        INC	R16
        ST	X, R16
        SBIW	R27:R26, 23
//  870         if (uk_out_act_LCP>=LCP_ACT_VOL)uk_out_act_LCP=0; 
        ADIW	R27:R26, 23
        LD	R16, X
        SBIW	R27:R26, 23
        CPI	R16, 15
        BRCS	??monitor_act_LCP_0
        LDI	R16, 0
        ADIW	R27:R26, 23
        ST	X, R16
//  871         }
//  872       }
??monitor_act_LCP_0:
        LD	R26, Y+
        CFI R26 SameValue
        CFI CFA_Y Y+1
        LD	R27, Y+
        CFI R27 SameValue
        CFI CFA_Y Y+0
        RET
        CFI EndBlock cfiBlock6
//  873  
//  874  
//  875   

        RSEG CODE:CODE:NOROOT(1)
//  876 void monitor_event_LCP(void)
monitor_event_LCP:
        CFI Block cfiBlock7 Using cfiCommon0
        CFI Function monitor_event_LCP
//  877     {
        FUNCALL monitor_event_LCP, prov_uk_in
        LOCFRAME CSTACK, 4, STACK
        LOCFRAME RSTACK, 2, STACK
        FUNCALL monitor_event_LCP, prov_uk_in
        LOCFRAME CSTACK, 4, STACK
        LOCFRAME RSTACK, 2, STACK
        FUNCALL monitor_event_LCP, prov_uk_in
        LOCFRAME CSTACK, 4, STACK
        LOCFRAME RSTACK, 2, STACK
        FUNCALL monitor_event_LCP, prov_uk_in
        LOCFRAME CSTACK, 4, STACK
        LOCFRAME RSTACK, 2, STACK
        FUNCALL monitor_event_LCP, prov_uk_in
        LOCFRAME CSTACK, 4, STACK
        LOCFRAME RSTACK, 2, STACK
        FUNCALL monitor_event_LCP, prov_uk_in
        LOCFRAME CSTACK, 4, STACK
        LOCFRAME RSTACK, 2, STACK
        FUNCALL monitor_event_LCP, prov_uk_in
        LOCFRAME CSTACK, 4, STACK
        LOCFRAME RSTACK, 2, STACK
        FUNCALL monitor_event_LCP, prov_uk_in
        LOCFRAME CSTACK, 4, STACK
        LOCFRAME RSTACK, 2, STACK
        FUNCALL monitor_event_LCP, prov_uk_in
        LOCFRAME CSTACK, 4, STACK
        LOCFRAME RSTACK, 2, STACK
        FUNCALL monitor_event_LCP, prov_uk_in
        LOCFRAME CSTACK, 4, STACK
        LOCFRAME RSTACK, 2, STACK
        FUNCALL monitor_event_LCP, prov_uk_in
        LOCFRAME CSTACK, 4, STACK
        LOCFRAME RSTACK, 2, STACK
        FUNCALL monitor_event_LCP, prov_uk_in
        LOCFRAME CSTACK, 4, STACK
        LOCFRAME RSTACK, 2, STACK
        FUNCALL monitor_event_LCP, prov_uk_in
        LOCFRAME CSTACK, 4, STACK
        LOCFRAME RSTACK, 2, STACK
        FUNCALL monitor_event_LCP, prov_uk_in
        LOCFRAME CSTACK, 4, STACK
        LOCFRAME RSTACK, 2, STACK
        FUNCALL monitor_event_LCP, prov_uk_in
        LOCFRAME CSTACK, 4, STACK
        LOCFRAME RSTACK, 2, STACK
        FUNCALL monitor_event_LCP, prov_uk_in
        LOCFRAME CSTACK, 4, STACK
        LOCFRAME RSTACK, 2, STACK
        FUNCALL monitor_event_LCP, prov_uk_in
        LOCFRAME CSTACK, 4, STACK
        LOCFRAME RSTACK, 2, STACK
        FUNCALL monitor_event_LCP, prov_uk_in
        LOCFRAME CSTACK, 4, STACK
        LOCFRAME RSTACK, 2, STACK
        FUNCALL monitor_event_LCP, prov_uk_in
        LOCFRAME CSTACK, 4, STACK
        LOCFRAME RSTACK, 2, STACK
        FUNCALL monitor_event_LCP, prov_uk_in
        LOCFRAME CSTACK, 4, STACK
        LOCFRAME RSTACK, 2, STACK
        FUNCALL monitor_event_LCP, prov_uk_in
        LOCFRAME CSTACK, 4, STACK
        LOCFRAME RSTACK, 2, STACK
        FUNCALL monitor_event_LCP, prov_uk_in
        LOCFRAME CSTACK, 4, STACK
        LOCFRAME RSTACK, 2, STACK
        CALL	?PROLOGUE4_L09
        CFI R27 Frame(CFA_Y, -1)
        CFI R26 Frame(CFA_Y, -2)
        CFI R25 Frame(CFA_Y, -3)
        CFI R24 Frame(CFA_Y, -4)
        CFI CFA_Y Y+4
//  878      if (fl_lcp1.up==1)      //UP
        LDI	R26, LOW(fl_lcp1)
        LDI	R27, (fl_lcp1) >> 8
        MOVW	R31:R30, R27:R26
        LDD	R18, Z+1
        LDI	R24, LOW(cnt_pap_tm_out)
        LDI	R25, (cnt_pap_tm_out) >> 8
        LD	R16, X
        SBRS	R16, 0
        RJMP	??monitor_event_LCP_0
//  879          {  
//  880          
//  881           
//  882          fl_lcp1.up=0; 
        LD	R16, X
        ANDI	R16, 0xFE
        ST	X, R16
//  883            switch(LCP_state)
        SUBI	R18, 1
        BRNE	??monitor_event_LCP_1
//  884                {
//  885                 case START_ST:                                                                
//  886 
//  887                            // vol_cnt_rst_lcp=VOL_LCP_MC;  
//  888                             LCP_act_buf[uk_in_act_LCP]=IRC;  
??monitor_event_LCP_2:
        LDI	R16, 4
??monitor_event_LCP_3:
        MOVW	R31:R30, R25:R24
        LDD	R18, Z+22
        LDI	R19, 0
        MOVW	R31:R30, R27:R26
        ADD	R30, R18
        ADC	R31, R19
        STD	Z+2, R16
//  889                             prov_uk_in();                    
        RCALL	prov_uk_in
//  890                             LCP_act_buf[uk_in_act_LCP]=SCR;  
        LDI	R16, 6
??monitor_event_LCP_4:
        MOVW	R31:R30, R25:R24
        LDD	R18, Z+22
        LDI	R19, 0
        MOVW	R31:R30, R27:R26
        ADD	R30, R18
        ADC	R31, R19
        STD	Z+2, R16
//  891                             prov_uk_in();                    
        RCALL	prov_uk_in
//  892                             LCP_state=SEND_REQ;  
        LDI	R16, 6
??monitor_event_LCP_5:
        MOVW	R31:R30, R27:R26
        STD	Z+1, R16
//  893                             
//  894              
//  895                            
//  896                 return;
??monitor_event_LCP_1:
        LDI	R30, 4
        JMP	?EPILOGUE_B4_L09
//  897                }
//  898             
//  899          return;
//  900          }
//  901      
//  902     
//  903      
//  904      if(fl_lcp.t0_pl==1)        //TO_PL
??monitor_event_LCP_0:
        MOVW	R31:R30, R25:R24
        LDD	R20, Z+22
        LDI	R21, 0
        MOVW	R17:R16, R27:R26
        ADD	R16, R20
        ADC	R17, R21
        LDD	R19, Z+2
        SBRS	R19, 2
        RJMP	??monitor_event_LCP_6
//  905         {
//  906          fl_lcp.t0_pl=0; 
        LDD	R19, Z+2
        ANDI	R19, 0xFB
        STD	Z+2, R19
//  907          switch(LCP_state)
        SUBI	R18, 6
        BREQ	??monitor_event_LCP_2
        DEC	R18
        BREQ	??monitor_event_LCP_2
        DEC	R18
        BRNE	??monitor_event_LCP_1
//  908                {                     
//  909                                
//  910                 
//  911                 case SEND_REQ:
//  912                           //  vol_cnt_rst_lcp=VOL_LCP_MC;                                                    
//  913                             LCP_act_buf[uk_in_act_LCP]=IRC;  
//  914                             prov_uk_in();
//  915                             LCP_act_buf[uk_in_act_LCP]=SCR;  
//  916                             prov_uk_in();                 
//  917                             LCP_state=SEND_REQ;
//  918                             return;
//  919                 case REC_ACK:      
//  920                            // vol_cnt_rst_lcp=VOL_LCP_MC;                                              
//  921                             LCP_act_buf[uk_in_act_LCP]=IRC;  
//  922                             prov_uk_in();
//  923                             LCP_act_buf[uk_in_act_LCP]=SCR;  
//  924                             prov_uk_in();                 
//  925                             LCP_state=SEND_REQ;
//  926                             return;
//  927                 case SEND_ACK: 
//  928                            // vol_cnt_rst_lcp=VOL_LCP_MC;                                                   
//  929                             LCP_act_buf[uk_in_act_LCP]=IRC;  
??monitor_event_LCP_7:
        LDI	R18, 4
        MOVW	R31:R30, R17:R16
        STD	Z+2, R18
//  930                             prov_uk_in();
        RCALL	prov_uk_in
//  931                             LCP_act_buf[uk_in_act_LCP]=SCR;  
        LDI	R16, 6
??monitor_event_LCP_8:
        MOVW	R31:R30, R25:R24
        LDD	R18, Z+22
        LDI	R19, 0
        MOVW	R31:R30, R27:R26
        ADD	R30, R18
        ADC	R31, R19
        STD	Z+2, R16
//  932                             prov_uk_in();                 
        RCALL	prov_uk_in
//  933                             LCP_state=SEND_ACK;
        LDI	R16, 8
        RJMP	??monitor_event_LCP_5
//  934                             return;                                                              
//  935                } 
//  936             
//  937          return;
//  938         }  
//  939      
//  940      switch (LCP_event)
??monitor_event_LCP_6:
        LDI	R30, LOW(cnt_lcp_tm_out)
        LDI	R31, (cnt_lcp_tm_out) >> 8
        LDD	R19, Z+3
        SUBI	R19, 6
        BREQ	??monitor_event_LCP_9
        DEC	R19
        BREQ	??monitor_event_LCP_10
        DEC	R19
        BRNE	$+2+2
        RJMP	??monitor_event_LCP_11
        DEC	R19
        BRNE	$+2+2
        RJMP	??monitor_event_LCP_12
        RJMP	??monitor_event_LCP_1
//  941         {
//  942         case RCR_PL:  
//  943             LCP_event=NO_EVENT; 
??monitor_event_LCP_9:
        LDI	R19, 255
        STD	Z+3, R19
//  944             switch(LCP_state)
        SUBI	R18, 6
        BREQ	??monitor_event_LCP_13
        DEC	R18
        BREQ	??monitor_event_LCP_14
        DEC	R18
        BREQ	??monitor_event_LCP_13
        DEC	R18
        BREQ	??monitor_event_LCP_15
        RJMP	??monitor_event_LCP_1
//  945                {                     
//  946                
//  947                 case SEND_REQ:                                                                
//  948                             LCP_act_buf[uk_in_act_LCP]=SCA;  
??monitor_event_LCP_13:
        LDI	R16, 7
        RJMP	??monitor_event_LCP_8
//  949                             prov_uk_in();                 
//  950                             LCP_state=SEND_ACK;   
//  951 
//  952                             return;
//  953                 case REC_ACK:
//  954         
//  955                             LCP_act_buf[uk_in_act_LCP]=SCA;  
??monitor_event_LCP_14:
        LDI	R18, 7
??monitor_event_LCP_16:
        MOVW	R31:R30, R17:R16
        STD	Z+2, R18
//  956                             prov_uk_in();       
        RCALL	prov_uk_in
//  957                             LCP_act_buf[uk_in_act_LCP]=TLU;  
        LDI	R16, 0
        MOVW	R31:R30, R25:R24
        LDD	R18, Z+22
        MOVW	R31:R30, R27:R26
        ADD	R30, R18
        ADC	R31, R16
        STD	Z+2, R16
//  958                             prov_uk_in();          
        RCALL	prov_uk_in
//  959                             LCP_state=OPEN_ST;  
        LDI	R16, 9
        RJMP	??monitor_event_LCP_5
//  960                            
//  961                             return;
//  962                 case SEND_ACK:                                                                
//  963                             LCP_act_buf[uk_in_act_LCP]=SCA;  
//  964                             prov_uk_in();                 
//  965                             LCP_state=SEND_ACK; 
//  966                    
//  967                             return;
//  968                 case OPEN_ST:      
//  969                             LCP_act_buf[uk_in_act_LCP]=TLD;  
??monitor_event_LCP_15:
        LDI	R18, 1
        MOVW	R31:R30, R17:R16
        STD	Z+2, R18
//  970                             prov_uk_in();
        RCALL	prov_uk_in
//  971                             LCP_act_buf[uk_in_act_LCP]=IRC;  
        LDI	R16, 4
        MOVW	R31:R30, R25:R24
        LDD	R18, Z+22
        LDI	R19, 0
        MOVW	R31:R30, R27:R26
        ADD	R30, R18
        ADC	R31, R19
        STD	Z+2, R16
//  972                             prov_uk_in();
        RCALL	prov_uk_in
//  973                         //    vol_cnt_rst_lcp=VOL_LCP_MC; 
//  974                             LCP_act_buf[uk_in_act_LCP]=SCR;  
        LDI	R16, 6
        MOVW	R31:R30, R25:R24
        LDD	R18, Z+22
        LDI	R19, 0
        MOVW	R31:R30, R27:R26
        ADD	R30, R18
        ADC	R31, R19
        STD	Z+2, R16
//  975                             prov_uk_in();                                                                
        RCALL	prov_uk_in
        RJMP	??monitor_event_LCP_13
//  976                             LCP_act_buf[uk_in_act_LCP]=SCA;  
//  977                             prov_uk_in();                 
//  978                             LCP_state=SEND_ACK; 
//  979                    
//  980                             return;                                                                    
//  981                }  
//  982              return; 
//  983         case RCR_MI: 
//  984             
//  985             LCP_event=NO_EVENT;
??monitor_event_LCP_10:
        LDI	R19, 255
        STD	Z+3, R19
//  986             switch(LCP_state)
        SUBI	R18, 6
        BREQ	??monitor_event_LCP_17
        DEC	R18
        BREQ	??monitor_event_LCP_18
        DEC	R18
        BREQ	??monitor_event_LCP_17
        DEC	R18
        BREQ	??monitor_event_LCP_19
        RJMP	??monitor_event_LCP_1
//  987                {                     
//  988 
//  989                
//  990                 case SEND_REQ:                                                                
//  991                             
//  992                        
//  993                             LCP_act_buf[uk_in_act_LCP]=SCN;  
??monitor_event_LCP_17:
        LDI	R16, 8
        RJMP	??monitor_event_LCP_4
//  994                             prov_uk_in();                 
//  995                             LCP_state=SEND_REQ;    
//  996                      
//  997                             return;
//  998                 case REC_ACK:                                                                
//  999                             LCP_act_buf[uk_in_act_LCP]=SCN;  
??monitor_event_LCP_18:
        LDI	R18, 8
??monitor_event_LCP_20:
        MOVW	R31:R30, R17:R16
        STD	Z+2, R18
// 1000                             prov_uk_in();              
        RCALL	prov_uk_in
// 1001                             LCP_state=REC_ACK;     
        LDI	R16, 7
        RJMP	??monitor_event_LCP_5
// 1002                            
// 1003                             return;
// 1004                 case SEND_ACK:                                                                
// 1005                             LCP_act_buf[uk_in_act_LCP]=SCN;  
// 1006                             prov_uk_in();                 
// 1007                             LCP_state=SEND_REQ;
// 1008                          
// 1009                             return;
// 1010                 case OPEN_ST:      
// 1011                             LCP_act_buf[uk_in_act_LCP]=TLD;  
??monitor_event_LCP_19:
        LDI	R18, 1
        MOVW	R31:R30, R17:R16
        STD	Z+2, R18
// 1012                             prov_uk_in();   
        RCALL	prov_uk_in
// 1013                        //     vol_cnt_rst_lcp=VOL_LCP_MC;
// 1014                             LCP_act_buf[uk_in_act_LCP]=IRC;  
        LDI	R16, 4
        MOVW	R31:R30, R25:R24
        LDD	R18, Z+22
        LDI	R19, 0
        MOVW	R31:R30, R27:R26
        ADD	R30, R18
        ADC	R31, R19
        STD	Z+2, R16
// 1015                             prov_uk_in();
        RCALL	prov_uk_in
// 1016                             LCP_act_buf[uk_in_act_LCP]=SCR;  
        LDI	R16, 6
        MOVW	R31:R30, R25:R24
        LDD	R18, Z+22
        LDI	R19, 0
        MOVW	R31:R30, R27:R26
        ADD	R30, R18
        ADC	R31, R19
        STD	Z+2, R16
// 1017                             prov_uk_in();                                                                
        RCALL	prov_uk_in
        RJMP	??monitor_event_LCP_17
// 1018                             LCP_act_buf[uk_in_act_LCP]=SCN;  
// 1019                             prov_uk_in();                 
// 1020                             LCP_state=SEND_REQ;
// 1021                           
// 1022                             return;                                                                    
// 1023                }  
// 1024              return; 
// 1025         case RCA:    
// 1026  
// 1027   
// 1028   
// 1029             LCP_event=NO_EVENT;
??monitor_event_LCP_11:
        LDI	R19, 255
        STD	Z+3, R19
// 1030             switch(LCP_state)
        SUBI	R18, 6
        BREQ	??monitor_event_LCP_21
        DEC	R18
        BRNE	$+2+2
        RJMP	??monitor_event_LCP_2
        DEC	R18
        BREQ	??monitor_event_LCP_22
        DEC	R18
        BREQ	??monitor_event_LCP_23
        RJMP	??monitor_event_LCP_1
// 1031                {                     
// 1032                 
// 1033               
// 1034                 case SEND_REQ: 
// 1035                             
// 1036                           //  vol_cnt_rst_lcp=VOL_LCP_MC;  
// 1037                             LCP_act_buf[uk_in_act_LCP]=IRC;  
??monitor_event_LCP_21:
        LDI	R18, 4
        RJMP	??monitor_event_LCP_20
// 1038                             prov_uk_in();                                        
// 1039                             LCP_state=REC_ACK; 
// 1040                      
// 1041                             return;
// 1042                 case REC_ACK:       
// 1043                         //    vol_cnt_rst_lcp=VOL_LCP_MC;                                             
// 1044                             LCP_act_buf[uk_in_act_LCP]=IRC;  
// 1045                             prov_uk_in();
// 1046                             LCP_act_buf[uk_in_act_LCP]=SCR;  
// 1047                             prov_uk_in();                 
// 1048                             LCP_state=SEND_REQ;
// 1049                             return;
// 1050                 case SEND_ACK:                                                                
// 1051                          //   vol_cnt_rst_lcp=VOL_LCP_MC;  
// 1052                             LCP_act_buf[uk_in_act_LCP]=IRC;  
??monitor_event_LCP_22:
        LDI	R18, 4
        RJMP	??monitor_event_LCP_16
// 1053                             prov_uk_in();                                        
// 1054                             LCP_act_buf[uk_in_act_LCP]=TLU;  
// 1055                             prov_uk_in();
// 1056                             LCP_state=OPEN_ST;
// 1057 
// 1058                             return;
// 1059                 case OPEN_ST:
// 1060                         //    vol_cnt_rst_lcp=VOL_LCP_MC;
// 1061                             LCP_act_buf[uk_in_act_LCP]=IRC;  
??monitor_event_LCP_23:
        LDI	R18, 4
        MOVW	R31:R30, R17:R16
        STD	Z+2, R18
// 1062                             prov_uk_in();
        RCALL	prov_uk_in
// 1063                             LCP_act_buf[uk_in_act_LCP]=TLD;  
        LDI	R16, 1
        RJMP	??monitor_event_LCP_3
// 1064                             prov_uk_in();   
// 1065                             LCP_act_buf[uk_in_act_LCP]=SCR;  
// 1066                             prov_uk_in();                                                                               
// 1067                             LCP_state=SEND_REQ;
// 1068                          
// 1069                             return;                                                                    
// 1070                }  
// 1071              return; 
// 1072         case RCN: 
// 1073                 LCP_event=NO_EVENT;
??monitor_event_LCP_12:
        LDI	R19, 255
        STD	Z+3, R19
// 1074         switch(LCP_state)
        SUBI	R18, 6
        BRNE	$+2+2
        RJMP	??monitor_event_LCP_2
        DEC	R18
        BRNE	$+2+2
        RJMP	??monitor_event_LCP_2
        DEC	R18
        BRNE	$+2+2
        RJMP	??monitor_event_LCP_7
        DEC	R18
        BREQ	$+2+2
        RJMP	??monitor_event_LCP_1
// 1075                {                     
// 1076 
// 1077                 
// 1078                 case SEND_REQ:                                                                
// 1079                          //   vol_cnt_rst_lcp=VOL_LCP_MC;  
// 1080                             LCP_act_buf[uk_in_act_LCP]=IRC;  
// 1081                             prov_uk_in(); 
// 1082                             LCP_act_buf[uk_in_act_LCP]=SCR;  
// 1083                             prov_uk_in();                                       
// 1084                             LCP_state=SEND_REQ;
// 1085                           
// 1086                             return;
// 1087                 case REC_ACK:     
// 1088                         //    vol_cnt_rst_lcp=VOL_LCP_MC;                                               
// 1089                             LCP_act_buf[uk_in_act_LCP]=IRC;  
// 1090                             prov_uk_in();
// 1091                             LCP_act_buf[uk_in_act_LCP]=SCR;  
// 1092                             prov_uk_in();                 
// 1093                             LCP_state=SEND_REQ;
// 1094                           
// 1095                             return;
// 1096                 case SEND_ACK:                                                                
// 1097                         //    vol_cnt_rst_lcp=VOL_LCP_MC;  
// 1098                             LCP_act_buf[uk_in_act_LCP]=IRC;  
// 1099                             prov_uk_in();                                        
// 1100                             LCP_act_buf[uk_in_act_LCP]=SCR;  
// 1101                             prov_uk_in();
// 1102                             LCP_state=SEND_ACK;
// 1103                         
// 1104                             return;
// 1105                 case OPEN_ST:      
// 1106                             LCP_act_buf[uk_in_act_LCP]=TLD;  
        LDI	R18, 1
        MOVW	R31:R30, R17:R16
        STD	Z+2, R18
// 1107                             prov_uk_in(); 
        RCALL	prov_uk_in
        RJMP	??monitor_event_LCP_2
        CFI EndBlock cfiBlock7
// 1108                        //     vol_cnt_rst_lcp=VOL_LCP_MC;  
// 1109                             LCP_act_buf[uk_in_act_LCP]=IRC;  
// 1110                             prov_uk_in();
// 1111                             LCP_act_buf[uk_in_act_LCP]=SCR;  
// 1112                             prov_uk_in();                                                                               
// 1113                             LCP_state=SEND_REQ;
// 1114                       
// 1115                             return;                                                                    
// 1116                }  
// 1117                                       
// 1118         }
// 1119     
// 1120     }
// 1121   
// 1122   
// 1123   ////////////////ěîíčňîđű IPCP        
// 1124   

        RSEG CODE:CODE:NOROOT(1)
// 1125   void run_ipcp_act(void)
run_ipcp_act:
        CFI Block cfiBlock8 Using cfiCommon0
        CFI Function run_ipcp_act
// 1126       {  
        FUNCALL run_ipcp_act, clr_cntr_nat
        LOCFRAME CSTACK, 6, STACK
        LOCFRAME RSTACK, 2, STACK
        FUNCALL run_ipcp_act, pppfcs16
        LOCFRAME CSTACK, 6, STACK
        LOCFRAME RSTACK, 2, STACK
        FUNCALL run_ipcp_act, check_cts
        LOCFRAME CSTACK, 6, STACK
        LOCFRAME RSTACK, 2, STACK
        FUNCALL run_ipcp_act, pppfcs16
        LOCFRAME CSTACK, 6, STACK
        LOCFRAME RSTACK, 2, STACK
        FUNCALL run_ipcp_act, check_cts
        LOCFRAME CSTACK, 6, STACK
        LOCFRAME RSTACK, 2, STACK
        FUNCALL run_ipcp_act, pppfcs16
        LOCFRAME CSTACK, 6, STACK
        LOCFRAME RSTACK, 2, STACK
        FUNCALL run_ipcp_act, check_cts
        LOCFRAME CSTACK, 6, STACK
        LOCFRAME RSTACK, 2, STACK
        FUNCALL run_ipcp_act, pppfcs16
        LOCFRAME CSTACK, 6, STACK
        LOCFRAME RSTACK, 2, STACK
        FUNCALL run_ipcp_act, check_cts
        LOCFRAME CSTACK, 6, STACK
        LOCFRAME RSTACK, 2, STACK
        CALL	?PROLOGUE4_L09
        CFI R27 Frame(CFA_Y, -1)
        CFI R26 Frame(CFA_Y, -2)
        CFI R25 Frame(CFA_Y, -3)
        CFI R24 Frame(CFA_Y, -4)
        CFI CFA_Y Y+4
        SBIW	R29:R28, 2
        CFI CFA_Y Y+6
// 1127        unsigned char i;
// 1128        
// 1129        union
// 1130      {
// 1131       unsigned char bytes[2]; 
// 1132       unsigned int word;
// 1133      }temp;
// 1134       
// 1135        
// 1136        switch (IPCP_act_buf[uk_out_act_IPCP])
        LDI	R16, LOW(cnt_pap_tm_out)
        LDI	R17, (cnt_pap_tm_out) >> 8
        MOVW	R31:R30, R17:R16
        LDD	R20, Z+31
        LDI	R18, LOW(cnt_ipcp_tm_out)
        LDI	R19, (cnt_ipcp_tm_out) >> 8
        LDI	R26, LOW(buf_tx_232)
        LDI	R27, (buf_tx_232) >> 8
        LDD	R22, Z+25
        LDI	R23, 0
        ADD	R30, R22
        ADC	R31, R23
        LDD	R21, Z+12
        SUBI	R21, 0
        BREQ	??run_ipcp_act_0
        SUBI	R21, 4
        BREQ	??run_ipcp_act_1
        SUBI	R21, 2
        BRNE	$+2+2
        RJMP	??run_ipcp_act_2
        DEC	R21
        BRNE	$+2+2
        RJMP	??run_ipcp_act_3
        DEC	R21
        BRNE	$+2+2
        RJMP	??run_ipcp_act_4
        RJMP	??run_ipcp_act_5
// 1137           {
// 1138            case TLU:     
// 1139 
// 1140                 event_modem=EVM_PPP_OK;
??run_ipcp_act_0:
        LDI	R18, 4
        STS	event_modem, R18
// 1141  
// 1142                 layer_PPP=LAYER_IP;   
        STS	layer_PPP, R18
// 1143                 fl_ip.act_ip_end=1;   
        MOVW	R31:R30, R17:R16
        LDD	R18, Z+4
        ORI	R18, 0x01
        STD	Z+4, R18
// 1144                 fl_ipcp.act_ipcp_end=1; 
        LDD	R18, Z+3
        ORI	R18, 0x01
        STD	Z+3, R18
// 1145              
// 1146                   Control.link_waits=FALSE; 
        LDI	R26, LOW(Control)
        LDI	R27, (Control) >> 8
        MOVW	R31:R30, R27:R26
        STD	Z+1, R23
// 1147                   Control.link=FALSE;  
        STD	Z+2, R23
// 1148                   Control.nat=FALSE;
        STD	Z+3, R23
// 1149                 
// 1150                if(Control.vol_link!=0)fl_ip.ip_tm_cntr_en=1;
        LDD	R18, Z+8
        LDD	R19, Z+9
        OR	R18, R19
        BREQ	??run_ipcp_act_6
        MOVW	R31:R30, R17:R16
        LDD	R18, Z+4
        ORI	R18, 0x02
        STD	Z+4, R18
// 1151                if(Control.vol_nat!=0)fl_ip.ip_tm_nat_en=1;
??run_ipcp_act_6:
        MOVW	R31:R30, R27:R26
        LDD	R18, Z+10
        LDD	R19, Z+11
        OR	R18, R19
        BREQ	??run_ipcp_act_7
        MOVW	R31:R30, R17:R16
        LDD	R16, Z+4
        ORI	R16, 0x04
        STD	Z+4, R16
// 1152                Control.cnt_try=0;
??run_ipcp_act_7:
        MOVW	R31:R30, R27:R26
        STD	Z+14, R23
// 1153                Control.cnt_link=BEG_CNTR_LINK;
        LDI	R16, 10
        STD	Z+4, R16
        STD	Z+5, R23
// 1154                clr_cntr_nat();
        CALL	clr_cntr_nat
// 1155                
// 1156                Control.cnt_nat=BEG_CNTR_LINK-1; // ďóńňîé ďŕęĺň!!!!
        LDI	R16, 9
        LDI	R17, 0
        MOVW	R31:R30, R27:R26
        STD	Z+6, R16
        STD	Z+7, R17
        RJMP	??run_ipcp_act_5
// 1157                
// 1158               break;
// 1159            
// 1160           
// 1161          
// 1162            case IRC:                   
// 1163                 fl_ipcp.act_ipcp_end=0;
// 1164                 cnt_ipcp_tm_out=VOL_IPCP_TM_OUT; 
??run_ipcp_act_1:
        LDI	R20, 184
        LDI	R21, 11
        MOVW	R31:R30, R19:R18
        ST	Z, R20
        STD	Z+1, R21
// 1165                 cnt_rst_ipcp=vol_cnt_rst_ipcp;
        MOVW	R31:R30, R17:R16
        LDD	R20, Z+26
        MOVW	R31:R30, R19:R18
        STD	Z+3, R20
// 1166                 fl_ipcp.ipcp_tm_out_en=1; 
// 1167                 fl_ipcp.act_ipcp_end=1; 
        MOVW	R31:R30, R17:R16
        LDD	R16, Z+3
        ORI	R16, 0x03
        STD	Z+3, R16
        RJMP	??run_ipcp_act_5
// 1168                      
// 1169                 break;
// 1170            
// 1171            case SCR:    
// 1172 
// 1173                  fl_ipcp.act_ipcp_end=0;
??run_ipcp_act_2:
        MOVW	R31:R30, R17:R16
        LDD	R18, Z+3
        ANDI	R18, 0xFE
        STD	Z+3, R18
// 1174                  buf_tx_232[0]=0x7e;               
        LDI	R18, 126
        ST	X, R18
// 1175                  buf_tx_232[1]=0x80;
        LDI	R18, 128
        MOVW	R31:R30, R27:R26
        STD	Z+1, R18
// 1176                  buf_tx_232[2]=0x21;
        LDI	R18, 33
        STD	Z+2, R18
// 1177                  
// 1178                  buf_tx_232[3]=CONF_REQ; 
        LDI	R18, 1
        STD	Z+3, R18
// 1179                  buf_tx_232[4]=i_scr_ipcp;   
        MOVW	R31:R30, R17:R16
        LDD	R16, Z+30
        MOVW	R31:R30, R27:R26
        STD	Z+4, R16
// 1180  
// 1181                  
// 1182                  buf_tx_232[5]=0;
        STD	Z+5, R23
// 1183                  buf_tx_232[6]=10;//áĺç DNS
        LDI	R16, 10
        STD	Z+6, R16
// 1184                   
// 1185                //  buf_tx_232[6]=22;//c DNS 
// 1186                               
// 1187                  buf_tx_232[7]=3;      //çŕďđîń IP ęîíňđîëëĺđŕ
        LDI	R16, 3
        STD	Z+7, R16
// 1188                  buf_tx_232[8]=6;
        LDI	R16, 6
        STD	Z+8, R16
// 1189                  buf_tx_232[9]=ip_self[0]; 
        LDI	R16, LOW(ip_self)
        LDI	R17, (ip_self) >> 8
        MOVW	R31:R30, R17:R16
        LD	R18, Z
        MOVW	R31:R30, R27:R26
        STD	Z+9, R18
// 1190                  buf_tx_232[10]=ip_self[1]; 
        MOVW	R31:R30, R17:R16
        LDD	R18, Z+1
        MOVW	R31:R30, R27:R26
        STD	Z+10, R18
// 1191                  buf_tx_232[11]=ip_self[2];
        MOVW	R31:R30, R17:R16
        LDD	R18, Z+2
        MOVW	R31:R30, R27:R26
        STD	Z+11, R18
// 1192                  buf_tx_232[12]=ip_self[3];
        MOVW	R31:R30, R17:R16
        LDD	R16, Z+3
        MOVW	R31:R30, R27:R26
        STD	Z+12, R16
// 1193                  
// 1194                  
// 1195                //  buf_tx_232[13]=0x81;      //çŕďđîń IP_PRI_DNS
// 1196                //  buf_tx_232[14]=6;
// 1197                //  buf_tx_232[15]=ip_pri_dns[0]; 
// 1198                //  buf_tx_232[16]=ip_pri_dns[1]; 
// 1199                 // buf_tx_232[17]=ip_pri_dns[2];
// 1200                 // buf_tx_232[18]=ip_pri_dns[3];
// 1201                  
// 1202                 // buf_tx_232[19]=0x83;      //çŕďđîń IP_SEC_DNS
// 1203                 // buf_tx_232[20]=6;
// 1204                 // buf_tx_232[21]=ip_sec_dns[0]; 
// 1205                 // buf_tx_232[22]=ip_sec_dns[1]; 
// 1206                 // buf_tx_232[23]=ip_sec_dns[2];
// 1207                 // buf_tx_232[24]=ip_sec_dns[3];
// 1208                                   
// 1209                  
// 1210                  temp.word=pppfcs16(PPPINITFCS16,&buf_tx_232[1],buf_tx_232[6]+2) ^ 0xffff;                  
        LDI	R20, 12
        LDI	R21, 0
        MOVW	R19:R18, R27:R26
        SUBI	R18, 255
        SBCI	R19, 255
        LDI	R16, 255
        LDI	R17, 255
        RCALL	pppfcs16
        LDI	R18, 255
        LDI	R19, 255
        EOR	R18, R16
        EOR	R19, R17
        ST	Y, R18
        STD	Y+1, R19
// 1211                  buf_tx_232[13]=temp.bytes[0];//áĺç DNS
        LD	R16, Y
        MOVW	R31:R30, R27:R26
        STD	Z+13, R16
// 1212                  buf_tx_232[14]=temp.bytes[1];//áĺç DNS
        LDD	R16, Y+1
        STD	Z+14, R16
// 1213                  
// 1214                  buf_tx_232[15]=0x7e; //áĺç DNS
        LDI	R16, 126
        STD	Z+15, R16
// 1215                //  buf_tx_232[25]=temp.bytes[0];//c DNS 
// 1216                //  buf_tx_232[26]=temp.bytes[1]; //c DNS              
// 1217                //  buf_tx_232[27]=0x7e; //c DNS 
// 1218                 
// 1219                  count_tx_ppp=0;
        LDI	R16, 0
        LDI	R17, 0
        LDI	R30, LOW(count_tx_ppp)
        LDI	R31, (count_tx_ppp) >> 8
        ST	Z, R16
        STD	Z+1, R16
// 1220                  vol_tx_ppp=buf_tx_232[6]+6;               
        LDI	R16, 16
        LDI	R30, LOW(vol_tx_ppp)
        LDI	R31, (vol_tx_ppp) >> 8
        ST	Z, R16
        STD	Z+1, R17
// 1221                  UCSR0A=UCSR0A | TXC;                            
        LDS	R16, 192
        ORI	R16, 0x40
        STS	192, R16
// 1222                  UCSR0B=UCSR0B | TXEN;
        LDS	R16, 193
        ORI	R16, 0x08
        STS	193, R16
// 1223                  UCSR0B=UCSR0B | TXCIE;
        LDS	R16, 193
        ORI	R16, 0x40
        STS	193, R16
// 1224                  if(check_cts()==1) return;   
        CALL	check_cts
        CPI	R16, 1
        BRNE	$+2+2
        RJMP	??run_ipcp_act_5
// 1225                  S2_RD;
        SBI	0x08, 0x00
        CBI	0x08, 0x01
// 1226                  UDR0=buf_tx_232[0]; 
        LD	R16, X
        STS	198, R16
// 1227                  if(Regim==RG_DEBAG) UDR3=buf_tx_232[0];
        LDS	R16, Regim
        CPI	R16, 1
        BREQ	$+2+2
        RJMP	??run_ipcp_act_5
??run_ipcp_act_8:
        LD	R16, X
        STS	310, R16
        RJMP	??run_ipcp_act_5
// 1228                
// 1229                  
// 1230                
// 1231                 break; 
// 1232                  
// 1233            case SCA: 
// 1234                  fl_ipcp.act_ipcp_end=0;
??run_ipcp_act_3:
        MOVW	R31:R30, R17:R16
        LDD	R18, Z+3
        ANDI	R18, 0xFE
        STD	Z+3, R18
// 1235                  buf_tx_232[0]=0x7e; 
        LDI	R18, 126
        ST	X, R18
// 1236                  buf_tx_232[1]=0x80;
        LDI	R18, 128
        MOVW	R31:R30, R27:R26
        STD	Z+1, R18
// 1237                  buf_tx_232[2]=0x21;
        LDI	R18, 33
        STD	Z+2, R18
// 1238                                  
// 1239                  buf_tx_232[3]=CONF_ACK;
        LDI	R18, 2
        STD	Z+3, R18
// 1240                  buf_tx_232[4]=i_scan_ipcp;
        STD	Z+4, R20
// 1241                  
// 1242                  temp.word=ln_ack_ipcp+4;
        MOVW	R31:R30, R17:R16
        ADIW	R31:R30, 61
        LD	R18, Z
        MOV	R24, R18
        LDI	R25, 0
        MOVW	R21:R20, R25:R24
        SUBI	R20, 252
        SBCI	R21, 255
        ST	Y, R20
        STD	Y+1, R21
// 1243                  buf_tx_232[5]=temp.bytes[1]; 
        LDD	R19, Y+1
        MOVW	R31:R30, R27:R26
        STD	Z+5, R19
// 1244                  buf_tx_232[6]=temp.bytes[0];
        LD	R19, Y
        STD	Z+6, R19
// 1245                 
// 1246                  temp.word=temp.word+2;         
        LD	R20, Y
        LDD	R21, Y+1
        SUBI	R20, 254
        SBCI	R21, 255
        ST	Y, R20
        STD	Y+1, R21
// 1247                  vol_tx_ppp=temp.word+4;  
        LD	R20, Y
        LDD	R21, Y+1
        SUBI	R20, 252
        SBCI	R21, 255
        LDI	R30, LOW(vol_tx_ppp)
        LDI	R31, (vol_tx_ppp) >> 8
        ST	Z, R20
        STD	Z+1, R21
// 1248                    
// 1249                  for(i=0;i<ln_ack_ipcp;i++)buf_tx_232[7+i]=buf_ack_opt_ipcp[i];
        LDI	R20, 0
        RJMP	??run_ipcp_act_9
??run_ipcp_act_10:
        MOV	R22, R20
        MOVW	R31:R30, R17:R16
        ADD	R30, R22
        ADC	R31, R23
        LDD	R19, Z+33
        MOVW	R31:R30, R27:R26
        ADD	R30, R22
        ADC	R31, R23
        STD	Z+7, R19
        INC	R20
??run_ipcp_act_9:
        CP	R20, R18
        BRCS	??run_ipcp_act_10
// 1250                  
// 1251                  temp.word=pppfcs16(PPPINITFCS16,&buf_tx_232[1],temp.word) ^ 0xffff;                  
??run_ipcp_act_11:
        LD	R20, Y
        LDD	R21, Y+1
        MOVW	R19:R18, R27:R26
        SUBI	R18, 255
        SBCI	R19, 255
        LDI	R16, 255
        LDI	R17, 255
        RCALL	pppfcs16
        LDI	R18, 255
        LDI	R19, 255
        EOR	R18, R16
        EOR	R19, R17
        ST	Y, R18
        STD	Y+1, R19
// 1252                  buf_tx_232[7+ln_ack_ipcp]=temp.bytes[0];
        MOVW	R31:R30, R27:R26
        ADD	R30, R24
        ADC	R31, R25
        LD	R18, Y
        STD	Z+7, R18
// 1253                  buf_tx_232[8+ln_ack_ipcp]=temp.bytes[1];
        LDD	R18, Y+1
        STD	Z+8, R18
// 1254                  buf_tx_232[9+ln_ack_ipcp]=0x7e;
        LDI	R16, 126
        STD	Z+9, R16
// 1255                  
// 1256                  count_tx_ppp=0;                             
        LDI	R30, LOW(count_tx_ppp)
        LDI	R31, (count_tx_ppp) >> 8
        ST	Z, R25
        STD	Z+1, R25
// 1257                      UCSR0A=UCSR0A | TXC;                            
        LDS	R16, 192
        ORI	R16, 0x40
        STS	192, R16
// 1258                      UCSR0B=UCSR0B | TXEN;
        LDS	R16, 193
        ORI	R16, 0x08
        STS	193, R16
// 1259                      UCSR0B=UCSR0B | TXCIE;
        LDS	R16, 193
        ORI	R16, 0x40
        STS	193, R16
// 1260                      if(check_cts()==1) return;
        CALL	check_cts
        CPI	R16, 1
        BRNE	$+2+2
        RJMP	??run_ipcp_act_5
// 1261                  S2_RD;
        SBI	0x08, 0x00
        CBI	0x08, 0x01
// 1262                  UDR0=buf_tx_232[0]; 
        LD	R16, X
        STS	198, R16
// 1263                  if(Regim==RG_DEBAG) UDR3=buf_tx_232[0];
        LDS	R16, Regim
        CPI	R16, 1
        BREQ	$+2+2
        RJMP	??run_ipcp_act_5
        RJMP	??run_ipcp_act_8
// 1264                
// 1265                 
// 1266                   
// 1267                 break;
// 1268            case SCN:  
// 1269                 
// 1270                 
// 1271 
// 1272                  fl_ipcp.act_ipcp_end=0;
??run_ipcp_act_4:
        MOVW	R31:R30, R17:R16
        LDD	R21, Z+3
        ANDI	R21, 0xFE
        STD	Z+3, R21
// 1273                  buf_tx_232[0]=0x7e; 
        LDI	R21, 126
        ST	X, R21
// 1274                  buf_tx_232[1]=0x80;
        LDI	R21, 128
        MOVW	R31:R30, R27:R26
        STD	Z+1, R21
// 1275                  buf_tx_232[2]=0x21;
        LDI	R21, 33
        STD	Z+2, R21
// 1276 
// 1277                  
// 1278                  if (fl_ipcp2.nac_rej==0) 
        MOVW	R31:R30, R19:R18
        LDD	R21, Z+2
        SBRC	R21, 0
        RJMP	??run_ipcp_act_12
// 1279                      {
// 1280                      buf_tx_232[3]=CONF_NAK;                       
        LDI	R21, 3
        MOVW	R31:R30, R27:R26
        STD	Z+3, R21
// 1281                      
// 1282                      buf_tx_232[4]=i_scan_ipcp;
        STD	Z+4, R20
// 1283                  
// 1284                      temp.word=ln_nak_ipcp+4;
        SUBI	R16, 194
        SBCI	R17, 255
        MOVW	R31:R30, R17:R16
        LD	R16, Z
        MOV	R24, R16
        LDI	R25, 0
        MOVW	R21:R20, R25:R24
        SUBI	R20, 252
        SBCI	R21, 255
        ST	Y, R20
        STD	Y+1, R21
// 1285                      buf_tx_232[5]=temp.bytes[1]; 
        LDD	R17, Y+1
        MOVW	R31:R30, R27:R26
        STD	Z+5, R17
// 1286                      buf_tx_232[6]=temp.bytes[0];
        LD	R17, Y
        STD	Z+6, R17
// 1287                     
// 1288                     temp.word=temp.word+2;         
        LD	R20, Y
        LDD	R21, Y+1
        SUBI	R20, 254
        SBCI	R21, 255
        ST	Y, R20
        STD	Y+1, R21
// 1289                     vol_tx_ppp=temp.word+4;
        LD	R20, Y
        LDD	R21, Y+1
        SUBI	R20, 252
        SBCI	R21, 255
        LDI	R30, LOW(vol_tx_ppp)
        LDI	R31, (vol_tx_ppp) >> 8
        ST	Z, R20
        STD	Z+1, R21
// 1290                      
// 1291 
// 1292                       
// 1293                      for(i=0;i<ln_nak_ipcp;i++)buf_tx_232[7+i]=buf_nak_opt_ipcp[i];
        LDI	R20, 0
        RJMP	??run_ipcp_act_13
??run_ipcp_act_14:
        MOV	R22, R20
        MOVW	R31:R30, R19:R18
        ADD	R30, R22
        ADC	R31, R23
        LDD	R17, Z+4
        MOVW	R31:R30, R27:R26
        ADD	R30, R22
        ADC	R31, R23
        STD	Z+7, R17
        INC	R20
??run_ipcp_act_13:
        CP	R20, R16
        BRCS	??run_ipcp_act_14
// 1294                      temp.word=pppfcs16(PPPINITFCS16,&buf_tx_232[1],temp.word) ^ 0xffff;                  
        RJMP	??run_ipcp_act_11
// 1295                      buf_tx_232[7+ln_nak_ipcp]=temp.bytes[0];
// 1296                      buf_tx_232[8+ln_nak_ipcp]=temp.bytes[1];
// 1297                      buf_tx_232[9+ln_nak_ipcp]=0x7e;
// 1298                      
// 1299                      count_tx_ppp=0;                             
// 1300                      UCSR0A=UCSR0A | TXC;                            
// 1301                      UCSR0B=UCSR0B | TXEN;
// 1302                      UCSR0B=UCSR0B | TXCIE;
// 1303                      if(check_cts()==1) return;
// 1304                      S2_RD;
// 1305                      UDR0=buf_tx_232[0];
// 1306                      if(Regim==RG_DEBAG) UDR3=buf_tx_232[0];
// 1307                      
// 1308                      }  
// 1309                      else
// 1310                      { 
// 1311                      fl_ipcp2.nac_rej=0;
??run_ipcp_act_12:
        LDD	R21, Z+2
        ANDI	R21, 0xFE
        STD	Z+2, R21
// 1312                      buf_tx_232[3]=CONF_REJ;  
        LDI	R21, 4
        MOVW	R31:R30, R27:R26
        STD	Z+3, R21
// 1313                      buf_tx_232[4]=i_scan_ipcp;
        STD	Z+4, R20
// 1314                  
// 1315                      temp.word=ln_rej_ipcp+4;
        SUBI	R16, 196
        SBCI	R17, 255
        MOVW	R31:R30, R17:R16
        LD	R16, Z
        MOV	R24, R16
        LDI	R25, 0
        MOVW	R21:R20, R25:R24
        SUBI	R20, 252
        SBCI	R21, 255
        ST	Y, R20
        STD	Y+1, R21
// 1316                      buf_tx_232[5]=temp.bytes[1]; 
        LDD	R17, Y+1
        MOVW	R31:R30, R27:R26
        STD	Z+5, R17
// 1317                      buf_tx_232[6]=temp.bytes[0];
        LD	R17, Y
        STD	Z+6, R17
// 1318                                  
// 1319                     temp.word=temp.word+2;         
        LD	R20, Y
        LDD	R21, Y+1
        SUBI	R20, 254
        SBCI	R21, 255
        ST	Y, R20
        STD	Y+1, R21
// 1320                     vol_tx_ppp=temp.word+4; 
        LD	R20, Y
        LDD	R21, Y+1
        SUBI	R20, 252
        SBCI	R21, 255
        LDI	R30, LOW(vol_tx_ppp)
        LDI	R31, (vol_tx_ppp) >> 8
        ST	Z, R20
        STD	Z+1, R21
// 1321                      
// 1322                      for(i=0;i<ln_rej_ipcp;i++)buf_tx_232[7+i]=buf_rej_opt_ipcp[i];
        LDI	R20, 0
        RJMP	??run_ipcp_act_15
??run_ipcp_act_16:
        MOV	R22, R20
        MOVW	R31:R30, R19:R18
        ADD	R30, R22
        ADC	R31, R23
        LDD	R17, Z+29
        MOVW	R31:R30, R27:R26
        ADD	R30, R22
        ADC	R31, R23
        STD	Z+7, R17
        INC	R20
??run_ipcp_act_15:
        CP	R20, R16
        BRCS	??run_ipcp_act_16
// 1323                      temp.word=pppfcs16(PPPINITFCS16,&buf_tx_232[1],temp.word) ^ 0xffff;                  
        LD	R20, Y
        LDD	R21, Y+1
        MOVW	R19:R18, R27:R26
        SUBI	R18, 255
        SBCI	R19, 255
        LDI	R16, 255
        LDI	R17, 255
        RCALL	pppfcs16
        LDI	R18, 255
        LDI	R19, 255
        EOR	R18, R16
        EOR	R19, R17
        ST	Y, R18
        STD	Y+1, R19
// 1324                      buf_tx_232[7+ln_rej_ipcp]=temp.bytes[0];
        MOVW	R31:R30, R27:R26
        ADD	R30, R24
        ADC	R31, R25
        LD	R18, Y
        STD	Z+7, R18
// 1325                      buf_tx_232[8+ln_rej_ipcp]=temp.bytes[1];                     
        LDD	R18, Y+1
        STD	Z+8, R18
// 1326                      buf_tx_232[9+ln_rej_ipcp]=0x7e;                     
        LDI	R16, 126
        STD	Z+9, R16
// 1327                     
// 1328                      count_tx_ppp=0;                             
        LDI	R30, LOW(count_tx_ppp)
        LDI	R31, (count_tx_ppp) >> 8
        ST	Z, R25
        STD	Z+1, R25
// 1329                      UCSR0A=UCSR0A | TXC;                            
        LDS	R16, 192
        ORI	R16, 0x40
        STS	192, R16
// 1330                      UCSR0B=UCSR0B | TXEN;
        LDS	R16, 193
        ORI	R16, 0x08
        STS	193, R16
// 1331                      UCSR0B=UCSR0B | TXCIE;
        LDS	R16, 193
        ORI	R16, 0x40
        STS	193, R16
// 1332                      if(check_cts()==1) return;                 
        CALL	check_cts
        CPI	R16, 1
        BREQ	??run_ipcp_act_5
// 1333                      S2_RD;
        SBI	0x08, 0x00
        CBI	0x08, 0x01
// 1334                      UDR0=buf_tx_232[0]; 
        LD	R16, X
        STS	198, R16
// 1335                      if(Regim==RG_DEBAG) UDR3=buf_tx_232[0];
        LDS	R16, Regim
        CPI	R16, 1
        BRNE	$+2+2
        RJMP	??run_ipcp_act_8
??run_ipcp_act_5:
        ADIW	R29:R28, 2
        CFI CFA_Y Y+4
        LDI	R30, 4
        JMP	?EPILOGUE_B4_L09
        CFI EndBlock cfiBlock8
// 1336                      }   
// 1337                      
// 1338 
// 1339                      
// 1340                 break; 
// 1341           
// 1342                      
// 1343           
// 1344           }                  
// 1345       }
// 1346   
// 1347   
// 1348 
// 1349   
// 1350    

        RSEG CODE:CODE:NOROOT(1)
// 1351   void monitor_act_IPCP(void)
monitor_act_IPCP:
        CFI Block cfiBlock9 Using cfiCommon0
        CFI Function monitor_act_IPCP
// 1352       {  
        FUNCALL monitor_act_IPCP, run_ipcp_act
        LOCFRAME CSTACK, 2, STACK
        LOCFRAME RSTACK, 2, STACK
        ST	-Y, R27
        CFI R27 Frame(CFA_Y, -1)
        CFI CFA_Y Y+1
        ST	-Y, R26
        CFI R26 Frame(CFA_Y, -2)
        CFI CFA_Y Y+2
// 1353        
// 1354        if((uk_in_act_IPCP!=uk_out_act_IPCP)&&(fl_lcp.act_lcp_end==1)&&(fl_pap.act_pap_end==1)&&(fl_ipcp.act_ipcp_end==1)&&(fl_ip.act_ip_end==1))
        LDI	R26, LOW(cnt_pap_tm_out)
        LDI	R27, (cnt_pap_tm_out) >> 8
        ADIW	R27:R26, 24
        LD	R16, X
        SBIW	R27:R26, 24
        ADIW	R27:R26, 25
        LD	R17, X
        SBIW	R27:R26, 25
        CP	R16, R17
        BREQ	??monitor_act_IPCP_0
        ADIW	R27:R26, 2
        LD	R16, X
        SBIW	R27:R26, 2
        ANDI	R16, 0x01
        ADIW	R27:R26, 5
        LD	R17, X
        SBIW	R27:R26, 5
        ANDI	R17, 0x01
        AND	R17, R16
        ADIW	R27:R26, 3
        LD	R16, X
        SBIW	R27:R26, 3
        ANDI	R16, 0x01
        AND	R16, R17
        ADIW	R27:R26, 4
        LD	R17, X
        SBIW	R27:R26, 4
        ANDI	R17, 0x01
        AND	R17, R16
        BREQ	??monitor_act_IPCP_0
// 1355         {   
// 1356         run_ipcp_act();
        RCALL	run_ipcp_act
// 1357         uk_out_act_IPCP++;  
        ADIW	R27:R26, 25
        LD	R16, X
        INC	R16
        ST	X, R16
        SBIW	R27:R26, 25
// 1358         if (uk_out_act_IPCP>=IPCP_ACT_VOL)uk_out_act_IPCP=0; 
        ADIW	R27:R26, 25
        LD	R16, X
        SBIW	R27:R26, 25
        CPI	R16, 10
        BRCS	??monitor_act_IPCP_0
        LDI	R16, 0
        ADIW	R27:R26, 25
        ST	X, R16
// 1359         }
// 1360       }
??monitor_act_IPCP_0:
        LD	R26, Y+
        CFI R26 SameValue
        CFI CFA_Y Y+1
        LD	R27, Y+
        CFI R27 SameValue
        CFI CFA_Y Y+0
        RET
        CFI EndBlock cfiBlock9
// 1361  
// 1362  
// 1363   

        RSEG CODE:CODE:NOROOT(1)
// 1364 void monitor_event_IPCP(void)
monitor_event_IPCP:
        CFI Block cfiBlock10 Using cfiCommon0
        CFI Function monitor_event_IPCP
// 1365     {
        FUNCALL monitor_event_IPCP, prov_uk_in_ipcp
        LOCFRAME CSTACK, 2, STACK
        LOCFRAME RSTACK, 2, STACK
        FUNCALL monitor_event_IPCP, prov_uk_in_ipcp
        LOCFRAME CSTACK, 2, STACK
        LOCFRAME RSTACK, 2, STACK
        FUNCALL monitor_event_IPCP, prov_uk_in_ipcp
        LOCFRAME CSTACK, 2, STACK
        LOCFRAME RSTACK, 2, STACK
        FUNCALL monitor_event_IPCP, prov_uk_in_ipcp
        LOCFRAME CSTACK, 2, STACK
        LOCFRAME RSTACK, 2, STACK
        FUNCALL monitor_event_IPCP, prov_uk_in_ipcp
        LOCFRAME CSTACK, 2, STACK
        LOCFRAME RSTACK, 2, STACK
        FUNCALL monitor_event_IPCP, prov_uk_in_ipcp
        LOCFRAME CSTACK, 2, STACK
        LOCFRAME RSTACK, 2, STACK
        FUNCALL monitor_event_IPCP, prov_uk_in_ipcp
        LOCFRAME CSTACK, 2, STACK
        LOCFRAME RSTACK, 2, STACK
        FUNCALL monitor_event_IPCP, prov_uk_in_ipcp
        LOCFRAME CSTACK, 2, STACK
        LOCFRAME RSTACK, 2, STACK
        FUNCALL monitor_event_IPCP, prov_uk_in_ipcp
        LOCFRAME CSTACK, 2, STACK
        LOCFRAME RSTACK, 2, STACK
        FUNCALL monitor_event_IPCP, prov_uk_in_ipcp
        LOCFRAME CSTACK, 2, STACK
        LOCFRAME RSTACK, 2, STACK
        FUNCALL monitor_event_IPCP, prov_uk_in_ipcp
        LOCFRAME CSTACK, 2, STACK
        LOCFRAME RSTACK, 2, STACK
        FUNCALL monitor_event_IPCP, prov_uk_in_ipcp
        LOCFRAME CSTACK, 2, STACK
        LOCFRAME RSTACK, 2, STACK
        FUNCALL monitor_event_IPCP, prov_uk_in_ipcp
        LOCFRAME CSTACK, 2, STACK
        LOCFRAME RSTACK, 2, STACK
        FUNCALL monitor_event_IPCP, prov_uk_in_ipcp
        LOCFRAME CSTACK, 2, STACK
        LOCFRAME RSTACK, 2, STACK
        ST	-Y, R27
        CFI R27 Frame(CFA_Y, -1)
        CFI CFA_Y Y+1
        ST	-Y, R26
        CFI R26 Frame(CFA_Y, -2)
        CFI CFA_Y Y+2
// 1366      if (fl_ipcp1.up==1)      //UP
        LDI	R26, LOW(cnt_pap_tm_out)
        LDI	R27, (cnt_pap_tm_out) >> 8
        MOVW	R31:R30, R27:R26
        LDD	R18, Z+24
        LDI	R19, 0
        MOVW	R17:R16, R27:R26
        ADD	R16, R18
        ADC	R17, R19
        LDD	R18, Z+10
        LDD	R19, Z+6
        SBRS	R19, 0
        RJMP	??monitor_event_IPCP_0
// 1367          {  
// 1368          
// 1369           
// 1370          fl_ipcp1.up=0; 
        LDD	R19, Z+6
        ANDI	R19, 0xFE
        STD	Z+6, R19
// 1371            switch(IPCP_state)
        SUBI	R18, 1
        BRNE	??monitor_event_IPCP_1
// 1372                {
// 1373                 case START_ST:                                                                
// 1374                             //vol_cnt_rst_ipcp=VOL_IPCP_MC;  
// 1375                             IPCP_act_buf[uk_in_act_IPCP]=IRC;  
??monitor_event_IPCP_2:
        LDI	R18, 4
        MOVW	R31:R30, R17:R16
        STD	Z+12, R18
// 1376                             prov_uk_in_ipcp();                    
        RCALL	prov_uk_in_ipcp
// 1377                             IPCP_act_buf[uk_in_act_IPCP]=SCR;  
        LDI	R16, 6
        MOVW	R31:R30, R27:R26
        LDD	R18, Z+24
        LDI	R19, 0
        ADD	R30, R18
        ADC	R31, R19
        STD	Z+12, R16
// 1378                             prov_uk_in_ipcp();                    
??monitor_event_IPCP_3:
        RCALL	prov_uk_in_ipcp
// 1379                             IPCP_state=SEND_REQ; 
        LDI	R16, 6
??monitor_event_IPCP_4:
        MOVW	R31:R30, R27:R26
        STD	Z+10, R16
// 1380                            
// 1381                 return;
??monitor_event_IPCP_1:
        LD	R26, Y+
        CFI R26 SameValue
        CFI CFA_Y Y+1
        LD	R27, Y+
        CFI R27 SameValue
        CFI CFA_Y Y+0
        RET
        CFI R26 Frame(CFA_Y, -2)
        CFI R27 Frame(CFA_Y, -1)
        CFI CFA_Y Y+2
// 1382                }
// 1383             
// 1384          return;
// 1385          }
// 1386      
// 1387     
// 1388      
// 1389      if(fl_ipcp.t0_pl==1)        //TO_PL
??monitor_event_IPCP_0:
        LDD	R19, Z+3
        SBRS	R19, 2
        RJMP	??monitor_event_IPCP_5
// 1390         {
// 1391          fl_ipcp.t0_pl=0; 
        LDD	R19, Z+3
        ANDI	R19, 0xFB
        STD	Z+3, R19
// 1392          switch(IPCP_state)
        SUBI	R18, 6
        BREQ	??monitor_event_IPCP_2
        DEC	R18
        BREQ	??monitor_event_IPCP_2
        DEC	R18
        BRNE	??monitor_event_IPCP_1
// 1393                {                     
// 1394                                
// 1395                 
// 1396                 case SEND_REQ:
// 1397                            // vol_cnt_rst_ipcp=VOL_IPCP_MC;                                                    
// 1398                             IPCP_act_buf[uk_in_act_IPCP]=IRC;  
// 1399                             prov_uk_in_ipcp();                
// 1400                             IPCP_act_buf[uk_in_act_IPCP]=SCR;  
// 1401                             prov_uk_in_ipcp();                 
// 1402                             IPCP_state=SEND_REQ;
// 1403                             return;
// 1404                 case REC_ACK:      
// 1405                             //vol_cnt_rst_ipcp=VOL_IPCP_MC;                                              
// 1406                             IPCP_act_buf[uk_in_act_IPCP]=IRC;  
// 1407                             prov_uk_in_ipcp();                
// 1408                             IPCP_act_buf[uk_in_act_IPCP]=SCR;  
// 1409                             prov_uk_in_ipcp();                 
// 1410                             IPCP_state=SEND_REQ;
// 1411                             return;
// 1412                 case SEND_ACK: 
// 1413                           //  vol_cnt_rst_ipcp=VOL_IPCP_MC;                                                   
// 1414                             IPCP_act_buf[uk_in_act_IPCP]=IRC;  
??monitor_event_IPCP_6:
        LDI	R18, 4
        MOVW	R31:R30, R17:R16
        STD	Z+12, R18
// 1415                             prov_uk_in_ipcp();                 
        RCALL	prov_uk_in_ipcp
// 1416                             IPCP_act_buf[uk_in_act_IPCP]=SCR;  
        LDI	R16, 6
        MOVW	R31:R30, R27:R26
        LDD	R18, Z+24
        LDI	R19, 0
        ADD	R30, R18
        ADC	R31, R19
        STD	Z+12, R16
// 1417                             prov_uk_in_ipcp();                 
??monitor_event_IPCP_7:
        RCALL	prov_uk_in_ipcp
// 1418                             IPCP_state=SEND_ACK;
        LDI	R16, 8
        RJMP	??monitor_event_IPCP_4
// 1419                             return;                                                              
// 1420                } 
// 1421             
// 1422          return;
// 1423         }  
// 1424    
// 1425      switch (IPCP_event)
??monitor_event_IPCP_5:
        LDD	R19, Z+11
        SUBI	R19, 6
        BREQ	??monitor_event_IPCP_8
        DEC	R19
        BREQ	??monitor_event_IPCP_9
        DEC	R19
        BRNE	$+2+2
        RJMP	??monitor_event_IPCP_10
        DEC	R19
        BRNE	$+2+2
        RJMP	??monitor_event_IPCP_11
        RJMP	??monitor_event_IPCP_1
// 1426         {
// 1427         case RCR_PL:  
// 1428             IPCP_event=NO_EVENT; 
??monitor_event_IPCP_8:
        LDI	R19, 255
        STD	Z+11, R19
// 1429             switch(IPCP_state)
        SUBI	R18, 6
        BREQ	??monitor_event_IPCP_12
        DEC	R18
        BREQ	??monitor_event_IPCP_13
        DEC	R18
        BREQ	??monitor_event_IPCP_12
        DEC	R18
        BREQ	??monitor_event_IPCP_14
        RJMP	??monitor_event_IPCP_1
// 1430                {                     
// 1431 
// 1432                
// 1433                 case SEND_REQ:                                                                
// 1434                             IPCP_act_buf[uk_in_act_IPCP]=SCA;  
??monitor_event_IPCP_12:
        LDI	R18, 7
        MOVW	R31:R30, R17:R16
        STD	Z+12, R18
// 1435                             prov_uk_in_ipcp();                 
        RJMP	??monitor_event_IPCP_7
// 1436                             IPCP_state=SEND_ACK;   
// 1437                          
// 1438                             return;
// 1439                 case REC_ACK:
// 1440         
// 1441                             IPCP_act_buf[uk_in_act_IPCP]=SCA;  
??monitor_event_IPCP_13:
        LDI	R18, 7
??monitor_event_IPCP_15:
        MOVW	R31:R30, R17:R16
        STD	Z+12, R18
// 1442                             prov_uk_in_ipcp();       
        RCALL	prov_uk_in_ipcp
// 1443                             IPCP_act_buf[uk_in_act_IPCP]=TLU;  
        LDI	R16, 0
        MOVW	R31:R30, R27:R26
        LDD	R18, Z+24
        ADD	R30, R18
        ADC	R31, R16
        STD	Z+12, R16
// 1444                             prov_uk_in_ipcp();          
        RCALL	prov_uk_in_ipcp
// 1445                             IPCP_state=OPEN_ST;  
        LDI	R16, 9
        RJMP	??monitor_event_IPCP_4
// 1446                            
// 1447                             return;
// 1448                 case SEND_ACK:                                                                
// 1449                             IPCP_act_buf[uk_in_act_IPCP]=SCA;  
// 1450                             prov_uk_in_ipcp();                 
// 1451                             IPCP_state=SEND_ACK; 
// 1452                    
// 1453                             return;
// 1454                 case OPEN_ST:      
// 1455                                                                               
// 1456                             IPCP_act_buf[uk_in_act_IPCP]=IRC;  
??monitor_event_IPCP_14:
        LDI	R18, 4
        MOVW	R31:R30, R17:R16
        STD	Z+12, R18
// 1457                             prov_uk_in_ipcp(); 
        RCALL	prov_uk_in_ipcp
// 1458                             IPCP_act_buf[uk_in_act_IPCP]=SCA;  
        LDI	R16, 7
        MOVW	R31:R30, R27:R26
        LDD	R18, Z+24
        LDI	R19, 0
        ADD	R26, R18
        ADC	R27, R19
        MOVW	R31:R30, R27:R26
        STD	Z+12, R16
// 1459                             prov_uk_in_ipcp();                 
        RCALL	prov_uk_in_ipcp
// 1460                    
// 1461                             return;                                                                    
        RJMP	??monitor_event_IPCP_1
// 1462                }  
// 1463              return; 
// 1464         case RCR_MI: 
// 1465            
// 1466             
// 1467             
// 1468             IPCP_event=NO_EVENT;
??monitor_event_IPCP_9:
        LDI	R19, 255
        STD	Z+11, R19
// 1469             switch(IPCP_state)
        SUBI	R18, 6
        BREQ	??monitor_event_IPCP_16
        DEC	R18
        BREQ	??monitor_event_IPCP_17
        DEC	R18
        BREQ	$+2+2
        RJMP	??monitor_event_IPCP_1
// 1470                {                     
// 1471 
// 1472                
// 1473                 case SEND_REQ:                                                                
// 1474                             
// 1475                        
// 1476                             IPCP_act_buf[uk_in_act_IPCP]=SCN;  
??monitor_event_IPCP_16:
        LDI	R18, 8
        MOVW	R31:R30, R17:R16
        STD	Z+12, R18
// 1477                             prov_uk_in_ipcp();                 
        RJMP	??monitor_event_IPCP_3
// 1478                             IPCP_state=SEND_REQ;    
// 1479                      
// 1480                             return;
// 1481                 case REC_ACK:                                                                
// 1482                             IPCP_act_buf[uk_in_act_IPCP]=SCN;  
??monitor_event_IPCP_17:
        LDI	R18, 8
??monitor_event_IPCP_18:
        MOVW	R31:R30, R17:R16
        STD	Z+12, R18
// 1483                             prov_uk_in_ipcp();              
        RCALL	prov_uk_in_ipcp
// 1484                             IPCP_state=REC_ACK;     
        LDI	R16, 7
        RJMP	??monitor_event_IPCP_4
// 1485                            
// 1486                             return;
// 1487                 case SEND_ACK:                                                                
// 1488                             IPCP_act_buf[uk_in_act_IPCP]=SCN;  
// 1489                             prov_uk_in_ipcp();                 
// 1490                             IPCP_state=SEND_REQ;
// 1491                          
// 1492                             return;
// 1493                 
// 1494                /*
// 1495                case OPEN_ST:      
// 1496                           
// 1497                            // vol_cnt_rst_ipcp=VOL_IPCP_MC;
// 1498                             IPCP_act_buf[uk_in_act_IPCP]=IRC;  
// 1499                             prov_uk_in_ipcp(); 
// 1500                             IPCP_act_buf[uk_in_act_IPCP]=SCR;  
// 1501                             prov_uk_in_ipcp();                                                                
// 1502                             IPCP_act_buf[uk_in_act_IPCP]=SCN;  
// 1503                             prov_uk_in_ipcp();                 
// 1504                             IPCP_state=SEND_REQ;
// 1505                
// 1506                             
// 1507                             return;  
// 1508                  */           
// 1509                }  
// 1510              return; 
// 1511         case RCA:  
// 1512             
// 1513             
// 1514            
// 1515             
// 1516             IPCP_event=NO_EVENT;
??monitor_event_IPCP_10:
        LDI	R19, 255
        STD	Z+11, R19
// 1517             switch(IPCP_state)
        SUBI	R18, 6
        BREQ	??monitor_event_IPCP_19
        DEC	R18
        BRNE	$+2+2
        RJMP	??monitor_event_IPCP_2
        DEC	R18
        BREQ	??monitor_event_IPCP_20
        RJMP	??monitor_event_IPCP_1
// 1518                {                     
// 1519 
// 1520                 
// 1521                 case SEND_REQ: 
// 1522                             
// 1523                            // vol_cnt_rst_ipcp=VOL_IPCP_MC;  
// 1524                             IPCP_act_buf[uk_in_act_IPCP]=IRC;  
??monitor_event_IPCP_19:
        LDI	R18, 4
        RJMP	??monitor_event_IPCP_18
// 1525                             prov_uk_in_ipcp();                                        
// 1526                             IPCP_state=REC_ACK; 
// 1527                      
// 1528                             return;
// 1529                 case REC_ACK:       
// 1530                             IPCP_act_buf[uk_in_act_IPCP]=IRC;  
// 1531                             prov_uk_in_ipcp(); 
// 1532                            // vol_cnt_rst_ipcp=VOL_IPCP_MC;                                             
// 1533                             IPCP_act_buf[uk_in_act_IPCP]=SCR;  
// 1534                             prov_uk_in_ipcp();                 
// 1535                             IPCP_state=SEND_REQ;
// 1536                      
// 1537                             return;
// 1538                 case SEND_ACK:                                                                
// 1539 
// 1540                             
// 1541                             vol_cnt_rst_ipcp=VOL_IPCP_MC;  
??monitor_event_IPCP_20:
        LDI	R18, 10
        STD	Z+26, R18
// 1542                             IPCP_act_buf[uk_in_act_IPCP]=IRC;  
        LDI	R18, 4
        RJMP	??monitor_event_IPCP_15
// 1543                             prov_uk_in_ipcp();                                        
// 1544                             IPCP_act_buf[uk_in_act_IPCP]=TLU;  
// 1545                             prov_uk_in_ipcp();
// 1546                             IPCP_state=OPEN_ST;
// 1547                   
// 1548                             return;
// 1549                /*
// 1550                case OPEN_ST:
// 1551                            // vol_cnt_rst_ipcp=VOL_IPCP_MC;
// 1552               //ďîäóěŕňü    ?????????????????????????????
// 1553                            
// 1554                             IPCP_act_buf[uk_in_act_IPCP]=IRC;  
// 1555                             prov_uk_in_ipcp(); 
// 1556                             IPCP_act_buf[uk_in_act_IPCP]=SCR;  
// 1557                             prov_uk_in_ipcp();                                                                               
// 1558                             IPCP_state=SEND_REQ;
// 1559                          
// 1560                             
// 1561                             return;
// 1562                             */
// 1563                             
// 1564                }  
// 1565              return; 
// 1566         case RCN: 
// 1567                 IPCP_event=NO_EVENT;
??monitor_event_IPCP_11:
        LDI	R19, 255
        STD	Z+11, R19
// 1568         switch(IPCP_state)
        SUBI	R18, 6
        BREQ	??monitor_event_IPCP_21
        DEC	R18
        BRNE	$+2+2
        RJMP	??monitor_event_IPCP_2
        DEC	R18
        BRNE	$+2+2
        RJMP	??monitor_event_IPCP_6
        DEC	R18
        BRNE	$+2+2
        RJMP	??monitor_event_IPCP_2
        RJMP	??monitor_event_IPCP_1
// 1569                {                     
// 1570 
// 1571                 
// 1572                 case SEND_REQ:                                                                
// 1573                             vol_cnt_rst_ipcp=VOL_IPCP_MC;  
??monitor_event_IPCP_21:
        LDI	R18, 10
        STD	Z+26, R18
        RJMP	??monitor_event_IPCP_2
        CFI EndBlock cfiBlock10
// 1574                             IPCP_act_buf[uk_in_act_IPCP]=IRC;  
// 1575                             prov_uk_in_ipcp(); 
// 1576                             IPCP_act_buf[uk_in_act_IPCP]=SCR;  
// 1577                             prov_uk_in_ipcp();                                       
// 1578                             IPCP_state=SEND_REQ;
// 1579                           
// 1580                             return;
// 1581                 case REC_ACK:     
// 1582                            // vol_cnt_rst_ipcp=VOL_IPCP_MC;                                               
// 1583                             IPCP_act_buf[uk_in_act_IPCP]=IRC;  
// 1584                             prov_uk_in_ipcp(); 
// 1585                             IPCP_act_buf[uk_in_act_IPCP]=SCR;  
// 1586                             prov_uk_in_ipcp();                 
// 1587                             IPCP_state=SEND_REQ;
// 1588                           
// 1589                             return;
// 1590                 case SEND_ACK:                                                                
// 1591                            // vol_cnt_rst_ipcp=VOL_IPCP_MC;   
// 1592                             IPCP_act_buf[uk_in_act_IPCP]=IRC;  
// 1593                             prov_uk_in_ipcp();                                        
// 1594                             IPCP_act_buf[uk_in_act_IPCP]=SCR;  
// 1595                             prov_uk_in_ipcp();
// 1596                             IPCP_state=SEND_ACK;
// 1597                         
// 1598                             return;
// 1599                 
// 1600                case OPEN_ST:      
// 1601                             IPCP_act_buf[uk_in_act_IPCP]=IRC;  
// 1602                             prov_uk_in_ipcp(); 
// 1603                            // vol_cnt_rst_ipcp=VOL_IPCP_MC;  
// 1604                             IPCP_act_buf[uk_in_act_IPCP]=SCR;  
// 1605                             prov_uk_in_ipcp();                                                                               
// 1606                             IPCP_state=SEND_REQ;
// 1607                       
// 1608                             return;  
// 1609                             
// 1610                             
// 1611                }  
// 1612              return; 
// 1613        
// 1614        
// 1615                             
// 1616         }
// 1617     
// 1618     }
// 1619   
// 1620   
// 1621   ////////////////  ęîíĺö ěîíčňîđű IPCP 
// 1622 

        RSEG CODE:CODE:NOROOT(1)
// 1623   unsigned int calc_crc_ip(unsigned char *p,unsigned int count)
calc_crc_ip:
        CFI Block cfiBlock11 Using cfiCommon0
        CFI Function calc_crc_ip
// 1624       {      
        SBIW	R29:R28, 6
        CFI CFA_Y Y+6
        MOVW	R31:R30, R17:R16
// 1625       
// 1626           union          
// 1627           {
// 1628            unsigned char bytes[2]; 
// 1629            unsigned int word;
// 1630           }temp1; 
// 1631          
// 1632           union
// 1633           {
// 1634            unsigned char bytes[4]; 
// 1635            unsigned long int long_word;
// 1636           }temp2; 
// 1637        
// 1638          temp1.word=0;
        LDI	R16, 0
        LDI	R17, 0
        ST	Y, R16
        STD	Y+1, R16
// 1639          temp2.long_word=0;
        STD	Y+2, R16
        STD	Y+3, R16
        STD	Y+4, R16
        STD	Y+5, R16
        RJMP	??calc_crc_ip_0
// 1640 
// 1641         while( count > 1 )  {
// 1642            /*  This is the inner loop */  
// 1643                temp1.bytes[0]=*p;
??calc_crc_ip_1:
        LD	R16, Z
        ST	Y, R16
// 1644                temp1.bytes[1]=*(p+1); 
        LDD	R16, Z+1
        STD	Y+1, R16
// 1645                temp2.long_word=temp2.long_word+temp1.word; 
        LD	R20, Y
        LDD	R21, Y+1
        LDD	R0, Y+2
        LDD	R1, Y+3
        LDD	R2, Y+4
        LDD	R3, Y+5
        ADD	R0, R20
        ADC	R1, R21
        ADC	R2, R17
        ADC	R3, R17
        STD	Y+2, R0
        STD	Y+3, R1
        STD	Y+4, R2
        STD	Y+5, R3
// 1646                p=p+2;         
        ADIW	R31:R30, 2
// 1647                count -= 2;
        SUBI	R18, 2
        SBCI	R19, 0
// 1648                             }
??calc_crc_ip_0:
        CPI	R18, 2
        CPC	R19, R17
        BRCC	??calc_crc_ip_1
// 1649 
// 1650            /*  Add left-over byte, if any */
// 1651        if( count > 0 )   
        OR	R18, R19
        BREQ	??calc_crc_ip_2
// 1652                {
// 1653                temp1.bytes[0]=0;
        ST	Y, R17
// 1654                temp1.bytes[1]=*p; 
        LD	R16, Z
        STD	Y+1, R16
// 1655                temp2.long_word=temp2.long_word+temp1.word; 
        LD	R16, Y
        LDD	R17, Y+1
        LDI	R18, 0
        LDD	R20, Y+2
        LDD	R21, Y+3
        LDD	R22, Y+4
        LDD	R23, Y+5
        ADD	R20, R16
        ADC	R21, R17
        ADC	R22, R18
        ADC	R23, R18
        STD	Y+2, R20
        STD	Y+3, R21
        STD	Y+4, R22
        STD	Y+5, R23
        RJMP	??calc_crc_ip_2
// 1656                } 
// 1657           
// 1658     
// 1659            /*  Fold 32-bit sum to 16 bits */
// 1660        while (temp2.long_word>>16)
// 1661            temp2.long_word = (temp2.long_word & 0xffff) + (temp2.long_word >> 16);
??calc_crc_ip_3:
        LDD	R17, Y+3
        LDI	R18, 0
        LDD	R22, Y+4
        LDD	R23, Y+5
        MOV	R20, R22
        MOV	R21, R23
        LDI	R22, 0
        ADD	R20, R16
        ADC	R21, R17
        ADC	R22, R18
        STD	Y+2, R20
        STD	Y+3, R21
        STD	Y+4, R22
        STD	Y+5, R18
??calc_crc_ip_2:
        LDD	R18, Y+4
        LDD	R19, Y+5
        LDI	R16, 0
        OR	R16, R18
        OR	R16, R19
        LDD	R16, Y+2
        BRNE	??calc_crc_ip_3
// 1662 
// 1663        temp1.bytes[0]=~temp2.bytes[0];
        COM	R16
        ST	Y, R16
// 1664        temp1.bytes[1]=~temp2.bytes[1];  
        LDD	R16, Y+3
        COM	R16
        STD	Y+1, R16
// 1665        
// 1666   
// 1667           
// 1668        return(temp1.word);
        LD	R16, Y
        LDD	R17, Y+1
        ADIW	R29:R28, 6
        CFI CFA_Y Y+0
        RET
        CFI EndBlock cfiBlock11
// 1669       }
// 1670        
// 1671 
// 1672 
// 1673 
// 1674  

        RSEG CODE:CODE:NOROOT(1)
// 1675  unsigned int calc_crc_udp_2(unsigned char *buf_rx_ppp,unsigned int count)
calc_crc_udp_2:
        CFI Block cfiBlock12 Using cfiCommon0
        CFI Function calc_crc_udp_2
// 1676       {      
        CALL	?PROLOGUE4_L09
        CFI R27 Frame(CFA_Y, -1)
        CFI R26 Frame(CFA_Y, -2)
        CFI R25 Frame(CFA_Y, -3)
        CFI R24 Frame(CFA_Y, -4)
        CFI CFA_Y Y+4
        SBIW	R29:R28, 6
        CFI CFA_Y Y+10
        MOVW	R27:R26, R17:R16
        MOVW	R25:R24, R19:R18
// 1677           unsigned char *p;
// 1678       
// 1679           union          
// 1680           {
// 1681            unsigned char bytes[2]; 
// 1682            unsigned int word;
// 1683           }temp1; 
// 1684          
// 1685           union
// 1686           {
// 1687            unsigned char bytes[4]; 
// 1688            unsigned long int long_word;
// 1689           }temp2; 
// 1690          p=buf_rx_ppp+22;
        MOVW	R31:R30, R27:R26
        ADIW	R31:R30, 22
// 1691          temp1.word=0;
        LDI	R18, 0
        LDI	R19, 0
        ST	Y, R18
        STD	Y+1, R18
// 1692          temp2.long_word=0;
        STD	Y+2, R18
        STD	Y+3, R18
        STD	Y+4, R18
        STD	Y+5, R18
        RJMP	??calc_crc_udp_2_0
// 1693 
// 1694         while( count > 1 )  {
// 1695            /*  This is the inner loop */  
// 1696                temp1.bytes[0]=*p;
??calc_crc_udp_2_1:
        LD	R18, Z
        ST	Y, R18
// 1697                temp1.bytes[1]=*(p+1); 
        LDD	R18, Z+1
        STD	Y+1, R18
// 1698                temp2.long_word=temp2.long_word+temp1.word; 
        LD	R20, Y
        LDD	R21, Y+1
        LDD	R0, Y+2
        LDD	R1, Y+3
        LDD	R2, Y+4
        LDD	R3, Y+5
        ADD	R0, R20
        ADC	R1, R21
        ADC	R2, R19
        ADC	R3, R19
        STD	Y+2, R0
        STD	Y+3, R1
        STD	Y+4, R2
        STD	Y+5, R3
// 1699                p=p+2;         
        ADIW	R31:R30, 2
// 1700                count -= 2;
        SBIW	R25:R24, 2
// 1701                             }
??calc_crc_udp_2_0:
        CPI	R24, 2
        CPC	R25, R19
        BRCC	??calc_crc_udp_2_1
// 1702 
// 1703            /*  Add left-over byte, if any */
// 1704        if( count > 0 )   
        OR	R24, R25
        BREQ	??calc_crc_udp_2_2
// 1705                {
// 1706                //temp1.bytes[0]=0;
// 1707                //temp1.bytes[1]=*p; 
// 1708                temp1.bytes[0]=*p; 
        LD	R16, Z
        ST	Y, R16
// 1709                temp1.bytes[1]=0;
        STD	Y+1, R19
// 1710                temp2.long_word=temp2.long_word+temp1.word; 
        LD	R16, Y
        LDD	R17, Y+1
        LDD	R20, Y+2
        LDD	R21, Y+3
        LDD	R22, Y+4
        LDD	R23, Y+5
        ADD	R20, R16
        ADC	R21, R17
        ADC	R22, R19
        ADC	R23, R19
        STD	Y+2, R20
        STD	Y+3, R21
        STD	Y+4, R22
        STD	Y+5, R23
// 1711                } 
// 1712           
// 1713           
// 1714           
// 1715           temp1.bytes[0]=buf_rx_ppp[14];
??calc_crc_udp_2_2:
        MOVW	R31:R30, R27:R26
        LDD	R16, Z+14
        ST	Y, R16
// 1716           temp1.bytes[1]=buf_rx_ppp[15]; 
        LDD	R16, Z+15
        STD	Y+1, R16
// 1717           temp2.long_word=temp2.long_word+temp1.word;  
        LD	R16, Y
        LDD	R17, Y+1
        LDD	R20, Y+2
        LDD	R21, Y+3
        LDD	R22, Y+4
        LDD	R23, Y+5
        ADD	R20, R16
        ADC	R21, R17
        ADC	R22, R19
        ADC	R23, R19
        STD	Y+2, R20
        STD	Y+3, R21
        STD	Y+4, R22
        STD	Y+5, R23
// 1718           temp1.bytes[0]=buf_rx_ppp[16];
        LDD	R16, Z+16
        ST	Y, R16
// 1719           temp1.bytes[1]=buf_rx_ppp[17]; 
        LDD	R16, Z+17
        STD	Y+1, R16
// 1720           temp2.long_word=temp2.long_word+temp1.word;  
        LD	R16, Y
        LDD	R17, Y+1
        LDD	R20, Y+2
        LDD	R21, Y+3
        LDD	R22, Y+4
        LDD	R23, Y+5
        ADD	R20, R16
        ADC	R21, R17
        ADC	R22, R19
        ADC	R23, R19
        STD	Y+2, R20
        STD	Y+3, R21
        STD	Y+4, R22
        STD	Y+5, R23
// 1721           
// 1722           temp1.bytes[0]=buf_rx_ppp[18];
        LDD	R16, Z+18
        ST	Y, R16
// 1723           temp1.bytes[1]=buf_rx_ppp[19]; 
        LDD	R16, Z+19
        STD	Y+1, R16
// 1724           temp2.long_word=temp2.long_word+temp1.word;  
        LD	R16, Y
        LDD	R17, Y+1
        LDD	R20, Y+2
        LDD	R21, Y+3
        LDD	R22, Y+4
        LDD	R23, Y+5
        ADD	R20, R16
        ADC	R21, R17
        ADC	R22, R19
        ADC	R23, R19
        STD	Y+2, R20
        STD	Y+3, R21
        STD	Y+4, R22
        STD	Y+5, R23
// 1725           temp1.bytes[0]=buf_rx_ppp[20];
        LDD	R16, Z+20
        ST	Y, R16
// 1726           temp1.bytes[1]=buf_rx_ppp[21]; 
        LDD	R16, Z+21
        STD	Y+1, R16
// 1727           temp2.long_word=temp2.long_word+temp1.word;  
        LD	R16, Y
        LDD	R17, Y+1
        LDD	R20, Y+2
        LDD	R21, Y+3
        LDD	R22, Y+4
        LDD	R23, Y+5
        ADD	R20, R16
        ADC	R21, R17
        ADC	R22, R19
        ADC	R23, R19
        STD	Y+2, R20
        STD	Y+3, R21
        STD	Y+4, R22
        STD	Y+5, R23
// 1728           
// 1729                      
// 1730       
// 1731           temp1.bytes[0]=0;
        ST	Y, R19
// 1732           temp1.bytes[1]=0x11; 
        LDI	R16, 17
        STD	Y+1, R16
// 1733           temp2.long_word=temp2.long_word+temp1.word;  
        LD	R16, Y
        LDD	R17, Y+1
        LDD	R20, Y+2
        LDD	R21, Y+3
        LDD	R22, Y+4
        LDD	R23, Y+5
        ADD	R20, R16
        ADC	R21, R17
        ADC	R22, R19
        ADC	R23, R19
        STD	Y+2, R20
        STD	Y+3, R21
        STD	Y+4, R22
        STD	Y+5, R23
// 1734            
// 1735           temp1.bytes[0]=buf_rx_ppp[26];                                //äëčíŕ
        LDD	R16, Z+26
        ST	Y, R16
// 1736           temp1.bytes[1]=buf_rx_ppp[27]; 
        LDD	R16, Z+27
        STD	Y+1, R16
// 1737           temp2.long_word=temp2.long_word+temp1.word; 
        LD	R16, Y
        LDD	R17, Y+1
        LDD	R20, Y+2
        LDD	R21, Y+3
        LDD	R22, Y+4
        LDD	R23, Y+5
        ADD	R20, R16
        ADC	R21, R17
        ADC	R22, R19
        ADC	R23, R19
        STD	Y+2, R20
        STD	Y+3, R21
        STD	Y+4, R22
        STD	Y+5, R23
        RJMP	??calc_crc_udp_2_3
// 1738          
// 1739       
// 1740           
// 1741          
// 1742           
// 1743     
// 1744            /*  Fold 32-bit sum to 16 bits */
// 1745        while (temp2.long_word>>16)
// 1746            temp2.long_word = (temp2.long_word & 0xffff) + (temp2.long_word >> 16);
??calc_crc_udp_2_4:
        LDD	R17, Y+3
        LDI	R18, 0
        LDD	R22, Y+4
        LDD	R23, Y+5
        MOV	R20, R22
        MOV	R21, R23
        LDI	R22, 0
        ADD	R20, R16
        ADC	R21, R17
        ADC	R22, R18
        STD	Y+2, R20
        STD	Y+3, R21
        STD	Y+4, R22
        STD	Y+5, R18
??calc_crc_udp_2_3:
        LDD	R18, Y+4
        LDD	R19, Y+5
        LDI	R16, 0
        OR	R16, R18
        OR	R16, R19
        LDD	R16, Y+2
        BRNE	??calc_crc_udp_2_4
// 1747 
// 1748       temp1.bytes[0]=~temp2.bytes[0];
        COM	R16
        ST	Y, R16
// 1749       temp1.bytes[1]=~temp2.bytes[1]; 
        LDD	R16, Y+3
        COM	R16
        STD	Y+1, R16
// 1750           
// 1751        return(temp1.word);
        LD	R16, Y
        LDD	R17, Y+1
        ADIW	R29:R28, 6
        CFI CFA_Y Y+4
        LDI	R30, 4
        JMP	?EPILOGUE_B4_L09
        CFI EndBlock cfiBlock12
// 1752       }
// 1753  
// 1754  
// 1755  
// 1756  

        RSEG CODE:CODE:NOROOT(1)
// 1757  unsigned char proc_ppp_packet(unsigned char *buf_rx_ppp,unsigned int count_rx_ppp)
proc_ppp_packet:
        CFI Block cfiBlock13 Using cfiCommon0
        CFI Function proc_ppp_packet
// 1758  {                
        FUNCALL proc_ppp_packet, pppfcs16
        LOCFRAME CSTACK, 14, STACK
        LOCFRAME RSTACK, 2, STACK
        FUNCALL proc_ppp_packet, calc_crc_ip
        LOCFRAME CSTACK, 14, STACK
        LOCFRAME RSTACK, 2, STACK
        FUNCALL proc_ppp_packet, calc_crc_udp_2
        LOCFRAME CSTACK, 14, STACK
        LOCFRAME RSTACK, 2, STACK
        FUNCALL proc_ppp_packet, proc_udp_data
        LOCFRAME CSTACK, 14, STACK
        LOCFRAME RSTACK, 2, STACK
        CALL	?PROLOGUE10_L09
        CFI R9 Frame(CFA_Y, -1)
        CFI R8 Frame(CFA_Y, -2)
        CFI R7 Frame(CFA_Y, -3)
        CFI R6 Frame(CFA_Y, -4)
        CFI R5 Frame(CFA_Y, -5)
        CFI R4 Frame(CFA_Y, -6)
        CFI R27 Frame(CFA_Y, -7)
        CFI R26 Frame(CFA_Y, -8)
        CFI R25 Frame(CFA_Y, -9)
        CFI R24 Frame(CFA_Y, -10)
        CFI CFA_Y Y+10
        REQUIRE	?Register_R4_is_cg_reg
        REQUIRE	?Register_R5_is_cg_reg
        REQUIRE	?Register_R6_is_cg_reg
        REQUIRE	?Register_R8_is_cg_reg
        REQUIRE	?Register_R9_is_cg_reg
        SBIW	R29:R28, 4
        CFI CFA_Y Y+14
        MOVW	R27:R26, R17:R16
        MOVW	R5:R4, R19:R18
// 1759     unsigned int i;
// 1760     unsigned char vol_length_opt;
// 1761     unsigned char ind_opt,count_length_opt;
// 1762      
// 1763      struct
// 1764  {
// 1765   unsigned char mru :1;  
// 1766   unsigned char accm :1; 
// 1767   unsigned char aut_prot :1; 
// 1768   unsigned char pfc :1;
// 1769   unsigned char acfc :1;
// 1770   unsigned char zap_opt:1;
// 1771   unsigned char ip_self:1;
// 1772   unsigned char ip_pri_dns:1;
// 1773  }fl_opt;     
// 1774                            
// 1775   
// 1776   
// 1777   union
// 1778  {
// 1779  unsigned char bytes[2]; 
// 1780  unsigned int word;
// 1781  } Crc_out,temp,length;
// 1782     
// 1783     
// 1784    
// 1785  
// 1786   if(count_rx_ppp<=5)return(1); 
        CPI	R18, 6
        LDI	R16, 0
        CPC	R5, R16
        BRCC	??proc_ppp_packet_0
??proc_ppp_packet_1:
        LDI	R16, 1
        ADIW	R29:R28, 4
        CFI CFA_Y Y+10
        LDI	R30, 10
        JMP	?EPILOGUE_B10_L09
        CFI CFA_Y Y+14
// 1787    
// 1788     //ďîäń÷ĺň FCS      
// 1789   if (pppfcs16(PPPINITFCS16,&buf_rx_ppp[1],count_rx_ppp-2)!=PPPGOODFCS16)return(1);       
??proc_ppp_packet_0:
        MOVW	R21:R20, R5:R4
        SUBI	R20, 2
        SBCI	R21, 0
        MOVW	R19:R18, R27:R26
        SUBI	R18, 255
        SBCI	R19, 255
        LDI	R16, 255
        LDI	R17, 255
        CALL	pppfcs16
        CPI	R16, 184
        LDI	R18, 240
        CPC	R17, R18
        BRNE	??proc_ppp_packet_1
// 1790  
// 1791  
// 1792   if ((buf_rx_ppp[1]==0xff)&&(buf_rx_ppp[2]==0x03)&&(buf_rx_ppp[3]==0xc0)&&(buf_rx_ppp[4]==0x21)&&(layer_PPP!=LAYER_HW))rcvd_protokol=PR_LCP; 
        LDI	R16, LOW(cnt_lcp_tm_out)
        LDI	R17, (cnt_lcp_tm_out) >> 8
        MOVW	R31:R30, R27:R26
        LDD	R18, Z+1
        CPI	R18, 255
        BRNE	??proc_ppp_packet_2
        LDD	R18, Z+2
        CPI	R18, 3
        BRNE	??proc_ppp_packet_2
        LDD	R18, Z+3
        CPI	R18, 192
        BRNE	??proc_ppp_packet_2
        LDD	R18, Z+4
        CPI	R18, 33
        BRNE	??proc_ppp_packet_2
        LDS	R18, layer_PPP
        TST	R18
        BREQ	??proc_ppp_packet_2
        LDI	R18, 0
        MOVW	R31:R30, R17:R16
        STD	Z+4, R18
// 1793   if ((buf_rx_ppp[1]==0xc0)&&(buf_rx_ppp[2]==0x23)&&(layer_PPP==LAYER_PAP))rcvd_protokol=PR_PAP;
??proc_ppp_packet_2:
        MOVW	R31:R30, R27:R26
        LDD	R18, Z+1
        CPI	R18, 192
        BRNE	??proc_ppp_packet_3
        LDD	R18, Z+2
        CPI	R18, 35
        BRNE	??proc_ppp_packet_3
        LDS	R18, layer_PPP
        CPI	R18, 2
        BRNE	??proc_ppp_packet_3
        LDI	R18, 1
        MOVW	R31:R30, R17:R16
        STD	Z+4, R18
// 1794   if ((buf_rx_ppp[1]==0x80)&&(buf_rx_ppp[2]==0x21)&&((layer_PPP==LAYER_IP)||(layer_PPP==LAYER_IPCP)))rcvd_protokol=PR_IPCP; 
??proc_ppp_packet_3:
        MOVW	R31:R30, R27:R26
        LDD	R18, Z+1
        CPI	R18, 128
        BRNE	??proc_ppp_packet_4
        LDD	R18, Z+2
        CPI	R18, 33
        BRNE	??proc_ppp_packet_4
        LDS	R18, layer_PPP
        CPI	R18, 4
        BREQ	??proc_ppp_packet_5
        LDS	R18, layer_PPP
        CPI	R18, 3
        BRNE	??proc_ppp_packet_4
??proc_ppp_packet_5:
        LDI	R18, 2
        MOVW	R31:R30, R17:R16
        STD	Z+4, R18
// 1795   if ((buf_rx_ppp[1]==0x21)&&(layer_PPP==LAYER_IP))rcvd_protokol=PR_IP; 
??proc_ppp_packet_4:
        MOVW	R31:R30, R27:R26
        LDD	R18, Z+1
        CPI	R18, 33
        BRNE	??proc_ppp_packet_6
        LDS	R18, layer_PPP
        CPI	R18, 4
        BRNE	??proc_ppp_packet_6
        LDI	R18, 3
        MOVW	R31:R30, R17:R16
        STD	Z+4, R18
// 1796   
// 1797   
// 1798 
// 1799  
// 1800   
// 1801      
// 1802      switch (rcvd_protokol) 
??proc_ppp_packet_6:
        MOVW	R19:R18, R5:R4
        SUBI	R18, 6
        SBCI	R19, 0
        LDI	R20, LOW(cnt_pap_tm_out)
        LDI	R21, (cnt_pap_tm_out) >> 8
        LDI	R24, LOW(ip_self)
        LDI	R25, (ip_self) >> 8
        MOVW	R31:R30, R17:R16
        LDD	R22, Z+4
        SUBI	R22, 0
        BREQ	??proc_ppp_packet_7
        DEC	R22
        BRNE	$+2+2
        RJMP	??proc_ppp_packet_8
        DEC	R22
        BRNE	$+2+2
        RJMP	??proc_ppp_packet_9
        DEC	R22
        BRNE	$+2+2
        RJMP	??proc_ppp_packet_10
        RJMP	??proc_ppp_packet_1
// 1803       {
// 1804        case PR_LCP:
// 1805  
// 1806            
// 1807               // çäĺńü  ďđîâĺđęŕ îáůĺé äëčíű     
// 1808               length.bytes[1]=buf_rx_ppp[7];
??proc_ppp_packet_7:
        MOVW	R31:R30, R27:R26
        LDD	R18, Z+7
        STD	Y+1, R18
// 1809               length.bytes[0]=buf_rx_ppp[8];
        LDD	R18, Z+8
        ST	Y, R18
// 1810               if (length.word!=count_rx_ppp-8)return(1);
        LD	R18, Y
        LDD	R19, Y+1
        MOVW	R25:R24, R5:R4
        SBIW	R25:R24, 8
        CP	R18, R24
        CPC	R19, R25
        BREQ	$+2+2
        RJMP	??proc_ppp_packet_1
// 1811               if (count_rx_ppp>MAX_DL_LCP)return(1);//íĺ âîńďđčíčěŕňü äëčííűĺ ďŕęĺňű                           
        LDI	R18, 41
        CP	R4, R18
        LDI	R18, 0
        CPC	R5, R18
        BRCS	$+2+2
        RJMP	??proc_ppp_packet_1
// 1812               
// 1813               vol_length_opt=count_rx_ppp-12;
        LDI	R18, 244
        ADD	R4, R18
// 1814               count_length_opt=0;
        CLR	R2
// 1815               ind_opt=9;  
        LDI	R23, 9
// 1816              
// 1817               ln_rejc_lcp=0;
        MOVW	R31:R30, R17:R16
        ADIW	R31:R30, 61
        ST	Z, R2
// 1818               ln_ack_lcp=0;
        MOVW	R31:R30, R21:R20
        STD	Z+59, R2
// 1819               ln_nak_lcp=0;
        MOVW	R31:R30, R17:R16
        ADIW	R31:R30, 62
        ST	Z, R2
// 1820               ln_rej_lcp=0; 
        MOVW	R31:R30, R21:R20
        STD	Z+58, R2
// 1821               
// 1822                                   
// 1823              
// 1824                            
// 1825               switch (buf_rx_ppp[5])      
        LDD	R18, Z+28
        MOVW	R31:R30, R27:R26
        LDD	R19, Z+5
        SUBI	R19, 1
        BREQ	??proc_ppp_packet_11
        DEC	R19
        BRNE	$+2+2
        RJMP	??proc_ppp_packet_12
        DEC	R19
        BRNE	$+2+2
        RJMP	??proc_ppp_packet_13
        DEC	R19
        BRNE	$+2+2
        RJMP	??proc_ppp_packet_13
        RJMP	??proc_ppp_packet_1
// 1826                   {
// 1827                   case CONF_REQ :          
// 1828                  // (ĺńëč âîîáůĺ íĺ ňĺ îďöčč ňî ńáđîń ęîäŕ äŕňü) 
// 1829                       //ďđîâĺđęŕ ďđĺäëîćĺííîé ęîíôčăóđŕöčč îň ńĺđâĺđŕ    
// 1830                       //ĺńëč íóćíŕ˙ ęîíôčăóđŕöč˙ ňî ńîáűňčĺ RCR+                  
// 1831                       //ĺńëč íĺň ňî RCR-;                       
// 1832                     
// 1833              /*
// 1834                    for(i=0;i<vol_length_opt;i++)              //ńîăëŕřĺíčĺ íŕ ëţáóţ ęîíôčăóđŕöčţ
// 1835                        {
// 1836                        buf_ack_opt_lcp[ln_ack_lcp]=buf_rx_ppp[ind_opt];
// 1837                        ln_ack_lcp++;
// 1838                        //count_length_opt++;
// 1839                        ind_opt++;
// 1840                        }
// 1841                   
// 1842                   LCP_event=RCR_PL;
// 1843                   i_scan_lcp=buf_rx_ppp[6];    // ďđčńâîĺíčĺ čäĺíňčôčęŕňîđŕ                   
// 1844                   return(1); 
// 1845                      */
// 1846                 
// 1847                     fl_opt.zap_opt=0;  
??proc_ppp_packet_11:
        CLT
        BLD	R6, 5
        RJMP	??proc_ppp_packet_14
// 1848                 
// 1849 next_opt_lcp_11:  if(count_length_opt==vol_length_opt) goto end_pcp_opt_11;
// 1850                                                                 //îáđŕáîňŕíű âńĺ îďöčč
// 1851         switch(buf_rx_ppp[ind_opt])
// 1852         {
// 1853            case AUT_PROT:
// 1854 
// 1855                 if ((buf_rx_ppp[ind_opt+2]!=0xc0)||(buf_rx_ppp[ind_opt+3]!=0x23))
// 1856                 {
// 1857                   fl_opt.zap_opt=1;
// 1858                   
// 1859                                           
// 1860                   buf_nak_opt_lcp[ln_nak_lcp]=3;
// 1861                   ln_nak_lcp++;                                        
// 1862                   buf_nak_opt_lcp[ln_nak_lcp]=4;
// 1863                   ln_nak_lcp++;
// 1864                   buf_nak_opt_lcp[ln_nak_lcp]=0xc0; 
// 1865                   ln_nak_lcp++;                     
// 1866                   buf_nak_opt_lcp[ln_nak_lcp]=0x23; 
// 1867                   ln_nak_lcp++;        
// 1868                  
// 1869                 //  count_length_opt=count_length_opt+buf_rx_ppp[ind_opt+1];        
// 1870                 //  ind_opt=ind_opt+buf_rx_ppp[ind_opt+1];      
// 1871                 }
// 1872                 else for(i=0;i<buf_rx_ppp[ind_opt+1];i++){buf_ack_opt_lcp[ln_ack_lcp]=buf_rx_ppp[ind_opt+i];ln_ack_lcp++;}
??proc_ppp_packet_15:
        MOVW	R9:R8, R25:R24
        ADD	R8, R0
        ADC	R9, R1
        MOVW	R31:R30, R27:R26
        ADD	R30, R8
        ADC	R31, R9
        LD	R22, Z
        MOVW	R31:R30, R21:R20
        LDD	R8, Z+59
        MOVW	R31:R30, R17:R16
        ADD	R30, R8
        ADC	R31, R1
        STD	Z+5, R22
        MOVW	R31:R30, R21:R20
        LDD	R22, Z+59
        INC	R22
        STD	Z+59, R22
        ADIW	R25:R24, 1
??proc_ppp_packet_16:
        MOVW	R31:R30, R19:R18
        LDD	R22, Z+1
        CP	R24, R22
        CPC	R25, R1
        BRCS	??proc_ppp_packet_15
// 1873                 
// 1874             count_length_opt=count_length_opt+buf_rx_ppp[ind_opt+1];        
??proc_ppp_packet_17:
        MOVW	R31:R30, R19:R18
        LDD	R22, Z+1
        ADD	R2, R22
// 1875             ind_opt=ind_opt+buf_rx_ppp[ind_opt+1];     
        LDD	R18, Z+1
        ADD	R23, R18
// 1876             goto next_opt_lcp_11;                                  
??proc_ppp_packet_14:
        CP	R2, R4
        BRNE	$+2+2
        RJMP	??proc_ppp_packet_18
        MOV	R0, R23
        CLR	R1
        MOVW	R19:R18, R27:R26
        ADD	R18, R0
        ADC	R19, R1
        MOVW	R31:R30, R19:R18
        LD	R22, Z
        SUBI	R22, 3
        BREQ	$+2+2
        RJMP	??proc_ppp_packet_19
        LDD	R22, Z+2
        CPI	R22, 192
        BRNE	??proc_ppp_packet_20
        LDD	R22, Z+3
        CPI	R22, 35
        BREQ	??proc_ppp_packet_21
??proc_ppp_packet_20:
        SET
        BLD	R6, 5
        LDI	R22, 3
        MOVW	R31:R30, R17:R16
        ADIW	R31:R30, 62
        LD	R0, Z
        MOVW	R31:R30, R17:R16
        ADD	R30, R0
        ADC	R31, R1
        STD	Z+33, R22
        MOVW	R31:R30, R17:R16
        ADIW	R31:R30, 62
        LD	R22, Z
        INC	R22
        ST	Z, R22
        LDI	R22, 4
        MOVW	R31:R30, R17:R16
        ADIW	R31:R30, 62
        LD	R0, Z
        MOVW	R31:R30, R17:R16
        ADD	R30, R0
        ADC	R31, R1
        STD	Z+33, R22
        MOVW	R31:R30, R17:R16
        ADIW	R31:R30, 62
        LD	R22, Z
        INC	R22
        ST	Z, R22
        LDI	R22, 192
        MOVW	R31:R30, R17:R16
        ADIW	R31:R30, 62
        LD	R0, Z
        MOVW	R31:R30, R17:R16
        ADD	R30, R0
        ADC	R31, R1
        STD	Z+33, R22
        MOVW	R31:R30, R17:R16
        ADIW	R31:R30, 62
        LD	R22, Z
        INC	R22
        ST	Z, R22
        LDI	R22, 35
        MOVW	R31:R30, R17:R16
        ADIW	R31:R30, 62
        LD	R0, Z
        MOVW	R31:R30, R17:R16
        ADD	R30, R0
        ADC	R31, R1
        STD	Z+33, R22
        MOVW	R31:R30, R17:R16
        ADIW	R31:R30, 62
        LD	R22, Z
        INC	R22
        ST	Z, R22
        RJMP	??proc_ppp_packet_17
??proc_ppp_packet_21:
        LDI	R24, 0
        LDI	R25, 0
        RJMP	??proc_ppp_packet_16
// 1877            
// 1878              default:             
// 1879              for(i=0;i<buf_rx_ppp[ind_opt+1];i++){buf_ack_opt_lcp[ln_ack_lcp]=buf_rx_ppp[ind_opt+i];ln_ack_lcp++;}
??proc_ppp_packet_19:
        LDI	R24, 0
        LDI	R25, 0
        RJMP	??proc_ppp_packet_22
??proc_ppp_packet_23:
        MOVW	R9:R8, R25:R24
        ADD	R8, R0
        ADC	R9, R1
        MOVW	R31:R30, R27:R26
        ADD	R30, R8
        ADC	R31, R9
        LD	R22, Z
        MOVW	R31:R30, R21:R20
        LDD	R8, Z+59
        MOVW	R31:R30, R17:R16
        ADD	R30, R8
        ADC	R31, R1
        STD	Z+5, R22
        MOVW	R31:R30, R21:R20
        LDD	R22, Z+59
        INC	R22
        STD	Z+59, R22
        ADIW	R25:R24, 1
??proc_ppp_packet_22:
        MOVW	R31:R30, R19:R18
        LDD	R22, Z+1
        CP	R24, R22
        CPC	R25, R1
        BRCS	??proc_ppp_packet_23
// 1880              for(i=0;i<buf_rx_ppp[ind_opt+1];i++){buf_nak_opt_lcp[ln_nak_lcp]=buf_rx_ppp[ind_opt+i];ln_nak_lcp++;}
        LDI	R24, 0
        LDI	R25, 0
??proc_ppp_packet_24:
        MOVW	R31:R30, R19:R18
        LDD	R22, Z+1
        CP	R24, R22
        CPC	R25, R1
        BRCS	$+2+2
        RJMP	??proc_ppp_packet_17
        MOVW	R9:R8, R25:R24
        ADD	R8, R0
        ADC	R9, R1
        MOVW	R31:R30, R27:R26
        ADD	R30, R8
        ADC	R31, R9
        LD	R3, Z
        MOVW	R31:R30, R17:R16
        ADIW	R31:R30, 62
        LD	R8, Z
        MOVW	R31:R30, R17:R16
        ADD	R30, R8
        ADC	R31, R1
        STD	Z+33, R3
        MOVW	R31:R30, R17:R16
        ADIW	R31:R30, 62
        LD	R22, Z
        INC	R22
        ST	Z, R22
        ADIW	R25:R24, 1
        RJMP	??proc_ppp_packet_24
// 1881              count_length_opt=count_length_opt+buf_rx_ppp[ind_opt+1];        
// 1882              ind_opt=ind_opt+buf_rx_ppp[ind_opt+1];   
// 1883              goto next_opt_lcp_11; 
// 1884         }
// 1885                          
// 1886    end_pcp_opt_11:                     
// 1887                 
// 1888                   if(fl_opt.zap_opt==0)LCP_event=RCR_PL;else LCP_event=RCR_MI;
??proc_ppp_packet_18:
        BST	R6, 5
        BRTS	??proc_ppp_packet_25
        LDI	R18, 6
        RJMP	??proc_ppp_packet_26
??proc_ppp_packet_25:
        LDI	R18, 7
??proc_ppp_packet_26:
        MOVW	R31:R30, R17:R16
        STD	Z+3, R18
// 1889                   fl_opt.zap_opt=0;
// 1890                   i_scan_lcp=buf_rx_ppp[6];    // ďđčńâîĺíčĺ čäĺíňčôčęŕňîđŕ                   
        MOVW	R31:R30, R27:R26
        LDD	R16, Z+6
        MOVW	R31:R30, R21:R20
        STD	Z+29, R16
        RJMP	??proc_ppp_packet_1
// 1891                   return(1); 
// 1892                      
// 1893      /*              
// 1894                   
// 1895        next_opt_lcp_1:  if(count_length_opt==vol_length_opt) { 
// 1896     
// 1897                                                              goto end_pcp_opt_1;
// 1898                                                              }   //îáđŕáîňŕíű âńĺ îďöčč
// 1899                        
// 1900                        switch(buf_rx_ppp[ind_opt])
// 1901                           {
// 1902                             case MRU: 
// 1903    
// 1904                                  if (buf_rx_ppp[ind_opt+1]!=4)
// 1905                                       {                                        
// 1906                                         for(i=5;i<=count_rx_ppp-4;i++){buf_rejc_opt_lcp[ln_rejc_lcp]=buf_rx_ppp[i];ln_rejc_lcp++;}
// 1907                                         LCP_event=RUC;
// 1908                                         return(1);
// 1909                                         } 
// 1910                                  if ((buf_rx_ppp[ind_opt+2]==DL_PPP_IN_HI)&&(buf_rx_ppp[ind_opt+3]==DL_PPP_IN_LO)) 
// 1911                                        {    
// 1912                                         fl_opt.mru=1;
// 1913                                         buf_ack_opt_lcp[ln_ack_lcp]=buf_rx_ppp[ind_opt];
// 1914                                         ln_ack_lcp++;
// 1915                                         
// 1916                                         buf_ack_opt_lcp[ln_ack_lcp]=buf_rx_ppp[ind_opt+1];
// 1917                                         ln_ack_lcp++;
// 1918                                         
// 1919                                         buf_ack_opt_lcp[ln_ack_lcp]=buf_rx_ppp[ind_opt+2]; 
// 1920                                         ln_ack_lcp++;  
// 1921                                         
// 1922                                         buf_ack_opt_lcp[ln_ack_lcp]=buf_rx_ppp[ind_opt+3]; 
// 1923                                         ln_ack_lcp++; 
// 1924                                        }
// 1925                                      else   
// 1926                                         {
// 1927                                         buf_nak_opt_lcp[ln_nak_lcp]=buf_rx_ppp[ind_opt];
// 1928                                         ln_nak_lcp++;
// 1929                                         
// 1930                                         buf_nak_opt_lcp[ln_nak_lcp]=buf_rx_ppp[ind_opt+1];
// 1931                                         ln_nak_lcp++;
// 1932                                         
// 1933                                         buf_nak_opt_lcp[ln_nak_lcp]=buf_rx_ppp[ind_opt+2]; 
// 1934                                         ln_nak_lcp++;  
// 1935                                         
// 1936                                         buf_nak_opt_lcp[ln_nak_lcp]=buf_rx_ppp[ind_opt+3]; 
// 1937                                         ln_nak_lcp++; 
// 1938                                         }  
// 1939                                  count_length_opt=count_length_opt+buf_rx_ppp[ind_opt+1];        
// 1940                                  ind_opt=ind_opt+buf_rx_ppp[ind_opt+1];
// 1941                                  goto next_opt_lcp_1;   
// 1942                                  
// 1943                             case ACCM:       
// 1944                                   if (buf_rx_ppp[ind_opt+1]!=6)
// 1945                                       {
// 1946                                         for(i=5;i<=count_rx_ppp-4;i++){buf_rejc_opt_lcp[ln_rejc_lcp]=buf_rx_ppp[i];ln_rejc_lcp++;}
// 1947                                         LCP_event=RUC;
// 1948                                         return(1);
// 1949                                         } 
// 1950                                     
// 1951                                     if ( 
// 1952                                            (buf_rx_ppp[ind_opt+2]==0)&&
// 1953                                            (buf_rx_ppp[ind_opt+3]==0)&& 
// 1954                                            (buf_rx_ppp[ind_opt+4]==0)&&
// 1955                                            (buf_rx_ppp[ind_opt+5]==0) 
// 1956                                         ) 
// 1957                                        
// 1958                                        {   
// 1959                                        
// 1960                                         fl_opt.accm=1;
// 1961                                         buf_ack_opt_lcp[ln_ack_lcp]=buf_rx_ppp[ind_opt];
// 1962                                         ln_ack_lcp++;
// 1963                                         
// 1964                                         buf_ack_opt_lcp[ln_ack_lcp]=buf_rx_ppp[ind_opt+1];
// 1965                                         ln_ack_lcp++;
// 1966                                         
// 1967                                         buf_ack_opt_lcp[ln_ack_lcp]=buf_rx_ppp[ind_opt+2]; 
// 1968                                         ln_ack_lcp++;  
// 1969                                         
// 1970                                         buf_ack_opt_lcp[ln_ack_lcp]=buf_rx_ppp[ind_opt+3]; 
// 1971                                         ln_ack_lcp++; 
// 1972                                         
// 1973                                         buf_ack_opt_lcp[ln_ack_lcp]=buf_rx_ppp[ind_opt+4]; 
// 1974                                         ln_ack_lcp++;
// 1975                                         
// 1976                                         buf_ack_opt_lcp[ln_ack_lcp]=buf_rx_ppp[ind_opt+5]; 
// 1977                                         ln_ack_lcp++;
// 1978                                        }
// 1979                                      else   
// 1980                                         {
// 1981                                         buf_nak_opt_lcp[ln_nak_lcp]=buf_rx_ppp[ind_opt];
// 1982                                         ln_nak_lcp++;
// 1983                                         
// 1984                                         buf_nak_opt_lcp[ln_nak_lcp]=buf_rx_ppp[ind_opt+1];
// 1985                                         ln_nak_lcp++;
// 1986                                         
// 1987                                         buf_nak_opt_lcp[ln_nak_lcp]=buf_rx_ppp[ind_opt+2]; 
// 1988                                         ln_nak_lcp++;  
// 1989                                         
// 1990                                         buf_nak_opt_lcp[ln_nak_lcp]=buf_rx_ppp[ind_opt+3]; 
// 1991                                         ln_nak_lcp++;    
// 1992                                         
// 1993                                         buf_nak_opt_lcp[ln_nak_lcp]=buf_rx_ppp[ind_opt+4]; 
// 1994                                         ln_nak_lcp++;  
// 1995                                         
// 1996                                         buf_nak_opt_lcp[ln_nak_lcp]=buf_rx_ppp[ind_opt+5]; 
// 1997                                         ln_nak_lcp++; 
// 1998                                         }  
// 1999                                  count_length_opt=count_length_opt+buf_rx_ppp[ind_opt+1];        
// 2000                                  ind_opt=ind_opt+buf_rx_ppp[ind_opt+1];
// 2001                                  goto next_opt_lcp_1;                                       
// 2002 
// 2003                                      
// 2004                             
// 2005                             case AUT_PROT:
// 2006                                       if (((buf_rx_ppp[ind_opt+1]-2)%2)!=0) 
// 2007                                           {
// 2008                                            for(i=5;i<=count_rx_ppp-4;i++){buf_rejc_opt_lcp[ln_rejc_lcp]=buf_rx_ppp[i];ln_rejc_lcp++;}
// 2009                                            LCP_event=RUC;
// 2010                                            return(1);
// 2011                                           }  
// 2012                                       for(i=0;i<(buf_rx_ppp[ind_opt+1]-2);i=i+2)               
// 2013                                          {
// 2014                                          if ((buf_rx_ppp[ind_opt+2+i]==0xc0)&&(buf_rx_ppp[ind_opt+3+i]==0x23)) 
// 2015                                               {
// 2016                                                
// 2017                                                fl_opt.aut_prot=1;
// 2018                                                
// 2019                                                buf_ack_opt_lcp[ln_ack_lcp]=buf_rx_ppp[ind_opt];
// 2020                                                ln_ack_lcp++;
// 2021                                    
// 2022                                                buf_ack_opt_lcp[ln_ack_lcp]=buf_rx_ppp[ind_opt+1];
// 2023                                                ln_ack_lcp++;
// 2024                                         
// 2025                                                buf_ack_opt_lcp[ln_ack_lcp]=buf_rx_ppp[ind_opt+2+i]; 
// 2026                                                ln_ack_lcp++;  
// 2027                                         
// 2028                                                buf_ack_opt_lcp[ln_ack_lcp]=buf_rx_ppp[ind_opt+3+i]; 
// 2029                                                ln_ack_lcp++; 
// 2030                                               }
// 2031                                             else   
// 2032                                              {
// 2033                                              
// 2034                                              if (fl_opt.zap_opt==0)
// 2035                                                  {
// 2036                                                   fl_opt.zap_opt=1;                                            
// 2037                                                   buf_nak_opt_lcp[ln_nak_lcp]=buf_rx_ppp[ind_opt];
// 2038                                                   ln_nak_lcp++;                                        
// 2039                                                   buf_nak_opt_lcp[ln_nak_lcp]=buf_rx_ppp[ind_opt+1];
// 2040                                                   ln_nak_lcp++;
// 2041                                                   }
// 2042                                              buf_nak_opt_lcp[ln_nak_lcp]=buf_rx_ppp[ind_opt+2+i]; 
// 2043                                              ln_nak_lcp++;                     
// 2044                                               buf_nak_opt_lcp[ln_nak_lcp]=buf_rx_ppp[ind_opt+3+i]; 
// 2045                                              ln_nak_lcp++;                                             
// 2046                                             }              
// 2047                                             
// 2048                                            }  
// 2049                                  count_length_opt=count_length_opt+buf_rx_ppp[ind_opt+1];        
// 2050                                  ind_opt=ind_opt+buf_rx_ppp[ind_opt+1];          
// 2051                                  goto next_opt_lcp_1;                   
// 2052                                   
// 2053                             case PFC:
// 2054                                   if (buf_rx_ppp[ind_opt+1]!=2)
// 2055                                       {                                        
// 2056                                         for(i=5;i<=count_rx_ppp-4;i++){buf_rejc_opt_lcp[ln_rejc_lcp]=buf_rx_ppp[i];ln_rejc_lcp++;}
// 2057                                         LCP_event=RUC;
// 2058                                         return(1);
// 2059                                         } 
// 2060 
// 2061 
// 2062                                         fl_opt.pfc=1;
// 2063                                         buf_ack_opt_lcp[ln_ack_lcp]=buf_rx_ppp[ind_opt];
// 2064                                         ln_ack_lcp++;
// 2065                                         
// 2066                                         buf_ack_opt_lcp[ln_ack_lcp]=buf_rx_ppp[ind_opt+1];
// 2067                                         ln_ack_lcp++;                                        
// 2068                                         
// 2069                                         count_length_opt=count_length_opt+buf_rx_ppp[ind_opt+1];        
// 2070                                         ind_opt=ind_opt+buf_rx_ppp[ind_opt+1];          
// 2071                                         goto next_opt_lcp_1;   
// 2072                                          
// 2073                                   
// 2074                             case ACFC:      
// 2075                                    if (buf_rx_ppp[ind_opt+1]!=2)
// 2076                                       {                                        
// 2077                                         for(i=5;i<=count_rx_ppp-4;i++){buf_rejc_opt_lcp[ln_rejc_lcp]=buf_rx_ppp[i];ln_rejc_lcp++;}
// 2078                                         LCP_event=RUC;
// 2079                                         return(1);
// 2080                                         } 
// 2081                                         
// 2082                                         
// 2083                                         fl_opt.acfc=1;
// 2084                                         buf_ack_opt_lcp[ln_ack_lcp]=buf_rx_ppp[ind_opt];
// 2085                                         ln_ack_lcp++;
// 2086                                         
// 2087                                         buf_ack_opt_lcp[ln_ack_lcp]=buf_rx_ppp[ind_opt+1];
// 2088                                         ln_ack_lcp++;                                        
// 2089                                         
// 2090                                         count_length_opt=count_length_opt+buf_rx_ppp[ind_opt+1];        
// 2091                                         ind_opt=ind_opt+buf_rx_ppp[ind_opt+1];          
// 2092                                         goto next_opt_lcp_1;   
// 2093                             
// 2094                             default:
// 2095 
// 2096                                         for(i=0;i<buf_rx_ppp[ind_opt+1];i++){buf_rej_opt_lcp[ln_rej_lcp]=buf_rx_ppp[ind_opt+i];ln_rej_lcp++;}
// 2097                                         count_length_opt=count_length_opt+buf_rx_ppp[ind_opt+1];        
// 2098                                         ind_opt=ind_opt+buf_rx_ppp[ind_opt+1];      
// 2099                                   goto next_opt_lcp_1;        
// 2100                           }
// 2101                                             
// 2102  end_pcp_opt_1:        
// 2103                        
// 2104                    
// 2105                                                                                 
// 2106                        
// 2107                        if (ln_rej_lcp!=0)                    
// 2108                          {
// 2109      
// 2110                          LCP_event=RCR_MI;
// 2111                          fl_lcp2.nac_rej=1;
// 2112                          return(1); 
// 2113                          }
// 2114                        
// 2115                        
// 2116                       
// 2117                            
// 2118                       if(fl_opt.accm==0) 
// 2119                             {  
// 2120                             buf_nak_opt_lcp[ln_nak_lcp]=ACCM;
// 2121                             ln_nak_lcp++;                                        
// 2122                             buf_nak_opt_lcp[ln_nak_lcp]=6;
// 2123                             ln_nak_lcp++;
// 2124                             buf_nak_opt_lcp[ln_nak_lcp]=0; 
// 2125                             ln_nak_lcp++;  
// 2126                             buf_nak_opt_lcp[ln_nak_lcp]=0; 
// 2127                             ln_nak_lcp++;             
// 2128                             buf_nak_opt_lcp[ln_nak_lcp]=0; 
// 2129                             ln_nak_lcp++;                              
// 2130                             buf_nak_opt_lcp[ln_nak_lcp]=0; 
// 2131                             ln_nak_lcp++; 
// 2132                             }
// 2133                                      
// 2134                       if(fl_opt.aut_prot==0) 
// 2135                             {    
// 2136                               
// 2137                       
// 2138                          
// 2139                              
// 2140                             buf_nak_opt_lcp[ln_nak_lcp]=AUT_PROT;
// 2141                             ln_nak_lcp++;
// 2142                                         
// 2143                             buf_nak_opt_lcp[ln_nak_lcp]=4;
// 2144                             ln_nak_lcp++;
// 2145                                         
// 2146                             buf_nak_opt_lcp[ln_nak_lcp]=0xc0; 
// 2147                             ln_nak_lcp++;  
// 2148                             
// 2149                             buf_nak_opt_lcp[ln_nak_lcp]=0x23; 
// 2150                             ln_nak_lcp++;                    
// 2151                             }   
// 2152                       if(fl_opt.pfc==0) 
// 2153                             { 
// 2154                             buf_nak_opt_lcp[ln_nak_lcp]=PFC;
// 2155                             ln_nak_lcp++;
// 2156                                         
// 2157                             buf_nak_opt_lcp[ln_nak_lcp]=2;
// 2158                             ln_nak_lcp++; 
// 2159                             }                  
// 2160                      if(fl_opt.acfc==0) 
// 2161                             { 
// 2162                              buf_nak_opt_lcp[ln_nak_lcp]=ACFC;
// 2163                             ln_nak_lcp++;
// 2164                                         
// 2165                             buf_nak_opt_lcp[ln_nak_lcp]=2;
// 2166                             ln_nak_lcp++; 
// 2167                             }                   
// 2168                          
// 2169                 
// 2170                  
// 2171                                          
// 2172                          if (ln_nak_lcp!=0)                    
// 2173                          { 
// 2174        
// 2175                          LCP_event=RCR_MI;
// 2176                          fl_lcp2.nac_rej=0;  
// 2177                          i_scan_lcp=buf_rx_ppp[6];     // ďđčńâîĺíčĺ čäĺíňčôčęŕňîđŕ                 
// 2178                          return(1); 
// 2179                          } 
// 2180                        
// 2181                          if (ln_ack_lcp!=0)                    
// 2182                          {
// 2183                          
// 2184                          
// 2185                          LCP_event=RCR_PL;
// 2186                          i_scan_lcp=buf_rx_ppp[6];    // ďđčńâîĺíčĺ čäĺíňčôčęŕňîđŕ                   
// 2187                          return(1); 
// 2188                          }  
// 2189                       
// 2190                       
// 2191                         
// 2192                       break; 
// 2193                       */
// 2194                        
// 2195                   case CONF_ACK : 
// 2196                       //ďđîâĺđęŕ îďöčé (ĺńëč âîîáůĺ íĺ ňĺ îďöčč ňî ńáđîń ęîäŕ äŕňü)
// 2197                       //îďöčč ňŕ, ňî ńîáűňčĺ RCA
// 2198                     
// 2199                     if(buf_rx_ppp[6]!=i_scr_lcp)return(1); //ďđîâĺđęŕ čäĺíňčôčęŕňîđŕ
??proc_ppp_packet_12:
        LDD	R19, Z+6
        CP	R19, R18
        BREQ	$+2+2
        RJMP	??proc_ppp_packet_1
// 2200                     //íĺ îáđŕáŕňűâŕňü îďöčč
// 2201                     //ńđŕçó RCA
// 2202                     LCP_event=RCA;
        LDI	R18, 8
        MOVW	R31:R30, R17:R16
        STD	Z+3, R18
// 2203                     i_scr_lcp++;//ďđčđŕůĺíčĺ čäĺíňčôčęŕňîđŕ                      
        MOVW	R31:R30, R21:R20
        LDD	R16, Z+28
        INC	R16
        STD	Z+28, R16
        RJMP	??proc_ppp_packet_1
// 2204                     return(1);  
// 2205                     
// 2206                     /*
// 2207    next_opt_lcp_2:  if(count_length_opt==vol_length_opt) goto end_pcp_opt_2;   //îáđŕáîňŕíű âńĺ îďöčč
// 2208                        
// 2209                        switch(buf_rx_ppp[ind_opt])
// 2210                           {
// 2211                             case ACCM:       
// 2212                                   if (buf_rx_ppp[ind_opt+1]!=6)
// 2213                                       {
// 2214                                         for(i=5;i<=count_rx_ppp-4;i++){buf_rejc_opt_lcp[ln_rejc_lcp]=buf_rx_ppp[i];ln_rejc_lcp++;}
// 2215                                         LCP_event=RUC;
// 2216                                         return(1);
// 2217                                         } 
// 2218                                     
// 2219                                     if ( 
// 2220                                            (buf_rx_ppp[ind_opt+2]==0)&&
// 2221                                            (buf_rx_ppp[ind_opt+3]==0x0a)&& 
// 2222                                            (buf_rx_ppp[ind_opt+4]==0)&&
// 2223                                            (buf_rx_ppp[ind_opt+5]==0) 
// 2224                                         )  fl_opt.accm=1;                                        
// 2225                                      
// 2226                                        
// 2227                                      
// 2228                                       
// 2229                                  count_length_opt=count_length_opt+buf_rx_ppp[ind_opt+1];        
// 2230                                  ind_opt=ind_opt+buf_rx_ppp[ind_opt+1];
// 2231                                  goto next_opt_lcp_2;     
// 2232                               
// 2233                               case PFC:
// 2234                                   if (buf_rx_ppp[ind_opt+1]!=2)
// 2235                                       {                                        
// 2236                                         for(i=5;i<=count_rx_ppp-4;i++){buf_rejc_opt_lcp[ln_rejc_lcp]=buf_rx_ppp[i];ln_rejc_lcp++;}
// 2237                                         LCP_event=RUC;
// 2238                                         return(1);
// 2239                                         } 
// 2240 
// 2241                                         fl_opt.pfc=1;
// 2242                                         count_length_opt=count_length_opt+buf_rx_ppp[ind_opt+1];        
// 2243                                         ind_opt=ind_opt+buf_rx_ppp[ind_opt+1];          
// 2244                                         goto next_opt_lcp_2;   
// 2245                                          
// 2246                                   
// 2247                             case ACFC:      
// 2248                                    if (buf_rx_ppp[ind_opt+1]!=2)
// 2249                                       {                                        
// 2250                                         for(i=5;i<=count_rx_ppp-4;i++){buf_rejc_opt_lcp[ln_rejc_lcp]=buf_rx_ppp[i];ln_rejc_lcp++;}
// 2251                                         LCP_event=RUC;
// 2252                                         return(1);
// 2253                                         } 
// 2254 
// 2255                                         fl_opt.acfc=1;
// 2256                                                                             
// 2257                                         
// 2258                                         count_length_opt=count_length_opt+buf_rx_ppp[ind_opt+1];        
// 2259                                         ind_opt=ind_opt+buf_rx_ppp[ind_opt+1];          
// 2260                                         goto next_opt_lcp_2;      
// 2261                             
// 2262                             default:    for(i=5;i<=count_rx_ppp-4;i++){buf_rejc_opt_lcp[ln_rejc_lcp]=buf_rx_ppp[i];ln_rejc_lcp++;}
// 2263                                         LCP_event=RUC;
// 2264                                         return(1);    
// 2265                                   
// 2266                           }
// 2267                       
// 2268                       
// 2269   end_pcp_opt_2:      if((fl_opt.accm==1)&&(fl_opt.acfc==1)&&(fl_opt.pfc==1))
// 2270                         {       
// 2271                                   
// 2272                          LCP_event=RCA;
// 2273                          i_scr_lcp++;//ďđčđŕůĺíčĺ čäĺíňčôčęŕňîđŕ                      
// 2274                          return(1);      
// 2275                         } 
// 2276                         else
// 2277                         {
// 2278                         for(i=5;i<=count_rx_ppp-4;i++){buf_rejc_opt_lcp[ln_rejc_lcp]=buf_rx_ppp[i];ln_rejc_lcp++;}
// 2279                         LCP_event=RUC;
// 2280                         return(1);               
// 2281                         }
// 2282                         */        
// 2283                        
// 2284                   case CONF_NAK : 
// 2285                           //!!!!! ďîäóěŕňü                    
// 2286                         // ňî RCN íî âńĺ đŕâíî çŕďđîń ňĺő ćĺ îďöčé  
// 2287                       if(buf_rx_ppp[6]!=i_scr_lcp)return(1);                        //ďđîâĺđęŕ čäĺíňčôčęŕňîđŕ
??proc_ppp_packet_13:
        LDD	R19, Z+6
        CP	R19, R18
        BREQ	$+2+2
        RJMP	??proc_ppp_packet_1
// 2288                       i_scr_lcp++;//ďđčđŕůĺíčĺ čäĺíňčôčęŕňîđŕ
        MOVW	R31:R30, R21:R20
        LDD	R18, Z+28
        INC	R18
        STD	Z+28, R18
// 2289                       LCP_event=RCN; 
        MOVW	R31:R30, R17:R16
        STD	Z+3, R23
        RJMP	??proc_ppp_packet_1
// 2290                       
// 2291                       
// 2292                       return(1); 
// 2293                   case CONF_REJ :
// 2294                         // !!!!! ďîäóěŕňü!!!!!!!!
// 2295                        // ňî RCN íî âńĺ đŕâíî çŕďđîń ňĺő ćĺ îďöčé 
// 2296                       if(buf_rx_ppp[6]!=i_scr_lcp)return(1);                        //ďđîâĺđęŕ čäĺíňčôčęŕňîđŕ
// 2297                       i_scr_lcp++;//ďđčđŕůĺíčĺ čäĺíňčôčęŕňîđŕ
// 2298                       LCP_event=RCN;
// 2299 
// 2300                       return(1);          
// 2301                                  
// 2302                   } 
// 2303                     
// 2304        break;
// 2305        
// 2306        case PR_PAP:   
// 2307             
// 2308             
// 2309             
// 2310           
// 2311   
// 2312                
// 2313             // çäĺńü  ďđîâĺđęŕ îáůĺé äëčíű     
// 2314               length.bytes[1]=buf_rx_ppp[5];
??proc_ppp_packet_8:
        MOVW	R31:R30, R27:R26
        LDD	R16, Z+5
        STD	Y+1, R16
// 2315               length.bytes[0]=buf_rx_ppp[6];
        LDD	R16, Z+6
        ST	Y, R16
// 2316               if (length.word!=count_rx_ppp-6)return(1);
        LD	R16, Y
        LDD	R17, Y+1
        CP	R16, R18
        CPC	R17, R19
        BREQ	$+2+2
        RJMP	??proc_ppp_packet_1
// 2317               if (count_rx_ppp>MAX_DL_PAP)return(1);//íĺ âîńďđčíčěŕňü äëčííűĺ ďŕęĺňű                           
        LDI	R16, 61
        CP	R4, R16
        LDI	R16, 0
        CPC	R5, R16
        BRCS	$+2+2
        RJMP	??proc_ppp_packet_1
// 2318                 
// 2319 
// 2320                            
// 2321               switch (buf_rx_ppp[3])      
        LDD	R16, Z+3
        SUBI	R16, 2
        BREQ	$+2+2
        RJMP	??proc_ppp_packet_1
// 2322                   {
// 2323                   case CONF_ACK :
// 2324                        if(buf_rx_ppp[4]!=i_scr_pap)return(1);     //ďđîâĺđęŕ čäĺíňčôčęŕňîđŕ
        LDD	R16, Z+4
        MOVW	R31:R30, R21:R20
        LDD	R17, Z+32
        CP	R16, R17
        BREQ	$+2+2
        RJMP	??proc_ppp_packet_1
// 2325                        PAP_event=RCA; 
        LDI	R16, 8
        STD	Z+9, R16
        RJMP	??proc_ppp_packet_1
// 2326                        return(1);                 
// 2327                   } 
// 2328         
// 2329        break;
// 2330        
// 2331        
// 2332        case PR_IPCP: 
// 2333        
// 2334              
// 2335               
// 2336               // çäĺńü  ďđîâĺđęŕ îáůĺé äëčíű     
// 2337               length.bytes[1]=buf_rx_ppp[5];
??proc_ppp_packet_9:
        MOVW	R31:R30, R27:R26
        LDD	R16, Z+5
        STD	Y+1, R16
// 2338               length.bytes[0]=buf_rx_ppp[6];
        LDD	R16, Z+6
        ST	Y, R16
// 2339               if (length.word!=count_rx_ppp-6)return(1);
        LD	R16, Y
        LDD	R17, Y+1
        CP	R16, R18
        CPC	R17, R19
        BREQ	$+2+2
        RJMP	??proc_ppp_packet_1
// 2340               if (count_rx_ppp>MAX_DL_IPCP)return(1);//íĺ âîńďđčíčěŕňü äëčííűĺ ďŕęĺňű                           
        LDI	R16, 36
        CP	R4, R16
        LDI	R16, 0
        CPC	R5, R16
        BRCS	$+2+2
        RJMP	??proc_ppp_packet_1
// 2341               
// 2342               vol_length_opt=count_rx_ppp-10;
        LDI	R16, 246
        ADD	R4, R16
// 2343               count_length_opt=0;
        CLR	R2
// 2344               ind_opt=7;  
        LDI	R23, 7
// 2345              
// 2346               ln_rejc_ipcp=0;
        LDI	R18, LOW(ip_pri_dns)
        LDI	R19, (ip_pri_dns) >> 8
        MOVW	R31:R30, R19:R18
        STD	Z+8, R2
// 2347               ln_ack_ipcp=0;
        MOVW	R31:R30, R21:R20
        ADIW	R31:R30, 61
        ST	Z, R2
// 2348               ln_nak_ipcp=0;
        MOVW	R31:R30, R21:R20
        ADIW	R31:R30, 62
        ST	Z, R2
// 2349               ln_rej_ipcp=0; 
        MOVW	R31:R30, R21:R20
        ADIW	R31:R30, 60
        ST	Z, R2
// 2350               
// 2351              
// 2352                            
// 2353               switch (buf_rx_ppp[3])      
        MOVW	R31:R30, R21:R20
        LDD	R17, Z+30
        MOVW	R31:R30, R27:R26
        LDD	R16, Z+3
        SUBI	R16, 1
        BREQ	??proc_ppp_packet_27
        DEC	R16
        BREQ	??proc_ppp_packet_28
        DEC	R16
        BREQ	??proc_ppp_packet_29
        DEC	R16
        BRNE	$+2+2
        RJMP	??proc_ppp_packet_30
        RJMP	??proc_ppp_packet_1
// 2354                   {
// 2355                   case CONF_REQ : 
// 2356                          
// 2357                            
// 2358                  // (ĺńëč âîîáůĺ íĺ ňĺ îďöčč ňî ńáđîń ęîäŕ äŕňü) 
// 2359                       //ďđîâĺđęŕ ďđĺäëîćĺííîé ęîíôčăóđŕöčč îň ńĺđâĺđŕ    
// 2360                       //ĺńëč íóćíŕ˙ ęîíôčăóđŕöč˙ ňî ńîáűňčĺ RCR+                  
// 2361                       //ĺńëč íĺň ňî RCR-;                       
// 2362                      
// 2363                     for(i=0;i<vol_length_opt;i++){buf_ack_opt_ipcp[ln_ack_ipcp]=buf_rx_ppp[ind_opt+i];ln_ack_ipcp++;}
??proc_ppp_packet_27:
        LDI	R24, 0
        LDI	R25, 0
        RJMP	??proc_ppp_packet_31
??proc_ppp_packet_32:
        MOVW	R31:R30, R27:R26
        ADD	R30, R24
        ADC	R31, R25
        LDD	R18, Z+7
        MOVW	R31:R30, R21:R20
        ADIW	R31:R30, 61
        LD	R16, Z
        MOVW	R31:R30, R21:R20
        ADD	R30, R16
        ADC	R31, R2
        STD	Z+33, R18
        MOVW	R31:R30, R21:R20
        ADIW	R31:R30, 61
        LD	R16, Z
        INC	R16
        ST	Z, R16
        ADIW	R25:R24, 1
??proc_ppp_packet_31:
        CP	R24, R4
        CPC	R25, R2
        BRCS	??proc_ppp_packet_32
// 2364                     IPCP_event=RCR_PL;
        LDI	R16, 6
        MOVW	R31:R30, R21:R20
        STD	Z+11, R16
// 2365                     i_scan_ipcp=buf_rx_ppp[4];    // ďđčńâîĺíčĺ čäĺíňčôčęŕňîđŕ                   
        MOVW	R31:R30, R27:R26
        LDD	R16, Z+4
        MOVW	R31:R30, R21:R20
        STD	Z+31, R16
        RJMP	??proc_ppp_packet_1
// 2366                     return(1);  
// 2367                     
// 2368                     //Ďîäňâĺđćäŕňü âńĺ!!!!!!!!!!
// 2369                     
// 2370 
// 2371                        
// 2372                   case CONF_ACK : 
// 2373                       //ďđîâĺđęŕ îďöčé (ĺńëč âîîáůĺ íĺ ňĺ îďöčč ňî ńáđîń ęîäŕ äŕňü)
// 2374                       //îďöčč ňŕ, ňî ńîáűňčĺ RCA
// 2375                   //  led2_on;    //ďîęŕ
// 2376                   //  lock_it();    // ďîęŕ
// 2377                     
// 2378                    
// 2379                                          
// 2380                     
// 2381                     
// 2382                     if(buf_rx_ppp[4]!=i_scr_ipcp)return(1);                        //ďđîâĺđęŕ čäĺíňčôčęŕňîđŕ
??proc_ppp_packet_28:
        LDD	R16, Z+4
        CP	R16, R17
        BREQ	$+2+2
        RJMP	??proc_ppp_packet_1
// 2383                       
// 2384                      IPCP_event=RCA;
        LDI	R16, 8
        MOVW	R31:R30, R21:R20
        STD	Z+11, R16
// 2385                      i_scr_ipcp++;//ďđčđŕůĺíčĺ čäĺíňčôčęŕňîđŕ                      
        LDD	R16, Z+30
        INC	R16
        STD	Z+30, R16
        RJMP	??proc_ppp_packet_1
// 2386                      return(1);  
// 2387                      //ÍČ×ĹĂÎ ÄŔËÜŘĹ ÍĹ ĐŔÇÁČĐŔŇÜ!!!!!!!!!
// 2388               
// 2389                        
// 2390                   case CONF_NAK :                     
// 2391                         // ňî RCN íî âńĺ đŕâíî çŕďđîń ňĺő ćĺ îďöčé  
// 2392 
// 2393                       if(buf_rx_ppp[4]!=i_scr_ipcp)return(1);                        //ďđîâĺđęŕ čäĺíňčôčęŕňîđŕ
??proc_ppp_packet_29:
        LDD	R16, Z+4
        CP	R16, R17
        BREQ	??proc_ppp_packet_33
        RJMP	??proc_ppp_packet_1
// 2394                      
// 2395                      
// 2396     next_opt_ipcp_3:  if(count_length_opt==vol_length_opt) goto end_ipcp_opt_3;   //îáđŕáîňŕíű âńĺ îďöčč
// 2397                        
// 2398                        switch(buf_rx_ppp[ind_opt])
// 2399                           { 
// 2400                           
// 2401                             case IP_SELF:       
// 2402                                   if (buf_rx_ppp[ind_opt+1]!=6)
??proc_ppp_packet_34:
        LDD	R22, Z+1
        CPI	R22, 6
        BREQ	$+2+2
        RJMP	??proc_ppp_packet_1
// 2403                                       {
// 2404                                        // for(i=3;i<=count_rx_ppp-4;i++){buf_rejc_opt_ipcp[ln_rejc_ipcp]=buf_rx_ppp[i];ln_rejc_ipcp++;}
// 2405                                        // IPCP_event=RUC;
// 2406                                         return(1);
// 2407                                         } 
// 2408                                          
// 2409 
// 2410                                                                                   
// 2411                                           
// 2412                                                   
// 2413                                          
// 2414                                           ip_self[0]=buf_rx_ppp[ind_opt+2];
        LDD	R22, Z+2
        MOVW	R31:R30, R25:R24
        ST	Z, R22
// 2415                                           ip_self[1]=buf_rx_ppp[ind_opt+3];
        MOVW	R31:R30, R17:R16
        LDD	R22, Z+3
        MOVW	R31:R30, R25:R24
        STD	Z+1, R22
// 2416                                           ip_self[2]=buf_rx_ppp[ind_opt+4];
        MOVW	R31:R30, R17:R16
        LDD	R22, Z+4
        MOVW	R31:R30, R25:R24
        STD	Z+2, R22
// 2417                                           ip_self[3]=buf_rx_ppp[ind_opt+5]; 
        MOVW	R31:R30, R17:R16
        LDD	R22, Z+5
        MOVW	R31:R30, R25:R24
??proc_ppp_packet_35:
        STD	Z+3, R22
// 2418                                           
// 2419                                           fl_opt.ip_self=1;                                        
// 2420                                       
// 2421                                  count_length_opt=count_length_opt+buf_rx_ppp[ind_opt+1];        
??proc_ppp_packet_36:
        MOVW	R31:R30, R17:R16
        LDD	R22, Z+1
        ADD	R2, R22
// 2422                                  ind_opt=ind_opt+buf_rx_ppp[ind_opt+1];
        LDD	R16, Z+1
        ADD	R23, R16
// 2423                                  goto next_opt_ipcp_3;  
??proc_ppp_packet_33:
        CP	R2, R4
        BREQ	??proc_ppp_packet_37
        MOV	R0, R23
        CLR	R1
        MOVW	R17:R16, R27:R26
        ADD	R16, R0
        ADC	R17, R1
        MOVW	R31:R30, R17:R16
        LD	R22, Z
        SUBI	R22, 129
        BREQ	??proc_ppp_packet_38
        SUBI	R22, 2
        BREQ	??proc_ppp_packet_39
        SUBI	R22, 128
        BREQ	??proc_ppp_packet_34
        RJMP	??proc_ppp_packet_1
// 2424                              
// 2425                              
// 2426                             case IP_PRI_DNS:       
// 2427                                   if (buf_rx_ppp[ind_opt+1]!=6)
??proc_ppp_packet_38:
        LDD	R22, Z+1
        CPI	R22, 6
        BREQ	$+2+2
        RJMP	??proc_ppp_packet_1
// 2428                                       {
// 2429                                      //   for(i=3;i<=count_rx_ppp-4;i++){buf_rejc_opt_ipcp[ln_rejc_ipcp]=buf_rx_ppp[i];ln_rejc_ipcp++;}
// 2430                                      //   IPCP_event=RUC;
// 2431                                         return(1);
// 2432                                         } 
// 2433                                            
// 2434                                           ip_pri_dns[0]=buf_rx_ppp[ind_opt+2];
        LDD	R22, Z+2
        MOVW	R31:R30, R19:R18
        ST	Z, R22
// 2435                                           ip_pri_dns[1]=buf_rx_ppp[ind_opt+3];
        MOVW	R31:R30, R17:R16
        LDD	R22, Z+3
        MOVW	R31:R30, R19:R18
        STD	Z+1, R22
// 2436                                           ip_pri_dns[2]=buf_rx_ppp[ind_opt+4];
        MOVW	R31:R30, R17:R16
        LDD	R22, Z+4
        MOVW	R31:R30, R19:R18
        STD	Z+2, R22
// 2437                                           ip_pri_dns[3]=buf_rx_ppp[ind_opt+5]; 
        MOVW	R31:R30, R17:R16
        LDD	R22, Z+5
        MOVW	R31:R30, R19:R18
        RJMP	??proc_ppp_packet_35
// 2438                   
// 2439                                           fl_opt.ip_pri_dns=1;                                        
// 2440                                       
// 2441                                  count_length_opt=count_length_opt+buf_rx_ppp[ind_opt+1];        
// 2442                                  ind_opt=ind_opt+buf_rx_ppp[ind_opt+1];
// 2443                                  goto next_opt_ipcp_3; 
// 2444                              
// 2445                             
// 2446                             case IP_SEC_DNS:       
// 2447                                   if (buf_rx_ppp[ind_opt+1]!=6)
??proc_ppp_packet_39:
        LDD	R22, Z+1
        CPI	R22, 6
        BREQ	$+2+2
        RJMP	??proc_ppp_packet_1
// 2448                                       {
// 2449                                       //  for(i=3;i<=count_rx_ppp-4;i++){buf_rejc_opt_ipcp[ln_rejc_ipcp]=buf_rx_ppp[i];ln_rejc_ipcp++;}
// 2450                                       //  IPCP_event=RUC;
// 2451                                         return(1);
// 2452                                         } 
// 2453                                     
// 2454                                           ip_sec_dns[0]=buf_rx_ppp[ind_opt+2];
        LDD	R22, Z+2
        MOVW	R31:R30, R19:R18
        STD	Z+4, R22
// 2455                                           ip_sec_dns[1]=buf_rx_ppp[ind_opt+3];
        MOVW	R31:R30, R17:R16
        LDD	R22, Z+3
        MOVW	R31:R30, R19:R18
        STD	Z+5, R22
// 2456                                           ip_sec_dns[2]=buf_rx_ppp[ind_opt+4];
        MOVW	R31:R30, R17:R16
        LDD	R22, Z+4
        MOVW	R31:R30, R19:R18
        STD	Z+6, R22
// 2457                                           ip_sec_dns[3]=buf_rx_ppp[ind_opt+5]; 
        MOVW	R31:R30, R17:R16
        LDD	R22, Z+5
        MOVW	R31:R30, R19:R18
        STD	Z+7, R22
// 2458                                           fl_opt.mru=1;                                        
// 2459                                       
// 2460                                  count_length_opt=count_length_opt+buf_rx_ppp[ind_opt+1];        
        RJMP	??proc_ppp_packet_36
// 2461                                  ind_opt=ind_opt+buf_rx_ppp[ind_opt+1];
// 2462                                  goto next_opt_ipcp_3; 
// 2463                              
// 2464 
// 2465                             
// 2466                             default:   // for(i=3;i<=count_rx_ppp-4;i++){buf_rejc_opt_ipcp[ln_rejc_ipcp]=buf_rx_ppp[i];ln_rejc_ipcp++;}
// 2467                                        // IPCP_event=RUC;
// 2468                                         return(1);    
// 2469                                   
// 2470                           }
// 2471                       
// 2472                       
// 2473   end_ipcp_opt_3:                                        
// 2474                       i_scr_ipcp++;//ďđčđŕůĺíčĺ čäĺíňčôčęŕňîđŕ
// 2475                       IPCP_event=RCN;                                             
// 2476                       return(1);         
// 2477                        
// 2478                       
// 2479                   case CONF_REJ :
// 2480                        // ňî RCN íî âńĺ đŕâíî çŕďđîń ňĺő ćĺ îďöčé 
// 2481                       if(buf_rx_ppp[4]!=i_scr_ipcp)return(1);                        //ďđîâĺđęŕ čäĺíňčôčęŕňîđŕ
??proc_ppp_packet_30:
        LDD	R16, Z+4
        CP	R16, R17
        BREQ	$+2+2
        RJMP	??proc_ppp_packet_1
??proc_ppp_packet_37:
        MOVW	R31:R30, R21:R20
        LDD	R16, Z+30
        INC	R16
        STD	Z+30, R16
        LDI	R16, 9
        STD	Z+11, R16
        RJMP	??proc_ppp_packet_1
// 2482                       i_scr_ipcp++;//ďđčđŕůĺíčĺ čäĺíňčôčęŕňîđŕ
// 2483                       IPCP_event=RCN;
// 2484 
// 2485                       return(1);      
// 2486                   
// 2487                     
// 2488                   } 
// 2489                             
// 2490        break;        
// 2491            
// 2492         
// 2493        case PR_IP:            
// 2494    
// 2495    
// 2496   
// 2497   if(count_rx_ppp<(33+MIN_TR_HEAD))return(1); 
??proc_ppp_packet_10:
        LDI	R16, 45
        CP	R4, R16
        LDI	R16, 0
        CPC	R5, R16
        BRCC	$+2+2
        RJMP	??proc_ppp_packet_1
// 2498        
// 2499   Crc_out.bytes[0]=buf_rx_ppp[12];    //ďđîâĺđęŕ CRC IP 
        MOVW	R31:R30, R27:R26
        LDD	R16, Z+12
        STD	Y+2, R16
// 2500   Crc_out.bytes[1]=buf_rx_ppp[13];  
        LDD	R16, Z+13
        STD	Y+3, R16
// 2501   buf_rx_ppp[12]=0; 
        LDI	R16, 0
        STD	Z+12, R16
// 2502   buf_rx_ppp[13]=0; 
        STD	Z+13, R16
// 2503   temp.word=calc_crc_ip(&buf_rx_ppp[2],20);
        LDI	R18, 20
        LDI	R19, 0
        MOVW	R17:R16, R27:R26
        SUBI	R16, 254
        SBCI	R17, 255
        RCALL	calc_crc_ip
        ST	Y, R16
        STD	Y+1, R17
// 2504   if(Crc_out.word!=temp.word)return(1);
        LDD	R16, Y+2
        LDD	R17, Y+3
        LD	R18, Y
        LDD	R19, Y+1
        CP	R16, R18
        CPC	R17, R19
        BREQ	$+2+2
        RJMP	??proc_ppp_packet_1
// 2505 
// 2506 
// 2507   
// 2508   
// 2509   if((buf_rx_ppp[18]!=ip_self[0])||       //ńâĺđęŕ ńî ńâîčě IP
// 2510    (buf_rx_ppp[19]!=ip_self[1])|| 
// 2511    (buf_rx_ppp[20]!=ip_self[2])|| 
// 2512    (buf_rx_ppp[21]!=ip_self[3]))return(1);
        MOVW	R31:R30, R27:R26
        LDD	R16, Z+18
        MOVW	R31:R30, R25:R24
        LD	R17, Z
        CP	R16, R17
        BREQ	$+2+2
        RJMP	??proc_ppp_packet_1
        MOVW	R31:R30, R27:R26
        LDD	R16, Z+19
        MOVW	R31:R30, R25:R24
        LDD	R17, Z+1
        CP	R16, R17
        BREQ	$+2+2
        RJMP	??proc_ppp_packet_1
        MOVW	R31:R30, R27:R26
        LDD	R16, Z+20
        MOVW	R31:R30, R25:R24
        LDD	R17, Z+2
        CP	R16, R17
        BREQ	$+2+2
        RJMP	??proc_ppp_packet_1
        MOVW	R31:R30, R27:R26
        LDD	R16, Z+21
        MOVW	R31:R30, R25:R24
        LDD	R17, Z+3
        CP	R16, R17
        BREQ	$+2+2
        RJMP	??proc_ppp_packet_1
// 2513   
// 2514  
// 2515   
// 2516   if(buf_rx_ppp[11]!=0x11)return(1);  //ńâĺđęŕ ń ďđîňîęîëîě UDP
        MOVW	R31:R30, R27:R26
        LDD	R16, Z+11
        CPI	R16, 17
        BREQ	$+2+2
        RJMP	??proc_ppp_packet_1
// 2517   
// 2518   
// 2519 
// 2520   
// 2521   Crc_out.bytes[0]=buf_rx_ppp[28];    //ďđîâĺđęŕ CRC UDP 
        LDD	R16, Z+28
        STD	Y+2, R16
// 2522   Crc_out.bytes[1]=buf_rx_ppp[29];  
        LDD	R16, Z+29
        STD	Y+3, R16
// 2523   buf_rx_ppp[28]=0; 
        LDI	R16, 0
        STD	Z+28, R16
// 2524   buf_rx_ppp[29]=0; 
        STD	Z+29, R16
// 2525   temp.bytes[1]=buf_rx_ppp[26]; 
        LDD	R16, Z+26
        STD	Y+1, R16
// 2526   temp.bytes[0]=buf_rx_ppp[27]; 
        LDD	R16, Z+27
        ST	Y, R16
// 2527   temp.word=calc_crc_udp_2(&buf_rx_ppp[0],temp.word);
        LD	R18, Y
        LDD	R19, Y+1
        MOVW	R17:R16, R27:R26
        RCALL	calc_crc_udp_2
        ST	Y, R16
        STD	Y+1, R17
// 2528   if(Crc_out.word!=temp.word)return(1); 
        LDD	R16, Y+2
        LDD	R17, Y+3
        LD	R18, Y
        LDD	R19, Y+1
        CP	R16, R18
        CPC	R17, R19
        BREQ	$+2+2
        RJMP	??proc_ppp_packet_1
// 2529    
// 2530   
// 2531    Crc_out.bytes[1]=port_udp>>8;
        LDI	R30, LOW(port_udp)
        LDI	R31, (port_udp) >> 8
        LDD	R17, Z+1
        STD	Y+3, R17
// 2532    Crc_out.bytes[0]=port_udp;
        LD	R16, Z
        STD	Y+2, R16
// 2533    if((buf_rx_ppp[24]!=Crc_out.bytes[1])||       //ďđîâĺđęŕ UDP ďîđňŕ 
// 2534       (buf_rx_ppp[25]!=Crc_out.bytes[0]))return(1); 
        MOVW	R31:R30, R27:R26
        LDD	R16, Z+24
        LDD	R17, Y+3
        CP	R16, R17
        BREQ	$+2+2
        RJMP	??proc_ppp_packet_1
        LDD	R16, Z+25
        LDD	R17, Y+2
        CP	R16, R17
        BREQ	$+2+2
        RJMP	??proc_ppp_packet_1
// 2535   
// 2536     
// 2537   
// 2538    
// 2539    if(proc_udp_data(buf_rx_ppp,count_rx_ppp)==0)return(1); 
        MOVW	R19:R18, R5:R4
        MOVW	R17:R16, R27:R26
        RCALL	proc_udp_data
        RJMP	??proc_ppp_packet_1
        CFI EndBlock cfiBlock13
// 2540  
// 2541                  
// 2542     break;
// 2543       } 
// 2544  
// 2545  return(1);  
// 2546  }
// 2547  
// 2548  
// 2549  
// 2550  //!!!!!!!!!!!!!!!!!!!!!!!!!!!!!!!!!!!!!!!!!!!!!!!!!!!!!!!!!!!!!!
// 2551  

        RSEG CODE:CODE:NOROOT(1)
// 2552  void send_no_sinc(unsigned char id,unsigned int dst,unsigned char error)
send_no_sinc:
        CFI Block cfiBlock14 Using cfiCommon0
        CFI Function send_no_sinc
// 2553     {
        FUNCALL send_no_sinc, clr_cntr_nat
        LOCFRAME CSTACK, 4, STACK
        LOCFRAME RSTACK, 2, STACK
        FUNCALL send_no_sinc, clr_cntr_link
        LOCFRAME CSTACK, 4, STACK
        LOCFRAME RSTACK, 2, STACK
        FUNCALL send_no_sinc, form_buf_tx_ppp
        LOCFRAME CSTACK, 4, STACK
        LOCFRAME RSTACK, 2, STACK
        FUNCALL send_no_sinc, check_cts
        LOCFRAME CSTACK, 4, STACK
        LOCFRAME RSTACK, 2, STACK
        CALL	?PROLOGUE4_L09
        CFI R27 Frame(CFA_Y, -1)
        CFI R26 Frame(CFA_Y, -2)
        CFI R25 Frame(CFA_Y, -3)
        CFI R24 Frame(CFA_Y, -4)
        CFI CFA_Y Y+4
        MOV	R27, R16
        MOVW	R25:R24, R19:R18
        MOV	R26, R17
// 2554        if(fl_ip.act_ip_end!=1)return;
        LDI	R30, LOW(cnt_pap_tm_out)
        LDI	R31, (cnt_pap_tm_out) >> 8
        LDD	R16, Z+4
        SBRS	R16, 0
        RJMP	??send_no_sinc_0
// 2555           fl_ip.act_ip_end=0;      
        LDD	R16, Z+4
        ANDI	R16, 0xFE
        STD	Z+4, R16
// 2556           clr_cntr_nat();
        CALL	clr_cntr_nat
// 2557           clr_cntr_link();
        CALL	clr_cntr_link
// 2558           Obj_ppp_tx.prozr=FALSE;            
        LDI	R16, LOW(Obj_ppp_tx)
        LDI	R17, (Obj_ppp_tx) >> 8
        LDI	R18, 0
        MOVW	R31:R30, R17:R16
        ST	Z, R18
// 2559           Obj_ppp_tx.version=VER2;      //âĺđńč˙ 
        LDI	R18, 2
        STD	Z+1, R18
// 2560           Obj_ppp_tx.type_pac=OTV;     //ňčď ďŕęĺňŕ
        LDI	R18, 1
        STD	Z+2, R18
// 2561           Obj_ppp_tx.num_src=num_self; // íîěĺđ îňďđŕâčňĺë˙
        LDI	R30, LOW(num_self)
        LDI	R31, (num_self) >> 8
        LD	R18, Z
        LDD	R19, Z+1
        MOVW	R31:R30, R17:R16
        STD	Z+3, R18
        STD	Z+4, R19
// 2562           Obj_ppp_tx.num_dst=dst; // íîěĺđ ďîëó÷ŕňĺë˙
        STD	Z+5, R24
        STD	Z+6, R25
// 2563          
// 2564           Obj_ppp_tx.id_pac=id; // čäĺíňčôčęŕňîđ ďŕęĺňŕ  
        STD	Z+7, R27
// 2565           Obj_ppp_tx.p_opt=&buf_opt_tr[0]; // //óęŕçŕňĺëü áóôĺđŕ îďöčé          
        LDI	R18, LOW(buf_opt_tr)
        LDI	R19, (buf_opt_tr) >> 8
        STD	Z+8, R18
        STD	Z+9, R19
// 2566           
// 2567           
// 2568         Obj_ppp_tx.l_opt=3;// äëčíŕ áóôĺđŕ îďöčé   
        LDI	R20, 3
        STD	Z+10, R20
// 2569         buf_opt_tr[0]=KOD_OP_ERROR;
        LDI	R20, 4
        MOVW	R31:R30, R19:R18
        ST	Z, R20
// 2570         buf_opt_tr[1]=3;
        LDI	R20, 3
        STD	Z+1, R20
// 2571         buf_opt_tr[2]=error;
        STD	Z+2, R26
// 2572         
// 2573         //Obj_ppp_tx.kol_opt=1;// ęîëč÷ĺńňâî îďöčé     
// 2574        
// 2575        
// 2576          Obj_ppp_tx.l_data=0;   // äëčíŕ äŕííűő
        LDI	R18, 0
        MOVW	R31:R30, R17:R16
        STD	Z+14, R18
        STD	Z+15, R18
// 2577          Obj_ppp_tx.p_data=&buf_tx_232[TR_OP_DATA+C1_PROT];  //óęŕçŕňĺëü áóôĺđŕ äŕííűő
        LDI	R18, LOW((buf_tx_232 + 42))
        LDI	R19, HIGH((buf_tx_232 + 42))
        STD	Z+12, R18
        STD	Z+13, R19
// 2578         
// 2579          form_buf_tx_ppp();                            
        CALL	form_buf_tx_ppp
// 2580          UCSR0A=UCSR0A | TXC;                            
        LDS	R16, 192
        ORI	R16, 0x40
        STS	192, R16
// 2581          UCSR0B=UCSR0B | TXEN;
        LDS	R16, 193
        ORI	R16, 0x08
        STS	193, R16
// 2582          UCSR0B=UCSR0B | TXCIE;
        LDS	R16, 193
        ORI	R16, 0x40
        STS	193, R16
// 2583          if(check_cts()==1) return;                
        CALL	check_cts
        CPI	R16, 1
        BREQ	??send_no_sinc_0
// 2584          S2_RD;
        SBI	0x08, 0x00
        CBI	0x08, 0x01
// 2585          UDR0=buf_tx_232[0];
        LDS	R16, buf_tx_232
        STS	198, R16
// 2586          if(Regim==RG_DEBAG) UDR3=buf_tx_232[0];
        LDS	R16, Regim
        CPI	R16, 1
        BRNE	??send_no_sinc_0
        LDS	R16, buf_tx_232
        STS	310, R16
??send_no_sinc_0:
        LDI	R30, 4
        JMP	?EPILOGUE_B4_L09
        CFI EndBlock cfiBlock14
// 2587          return;     
// 2588     }
// 2589 
// 2590 

        RSEG CODE:CODE:NOROOT(1)
// 2591 unsigned char proc_paging(void)
proc_paging:
        CFI Block cfiBlock15 Using cfiCommon0
        CFI Function proc_paging
// 2592 { 
        MOVW	R21:R20, R25:R24
// 2593  if(fl_pg_out.hold_pg==1)
        LDI	R30, LOW(Obj_ppp_tx)
        LDI	R31, (Obj_ppp_tx) >> 8
        LDD	R18, Z+35
        LDD	R16, Z+33
        SBRS	R16, 5
        RJMP	??proc_paging_0
// 2594     {
// 2595     
// 2596          if((fl_pg_out.first_pg==1)&&(cnt_pg==0))
        LDD	R16, Z+24
        LDD	R17, Z+25
        LDD	R19, Z+33
        SBRS	R19, 4
        RJMP	??proc_paging_1
        MOV	R19, R16
        OR	R19, R17
        BRNE	??proc_paging_1
// 2597          { 
// 2598          cnt_pg=0;
// 2599          fl_pg_out.first_pg=0;
// 2600          fl_pg_out.end_pg=0;
// 2601          fl_pg_out.hold_pg=0;
// 2602          fl_pg_out.ch_crc=0;
// 2603          fl_pg_out.cor_pg=0;
??proc_paging_2:
        LDD	R16, Z+33
        ANDI	R16, 0xC4
        STD	Z+33, R16
// 2604          // äŕňü îřčáęó đŕńńčíőđîíčçŕöč˙ 
// 2605          return(1);
        LDI	R16, 1
        RJMP	??proc_paging_3
// 2606          }
// 2607     
// 2608         if((fl_pg_out.first_pg==1)&&(cnt_pg!=0))
??proc_paging_1:
        LDD	R19, Z+33
        SBRS	R19, 4
        RJMP	??proc_paging_4
        OR	R16, R17
        BREQ	??proc_paging_4
// 2609          {                                      // ýňî â ńëó÷ŕĺ ęîăäŕ ďđîöĺńń ďđĺđâŕí ŕ ďîňîě çŕíîâî âîçîáíîâë˙ĺňń˙
// 2610           fl_pg_out.hold_pg=1;
// 2611           fl_pg_out.first_pg=0;
// 2612           cnt_pg=0;
??proc_paging_5:
        LDI	R16, 0
        STD	Z+24, R16
        STD	Z+25, R16
// 2613           id_pg_kp=id_pg_appl+1;
        INC	R18
        STD	Z+34, R18
// 2614           fl_pg_out.cor_pg=1;
        LDD	R16, Z+33
        ANDI	R16, 0xEF
        ORI	R16, 0x28
??proc_paging_6:
        STD	Z+33, R16
// 2615           goto check_end_pg;
// 2616          }
// 2617       
// 2618     
// 2619      
// 2620       
// 2621       
// 2622       if(id_pg_kp==id_pg_appl)
// 2623          {
// 2624           cnt_pg++;
// 2625           id_pg_kp++;
// 2626           fl_pg_out.cor_pg=1;
// 2627           goto check_end_pg;
// 2628          }
// 2629          else
// 2630          {
// 2631           fl_pg_out.cor_pg=0;
// 2632           if(id_pg_appl==(id_pg_kp-1))goto check_end_pg;
// 2633              else
// 2634              {
// 2635               cnt_pg=0;
// 2636               fl_pg_out.first_pg=0;
// 2637               fl_pg_out.end_pg=0;
// 2638               fl_pg_out.hold_pg=0;
// 2639               fl_pg_out.ch_crc=0;
// 2640               fl_pg_out.cor_pg=0;
// 2641               // äŕňü îřčáęó đŕńńčíőđîíčçŕöč˙ 
// 2642               return(1);
// 2643              }
// 2644          }   
// 2645          
// 2646     }
// 2647     else
// 2648     {
// 2649       if(fl_pg_out.first_pg==1)
// 2650          {
// 2651           fl_pg_out.hold_pg=1;
// 2652           fl_pg_out.first_pg=0;
// 2653           cnt_pg=0;
// 2654           id_pg_kp=id_pg_appl+1;
// 2655           fl_pg_out.cor_pg=1;
// 2656           goto check_end_pg;
// 2657          }
// 2658          else
// 2659          {
// 2660          cnt_pg=0;
// 2661          fl_pg_out.first_pg=0;
// 2662          fl_pg_out.end_pg=0;
// 2663          fl_pg_out.hold_pg=0;
// 2664          fl_pg_out.ch_crc=0;
// 2665          fl_pg_out.cor_pg=0;
// 2666          // äŕňü îřčáęó đŕńńčíőđîíčçŕöč˙ 
// 2667          return(1);
// 2668          }
// 2669     }
// 2670     
// 2671 check_end_pg:
// 2672     
// 2673     if(fl_pg_out.end_pg==1)
??proc_paging_7:
        LDD	R16, Z+33
        SBRS	R16, 0
        RJMP	??proc_paging_8
// 2674        {
// 2675          fl_pg_out.hold_pg=0;
// 2676          fl_pg_out.first_pg=0;
        LDD	R16, Z+33
        ANDI	R16, 0xCF
        STD	Z+33, R16
// 2677        }
// 2678           
// 2679 return(0);
??proc_paging_8:
        LDI	R16, 0
??proc_paging_3:
        MOVW	R25:R24, R21:R20
        RET
??proc_paging_4:
        LDD	R24, Z+34
        CP	R24, R18
        BRNE	??proc_paging_9
        LDD	R16, Z+24
        LDD	R17, Z+25
        SUBI	R16, 255
        SBCI	R17, 255
        STD	Z+24, R16
        STD	Z+25, R17
        LDD	R16, Z+34
        INC	R16
        STD	Z+34, R16
        LDD	R16, Z+33
        ORI	R16, 0x08
        RJMP	??proc_paging_6
??proc_paging_9:
        LDD	R16, Z+33
        ANDI	R16, 0xF7
        STD	Z+33, R16
        MOV	R16, R18
        LDI	R17, 0
        LDI	R25, 0
        SBIW	R25:R24, 1
        CP	R16, R24
        CPC	R17, R25
        BREQ	??proc_paging_7
??proc_paging_10:
        LDI	R16, 0
        STD	Z+24, R16
        STD	Z+25, R16
        RJMP	??proc_paging_2
??proc_paging_0:
        LDD	R16, Z+33
        SBRC	R16, 4
        RJMP	??proc_paging_5
        RJMP	??proc_paging_10
        CFI EndBlock cfiBlock15
// 2680 }
// 2681  
// 2682  

        RSEG CODE:CODE:NOROOT(1)
// 2683  unsigned char proc_option(unsigned char *buf_rx_ppp,unsigned int ind,unsigned int count_rx_opt)
proc_option:
        CFI Block cfiBlock16 Using cfiCommon0
        CFI Function proc_option
// 2684  {
        CALL	?PROLOGUE10_L09
        CFI R9 Frame(CFA_Y, -1)
        CFI R8 Frame(CFA_Y, -2)
        CFI R7 Frame(CFA_Y, -3)
        CFI R6 Frame(CFA_Y, -4)
        CFI R5 Frame(CFA_Y, -5)
        CFI R4 Frame(CFA_Y, -6)
        CFI R27 Frame(CFA_Y, -7)
        CFI R26 Frame(CFA_Y, -8)
        CFI R25 Frame(CFA_Y, -9)
        CFI R24 Frame(CFA_Y, -10)
        CFI CFA_Y Y+10
        REQUIRE	?Register_R4_is_cg_reg
        REQUIRE	?Register_R5_is_cg_reg
        REQUIRE	?Register_R6_is_cg_reg
        REQUIRE	?Register_R7_is_cg_reg
        REQUIRE	?Register_R8_is_cg_reg
        REQUIRE	?Register_R9_is_cg_reg
        MOVW	R25:R24, R17:R16
        MOVW	R5:R4, R19:R18
        MOVW	R9:R8, R21:R20
// 2685 
// 2686  unsigned char tt;
// 2687 //return 0 îřčáęŕ, čăíîđčđîâŕňü, âĺńü íĺęîđđĺęňíűé ďŕęĺň
// 2688 // return 1 - ďđî÷čňŕíű âńĺ îďöčč (ďđč ďîńňóďčâřĺě çŕďđîńĺ) äŕëüřĺ âűőîä č âűäŕ÷ŕ îňâĺň íŕ çŕďđîń 
// 2689 // return 2 - îňâĺňčňü ńđŕçó đŕçěĺđîě ńňđŕíčöű
// 2690 unsigned char cnt=0;
        CLR	R6
        RJMP	??proc_option_0
// 2691  
// 2692  next_option: 
// 2693                
// 2694                switch(buf_rx_ppp[ind])
// 2695                  {
// 2696                  case KOD_OP_ERROR:  
// 2697                                   
// 2698                                   if(buf_rx_ppp[ind+1]!=L_ERR_NO_INTABL)return(0);   
// 2699                                   if(buf_rx_ppp[ind+2]!=ERR_NO_INTABL)return(0);
// 2700                                   if(((buf_rx_ppp[TR_V]>>4)&0x03)!=KVIT)return(0);
// 2701                                   if(*(unsigned int*)&buf_rx_ppp[ind+3]==num_seq_cl)
// 2702                                    {
// 2703                             
// 2704                                     Appl_seq.cnt_cntr_cl=0;
// 2705                                     Appl_seq.cntr_cl=TRUE;
// 2706                                     Appl_seq.en_cntr_cl=TRUE;
// 2707                                     Appl_seq.cnt_try=0;
// 2708                                     fl_appl_seq.en_povtor=0; 
// 2709                                     Appl_seq.l_data=0; 
// 2710                                     Appl_seq.cnt_waits=0;
// 2711                                     fl_appl_seq.kv_waits=0;
// 2712                                     }
// 2713                             
// 2714                                      cnt_no_link=vol_cnt_no_link;//dobavka
// 2715                                   
// 2716                                      Control.link_waits=FALSE;
// 2717                                      Control.cnt_link=Control.vol_link;                  
// 2718                                      Control.link=FALSE; 
// 2719                            
// 2720                                      Control.cnt_try=0;
// 2721                                      Control.link_no=FALSE;
// 2722                                      return(0);
// 2723                  
// 2724                  case KOD_OP_LUFKIN: 
// 2725                                      if(buf_rx_ppp[ind+1]!=L_OP_LUFKIN)return(0);  
// 2726                                      if(((buf_rx_ppp[TR_V]>>4)&0x03)!=ZAPR)return(0);
// 2727                                      delay_pre_tx=*(unsigned int*)&buf_rx_ppp[ind+2]; 
// 2728                                      if(delay_pre_tx>5000){delay_pre_tx=0;return(0); }//5 ńĺęóíä                                       
// 2729                                      return(1);
// 2730                   
// 2731                  case KOD_OP_SIZE_PG: 
// 2732                                       if(buf_rx_ppp[ind+1]!=L_OP_SIZE_PG)return(0);   
// 2733                                       if(((buf_rx_ppp[TR_V]>>4)&0x03)!=ZAPR)return(0);                                                             
// 2734                                       return(2); 
// 2735                  
// 2736                  case KOD_WR_PG: 
// 2737                                       if(buf_rx_ppp[ind+1]!=L_OP_WR_PG)return(0);   
// 2738                                       if(((buf_rx_ppp[TR_V]>>4)&0x03)!=ZAPR)return(0);
// 2739                                       if (buf_rx_ppp[ind+2] & FIRST_PG) fl_pg_out.first_pg=1;else fl_pg_out.first_pg=0; 
// 2740                                       if (buf_rx_ppp[ind+2] & NO_END_PG) fl_pg_out.end_pg=0;else fl_pg_out.end_pg=1;                                                        
// 2741                                       if (buf_rx_ppp[ind+2] & NADO_KV) fl_pg_out.send_kv=1;else fl_pg_out.send_kv=0;
// 2742                                       id_pg_appl=buf_rx_ppp[ind+3];
// 2743                                       break;
// 2744                                                   
// 2745                  case KOD_WR_PG_CRC: 
// 2746                                      
// 2747                                       fl_pg_out.ch_crc=0;
??proc_option_1:
        MOVW	R31:R30, R17:R16
        LDD	R18, Z+33
        ANDI	R18, 0xFD
        STD	Z+33, R18
// 2748                                       if(buf_rx_ppp[ind+1]!=L_OP_WR_PG_CRC)return(0);   
        MOVW	R31:R30, R27:R26
        LDD	R18, Z+1
        CPI	R18, 4
        BREQ	$+2+2
        RJMP	??proc_option_2
// 2749                                       if(((buf_rx_ppp[TR_V]>>4)&0x03)!=ZAPR)return(0); 
        MOVW	R31:R30, R25:R24
        LDD	R18, Z+36
        SWAP	R18
        ANDI	R18, 0x0F
        ANDI	R18, 0x03
        BREQ	$+2+2
        RJMP	??proc_option_2
// 2750                                       fl_pg_out.ch_crc=1;
        MOVW	R31:R30, R17:R16
        LDD	R18, Z+33
        ORI	R18, 0x02
        STD	Z+33, R18
// 2751                                       pg_crc=*(unsigned int*)&buf_rx_ppp[ind+2];                                                            
        MOVW	R31:R30, R27:R26
        LDD	R18, Z+2
        LDD	R19, Z+3
        MOVW	R31:R30, R17:R16
        STD	Z+22, R18
        STD	Z+23, R19
// 2752                                       break;
// 2753                  
// 2754                                   
// 2755                  default:  return(0);   
// 2756                               
// 2757                  }
// 2758  
// 2759  //çäĺńü âűń÷čňűâŕĺňń˙ äëčíŕ çŕďîëíčňĺë˙              
// 2760  tt=4-((buf_rx_ppp[ind+1]+4)%4);
??proc_option_3:
        MOVW	R31:R30, R27:R26
        LDD	R16, Z+1
        LDI	R17, 0
        SUBI	R16, 252
        SBCI	R17, 255
        LDI	R20, 4
        LDI	R21, 0
        CALL	?SS_DIVMOD_L02
        LDI	R16, 4
        SUB	R16, R20
// 2761  if(tt==4)tt=0;           
        CPI	R16, 4
        BRNE	??proc_option_4
        LDI	R16, 0
// 2762  ///////////////
// 2763  
// 2764  cnt=cnt+buf_rx_ppp[ind+1]+tt;
??proc_option_4:
        MOVW	R31:R30, R27:R26
        LDD	R17, Z+1
        ADD	R17, R16
        ADD	R6, R17
// 2765  if(cnt>=count_rx_opt)return(1);//âńĺ îďöčč ďđîń÷čňŕíű
        CLR	R7
        CP	R6, R8
        CPC	R7, R9
        BRCS	$+2+2
        RJMP	??proc_option_5
// 2766         
// 2767  ind=ind+buf_rx_ppp[ind+1]+tt;               
        LDD	R18, Z+1
        LDI	R17, 0
        ADD	R16, R18
        ADC	R17, R7
        ADD	R4, R16
        ADC	R5, R17
// 2768  //if(ind>=count_rx_opt)return(1);
// 2769  goto next_option;
??proc_option_0:
        MOVW	R27:R26, R25:R24
        ADD	R26, R4
        ADC	R27, R5
        LDI	R16, LOW(Obj_ppp_tx)
        LDI	R17, (Obj_ppp_tx) >> 8
        LD	R18, X
        SUBI	R18, 1
        BRNE	$+2+2
        RJMP	??proc_option_6
        DEC	R18
        BRNE	$+2+2
        RJMP	??proc_option_7
        DEC	R18
        BRNE	$+2+2
        RJMP	??proc_option_1
        DEC	R18
        BREQ	??proc_option_8
        SUBI	R18, 2
        BRNE	$+2+2
        RJMP	??proc_option_9
        RJMP	??proc_option_2
??proc_option_8:
        MOVW	R31:R30, R27:R26
        LDD	R16, Z+1
        CPI	R16, 5
        BREQ	??proc_option_10
??proc_option_2:
        LDI	R16, 0
??proc_option_11:
        LDI	R30, 10
        JMP	?EPILOGUE_B10_L09
??proc_option_10:
        LDD	R16, Z+2
        CPI	R16, 1
        BRNE	??proc_option_2
        MOVW	R31:R30, R25:R24
        LDD	R16, Z+36
        SWAP	R16
        ANDI	R16, 0x0F
        ANDI	R16, 0x03
        CPI	R16, 3
        BRNE	??proc_option_2
        MOVW	R31:R30, R27:R26
        LDD	R16, Z+3
        LDD	R17, Z+4
        LDI	R30, LOW(num_seq_cl)
        LDI	R31, (num_seq_cl) >> 8
        LD	R18, Z
        LDD	R19, Z+1
        CP	R16, R18
        CPC	R17, R19
        BRNE	??proc_option_12
        LDI	R30, LOW(Appl_seq)
        LDI	R31, (Appl_seq) >> 8
        LDI	R16, 0
        LDI	R17, 0
        STD	Z+22, R16
        STD	Z+23, R16
        LDI	R16, 1
        STD	Z+20, R16
        STD	Z+21, R16
        STD	Z+11, R17
        STD	Z+12, R17
        STD	Z+13, R17
        STD	Z+9, R17
        STD	Z+10, R17
        LDI	R30, LOW(fl_appl_seq)
        LDI	R31, (fl_appl_seq) >> 8
        LD	R16, Z
        ANDI	R16, 0xF9
        ST	Z, R16
??proc_option_12:
        LDI	R30, LOW(vol_cnt_no_link)
        LDI	R31, (vol_cnt_no_link) >> 8
        LD	R16, Z
        LDD	R17, Z+1
        LDD	R18, Z+2
        LDD	R19, Z+3
        LDI	R30, LOW(cnt_no_link)
        LDI	R31, (cnt_no_link) >> 8
        ST	Z, R16
        STD	Z+1, R17
        STD	Z+2, R18
        STD	Z+3, R19
        LDI	R30, LOW(Control)
        LDI	R31, (Control) >> 8
        LDI	R16, 0
        STD	Z+1, R16
        LDD	R16, Z+8
        LDD	R17, Z+9
        STD	Z+4, R16
        STD	Z+5, R17
        LDI	R16, 0
        STD	Z+2, R16
        STD	Z+14, R16
        ST	Z, R16
        RJMP	??proc_option_2
??proc_option_9:
        MOVW	R31:R30, R27:R26
        LDD	R18, Z+1
        CPI	R18, 4
        BREQ	$+2+2
        RJMP	??proc_option_2
        MOVW	R31:R30, R25:R24
        LDD	R18, Z+36
        SWAP	R18
        ANDI	R18, 0x0F
        ANDI	R18, 0x03
        BREQ	$+2+2
        RJMP	??proc_option_2
        MOVW	R31:R30, R27:R26
        LDD	R18, Z+2
        LDD	R19, Z+3
        MOVW	R31:R30, R17:R16
        STD	Z+16, R18
        STD	Z+17, R19
        CPI	R18, 137
        LDI	R20, 19
        CPC	R19, R20
        BRCS	??proc_option_5
        LDI	R18, 0
        STD	Z+16, R18
        STD	Z+17, R18
        RJMP	??proc_option_2
??proc_option_5:
        LDI	R16, 1
        RJMP	??proc_option_11
??proc_option_6:
        MOVW	R31:R30, R27:R26
        LDD	R16, Z+1
        CPI	R16, 3
        BREQ	$+2+2
        RJMP	??proc_option_2
        MOVW	R31:R30, R25:R24
        LDD	R16, Z+36
        SWAP	R16
        ANDI	R16, 0x0F
        ANDI	R16, 0x03
        BREQ	$+2+2
        RJMP	??proc_option_2
        LDI	R16, 2
        RJMP	??proc_option_11
??proc_option_7:
        MOVW	R31:R30, R27:R26
        LDD	R18, Z+1
        CPI	R18, 4
        BREQ	$+2+2
        RJMP	??proc_option_2
        MOVW	R31:R30, R25:R24
        LDD	R18, Z+36
        SWAP	R18
        ANDI	R18, 0x0F
        ANDI	R18, 0x03
        BREQ	$+2+2
        RJMP	??proc_option_2
        MOVW	R31:R30, R27:R26
        LDD	R18, Z+2
        MOVW	R31:R30, R17:R16
        SBRS	R18, 0
        RJMP	??proc_option_13
        LDD	R18, Z+33
        ORI	R18, 0x10
        RJMP	??proc_option_14
??proc_option_13:
        LDD	R18, Z+33
        ANDI	R18, 0xEF
??proc_option_14:
        STD	Z+33, R18
        MOVW	R31:R30, R27:R26
        LDD	R18, Z+2
        MOVW	R31:R30, R17:R16
        SBRS	R18, 1
        RJMP	??proc_option_15
        LDD	R18, Z+33
        ANDI	R18, 0xFE
        RJMP	??proc_option_16
??proc_option_15:
        LDD	R18, Z+33
        ORI	R18, 0x01
??proc_option_16:
        STD	Z+33, R18
        MOVW	R31:R30, R27:R26
        LDD	R18, Z+2
        MOVW	R31:R30, R17:R16
        SBRS	R18, 2
        RJMP	??proc_option_17
        LDD	R18, Z+33
        ORI	R18, 0x04
        RJMP	??proc_option_18
??proc_option_17:
        LDD	R18, Z+33
        ANDI	R18, 0xFB
??proc_option_18:
        STD	Z+33, R18
        MOVW	R31:R30, R27:R26
        LDD	R18, Z+3
        MOVW	R31:R30, R17:R16
        STD	Z+35, R18
        RJMP	??proc_option_3
        CFI EndBlock cfiBlock16
// 2770  } 
// 2771  
// 2772  
// 2773  

        RSEG CODE:CODE:NOROOT(1)
// 2774  void send_size_pg(unsigned char id,unsigned int dst)
send_size_pg:
        CFI Block cfiBlock17 Using cfiCommon0
        CFI Function send_size_pg
// 2775     {
        FUNCALL send_size_pg, clr_cntr_nat
        LOCFRAME CSTACK, 4, STACK
        LOCFRAME RSTACK, 2, STACK
        FUNCALL send_size_pg, clr_cntr_link
        LOCFRAME CSTACK, 4, STACK
        LOCFRAME RSTACK, 2, STACK
        FUNCALL send_size_pg, form_buf_tx_ppp
        LOCFRAME CSTACK, 4, STACK
        LOCFRAME RSTACK, 2, STACK
        FUNCALL send_size_pg, check_cts
        LOCFRAME CSTACK, 4, STACK
        LOCFRAME RSTACK, 2, STACK
        CALL	?PROLOGUE4_L09
        CFI R27 Frame(CFA_Y, -1)
        CFI R26 Frame(CFA_Y, -2)
        CFI R25 Frame(CFA_Y, -3)
        CFI R24 Frame(CFA_Y, -4)
        CFI CFA_Y Y+4
        MOV	R26, R16
        MOVW	R25:R24, R19:R18
// 2776        if(fl_ip.act_ip_end!=1)return;
        LDI	R30, LOW(cnt_pap_tm_out)
        LDI	R31, (cnt_pap_tm_out) >> 8
        LDD	R16, Z+4
        SBRS	R16, 0
        RJMP	??send_size_pg_0
// 2777           fl_ip.act_ip_end=0;      
        LDD	R16, Z+4
        ANDI	R16, 0xFE
        STD	Z+4, R16
// 2778           clr_cntr_nat();
        CALL	clr_cntr_nat
// 2779           clr_cntr_link();
        CALL	clr_cntr_link
// 2780           Obj_ppp_tx.prozr=FALSE;            
        LDI	R16, LOW(Obj_ppp_tx)
        LDI	R17, (Obj_ppp_tx) >> 8
        LDI	R18, 0
        MOVW	R31:R30, R17:R16
        ST	Z, R18
// 2781           Obj_ppp_tx.version=VER2;      //âĺđńč˙ 
        LDI	R18, 2
        STD	Z+1, R18
// 2782           Obj_ppp_tx.type_pac=OTV;     //ňčď ďŕęĺňŕ
        LDI	R18, 1
        STD	Z+2, R18
// 2783           Obj_ppp_tx.num_src=num_self; // íîěĺđ îňďđŕâčňĺë˙
        LDI	R30, LOW(num_self)
        LDI	R31, (num_self) >> 8
        LD	R18, Z
        LDD	R19, Z+1
        MOVW	R31:R30, R17:R16
        STD	Z+3, R18
        STD	Z+4, R19
// 2784           Obj_ppp_tx.num_dst=dst; // íîěĺđ ďîëó÷ŕňĺë˙
        STD	Z+5, R24
        STD	Z+6, R25
// 2785          
// 2786           Obj_ppp_tx.id_pac=id; // čäĺíňčôčęŕňîđ ďŕęĺňŕ  
        STD	Z+7, R26
// 2787           Obj_ppp_tx.p_opt=&buf_opt_tr[0]; // //óęŕçŕňĺëü áóôĺđŕ îďöčé          
        LDI	R30, LOW(buf_opt_tr)
        LDI	R31, (buf_opt_tr) >> 8
        MOVW	R27:R26, R17:R16
        ADIW	R27:R26, 8
        ST	X+, R30
        ST	X, R31
// 2788           
// 2789           
// 2790         Obj_ppp_tx.l_opt=4;// äëčíŕ áóôĺđŕ îďöčé   
        LDI	R18, 4
        MOVW	R27:R26, R17:R16
        ADIW	R27:R26, 10
        ST	X, R18
// 2791         buf_opt_tr[0]=KOD_OP_SIZE_PG;
        LDI	R18, 1
        ST	Z, R18
// 2792         buf_opt_tr[1]=L_OP_SIZE_PG_OTV;
        LDI	R18, 4
        STD	Z+1, R18
// 2793         *(unsigned int*)&buf_opt_tr[2]=256;  
        LDI	R18, 0
        LDI	R19, 1
        STD	Z+2, R18
        STD	Z+3, R19
// 2794         
// 2795         //Obj_ppp_tx.kol_opt=1;// ęîëč÷ĺńňâî îďöčé     
// 2796        
// 2797        
// 2798          Obj_ppp_tx.l_data=0;   // äëčíŕ äŕííűő
        MOVW	R31:R30, R17:R16
        STD	Z+14, R18
        STD	Z+15, R18
// 2799          Obj_ppp_tx.p_data=&buf_tx_232[TR_OP_DATA+C1_PROT];  //óęŕçŕňĺëü áóôĺđŕ äŕííűő
        LDI	R18, LOW((buf_tx_232 + 42))
        LDI	R19, HIGH((buf_tx_232 + 42))
        STD	Z+12, R18
        STD	Z+13, R19
// 2800         
// 2801          form_buf_tx_ppp();                            
        CALL	form_buf_tx_ppp
// 2802          UCSR0A=UCSR0A | TXC;                            
        LDS	R16, 192
        ORI	R16, 0x40
        STS	192, R16
// 2803          UCSR0B=UCSR0B | TXEN;
        LDS	R16, 193
        ORI	R16, 0x08
        STS	193, R16
// 2804          UCSR0B=UCSR0B | TXCIE;
        LDS	R16, 193
        ORI	R16, 0x40
        STS	193, R16
// 2805          if(check_cts()==1) return;                
        CALL	check_cts
        CPI	R16, 1
        BREQ	??send_size_pg_0
// 2806          S2_RD;
        SBI	0x08, 0x00
        CBI	0x08, 0x01
// 2807          UDR0=buf_tx_232[0];
        LDS	R16, buf_tx_232
        STS	198, R16
// 2808          if(Regim==RG_DEBAG) UDR3=buf_tx_232[0];
        LDS	R16, Regim
        CPI	R16, 1
        BRNE	??send_size_pg_0
        LDS	R16, buf_tx_232
        STS	310, R16
??send_size_pg_0:
        LDI	R30, 4
        JMP	?EPILOGUE_B4_L09
        CFI EndBlock cfiBlock17
// 2809          return;     
// 2810     }
// 2811  
// 2812 /* 
// 2813  void send_otv_ping(unsigned char id,unsigned int dst)
// 2814     {
// 2815        if(fl_ip.act_ip_end!=1)return;
// 2816           fl_ip.act_ip_end=0;      
// 2817           clr_cntr_nat();
// 2818           clr_cntr_link();
// 2819           Obj_ppp_tx.prozr=FALSE;            
// 2820           Obj_ppp_tx.version=VER2;      //âĺđńč˙ 
// 2821           Obj_ppp_tx.type_pac=OTV;     //ňčď ďŕęĺňŕ
// 2822           Obj_ppp_tx.num_src=num_self; // íîěĺđ îňďđŕâčňĺë˙
// 2823           Obj_ppp_tx.num_dst=dst; // íîěĺđ ďîëó÷ŕňĺë˙
// 2824          
// 2825           Obj_ppp_tx.id_pac=id; // čäĺíňčôčęŕňîđ ďŕęĺňŕ  
// 2826               
// 2827           Obj_ppp_tx.kol_opt=0;// ęîëč÷ĺńňâî îďöčé   
// 2828           Obj_ppp_tx.l_opt=0;// äëčíŕ áóôĺđŕ îďöčé   
// 2829         
// 2830           Obj_ppp_tx.l_data=0;   // äëčíŕ äŕííűő
// 2831          
// 2832           
// 2833          form_buf_tx_ppp();                            
// 2834          UCSR0A=UCSR0A | TXC;                            
// 2835          UCSR0B=UCSR0B | TXEN;
// 2836          UCSR0B=UCSR0B | TXCIE;
// 2837          if(check_cts()==1) return;                
// 2838          S2_RD;
// 2839          UDR0=buf_tx_232[0];
// 2840          if(Regim==RG_DEBAG) UDR3=buf_tx_232[0];
// 2841          return;     
// 2842     }
// 2843  
// 2844  */
// 2845  

        RSEG CODE:CODE:NOROOT(1)
// 2846   unsigned char proc_udp_data(unsigned char *buf_rx_ppp,unsigned int count_rx_ppp)
proc_udp_data:
        CFI Block cfiBlock18 Using cfiCommon0
        CFI Function proc_udp_data
// 2847                {
        FUNCALL proc_udp_data, transform_buf
        LOCFRAME CSTACK, 18, STACK
        LOCFRAME RSTACK, 2, STACK
        FUNCALL proc_udp_data, crc_m1
        LOCFRAME CSTACK, 18, STACK
        LOCFRAME RSTACK, 2, STACK
        FUNCALL proc_udp_data, proc_option
        LOCFRAME CSTACK, 18, STACK
        LOCFRAME RSTACK, 2, STACK
        FUNCALL proc_udp_data, send_size_pg
        LOCFRAME CSTACK, 18, STACK
        LOCFRAME RSTACK, 2, STACK
        FUNCALL proc_udp_data, send_info
        LOCFRAME CSTACK, 18, STACK
        LOCFRAME RSTACK, 2, STACK
        FUNCALL proc_udp_data, clr_cntr_nat
        LOCFRAME CSTACK, 18, STACK
        LOCFRAME RSTACK, 2, STACK
        FUNCALL proc_udp_data, send_info
        LOCFRAME CSTACK, 18, STACK
        LOCFRAME RSTACK, 2, STACK
        FUNCALL proc_udp_data, send_info
        LOCFRAME CSTACK, 18, STACK
        LOCFRAME RSTACK, 2, STACK
        FUNCALL proc_udp_data, send_err485
        LOCFRAME CSTACK, 18, STACK
        LOCFRAME RSTACK, 2, STACK
        FUNCALL proc_udp_data, send_info
        LOCFRAME CSTACK, 18, STACK
        LOCFRAME RSTACK, 2, STACK
        FUNCALL proc_udp_data, send_err485
        LOCFRAME CSTACK, 18, STACK
        LOCFRAME RSTACK, 2, STACK
        FUNCALL proc_udp_data, check_cont_485_1
        LOCFRAME CSTACK, 18, STACK
        LOCFRAME RSTACK, 2, STACK
        FUNCALL proc_udp_data, send_info
        LOCFRAME CSTACK, 18, STACK
        LOCFRAME RSTACK, 2, STACK
        FUNCALL proc_udp_data, send_err485
        LOCFRAME CSTACK, 18, STACK
        LOCFRAME RSTACK, 2, STACK
        FUNCALL proc_udp_data, send_info
        LOCFRAME CSTACK, 18, STACK
        LOCFRAME RSTACK, 2, STACK
        FUNCALL proc_udp_data, send_err485
        LOCFRAME CSTACK, 18, STACK
        LOCFRAME RSTACK, 2, STACK
        FUNCALL proc_udp_data, send_info
        LOCFRAME CSTACK, 18, STACK
        LOCFRAME RSTACK, 2, STACK
        FUNCALL proc_udp_data, send_err485
        LOCFRAME CSTACK, 18, STACK
        LOCFRAME RSTACK, 2, STACK
        FUNCALL proc_udp_data, proc_option
        LOCFRAME CSTACK, 18, STACK
        LOCFRAME RSTACK, 2, STACK
        FUNCALL proc_udp_data, send_info
        LOCFRAME CSTACK, 18, STACK
        LOCFRAME RSTACK, 2, STACK
        FUNCALL proc_udp_data, send_err485
