//////////////////////////////////////////////////////////////////////////////
//                                                                           /
//                                                     28/Sep/2007  13:27:26 /
// IAR Atmel AVR C/C++ Compiler V4.12A/W32, Evaluation Version               /
// Copyright 1996-2005 IAR Systems. All rights reserved.                     /
//                                                                           /
//    Source file  =  D:\PRJIAR\NSS270907\KP7(270907)\fppp1.c                /
//    Command line =  "D:\PRJIAR\NSS270907\KP7(270907)\fppp1.c" --cpu=m1280  /
//                    -ms -o "D:\PRJIAR\NSS270907\KP7(270907)\Debug\Obj\"    /
//                    -lCN "D:\PRJIAR\NSS270907\KP7(270907)\Debug\List\"     /
//                    -lA "D:\PRJIAR\NSS270907\KP7(270907)\Debug\List\" -y   /
//                    --initializers_in_flash -z6 --no_inline                /
//                    --no_cross_call --no_tbaa --debug -e -I "D:\Program    /
//                    Files\IAR Systems\Embedded Workbench 4.0               /
//                    Evaluation\avr\INC\" -I "D:\Program Files\IAR          /
//                    Systems\Embedded Workbench 4.0                         /
//                    Evaluation\avr\INC\DLIB\" --eeprom_size 4096           /
//                    --dlib_config "D:\Program Files\IAR Systems\Embedded   /
//                    Workbench 4.0 Evaluation\avr\LIB\DLIB\dlAVR-3s-ec-n.h" /
//    List file    =  D:\PRJIAR\NSS270907\KP7(270907)\Debug\List\fppp1.s90   /
//                                                                           /
//                                                                           /
//////////////////////////////////////////////////////////////////////////////

        NAME fppp1

        RTMODEL "__64bit_doubles", "disabled"
        RTMODEL "__cpu", "3"
        RTMODEL "__cpu_name", "ATmega1280"
        RTMODEL "__enhanced_core", "enabled"
        RTMODEL "__has_elpm", "true"
        RTMODEL "__memory_model", "2"
        RTMODEL "__no_rampd", "enabled"
        RTMODEL "__rt_version", "3"

        RSEG CSTACK:DATA:NOROOT(0)
        RSEG RSTACK:DATA:NOROOT(0)

        EXTERN ?CV_SWITCH_L06
        EXTERN ?EPILOGUE_B10_L09
        EXTERN ?EPILOGUE_B16_L09
        EXTERN ?EPILOGUE_B4_L09
        EXTERN ?EPILOGUE_B5_L09
        EXTERN ?EPILOGUE_B7_L09
        EXTERN ?EPILOGUE_B9_L09
        EXTERN ?PROLOGUE10_L09
        EXTERN ?PROLOGUE16_L09
        EXTERN ?PROLOGUE4_L09
        EXTERN ?PROLOGUE5_L09
        EXTERN ?PROLOGUE7_L09
        EXTERN ?PROLOGUE9_L09
        EXTERN ?Register_R10_is_cg_reg
        EXTERN ?Register_R11_is_cg_reg
        EXTERN ?Register_R12_is_cg_reg
        EXTERN ?Register_R13_is_cg_reg
        EXTERN ?Register_R14_is_cg_reg
        EXTERN ?Register_R15_is_cg_reg
        EXTERN ?Register_R4_is_cg_reg
        EXTERN ?Register_R5_is_cg_reg
        EXTERN ?Register_R6_is_cg_reg
        EXTERN ?Register_R7_is_cg_reg
        EXTERN ?Register_R8_is_cg_reg
        EXTERN ?Register_R9_is_cg_reg
        EXTERN ?SS_DIVMOD_L02
        EXTERN ?need_segment_init

        PUBWEAK `?<Segment init: NEAR_Z>`
        PUBLIC IPCP_act_buf
        PUBLIC IPCP_event
        PUBLIC IPCP_state
        PUBLIC LCP_act_buf
        PUBLIC LCP_event
        PUBLIC LCP_state
        PUBLIC Obj_ppp_tx
        PUBLIC PAP_event
        PUBLIC PAP_state
        PUBWEAK _A_PORTC
        PUBWEAK _A_RAMPZ
        PUBWEAK _A_SREG
        PUBWEAK _A_UCSR0A
        PUBWEAK _A_UCSR0B
        PUBWEAK _A_UDR0
        PUBWEAK _A_UDR3
        PUBWEAK _A_WDTCSR
        PUBWEAK __?EEARH
        PUBWEAK __?EEARL
        PUBWEAK __?EECR
        PUBWEAK __?EEDR
        PUBLIC analiz_ppp_rx
        FUNCTION analiz_ppp_rx,021203H
        LOCFRAME RSTACK, 2, STACK
        PUBLIC ans_in_ctrl_cl
        PUBLIC ans_out_232
        PUBLIC ans_out_485_1
        PUBLIC ans_out_485_2
        PUBLIC ans_out_config
        PUBLIC ans_out_prog
        PUBLIC ans_out_st_contr
        PUBLIC array_in_232
        PUBLIC buf_ack_opt_ipcp
        PUBLIC buf_ack_opt_lcp
        PUBLIC buf_nak_opt_ipcp
        PUBLIC buf_nak_opt_lcp
        PUBLIC buf_rej_opt_ipcp
        PUBLIC buf_rej_opt_lcp
        PUBLIC buf_rejc_opt_ipcp
        PUBLIC buf_rejc_opt_lcp
        PUBLIC calc_crc_ip
        FUNCTION calc_crc_ip,0203H
        LOCFRAME CSTACK, 8, STACK
        LOCFRAME RSTACK, 2, STACK
        PUBLIC calc_crc_udp_2
        FUNCTION calc_crc_udp_2,0203H
        LOCFRAME CSTACK, 10, STACK
        LOCFRAME RSTACK, 2, STACK
        PUBLIC cnt_ip_tm_cntr
        PUBLIC cnt_ipcp_tm_out
        PUBLIC cnt_lcp_tm_out
        PUBLIC cnt_pap_tm_out
        PUBLIC cnt_pg
        PUBLIC cnt_rst_ipcp
        PUBLIC cnt_rst_lcp
        PUBLIC cnt_rst_pap
        PUBLIC contr_gluk1
        PUBLIC contr_gluk2
        PUBLIC delay_pre_tx
        PUBLIC evc_rld
        PUBLIC fcstab
        PUBLIC fl_ip
        PUBLIC fl_ipcp
        PUBLIC fl_ipcp1
        PUBLIC fl_ipcp2
        PUBLIC fl_lcp
        PUBLIC fl_lcp1
        PUBLIC fl_lcp2
        PUBLIC fl_pap
        PUBLIC fl_pg_out
        PUBLIC fl_rewrite
        PUBLIC i_scan_ipcp
        PUBLIC i_scan_lcp
        PUBLIC i_scj_ipcp
        PUBLIC i_scj_lcp
        PUBLIC i_scr_ipcp
        PUBLIC i_scr_lcp
        PUBLIC i_scr_pap
        PUBLIC i_sta_ipcp
        PUBLIC i_sta_lcp
        PUBLIC i_str_ipcp
        PUBLIC i_str_lcp
        PUBLIC id_pg_appl
        PUBLIC id_pg_kp
        PUBLIC ip_pri_dns
        PUBLIC ip_sec_dns
        PUBLIC ln_ack_ipcp
        PUBLIC ln_ack_lcp
        PUBLIC ln_nak_ipcp
        PUBLIC ln_nak_lcp
        PUBLIC ln_rej_ipcp
        PUBLIC ln_rej_lcp
        PUBLIC ln_rejc_ipcp
        PUBLIC ln_rejc_lcp
        PUBLIC monitor_act_IPCP
        FUNCTION monitor_act_IPCP,021203H
        LOCFRAME CSTACK, 2, STACK
        LOCFRAME RSTACK, 2, STACK
        PUBLIC monitor_act_LCP
        FUNCTION monitor_act_LCP,021203H
        LOCFRAME CSTACK, 2, STACK
        LOCFRAME RSTACK, 2, STACK
        PUBLIC monitor_act_PAP
        FUNCTION monitor_act_PAP,021203H
        LOCFRAME CSTACK, 7, STACK
        LOCFRAME RSTACK, 2, STACK
        PUBLIC monitor_event_IPCP
        FUNCTION monitor_event_IPCP,021203H
        LOCFRAME CSTACK, 7, STACK
        LOCFRAME RSTACK, 2, STACK
        PUBLIC monitor_event_LCP
        FUNCTION monitor_event_LCP,021203H
        LOCFRAME CSTACK, 7, STACK
        LOCFRAME RSTACK, 2, STACK
        PUBLIC monitor_event_PAP
        FUNCTION monitor_event_PAP,0203H
        LOCFRAME RSTACK, 2, STACK
        PUBLIC off_buf
        PUBLIC pagee
        PUBLIC pap_act_buf
        PUBLIC pg_crc
        PUBLIC pppfcs16
        FUNCTION pppfcs16,0203H
        LOCFRAME RSTACK, 2, STACK
        PUBLIC proc_option
        FUNCTION proc_option,0203H
        LOCFRAME CSTACK, 10, STACK
        LOCFRAME RSTACK, 4, STACK
        PUBLIC proc_paging
        FUNCTION proc_paging,0203H
        LOCFRAME RSTACK, 2, STACK
        PUBLIC proc_ppp_packet
        FUNCTION proc_ppp_packet,021203H
        LOCFRAME CSTACK, 13, STACK
        LOCFRAME RSTACK, 2, STACK
        PUBLIC proc_udp_data
        FUNCTION proc_udp_data,021203H
        LOCFRAME CSTACK, 18, STACK
        LOCFRAME RSTACK, 2, STACK
        PUBLIC prov_uk_in
        FUNCTION prov_uk_in,0203H
        LOCFRAME RSTACK, 2, STACK
        PUBLIC prov_uk_in_ipcp
        FUNCTION prov_uk_in_ipcp,0203H
        LOCFRAME RSTACK, 2, STACK
        PUBLIC rcvd_protokol
        PUBLIC reboot_byte
        PUBLIC rec_ctrl_ch
        PUBLIC rec_evc
        PUBLIC run_ipcp_act
        FUNCTION run_ipcp_act,021203H
        LOCFRAME CSTACK, 7, STACK
        LOCFRAME RSTACK, 2, STACK
        PUBLIC run_lcp_act
        FUNCTION run_lcp_act,021203H
        LOCFRAME CSTACK, 7, STACK
        LOCFRAME RSTACK, 2, STACK
        PUBLIC send_no_sinc
        FUNCTION send_no_sinc,021203H
        LOCFRAME CSTACK, 4, STACK
        LOCFRAME RSTACK, 2, STACK
        PUBLIC send_size_pg
        FUNCTION send_size_pg,021203H
        LOCFRAME CSTACK, 4, STACK
        LOCFRAME RSTACK, 2, STACK
        PUBLIC total_kol_page
        PUBLIC uk_in_act_IPCP
        PUBLIC uk_in_act_LCP
        PUBLIC uk_out_act_IPCP
        PUBLIC uk_out_act_LCP
        PUBLIC vol_cnt_rst_ipcp
        PUBLIC vol_cnt_rst_lcp
        PUBLIC vol_cnt_rst_pap
        
        CFI Names cfiNames0
        CFI StackFrame CFA_Y Y DATA
        CFI StackFrame CFA_SP SP DATA
        CFI VirtualResource ?RetPad:1, ?RetHigh:8, ?RetLow:8, ?Ret:17
        CFI Resource R0:8, R1:8, R2:8, R3:8, R4:8, R5:8, R6:8, R7:8, R8:8, R9:8
        CFI Resource R10:8, R11:8, R12:8, R13:8, R14:8, R15:8, R16:8, R17:8
        CFI Resource R18:8, R19:8, R20:8, R21:8, R22:8, R23:8, R24:8, R25:8
        CFI Resource R26:8, R27:8, R28:8, R29:8, R30:8, R31:8
        CFI Resource ?RetHighByteMask:8, SP:16, SPH:8, SPL:8, Y:16
        CFI ResourceParts ?Ret ?RetHigh, ?RetLow, ?RetPad
        CFI ResourceParts SP SPH, SPL
        CFI ResourceParts Y R29, R28
        CFI EndNames cfiNames0
        
        CFI Common cfiCommon0 Using cfiNames0
        CFI CodeAlign 1
        CFI DataAlign 1
        CFI ReturnAddress ?Ret CODE
        CFI CFA_Y Y+0
        CFI CFA_SP SP+2
        CFI ?RetPad 0
        CFI ?RetHigh and(load(1, DATA, sub(CFA_SP, 1)), ?RetHighByteMask)
        CFI ?RetLow Frame(CFA_SP, 0)
        CFI ?Ret Concat
        CFI R0 Undefined
        CFI R1 Undefined
        CFI R2 Undefined
        CFI R3 Undefined
        CFI R4 SameValue
        CFI R5 SameValue
        CFI R6 SameValue
        CFI R7 SameValue
        CFI R8 SameValue
        CFI R9 SameValue
        CFI R10 SameValue
        CFI R11 SameValue
        CFI R12 SameValue
        CFI R13 SameValue
        CFI R14 SameValue
        CFI R15 SameValue
        CFI R16 Undefined
        CFI R17 Undefined
        CFI R18 Undefined
        CFI R19 Undefined
        CFI R20 Undefined
        CFI R21 Undefined
        CFI R22 Undefined
        CFI R23 Undefined
        CFI R24 SameValue
        CFI R25 SameValue
        CFI R26 SameValue
        CFI R27 SameValue
        CFI R28 Undefined
        CFI R29 Undefined
        CFI R30 Undefined
        CFI R31 Undefined
        CFI ?RetHighByteMask SameValue
        CFI SPH Undefined
        CFI SPL Undefined
        CFI EndCommon cfiCommon0
        
        EXTERN check_cts
        FUNCTION check_cts,0202H
        EXTERN RdFromFleshToArr
        FUNCTION RdFromFleshToArr,0202H
        EXTERN clr_cntr_nat
        FUNCTION clr_cntr_nat,0202H
        EXTERN clr_cntr_link
        FUNCTION clr_cntr_link,0202H
        EXTERN form_buf_tx_ppp
        FUNCTION form_buf_tx_ppp,0202H
        EXTERN transform_buf
        FUNCTION transform_buf,0202H
        EXTERN crc_m1
        FUNCTION crc_m1,0202H
        EXTERN send_info
        FUNCTION send_info,0202H
        EXTERN send_err485
        FUNCTION send_err485,0202H
        EXTERN check_cont_485_1
        FUNCTION check_cont_485_1,0202H
        EXTERN burst_ds_r
        FUNCTION burst_ds_r,0202H
        EXTERN check_ln_conf
        FUNCTION check_ln_conf,0202H
        EXTERN WrArrayToFlesh
        FUNCTION WrArrayToFlesh,0202H
        EXTERN proc_config
        FUNCTION proc_config,0202H
        EXTERN crc_ozu
        FUNCTION crc_ozu,0202H
        EXTERN boot
        FUNCTION boot,0202H
        EXTERN r_p_flash
        FUNCTION r_p_flash,0202H
        EXTERN delay
        FUNCTION delay,0202H
        EXTERN reload_apl
        FUNCTION reload_apl,0202H
        EXTERN Appl_RS232_2
        EXTERN Appl_RS232_2_data_buf
        EXTERN Appl_RS485_1
        EXTERN Appl_RS485_1_data_buf
        EXTERN Appl_RS485_2
        EXTERN Appl_RS485_2_data_buf
        EXTERN Appl_seq
        EXTERN Appl_seq_des
        EXTERN Buf1_rx_ppp
        EXTERN Buf2_rx_ppp
        EXTERN Control
        EXTERN Regim
        EXTERN buf_opt_tr
        EXTERN buf_tx_232
        EXTERN byte_state_net
        EXTERN cnt_no_link
        EXTERN count_tx_ppp
        EXTERN event_modem
        EXTERN fl_232_2
        EXTERN fl_485_1
        EXTERN fl_485_2
        EXTERN fl_appl_seq
        EXTERN fl_appl_seq1
        EXTERN ip_ls
        EXTERN ip_self
        EXTERN layer_PPP
        EXTERN num_self
        EXTERN num_seq_cl
        EXTERN point_log_buf
        EXTERN port_udp
        EXTERN prov_ozu
        EXTERN simka
        EXTERN vol_cnt_no_link
        EXTERN vol_tx_ppp

// D:\PRJIAR\NSS270907\KP7(270907)\fppp1.c
//    1 #include <iom1280.h> 

        ASEGN ABSOLUTE:DATA:NOROOT,0136H
// union <unnamed> volatile __ext_io _A_UDR3
_A_UDR3:
        DS 1

        ASEGN ABSOLUTE:DATA:NOROOT,0c6H
// union <unnamed> volatile __io _A_UDR0
_A_UDR0:
        DS 1

        ASEGN ABSOLUTE:DATA:NOROOT,0c1H
// union <unnamed> volatile __io _A_UCSR0B
_A_UCSR0B:
        DS 1

        ASEGN ABSOLUTE:DATA:NOROOT,0c0H
// union <unnamed> volatile __io _A_UCSR0A
_A_UCSR0A:
        DS 1

        ASEGN ABSOLUTE:DATA:NOROOT,060H
// union <unnamed> volatile __io _A_WDTCSR
_A_WDTCSR:
        DS 1

        ASEGN ABSOLUTE:DATA:NOROOT,05fH
// union <unnamed> volatile __io _A_SREG
_A_SREG:
        DS 1

        ASEGN ABSOLUTE:DATA:NOROOT,05bH
// union <unnamed> volatile __io _A_RAMPZ
_A_RAMPZ:
        DS 1

        ASEGN ABSOLUTE:DATA:NOROOT,028H
// union <unnamed> volatile __io _A_PORTC
_A_PORTC:
        DS 1
//    2 #include <inavr.h>
//    3 #include "dfpin.h"
//    4 #include "dfproc.h"
//    5 #include "def_prot.h"
//    6 #include "def_conf.h"
//    7 #include "map_ef.h"
//    8 #include "ozu_map.h"
//    9 #include "def_at.h"
//   10 #include "def_link.h"
//   11 #include "dfcnst.h"
//   12 
//   13 
//   14 #define C_GLUK1    0x55   
//   15 #define C_GLUK2    0xaa
//   16 
//   17 void  transform_buf(unsigned char *p,unsigned int kol_byte,unsigned int s_rand);
//   18 
//   19 
//   20 void boot(void);
//   21 void r_p_flash(unsigned int adress);
//   22 void reload_apl (void);
//   23 
//   24 void send_info(char size,char __flash *p,unsigned char fl_id,unsigned char id);
//   25 

        RSEG NEAR_F:CODE:NOROOT(0)
//   26 __flash char evc_rld[]=            {'E','V','C',':','r','l','d'};
evc_rld:
        DB 69, 86, 67, 58, 114, 108, 100
//   27 
//   28 __flash char rec_ctrl_ch[]=             {'R','E','C',':','c','t','r','l',' ','c','h'};
rec_ctrl_ch:
        DB 82, 69, 67, 58, 99, 116, 114, 108, 32, 99, 104
//   29 __flash char rec_evc[]=             {'R','E','C',':','e','v','c'};
rec_evc:
        DB 82, 69, 67, 58, 101, 118, 99
//   30 
//   31 __flash char ans_in_ctrl_cl[]={'A','N','S','-','<','c','t','r','l',' ','c','l'};
ans_in_ctrl_cl:
        DB 65, 78, 83, 45, 60, 99, 116, 114, 108, 32, 99, 108
//   32 
//   33 
//   34 /*
//   35 __flash char req_in_485_1[]={'R','E','Q','-','<','4','8','5','_','1'};
//   36 __flash char req_in_485_2[]={'R','E','Q','-','<','4','8','5','_','2'};
//   37 __flash char req_in_232[]={'R','E','Q','-','<','2','3','2'};
//   38 __flash char req_in_st_contr[]={'R','E','Q','-','<','s','t',' ','c','o','n','t','r'};
//   39 __flash char req_in_config[]={'R','E','Q','-','<','c','o','n','f','i','g'};
//   40 __flash char req_in_prog[]={'R','E','Q','-','<','p','r','o','g'};
//   41 */
//   42 
//   43 __flash char ans_out_485_1[]={'A','N','S','-','>','4','8','5','_','1'};
ans_out_485_1:
        DB 65, 78, 83, 45, 62, 52, 56, 53, 95, 49
//   44 __flash char ans_out_485_2[]={'A','N','S','-','>','4','8','5','_','2'};
ans_out_485_2:
        DB 65, 78, 83, 45, 62, 52, 56, 53, 95, 50
//   45 __flash char ans_out_232[]={'A','N','S','-','>','2','3','2'};
ans_out_232:
        DB 65, 78, 83, 45, 62, 50, 51, 50
//   46 __flash char ans_out_st_contr[]={'A','N','S','-','>','s','t',' ','c','o','n','t','r'};
ans_out_st_contr:
        DB 65, 78, 83, 45, 62, 115, 116, 32, 99, 111, 110, 116, 114
//   47 __flash char ans_out_config[]={'A','N','S','-','>','c','o','n','f','i','g'};
ans_out_config:
        DB 65, 78, 83, 45, 62, 99, 111, 110, 102, 105, 103
//   48 __flash char ans_out_prog[]={'A','N','S','-','>','p','r','o','g'};
ans_out_prog:
        DB 65, 78, 83, 45, 62, 112, 114, 111, 103
//   49 
//   50 //__flash char ans_out_ping[]={'A','N','S','-','>','p','i','n','g'};
//   51 
//   52 
//   53 //#include "sec.h"
//   54 
//   55 //enum t_version {VER1 = 1 ,VER2,VER3,VER4};
//   56 //enum t_type {ZAPR,OTV,SOOB,KVIT};
//   57 extern unsigned char simka; //dobavka
//   58 
//   59 extern unsigned int num_self,num_seq_cl,port_udp;
//   60 extern unsigned char ip_ls[4]; 
//   61 
//   62 
//   63 extern unsigned long int cnt_no_link, vol_cnt_no_link;//dobavka
//   64 
//   65 void delay(unsigned int period);
//   66 extern unsigned long int burst_ds_r(void);
//   67 unsigned int proc_config(unsigned char *buf_rx_ppp,unsigned char offset,unsigned int count_rx_ppp);
//   68 unsigned char check_ln_conf(unsigned char *buf_rx_ppp,unsigned char offset,unsigned int count_rx_ppp);
//   69 unsigned char check_cont_485_1 (unsigned char *pointer);
//   70 unsigned char check_cont_485_2 (unsigned char *pointer);
//   71 
//   72 extern unsigned char Regim;
//   73 unsigned char proc_udp_data(unsigned char *buf_rx_ppp,unsigned int count_rx_ppp);
//   74 unsigned int crc_m1(unsigned char *ka,unsigned int num,unsigned int crc);
//   75 unsigned int crc_ozu(void);
//   76 extern unsigned int prov_ozu;
//   77 
//   78 void clr_cntr_nat(void);
//   79 void form_buf_tx_ppp(void);
//   80 
//   81 unsigned char check_cts(void);
//   82 void clr_cntr_link(void);
//   83 
//   84 void RdFromFleshToArr(unsigned int adres_flesh, unsigned char *adres_ozu,unsigned int num);
//   85 void WrArrayToFlesh(unsigned int adres_flesh,  unsigned char *adres_ozu, unsigned int num,unsigned char flag,unsigned char znach);
//   86 
//   87 void send_err485(unsigned char port,unsigned char err,unsigned char id,unsigned int dst);
//   88 
//   89 
//   90 extern unsigned char point_log_buf;
//   91 
//   92   struct
//   93   {
//   94   unsigned char  ip         :1;
//   95   unsigned char  udp        :1;
//   96   unsigned char  num_self   :1;
//   97   unsigned char cnt_reset;

        RSEG NEAR_Z:DATA:NOROOT(0)
        REQUIRE `?<Segment init: NEAR_Z>`
//   98   }fl_rewrite;
//   99 
//  100 ///!!!!!!!!!!!!!!!!!!!!!!!!!!!!!!!!!!!äë˙ ĐĐĐ
//  101 extern  struct
//  102  {
//  103   unsigned char data[VOL_RX_PPP];//ńŕě áóôĺđ
//  104   unsigned int ln_data;  // äëčíŕ äŕííűő
//  105   enum bool rec; // ďŕęĺň ďđčí˙ň
//  106   enum bool busy;// áóôĺđ çŕí˙ň
//  107   enum bool check_busy;// ďđîâĺđęŕ çŕí˙ň ëč áóôĺđ
//  108  }Buf1_rx_ppp,Buf2_rx_ppp; // 
//  109 
//  110 
//  111 
//  112 
//  113 extern enum t_event_modem event_modem;
//  114 
//  115 extern unsigned char buf_tx_232[VOL_TX_PPP];
//  116 extern unsigned int count_tx_ppp,vol_tx_ppp;
//  117 extern unsigned char layer_PPP;
//  118 
//  119 struct
//  120  {
//  121   unsigned char act_lcp_end :1;  
//  122   unsigned char lcp_tm_out_en :1;
//  123   unsigned char t0_pl:1;
//  124   unsigned char t0_mi:1;
//  125  }fl_lcp; 
//  126  
//  127 
//  128 struct
//  129  {
//  130   unsigned char act_ipcp_end :1;  
//  131   unsigned char ipcp_tm_out_en :1;
//  132   unsigned char t0_pl:1;
//  133   unsigned char t0_mi:1;
//  134  }fl_ipcp; 
//  135 
//  136 struct
//  137  {
//  138   unsigned char act_ip_end :1; 
//  139   unsigned char ip_tm_cntr_en :1; 
//  140   unsigned char ip_tm_nat_en :1;
//  141  }fl_ip;
//  142 
//  143 
//  144 
//  145   
//  146 struct
//  147  {
//  148   unsigned char act_pap_end :1;  
//  149   unsigned char pap_tm_out_en:1;
//  150   unsigned char t0_pl:1;
//  151   unsigned char t0_mi:1;  
//  152   unsigned char up: 1; 
//  153  }fl_pap; 
//  154 
//  155 
//  156  struct
//  157  {
//  158   unsigned char up :1;  
//  159   unsigned char down :1;
//  160  }fl_lcp1; 
//  161 
//  162 
//  163 struct
//  164  {
//  165   unsigned char up :1;  
//  166   unsigned char down :1;
//  167  }fl_ipcp1;
//  168  
//  169  struct
//  170  {
//  171   unsigned char nac_rej :1; // reject - 1 
//  172  }fl_lcp2;
//  173    
//  174  struct
//  175  {
//  176   unsigned char nac_rej :1; // reject - 1 
//  177  }fl_ipcp2;
//  178  
//  179  
//  180 
//  181 unsigned char pap_act_buf,PAP_state,PAP_event;
//  182 unsigned char LCP_state, LCP_event,LCP_act_buf[LCP_ACT_VOL];
//  183 unsigned char IPCP_state, IPCP_event,IPCP_act_buf[IPCP_ACT_VOL];
//  184 unsigned char uk_in_act_LCP,uk_out_act_LCP,uk_in_act_IPCP,uk_out_act_IPCP;
//  185 
//  186 unsigned char cnt_rst_lcp,vol_cnt_rst_lcp;
//  187 unsigned char cnt_rst_ipcp,vol_cnt_rst_ipcp;                       
//  188 unsigned char cnt_rst_pap,vol_cnt_rst_pap;       
//  189                       
//  190                         
//  191 unsigned int cnt_lcp_tm_out,cnt_ipcp_tm_out;
//  192 unsigned int cnt_pap_tm_out;
//  193 unsigned long int cnt_ip_tm_cntr;
//  194 unsigned char rcvd_protokol;
//  195 
//  196 unsigned char  i_scr_lcp,i_scan_lcp;
//  197 unsigned char  i_scj_lcp;//čäĺíňčôčęŕňîđű lcp
//  198 unsigned char  i_str_lcp,i_sta_lcp;
//  199  
//  200 unsigned char  i_scr_ipcp,i_scan_ipcp;
//  201 unsigned char  i_scj_ipcp;//čäĺíňčôčęŕňîđű ipcp
//  202 unsigned char  i_str_ipcp,i_sta_ipcp; 
//  203  
//  204   
//  205 unsigned char  i_scr_pap;
//  206 
//  207 
//  208 unsigned char buf_rejc_opt_lcp[MAX_DL_LCP-6];
//  209 unsigned char buf_ack_opt_lcp[MAX_DL_LCP-12];
//  210 unsigned char buf_nak_opt_lcp[MAX_DL_LCP-12];
//  211 unsigned char buf_rej_opt_lcp[MAX_DL_LCP-12];
//  212 
//  213 unsigned char buf_rejc_opt_ipcp[MAX_DL_IPCP-4];
//  214 unsigned char buf_ack_opt_ipcp[MAX_DL_IPCP-10];
//  215 unsigned char buf_nak_opt_ipcp[MAX_DL_IPCP-10];
//  216 unsigned char buf_rej_opt_ipcp[MAX_DL_IPCP-10];
//  217  
//  218 
//  219 unsigned char ln_rejc_lcp,ln_rej_lcp,ln_ack_lcp,ln_nak_lcp;
//  220 
//  221 unsigned char ln_rejc_ipcp,ln_rej_ipcp,ln_ack_ipcp,ln_nak_ipcp;
//  222 
//  223 
//  224 extern struct                   //ńňđóęňóđŕ, îďčńűâŕţůŕ˙ îáúĺęň ďĺđĺäŕ÷č ďî PPP 
//  225   {  
//  226   enum bool link_no ; //ńâ˙çč íĺň
//  227   enum bool link_waits; //îćčäŕíčĺ ęâčňęŕ íŕ ęîíňđîëü ńâ˙çč
//  228   enum bool link;      //ęîíňđîëü ńâ˙çč    
//  229   enum bool nat;      //ęîíňđîëü nat 
//  230   unsigned int cnt_link; // ń÷ĺň÷čę
//  231   unsigned int cnt_nat; // ń÷ĺň÷čę
//  232   unsigned int vol_link; // çíŕ÷ĺíčĺ  
//  233   unsigned int vol_nat; // //çíŕ÷ĺíčĺ 
//  234   unsigned int vol_waits; // çíŕ÷ĺíčĺ âđĺěĺíč ęâčňęŕ îćčäŕíč˙ ęîíňđîë˙ ńâ˙çč
//  235   unsigned char cnt_try; // ń÷ĺň÷čę ďîďűňîę ďîëó÷čňü ęâčňîę
//  236   unsigned char vol_try; // rjkbxtcndj ďîďűňîę ďîëó÷čňü ęâčňîę
//  237   }Control;
//  238 
//  239  extern unsigned char ip_self[4];
//  240  unsigned char ip_pri_dns[4],ip_sec_dns[4]; 
//  241   //EEEEEEEEEEEEEEEEEEEEEEEEEEEEEEEEEEEEEEEEE 
//  242 
//  243  
//  244  
//  245  
//  246    //!!!!!!!!!!!!!!!!!!!!!!!!!!!!!ńňđóęňóđű ďđčëîćĺíč˙
//  247 extern struct
//  248 {
//  249 unsigned char id;
//  250 unsigned int p_in;// óęŕçŕňĺëü ńâîáîäíîé ˙÷ĺéęč
//  251 unsigned int p_out;
//  252 unsigned int p_out_kv;
//  253 unsigned int crc;
//  254 unsigned int cnt_waits; // ń÷ĺň÷čę îćčäŕíč˙ ęâčňęŕ
//  255 unsigned char cnt_try; // ń÷ĺň÷čę ďîďűňîę ďîëó÷čňü ęâčňîę 
//  256 unsigned int l_data; // äëčíŕ ďîńűëŕĺěűő äŕííűő
//  257 unsigned char state;
//  258 unsigned char event;
//  259 unsigned int tm_vzat;
//  260 unsigned int vol_tm_vzat;
//  261 enum bool cntr_cl;
//  262 enum bool en_cntr_cl;
//  263 unsigned int cnt_cntr_cl;
//  264 unsigned int vol_cntr_cl;
//  265 }Appl_seq;
//  266 
//  267 extern unsigned char Appl_seq_des;
//  268 extern unsigned char state_seq;
//  269 
//  270 
//  271 
//  272 extern struct
//  273 {
//  274 unsigned char en_tx :1;
//  275 unsigned char kv_waits :1;
//  276 unsigned char en_povtor:1;
//  277 }fl_appl_seq;
//  278 
//  279 extern struct
//  280 {
//  281 unsigned char over_buf :1;
//  282 unsigned char send_state :1;
//  283 unsigned char enable:1; 
//  284 }fl_appl_seq1; 
//  285 
//  286 
//  287 extern unsigned char byte_state_net;
//  288 
//  289   //EEEEEEEEEEEEEEEEEEEEEEEEEEEEEEEEEEEEEEEEE
//  290  
//  291  unsigned int  delay_pre_tx;
//  292  
//  293  
//  294 //!!!!!!!!!!!!!!!11óäŕëĺííŕ˙ çŕăđóçęŕ 
//  295 unsigned char off_buf,total_kol_page;
//  296 unsigned int pagee;
//  297 unsigned char contr_gluk1, contr_gluk2;
//  298 unsigned char *array_in_232; 
//  299 unsigned char reboot_byte;
//  300  
//  301  struct
//  302  {
//  303  unsigned char  end_pg      :1;// ôëŕă ďîńëĺäíĺé ńňđŕíčöű
//  304  unsigned char  ch_crc      :1;// ôëŕă ďđîâĺđęč crc
//  305  unsigned char  send_kv     :1;//ôëŕă îňńűëęč ęâčňęŕ
//  306  unsigned char  cor_pg      :1;// ôëŕă ęîđđĺęňíîé ńňđŕíčöű äŕëüřĺ
//  307  unsigned char  first_pg    :1;//ôëŕă ďĺđâîé ńňđŕíčöű
//  308  unsigned char  hold_pg     :1;// ôëŕă çŕőâŕňŕ äŕííűő
//  309  unsigned char  send_crc     :1;// ôëŕă ďîńűëęč îďöčč ŃĐŃ
//  310  //unsigned char  yes_crc     :1;// âĺđíűé crc
//  311  }fl_pg_out;
//  312  
//  313  unsigned int pg_crc; //çíŕ÷ĺíčĺ crc ęóńęŕ äŕííűő
//  314  unsigned int cnt_pg;// đĺŕëüíűé ń÷ĺň÷čę ńňđŕíčö
//  315  unsigned char id_pg_kp;//öčęëč÷ĺńęčé čäĺíňčôčęŕňîđ ńňđŕíčö ęîíňđîëëĺđŕ
//  316  unsigned char id_pg_appl;//öčęëč÷ĺńęčé čäĺíňčôčęŕňîđ ńňđŕíčö âĺđőíĺăî ďđčëîćĺíč˙
//  317  
//  318  //EEEEEEEEEEEEEEEEEEEEEEEEEEEEEEEEEEE
//  319  
//  320  
//  321 extern unsigned char Appl_RS485_1_data_buf[LN_BUF_485_1];// ńŕě áóôĺđ
//  322 extern unsigned char Appl_RS485_2_data_buf[LN_BUF_485_2];// ńŕě áóôĺđ
//  323 extern unsigned char Appl_RS232_2_data_buf[LN_BUF_232_2];// ńŕě áóôĺđ
//  324  
//  325 extern struct                   //ńňđóęňóđŕ îďčńűâŕţůŕ˙ đŕáîňó ďđčëîćĺíč˙ "RS485_1" 
//  326   {  
//  327   enum bool fl_data_buf; //čěĺĺňń˙ ëč çŕáóôĺđčçčđîâŕííűé ďŕęĺň äë˙ ďĺđĺäŕ÷č â ďîđň RS485_1
//  328   unsigned int ln_data_buf; // çŕáóôĺđčçčđîâŕííŕ˙ äëčíŕ áóôĺđŕ
//  329   unsigned int dst_buf; // çŕáóôĺđčçčđîâŕííűé ďîëó÷ŕňĺëü
//  330   unsigned char cont_buf[8];// çŕáóôĺđčçčđîâŕííűé ęîíňĺęńň
//  331   unsigned char id_buf; // çŕáóôĺđčçčđîâŕííűé id
//  332   unsigned int dst_tek;// ňĺęóůčé ďîëó÷ŕňĺëü
//  333   unsigned char id_tek; // ňĺęóůčé id
//  334   unsigned int pre_tx;//çŕäĺđćęŕ ďĺđĺä ďĺđĺäŕ÷ĺé
//  335   }Appl_RS485_1,Appl_RS485_2,Appl_RS232_2;
//  336 
//  337 /*  
//  338 extern struct
//  339  {
//  340  unsigned char mon1 : 1;
//  341  unsigned char mon2 : 1;
//  342  } fl_tx485;
//  343 */ 
//  344 
//  345 extern struct
//  346  {
//  347  unsigned char busy : 1;
//  348  unsigned char rec : 1;
//  349  unsigned char tm_out : 1;
//  350  unsigned char tx : 1;
//  351  unsigned char over : 1;
//  352  unsigned char buffed : 1;
//  353  }fl_485_1,fl_485_2,fl_232_2;
//  354 
//  355  
//  356  
//  357 
//  358 
//  359 
//  360  struct                   //ńňđóęňóđŕ, îďčńűâŕţůŕ˙ îáúĺęň ďĺđĺäŕ÷č ďî PPP 
//  361   {  
//  362   enum bool prozr;      //âĺđńč˙       
//  363   enum t_version version;      //âĺđńč˙ 
//  364   enum t_type   type_pac;     //ňčď ďŕęĺňŕ
//  365   unsigned int num_src; // íîěĺđ îňďđŕâčňĺë˙
//  366   unsigned int num_dst; // íîěĺđ ďîëó÷ŕňĺë˙
//  367   unsigned char id_pac; // čäĺíňčôčęŕňîđ ďŕęĺňŕ  
//  368   unsigned char * p_opt; // //óęŕçŕňĺëü áóôĺđŕ îďöčé  
//  369   unsigned char l_opt;// äëčíŕ áóôĺđŕ îďöčé   
//  370   unsigned char kol_opt;// ęîëč÷ĺńňâî îďöčé   
//  371   unsigned char * p_data;  //óęŕçŕňĺëü áóôĺđŕ äŕííűő
//  372   unsigned int l_data;   // äëčíŕ äŕííűő
//  373   }Obj_ppp_tx;
Obj_ppp_tx:
        DS 16
delay_pre_tx:
        DS 2
pagee:
        DS 2
array_in_232:
        DS 2
pg_crc:
        DS 2
cnt_pg:
        DS 2
fl_rewrite:
        DS 2
off_buf:
        DS 1
total_kol_page:
        DS 1
contr_gluk1:
        DS 1
contr_gluk2:
        DS 1
reboot_byte:
        DS 1
fl_pg_out:
        DS 1
id_pg_kp:
        DS 1
id_pg_appl:
        DS 1

        RSEG NEAR_Z:DATA:NOROOT(0)
        REQUIRE `?<Segment init: NEAR_Z>`
ip_pri_dns:
        DS 4
ip_sec_dns:
        DS 4
cnt_lcp_tm_out:
        DS 2
fl_lcp:
        DS 1
fl_ipcp:
        DS 1
fl_ip:
        DS 1
fl_pap:
        DS 1
fl_lcp2:
        DS 1
fl_ipcp2:
        DS 1
pap_act_buf:
        DS 1
PAP_state:
        DS 1
PAP_event:
        DS 1
LCP_event:
        DS 1
LCP_act_buf:
        DS 15
IPCP_event:
        DS 1
uk_in_act_LCP:
        DS 1
uk_out_act_LCP:
        DS 1
uk_in_act_IPCP:
        DS 1
uk_out_act_IPCP:
        DS 1
cnt_rst_lcp:
        DS 1
vol_cnt_rst_lcp:
        DS 1
cnt_rst_ipcp:
        DS 1
vol_cnt_rst_ipcp:
        DS 1
rcvd_protokol:
        DS 1
i_scr_lcp:
        DS 1
i_scan_lcp:
        DS 1
i_scj_lcp:
        DS 1
i_str_lcp:
        DS 1
i_sta_lcp:
        DS 1
i_scr_ipcp:
        DS 1
i_scan_ipcp:
        DS 1
i_str_ipcp:
        DS 1
i_sta_ipcp:
        DS 1
i_scr_pap:
        DS 1
ln_rejc_lcp:
        DS 1
ln_rej_lcp:
        DS 1
ln_ack_lcp:
        DS 1
ln_nak_lcp:
        DS 1
ln_rejc_ipcp:
        DS 1
ln_rej_ipcp:
        DS 1
ln_ack_ipcp:
        DS 1
ln_nak_ipcp:
        DS 1

        RSEG NEAR_Z:DATA:NOROOT(0)
        REQUIRE `?<Segment init: NEAR_Z>`
fl_lcp1:
        DS 1
LCP_state:
        DS 1

        RSEG NEAR_Z:DATA:NOROOT(0)
        REQUIRE `?<Segment init: NEAR_Z>`
cnt_pap_tm_out:
        DS 2
fl_ipcp1:
        DS 1
IPCP_state:
        DS 1
IPCP_act_buf:
        DS 10
cnt_rst_pap:
        DS 1
vol_cnt_rst_pap:
        DS 1
buf_nak_opt_ipcp:
        DS 25

        RSEG NEAR_Z:DATA:NOROOT(0)
        REQUIRE `?<Segment init: NEAR_Z>`
cnt_ipcp_tm_out:
        DS 2
buf_rejc_opt_ipcp:
        DS 31
buf_ack_opt_ipcp:
        DS 25

        RSEG NEAR_Z:DATA:NOROOT(0)
        REQUIRE `?<Segment init: NEAR_Z>`
cnt_ip_tm_cntr:
        DS 4

        RSEG NEAR_Z:DATA:NOROOT(0)
        REQUIRE `?<Segment init: NEAR_Z>`
i_scj_ipcp:
        DS 1

        RSEG NEAR_Z:DATA:NOROOT(0)
        REQUIRE `?<Segment init: NEAR_Z>`
buf_rejc_opt_lcp:
        DS 34

        RSEG NEAR_Z:DATA:NOROOT(0)
        REQUIRE `?<Segment init: NEAR_Z>`
buf_ack_opt_lcp:
        DS 28
buf_nak_opt_lcp:
        DS 28

        RSEG NEAR_Z:DATA:NOROOT(0)
        REQUIRE `?<Segment init: NEAR_Z>`
buf_rej_opt_lcp:
        DS 28

        RSEG NEAR_Z:DATA:NOROOT(0)
        REQUIRE `?<Segment init: NEAR_Z>`
buf_rej_opt_ipcp:
        DS 25
//  374 
//  375  extern unsigned char buf_opt_tr[20]; 
//  376  
//  377  

        RSEG NEAR_F:CODE:NOROOT(0)
//  378  __flash unsigned int fcstab[256] = {
fcstab:
        DW 0, 4489, 8978, 12955, 17956, 22445, 25910, 29887, 35912, 40385
        DW 44890, 48851, 51820, 56293, 59774, 63735, 4225, 264, 13203, 8730
        DW 22181, 18220, 30135, 25662, 40137, 36160, 49115, 44626, 56045, 52068
        DW 63999, 59510, 8450, 12427, 528, 5017, 26406, 30383, 17460, 21949
        DW 44362, 48323, 36440, 40913, 60270, 64231, 51324, 55797, 12675, 8202
        DW 4753, 792, 30631, 26158, 21685, 17724, 48587, 44098, 40665, 36688
        DW 64495, 60006, 55549, 51572, 16900, 21389, 24854, 28831, 1056, 5545
        DW 10034, 14011, 52812, 57285, 60766, 64727, 34920, 39393, 43898, 47859
        DW 21125, 17164, 29079, 24606, 5281, 1320, 14259, 9786, 57037, 53060
        DW 64991, 60502, 39145, 35168, 48123, 43634, 25350, 29327, 16404, 20893
        DW 9506, 13483, 1584, 6073, 61262, 65223, 52316, 56789, 43370, 47331
        DW 35448, 39921, 29575, 25102, 20629, 16668, 13731, 9258, 5809, 1848
        DW 65487, 60998, 56541, 52564, 47595, 43106, 39673, 35696, 33800, 38273
        DW 42778, 46739, 49708, 54181, 57662, 61623, 2112, 6601, 11090, 15067
        DW 20068, 24557, 28022, 31999, 38025, 34048, 47003, 42514, 53933, 49956
        DW 61887, 57398, 6337, 2376, 15315, 10842, 24293, 20332, 32247, 27774
        DW 42250, 46211, 34328, 38801, 58158, 62119, 49212, 53685, 10562, 14539
        DW 2640, 7129, 28518, 32495, 19572, 24061, 46475, 41986, 38553, 34576
        DW 62383, 57894, 53437, 49460, 14787, 10314, 6865, 2904, 32743, 28270
        DW 23797, 19836, 50700, 55173, 58654, 62615, 32808, 37281, 41786, 45747
        DW 19012, 23501, 26966, 30943, 3168, 7657, 12146, 16123, 54925, 50948
        DW 62879, 58390, 37033, 33056, 46011, 41522, 23237, 19276, 31191, 26718
        DW 7393, 3432, 16371, 11898, 59150, 63111, 50204, 54677, 41258, 45219
        DW 33336, 37809, 27462, 31439, 18516, 23005, 11618, 15595, 3696, 8185
        DW 63375, 58886, 54429, 50452, 45483, 40994, 37561, 33584, 31687, 27214
        DW 22741, 18780, 15843, 11370, 7921, 3960
//  379       0x0000, 0x1189, 0x2312, 0x329b, 0x4624, 0x57ad, 0x6536, 0x74bf,
//  380       0x8c48, 0x9dc1, 0xaf5a, 0xbed3, 0xca6c, 0xdbe5, 0xe97e, 0xf8f7,
//  381       0x1081, 0x0108, 0x3393, 0x221a, 0x56a5, 0x472c, 0x75b7, 0x643e,
//  382       0x9cc9, 0x8d40, 0xbfdb, 0xae52, 0xdaed, 0xcb64, 0xf9ff, 0xe876,
//  383       0x2102, 0x308b, 0x0210, 0x1399, 0x6726, 0x76af, 0x4434, 0x55bd,
//  384       0xad4a, 0xbcc3, 0x8e58, 0x9fd1, 0xeb6e, 0xfae7, 0xc87c, 0xd9f5,
//  385       0x3183, 0x200a, 0x1291, 0x0318, 0x77a7, 0x662e, 0x54b5, 0x453c,
//  386       0xbdcb, 0xac42, 0x9ed9, 0x8f50, 0xfbef, 0xea66, 0xd8fd, 0xc974,
//  387       0x4204, 0x538d, 0x6116, 0x709f, 0x0420, 0x15a9, 0x2732, 0x36bb,
//  388       0xce4c, 0xdfc5, 0xed5e, 0xfcd7, 0x8868, 0x99e1, 0xab7a, 0xbaf3,
//  389       0x5285, 0x430c, 0x7197, 0x601e, 0x14a1, 0x0528, 0x37b3, 0x263a,
//  390       0xdecd, 0xcf44, 0xfddf, 0xec56, 0x98e9, 0x8960, 0xbbfb, 0xaa72,
//  391       0x6306, 0x728f, 0x4014, 0x519d, 0x2522, 0x34ab, 0x0630, 0x17b9,
//  392       0xef4e, 0xfec7, 0xcc5c, 0xddd5, 0xa96a, 0xb8e3, 0x8a78, 0x9bf1,
//  393       0x7387, 0x620e, 0x5095, 0x411c, 0x35a3, 0x242a, 0x16b1, 0x0738,
//  394       0xffcf, 0xee46, 0xdcdd, 0xcd54, 0xb9eb, 0xa862, 0x9af9, 0x8b70,
//  395       0x8408, 0x9581, 0xa71a, 0xb693, 0xc22c, 0xd3a5, 0xe13e, 0xf0b7,
//  396       0x0840, 0x19c9, 0x2b52, 0x3adb, 0x4e64, 0x5fed, 0x6d76, 0x7cff,
//  397       0x9489, 0x8500, 0xb79b, 0xa612, 0xd2ad, 0xc324, 0xf1bf, 0xe036,
//  398       0x18c1, 0x0948, 0x3bd3, 0x2a5a, 0x5ee5, 0x4f6c, 0x7df7, 0x6c7e,
//  399       0xa50a, 0xb483, 0x8618, 0x9791, 0xe32e, 0xf2a7, 0xc03c, 0xd1b5,
//  400       0x2942, 0x38cb, 0x0a50, 0x1bd9, 0x6f66, 0x7eef, 0x4c74, 0x5dfd,
//  401       0xb58b, 0xa402, 0x9699, 0x8710, 0xf3af, 0xe226, 0xd0bd, 0xc134,
//  402       0x39c3, 0x284a, 0x1ad1, 0x0b58, 0x7fe7, 0x6e6e, 0x5cf5, 0x4d7c,
//  403       0xc60c, 0xd785, 0xe51e, 0xf497, 0x8028, 0x91a1, 0xa33a, 0xb2b3,
//  404       0x4a44, 0x5bcd, 0x6956, 0x78df, 0x0c60, 0x1de9, 0x2f72, 0x3efb,
//  405       0xd68d, 0xc704, 0xf59f, 0xe416, 0x90a9, 0x8120, 0xb3bb, 0xa232,
//  406       0x5ac5, 0x4b4c, 0x79d7, 0x685e, 0x1ce1, 0x0d68, 0x3ff3, 0x2e7a,
//  407       0xe70e, 0xf687, 0xc41c, 0xd595, 0xa12a, 0xb0a3, 0x8238, 0x93b1,
//  408       0x6b46, 0x7acf, 0x4854, 0x59dd, 0x2d62, 0x3ceb, 0x0e70, 0x1ff9,
//  409       0xf78f, 0xe606, 0xd49d, 0xc514, 0xb1ab, 0xa022, 0x92b9, 0x8330,
//  410       0x7bc7, 0x6a4e, 0x58d5, 0x495c, 0x3de3, 0x2c6a, 0x1ef1, 0x0f78
//  411    };
//  412 
//  413 
//  414  

        RSEG CODE:CODE:NOROOT(1)
//  415  void prov_uk_in(void)
prov_uk_in:
        CFI Block cfiBlock0 Using cfiCommon0
        CFI Function prov_uk_in
//  416    {        
//  417           unsigned char temp;
//  418           
//  419           uk_in_act_LCP++;
        LDI	R30, LOW(ip_pri_dns)
        LDI	R31, (ip_pri_dns) >> 8
        LDD	R16, Z+36
        INC	R16
        STD	Z+36, R16
//  420           if(uk_in_act_LCP>=LCP_ACT_VOL)uk_in_act_LCP=0;         
        LDD	R16, Z+36
        CPI	R16, 15
        BRCS	??prov_uk_in_0
        LDI	R16, 0
        STD	Z+36, R16
//  421           if(uk_out_act_LCP==0)temp=LCP_ACT_VOL-1;else temp=uk_out_act_LCP-1;
??prov_uk_in_0:
        LDD	R16, Z+37
        TST	R16
        BRNE	??prov_uk_in_1
        LDI	R16, 14
        RJMP	??prov_uk_in_2
??prov_uk_in_1:
        DEC	R16
//  422        //   if(uk_in_act_LCP==temp){write_log_info(ST_ERROR,ERR3);lock_it();}//ďĺđĺďîëíĺíčĺ áóôĺđŕ
//  423          if(uk_in_act_LCP==temp)event_modem=EVM_PPP_ERR;//ďĺđĺďîëíĺíčĺ áóôĺđŕ
??prov_uk_in_2:
        LDD	R17, Z+36
        CP	R17, R16
        BRNE	??prov_uk_in_3
        LDI	R16, 5
        STS	event_modem, R16
//  424     }  
??prov_uk_in_3:
        RET
        CFI EndBlock cfiBlock0
//  425    
//  426    

        RSEG CODE:CODE:NOROOT(1)
//  427    void prov_uk_in_ipcp(void)
prov_uk_in_ipcp:
        CFI Block cfiBlock1 Using cfiCommon0
        CFI Function prov_uk_in_ipcp
//  428    {        
//  429           unsigned char temp;
//  430           
//  431           uk_in_act_IPCP++;
        LDI	R30, LOW(ip_pri_dns)
        LDI	R31, (ip_pri_dns) >> 8
        LDD	R16, Z+38
        INC	R16
        STD	Z+38, R16
//  432           if(uk_in_act_IPCP>=IPCP_ACT_VOL)uk_in_act_IPCP=0;         
        LDD	R16, Z+38
        CPI	R16, 10
        BRCS	??prov_uk_in_ipcp_0
        LDI	R16, 0
        STD	Z+38, R16
//  433           if(uk_out_act_IPCP==0)temp=IPCP_ACT_VOL-1;else temp=uk_out_act_IPCP-1;
??prov_uk_in_ipcp_0:
        LDD	R16, Z+39
        TST	R16
        BRNE	??prov_uk_in_ipcp_1
        LDI	R16, 9
        RJMP	??prov_uk_in_ipcp_2
??prov_uk_in_ipcp_1:
        DEC	R16
//  434         //  if(uk_in_act_IPCP==temp){write_log_info(ST_ERROR,ERR4);lock_it();}//ďĺđĺďîëíĺíčĺ áóôĺđŕ
//  435           if(uk_in_act_IPCP==temp)event_modem=EVM_PPP_ERR;//ďĺđĺďîëíĺíčĺ áóôĺđŕ
??prov_uk_in_ipcp_2:
        LDD	R17, Z+38
        CP	R17, R16
        BRNE	??prov_uk_in_ipcp_3
        LDI	R16, 5
        STS	event_modem, R16
//  436          
//  437     }   
??prov_uk_in_ipcp_3:
        RET
        CFI EndBlock cfiBlock1
//  438  
//  439  
//  440  
//  441  

        RSEG CODE:CODE:NOROOT(1)
//  442 unsigned int pppfcs16(unsigned int fcs,unsigned char *cp,unsigned int len)
pppfcs16:
        CFI Block cfiBlock2 Using cfiCommon0
        CFI Function pppfcs16
//  443 
//  444    {
        RJMP	??pppfcs16_0
//  445 
//  446        while (len--)
//  447            fcs=(fcs >> 8) ^ fcstab[(fcs ^ *cp++) & 0xff];
??pppfcs16_1:
        MOVW	R3:R2, R17:R16
        LDI	R22, LOW(fcstab)
        LDI	R23, (fcstab) >> 8
        MOVW	R31:R30, R19:R18
        LD	R0, Z+
        MOVW	R19:R18, R31:R30
        MOV	R30, R0
        EOR	R30, R2
        LDI	R31, 0
        LSL	R30
        ROL	R31
        ADD	R22, R30
        ADC	R23, R31
        MOVW	R31:R30, R23:R22
        LPM	R16, Z+
        LPM	R17, Z
        EOR	R16, R3
??pppfcs16_0:
        MOVW	R23:R22, R21:R20
        SUBI	R20, 1
        SBCI	R21, 0
        OR	R22, R23
        BRNE	??pppfcs16_1
//  448        return (fcs);
        RET
        CFI EndBlock cfiBlock2
//  449    }
//  450 
//  451 

        RSEG CODE:CODE:NOROOT(1)
//  452 void run_lcp_act(void)
run_lcp_act:
        CFI Block cfiBlock3 Using cfiCommon0
        CFI Function run_lcp_act
//  453       {  
        FUNCALL run_lcp_act, pppfcs16
        LOCFRAME CSTACK, 7, STACK
        LOCFRAME RSTACK, 2, STACK
        FUNCALL run_lcp_act, check_cts
        LOCFRAME CSTACK, 7, STACK
        LOCFRAME RSTACK, 2, STACK
        FUNCALL run_lcp_act, pppfcs16
        LOCFRAME CSTACK, 7, STACK
        LOCFRAME RSTACK, 2, STACK
        FUNCALL run_lcp_act, check_cts
        LOCFRAME CSTACK, 7, STACK
        LOCFRAME RSTACK, 2, STACK
        FUNCALL run_lcp_act, pppfcs16
        LOCFRAME CSTACK, 7, STACK
        LOCFRAME RSTACK, 2, STACK
        FUNCALL run_lcp_act, check_cts
        LOCFRAME CSTACK, 7, STACK
        LOCFRAME RSTACK, 2, STACK
        FUNCALL run_lcp_act, pppfcs16
        LOCFRAME CSTACK, 7, STACK
        LOCFRAME RSTACK, 2, STACK
        FUNCALL run_lcp_act, check_cts
        LOCFRAME CSTACK, 7, STACK
        LOCFRAME RSTACK, 2, STACK
        FUNCALL run_lcp_act, pppfcs16
        LOCFRAME CSTACK, 7, STACK
        LOCFRAME RSTACK, 2, STACK
        FUNCALL run_lcp_act, check_cts
        LOCFRAME CSTACK, 7, STACK
        LOCFRAME RSTACK, 2, STACK
        FUNCALL run_lcp_act, pppfcs16
        LOCFRAME CSTACK, 7, STACK
        LOCFRAME RSTACK, 2, STACK
        FUNCALL run_lcp_act, check_cts
        LOCFRAME CSTACK, 7, STACK
        LOCFRAME RSTACK, 2, STACK
        FUNCALL run_lcp_act, pppfcs16
        LOCFRAME CSTACK, 7, STACK
        LOCFRAME RSTACK, 2, STACK
        FUNCALL run_lcp_act, check_cts
        LOCFRAME CSTACK, 7, STACK
        LOCFRAME RSTACK, 2, STACK
        CALL	?PROLOGUE5_L09
        CFI R4 Frame(CFA_Y, -1)
        CFI R27 Frame(CFA_Y, -2)
        CFI R26 Frame(CFA_Y, -3)
        CFI R25 Frame(CFA_Y, -4)
        CFI R24 Frame(CFA_Y, -5)
        CFI CFA_Y Y+5
        REQUIRE	?Register_R4_is_cg_reg
        SBIW	R29:R28, 2
        CFI CFA_Y Y+7
//  454        unsigned char i;
//  455        
//  456        union
//  457      {
//  458       unsigned char bytes[2]; 
//  459       unsigned int word;
//  460      }temp;
//  461       
//  462        
//  463        switch (LCP_act_buf[uk_out_act_LCP])
        LDI	R24, LOW(ip_pri_dns)
        LDI	R25, (ip_pri_dns) >> 8
        MOVW	R31:R30, R25:R24
        LDD	R4, Z+46
        LDI	R26, LOW(buf_tx_232)
        LDI	R27, (buf_tx_232) >> 8
        LDD	R16, Z+37
        LDI	R17, 0
        ADD	R30, R16
        ADC	R31, R17
        LDD	R16, Z+20
        LDI	R30, LOW(`?<Jumptable for run_lcp_act>_0`)
        LDI	R31, (`?<Jumptable for run_lcp_act>_0`) >> 16
        OUT	0x3B, R31
        LDI	R31, HIGH(`?<Jumptable for run_lcp_act>_0`)
        JMP	?CV_SWITCH_L06
//  464           {
//  465            case TLU:    
//  466                 
//  467 
//  468                  
//  469                 fl_pap.up=1;
??run_lcp_act_0:
        MOVW	R31:R30, R25:R24
        LDD	R16, Z+13
        ORI	R16, 0x10
        STD	Z+13, R16
//  470                 fl_lcp.act_lcp_end=0;
//  471                 PAP_state=START_ST;
        LDI	R16, 1
        STD	Z+17, R16
//  472                 layer_PPP=LAYER_PAP;      
        LDI	R16, 2
        STS	layer_PPP, R16
//  473                 fl_lcp.act_lcp_end=1;
??run_lcp_act_1:
        LDD	R16, Z+10
        ORI	R16, 0x01
??run_lcp_act_2:
        STD	Z+10, R16
        RJMP	??run_lcp_act_3
//  474               break;
//  475            case TLD:  
//  476                 fl_lcp.act_lcp_end=0;
//  477                 layer_PPP=LAYER_LCP;  
??run_lcp_act_4:
        LDI	R16, 1
        STS	layer_PPP, R16
//  478                 fl_lcp.act_lcp_end=1; 
        MOVW	R31:R30, R25:R24
        RJMP	??run_lcp_act_1
//  479                 break;
//  480            case TLS:   
//  481                 fl_lcp.act_lcp_end=0;
??run_lcp_act_5:
        MOVW	R31:R30, R25:R24
        LDD	R16, Z+10
        ANDI	R16, 0xFE
        STD	Z+10, R16
//  482                // write_log_info(ST_ERROR,ERR5);
//  483                // lock_it();
//  484                 event_modem=EVM_PPP_ERR; 
        LDI	R16, 5
        STS	event_modem, R16
        RJMP	??run_lcp_act_3
//  485                 break;
//  486            case TLF:  
//  487                 fl_lcp.act_lcp_end=0;
//  488                // write_log_info(ST_ERROR,ERR6);
//  489                // lock_it();
//  490                 event_modem=EVM_PPP_ERR;
//  491                 break;
//  492            case IRC:                   
//  493                 fl_lcp.act_lcp_end=0;
//  494                 cnt_lcp_tm_out=VOL_LCP_TM_OUT; 
??run_lcp_act_6:
        LDI	R16, 184
        LDI	R17, 11
        MOVW	R31:R30, R25:R24
        STD	Z+8, R16
        STD	Z+9, R17
//  495                 cnt_rst_lcp=vol_cnt_rst_lcp;
        LDD	R16, Z+41
        STD	Z+40, R16
//  496                 fl_lcp.lcp_tm_out_en=1; 
//  497                 fl_lcp.act_lcp_end=1; 
        LDD	R16, Z+10
        ORI	R16, 0x03
        RJMP	??run_lcp_act_2
//  498                      
//  499                 break;
//  500            case ZRC:  
//  501                 fl_lcp.act_lcp_end=0;
//  502                 cnt_lcp_tm_out=VOL_LCP_TM_OUT; 
??run_lcp_act_7:
        LDI	R16, 184
        LDI	R17, 11
        MOVW	R31:R30, R25:R24
        STD	Z+8, R16
        STD	Z+9, R17
//  503                 cnt_rst_lcp=0;
        LDI	R16, 0
        STD	Z+40, R16
//  504                 fl_lcp.lcp_tm_out_en=1; 
//  505                 fl_lcp.act_lcp_end=1;  
        LDD	R16, Z+10
        ORI	R16, 0x03
        STD	Z+10, R16
        RJMP	??run_lcp_act_3
//  506                 break;
//  507            case SCR:    
//  508 
//  509                                             
//  510                  fl_lcp.act_lcp_end=0;
??run_lcp_act_8:
        MOVW	R31:R30, R25:R24
        LDD	R16, Z+10
        ANDI	R16, 0xFE
        STD	Z+10, R16
//  511                  buf_tx_232[0]=0x7e; 
        LDI	R16, 126
        ST	X, R16
//  512                  buf_tx_232[1]=0xff;
        LDI	R16, 255
        MOVW	R31:R30, R27:R26
        STD	Z+1, R16
//  513                  buf_tx_232[2]=0x03;
        LDI	R16, 3
        STD	Z+2, R16
//  514                  buf_tx_232[3]=0xc0;
        LDI	R16, 192
        STD	Z+3, R16
//  515                  buf_tx_232[4]=0x21;
        LDI	R16, 33
        STD	Z+4, R16
//  516                  
//  517                  buf_tx_232[5]=CONF_REQ; 
        LDI	R16, 1
        STD	Z+5, R16
//  518                  buf_tx_232[6]=i_scr_lcp;   
        MOVW	R31:R30, R25:R24
        LDD	R16, Z+45
        MOVW	R31:R30, R27:R26
        STD	Z+6, R16
//  519                  
//  520                  buf_tx_232[7]=0; 
        LDI	R16, 0
        STD	Z+7, R16
//  521                  buf_tx_232[8]=0x0e;
        LDI	R16, 14
        STD	Z+8, R16
//  522                  
//  523                  buf_tx_232[9]=2; 
        LDI	R16, 2
        STD	Z+9, R16
//  524                  buf_tx_232[10]=6;
        LDI	R16, 6
        STD	Z+10, R16
//  525                 
//  526                  buf_tx_232[11]=0; 
        LDI	R16, 0
        STD	Z+11, R16
//  527                  buf_tx_232[12]=0x0a; 
        LDI	R16, 10
        STD	Z+12, R16
//  528                  buf_tx_232[13]=0;
        LDI	R16, 0
        STD	Z+13, R16
//  529                  buf_tx_232[14]=0;
        STD	Z+14, R16
//  530                 
//  531               
//  532                 
//  533                  
//  534                  buf_tx_232[15]=7;
        LDI	R16, 7
        STD	Z+15, R16
//  535                  buf_tx_232[16]=2;
        LDI	R16, 2
        STD	Z+16, R16
//  536                  
//  537                  buf_tx_232[17]=8;
        LDI	R16, 8
        STD	Z+17, R16
//  538                  buf_tx_232[18]=2;
        LDI	R16, 2
        STD	Z+18, R16
//  539                  
//  540                  temp.word=pppfcs16(PPPINITFCS16,&buf_tx_232[1],buf_tx_232[8]+4) ^ 0xffff;                
        LDI	R20, 18
        LDI	R21, 0
        MOVW	R19:R18, R27:R26
        SUBI	R18, 255
        SBCI	R19, 255
        LDI	R16, 255
        LDI	R17, 255
        RCALL	pppfcs16
        LDI	R18, 255
        LDI	R19, 255
        EOR	R18, R16
        EOR	R19, R17
        ST	Y, R18
        STD	Y+1, R19
//  541                  buf_tx_232[19]=temp.bytes[0];
        LD	R16, Y
        MOVW	R31:R30, R27:R26
        STD	Z+19, R16
//  542                  buf_tx_232[20]=temp.bytes[1];
        LDD	R16, Y+1
        STD	Z+20, R16
//  543                  
//  544                  buf_tx_232[21]=0x7e; 
        LDI	R16, 126
        STD	Z+21, R16
//  545                  
//  546                 
//  547                  count_tx_ppp=0;
        LDI	R16, 0
        LDI	R17, 0
        LDI	R30, LOW(count_tx_ppp)
        LDI	R31, (count_tx_ppp) >> 8
        ST	Z, R16
        STD	Z+1, R16
//  548                  vol_tx_ppp=buf_tx_232[8]+8;               
        LDI	R16, 22
        LDI	R30, LOW(vol_tx_ppp)
        LDI	R31, (vol_tx_ppp) >> 8
        ST	Z, R16
        STD	Z+1, R17
//  549                 
//  550                  UCSR0A=UCSR0A | TXC; 
        LDS	R16, 192
        ORI	R16, 0x40
        STS	192, R16
//  551                  UCSR0B=UCSR0B | TXEN;
        LDS	R16, 193
        ORI	R16, 0x08
        STS	193, R16
//  552                  UCSR0B=UCSR0B | TXCIE;
        LDS	R16, 193
        ORI	R16, 0x40
        STS	193, R16
//  553                  if(check_cts()==1) return;  
        CALL	check_cts
        CPI	R16, 1
        BRNE	$+2+2
        RJMP	??run_lcp_act_3
//  554                  S2_RD;
        SBI	0x08, 0x00
        CBI	0x08, 0x01
//  555                  UDR0=buf_tx_232[0];
        LD	R16, X
        STS	198, R16
//  556                  if(Regim==RG_DEBAG) UDR3=buf_tx_232[0];
        LDS	R16, Regim
        CPI	R16, 1
        BREQ	$+2+2
        RJMP	??run_lcp_act_3
??run_lcp_act_9:
        LD	R16, X
        STS	310, R16
        RJMP	??run_lcp_act_3
//  557                  
//  558                 
//  559                     
//  560                 break;
//  561            
//  562           case SCA: 
//  563                  fl_lcp.act_lcp_end=0;
??run_lcp_act_10:
        MOVW	R31:R30, R25:R24
        LDD	R16, Z+10
        ANDI	R16, 0xFE
        STD	Z+10, R16
//  564                  buf_tx_232[0]=0x7e; 
        LDI	R16, 126
        ST	X, R16
//  565                  buf_tx_232[1]=0xff;
        LDI	R16, 255
        MOVW	R31:R30, R27:R26
        STD	Z+1, R16
//  566                  buf_tx_232[2]=0x03;
        LDI	R16, 3
        STD	Z+2, R16
//  567                  buf_tx_232[3]=0xc0;
        LDI	R16, 192
        STD	Z+3, R16
//  568                  buf_tx_232[4]=0x21;  
        LDI	R16, 33
        STD	Z+4, R16
//  569                  
//  570                  buf_tx_232[5]=CONF_ACK;
        LDI	R16, 2
        STD	Z+5, R16
//  571                  buf_tx_232[6]=i_scan_lcp;
        STD	Z+6, R4
//  572                  
//  573                  temp.word=ln_ack_lcp+4;
        MOVW	R31:R30, R25:R24
        LDD	R17, Z+57
        MOV	R24, R17
        LDI	R25, 0
        MOVW	R19:R18, R25:R24
        SUBI	R18, 252
        SBCI	R19, 255
        ST	Y, R18
        STD	Y+1, R19
//  574                  buf_tx_232[7]=temp.bytes[1]; 
        LDD	R16, Y+1
        MOVW	R31:R30, R27:R26
        STD	Z+7, R16
//  575                  buf_tx_232[8]=temp.bytes[0];
        LD	R16, Y
        STD	Z+8, R16
//  576                 
//  577                  temp.word=temp.word+4;         
        LD	R18, Y
        LDD	R19, Y+1
        SUBI	R18, 252
        SBCI	R19, 255
        ST	Y, R18
        STD	Y+1, R19
//  578                  vol_tx_ppp=temp.word+4;  
        LD	R18, Y
        LDD	R19, Y+1
        SUBI	R18, 252
        SBCI	R19, 255
        LDI	R30, LOW(vol_tx_ppp)
        LDI	R31, (vol_tx_ppp) >> 8
        ST	Z, R18
        STD	Z+1, R19
//  579                    
//  580                  for(i=0;i<ln_ack_lcp;i++)buf_tx_232[9+i]=buf_ack_opt_lcp[i];
        LDI	R16, 0
        RJMP	??run_lcp_act_11
??run_lcp_act_12:
        MOV	R18, R16
        LDI	R19, 0
        MOVW	R31:R30, R19:R18
        SUBI	R30, LOW((-(buf_ack_opt_lcp) & 0xFFFF))
        SBCI	R31, (-(buf_ack_opt_lcp) & 0xFFFF) >> 8
        LD	R20, Z
        MOVW	R31:R30, R27:R26
        ADD	R30, R18
        ADC	R31, R25
        STD	Z+9, R20
        INC	R16
??run_lcp_act_11:
        CP	R16, R17
        BRCS	??run_lcp_act_12
//  581                  
//  582                  temp.word=pppfcs16(PPPINITFCS16,&buf_tx_232[1],temp.word) ^ 0xffff;                  
??run_lcp_act_13:
        LD	R20, Y
        LDD	R21, Y+1
        MOVW	R19:R18, R27:R26
        SUBI	R18, 255
        SBCI	R19, 255
        LDI	R16, 255
        LDI	R17, 255
        RCALL	pppfcs16
        LDI	R18, 255
        LDI	R19, 255
        EOR	R18, R16
        EOR	R19, R17
        ST	Y, R18
        STD	Y+1, R19
//  583                  buf_tx_232[9+ln_ack_lcp]=temp.bytes[0];
        MOVW	R31:R30, R27:R26
        ADD	R30, R24
        ADC	R31, R25
        LD	R18, Y
        STD	Z+9, R18
//  584                  buf_tx_232[10+ln_ack_lcp]=temp.bytes[1];
        LDD	R18, Y+1
        STD	Z+10, R18
//  585                  buf_tx_232[11+ln_ack_lcp]=0x7e;
        LDI	R16, 126
        STD	Z+11, R16
//  586                  
//  587                  count_tx_ppp=0;                             
        LDI	R30, LOW(count_tx_ppp)
        LDI	R31, (count_tx_ppp) >> 8
        ST	Z, R25
        STD	Z+1, R25
//  588                  UCSR0A=UCSR0A | TXC;                            
??run_lcp_act_14:
        LDS	R16, 192
        ORI	R16, 0x40
        STS	192, R16
//  589                  UCSR0B=UCSR0B | TXEN;
        LDS	R16, 193
        ORI	R16, 0x08
        STS	193, R16
//  590                  UCSR0B=UCSR0B | TXCIE;
        LDS	R16, 193
        ORI	R16, 0x40
        STS	193, R16
//  591                  if(check_cts()==1) return;   
        CALL	check_cts
        CPI	R16, 1
        BRNE	$+2+2
        RJMP	??run_lcp_act_3
//  592                  S2_RD;
        SBI	0x08, 0x00
        CBI	0x08, 0x01
//  593                  UDR0=buf_tx_232[0]; 
        LD	R16, X
        STS	198, R16
//  594                  if(Regim==RG_DEBAG) UDR3=buf_tx_232[0];
        LDS	R16, Regim
        CPI	R16, 1
        BREQ	$+2+2
        RJMP	??run_lcp_act_3
        RJMP	??run_lcp_act_9
//  595                
//  596                  
//  597                 
//  598                   
//  599                 break;
//  600            case SCN:  
//  601 
//  602                  fl_lcp.act_lcp_end=0;
??run_lcp_act_15:
        MOVW	R31:R30, R25:R24
        LDD	R16, Z+10
        ANDI	R16, 0xFE
        STD	Z+10, R16
//  603                  buf_tx_232[0]=0x7e; 
        LDI	R16, 126
        ST	X, R16
//  604                  buf_tx_232[1]=0xff;
        LDI	R16, 255
        MOVW	R31:R30, R27:R26
        STD	Z+1, R16
//  605                  buf_tx_232[2]=0x03;
        LDI	R16, 3
        STD	Z+2, R16
//  606                  buf_tx_232[3]=0xc0;
        LDI	R16, 192
        STD	Z+3, R16
//  607                  buf_tx_232[4]=0x21;   
        LDI	R16, 33
        STD	Z+4, R16
//  608                  
//  609                  if (fl_lcp2.nac_rej==0) 
        MOVW	R31:R30, R25:R24
        LDD	R16, Z+14
        SBRC	R16, 0
        RJMP	??run_lcp_act_16
//  610                      {
//  611                      buf_tx_232[5]=CONF_NAK;                       
        LDI	R16, 3
        MOVW	R31:R30, R27:R26
        STD	Z+5, R16
//  612                      
//  613                      buf_tx_232[6]=i_scan_lcp;
        STD	Z+6, R4
//  614                  
//  615                      temp.word=ln_nak_lcp+4;
        MOVW	R31:R30, R25:R24
        LDD	R17, Z+58
        MOV	R24, R17
        LDI	R25, 0
        MOVW	R19:R18, R25:R24
        SUBI	R18, 252
        SBCI	R19, 255
        ST	Y, R18
        STD	Y+1, R19
//  616                      buf_tx_232[7]=temp.bytes[1]; 
        LDD	R16, Y+1
        MOVW	R31:R30, R27:R26
        STD	Z+7, R16
//  617                      buf_tx_232[8]=temp.bytes[0];
        LD	R16, Y
        STD	Z+8, R16
//  618                     
//  619                     temp.word=temp.word+4;         
        LD	R18, Y
        LDD	R19, Y+1
        SUBI	R18, 252
        SBCI	R19, 255
        ST	Y, R18
        STD	Y+1, R19
//  620                     vol_tx_ppp=temp.word+4;
        LD	R18, Y
        LDD	R19, Y+1
        SUBI	R18, 252
        SBCI	R19, 255
        LDI	R30, LOW(vol_tx_ppp)
        LDI	R31, (vol_tx_ppp) >> 8
        ST	Z, R18
        STD	Z+1, R19
//  621                      
//  622 
//  623                       
//  624                      for(i=0;i<ln_nak_lcp;i++)buf_tx_232[9+i]=buf_nak_opt_lcp[i];
        LDI	R16, 0
        RJMP	??run_lcp_act_17
??run_lcp_act_18:
        MOV	R18, R16
        LDI	R19, 0
        MOVW	R31:R30, R19:R18
        SUBI	R30, LOW((-(buf_ack_opt_lcp) & 0xFFFF))
        SBCI	R31, (-(buf_ack_opt_lcp) & 0xFFFF) >> 8
        LDD	R20, Z+28
        MOVW	R31:R30, R27:R26
        ADD	R30, R18
        ADC	R31, R25
        STD	Z+9, R20
        INC	R16
??run_lcp_act_17:
        CP	R16, R17
        BRCS	??run_lcp_act_18
//  625                      temp.word=pppfcs16(PPPINITFCS16,&buf_tx_232[1],temp.word) ^ 0xffff;                  
        RJMP	??run_lcp_act_13
//  626                      buf_tx_232[9+ln_nak_lcp]=temp.bytes[0];
//  627                      buf_tx_232[10+ln_nak_lcp]=temp.bytes[1];
//  628                      buf_tx_232[11+ln_nak_lcp]=0x7e;
//  629                      
//  630                      count_tx_ppp=0;                             
//  631                      UCSR0A=UCSR0A | TXC;                            
//  632                      UCSR0B=UCSR0B | TXEN;
//  633                      UCSR0B=UCSR0B | TXCIE;
//  634                      if(check_cts()==1) return;   
//  635                      S2_RD;
//  636                      UDR0=buf_tx_232[0];
//  637                      if(Regim==RG_DEBAG) UDR3=buf_tx_232[0];
//  638                      
//  639                      }  
//  640                      else
//  641                      { 
//  642                      fl_lcp2.nac_rej=0;
??run_lcp_act_16:
        LDD	R16, Z+14
        ANDI	R16, 0xFE
        STD	Z+14, R16
//  643                      buf_tx_232[5]=CONF_REJ;  
        LDI	R16, 4
        MOVW	R31:R30, R27:R26
        STD	Z+5, R16
//  644                      buf_tx_232[6]=i_scan_lcp;
        STD	Z+6, R4
//  645                  
//  646                      temp.word=ln_rej_lcp+4;
        MOVW	R31:R30, R25:R24
        LDD	R17, Z+56
        MOV	R24, R17
        LDI	R25, 0
        MOVW	R19:R18, R25:R24
        SUBI	R18, 252
        SBCI	R19, 255
        ST	Y, R18
        STD	Y+1, R19
//  647                      buf_tx_232[7]=temp.bytes[1]; 
        LDD	R16, Y+1
        MOVW	R31:R30, R27:R26
        STD	Z+7, R16
//  648                      buf_tx_232[8]=temp.bytes[0];
        LD	R16, Y
        STD	Z+8, R16
//  649                                  
//  650                     temp.word=temp.word+4;         
        LD	R18, Y
        LDD	R19, Y+1
        SUBI	R18, 252
        SBCI	R19, 255
        ST	Y, R18
        STD	Y+1, R19
//  651                     vol_tx_ppp=temp.word+4; 
        LD	R18, Y
        LDD	R19, Y+1
        SUBI	R18, 252
        SBCI	R19, 255
        LDI	R30, LOW(vol_tx_ppp)
        LDI	R31, (vol_tx_ppp) >> 8
        ST	Z, R18
        STD	Z+1, R19
//  652                      
//  653                      for(i=0;i<ln_rej_lcp;i++)buf_tx_232[9+i]=buf_rej_opt_lcp[i];
        LDI	R16, 0
        RJMP	??run_lcp_act_19
??run_lcp_act_20:
        MOV	R18, R16
        LDI	R19, 0
        MOVW	R31:R30, R19:R18
        SUBI	R30, LOW((-(buf_rej_opt_lcp) & 0xFFFF))
        SBCI	R31, (-(buf_rej_opt_lcp) & 0xFFFF) >> 8
        LD	R20, Z
        MOVW	R31:R30, R27:R26
        ADD	R30, R18
        ADC	R31, R25
        STD	Z+9, R20
        INC	R16
??run_lcp_act_19:
        CP	R16, R17
        BRCS	??run_lcp_act_20
//  654                      temp.word=pppfcs16(PPPINITFCS16,&buf_tx_232[1],temp.word) ^ 0xffff;                  
        LD	R20, Y
        LDD	R21, Y+1
        MOVW	R19:R18, R27:R26
        SUBI	R18, 255
        SBCI	R19, 255
        LDI	R16, 255
        LDI	R17, 255
        RCALL	pppfcs16
        LDI	R18, 255
        LDI	R19, 255
        EOR	R18, R16
        EOR	R19, R17
        ST	Y, R18
        STD	Y+1, R19
//  655                      buf_tx_232[9+ln_rej_lcp]=temp.bytes[0];
        MOVW	R31:R30, R27:R26
        ADD	R30, R24
        ADC	R31, R25
        LD	R18, Y
        STD	Z+9, R18
//  656                      buf_tx_232[10+ln_rej_lcp]=temp.bytes[1];                     
        LDD	R18, Y+1
        STD	Z+10, R18
//  657                      buf_tx_232[11+ln_rej_lcp]=0x7e;                     
        LDI	R16, 126
        STD	Z+11, R16
//  658                     
//  659                      count_tx_ppp=0;                             
        LDI	R30, LOW(count_tx_ppp)
        LDI	R31, (count_tx_ppp) >> 8
        ST	Z, R25
        STD	Z+1, R25
//  660                      UCSR0A=UCSR0A | TXC;                            
??run_lcp_act_21:
        LDS	R16, 192
        ORI	R16, 0x40
        STS	192, R16
//  661                      UCSR0B=UCSR0B | TXEN;
        LDS	R16, 193
        ORI	R16, 0x08
        STS	193, R16
//  662                      UCSR0B=UCSR0B | TXCIE;
        LDS	R16, 193
        ORI	R16, 0x40
        STS	193, R16
//  663                      if(check_cts()==1) return;   
        CALL	check_cts
        CPI	R16, 1
        BRNE	$+2+2
        RJMP	??run_lcp_act_3
//  664                      S2_RD;
        SBI	0x08, 0x00
        CBI	0x08, 0x01
//  665                      UDR0=buf_tx_232[0]; 
        LD	R16, X
        STS	198, R16
//  666                      if(Regim==RG_DEBAG) UDR3=buf_tx_232[0];
        LDS	R16, Regim
        CPI	R16, 1
        BREQ	$+2+2
        RJMP	??run_lcp_act_3
        RJMP	??run_lcp_act_9
//  667                      }   
//  668                      
//  669 
//  670                      
//  671                 break; 
//  672            case STR: 
//  673                  fl_lcp.act_lcp_end=0;
??run_lcp_act_22:
        MOVW	R31:R30, R25:R24
        LDD	R16, Z+10
        ANDI	R16, 0xFE
        STD	Z+10, R16
//  674                  buf_tx_232[0]=0x7e; 
        LDI	R16, 126
        ST	X, R16
//  675                  buf_tx_232[1]=0xff;
        LDI	R16, 255
        MOVW	R31:R30, R27:R26
        STD	Z+1, R16
//  676                  buf_tx_232[2]=0x03;
        LDI	R16, 3
        STD	Z+2, R16
//  677                  buf_tx_232[3]=0xc0;
        LDI	R16, 192
        STD	Z+3, R16
//  678                  buf_tx_232[4]=0x21;
        LDI	R16, 33
        STD	Z+4, R16
//  679                  buf_tx_232[5]=TERM_REQ;  
        LDI	R16, 5
        STD	Z+5, R16
//  680                  buf_tx_232[6]=i_str_lcp; 
        MOVW	R31:R30, R25:R24
        LDD	R16, Z+48
        MOVW	R31:R30, R27:R26
        STD	Z+6, R16
//  681                  
//  682                  buf_tx_232[7]=0; 
        LDI	R16, 0
        STD	Z+7, R16
//  683                  buf_tx_232[8]=0x4;
        LDI	R16, 4
        STD	Z+8, R16
//  684                  
//  685                  vol_tx_ppp=buf_tx_232[8]+8;
        LDI	R16, 12
        LDI	R17, 0
        LDI	R30, LOW(vol_tx_ppp)
        LDI	R31, (vol_tx_ppp) >> 8
        ST	Z, R16
        STD	Z+1, R17
//  686                  
//  687                  temp.word=pppfcs16(PPPINITFCS16,&buf_tx_232[1],buf_tx_232[8]+4) ^ 0xffff;                  
        LDI	R20, 8
        LDI	R21, 0
        MOVW	R19:R18, R27:R26
        SUBI	R18, 255
        SBCI	R19, 255
        LDI	R16, 255
        LDI	R17, 255
        RCALL	pppfcs16
        LDI	R18, 255
        LDI	R19, 255
        EOR	R18, R16
        EOR	R19, R17
        ST	Y, R18
        STD	Y+1, R19
//  688                  buf_tx_232[9]=temp.bytes[0];
        LD	R16, Y
        MOVW	R31:R30, R27:R26
        STD	Z+9, R16
//  689                  buf_tx_232[10]=temp.bytes[1];
        LDD	R16, Y+1
        STD	Z+10, R16
//  690                  
//  691                  buf_tx_232[11]=0x7e;  
        LDI	R16, 126
        STD	Z+11, R16
//  692                  
//  693                  
//  694                  count_tx_ppp=0;                             
        LDI	R16, 0
        LDI	R30, LOW(count_tx_ppp)
        LDI	R31, (count_tx_ppp) >> 8
        ST	Z, R16
        STD	Z+1, R16
//  695                      UCSR0A=UCSR0A | TXC;                            
        RJMP	??run_lcp_act_14
//  696                      UCSR0B=UCSR0B | TXEN;
//  697                      UCSR0B=UCSR0B | TXCIE;
//  698                      if(check_cts()==1) return;
//  699                  S2_RD;
//  700                  UDR0=buf_tx_232[0];
//  701                  if(Regim==RG_DEBAG) UDR3=buf_tx_232[0];
//  702                  
//  703                   
//  704                 break; 
//  705            case STA:    
//  706                  fl_lcp.act_lcp_end=0;
??run_lcp_act_23:
        MOVW	R31:R30, R25:R24
        LDD	R16, Z+10
        ANDI	R16, 0xFE
        STD	Z+10, R16
//  707                  buf_tx_232[0]=0x7e; 
        LDI	R16, 126
        ST	X, R16
//  708                  buf_tx_232[1]=0xff;
        LDI	R16, 255
        MOVW	R31:R30, R27:R26
        STD	Z+1, R16
//  709                  buf_tx_232[2]=0x03;
        LDI	R16, 3
        STD	Z+2, R16
//  710                  buf_tx_232[3]=0xc0;
        LDI	R16, 192
        STD	Z+3, R16
//  711                  buf_tx_232[4]=0x21;
        LDI	R16, 33
        STD	Z+4, R16
//  712                  buf_tx_232[5]=TERM_ACK;  
        LDI	R16, 6
        STD	Z+5, R16
//  713                  
//  714                   buf_tx_232[6]=i_sta_lcp; 
        MOVW	R31:R30, R25:R24
        LDD	R16, Z+49
        MOVW	R31:R30, R27:R26
        STD	Z+6, R16
//  715                  
//  716                  buf_tx_232[7]=0; 
        LDI	R16, 0
        STD	Z+7, R16
//  717                  buf_tx_232[8]=0x4;
        LDI	R16, 4
        STD	Z+8, R16
//  718                  
//  719                  vol_tx_ppp=buf_tx_232[8]+8;
        LDI	R16, 12
        LDI	R17, 0
        LDI	R30, LOW(vol_tx_ppp)
        LDI	R31, (vol_tx_ppp) >> 8
        ST	Z, R16
        STD	Z+1, R17
//  720                  
//  721                  temp.word=pppfcs16(PPPINITFCS16,&buf_tx_232[1],buf_tx_232[8]+4) ^ 0xffff;                  
        LDI	R20, 8
        LDI	R21, 0
        MOVW	R19:R18, R27:R26
        SUBI	R18, 255
        SBCI	R19, 255
        LDI	R16, 255
        LDI	R17, 255
        RCALL	pppfcs16
        LDI	R18, 255
        LDI	R19, 255
        EOR	R18, R16
        EOR	R19, R17
        ST	Y, R18
        STD	Y+1, R19
//  722                  buf_tx_232[9]=temp.bytes[0];
        LD	R16, Y
        MOVW	R31:R30, R27:R26
        STD	Z+9, R16
//  723                  buf_tx_232[10]=temp.bytes[1];
        LDD	R16, Y+1
        STD	Z+10, R16
//  724                  
//  725                  buf_tx_232[11]=0x7e;  
        LDI	R16, 126
        STD	Z+11, R16
//  726                 
//  727                  count_tx_ppp=0;                             
        LDI	R16, 0
        LDI	R30, LOW(count_tx_ppp)
        LDI	R31, (count_tx_ppp) >> 8
        ST	Z, R16
        STD	Z+1, R16
//  728                      UCSR0A=UCSR0A | TXC;                            
        RJMP	??run_lcp_act_21
//  729                      UCSR0B=UCSR0B | TXEN;
//  730                      UCSR0B=UCSR0B | TXCIE;
//  731                      if(check_cts()==1) return;
//  732                  S2_RD;
//  733                  UDR0=buf_tx_232[0]; 
//  734                  if(Regim==RG_DEBAG) UDR3=buf_tx_232[0];
//  735                 
//  736                 break;           
//  737                                    
//  738            case SCJ:   
//  739                  fl_lcp.act_lcp_end=0;
??run_lcp_act_24:
        MOVW	R31:R30, R25:R24
        LDD	R16, Z+10
        ANDI	R16, 0xFE
        STD	Z+10, R16
//  740                  buf_tx_232[0]=0x7e; 
        LDI	R16, 126
        ST	X, R16
//  741                  buf_tx_232[1]=0xff;
        LDI	R16, 255
        MOVW	R31:R30, R27:R26
        STD	Z+1, R16
//  742                  buf_tx_232[2]=0x03;
        LDI	R16, 3
        STD	Z+2, R16
//  743                  buf_tx_232[3]=0xc0;
        LDI	R16, 192
        STD	Z+3, R16
//  744                  buf_tx_232[4]=0x21;  
        LDI	R16, 33
        STD	Z+4, R16
//  745                  buf_tx_232[5]=CODE_REJ; 
        LDI	R16, 7
        STD	Z+5, R16
//  746                  
//  747                  buf_tx_232[6]=i_scj_lcp;
        MOVW	R31:R30, R25:R24
        LDD	R16, Z+47
        MOVW	R31:R30, R27:R26
        STD	Z+6, R16
//  748                  i_scj_lcp++;
        MOVW	R31:R30, R25:R24
        LDD	R16, Z+47
        INC	R16
        STD	Z+47, R16
//  749                  
//  750                  temp.word=ln_rejc_lcp+4;
        LDD	R17, Z+55
        MOV	R24, R17
        LDI	R25, 0
        MOVW	R19:R18, R25:R24
        SUBI	R18, 252
        SBCI	R19, 255
        ST	Y, R18
        STD	Y+1, R19
//  751                  buf_tx_232[7]=temp.bytes[1]; 
        LDD	R16, Y+1
        MOVW	R31:R30, R27:R26
        STD	Z+7, R16
//  752                  buf_tx_232[8]=temp.bytes[0];
        LD	R16, Y
        STD	Z+8, R16
//  753                
//  754                  temp.word=temp.word+4;         
        LD	R18, Y
        LDD	R19, Y+1
        SUBI	R18, 252
        SBCI	R19, 255
        ST	Y, R18
        STD	Y+1, R19
//  755                  vol_tx_ppp=temp.word+4;  
        LD	R18, Y
        LDD	R19, Y+1
        SUBI	R18, 252
        SBCI	R19, 255
        LDI	R30, LOW(vol_tx_ppp)
        LDI	R31, (vol_tx_ppp) >> 8
        ST	Z, R18
        STD	Z+1, R19
//  756                 
//  757                 
//  758       
//  759                  
//  760                 for(i=0;i<ln_rejc_lcp;i++)buf_tx_232[9+i]=buf_rejc_opt_lcp[i];
        LDI	R16, 0
        RJMP	??run_lcp_act_25
??run_lcp_act_26:
        MOV	R18, R16
        LDI	R19, 0
        MOVW	R31:R30, R19:R18
        SUBI	R30, LOW((-(buf_rejc_opt_lcp) & 0xFFFF))
        SBCI	R31, (-(buf_rejc_opt_lcp) & 0xFFFF) >> 8
        LD	R20, Z
        MOVW	R31:R30, R27:R26
        ADD	R30, R18
        ADC	R31, R25
        STD	Z+9, R20
        INC	R16
??run_lcp_act_25:
        CP	R16, R17
        BRCS	??run_lcp_act_26
//  761                 temp.word=pppfcs16(PPPINITFCS16,&buf_tx_232[1],temp.word) ^ 0xffff;                  
        LD	R20, Y
        LDD	R21, Y+1
        MOVW	R19:R18, R27:R26
        SUBI	R18, 255
        SBCI	R19, 255
        LDI	R16, 255
        LDI	R17, 255
        RCALL	pppfcs16
        LDI	R18, 255
        LDI	R19, 255
        EOR	R18, R16
        EOR	R19, R17
        ST	Y, R18
        STD	Y+1, R19
//  762                 
//  763                 buf_tx_232[9+ln_rejc_lcp]=temp.bytes[0];
        MOVW	R31:R30, R27:R26
        ADD	R30, R24
        ADC	R31, R25
        LD	R18, Y
        STD	Z+9, R18
//  764                 buf_tx_232[10+ln_rejc_lcp]=temp.bytes[1];                     
        LDD	R18, Y+1
        STD	Z+10, R18
//  765                 buf_tx_232[11+ln_rejc_lcp]=0x7e;    
        LDI	R16, 126
        STD	Z+11, R16
//  766                 
//  767                  count_tx_ppp=0;                             
        LDI	R30, LOW(count_tx_ppp)
        LDI	R31, (count_tx_ppp) >> 8
        ST	Z, R25
        STD	Z+1, R25
//  768                      UCSR0A=UCSR0A | TXC;                            
        LDS	R16, 192
        ORI	R16, 0x40
        STS	192, R16
//  769                      UCSR0B=UCSR0B | TXEN;
        LDS	R16, 193
        ORI	R16, 0x08
        STS	193, R16
//  770                      UCSR0B=UCSR0B | TXCIE;
        LDS	R16, 193
        ORI	R16, 0x40
        STS	193, R16
//  771                      if(check_cts()==1) return;
        CALL	check_cts
        CPI	R16, 1
        BREQ	??run_lcp_act_3
//  772                  S2_RD;
        SBI	0x08, 0x00
        CBI	0x08, 0x01
//  773                  UDR0=buf_tx_232[0];
        LD	R16, X
        STS	198, R16
//  774                  if(Regim==RG_DEBAG) UDR3=buf_tx_232[0];
        LDS	R16, Regim
        CPI	R16, 1
        BRNE	$+2+2
        RJMP	??run_lcp_act_9
??run_lcp_act_3:
        ADIW	R29:R28, 2
        CFI CFA_Y Y+5
        LDI	R30, 5
        JMP	?EPILOGUE_B5_L09
        CFI EndBlock cfiBlock3
//  775                 break;  
//  776           // case SER:
//  777           //      break;       
//  778           }                  
//  779       }
//  780 
//  781 
//  782 

        RSEG CODE:CODE:NOROOT(1)
//  783 void monitor_act_PAP(void)
monitor_act_PAP:
        CFI Block cfiBlock4 Using cfiCommon0
        CFI Function monitor_act_PAP
//  784       {  
        FUNCALL monitor_act_PAP, RdFromFleshToArr
        LOCFRAME CSTACK, 7, STACK
        LOCFRAME RSTACK, 2, STACK
        FUNCALL monitor_act_PAP, RdFromFleshToArr
        LOCFRAME CSTACK, 7, STACK
        LOCFRAME RSTACK, 2, STACK
        FUNCALL monitor_act_PAP, RdFromFleshToArr
        LOCFRAME CSTACK, 7, STACK
        LOCFRAME RSTACK, 2, STACK
        FUNCALL monitor_act_PAP, RdFromFleshToArr
        LOCFRAME CSTACK, 7, STACK
        LOCFRAME RSTACK, 2, STACK
        FUNCALL monitor_act_PAP, RdFromFleshToArr
        LOCFRAME CSTACK, 7, STACK
        LOCFRAME RSTACK, 2, STACK
        FUNCALL monitor_act_PAP, RdFromFleshToArr
        LOCFRAME CSTACK, 7, STACK
        LOCFRAME RSTACK, 2, STACK
        FUNCALL monitor_act_PAP, RdFromFleshToArr
        LOCFRAME CSTACK, 7, STACK
        LOCFRAME RSTACK, 2, STACK
        FUNCALL monitor_act_PAP, RdFromFleshToArr
        LOCFRAME CSTACK, 7, STACK
        LOCFRAME RSTACK, 2, STACK
        FUNCALL monitor_act_PAP, RdFromFleshToArr
        LOCFRAME CSTACK, 7, STACK
        LOCFRAME RSTACK, 2, STACK
        FUNCALL monitor_act_PAP, RdFromFleshToArr
        LOCFRAME CSTACK, 7, STACK
        LOCFRAME RSTACK, 2, STACK
        FUNCALL monitor_act_PAP, pppfcs16
        LOCFRAME CSTACK, 7, STACK
        LOCFRAME RSTACK, 2, STACK
        FUNCALL monitor_act_PAP, check_cts
        LOCFRAME CSTACK, 7, STACK
        LOCFRAME RSTACK, 2, STACK
        CALL	?PROLOGUE4_L09
        CFI R27 Frame(CFA_Y, -1)
        CFI R26 Frame(CFA_Y, -2)
        CFI R25 Frame(CFA_Y, -3)
        CFI R24 Frame(CFA_Y, -4)
        CFI CFA_Y Y+4
        SBIW	R29:R28, 3
        CFI CFA_Y Y+7
//  785        
//  786       // unsigned char i;
//  787        unsigned char temp1;
//  788        
//  789        union
//  790      {
//  791       unsigned char bytes[2]; 
//  792       unsigned int word;
//  793      }temp;
//  794       
//  795        
//  796        if((pap_act_buf==SCR)&&(fl_pap.act_pap_end==1)&&(fl_lcp.act_lcp_end==1)&&(fl_ipcp.act_ipcp_end==1)&&(fl_ip.act_ip_end==1))
        LDI	R16, LOW(ip_pri_dns)
        LDI	R17, (ip_pri_dns) >> 8
        MOVW	R31:R30, R17:R16
        LDD	R18, Z+16
        CPI	R18, 6
        BREQ	$+2+2
        RJMP	??monitor_act_PAP_0
        LDD	R18, Z+13
        ANDI	R18, 0x01
        LDD	R19, Z+10
        ANDI	R19, 0x01
        AND	R19, R18
        LDD	R18, Z+11
        ANDI	R18, 0x01
        AND	R18, R19
        LDD	R19, Z+12
        ANDI	R19, 0x01
        AND	R19, R18
        BRNE	$+2+2
        RJMP	??monitor_act_PAP_0
//  797         {        
//  798                
//  799                 
//  800                 
//  801                  pap_act_buf=NO_EVENT;
        LDI	R18, 255
        STD	Z+16, R18
//  802                   
//  803                  fl_pap.act_pap_end=0;
        LDD	R18, Z+13
        ANDI	R18, 0xFE
        STD	Z+13, R18
//  804                  buf_tx_232[0]=0x7e; 
        LDI	R26, LOW(buf_tx_232)
        LDI	R27, (buf_tx_232) >> 8
        LDI	R18, 126
        ST	X, R18
//  805                  buf_tx_232[1]=0xc0;
        LDI	R18, 192
        MOVW	R31:R30, R27:R26
        STD	Z+1, R18
//  806                  buf_tx_232[2]=0x23;
        LDI	R18, 35
        STD	Z+2, R18
//  807                  
//  808                  buf_tx_232[3]=CONF_REQ; 
        LDI	R18, 1
        STD	Z+3, R18
//  809                  
//  810                  i_scr_pap++;
        MOVW	R31:R30, R17:R16
        LDD	R18, Z+54
        INC	R18
        STD	Z+54, R18
//  811                  buf_tx_232[4]=i_scr_pap;         
        LDD	R16, Z+54
        MOVW	R31:R30, R27:R26
        STD	Z+4, R16
//  812                 
//  813                  
//  814     if(simka==SIM_BASE)//!!!!!!!!!!dobavka
        LDS	R16, simka
        TST	R16
        LDI	R20, 1
        LDI	R21, 0
        MOVW	R19:R18, R29:R28
        BREQ	$+2+2
        RJMP	??monitor_act_PAP_1
//  815                  {
//  816                  RdFromFleshToArr(A_C_GPRS,&temp1,1);// ęîëč÷ĺńňâî áŕéň APN                 
        SUBI	R18, 254
        SBCI	R19, 255
        LDI	R16, 20
        LDI	R17, 0
        CALL	RdFromFleshToArr
//  817                  RdFromFleshToArr(A_C_GPRS+temp1+1,&temp.bytes[0],1);// ęîëč÷ĺńňâî ëîăčíŕ
        LDI	R20, 1
        LDI	R21, 0
        MOVW	R19:R18, R29:R28
        LDD	R16, Y+2
        LDI	R17, 0
        SUBI	R16, 235
        SBCI	R17, 255
        CALL	RdFromFleshToArr
//  818                  RdFromFleshToArr(A_C_GPRS+temp1+temp.bytes[0]+2,&temp.bytes[1],1);// ęîëč÷ĺńňâî ďŕđîë˙
        LDI	R20, 1
        LDI	R21, 0
        MOVW	R19:R18, R29:R28
        SUBI	R18, 255
        SBCI	R19, 255
        LDD	R22, Y+2
        LD	R16, Y
        LDI	R17, 0
        ADD	R16, R22
        ADC	R17, R21
        SUBI	R16, 234
        SBCI	R17, 255
        CALL	RdFromFleshToArr
//  819                  
//  820               
//  821                  if((temp.bytes[0]==0)||(temp.bytes[0]>MAX_VOL_US_NAME)) buf_tx_232[7]=0;
        LD	R16, Y
        TST	R16
        BREQ	??monitor_act_PAP_2
        LD	R16, Y
        CPI	R16, 13
        BRCS	??monitor_act_PAP_3
??monitor_act_PAP_2:
        LDI	R16, 0
        MOVW	R31:R30, R27:R26
        STD	Z+7, R16
        RJMP	??monitor_act_PAP_4
//  822                     else {buf_tx_232[7]=temp.bytes[0];RdFromFleshToArr(A_C_GPRS+temp1+2,&buf_tx_232[8],temp.bytes[0]);}
??monitor_act_PAP_3:
        LD	R16, Y
        MOVW	R31:R30, R27:R26
        STD	Z+7, R16
        LD	R20, Y
        LDI	R21, 0
        MOVW	R19:R18, R27:R26
        SUBI	R18, 248
        SBCI	R19, 255
        LDD	R16, Y+2
        LDI	R17, 0
        SUBI	R16, 234
        SBCI	R17, 255
        CALL	RdFromFleshToArr
//  823                
//  824                  if((temp.bytes[1]==0)||(temp.bytes[1]>MAX_VOL_PSW)) buf_tx_232[8+buf_tx_232[7]]=0;
??monitor_act_PAP_4:
        LDD	R20, Y+1
        TST	R20
        BREQ	??monitor_act_PAP_5
        CPI	R20, 13
        BRCS	??monitor_act_PAP_6
??monitor_act_PAP_5:
        LDI	R16, 0
        MOVW	R31:R30, R27:R26
        LDD	R18, Z+7
        ADD	R30, R18
        ADC	R31, R16
        STD	Z+8, R16
        RJMP	??monitor_act_PAP_7
//  825                     else {buf_tx_232[8+buf_tx_232[7]]=temp.bytes[1];RdFromFleshToArr(A_C_GPRS+temp1+temp.bytes[0]+3,&buf_tx_232[9+buf_tx_232[7]],temp.bytes[1]);}
??monitor_act_PAP_6:
        MOVW	R31:R30, R27:R26
        LDD	R16, Z+7
        LDI	R17, 0
        ADD	R30, R16
        ADC	R31, R17
        STD	Z+8, R20
        LDI	R21, 0
        MOVW	R31:R30, R27:R26
        LDD	R16, Z+7
        MOVW	R19:R18, R27:R26
        ADD	R18, R16
        ADC	R19, R21
        SUBI	R18, 247
        SBCI	R19, 255
        LDD	R22, Y+2
        LD	R16, Y
        ADD	R16, R22
        ADC	R17, R21
        SUBI	R16, 233
        RJMP	??monitor_act_PAP_8
//  826                  }
//  827                  else   //!!!!!!!!!!dobavka
//  828                  {
//  829                  RdFromFleshToArr(A_CR_GPRS,&temp1,1);// ęîëč÷ĺńňâî áŕéň APN                 
??monitor_act_PAP_1:
        SUBI	R18, 254
        SBCI	R19, 255
        LDI	R16, 80
        LDI	R17, 0
        CALL	RdFromFleshToArr
//  830                  RdFromFleshToArr(A_CR_GPRS+temp1+1,&temp.bytes[0],1);// ęîëč÷ĺńňâî ëîăčíŕ
        LDI	R20, 1
        LDI	R21, 0
        MOVW	R19:R18, R29:R28
        LDD	R16, Y+2
        LDI	R17, 0
        SUBI	R16, 175
        SBCI	R17, 255
        CALL	RdFromFleshToArr
//  831                  RdFromFleshToArr(A_CR_GPRS+temp1+temp.bytes[0]+2,&temp.bytes[1],1);// ęîëč÷ĺńňâî ďŕđîë˙
        LDI	R20, 1
        LDI	R21, 0
        MOVW	R19:R18, R29:R28
        SUBI	R18, 255
        SBCI	R19, 255
        LDD	R22, Y+2
        LD	R16, Y
        LDI	R17, 0
        ADD	R16, R22
        ADC	R17, R21
        SUBI	R16, 174
        SBCI	R17, 255
        CALL	RdFromFleshToArr
//  832                  
//  833               
//  834                  if((temp.bytes[0]==0)||(temp.bytes[0]>MAX_VOL_US_NAME)) buf_tx_232[7]=0;
        LD	R16, Y
        TST	R16
        BREQ	??monitor_act_PAP_9
        LD	R16, Y
        CPI	R16, 13
        BRCS	??monitor_act_PAP_10
??monitor_act_PAP_9:
        LDI	R16, 0
        MOVW	R31:R30, R27:R26
        STD	Z+7, R16
        RJMP	??monitor_act_PAP_11
//  835                     else {buf_tx_232[7]=temp.bytes[0];RdFromFleshToArr(A_CR_GPRS+temp1+2,&buf_tx_232[8],temp.bytes[0]);}
??monitor_act_PAP_10:
        LD	R16, Y
        MOVW	R31:R30, R27:R26
        STD	Z+7, R16
        LD	R20, Y
        LDI	R21, 0
        MOVW	R19:R18, R27:R26
        SUBI	R18, 248
        SBCI	R19, 255
        LDD	R16, Y+2
        LDI	R17, 0
        SUBI	R16, 174
        SBCI	R17, 255
        CALL	RdFromFleshToArr
//  836                
//  837                  if((temp.bytes[1]==0)||(temp.bytes[1]>MAX_VOL_PSW)) buf_tx_232[8+buf_tx_232[7]]=0;
??monitor_act_PAP_11:
        LDD	R20, Y+1
        TST	R20
        BRNE	$+2+2
        RJMP	??monitor_act_PAP_5
        CPI	R20, 13
        BRCS	$+2+2
        RJMP	??monitor_act_PAP_5
//  838                     else {buf_tx_232[8+buf_tx_232[7]]=temp.bytes[1];RdFromFleshToArr(A_CR_GPRS+temp1+temp.bytes[0]+3,&buf_tx_232[9+buf_tx_232[7]],temp.bytes[1]);}
        MOVW	R31:R30, R27:R26
        LDD	R16, Z+7
        LDI	R17, 0
        ADD	R30, R16
        ADC	R31, R17
        STD	Z+8, R20
        LDI	R21, 0
        MOVW	R31:R30, R27:R26
        LDD	R16, Z+7
        MOVW	R19:R18, R27:R26
        ADD	R18, R16
        ADC	R19, R21
        SUBI	R18, 247
        SBCI	R19, 255
        LDD	R22, Y+2
        LD	R16, Y
        ADD	R16, R22
        ADC	R17, R21
        SUBI	R16, 173
??monitor_act_PAP_8:
        SBCI	R17, 255
        CALL	RdFromFleshToArr
??monitor_act_PAP_7:
        MOVW	R31:R30, R27:R26
        LDD	R16, Z+7
        LDI	R17, 0
        ADD	R30, R16
        ADC	R31, R17
        LDD	R24, Z+8
        LDI	R25, 0
        ADD	R24, R16
        ADC	R25, R17
        ADIW	R25:R24, 6
        ST	Y, R24
        STD	Y+1, R25
//  839                  }
//  840                   //!!!!!!!!!!dobavka       
//  841   
//  842                    
//  843                  
//  844                  
//  845                  temp.word=6+buf_tx_232[7]+buf_tx_232[8+buf_tx_232[7]];
//  846                  
//  847                 
//  848                   
//  849                  buf_tx_232[5]=temp.bytes[1]; 
        LDD	R16, Y+1
        MOVW	R31:R30, R27:R26
        STD	Z+5, R16
//  850                  buf_tx_232[6]=temp.bytes[0]; 
        LD	R16, Y
        STD	Z+6, R16
//  851                  
//  852                  temp.word=temp.word+2;
        LD	R16, Y
        LDD	R17, Y+1
        SUBI	R16, 254
        SBCI	R17, 255
        ST	Y, R16
        STD	Y+1, R17
//  853                  vol_tx_ppp=temp.word+4;
        LD	R24, Y
        LDD	R25, Y+1
        ADIW	R25:R24, 4
        LDI	R30, LOW(vol_tx_ppp)
        LDI	R31, (vol_tx_ppp) >> 8
        ST	Z, R24
        STD	Z+1, R25
//  854                   
//  855                  
//  856                  
//  857                   
//  858 
//  859                  temp.word=pppfcs16(PPPINITFCS16,&buf_tx_232[1],temp.word) ^ 0xffff;                  
        LD	R20, Y
        LDD	R21, Y+1
        MOVW	R19:R18, R27:R26
        SUBI	R18, 255
        SBCI	R19, 255
        LDI	R16, 255
        LDI	R17, 255
        RCALL	pppfcs16
        LDI	R18, 255
        LDI	R19, 255
        EOR	R18, R16
        EOR	R19, R17
        ST	Y, R18
        STD	Y+1, R19
//  860                  buf_tx_232[vol_tx_ppp-3]=temp.bytes[0];
        LDI	R30, LOW(vol_tx_ppp)
        LDI	R31, (vol_tx_ppp) >> 8
        LD	R16, Z
        LDD	R17, Z+1
        MOVW	R31:R30, R27:R26
        ADD	R30, R16
        ADC	R31, R17
        SBIW	R31:R30, 3
        LD	R18, Y
        ST	Z, R18
//  861                  buf_tx_232[vol_tx_ppp-2]=temp.bytes[1];
        LDD	R18, Y+1
        STD	Z+1, R18
//  862                  
//  863                  buf_tx_232[vol_tx_ppp-1]=0x7e; 
        LDI	R16, 126
        STD	Z+2, R16
//  864                  
//  865                 
//  866 
//  867       
//  868                  count_tx_ppp=0;                            
        LDI	R16, 0
        LDI	R30, LOW(count_tx_ppp)
        LDI	R31, (count_tx_ppp) >> 8
        ST	Z, R16
        STD	Z+1, R16
//  869                  UCSR0A=UCSR0A | TXC;                            
        LDS	R16, 192
        ORI	R16, 0x40
        STS	192, R16
//  870                  UCSR0B=UCSR0B | TXEN;
        LDS	R16, 193
        ORI	R16, 0x08
        STS	193, R16
//  871                  UCSR0B=UCSR0B | TXCIE;
        LDS	R16, 193
        ORI	R16, 0x40
        STS	193, R16
//  872                  if(check_cts()==1) return;    
        CALL	check_cts
        CPI	R16, 1
        BREQ	??monitor_act_PAP_0
//  873                  
//  874                  S2_RD;
        SBI	0x08, 0x00
        CBI	0x08, 0x01
//  875                  UDR0=buf_tx_232[0];  
        LD	R16, X
        STS	198, R16
//  876                  if(Regim==RG_DEBAG) UDR3=buf_tx_232[0];
        LDS	R16, Regim
        CPI	R16, 1
        BRNE	??monitor_act_PAP_0
        LD	R16, X
        STS	310, R16
??monitor_act_PAP_0:
        ADIW	R29:R28, 3
        CFI CFA_Y Y+4
        LDI	R30, 4
        JMP	?EPILOGUE_B4_L09
        CFI EndBlock cfiBlock4
//  877                 
//  878 
//  879         }
//  880       }
//  881 
//  882 
//  883 
//  884 
//  885 

        RSEG CODE:CODE:NOROOT(1)
//  886 void monitor_event_PAP(void)
monitor_event_PAP:
        CFI Block cfiBlock5 Using cfiCommon0
        CFI Function monitor_event_PAP
//  887     {
        MOVW	R19:R18, R27:R26
//  888      if (fl_pap.up==1)      //UP
        LDI	R30, LOW(ip_pri_dns)
        LDI	R31, (ip_pri_dns) >> 8
        LDD	R16, Z+17
        LDI	R26, LOW(cnt_pap_tm_out)
        LDI	R27, (cnt_pap_tm_out) >> 8
        LDD	R17, Z+13
        SBRS	R17, 4
        RJMP	??monitor_event_PAP_0
//  889          {
//  890          fl_pap.up=0; 
        LDD	R17, Z+13
        ANDI	R17, 0xEF
        STD	Z+13, R17
//  891            switch(PAP_state)
        SUBI	R16, 1
        BREQ	$+2+2
        RJMP	??monitor_event_PAP_1
//  892                {
//  893                 case START_ST:                                                                
//  894                             vol_cnt_rst_pap=VOL_PAP_MC;  
??monitor_event_PAP_2:
        LDI	R16, 5
        ADIW	R27:R26, 15
        ST	X, R16
        SBIW	R27:R26, 15
//  895                            
//  896                            // IRC;   //!!!!!!!!!!!!!!111                                            
//  897                             cnt_pap_tm_out=VOL_PAP_TM_OUT; 
        LDI	R16, 184
        LDI	R17, 11
        ST	X+, R16
        ST	X, R17
        SBIW	R27:R26, 1
//  898                             cnt_rst_pap=vol_cnt_rst_pap;
        LDI	R16, 5
        ADIW	R27:R26, 14
        ST	X, R16
//  899                             fl_pap.pap_tm_out_en=1; 
//  900                             fl_pap.act_pap_end=1;  
        LDD	R16, Z+13
        ORI	R16, 0x03
        STD	Z+13, R16
//  901                             
//  902                             pap_act_buf=SCR;                    
??monitor_event_PAP_3:
        LDI	R16, 6
        STD	Z+16, R16
//  903                             PAP_state=SEND_REQ; 
        STD	Z+17, R16
//  904                 return;
        RJMP	??monitor_event_PAP_1
//  905                }
//  906             
//  907          return;
//  908          }
//  909      
//  910     
//  911      
//  912      if(fl_pap.t0_pl==1)        //TO_PL
??monitor_event_PAP_0:
        LDD	R17, Z+13
        SBRS	R17, 2
        RJMP	??monitor_event_PAP_4
//  913         {
//  914          fl_pap.t0_pl=0; 
        LDD	R17, Z+13
        ANDI	R17, 0xFB
        STD	Z+13, R17
//  915          switch(PAP_state)
        SUBI	R16, 6
        BRNE	??monitor_event_PAP_1
//  916                {                     
//  917                                
//  918                 case SEND_REQ:
//  919                             vol_cnt_rst_pap=VOL_PAP_MC;                                                    
        LDI	R16, 5
        ADIW	R27:R26, 15
        ST	X, R16
//  920                             pap_act_buf=SCR;               
        RJMP	??monitor_event_PAP_3
//  921                             PAP_state=SEND_REQ;
//  922                             return;
//  923                                                                             
//  924                } 
//  925             
//  926          return;
//  927         }       
//  928        
//  929          
//  930       if(fl_pap.t0_mi==1)       //TO_MI
??monitor_event_PAP_4:
        LDD	R17, Z+13
        SBRS	R17, 3
        RJMP	??monitor_event_PAP_5
//  931         {
//  932          fl_pap.t0_mi=0;
        LDD	R17, Z+13
        ANDI	R17, 0xF7
        STD	Z+13, R17
//  933          switch(PAP_state)
        SUBI	R16, 6
        BRNE	??monitor_event_PAP_1
//  934                {                     
//  935                                               
//  936                 case SEND_REQ:  
//  937                             event_modem=EVM_PPP_ERR;
        LDI	R16, 5
        STS	event_modem, R16
//  938                             //write_log_info(ST_ERROR,ERR7);
//  939                             //lock_it();                                                  
//  940                             return;                                                                           
        RJMP	??monitor_event_PAP_1
//  941                } 
//  942          return;
//  943         }   
//  944         
//  945         
//  946         
//  947         
//  948      switch (PAP_event)
??monitor_event_PAP_5:
        LDD	R17, Z+18
        SUBI	R17, 8
        BREQ	??monitor_event_PAP_6
        DEC	R17
        BREQ	??monitor_event_PAP_7
        RJMP	??monitor_event_PAP_1
//  949         {
//  950        
//  951                
//  952        
//  953         case RCA:  
//  954            
//  955         
//  956             PAP_event=NO_EVENT;
??monitor_event_PAP_6:
        LDI	R17, 255
        STD	Z+18, R17
//  957             switch(PAP_state)
        SUBI	R16, 6
        BRNE	??monitor_event_PAP_1
//  958                {                     
//  959 
//  960               
//  961                 case SEND_REQ:                                                                                                     
//  962                             //TLU;  
//  963                             
//  964                             fl_pap.up=0;  
        LDD	R16, Z+13
        ANDI	R16, 0xEF
        STD	Z+13, R16
//  965                             PAP_state=OPEN_ST; 
        LDI	R16, 9
        STD	Z+17, R16
//  966                             IPCP_state=START_ST;  
        LDI	R16, 1
        ADIW	R27:R26, 3
        ST	X, R16
        SBIW	R27:R26, 3
//  967                             fl_ipcp.act_ipcp_end=1; 
        LDD	R16, Z+11
        ORI	R16, 0x01
        STD	Z+11, R16
//  968                             fl_ipcp1.up=1;
//  969                             fl_ipcp1.down=0;
        MOVW	R31:R30, R27:R26
        LDD	R16, Z+2
        ANDI	R16, 0xFD
        ORI	R16, 0x01
        STD	Z+2, R16
//  970                             layer_PPP=LAYER_IPCP;
        LDI	R16, 3
        STS	layer_PPP, R16
//  971 
//  972                             return;
        RJMP	??monitor_event_PAP_1
//  973                                                                                  
//  974                }  
//  975              return; 
//  976         
//  977         
//  978         case RCN: 
//  979         PAP_event=NO_EVENT;
??monitor_event_PAP_7:
        LDI	R17, 255
        STD	Z+18, R17
//  980         switch(PAP_state)        
        SUBI	R16, 6
        BRNE	$+2+2
        RJMP	??monitor_event_PAP_2
??monitor_event_PAP_1:
        MOVW	R27:R26, R19:R18
        RET
        CFI EndBlock cfiBlock5
//  981                {                     
//  982 
//  983                 
//  984                 case SEND_REQ:                                                                
//  985                             vol_cnt_rst_pap=VOL_PAP_MC;  
//  986                             // IRC;   //!!!!!!!!!!!!!!111                                            
//  987                             cnt_pap_tm_out=VOL_PAP_TM_OUT; 
//  988                             cnt_rst_pap=vol_cnt_rst_pap;
//  989                             fl_pap.pap_tm_out_en=1; 
//  990                             fl_pap.act_pap_end=1;
//  991                             
//  992                             pap_act_buf=SCR;                                        
//  993                             PAP_state=SEND_REQ;  
//  994                             return;         
//  995                                                                                   
//  996                }  
//  997              return; 
//  998        
//  999       
// 1000 
// 1001                           
// 1002         }
// 1003     
// 1004     }
// 1005 
// 1006 
// 1007 

        RSEG CODE:CODE:NOROOT(1)
// 1008 void monitor_act_LCP(void)
monitor_act_LCP:
        CFI Block cfiBlock6 Using cfiCommon0
        CFI Function monitor_act_LCP
// 1009       {  
        FUNCALL monitor_act_LCP, run_lcp_act
        LOCFRAME CSTACK, 2, STACK
        LOCFRAME RSTACK, 2, STACK
        ST	-Y, R27
        CFI R27 Frame(CFA_Y, -1)
        CFI CFA_Y Y+1
        ST	-Y, R26
        CFI R26 Frame(CFA_Y, -2)
        CFI CFA_Y Y+2
// 1010        
// 1011        if((uk_in_act_LCP!=uk_out_act_LCP)&&(fl_lcp.act_lcp_end==1)&&(fl_pap.act_pap_end==1)&&(fl_ipcp.act_ipcp_end==1)&&(fl_ip.act_ip_end==1))
        LDI	R26, LOW(ip_pri_dns)
        LDI	R27, (ip_pri_dns) >> 8
        ADIW	R27:R26, 36
        LD	R16, X
        SBIW	R27:R26, 36
        ADIW	R27:R26, 37
        LD	R17, X
        SBIW	R27:R26, 37
        CP	R16, R17
        BREQ	??monitor_act_LCP_0
        ADIW	R27:R26, 10
        LD	R16, X
        SBIW	R27:R26, 10
        ANDI	R16, 0x01
        ADIW	R27:R26, 13
        LD	R17, X
        SBIW	R27:R26, 13
        ANDI	R17, 0x01
        AND	R17, R16
        ADIW	R27:R26, 11
        LD	R16, X
        SBIW	R27:R26, 11
        ANDI	R16, 0x01
        AND	R16, R17
        ADIW	R27:R26, 12
        LD	R17, X
        SBIW	R27:R26, 12
        ANDI	R17, 0x01
        AND	R17, R16
        BREQ	??monitor_act_LCP_0
// 1012         {   
// 1013         run_lcp_act();
        RCALL	run_lcp_act
// 1014         uk_out_act_LCP++;  
        ADIW	R27:R26, 37
        LD	R16, X
        INC	R16
        ST	X, R16
        SBIW	R27:R26, 37
// 1015         if (uk_out_act_LCP>=LCP_ACT_VOL)uk_out_act_LCP=0; 
        ADIW	R27:R26, 37
        LD	R16, X
        SBIW	R27:R26, 37
        CPI	R16, 15
        BRCS	??monitor_act_LCP_0
        LDI	R16, 0
        ADIW	R27:R26, 37
        ST	X, R16
// 1016         }
// 1017       }
??monitor_act_LCP_0:
        LD	R26, Y+
        CFI R26 SameValue
        CFI CFA_Y Y+1
        LD	R27, Y+
        CFI R27 SameValue
        CFI CFA_Y Y+0
        RET
        CFI EndBlock cfiBlock6
// 1018  
// 1019  
// 1020   

        RSEG CODE:CODE:NOROOT(1)
// 1021 void monitor_event_LCP(void)
monitor_event_LCP:
        CFI Block cfiBlock7 Using cfiCommon0
        CFI Function monitor_event_LCP
// 1022     {
        FUNCALL monitor_event_LCP, prov_uk_in
        LOCFRAME CSTACK, 7, STACK
        LOCFRAME RSTACK, 2, STACK
        FUNCALL monitor_event_LCP, prov_uk_in
        LOCFRAME CSTACK, 7, STACK
        LOCFRAME RSTACK, 2, STACK
        FUNCALL monitor_event_LCP, prov_uk_in
        LOCFRAME CSTACK, 7, STACK
        LOCFRAME RSTACK, 2, STACK
        FUNCALL monitor_event_LCP, prov_uk_in
        LOCFRAME CSTACK, 7, STACK
        LOCFRAME RSTACK, 2, STACK
        FUNCALL monitor_event_LCP, prov_uk_in
        LOCFRAME CSTACK, 7, STACK
        LOCFRAME RSTACK, 2, STACK
        FUNCALL monitor_event_LCP, prov_uk_in
        LOCFRAME CSTACK, 7, STACK
        LOCFRAME RSTACK, 2, STACK
        FUNCALL monitor_event_LCP, prov_uk_in
        LOCFRAME CSTACK, 7, STACK
        LOCFRAME RSTACK, 2, STACK
        FUNCALL monitor_event_LCP, prov_uk_in
        LOCFRAME CSTACK, 7, STACK
        LOCFRAME RSTACK, 2, STACK
        FUNCALL monitor_event_LCP, prov_uk_in
        LOCFRAME CSTACK, 7, STACK
        LOCFRAME RSTACK, 2, STACK
        FUNCALL monitor_event_LCP, prov_uk_in
        LOCFRAME CSTACK, 7, STACK
        LOCFRAME RSTACK, 2, STACK
        FUNCALL monitor_event_LCP, prov_uk_in
        LOCFRAME CSTACK, 7, STACK
        LOCFRAME RSTACK, 2, STACK
        FUNCALL monitor_event_LCP, prov_uk_in
        LOCFRAME CSTACK, 7, STACK
        LOCFRAME RSTACK, 2, STACK
        FUNCALL monitor_event_LCP, prov_uk_in
        LOCFRAME CSTACK, 7, STACK
        LOCFRAME RSTACK, 2, STACK
        FUNCALL monitor_event_LCP, prov_uk_in
        LOCFRAME CSTACK, 7, STACK
        LOCFRAME RSTACK, 2, STACK
        FUNCALL monitor_event_LCP, prov_uk_in
        LOCFRAME CSTACK, 7, STACK
        LOCFRAME RSTACK, 2, STACK
        FUNCALL monitor_event_LCP, prov_uk_in
        LOCFRAME CSTACK, 7, STACK
        LOCFRAME RSTACK, 2, STACK
        FUNCALL monitor_event_LCP, prov_uk_in
        LOCFRAME CSTACK, 7, STACK
        LOCFRAME RSTACK, 2, STACK
        FUNCALL monitor_event_LCP, prov_uk_in
        LOCFRAME CSTACK, 7, STACK
        LOCFRAME RSTACK, 2, STACK
        FUNCALL monitor_event_LCP, prov_uk_in
        LOCFRAME CSTACK, 7, STACK
        LOCFRAME RSTACK, 2, STACK
        FUNCALL monitor_event_LCP, prov_uk_in
        LOCFRAME CSTACK, 7, STACK
        LOCFRAME RSTACK, 2, STACK
        FUNCALL monitor_event_LCP, prov_uk_in
        LOCFRAME CSTACK, 7, STACK
        LOCFRAME RSTACK, 2, STACK
        FUNCALL monitor_event_LCP, prov_uk_in
        LOCFRAME CSTACK, 7, STACK
        LOCFRAME RSTACK, 2, STACK
        FUNCALL monitor_event_LCP, prov_uk_in
        LOCFRAME CSTACK, 7, STACK
        LOCFRAME RSTACK, 2, STACK
        FUNCALL monitor_event_LCP, prov_uk_in
        LOCFRAME CSTACK, 7, STACK
        LOCFRAME RSTACK, 2, STACK
        FUNCALL monitor_event_LCP, prov_uk_in
        LOCFRAME CSTACK, 7, STACK
        LOCFRAME RSTACK, 2, STACK
        FUNCALL monitor_event_LCP, prov_uk_in
        LOCFRAME CSTACK, 7, STACK
        LOCFRAME RSTACK, 2, STACK
        FUNCALL monitor_event_LCP, prov_uk_in
        LOCFRAME CSTACK, 7, STACK
        LOCFRAME RSTACK, 2, STACK
        FUNCALL monitor_event_LCP, prov_uk_in
        LOCFRAME CSTACK, 7, STACK
        LOCFRAME RSTACK, 2, STACK
        FUNCALL monitor_event_LCP, prov_uk_in
        LOCFRAME CSTACK, 7, STACK
        LOCFRAME RSTACK, 2, STACK
        FUNCALL monitor_event_LCP, prov_uk_in
        LOCFRAME CSTACK, 7, STACK
        LOCFRAME RSTACK, 2, STACK
        FUNCALL monitor_event_LCP, prov_uk_in
        LOCFRAME CSTACK, 7, STACK
        LOCFRAME RSTACK, 2, STACK
        FUNCALL monitor_event_LCP, prov_uk_in
        LOCFRAME CSTACK, 7, STACK
        LOCFRAME RSTACK, 2, STACK
        FUNCALL monitor_event_LCP, prov_uk_in
        LOCFRAME CSTACK, 7, STACK
        LOCFRAME RSTACK, 2, STACK
        FUNCALL monitor_event_LCP, prov_uk_in
        LOCFRAME CSTACK, 7, STACK
        LOCFRAME RSTACK, 2, STACK
        FUNCALL monitor_event_LCP, prov_uk_in
        LOCFRAME CSTACK, 7, STACK
        LOCFRAME RSTACK, 2, STACK
        FUNCALL monitor_event_LCP, prov_uk_in
        LOCFRAME CSTACK, 7, STACK
        LOCFRAME RSTACK, 2, STACK
        FUNCALL monitor_event_LCP, prov_uk_in
        LOCFRAME CSTACK, 7, STACK
        LOCFRAME RSTACK, 2, STACK
        FUNCALL monitor_event_LCP, prov_uk_in
        LOCFRAME CSTACK, 7, STACK
        LOCFRAME RSTACK, 2, STACK
        FUNCALL monitor_event_LCP, prov_uk_in
        LOCFRAME CSTACK, 7, STACK
        LOCFRAME RSTACK, 2, STACK
        FUNCALL monitor_event_LCP, prov_uk_in
        LOCFRAME CSTACK, 7, STACK
        LOCFRAME RSTACK, 2, STACK
        FUNCALL monitor_event_LCP, prov_uk_in
        LOCFRAME CSTACK, 7, STACK
        LOCFRAME RSTACK, 2, STACK
        FUNCALL monitor_event_LCP, prov_uk_in
        LOCFRAME CSTACK, 7, STACK
        LOCFRAME RSTACK, 2, STACK
        FUNCALL monitor_event_LCP, prov_uk_in
        LOCFRAME CSTACK, 7, STACK
        LOCFRAME RSTACK, 2, STACK
        FUNCALL monitor_event_LCP, prov_uk_in
        LOCFRAME CSTACK, 7, STACK
        LOCFRAME RSTACK, 2, STACK
        CALL	?PROLOGUE7_L09
        CFI R6 Frame(CFA_Y, -1)
        CFI R5 Frame(CFA_Y, -2)
        CFI R4 Frame(CFA_Y, -3)
        CFI R27 Frame(CFA_Y, -4)
        CFI R26 Frame(CFA_Y, -5)
        CFI R25 Frame(CFA_Y, -6)
        CFI R24 Frame(CFA_Y, -7)
        CFI CFA_Y Y+7
        REQUIRE	?Register_R6_is_cg_reg
// 1023      if (fl_lcp1.up==1)      //UP
        LDI	R26, LOW(ip_pri_dns)
        LDI	R27, (ip_pri_dns) >> 8
        MOVW	R31:R30, R27:R26
        LDD	R16, Z+36
        LDI	R17, 0
        MOVW	R25:R24, R27:R26
        ADD	R24, R16
        ADC	R25, R17
        LDI	R30, LOW(fl_lcp1)
        LDI	R31, (fl_lcp1) >> 8
        LDD	R6, Z+1
        LD	R16, Z
        SBRS	R16, 0
        RJMP	??monitor_event_LCP_0
// 1024          {  
// 1025          
// 1026           
// 1027          fl_lcp1.up=0; 
        LD	R16, Z
        ANDI	R16, 0xFE
        ST	Z, R16
// 1028            switch(LCP_state)
        MOV	R16, R6
        SUBI	R16, 1
        BRNE	??monitor_event_LCP_1
// 1029                {
// 1030                 case START_ST:                                                                
// 1031 
// 1032                             vol_cnt_rst_lcp=VOL_LCP_MC;  
??monitor_event_LCP_2:
        LDI	R16, 10
        MOVW	R31:R30, R27:R26
        STD	Z+41, R16
// 1033                             LCP_act_buf[uk_in_act_LCP]=IRC;  
        LDI	R16, 4
??monitor_event_LCP_3:
        MOVW	R31:R30, R25:R24
        STD	Z+20, R16
// 1034                             prov_uk_in();                    
        RCALL	prov_uk_in
// 1035                             LCP_act_buf[uk_in_act_LCP]=SCR;  
        LDI	R16, 6
??monitor_event_LCP_4:
        MOVW	R31:R30, R27:R26
??monitor_event_LCP_5:
        LDD	R18, Z+36
        LDI	R19, 0
        ADD	R26, R18
        ADC	R27, R19
        MOVW	R31:R30, R27:R26
??monitor_event_LCP_6:
        STD	Z+20, R16
// 1036                             prov_uk_in();                    
        RCALL	prov_uk_in
// 1037                             LCP_state=SEND_REQ;  
// 1038                             
// 1039              
// 1040                            
// 1041                 return;
// 1042                }
// 1043             
// 1044          return;
// 1045          }
// 1046      
// 1047      if (fl_lcp1.down==1)      //DOWN
// 1048          {      
// 1049          
// 1050           fl_lcp1.down=0;
// 1051           switch(LCP_state)
// 1052                {                     
// 1053 
// 1054                 case STOP_ST:                                                                
// 1055                             LCP_act_buf[uk_in_act_LCP]=TLS;  
// 1056                             prov_uk_in();   
// 1057                             fl_lcp.lcp_tm_out_en=0;                 
// 1058                             LCP_state=START_ST;
// 1059                             return;        
// 1060                 case OSTANOV:                                                                
// 1061                             fl_lcp.lcp_tm_out_en=0;                 
// 1062                             LCP_state=START_ST;
// 1063                             return;  
// 1064                 case SEND_REQ:                                                                
// 1065                             fl_lcp.lcp_tm_out_en=0;                 
// 1066                             LCP_state=START_ST;
// 1067                             return;
// 1068                 case REC_ACK:                                                                
// 1069                             fl_lcp.lcp_tm_out_en=0;                 
// 1070                             LCP_state=START_ST;
// 1071                             return;
// 1072                 case SEND_ACK:                                                                
// 1073                             fl_lcp.lcp_tm_out_en=0;                 
// 1074                             LCP_state=START_ST;
// 1075                             return;
// 1076                 case OPEN_ST:                                                                
// 1077                             LCP_act_buf[uk_in_act_LCP]=TLD;  
// 1078                             prov_uk_in();   
// 1079                             fl_lcp.lcp_tm_out_en=0;                 
// 1080                             LCP_state=START_ST;
// 1081                             return;                                                                    
// 1082                } 
// 1083             
// 1084          return;
// 1085          }
// 1086      
// 1087      if(fl_lcp.t0_pl==1)        //TO_PL
// 1088         {
// 1089          fl_lcp.t0_pl=0; 
// 1090          switch(LCP_state)
// 1091                {                     
// 1092                                
// 1093                 case OSTANOV:                                                                
// 1094                             vol_cnt_rst_lcp=VOL_LCP_MT;
// 1095                             LCP_act_buf[uk_in_act_LCP]=STR;  
// 1096                             prov_uk_in();                 
// 1097                             LCP_state=OSTANOV;
// 1098                             return;  
// 1099                 case SEND_REQ:
// 1100                             vol_cnt_rst_lcp=VOL_LCP_MC;                                                    
// 1101                             LCP_act_buf[uk_in_act_LCP]=SCR;  
// 1102                             prov_uk_in();                 
// 1103                             LCP_state=SEND_REQ;
// 1104                             return;
// 1105                 case REC_ACK:      
// 1106                             vol_cnt_rst_lcp=VOL_LCP_MC;                                              
// 1107                             LCP_act_buf[uk_in_act_LCP]=SCR;  
// 1108                             prov_uk_in();                 
// 1109                             LCP_state=SEND_REQ;
// 1110                             return;
// 1111                 case SEND_ACK: 
// 1112                             vol_cnt_rst_lcp=VOL_LCP_MC;                                                   
// 1113                             LCP_act_buf[uk_in_act_LCP]=SCR;  
// 1114                             prov_uk_in();                 
// 1115                             LCP_state=SEND_ACK;
// 1116                             return;                                                              
// 1117                } 
// 1118             
// 1119          return;
// 1120         }  
// 1121       if(fl_lcp.t0_mi==1)       //TO_MI
// 1122         {
// 1123          fl_lcp.t0_mi=0;
// 1124          switch(LCP_state)
// 1125                {                     
// 1126                                
// 1127                 case OSTANOV:  
// 1128                             fl_lcp.lcp_tm_out_en=0;                                                  
// 1129                             LCP_act_buf[uk_in_act_LCP]=TLF;  
// 1130                             prov_uk_in();                   
// 1131                             LCP_state=STOP_ST;
// 1132                             return;  
// 1133                 case SEND_REQ:                                                                
// 1134                             fl_lcp.lcp_tm_out_en=0;                                                  
// 1135                             LCP_act_buf[uk_in_act_LCP]=TLF;  
// 1136                             prov_uk_in();                   
// 1137                             LCP_state=STOP_ST;
// 1138                             return;
// 1139                 case REC_ACK:                                                                
// 1140                             fl_lcp.lcp_tm_out_en=0;                                                  
// 1141                             LCP_act_buf[uk_in_act_LCP]=TLF;  
// 1142                             prov_uk_in();                   
// 1143                             LCP_state=STOP_ST;
// 1144                             return;
// 1145                 case SEND_ACK:                                                                
// 1146                             fl_lcp.lcp_tm_out_en=0;                                                  
// 1147                             LCP_act_buf[uk_in_act_LCP]=TLF;  
// 1148                             prov_uk_in();                   
// 1149                             LCP_state=STOP_ST;
// 1150                             return;                                                              
// 1151                } 
// 1152          return;
// 1153         }   
// 1154      switch (LCP_event)
// 1155         {
// 1156         case RCR_PL:  
// 1157             LCP_event=NO_EVENT; 
// 1158             switch(LCP_state)
// 1159                {                     
// 1160 
// 1161                 case STOP_ST:        
// 1162                             vol_cnt_rst_lcp=VOL_LCP_MC;  
// 1163                             LCP_act_buf[uk_in_act_LCP]=IRC;  
// 1164                             prov_uk_in();                    
// 1165                             LCP_act_buf[uk_in_act_LCP]=SCR;  
// 1166                             prov_uk_in();   
// 1167                             LCP_act_buf[uk_in_act_LCP]=SCA;  
// 1168                             prov_uk_in();                 
// 1169                             LCP_state=SEND_ACK;  
// 1170                             
// 1171                             return;        
// 1172                 case OSTANOV:                                                                                
// 1173                             LCP_state=OSTANOV; 
// 1174                     
// 1175                             return;  
// 1176                 case SEND_REQ:                                                                
// 1177                             LCP_act_buf[uk_in_act_LCP]=SCA;  
// 1178                             prov_uk_in();                 
// 1179                             LCP_state=SEND_ACK;   
// 1180 
// 1181                             return;
// 1182                 case REC_ACK:
// 1183         
// 1184                             LCP_act_buf[uk_in_act_LCP]=SCA;  
// 1185                             prov_uk_in();       
// 1186                             LCP_act_buf[uk_in_act_LCP]=TLU;  
// 1187                             prov_uk_in();          
// 1188                             LCP_state=OPEN_ST;  
// 1189                            
// 1190                             return;
// 1191                 case SEND_ACK:                                                                
// 1192                             LCP_act_buf[uk_in_act_LCP]=SCA;  
// 1193                             prov_uk_in();                 
// 1194                             LCP_state=SEND_ACK; 
// 1195                    
// 1196                             return;
// 1197                 case OPEN_ST:      
// 1198                             LCP_act_buf[uk_in_act_LCP]=TLD;  
// 1199                             prov_uk_in();    
// 1200                             vol_cnt_rst_lcp=VOL_LCP_MC; 
// 1201                             LCP_act_buf[uk_in_act_LCP]=SCR;  
// 1202                             prov_uk_in();                                                                
// 1203                             LCP_act_buf[uk_in_act_LCP]=SCA;  
// 1204                             prov_uk_in();                 
// 1205                             LCP_state=SEND_ACK; 
// 1206                    
// 1207                             return;                                                                    
// 1208                }  
// 1209              return; 
// 1210         case RCR_MI: 
// 1211             
// 1212             LCP_event=NO_EVENT;
// 1213             switch(LCP_state)
// 1214                {                     
// 1215 
// 1216                 case STOP_ST:        
// 1217                             vol_cnt_rst_lcp=VOL_LCP_MC;  
// 1218                             LCP_act_buf[uk_in_act_LCP]=IRC;  
// 1219                             prov_uk_in();                    
// 1220                             LCP_act_buf[uk_in_act_LCP]=SCR;  
// 1221                             prov_uk_in();   
// 1222                             LCP_act_buf[uk_in_act_LCP]=SCN;  
// 1223                             prov_uk_in();                 
// 1224                             LCP_state=SEND_REQ; 
// 1225                     
// 1226                             return;        
// 1227                 case OSTANOV:                                                                                
// 1228                             LCP_state=OSTANOV; 
// 1229                           
// 1230                             return;  
// 1231                 case SEND_REQ:                                                                
// 1232                             
// 1233                        
// 1234                             LCP_act_buf[uk_in_act_LCP]=SCN;  
// 1235                             prov_uk_in();                 
// 1236                             LCP_state=SEND_REQ;    
// 1237                      
// 1238                             return;
// 1239                 case REC_ACK:                                                                
// 1240                             LCP_act_buf[uk_in_act_LCP]=SCN;  
// 1241                             prov_uk_in();              
// 1242                             LCP_state=REC_ACK;     
// 1243                            
// 1244                             return;
// 1245                 case SEND_ACK:                                                                
// 1246                             LCP_act_buf[uk_in_act_LCP]=SCN;  
// 1247                             prov_uk_in();                 
// 1248                             LCP_state=SEND_REQ;
// 1249                          
// 1250                             return;
// 1251                 case OPEN_ST:      
// 1252                             LCP_act_buf[uk_in_act_LCP]=TLD;  
// 1253                             prov_uk_in();   
// 1254                             vol_cnt_rst_lcp=VOL_LCP_MC;
// 1255                             LCP_act_buf[uk_in_act_LCP]=SCR;  
// 1256                             prov_uk_in();                                                                
// 1257                             LCP_act_buf[uk_in_act_LCP]=SCN;  
// 1258                             prov_uk_in();                 
// 1259                             LCP_state=SEND_REQ;
// 1260                           
// 1261                             return;                                                                    
// 1262                }  
// 1263              return; 
// 1264         case RCA:    
// 1265  
// 1266   
// 1267   
// 1268             LCP_event=NO_EVENT;
// 1269             switch(LCP_state)
// 1270                {                     
// 1271                 
// 1272                 case STOP_ST:        
// 1273                             fl_lcp.lcp_tm_out_en=0;
// 1274                             LCP_act_buf[uk_in_act_LCP]=STA;  
// 1275                             prov_uk_in();                 
// 1276                             LCP_state=STOP_ST; 
// 1277                           
// 1278                             return;        
// 1279                 case OSTANOV:                                                                                
// 1280                             LCP_state=OSTANOV;  
// 1281                     
// 1282                             return;  
// 1283                 case SEND_REQ: 
// 1284                             
// 1285                             vol_cnt_rst_lcp=VOL_LCP_MC;  
// 1286                             LCP_act_buf[uk_in_act_LCP]=IRC;  
// 1287                             prov_uk_in();                                        
// 1288                             LCP_state=REC_ACK; 
// 1289                      
// 1290                             return;
// 1291                 case REC_ACK:       
// 1292                             vol_cnt_rst_lcp=VOL_LCP_MC;                                             
// 1293                             LCP_act_buf[uk_in_act_LCP]=SCR;  
// 1294                             prov_uk_in();                 
// 1295                             LCP_state=SEND_REQ;
// 1296                             return;
// 1297                 case SEND_ACK:                                                                
// 1298                             vol_cnt_rst_lcp=VOL_LCP_MC;  
// 1299                             LCP_act_buf[uk_in_act_LCP]=IRC;  
// 1300                             prov_uk_in();                                        
// 1301                             LCP_act_buf[uk_in_act_LCP]=TLU;  
// 1302                             prov_uk_in();
// 1303                             LCP_state=OPEN_ST;
// 1304 
// 1305                             return;
// 1306                 case OPEN_ST:
// 1307                             vol_cnt_rst_lcp=VOL_LCP_MC;
// 1308                             LCP_act_buf[uk_in_act_LCP]=TLD;  
// 1309                             prov_uk_in();   
// 1310                             LCP_act_buf[uk_in_act_LCP]=SCR;  
// 1311                             prov_uk_in();                                                                               
// 1312                             LCP_state=SEND_REQ;
// 1313                          
// 1314                             return;                                                                    
// 1315                }  
// 1316              return; 
// 1317         case RCN: 
// 1318                 LCP_event=NO_EVENT;
// 1319         switch(LCP_state)
// 1320                {                     
// 1321 
// 1322                 case STOP_ST:        
// 1323                             fl_lcp.lcp_tm_out_en=0;
// 1324                             LCP_act_buf[uk_in_act_LCP]=STA;  
// 1325                             prov_uk_in();                 
// 1326                             LCP_state=STOP_ST; 
// 1327                         
// 1328                             return;        
// 1329                 case OSTANOV:                                                                                
// 1330                             LCP_state=OSTANOV; 
// 1331                          
// 1332                             return;  
// 1333                 case SEND_REQ:                                                                
// 1334                             vol_cnt_rst_lcp=VOL_LCP_MC;  
// 1335                             LCP_act_buf[uk_in_act_LCP]=IRC;  
// 1336                             prov_uk_in(); 
// 1337                             LCP_act_buf[uk_in_act_LCP]=SCR;  
// 1338                             prov_uk_in();                                       
// 1339                             LCP_state=SEND_REQ;
// 1340                           
// 1341                             return;
// 1342                 case REC_ACK:     
// 1343                             vol_cnt_rst_lcp=VOL_LCP_MC;                                               
// 1344                             LCP_act_buf[uk_in_act_LCP]=SCR;  
// 1345                             prov_uk_in();                 
// 1346                             LCP_state=SEND_REQ;
// 1347                           
// 1348                             return;
// 1349                 case SEND_ACK:                                                                
// 1350                             vol_cnt_rst_lcp=VOL_LCP_MC;  
// 1351                             LCP_act_buf[uk_in_act_LCP]=IRC;  
// 1352                             prov_uk_in();                                        
// 1353                             LCP_act_buf[uk_in_act_LCP]=SCR;  
// 1354                             prov_uk_in();
// 1355                             LCP_state=SEND_ACK;
// 1356                         
// 1357                             return;
// 1358                 case OPEN_ST:      
// 1359                             LCP_act_buf[uk_in_act_LCP]=TLD;  
// 1360                             prov_uk_in(); 
// 1361                             vol_cnt_rst_lcp=VOL_LCP_MC;  
// 1362                             LCP_act_buf[uk_in_act_LCP]=SCR;  
// 1363                             prov_uk_in();                                                                               
// 1364                             LCP_state=SEND_REQ;
// 1365                       
// 1366                             return;                                                                    
// 1367                }  
// 1368              return; 
// 1369         case RTR:
// 1370              LCP_event=NO_EVENT;
// 1371              switch(LCP_state)
// 1372                {                     
// 1373 
// 1374                 case STOP_ST:                                                                
// 1375                             fl_lcp.lcp_tm_out_en=0;
// 1376                             LCP_act_buf[uk_in_act_LCP]=STA;  
// 1377                             prov_uk_in();                 
// 1378                             LCP_state=STOP_ST; 
// 1379                            
// 1380                             return;        
// 1381                 case OSTANOV:                                                                
// 1382                             LCP_act_buf[uk_in_act_LCP]=STA;  
// 1383                             prov_uk_in();                 
// 1384                             LCP_state=OSTANOV; 
// 1385                         
// 1386                             return;  
// 1387                 case SEND_REQ:                                                                
// 1388                             LCP_act_buf[uk_in_act_LCP]=STA;  
// 1389                             prov_uk_in();                 
// 1390                             LCP_state=SEND_REQ;
// 1391                          
// 1392                             return;
// 1393                 case REC_ACK:                                                                
// 1394                             LCP_act_buf[uk_in_act_LCP]=STA;  
// 1395                             prov_uk_in();                 
// 1396                             LCP_state=SEND_REQ;
// 1397                         
// 1398                             return;
// 1399                 case SEND_ACK:                                                                
// 1400                             LCP_act_buf[uk_in_act_LCP]=STA;  
// 1401                             prov_uk_in();                 
// 1402                             LCP_state=SEND_REQ;
// 1403                           
// 1404                             return;
// 1405                 case OPEN_ST:                                                                
// 1406                             vol_cnt_rst_lcp=VOL_LCP_MC;  
// 1407                             LCP_act_buf[uk_in_act_LCP]=TLD;  
// 1408                             prov_uk_in(); 
// 1409                             LCP_act_buf[uk_in_act_LCP]=ZRC; 
// 1410                             prov_uk_in();  
// 1411                             LCP_act_buf[uk_in_act_LCP]=STA;  
// 1412                             prov_uk_in();                                  
// 1413                             LCP_state=STOP_ST; 
// 1414                             
// 1415                             return;                                                                    
// 1416                }  
// 1417              return; 
// 1418         case RTA: 
// 1419              LCP_event=NO_EVENT;
// 1420              switch(LCP_state)
// 1421                {                     
// 1422 
// 1423                 case STOP_ST:                                                                 
// 1424                             fl_lcp.lcp_tm_out_en=0;                 
// 1425                             LCP_state=STOP_ST;
// 1426                      
// 1427                             return;        
// 1428                 case OSTANOV:                                                                
// 1429                             fl_lcp.lcp_tm_out_en=0;                                                  
// 1430                             LCP_act_buf[uk_in_act_LCP]=TLF;  
// 1431                             prov_uk_in();                   
// 1432                             LCP_state=STOP_ST; 
// 1433          
// 1434                             return;  
// 1435                 case SEND_REQ:                                                                                
// 1436                             LCP_state=SEND_REQ;
??monitor_event_LCP_7:
        LDI	R16, 6
        RJMP	??monitor_event_LCP_8
??monitor_event_LCP_0:
        LD	R16, Z
        SBRS	R16, 1
        RJMP	??monitor_event_LCP_9
        LD	R16, Z
        ANDI	R16, 0xFD
        ST	Z, R16
        MOV	R16, R6
        SUBI	R16, 3
        BREQ	??monitor_event_LCP_10
        SUBI	R16, 2
        BRCS	??monitor_event_LCP_1
        SUBI	R16, 4
        BRCS	??monitor_event_LCP_11
        BREQ	??monitor_event_LCP_12
        RJMP	??monitor_event_LCP_1
??monitor_event_LCP_10:
        LDI	R16, 2
??monitor_event_LCP_13:
        MOVW	R31:R30, R25:R24
        STD	Z+20, R16
        RCALL	prov_uk_in
??monitor_event_LCP_11:
        MOVW	R31:R30, R27:R26
        LDD	R16, Z+10
        ANDI	R16, 0xFD
        STD	Z+10, R16
        LDI	R16, 1
??monitor_event_LCP_8:
        LDI	R30, LOW(fl_lcp1)
        LDI	R31, (fl_lcp1) >> 8
        STD	Z+1, R16
??monitor_event_LCP_1:
        LDI	R30, 7
        JMP	?EPILOGUE_B7_L09
??monitor_event_LCP_12:
        LDI	R16, 1
        RJMP	??monitor_event_LCP_13
??monitor_event_LCP_9:
        MOVW	R31:R30, R27:R26
        LDD	R16, Z+10
        SBRS	R16, 2
        RJMP	??monitor_event_LCP_14
        LDD	R16, Z+10
        ANDI	R16, 0xFB
        STD	Z+10, R16
        MOV	R16, R6
        SUBI	R16, 5
        BREQ	??monitor_event_LCP_15
        DEC	R16
        BRNE	$+2+2
        RJMP	??monitor_event_LCP_16
        DEC	R16
        BRNE	$+2+2
        RJMP	??monitor_event_LCP_16
        DEC	R16
        BREQ	??monitor_event_LCP_17
        RJMP	??monitor_event_LCP_1
??monitor_event_LCP_15:
        LDI	R16, 2
        STD	Z+41, R16
        LDI	R16, 9
??monitor_event_LCP_18:
        MOVW	R31:R30, R25:R24
??monitor_event_LCP_19:
        STD	Z+20, R16
        RCALL	prov_uk_in
??monitor_event_LCP_20:
        LDI	R16, 5
        RJMP	??monitor_event_LCP_8
??monitor_event_LCP_17:
        LDI	R16, 10
        STD	Z+41, R16
        LDI	R16, 6
??monitor_event_LCP_21:
        MOVW	R31:R30, R25:R24
??monitor_event_LCP_22:
        STD	Z+20, R16
        RCALL	prov_uk_in
// 1437                    
// 1438                             return;
// 1439                 case REC_ACK:                                                                                
// 1440                             LCP_state=SEND_REQ;
// 1441                         
// 1442                             return;
// 1443                 case SEND_ACK:                                                                
// 1444                             fl_lcp.lcp_tm_out_en=0;                 
// 1445                             LCP_state=SEND_ACK;
// 1446                  
// 1447                             return;
// 1448                 case OPEN_ST:                                                                
// 1449                             vol_cnt_rst_lcp=VOL_LCP_MC;  
// 1450                             LCP_act_buf[uk_in_act_LCP]=TLD;  
// 1451                             prov_uk_in();   
// 1452                             LCP_act_buf[uk_in_act_LCP]=SCR;  
// 1453                             prov_uk_in();                                  
// 1454                             LCP_state=SEND_REQ;
// 1455              
// 1456                             return;                                                                    
// 1457                }  
// 1458              return;
// 1459         case RUC:  
// 1460              LCP_event=NO_EVENT;
// 1461              switch(LCP_state)
// 1462                {                     
// 1463 
// 1464                 case STOP_ST:                                                                
// 1465                             LCP_act_buf[uk_in_act_LCP]=SCJ;  
// 1466                             prov_uk_in();   
// 1467                             fl_lcp.lcp_tm_out_en=0;                 
// 1468                             LCP_state=STOP_ST; 
// 1469 
// 1470                             return;        
// 1471                 case OSTANOV:                                                                
// 1472                             LCP_act_buf[uk_in_act_LCP]=SCJ;  
// 1473                             prov_uk_in();                   
// 1474                             LCP_state=OSTANOV; 
// 1475         
// 1476                             return;  
// 1477                 case SEND_REQ:                                                                
// 1478                             LCP_act_buf[uk_in_act_LCP]=SCJ;  
// 1479                             prov_uk_in();                   
// 1480                             LCP_state=SEND_REQ;
// 1481 
// 1482                             return;
// 1483                 case REC_ACK:                                                                
// 1484                             LCP_act_buf[uk_in_act_LCP]=SCJ;  
// 1485                             prov_uk_in();                   
// 1486                             LCP_state=REC_ACK; 
// 1487             
// 1488                             return;
// 1489                 case SEND_ACK:                                                                
// 1490                             LCP_act_buf[uk_in_act_LCP]=SCJ;  
// 1491                             prov_uk_in();                   
// 1492                             LCP_state=SEND_ACK;
// 1493       
// 1494                             return;
// 1495                 case OPEN_ST:                                                                
// 1496                             LCP_act_buf[uk_in_act_LCP]=SCJ;  
// 1497                             prov_uk_in();                   
// 1498                             LCP_state=OPEN_ST; 
// 1499  
// 1500                             return;                                                                    
// 1501                }  
// 1502              return; 
// 1503         case RXJ_PL:  
// 1504              LCP_event=NO_EVENT;
// 1505              switch(LCP_state)
// 1506                {                     
// 1507                 
// 1508                 case STOP_ST:      
// 1509                             fl_lcp.lcp_tm_out_en=0;                                                              
// 1510                             LCP_state=START_ST;
// 1511                             return;        
// 1512                 case OSTANOV:                                                                               
// 1513                             LCP_state=OSTANOV;
// 1514                             return;  
// 1515                 case SEND_REQ:                                                                                 
// 1516                             LCP_state=SEND_REQ;
// 1517                             return;
// 1518                 case REC_ACK:                                                                              
// 1519                             LCP_state=REC_ACK;
// 1520                             return;
// 1521                 case SEND_ACK:                                                                              
// 1522                             LCP_state=SEND_ACK;
??monitor_event_LCP_23:
        LDI	R16, 8
        RJMP	??monitor_event_LCP_8
??monitor_event_LCP_14:
        LDD	R16, Z+10
        SBRS	R16, 3
        RJMP	??monitor_event_LCP_24
        LDD	R16, Z+10
        ANDI	R16, 0xF7
        STD	Z+10, R16
        MOV	R16, R6
        SUBI	R16, 5
        SUBI	R16, 4
        BRCC	??monitor_event_LCP_1
??monitor_event_LCP_25:
        LDD	R16, Z+10
        ANDI	R16, 0xFD
        STD	Z+10, R16
        LDI	R16, 3
??monitor_event_LCP_26:
        MOVW	R31:R30, R25:R24
??monitor_event_LCP_27:
        STD	Z+20, R16
        RCALL	prov_uk_in
??monitor_event_LCP_28:
        LDI	R16, 3
        RJMP	??monitor_event_LCP_8
??monitor_event_LCP_24:
        LDD	R16, Z+19
        LDI	R30, LOW(`?<Jumptable for monitor_event_LCP>_0`)
        LDI	R31, (`?<Jumptable for monitor_event_LCP>_0`) >> 16
        OUT	0x3B, R31
        LDI	R31, HIGH(`?<Jumptable for monitor_event_LCP>_0`)
        JMP	?CV_SWITCH_L06
??monitor_event_LCP_29:
        LDI	R16, 255
        MOVW	R31:R30, R27:R26
        STD	Z+19, R16
        MOV	R16, R6
        SUBI	R16, 3
        BREQ	??monitor_event_LCP_30
        SUBI	R16, 2
        BREQ	??monitor_event_LCP_20
        DEC	R16
        BREQ	??monitor_event_LCP_31
        DEC	R16
        BREQ	??monitor_event_LCP_32
        DEC	R16
        BREQ	??monitor_event_LCP_31
        DEC	R16
        BREQ	??monitor_event_LCP_33
        RJMP	??monitor_event_LCP_1
??monitor_event_LCP_30:
        LDI	R16, 10
        STD	Z+41, R16
        LDI	R16, 4
        MOVW	R31:R30, R25:R24
        STD	Z+20, R16
        RCALL	prov_uk_in
        LDI	R16, 6
        MOVW	R31:R30, R27:R26
??monitor_event_LCP_34:
        LDD	R18, Z+36
        LDI	R19, 0
        ADD	R30, R18
        ADC	R31, R19
        STD	Z+20, R16
        RCALL	prov_uk_in
??monitor_event_LCP_31:
        LDI	R16, 7
??monitor_event_LCP_35:
        MOVW	R31:R30, R27:R26
        LDD	R18, Z+36
        LDI	R19, 0
        ADD	R26, R18
        ADC	R27, R19
        MOVW	R31:R30, R27:R26
        RJMP	??monitor_event_LCP_22
??monitor_event_LCP_32:
        LDI	R16, 7
??monitor_event_LCP_36:
        MOVW	R31:R30, R25:R24
        STD	Z+20, R16
        RCALL	prov_uk_in
        LDI	R16, 0
        MOVW	R31:R30, R27:R26
        LDD	R18, Z+36
        ADD	R26, R18
        ADC	R27, R16
        MOVW	R31:R30, R27:R26
??monitor_event_LCP_37:
        STD	Z+20, R16
        RCALL	prov_uk_in
// 1523                             return;
// 1524                 case OPEN_ST:                                                                                
// 1525                             LCP_state=OPEN_ST;
??monitor_event_LCP_38:
        LDI	R16, 9
        RJMP	??monitor_event_LCP_8
??monitor_event_LCP_33:
        LDI	R16, 1
        MOVW	R31:R30, R25:R24
        STD	Z+20, R16
        RCALL	prov_uk_in
        LDI	R16, 10
        MOVW	R31:R30, R27:R26
        STD	Z+41, R16
        LDI	R16, 6
        RJMP	??monitor_event_LCP_34
??monitor_event_LCP_39:
        LDI	R16, 255
        MOVW	R31:R30, R27:R26
        STD	Z+19, R16
        MOV	R16, R6
        SUBI	R16, 3
        BREQ	??monitor_event_LCP_40
        SUBI	R16, 2
        BRNE	$+2+2
        RJMP	??monitor_event_LCP_20
        DEC	R16
        BREQ	??monitor_event_LCP_41
        DEC	R16
        BREQ	??monitor_event_LCP_42
        DEC	R16
        BREQ	??monitor_event_LCP_41
        DEC	R16
        BREQ	??monitor_event_LCP_43
        RJMP	??monitor_event_LCP_1
??monitor_event_LCP_40:
        LDI	R16, 10
        STD	Z+41, R16
        LDI	R16, 4
        MOVW	R31:R30, R25:R24
        STD	Z+20, R16
        RCALL	prov_uk_in
        LDI	R16, 6
        MOVW	R31:R30, R27:R26
??monitor_event_LCP_44:
        LDD	R18, Z+36
        LDI	R19, 0
        ADD	R30, R18
        ADC	R31, R19
        STD	Z+20, R16
        RCALL	prov_uk_in
??monitor_event_LCP_41:
        LDI	R16, 8
        RJMP	??monitor_event_LCP_4
??monitor_event_LCP_42:
        LDI	R16, 8
??monitor_event_LCP_45:
        MOVW	R31:R30, R25:R24
        STD	Z+20, R16
        RCALL	prov_uk_in
        RJMP	??monitor_event_LCP_46
??monitor_event_LCP_43:
        LDI	R16, 1
        MOVW	R31:R30, R25:R24
        STD	Z+20, R16
        RCALL	prov_uk_in
        LDI	R16, 10
        MOVW	R31:R30, R27:R26
        STD	Z+41, R16
        LDI	R16, 6
        RJMP	??monitor_event_LCP_44
??monitor_event_LCP_47:
        LDI	R16, 255
        MOVW	R31:R30, R27:R26
        STD	Z+19, R16
        MOV	R16, R6
        SUBI	R16, 3
        BREQ	??monitor_event_LCP_48
        SUBI	R16, 2
        BRNE	$+2+2
        RJMP	??monitor_event_LCP_20
        DEC	R16
        BREQ	??monitor_event_LCP_49
        DEC	R16
        BREQ	??monitor_event_LCP_16
        DEC	R16
        BREQ	??monitor_event_LCP_50
??monitor_event_LCP_51:
        DEC	R16
        BREQ	??monitor_event_LCP_52
        RJMP	??monitor_event_LCP_1
??monitor_event_LCP_48:
        LDD	R16, Z+10
        ANDI	R16, 0xFD
        STD	Z+10, R16
        LDI	R16, 10
        RJMP	??monitor_event_LCP_26
??monitor_event_LCP_49:
        LDI	R16, 10
        STD	Z+41, R16
        LDI	R16, 4
        RJMP	??monitor_event_LCP_45
??monitor_event_LCP_50:
        LDI	R16, 10
        STD	Z+41, R16
        LDI	R16, 4
        RJMP	??monitor_event_LCP_36
??monitor_event_LCP_52:
        LDI	R16, 10
        STD	Z+41, R16
        LDI	R16, 1
        RJMP	??monitor_event_LCP_3
??monitor_event_LCP_53:
        LDI	R16, 255
        MOVW	R31:R30, R27:R26
        STD	Z+19, R16
        MOV	R16, R6
        SUBI	R16, 3
        BREQ	??monitor_event_LCP_48
        SUBI	R16, 2
        BRNE	$+2+2
        RJMP	??monitor_event_LCP_20
        DEC	R16
        BRNE	$+2+2
        RJMP	??monitor_event_LCP_2
        DEC	R16
        BREQ	??monitor_event_LCP_16
        DEC	R16
        BREQ	??monitor_event_LCP_54
        DEC	R16
        BREQ	??monitor_event_LCP_55
        RJMP	??monitor_event_LCP_1
??monitor_event_LCP_54:
        LDI	R16, 10
        STD	Z+41, R16
        LDI	R16, 4
        MOVW	R31:R30, R25:R24
        STD	Z+20, R16
        RCALL	prov_uk_in
        LDI	R16, 6
        RJMP	??monitor_event_LCP_35
??monitor_event_LCP_55:
        LDI	R16, 1
        MOVW	R31:R30, R25:R24
        STD	Z+20, R16
        RCALL	prov_uk_in
??monitor_event_LCP_16:
        LDI	R16, 10
        MOVW	R31:R30, R27:R26
        STD	Z+41, R16
        LDI	R16, 6
        RJMP	??monitor_event_LCP_5
??monitor_event_LCP_56:
        LDI	R16, 255
        MOVW	R31:R30, R27:R26
        STD	Z+19, R16
        MOV	R16, R6
        SUBI	R16, 3
        BREQ	??monitor_event_LCP_48
        SUBI	R16, 2
        BREQ	??monitor_event_LCP_57
        SUBI	R16, 1
        BRCS	??monitor_event_LCP_58
        SUBI	R16, 3
        BRCS	??monitor_event_LCP_59
        BREQ	??monitor_event_LCP_60
??monitor_event_LCP_58:
        RJMP	??monitor_event_LCP_1
??monitor_event_LCP_57:
        LDI	R16, 10
        RJMP	??monitor_event_LCP_18
??monitor_event_LCP_59:
        LDI	R16, 10
??monitor_event_LCP_61:
        MOVW	R31:R30, R25:R24
        RJMP	??monitor_event_LCP_6
??monitor_event_LCP_60:
        LDI	R16, 10
        STD	Z+41, R16
        LDI	R16, 1
        MOVW	R31:R30, R25:R24
        STD	Z+20, R16
        RCALL	prov_uk_in
        LDI	R16, 5
        MOVW	R31:R30, R27:R26
        LDD	R18, Z+36
        LDI	R19, 0
        ADD	R30, R18
        ADC	R31, R19
        STD	Z+20, R16
        RCALL	prov_uk_in
        LDI	R16, 10
        MOVW	R31:R30, R27:R26
        LDD	R18, Z+36
        LDI	R19, 0
        ADD	R26, R18
        ADC	R27, R19
        MOVW	R31:R30, R27:R26
        RJMP	??monitor_event_LCP_27
??monitor_event_LCP_62:
        LDI	R16, 255
        MOVW	R31:R30, R27:R26
        STD	Z+19, R16
        MOV	R16, R6
        SUBI	R16, 3
        BREQ	??monitor_event_LCP_63
        SUBI	R16, 2
        BRNE	$+2+2
        RJMP	??monitor_event_LCP_25
        DEC	R16
        BRNE	$+2+2
        RJMP	??monitor_event_LCP_7
        DEC	R16
        BRNE	$+2+2
        RJMP	??monitor_event_LCP_7
        DEC	R16
        BREQ	??monitor_event_LCP_64
        RJMP	??monitor_event_LCP_51
??monitor_event_LCP_63:
        MOVW	R31:R30, R27:R26
        LDD	R16, Z+10
        ANDI	R16, 0xFD
        STD	Z+10, R16
        RJMP	??monitor_event_LCP_28
??monitor_event_LCP_64:
        LDD	R16, Z+10
        ANDI	R16, 0xFD
        STD	Z+10, R16
        RJMP	??monitor_event_LCP_23
??monitor_event_LCP_65:
        LDI	R16, 255
        MOVW	R31:R30, R27:R26
        STD	Z+19, R16
        MOV	R16, R6
        SUBI	R16, 3
        BREQ	??monitor_event_LCP_66
        SUBI	R16, 2
        BREQ	??monitor_event_LCP_67
        DEC	R16
        BREQ	??monitor_event_LCP_68
        DEC	R16
        BREQ	??monitor_event_LCP_69
        DEC	R16
        BREQ	??monitor_event_LCP_70
        DEC	R16
        BREQ	??monitor_event_LCP_71
        RJMP	??monitor_event_LCP_1
??monitor_event_LCP_66:
        LDI	R16, 11
        MOVW	R31:R30, R25:R24
        STD	Z+20, R16
        RCALL	prov_uk_in
        RJMP	??monitor_event_LCP_63
??monitor_event_LCP_67:
        LDI	R16, 11
        RJMP	??monitor_event_LCP_18
??monitor_event_LCP_68:
        LDI	R16, 11
        RJMP	??monitor_event_LCP_61
??monitor_event_LCP_69:
        LDI	R16, 11
        RJMP	??monitor_event_LCP_45
??monitor_event_LCP_70:
        LDI	R16, 11
        RJMP	??monitor_event_LCP_21
??monitor_event_LCP_71:
        LDI	R16, 11
        MOVW	R31:R30, R25:R24
        RJMP	??monitor_event_LCP_37
??monitor_event_LCP_72:
        LDI	R16, 255
        MOVW	R31:R30, R27:R26
        STD	Z+19, R16
        MOV	R16, R6
        SUBI	R16, 3
        BRNE	$+2+2
        RJMP	??monitor_event_LCP_11
        SUBI	R16, 2
        BRNE	$+2+2
        RJMP	??monitor_event_LCP_20
        DEC	R16
        BRNE	$+2+2
        RJMP	??monitor_event_LCP_7
        DEC	R16
        BREQ	??monitor_event_LCP_46
        DEC	R16
        BRNE	$+2+2
        RJMP	??monitor_event_LCP_23
        DEC	R16
        BRNE	$+2+2
        RJMP	??monitor_event_LCP_38
        RJMP	??monitor_event_LCP_1
??monitor_event_LCP_46:
        LDI	R16, 7
        RJMP	??monitor_event_LCP_8
// 1526                             return;                                                                    
// 1527                }  
// 1528              return; 
// 1529         case RXJ_MI:  
// 1530             LCP_event=NO_EVENT;
??monitor_event_LCP_73:
        LDI	R16, 255
        MOVW	R31:R30, R27:R26
        STD	Z+19, R16
// 1531             switch(LCP_state)
        MOV	R16, R6
        SUBI	R16, 3
        BRNE	$+2+2
        RJMP	??monitor_event_LCP_25
        SUBI	R16, 2
        BRCS	??monitor_event_LCP_74
        SUBI	R16, 4
        BRCC	$+2+2
        RJMP	??monitor_event_LCP_25
        BREQ	??monitor_event_LCP_75
??monitor_event_LCP_74:
        RJMP	??monitor_event_LCP_1
// 1532                {                     
// 1533                 case STOP_ST:  
// 1534                             fl_lcp.lcp_tm_out_en=0;                                                  
// 1535                             LCP_act_buf[uk_in_act_LCP]=TLF;  
// 1536                             prov_uk_in();                   
// 1537                             LCP_state=STOP_ST;
// 1538                             return;               
// 1539                 case OSTANOV:  
// 1540                             fl_lcp.lcp_tm_out_en=0;                                                  
// 1541                             LCP_act_buf[uk_in_act_LCP]=TLF;  
// 1542                             prov_uk_in();                   
// 1543                             LCP_state=STOP_ST;
// 1544                             return;  
// 1545                 case SEND_REQ:                                                                
// 1546                             fl_lcp.lcp_tm_out_en=0;                                                  
// 1547                             LCP_act_buf[uk_in_act_LCP]=TLF;  
// 1548                             prov_uk_in();                   
// 1549                             LCP_state=STOP_ST;
// 1550                             return;
// 1551                 case REC_ACK:                                                                
// 1552                             fl_lcp.lcp_tm_out_en=0;                                                  
// 1553                             LCP_act_buf[uk_in_act_LCP]=TLF;  
// 1554                             prov_uk_in();                   
// 1555                             LCP_state=STOP_ST;
// 1556                             return;
// 1557                 case SEND_ACK:                                                                
// 1558                             fl_lcp.lcp_tm_out_en=0;                                                  
// 1559                             LCP_act_buf[uk_in_act_LCP]=TLF;  
// 1560                             prov_uk_in();                   
// 1561                             LCP_state=STOP_ST;
// 1562                             return;
// 1563                 case OPEN_ST:                                                                
// 1564                             vol_cnt_rst_lcp=VOL_LCP_MT;  
??monitor_event_LCP_75:
        LDI	R16, 2
        STD	Z+41, R16
// 1565                             LCP_act_buf[uk_in_act_LCP]=TLD;  
        LDI	R16, 1
        MOVW	R31:R30, R25:R24
        STD	Z+20, R16
// 1566                             prov_uk_in(); 
        RCALL	prov_uk_in
// 1567                             LCP_act_buf[uk_in_act_LCP]=IRC; 
        LDI	R16, 4
        MOVW	R31:R30, R27:R26
        LDD	R18, Z+36
        LDI	R19, 0
        ADD	R30, R18
        ADC	R31, R19
        STD	Z+20, R16
// 1568                             prov_uk_in();  
        RCALL	prov_uk_in
// 1569                             LCP_act_buf[uk_in_act_LCP]=STR;  
        LDI	R16, 9
        MOVW	R31:R30, R27:R26
        LDD	R18, Z+36
        LDI	R19, 0
        ADD	R26, R18
        ADC	R27, R19
        MOVW	R31:R30, R27:R26
        RJMP	??monitor_event_LCP_19
        CFI EndBlock cfiBlock7
// 1570                             prov_uk_in();                                  
// 1571                             LCP_state=OSTANOV;  
// 1572                             return;                                                                        
// 1573                } 
// 1574              return;  
// 1575         case RXR:       
// 1576              LCP_event=NO_EVENT;
// 1577              switch(LCP_state)
// 1578                {                     
// 1579 
// 1580                 case STOP_ST:      
// 1581                             fl_lcp.lcp_tm_out_en=0;                                                              
// 1582                             LCP_state=START_ST;
// 1583                             return;        
// 1584                 case OSTANOV:                                                                               
// 1585                             LCP_state=OSTANOV;
// 1586                             return;  
// 1587                 case SEND_REQ:                                                                                 
// 1588                             LCP_state=SEND_REQ;
// 1589                             return;
// 1590                 case REC_ACK:                                                                              
// 1591                             LCP_state=REC_ACK;
// 1592                             return;
// 1593                 case SEND_ACK:                                                                              
// 1594                             LCP_state=SEND_ACK;
// 1595                             return;
// 1596                 case OPEN_ST:                                                                                
// 1597                          //   LCP_act_buf[uk_in_act_LCP]=SER;  
// 1598                          //   prov_uk_in();
// 1599                             LCP_state=OPEN_ST;
// 1600                             return;                                                                 
// 1601                }  
// 1602              return;                                  
// 1603         }
// 1604     
// 1605     }
// 1606  
// 1607   
// 1608   
// 1609   ////////////////ěîíčňîđű IPCP        
// 1610   

        RSEG CODE:CODE:NOROOT(1)
// 1611   void run_ipcp_act(void)
run_ipcp_act:
        CFI Block cfiBlock8 Using cfiCommon0
        CFI Function run_ipcp_act
// 1612       {  
        FUNCALL run_ipcp_act, clr_cntr_nat
        LOCFRAME CSTACK, 7, STACK
        LOCFRAME RSTACK, 2, STACK
        FUNCALL run_ipcp_act, pppfcs16
        LOCFRAME CSTACK, 7, STACK
        LOCFRAME RSTACK, 2, STACK
        FUNCALL run_ipcp_act, check_cts
        LOCFRAME CSTACK, 7, STACK
        LOCFRAME RSTACK, 2, STACK
        FUNCALL run_ipcp_act, pppfcs16
        LOCFRAME CSTACK, 7, STACK
        LOCFRAME RSTACK, 2, STACK
        FUNCALL run_ipcp_act, check_cts
        LOCFRAME CSTACK, 7, STACK
        LOCFRAME RSTACK, 2, STACK
        FUNCALL run_ipcp_act, pppfcs16
        LOCFRAME CSTACK, 7, STACK
        LOCFRAME RSTACK, 2, STACK
        FUNCALL run_ipcp_act, check_cts
        LOCFRAME CSTACK, 7, STACK
        LOCFRAME RSTACK, 2, STACK
        FUNCALL run_ipcp_act, pppfcs16
        LOCFRAME CSTACK, 7, STACK
        LOCFRAME RSTACK, 2, STACK
        FUNCALL run_ipcp_act, check_cts
        LOCFRAME CSTACK, 7, STACK
        LOCFRAME RSTACK, 2, STACK
        FUNCALL run_ipcp_act, pppfcs16
        LOCFRAME CSTACK, 7, STACK
        LOCFRAME RSTACK, 2, STACK
        FUNCALL run_ipcp_act, check_cts
        LOCFRAME CSTACK, 7, STACK
        LOCFRAME RSTACK, 2, STACK
        FUNCALL run_ipcp_act, pppfcs16
        LOCFRAME CSTACK, 7, STACK
        LOCFRAME RSTACK, 2, STACK
        FUNCALL run_ipcp_act, check_cts
        LOCFRAME CSTACK, 7, STACK
        LOCFRAME RSTACK, 2, STACK
        FUNCALL run_ipcp_act, pppfcs16
        LOCFRAME CSTACK, 7, STACK
        LOCFRAME RSTACK, 2, STACK
        FUNCALL run_ipcp_act, check_cts
        LOCFRAME CSTACK, 7, STACK
        LOCFRAME RSTACK, 2, STACK
        CALL	?PROLOGUE5_L09
        CFI R4 Frame(CFA_Y, -1)
        CFI R27 Frame(CFA_Y, -2)
        CFI R26 Frame(CFA_Y, -3)
        CFI R25 Frame(CFA_Y, -4)
        CFI R24 Frame(CFA_Y, -5)
        CFI CFA_Y Y+5
        REQUIRE	?Register_R4_is_cg_reg
        SBIW	R29:R28, 2
        CFI CFA_Y Y+7
// 1613        unsigned char i;
// 1614        
// 1615        union
// 1616      {
// 1617       unsigned char bytes[2]; 
// 1618       unsigned int word;
// 1619      }temp;
// 1620       
// 1621        
// 1622        switch (IPCP_act_buf[uk_out_act_IPCP])
        LDI	R24, LOW(ip_pri_dns)
        LDI	R25, (ip_pri_dns) >> 8
        MOVW	R31:R30, R25:R24
        LDD	R4, Z+51
        LDI	R26, LOW(buf_tx_232)
        LDI	R27, (buf_tx_232) >> 8
        LDD	R16, Z+39
        LDI	R17, 0
        MOVW	R31:R30, R17:R16
        SUBI	R30, LOW((-(cnt_pap_tm_out) & 0xFFFF))
        SBCI	R31, (-(cnt_pap_tm_out) & 0xFFFF) >> 8
        LDD	R16, Z+4
        LDI	R30, LOW(`?<Jumptable for run_ipcp_act>_0`)
        LDI	R31, (`?<Jumptable for run_ipcp_act>_0`) >> 16
        OUT	0x3B, R31
        LDI	R31, HIGH(`?<Jumptable for run_ipcp_act>_0`)
        JMP	?CV_SWITCH_L06
// 1623           {
// 1624            case TLU:     
// 1625 
// 1626                 event_modem=EVM_PPP_OK;
??run_ipcp_act_0:
        LDI	R16, 4
        STS	event_modem, R16
// 1627  
// 1628                 layer_PPP=LAYER_IP;   
        STS	layer_PPP, R16
// 1629                 fl_ip.act_ip_end=1;   
        MOVW	R31:R30, R25:R24
        LDD	R16, Z+12
        ORI	R16, 0x01
        STD	Z+12, R16
// 1630                 fl_ipcp.act_ipcp_end=1; 
        LDD	R16, Z+11
        ORI	R16, 0x01
        STD	Z+11, R16
// 1631              
// 1632                if(Control.vol_link!=0)fl_ip.ip_tm_cntr_en=1;
        LDI	R26, LOW(Control)
        LDI	R27, (Control) >> 8
        MOVW	R31:R30, R27:R26
        LDD	R16, Z+8
        LDD	R17, Z+9
        OR	R16, R17
        BREQ	??run_ipcp_act_1
        MOVW	R31:R30, R25:R24
        LDD	R16, Z+12
        ORI	R16, 0x02
        STD	Z+12, R16
// 1633                if(Control.vol_nat!=0)fl_ip.ip_tm_nat_en=1;
??run_ipcp_act_1:
        MOVW	R31:R30, R27:R26
        LDD	R16, Z+10
        LDD	R17, Z+11
        OR	R16, R17
        BREQ	??run_ipcp_act_2
        MOVW	R31:R30, R25:R24
        LDD	R16, Z+12
        ORI	R16, 0x04
        STD	Z+12, R16
// 1634                Control.cnt_try=0;
??run_ipcp_act_2:
        LDI	R16, 0
        MOVW	R31:R30, R27:R26
        STD	Z+14, R16
// 1635                Control.cnt_link=BEG_CNTR_LINK;
        LDI	R16, 10
        LDI	R17, 0
        STD	Z+4, R16
        STD	Z+5, R17
// 1636                clr_cntr_nat();
        CALL	clr_cntr_nat
// 1637                
// 1638                Control.cnt_nat=BEG_CNTR_LINK-1; // ďóńňîé ďŕęĺň!!!!
        LDI	R16, 9
        LDI	R17, 0
        MOVW	R31:R30, R27:R26
        STD	Z+6, R16
        STD	Z+7, R17
        RJMP	??run_ipcp_act_3
// 1639                
// 1640               break;
// 1641            case TLD:  
// 1642                 fl_ipcp.act_ipcp_end=0;
// 1643                 layer_PPP=LAYER_LCP;  
??run_ipcp_act_4:
        LDI	R16, 1
        STS	layer_PPP, R16
// 1644                 fl_ipcp.act_ipcp_end=1; 
        MOVW	R31:R30, R25:R24
        LDD	R16, Z+11
        ORI	R16, 0x01
??run_ipcp_act_5:
        STD	Z+11, R16
        RJMP	??run_ipcp_act_3
// 1645                 break;
// 1646            case TLS:   
// 1647                 fl_ipcp.act_ipcp_end=0;
??run_ipcp_act_6:
        MOVW	R31:R30, R25:R24
        LDD	R16, Z+11
        ANDI	R16, 0xFE
        STD	Z+11, R16
// 1648                 event_modem=EVM_PPP_ERR;
        LDI	R16, 5
        STS	event_modem, R16
        RJMP	??run_ipcp_act_3
// 1649                 //write_log_info(ST_ERROR,ERR8);
// 1650                 //lock_it();
// 1651                 break;
// 1652            case TLF:  
// 1653                 fl_ipcp.act_ipcp_end=0;
// 1654                 event_modem=EVM_PPP_ERR;
// 1655                 //write_log_info(ST_ERROR,ERR9);
// 1656                 //lock_it();
// 1657                 break;
// 1658            case IRC:                   
// 1659                 fl_ipcp.act_ipcp_end=0;
// 1660                 cnt_ipcp_tm_out=VOL_IPCP_TM_OUT; 
??run_ipcp_act_7:
        LDI	R16, 184
        LDI	R17, 11
        LDI	R30, LOW(cnt_ipcp_tm_out)
        LDI	R31, (cnt_ipcp_tm_out) >> 8
        ST	Z, R16
        STD	Z+1, R17
// 1661                 cnt_rst_ipcp=vol_cnt_rst_ipcp;
        MOVW	R31:R30, R25:R24
        LDD	R16, Z+43
        STD	Z+42, R16
// 1662                 fl_ipcp.ipcp_tm_out_en=1; 
// 1663                 fl_ipcp.act_ipcp_end=1; 
        LDD	R16, Z+11
        ORI	R16, 0x03
        RJMP	??run_ipcp_act_5
// 1664                      
// 1665                 break;
// 1666            case ZRC:  
// 1667                 fl_ipcp.act_ipcp_end=0;
// 1668                 cnt_ipcp_tm_out=VOL_IPCP_TM_OUT; 
??run_ipcp_act_8:
        LDI	R16, 184
        LDI	R17, 11
        LDI	R30, LOW(cnt_ipcp_tm_out)
        LDI	R31, (cnt_ipcp_tm_out) >> 8
        ST	Z, R16
        STD	Z+1, R17
// 1669                 cnt_rst_ipcp=0;
        LDI	R16, 0
        MOVW	R31:R30, R25:R24
        STD	Z+42, R16
// 1670                 fl_ipcp.ipcp_tm_out_en=1; 
// 1671                 fl_ipcp.act_ipcp_end=1;  
        LDD	R16, Z+11
        ORI	R16, 0x03
        STD	Z+11, R16
        RJMP	??run_ipcp_act_3
// 1672                 break;
// 1673            case SCR:    
// 1674 
// 1675                  fl_ipcp.act_ipcp_end=0;
??run_ipcp_act_9:
        MOVW	R31:R30, R25:R24
        LDD	R16, Z+11
        ANDI	R16, 0xFE
        STD	Z+11, R16
// 1676                  buf_tx_232[0]=0x7e;               
        LDI	R16, 126
        ST	X, R16
// 1677                  buf_tx_232[1]=0x80;
        LDI	R16, 128
        MOVW	R31:R30, R27:R26
        STD	Z+1, R16
// 1678                  buf_tx_232[2]=0x21;
        LDI	R16, 33
        STD	Z+2, R16
// 1679                  
// 1680                  buf_tx_232[3]=CONF_REQ; 
        LDI	R16, 1
        STD	Z+3, R16
// 1681                  buf_tx_232[4]=i_scr_ipcp;   
        MOVW	R31:R30, R25:R24
        LDD	R16, Z+50
        MOVW	R31:R30, R27:R26
        STD	Z+4, R16
// 1682  
// 1683                  
// 1684                  buf_tx_232[5]=0;
        LDI	R16, 0
        STD	Z+5, R16
// 1685                  buf_tx_232[6]=10;//áĺç DNS
        LDI	R16, 10
        STD	Z+6, R16
// 1686                   
// 1687                //  buf_tx_232[6]=22;//c DNS 
// 1688                               
// 1689                  buf_tx_232[7]=3;      //çŕďđîń IP ęîíňđîëëĺđŕ
        LDI	R16, 3
        STD	Z+7, R16
// 1690                  buf_tx_232[8]=6;
        LDI	R16, 6
        STD	Z+8, R16
// 1691                  buf_tx_232[9]=ip_self[0]; 
        LDI	R16, LOW(ip_self)
        LDI	R17, (ip_self) >> 8
        MOVW	R31:R30, R17:R16
        LD	R18, Z
        MOVW	R31:R30, R27:R26
        STD	Z+9, R18
// 1692                  buf_tx_232[10]=ip_self[1]; 
        MOVW	R31:R30, R17:R16
        LDD	R18, Z+1
        MOVW	R31:R30, R27:R26
        STD	Z+10, R18
// 1693                  buf_tx_232[11]=ip_self[2];
        MOVW	R31:R30, R17:R16
        LDD	R18, Z+2
        MOVW	R31:R30, R27:R26
        STD	Z+11, R18
// 1694                  buf_tx_232[12]=ip_self[3];
        MOVW	R31:R30, R17:R16
        LDD	R16, Z+3
        MOVW	R31:R30, R27:R26
        STD	Z+12, R16
// 1695                  
// 1696                  
// 1697                //  buf_tx_232[13]=0x81;      //çŕďđîń IP_PRI_DNS
// 1698                //  buf_tx_232[14]=6;
// 1699                //  buf_tx_232[15]=ip_pri_dns[0]; 
// 1700                //  buf_tx_232[16]=ip_pri_dns[1]; 
// 1701                 // buf_tx_232[17]=ip_pri_dns[2];
// 1702                 // buf_tx_232[18]=ip_pri_dns[3];
// 1703                  
// 1704                 // buf_tx_232[19]=0x83;      //çŕďđîń IP_SEC_DNS
// 1705                 // buf_tx_232[20]=6;
// 1706                 // buf_tx_232[21]=ip_sec_dns[0]; 
// 1707                 // buf_tx_232[22]=ip_sec_dns[1]; 
// 1708                 // buf_tx_232[23]=ip_sec_dns[2];
// 1709                 // buf_tx_232[24]=ip_sec_dns[3];
// 1710                                   
// 1711                  
// 1712                  temp.word=pppfcs16(PPPINITFCS16,&buf_tx_232[1],buf_tx_232[6]+2) ^ 0xffff;                  
        LDI	R20, 12
        LDI	R21, 0
        MOVW	R19:R18, R27:R26
        SUBI	R18, 255
        SBCI	R19, 255
        LDI	R16, 255
        LDI	R17, 255
        RCALL	pppfcs16
        LDI	R18, 255
        LDI	R19, 255
        EOR	R18, R16
        EOR	R19, R17
        ST	Y, R18
        STD	Y+1, R19
// 1713                  buf_tx_232[13]=temp.bytes[0];//áĺç DNS
        LD	R16, Y
        MOVW	R31:R30, R27:R26
        STD	Z+13, R16
// 1714                  buf_tx_232[14]=temp.bytes[1];//áĺç DNS
        LDD	R16, Y+1
        STD	Z+14, R16
// 1715                  
// 1716                  buf_tx_232[15]=0x7e; //áĺç DNS
        LDI	R16, 126
        STD	Z+15, R16
// 1717                //  buf_tx_232[25]=temp.bytes[0];//c DNS 
// 1718                //  buf_tx_232[26]=temp.bytes[1]; //c DNS              
// 1719                //  buf_tx_232[27]=0x7e; //c DNS 
// 1720                 
// 1721                  count_tx_ppp=0;
        LDI	R16, 0
        LDI	R17, 0
        LDI	R30, LOW(count_tx_ppp)
        LDI	R31, (count_tx_ppp) >> 8
        ST	Z, R16
        STD	Z+1, R16
// 1722                  vol_tx_ppp=buf_tx_232[6]+6;               
        LDI	R16, 16
        LDI	R30, LOW(vol_tx_ppp)
        LDI	R31, (vol_tx_ppp) >> 8
        ST	Z, R16
        STD	Z+1, R17
// 1723                  UCSR0A=UCSR0A | TXC;                            
        LDS	R16, 192
        ORI	R16, 0x40
        STS	192, R16
// 1724                  UCSR0B=UCSR0B | TXEN;
        LDS	R16, 193
        ORI	R16, 0x08
        STS	193, R16
// 1725                  UCSR0B=UCSR0B | TXCIE;
        LDS	R16, 193
        ORI	R16, 0x40
        STS	193, R16
// 1726                  if(check_cts()==1) return;   
        CALL	check_cts
        CPI	R16, 1
        BRNE	$+2+2
        RJMP	??run_ipcp_act_3
// 1727                  S2_RD;
        SBI	0x08, 0x00
        CBI	0x08, 0x01
// 1728                  UDR0=buf_tx_232[0]; 
        LD	R16, X
        STS	198, R16
// 1729                  if(Regim==RG_DEBAG) UDR3=buf_tx_232[0];
        LDS	R16, Regim
        CPI	R16, 1
        BREQ	$+2+2
        RJMP	??run_ipcp_act_3
??run_ipcp_act_10:
        LD	R16, X
        STS	310, R16
        RJMP	??run_ipcp_act_3
// 1730                
// 1731                  
// 1732                
// 1733                 break; 
// 1734                  
// 1735            case SCA: 
// 1736                  fl_ipcp.act_ipcp_end=0;
??run_ipcp_act_11:
        MOVW	R31:R30, R25:R24
        LDD	R16, Z+11
        ANDI	R16, 0xFE
        STD	Z+11, R16
// 1737                  buf_tx_232[0]=0x7e; 
        LDI	R16, 126
        ST	X, R16
// 1738                  buf_tx_232[1]=0x80;
        LDI	R16, 128
        MOVW	R31:R30, R27:R26
        STD	Z+1, R16
// 1739                  buf_tx_232[2]=0x21;
        LDI	R16, 33
        STD	Z+2, R16
// 1740                                  
// 1741                  buf_tx_232[3]=CONF_ACK;
        LDI	R16, 2
        STD	Z+3, R16
// 1742                  buf_tx_232[4]=i_scan_ipcp;
        STD	Z+4, R4
// 1743                  
// 1744                  temp.word=ln_ack_ipcp+4;
        ADIW	R25:R24, 61
        MOVW	R31:R30, R25:R24
        LD	R17, Z
        MOV	R24, R17
        LDI	R25, 0
        MOVW	R19:R18, R25:R24
        SUBI	R18, 252
        SBCI	R19, 255
        ST	Y, R18
        STD	Y+1, R19
// 1745                  buf_tx_232[5]=temp.bytes[1]; 
        LDD	R16, Y+1
        MOVW	R31:R30, R27:R26
        STD	Z+5, R16
// 1746                  buf_tx_232[6]=temp.bytes[0];
        LD	R16, Y
        STD	Z+6, R16
// 1747                 
// 1748                  temp.word=temp.word+2;         
        LD	R18, Y
        LDD	R19, Y+1
        SUBI	R18, 254
        SBCI	R19, 255
        ST	Y, R18
        STD	Y+1, R19
// 1749                  vol_tx_ppp=temp.word+4;  
        LD	R18, Y
        LDD	R19, Y+1
        SUBI	R18, 252
        SBCI	R19, 255
        LDI	R30, LOW(vol_tx_ppp)
        LDI	R31, (vol_tx_ppp) >> 8
        ST	Z, R18
        STD	Z+1, R19
// 1750                    
// 1751                  for(i=0;i<ln_ack_ipcp;i++)buf_tx_232[7+i]=buf_ack_opt_ipcp[i];
        LDI	R16, 0
        RJMP	??run_ipcp_act_12
??run_ipcp_act_13:
        MOV	R18, R16
        LDI	R19, 0
        MOVW	R31:R30, R19:R18
        SUBI	R30, LOW((-(cnt_ipcp_tm_out) & 0xFFFF))
        SBCI	R31, (-(cnt_ipcp_tm_out) & 0xFFFF) >> 8
        LDD	R20, Z+33
        MOVW	R31:R30, R27:R26
        ADD	R30, R18
        ADC	R31, R25
        STD	Z+7, R20
        INC	R16
??run_ipcp_act_12:
        CP	R16, R17
        BRCS	??run_ipcp_act_13
// 1752                  
// 1753                  temp.word=pppfcs16(PPPINITFCS16,&buf_tx_232[1],temp.word) ^ 0xffff;                  
??run_ipcp_act_14:
        LD	R20, Y
        LDD	R21, Y+1
        MOVW	R19:R18, R27:R26
        SUBI	R18, 255
        SBCI	R19, 255
        LDI	R16, 255
        LDI	R17, 255
        RCALL	pppfcs16
        LDI	R18, 255
        LDI	R19, 255
        EOR	R18, R16
        EOR	R19, R17
        ST	Y, R18
        STD	Y+1, R19
// 1754                  buf_tx_232[7+ln_ack_ipcp]=temp.bytes[0];
        MOVW	R31:R30, R27:R26
        ADD	R30, R24
        ADC	R31, R25
        LD	R18, Y
        STD	Z+7, R18
// 1755                  buf_tx_232[8+ln_ack_ipcp]=temp.bytes[1];
        LDD	R18, Y+1
        STD	Z+8, R18
// 1756                  buf_tx_232[9+ln_ack_ipcp]=0x7e;
        LDI	R16, 126
        STD	Z+9, R16
// 1757                  
// 1758                  count_tx_ppp=0;                             
        LDI	R30, LOW(count_tx_ppp)
        LDI	R31, (count_tx_ppp) >> 8
        ST	Z, R25
        STD	Z+1, R25
// 1759                      UCSR0A=UCSR0A | TXC;                            
??run_ipcp_act_15:
        LDS	R16, 192
        ORI	R16, 0x40
        STS	192, R16
// 1760                      UCSR0B=UCSR0B | TXEN;
        LDS	R16, 193
        ORI	R16, 0x08
        STS	193, R16
// 1761                      UCSR0B=UCSR0B | TXCIE;
        LDS	R16, 193
        ORI	R16, 0x40
        STS	193, R16
// 1762                      if(check_cts()==1) return;
        CALL	check_cts
        CPI	R16, 1
        BRNE	$+2+2
        RJMP	??run_ipcp_act_3
// 1763                  S2_RD;
        SBI	0x08, 0x00
        CBI	0x08, 0x01
// 1764                  UDR0=buf_tx_232[0]; 
        LD	R16, X
        STS	198, R16
// 1765                  if(Regim==RG_DEBAG) UDR3=buf_tx_232[0];
        LDS	R16, Regim
        CPI	R16, 1
        BREQ	$+2+2
        RJMP	??run_ipcp_act_3
        RJMP	??run_ipcp_act_10
// 1766                
// 1767                 
// 1768                   
// 1769                 break;
// 1770            case SCN:  
// 1771                 
// 1772                 
// 1773 
// 1774                  fl_ipcp.act_ipcp_end=0;
??run_ipcp_act_16:
        MOVW	R31:R30, R25:R24
        LDD	R16, Z+11
        ANDI	R16, 0xFE
        STD	Z+11, R16
// 1775                  buf_tx_232[0]=0x7e; 
        LDI	R16, 126
        ST	X, R16
// 1776                  buf_tx_232[1]=0x80;
        LDI	R16, 128
        MOVW	R31:R30, R27:R26
        STD	Z+1, R16
// 1777                  buf_tx_232[2]=0x21;
        LDI	R16, 33
        STD	Z+2, R16
// 1778 
// 1779                  
// 1780                  if (fl_ipcp2.nac_rej==0) 
        MOVW	R31:R30, R25:R24
        LDD	R16, Z+15
        SBRC	R16, 0
        RJMP	??run_ipcp_act_17
// 1781                      {
// 1782                      buf_tx_232[3]=CONF_NAK;                       
        LDI	R16, 3
        MOVW	R31:R30, R27:R26
        STD	Z+3, R16
// 1783                      
// 1784                      buf_tx_232[4]=i_scan_ipcp;
        STD	Z+4, R4
// 1785                  
// 1786                      temp.word=ln_nak_ipcp+4;
        ADIW	R25:R24, 62
        MOVW	R31:R30, R25:R24
        LD	R17, Z
        MOV	R24, R17
        LDI	R25, 0
        MOVW	R19:R18, R25:R24
        SUBI	R18, 252
        SBCI	R19, 255
        ST	Y, R18
        STD	Y+1, R19
// 1787                      buf_tx_232[5]=temp.bytes[1]; 
        LDD	R16, Y+1
        MOVW	R31:R30, R27:R26
        STD	Z+5, R16
// 1788                      buf_tx_232[6]=temp.bytes[0];
        LD	R16, Y
        STD	Z+6, R16
// 1789                     
// 1790                     temp.word=temp.word+2;         
        LD	R18, Y
        LDD	R19, Y+1
        SUBI	R18, 254
        SBCI	R19, 255
        ST	Y, R18
        STD	Y+1, R19
// 1791                     vol_tx_ppp=temp.word+4;
        LD	R18, Y
        LDD	R19, Y+1
        SUBI	R18, 252
        SBCI	R19, 255
        LDI	R30, LOW(vol_tx_ppp)
        LDI	R31, (vol_tx_ppp) >> 8
        ST	Z, R18
        STD	Z+1, R19
// 1792                      
// 1793 
// 1794                       
// 1795                      for(i=0;i<ln_nak_ipcp;i++)buf_tx_232[7+i]=buf_nak_opt_ipcp[i];
        LDI	R16, 0
        RJMP	??run_ipcp_act_18
??run_ipcp_act_19:
        MOV	R18, R16
        LDI	R19, 0
        MOVW	R31:R30, R19:R18
        SUBI	R30, LOW((-(cnt_pap_tm_out) & 0xFFFF))
        SBCI	R31, (-(cnt_pap_tm_out) & 0xFFFF) >> 8
        LDD	R20, Z+16
        MOVW	R31:R30, R27:R26
        ADD	R30, R18
        ADC	R31, R25
        STD	Z+7, R20
        INC	R16
??run_ipcp_act_18:
        CP	R16, R17
        BRCS	??run_ipcp_act_19
// 1796                      temp.word=pppfcs16(PPPINITFCS16,&buf_tx_232[1],temp.word) ^ 0xffff;                  
        RJMP	??run_ipcp_act_14
// 1797                      buf_tx_232[7+ln_nak_ipcp]=temp.bytes[0];
// 1798                      buf_tx_232[8+ln_nak_ipcp]=temp.bytes[1];
// 1799                      buf_tx_232[9+ln_nak_ipcp]=0x7e;
// 1800                      
// 1801                      count_tx_ppp=0;                             
// 1802                      UCSR0A=UCSR0A | TXC;                            
// 1803                      UCSR0B=UCSR0B | TXEN;
// 1804                      UCSR0B=UCSR0B | TXCIE;
// 1805                      if(check_cts()==1) return;
// 1806                      S2_RD;
// 1807                      UDR0=buf_tx_232[0];
// 1808                      if(Regim==RG_DEBAG) UDR3=buf_tx_232[0];
// 1809                      
// 1810                      }  
// 1811                      else
// 1812                      { 
// 1813                      fl_ipcp2.nac_rej=0;
??run_ipcp_act_17:
        LDD	R16, Z+15
        ANDI	R16, 0xFE
        STD	Z+15, R16
// 1814                      buf_tx_232[3]=CONF_REJ;  
        LDI	R16, 4
        MOVW	R31:R30, R27:R26
        STD	Z+3, R16
// 1815                      buf_tx_232[4]=i_scan_ipcp;
        STD	Z+4, R4
// 1816                  
// 1817                      temp.word=ln_rej_ipcp+4;
        ADIW	R25:R24, 60
        MOVW	R31:R30, R25:R24
        LD	R17, Z
        MOV	R24, R17
        LDI	R25, 0
        MOVW	R19:R18, R25:R24
        SUBI	R18, 252
        SBCI	R19, 255
        ST	Y, R18
        STD	Y+1, R19
// 1818                      buf_tx_232[5]=temp.bytes[1]; 
        LDD	R16, Y+1
        MOVW	R31:R30, R27:R26
        STD	Z+5, R16
// 1819                      buf_tx_232[6]=temp.bytes[0];
        LD	R16, Y
        STD	Z+6, R16
// 1820                                  
// 1821                     temp.word=temp.word+2;         
        LD	R18, Y
        LDD	R19, Y+1
        SUBI	R18, 254
        SBCI	R19, 255
        ST	Y, R18
        STD	Y+1, R19
// 1822                     vol_tx_ppp=temp.word+4; 
        LD	R18, Y
        LDD	R19, Y+1
        SUBI	R18, 252
        SBCI	R19, 255
        LDI	R30, LOW(vol_tx_ppp)
        LDI	R31, (vol_tx_ppp) >> 8
        ST	Z, R18
        STD	Z+1, R19
// 1823                      
// 1824                      for(i=0;i<ln_rej_ipcp;i++)buf_tx_232[7+i]=buf_rej_opt_ipcp[i];
        LDI	R16, 0
        RJMP	??run_ipcp_act_20
??run_ipcp_act_21:
        MOV	R18, R16
        LDI	R19, 0
        MOVW	R31:R30, R19:R18
        SUBI	R30, LOW((-(buf_rej_opt_ipcp) & 0xFFFF))
        SBCI	R31, (-(buf_rej_opt_ipcp) & 0xFFFF) >> 8
        LD	R20, Z
        MOVW	R31:R30, R27:R26
        ADD	R30, R18
        ADC	R31, R25
        STD	Z+7, R20
        INC	R16
??run_ipcp_act_20:
        CP	R16, R17
        BRCS	??run_ipcp_act_21
// 1825                      temp.word=pppfcs16(PPPINITFCS16,&buf_tx_232[1],temp.word) ^ 0xffff;                  
        LD	R20, Y
        LDD	R21, Y+1
        MOVW	R19:R18, R27:R26
        SUBI	R18, 255
        SBCI	R19, 255
        LDI	R16, 255
        LDI	R17, 255
        CALL	pppfcs16
        LDI	R18, 255
        LDI	R19, 255
        EOR	R18, R16
        EOR	R19, R17
        ST	Y, R18
        STD	Y+1, R19
// 1826                      buf_tx_232[7+ln_rej_ipcp]=temp.bytes[0];
        MOVW	R31:R30, R27:R26
        ADD	R30, R24
        ADC	R31, R25
        LD	R18, Y
        STD	Z+7, R18
// 1827                      buf_tx_232[8+ln_rej_ipcp]=temp.bytes[1];                     
        LDD	R18, Y+1
        STD	Z+8, R18
// 1828                      buf_tx_232[9+ln_rej_ipcp]=0x7e;                     
        LDI	R16, 126
        STD	Z+9, R16
// 1829                     
// 1830                      count_tx_ppp=0;                             
        LDI	R30, LOW(count_tx_ppp)
        LDI	R31, (count_tx_ppp) >> 8
        ST	Z, R25
        STD	Z+1, R25
// 1831                      UCSR0A=UCSR0A | TXC;                            
??run_ipcp_act_22:
        LDS	R16, 192
        ORI	R16, 0x40
        STS	192, R16
// 1832                      UCSR0B=UCSR0B | TXEN;
        LDS	R16, 193
        ORI	R16, 0x08
        STS	193, R16
// 1833                      UCSR0B=UCSR0B | TXCIE;
        LDS	R16, 193
        ORI	R16, 0x40
        STS	193, R16
// 1834                      if(check_cts()==1) return;                 
        CALL	check_cts
        CPI	R16, 1
        BRNE	$+2+2
        RJMP	??run_ipcp_act_3
// 1835                      S2_RD;
        SBI	0x08, 0x00
        CBI	0x08, 0x01
// 1836                      UDR0=buf_tx_232[0]; 
        LD	R16, X
        STS	198, R16
// 1837                      if(Regim==RG_DEBAG) UDR3=buf_tx_232[0];
        LDS	R16, Regim
        CPI	R16, 1
        BREQ	$+2+2
        RJMP	??run_ipcp_act_3
        RJMP	??run_ipcp_act_10
// 1838                      }   
// 1839                      
// 1840 
// 1841                      
// 1842                 break; 
// 1843            case STR: 
// 1844                  fl_ipcp.act_ipcp_end=0;
??run_ipcp_act_23:
        MOVW	R31:R30, R25:R24
        LDD	R16, Z+11
        ANDI	R16, 0xFE
        STD	Z+11, R16
// 1845                  buf_tx_232[0]=0x7e; 
        LDI	R16, 126
        ST	X, R16
// 1846                 
// 1847                  buf_tx_232[1]=0x80;
        LDI	R16, 128
        MOVW	R31:R30, R27:R26
        STD	Z+1, R16
// 1848                  buf_tx_232[2]=0x21;
        LDI	R16, 33
        STD	Z+2, R16
// 1849                  
// 1850                  buf_tx_232[3]=TERM_REQ;  
        LDI	R16, 5
        STD	Z+3, R16
// 1851                  buf_tx_232[4]=i_str_ipcp; 
        MOVW	R31:R30, R25:R24
        LDD	R16, Z+52
        MOVW	R31:R30, R27:R26
        STD	Z+4, R16
// 1852                  
// 1853                  buf_tx_232[5]=0; 
        LDI	R16, 0
        STD	Z+5, R16
// 1854                  buf_tx_232[6]=0x4;
        LDI	R16, 4
        STD	Z+6, R16
// 1855                  
// 1856                  vol_tx_ppp=buf_tx_232[8]+6;
        LDD	R24, Z+8
        LDI	R25, 0
        ADIW	R25:R24, 6
        LDI	R30, LOW(vol_tx_ppp)
        LDI	R31, (vol_tx_ppp) >> 8
        ST	Z, R24
        STD	Z+1, R25
// 1857                  
// 1858                  temp.word=pppfcs16(PPPINITFCS16,&buf_tx_232[1],buf_tx_232[6]+2) ^ 0xffff;                  
        LDI	R20, 6
        LDI	R21, 0
        MOVW	R19:R18, R27:R26
        SUBI	R18, 255
        SBCI	R19, 255
        LDI	R16, 255
        LDI	R17, 255
        CALL	pppfcs16
        LDI	R18, 255
        LDI	R19, 255
        EOR	R18, R16
        EOR	R19, R17
        ST	Y, R18
        STD	Y+1, R19
// 1859                  buf_tx_232[7]=temp.bytes[0];
        LD	R16, Y
        MOVW	R31:R30, R27:R26
        STD	Z+7, R16
// 1860                  buf_tx_232[8]=temp.bytes[1];
        LDD	R16, Y+1
        STD	Z+8, R16
// 1861                  
// 1862                  buf_tx_232[9]=0x7e;  
        LDI	R16, 126
        STD	Z+9, R16
// 1863                  
// 1864                  
// 1865                  count_tx_ppp=0;                             
        LDI	R16, 0
        LDI	R30, LOW(count_tx_ppp)
        LDI	R31, (count_tx_ppp) >> 8
        ST	Z, R16
        STD	Z+1, R16
// 1866                      UCSR0A=UCSR0A | TXC;                            
        RJMP	??run_ipcp_act_15
// 1867                      UCSR0B=UCSR0B | TXEN;
// 1868                      UCSR0B=UCSR0B | TXCIE;
// 1869                      if(check_cts()==1) return;
// 1870                  S2_RD;
// 1871                  UDR0=buf_tx_232[0];
// 1872                  if(Regim==RG_DEBAG) UDR3=buf_tx_232[0];
// 1873                  
// 1874                   
// 1875                 break; 
// 1876            case STA:    
// 1877                  fl_ipcp.act_ipcp_end=0;
??run_ipcp_act_24:
        MOVW	R31:R30, R25:R24
        LDD	R16, Z+11
        ANDI	R16, 0xFE
        STD	Z+11, R16
// 1878                  buf_tx_232[0]=0x7e; 
        LDI	R16, 126
        ST	X, R16
// 1879                  buf_tx_232[1]=0x80;
        LDI	R16, 128
        MOVW	R31:R30, R27:R26
        STD	Z+1, R16
// 1880                  buf_tx_232[2]=0x21;
        LDI	R16, 33
        STD	Z+2, R16
// 1881           
// 1882                  buf_tx_232[3]=TERM_ACK;  
        LDI	R16, 6
        STD	Z+3, R16
// 1883                  
// 1884                   buf_tx_232[4]=i_sta_ipcp; 
        MOVW	R31:R30, R25:R24
        LDD	R16, Z+53
        MOVW	R31:R30, R27:R26
        STD	Z+4, R16
// 1885                  
// 1886                  buf_tx_232[5]=0; 
        LDI	R16, 0
        STD	Z+5, R16
// 1887                  buf_tx_232[6]=0x4;
        LDI	R16, 4
        STD	Z+6, R16
// 1888                  
// 1889                  vol_tx_ppp=buf_tx_232[6]+6;
        LDI	R16, 10
        LDI	R17, 0
        LDI	R30, LOW(vol_tx_ppp)
        LDI	R31, (vol_tx_ppp) >> 8
        ST	Z, R16
        STD	Z+1, R17
// 1890                  
// 1891                  temp.word=pppfcs16(PPPINITFCS16,&buf_tx_232[1],buf_tx_232[6]+2) ^ 0xffff;                  
        LDI	R20, 6
        LDI	R21, 0
        MOVW	R19:R18, R27:R26
        SUBI	R18, 255
        SBCI	R19, 255
        LDI	R16, 255
        LDI	R17, 255
        CALL	pppfcs16
        LDI	R18, 255
        LDI	R19, 255
        EOR	R18, R16
        EOR	R19, R17
        ST	Y, R18
        STD	Y+1, R19
// 1892                  buf_tx_232[7]=temp.bytes[0];
        LD	R16, Y
        MOVW	R31:R30, R27:R26
        STD	Z+7, R16
// 1893                  buf_tx_232[8]=temp.bytes[1];
        LDD	R16, Y+1
        STD	Z+8, R16
// 1894                  
// 1895                  buf_tx_232[9]=0x7e;  
        LDI	R16, 126
        STD	Z+9, R16
// 1896                 
// 1897                  count_tx_ppp=0;                             
        LDI	R16, 0
        LDI	R30, LOW(count_tx_ppp)
        LDI	R31, (count_tx_ppp) >> 8
        ST	Z, R16
        STD	Z+1, R16
// 1898                      UCSR0A=UCSR0A | TXC;                            
        RJMP	??run_ipcp_act_22
// 1899                      UCSR0B=UCSR0B | TXEN;
// 1900                      UCSR0B=UCSR0B | TXCIE;
// 1901                      if(check_cts()==1) return; 
// 1902                  S2_RD;
// 1903                  UDR0=buf_tx_232[0]; 
// 1904                  if(Regim==RG_DEBAG) UDR3=buf_tx_232[0];
// 1905                 
// 1906                 break;           
// 1907                                    
// 1908            case SCJ:   
// 1909                  fl_ipcp.act_ipcp_end=0;
??run_ipcp_act_25:
        MOVW	R31:R30, R25:R24
        LDD	R16, Z+11
        ANDI	R16, 0xFE
        STD	Z+11, R16
// 1910                  buf_tx_232[0]=0x7e; 
        LDI	R16, 126
        ST	X, R16
// 1911                  buf_tx_232[1]=0x80;
        LDI	R16, 128
        MOVW	R31:R30, R27:R26
        STD	Z+1, R16
// 1912                  buf_tx_232[2]=0x21;
        LDI	R16, 33
        STD	Z+2, R16
// 1913                  
// 1914                  buf_tx_232[3]=CODE_REJ; 
        LDI	R16, 7
        STD	Z+3, R16
// 1915                  
// 1916                  buf_tx_232[4]=i_scj_lcp;
        MOVW	R31:R30, R25:R24
        LDD	R16, Z+47
        MOVW	R31:R30, R27:R26
        STD	Z+4, R16
// 1917                  i_scj_lcp++;
        MOVW	R31:R30, R25:R24
        LDD	R16, Z+47
        INC	R16
        STD	Z+47, R16
// 1918                  
// 1919                  temp.word=ln_rejc_ipcp+4;
        LDD	R17, Z+59
        MOV	R24, R17
        LDI	R25, 0
        MOVW	R19:R18, R25:R24
        SUBI	R18, 252
        SBCI	R19, 255
        ST	Y, R18
        STD	Y+1, R19
// 1920                  buf_tx_232[5]=temp.bytes[1]; 
        LDD	R16, Y+1
        MOVW	R31:R30, R27:R26
        STD	Z+5, R16
// 1921                  buf_tx_232[6]=temp.bytes[0];
        LD	R16, Y
        STD	Z+6, R16
// 1922                
// 1923                  temp.word=temp.word+2;         
        LD	R18, Y
        LDD	R19, Y+1
        SUBI	R18, 254
        SBCI	R19, 255
        ST	Y, R18
        STD	Y+1, R19
// 1924                  vol_tx_ppp=temp.word+4;  
        LD	R18, Y
        LDD	R19, Y+1
        SUBI	R18, 252
        SBCI	R19, 255
        LDI	R30, LOW(vol_tx_ppp)
        LDI	R31, (vol_tx_ppp) >> 8
        ST	Z, R18
        STD	Z+1, R19
// 1925                 
// 1926                 
// 1927       
// 1928                  
// 1929                 for(i=0;i<ln_rejc_ipcp;i++)buf_tx_232[7+i]=buf_rejc_opt_ipcp[i];
        LDI	R16, 0
        RJMP	??run_ipcp_act_26
??run_ipcp_act_27:
        MOV	R18, R16
        LDI	R19, 0
        MOVW	R31:R30, R19:R18
        SUBI	R30, LOW((-(cnt_ipcp_tm_out) & 0xFFFF))
        SBCI	R31, (-(cnt_ipcp_tm_out) & 0xFFFF) >> 8
        LDD	R20, Z+2
        MOVW	R31:R30, R27:R26
        ADD	R30, R18
        ADC	R31, R25
        STD	Z+7, R20
        INC	R16
??run_ipcp_act_26:
        CP	R16, R17
        BRCS	??run_ipcp_act_27
// 1930                 temp.word=pppfcs16(PPPINITFCS16,&buf_tx_232[1],temp.word) ^ 0xffff;                  
        LD	R20, Y
        LDD	R21, Y+1
        MOVW	R19:R18, R27:R26
        SUBI	R18, 255
        SBCI	R19, 255
        LDI	R16, 255
        LDI	R17, 255
        CALL	pppfcs16
        LDI	R18, 255
        LDI	R19, 255
        EOR	R18, R16
        EOR	R19, R17
        ST	Y, R18
        STD	Y+1, R19
// 1931                 
// 1932                 buf_tx_232[7+ln_rejc_ipcp]=temp.bytes[0];
        MOVW	R31:R30, R27:R26
        ADD	R30, R24
        ADC	R31, R25
        LD	R18, Y
        STD	Z+7, R18
// 1933                 buf_tx_232[8+ln_rejc_ipcp]=temp.bytes[1];                     
        LDD	R18, Y+1
        STD	Z+8, R18
// 1934                 buf_tx_232[9+ln_rejc_ipcp]=0x7e;    
        LDI	R16, 126
        STD	Z+9, R16
// 1935                 
// 1936                  count_tx_ppp=0;                             
        LDI	R30, LOW(count_tx_ppp)
        LDI	R31, (count_tx_ppp) >> 8
        ST	Z, R25
        STD	Z+1, R25
// 1937                      UCSR0A=UCSR0A | TXC;                            
        LDS	R16, 192
        ORI	R16, 0x40
        STS	192, R16
// 1938                      UCSR0B=UCSR0B | TXEN;
        LDS	R16, 193
        ORI	R16, 0x08
        STS	193, R16
// 1939                      UCSR0B=UCSR0B | TXCIE;
        LDS	R16, 193
        ORI	R16, 0x40
        STS	193, R16
// 1940                      if(check_cts()==1) return; 
        CALL	check_cts
        CPI	R16, 1
        BREQ	??run_ipcp_act_3
// 1941                  S2_RD;
        SBI	0x08, 0x00
        CBI	0x08, 0x01
// 1942                  UDR0=buf_tx_232[0];
        LD	R16, X
        STS	198, R16
// 1943                  if(Regim==RG_DEBAG) UDR3=buf_tx_232[0];
        LDS	R16, Regim
        CPI	R16, 1
        BRNE	$+2+2
        RJMP	??run_ipcp_act_10
??run_ipcp_act_3:
        ADIW	R29:R28, 2
        CFI CFA_Y Y+5
        LDI	R30, 5
        JMP	?EPILOGUE_B5_L09
        CFI EndBlock cfiBlock8
// 1944                 break;  
// 1945           // case SER:
// 1946           //      break;       
// 1947           }                  
// 1948       }
// 1949   
// 1950   
// 1951 
// 1952   
// 1953    

        RSEG CODE:CODE:NOROOT(1)
// 1954   void monitor_act_IPCP(void)
monitor_act_IPCP:
        CFI Block cfiBlock9 Using cfiCommon0
        CFI Function monitor_act_IPCP
// 1955       {  
        FUNCALL monitor_act_IPCP, run_ipcp_act
        LOCFRAME CSTACK, 2, STACK
        LOCFRAME RSTACK, 2, STACK
        ST	-Y, R27
        CFI R27 Frame(CFA_Y, -1)
        CFI CFA_Y Y+1
        ST	-Y, R26
        CFI R26 Frame(CFA_Y, -2)
        CFI CFA_Y Y+2
// 1956        
// 1957        if((uk_in_act_IPCP!=uk_out_act_IPCP)&&(fl_lcp.act_lcp_end==1)&&(fl_pap.act_pap_end==1)&&(fl_ipcp.act_ipcp_end==1)&&(fl_ip.act_ip_end==1))
        LDI	R26, LOW(ip_pri_dns)
        LDI	R27, (ip_pri_dns) >> 8
        ADIW	R27:R26, 38
        LD	R16, X
        SBIW	R27:R26, 38
        ADIW	R27:R26, 39
        LD	R17, X
        SBIW	R27:R26, 39
        CP	R16, R17
        BREQ	??monitor_act_IPCP_0
        ADIW	R27:R26, 10
        LD	R16, X
        SBIW	R27:R26, 10
        ANDI	R16, 0x01
        ADIW	R27:R26, 13
        LD	R17, X
        SBIW	R27:R26, 13
        ANDI	R17, 0x01
        AND	R17, R16
        ADIW	R27:R26, 11
        LD	R16, X
        SBIW	R27:R26, 11
        ANDI	R16, 0x01
        AND	R16, R17
        ADIW	R27:R26, 12
        LD	R17, X
        SBIW	R27:R26, 12
        ANDI	R17, 0x01
        AND	R17, R16
        BREQ	??monitor_act_IPCP_0
// 1958         {   
// 1959         run_ipcp_act();
        RCALL	run_ipcp_act
// 1960         uk_out_act_IPCP++;  
        ADIW	R27:R26, 39
        LD	R16, X
        INC	R16
        ST	X, R16
        SBIW	R27:R26, 39
// 1961         if (uk_out_act_IPCP>=IPCP_ACT_VOL)uk_out_act_IPCP=0; 
        ADIW	R27:R26, 39
        LD	R16, X
        SBIW	R27:R26, 39
        CPI	R16, 10
        BRCS	??monitor_act_IPCP_0
        LDI	R16, 0
        ADIW	R27:R26, 39
        ST	X, R16
// 1962         }
// 1963       }
??monitor_act_IPCP_0:
        LD	R26, Y+
        CFI R26 SameValue
        CFI CFA_Y Y+1
        LD	R27, Y+
        CFI R27 SameValue
        CFI CFA_Y Y+0
        RET
        CFI EndBlock cfiBlock9
// 1964  
// 1965  
// 1966   

        RSEG CODE:CODE:NOROOT(1)
// 1967 void monitor_event_IPCP(void)
monitor_event_IPCP:
        CFI Block cfiBlock10 Using cfiCommon0
        CFI Function monitor_event_IPCP
// 1968     {
        FUNCALL monitor_event_IPCP, prov_uk_in_ipcp
        LOCFRAME CSTACK, 7, STACK
        LOCFRAME RSTACK, 2, STACK
        FUNCALL monitor_event_IPCP, prov_uk_in_ipcp
        LOCFRAME CSTACK, 7, STACK
        LOCFRAME RSTACK, 2, STACK
        FUNCALL monitor_event_IPCP, prov_uk_in_ipcp
        LOCFRAME CSTACK, 7, STACK
        LOCFRAME RSTACK, 2, STACK
        FUNCALL monitor_event_IPCP, prov_uk_in_ipcp
        LOCFRAME CSTACK, 7, STACK
        LOCFRAME RSTACK, 2, STACK
        FUNCALL monitor_event_IPCP, prov_uk_in_ipcp
        LOCFRAME CSTACK, 7, STACK
        LOCFRAME RSTACK, 2, STACK
        FUNCALL monitor_event_IPCP, prov_uk_in_ipcp
        LOCFRAME CSTACK, 7, STACK
        LOCFRAME RSTACK, 2, STACK
        FUNCALL monitor_event_IPCP, prov_uk_in_ipcp
        LOCFRAME CSTACK, 7, STACK
        LOCFRAME RSTACK, 2, STACK
        FUNCALL monitor_event_IPCP, prov_uk_in_ipcp
        LOCFRAME CSTACK, 7, STACK
        LOCFRAME RSTACK, 2, STACK
        FUNCALL monitor_event_IPCP, prov_uk_in_ipcp
        LOCFRAME CSTACK, 7, STACK
        LOCFRAME RSTACK, 2, STACK
        FUNCALL monitor_event_IPCP, prov_uk_in_ipcp
        LOCFRAME CSTACK, 7, STACK
        LOCFRAME RSTACK, 2, STACK
        FUNCALL monitor_event_IPCP, prov_uk_in_ipcp
        LOCFRAME CSTACK, 7, STACK
        LOCFRAME RSTACK, 2, STACK
        FUNCALL monitor_event_IPCP, prov_uk_in_ipcp
        LOCFRAME CSTACK, 7, STACK
        LOCFRAME RSTACK, 2, STACK
        FUNCALL monitor_event_IPCP, prov_uk_in_ipcp
        LOCFRAME CSTACK, 7, STACK
        LOCFRAME RSTACK, 2, STACK
        FUNCALL monitor_event_IPCP, prov_uk_in_ipcp
        LOCFRAME CSTACK, 7, STACK
        LOCFRAME RSTACK, 2, STACK
        FUNCALL monitor_event_IPCP, prov_uk_in_ipcp
        LOCFRAME CSTACK, 7, STACK
        LOCFRAME RSTACK, 2, STACK
        FUNCALL monitor_event_IPCP, prov_uk_in_ipcp
        LOCFRAME CSTACK, 7, STACK
        LOCFRAME RSTACK, 2, STACK
        FUNCALL monitor_event_IPCP, prov_uk_in_ipcp
        LOCFRAME CSTACK, 7, STACK
        LOCFRAME RSTACK, 2, STACK
        FUNCALL monitor_event_IPCP, prov_uk_in_ipcp
        LOCFRAME CSTACK, 7, STACK
        LOCFRAME RSTACK, 2, STACK
        FUNCALL monitor_event_IPCP, prov_uk_in_ipcp
        LOCFRAME CSTACK, 7, STACK
        LOCFRAME RSTACK, 2, STACK
        FUNCALL monitor_event_IPCP, prov_uk_in_ipcp
        LOCFRAME CSTACK, 7, STACK
        LOCFRAME RSTACK, 2, STACK
        FUNCALL monitor_event_IPCP, prov_uk_in_ipcp
        LOCFRAME CSTACK, 7, STACK
        LOCFRAME RSTACK, 2, STACK
        FUNCALL monitor_event_IPCP, prov_uk_in_ipcp
        LOCFRAME CSTACK, 7, STACK
        LOCFRAME RSTACK, 2, STACK
        FUNCALL monitor_event_IPCP, prov_uk_in_ipcp
        LOCFRAME CSTACK, 7, STACK
        LOCFRAME RSTACK, 2, STACK
        FUNCALL monitor_event_IPCP, prov_uk_in_ipcp
        LOCFRAME CSTACK, 7, STACK
        LOCFRAME RSTACK, 2, STACK
        FUNCALL monitor_event_IPCP, prov_uk_in_ipcp
        LOCFRAME CSTACK, 7, STACK
        LOCFRAME RSTACK, 2, STACK
        FUNCALL monitor_event_IPCP, prov_uk_in_ipcp
        LOCFRAME CSTACK, 7, STACK
        LOCFRAME RSTACK, 2, STACK
        FUNCALL monitor_event_IPCP, prov_uk_in_ipcp
        LOCFRAME CSTACK, 7, STACK
        LOCFRAME RSTACK, 2, STACK
        FUNCALL monitor_event_IPCP, prov_uk_in_ipcp
        LOCFRAME CSTACK, 7, STACK
        LOCFRAME RSTACK, 2, STACK
        FUNCALL monitor_event_IPCP, prov_uk_in_ipcp
        LOCFRAME CSTACK, 7, STACK
        LOCFRAME RSTACK, 2, STACK
        FUNCALL monitor_event_IPCP, prov_uk_in_ipcp
        LOCFRAME CSTACK, 7, STACK
        LOCFRAME RSTACK, 2, STACK
        FUNCALL monitor_event_IPCP, prov_uk_in_ipcp
        LOCFRAME CSTACK, 7, STACK
        LOCFRAME RSTACK, 2, STACK
        FUNCALL monitor_event_IPCP, prov_uk_in_ipcp
        LOCFRAME CSTACK, 7, STACK
        LOCFRAME RSTACK, 2, STACK
        FUNCALL monitor_event_IPCP, prov_uk_in_ipcp
        LOCFRAME CSTACK, 7, STACK
        LOCFRAME RSTACK, 2, STACK
        FUNCALL monitor_event_IPCP, prov_uk_in_ipcp
        LOCFRAME CSTACK, 7, STACK
        LOCFRAME RSTACK, 2, STACK
        FUNCALL monitor_event_IPCP, prov_uk_in_ipcp
        LOCFRAME CSTACK, 7, STACK
        LOCFRAME RSTACK, 2, STACK
        FUNCALL monitor_event_IPCP, prov_uk_in_ipcp
        LOCFRAME CSTACK, 7, STACK
        LOCFRAME RSTACK, 2, STACK
        FUNCALL monitor_event_IPCP, prov_uk_in_ipcp
        LOCFRAME CSTACK, 7, STACK
        LOCFRAME RSTACK, 2, STACK
        FUNCALL monitor_event_IPCP, prov_uk_in_ipcp
        LOCFRAME CSTACK, 7, STACK
        LOCFRAME RSTACK, 2, STACK
        FUNCALL monitor_event_IPCP, prov_uk_in_ipcp
        LOCFRAME CSTACK, 7, STACK
        LOCFRAME RSTACK, 2, STACK
        FUNCALL monitor_event_IPCP, prov_uk_in_ipcp
        LOCFRAME CSTACK, 7, STACK
        LOCFRAME RSTACK, 2, STACK
        FUNCALL monitor_event_IPCP, prov_uk_in_ipcp
        LOCFRAME CSTACK, 7, STACK
        LOCFRAME RSTACK, 2, STACK
        FUNCALL monitor_event_IPCP, prov_uk_in_ipcp
        LOCFRAME CSTACK, 7, STACK
        LOCFRAME RSTACK, 2, STACK
        FUNCALL monitor_event_IPCP, prov_uk_in_ipcp
        LOCFRAME CSTACK, 7, STACK
        LOCFRAME RSTACK, 2, STACK
        CALL	?PROLOGUE7_L09
        CFI R6 Frame(CFA_Y, -1)
        CFI R5 Frame(CFA_Y, -2)
        CFI R4 Frame(CFA_Y, -3)
        CFI R27 Frame(CFA_Y, -4)
        CFI R26 Frame(CFA_Y, -5)
        CFI R25 Frame(CFA_Y, -6)
        CFI R24 Frame(CFA_Y, -7)
        CFI CFA_Y Y+7
        REQUIRE	?Register_R6_is_cg_reg
// 1969      if (fl_ipcp1.up==1)      //UP
        LDI	R26, LOW(ip_pri_dns)
        LDI	R27, (ip_pri_dns) >> 8
        MOVW	R31:R30, R27:R26
        LDD	R16, Z+38
        LDI	R17, 0
        LDI	R24, LOW(cnt_pap_tm_out)
        LDI	R25, (cnt_pap_tm_out) >> 8
        ADD	R24, R16
        ADC	R25, R17
        LDI	R30, LOW(cnt_pap_tm_out)
        LDI	R31, (cnt_pap_tm_out) >> 8
        LDD	R6, Z+3
        LDD	R16, Z+2
        SBRS	R16, 0
        RJMP	??monitor_event_IPCP_0
// 1970          {  
// 1971          
// 1972           
// 1973          fl_ipcp1.up=0; 
        LDD	R16, Z+2
        ANDI	R16, 0xFE
        STD	Z+2, R16
// 1974            switch(IPCP_state)
        MOV	R16, R6
        SUBI	R16, 1
        BRNE	??monitor_event_IPCP_1
// 1975                {
// 1976                 case START_ST:                                                                
// 1977                             vol_cnt_rst_ipcp=VOL_IPCP_MC;  
??monitor_event_IPCP_2:
        LDI	R16, 10
        MOVW	R31:R30, R27:R26
        STD	Z+43, R16
// 1978                             IPCP_act_buf[uk_in_act_IPCP]=IRC;  
        LDI	R16, 4
??monitor_event_IPCP_3:
        MOVW	R31:R30, R25:R24
        STD	Z+4, R16
// 1979                             prov_uk_in_ipcp();                    
        CALL	prov_uk_in_ipcp
// 1980                             IPCP_act_buf[uk_in_act_IPCP]=SCR;  
        LDI	R16, 6
??monitor_event_IPCP_4:
        MOVW	R31:R30, R27:R26
??monitor_event_IPCP_5:
        LDD	R18, Z+38
        LDI	R19, 0
        LDI	R30, LOW(cnt_pap_tm_out)
        LDI	R31, (cnt_pap_tm_out) >> 8
        ADD	R30, R18
        ADC	R31, R19
??monitor_event_IPCP_6:
        STD	Z+4, R16
// 1981                             prov_uk_in_ipcp();                    
        CALL	prov_uk_in_ipcp
// 1982                             IPCP_state=SEND_REQ; 
// 1983                            
// 1984                 return;
// 1985                }
// 1986             
// 1987          return;
// 1988          }
// 1989      
// 1990      if (fl_ipcp1.down==1)      //DOWN
// 1991          {      
// 1992          
// 1993           fl_ipcp1.down=0;
// 1994           switch(IPCP_state)
// 1995                {                     
// 1996 
// 1997                 case STOP_ST:                                                                
// 1998                             IPCP_act_buf[uk_in_act_IPCP]=TLS;  
// 1999                             prov_uk_in_ipcp();   
// 2000                             fl_ipcp.ipcp_tm_out_en=0;                 
// 2001                             IPCP_state=START_ST;
// 2002                             return;        
// 2003                 case OSTANOV:                                                                
// 2004                             fl_ipcp.ipcp_tm_out_en=0;                 
// 2005                             IPCP_state=START_ST;
// 2006                             return;  
// 2007                 case SEND_REQ:                                                                
// 2008                             fl_ipcp.ipcp_tm_out_en=0;                 
// 2009                             IPCP_state=START_ST;
// 2010                             return;
// 2011                 case REC_ACK:                                                                
// 2012                             fl_ipcp.ipcp_tm_out_en=0;                 
// 2013                             IPCP_state=START_ST;
// 2014                             return;
// 2015                 case SEND_ACK:                                                                
// 2016                             fl_ipcp.ipcp_tm_out_en=0;                 
// 2017                             IPCP_state=START_ST;
// 2018                             return;
// 2019                 case OPEN_ST:                                                                
// 2020                             IPCP_act_buf[uk_in_act_IPCP]=TLD;  
// 2021                             prov_uk_in_ipcp();   
// 2022                             fl_ipcp.ipcp_tm_out_en=0;                 
// 2023                             IPCP_state=START_ST;
// 2024                             return;                                                                    
// 2025                } 
// 2026             
// 2027          return;
// 2028          }
// 2029      
// 2030      if(fl_ipcp.t0_pl==1)        //TO_PL
// 2031         {
// 2032          fl_ipcp.t0_pl=0; 
// 2033          switch(IPCP_state)
// 2034                {                     
// 2035                                
// 2036                 case OSTANOV:                                                                
// 2037                             vol_cnt_rst_ipcp=VOL_IPCP_MT;
// 2038                             IPCP_act_buf[uk_in_act_IPCP]=STR;  
// 2039                             prov_uk_in_ipcp();                 
// 2040                             IPCP_state=OSTANOV;
// 2041                             return;  
// 2042                 case SEND_REQ:
// 2043                             vol_cnt_rst_ipcp=VOL_IPCP_MC;                                                    
// 2044                             IPCP_act_buf[uk_in_act_IPCP]=SCR;  
// 2045                             prov_uk_in_ipcp();                 
// 2046                             IPCP_state=SEND_REQ;
// 2047                             return;
// 2048                 case REC_ACK:      
// 2049                             vol_cnt_rst_ipcp=VOL_IPCP_MC;                                              
// 2050                             IPCP_act_buf[uk_in_act_IPCP]=SCR;  
// 2051                             prov_uk_in_ipcp();                 
// 2052                             IPCP_state=SEND_REQ;
// 2053                             return;
// 2054                 case SEND_ACK: 
// 2055                             vol_cnt_rst_ipcp=VOL_IPCP_MC;                                                   
// 2056                             IPCP_act_buf[uk_in_act_IPCP]=SCR;  
// 2057                             prov_uk_in_ipcp();                 
// 2058                             IPCP_state=SEND_ACK;
// 2059                             return;                                                              
// 2060                } 
// 2061             
// 2062          return;
// 2063         }  
// 2064       if(fl_ipcp.t0_mi==1)       //TO_MI
// 2065         {
// 2066          fl_ipcp.t0_mi=0;
// 2067          switch(IPCP_state)
// 2068                {                     
// 2069                                
// 2070                 case OSTANOV:  
// 2071                             fl_ipcp.ipcp_tm_out_en=0;                                                  
// 2072                             IPCP_act_buf[uk_in_act_IPCP]=TLF;  
// 2073                             prov_uk_in_ipcp();                   
// 2074                             IPCP_state=STOP_ST;
// 2075                             return;  
// 2076                 case SEND_REQ:                                                                
// 2077                             fl_ipcp.ipcp_tm_out_en=0;                                                  
// 2078                             IPCP_act_buf[uk_in_act_IPCP]=TLF;  
// 2079                             prov_uk_in_ipcp();                   
// 2080                             IPCP_state=STOP_ST;
// 2081                             return;
// 2082                 case REC_ACK:                                                                
// 2083                             fl_ipcp.ipcp_tm_out_en=0;                                                  
// 2084                             IPCP_act_buf[uk_in_act_IPCP]=TLF;  
// 2085                             prov_uk_in_ipcp();                   
// 2086                             IPCP_state=STOP_ST;
// 2087                             return;
// 2088                 case SEND_ACK:                                                                
// 2089                             fl_ipcp.ipcp_tm_out_en=0;                                                  
// 2090                             IPCP_act_buf[uk_in_act_IPCP]=TLF;  
// 2091                             prov_uk_in_ipcp();                   
// 2092                             IPCP_state=STOP_ST;
// 2093                             return;                                                              
// 2094                } 
// 2095          return;
// 2096         }   
// 2097      switch (IPCP_event)
// 2098         {
// 2099         case RCR_PL:  
// 2100             IPCP_event=NO_EVENT; 
// 2101             switch(IPCP_state)
// 2102                {                     
// 2103 
// 2104                 case STOP_ST:        
// 2105                             vol_cnt_rst_ipcp=VOL_IPCP_MC;  
// 2106                             IPCP_act_buf[uk_in_act_IPCP]=IRC;  
// 2107                             prov_uk_in_ipcp();                    
// 2108                             IPCP_act_buf[uk_in_act_IPCP]=SCR;  
// 2109                             prov_uk_in_ipcp();   
// 2110                             IPCP_act_buf[uk_in_act_IPCP]=SCA;  
// 2111                             prov_uk_in_ipcp();                 
// 2112                             IPCP_state=SEND_ACK;  
// 2113                             
// 2114                             return;        
// 2115                 case OSTANOV:                                                                                
// 2116                             IPCP_state=OSTANOV; 
// 2117                     
// 2118                             return;  
// 2119                 case SEND_REQ:                                                                
// 2120                             IPCP_act_buf[uk_in_act_IPCP]=SCA;  
// 2121                             prov_uk_in_ipcp();                 
// 2122                             IPCP_state=SEND_ACK;   
// 2123                          
// 2124                             return;
// 2125                 case REC_ACK:
// 2126         
// 2127                             IPCP_act_buf[uk_in_act_IPCP]=SCA;  
// 2128                             prov_uk_in_ipcp();       
// 2129                             IPCP_act_buf[uk_in_act_IPCP]=TLU;  
// 2130                             prov_uk_in_ipcp();          
// 2131                             IPCP_state=OPEN_ST;  
// 2132                            
// 2133                             return;
// 2134                 case SEND_ACK:                                                                
// 2135                             IPCP_act_buf[uk_in_act_IPCP]=SCA;  
// 2136                             prov_uk_in_ipcp();                 
// 2137                             IPCP_state=SEND_ACK; 
// 2138                    
// 2139                             return;
// 2140                 case OPEN_ST:      
// 2141                   //proverka!!!!!
// 2142                            // IPCP_act_buf[uk_in_act_IPCP]=TLD;  
// 2143                           //  prov_uk_in_ipcp();    
// 2144                           //  vol_cnt_rst_ipcp=VOL_IPCP_MC; 
// 2145                           //  IPCP_act_buf[uk_in_act_IPCP]=SCR;  
// 2146                           //  prov_uk_in_ipcp();                                                                
// 2147                             IPCP_act_buf[uk_in_act_IPCP]=SCA;  
// 2148                             prov_uk_in_ipcp();                 
// 2149                         //    IPCP_state=SEND_ACK; 
// 2150                    
// 2151                             return;                                                                    
// 2152                }  
// 2153              return; 
// 2154         case RCR_MI: 
// 2155            
// 2156             
// 2157             
// 2158             IPCP_event=NO_EVENT;
// 2159             switch(IPCP_state)
// 2160                {                     
// 2161 
// 2162                 case STOP_ST:        
// 2163                             vol_cnt_rst_ipcp=VOL_IPCP_MC;  
// 2164                             IPCP_act_buf[uk_in_act_IPCP]=IRC;  
// 2165                             prov_uk_in_ipcp();                    
// 2166                             IPCP_act_buf[uk_in_act_IPCP]=SCR;  
// 2167                             prov_uk_in_ipcp();   
// 2168                             IPCP_act_buf[uk_in_act_IPCP]=SCN;  
// 2169                             prov_uk_in_ipcp();                 
// 2170                             IPCP_state=SEND_REQ; 
// 2171                     
// 2172                             return;        
// 2173                 case OSTANOV:                                                                                
// 2174                             IPCP_state=OSTANOV; 
// 2175                           
// 2176                             return;  
// 2177                 case SEND_REQ:                                                                
// 2178                             
// 2179                        
// 2180                             IPCP_act_buf[uk_in_act_IPCP]=SCN;  
// 2181                             prov_uk_in_ipcp();                 
// 2182                             IPCP_state=SEND_REQ;    
// 2183                      
// 2184                             return;
// 2185                 case REC_ACK:                                                                
// 2186                             IPCP_act_buf[uk_in_act_IPCP]=SCN;  
// 2187                             prov_uk_in_ipcp();              
// 2188                             IPCP_state=REC_ACK;     
// 2189                            
// 2190                             return;
// 2191                 case SEND_ACK:                                                                
// 2192                             IPCP_act_buf[uk_in_act_IPCP]=SCN;  
// 2193                             prov_uk_in_ipcp();                 
// 2194                             IPCP_state=SEND_REQ;
// 2195                          
// 2196                             return;
// 2197                 case OPEN_ST:      
// 2198                             IPCP_act_buf[uk_in_act_IPCP]=TLD;  
// 2199                             prov_uk_in_ipcp();   
// 2200                             vol_cnt_rst_ipcp=VOL_IPCP_MC;
// 2201                             IPCP_act_buf[uk_in_act_IPCP]=SCR;  
// 2202                             prov_uk_in_ipcp();                                                                
// 2203                             IPCP_act_buf[uk_in_act_IPCP]=SCN;  
// 2204                             prov_uk_in_ipcp();                 
// 2205                             IPCP_state=SEND_REQ;
// 2206                           
// 2207                             return;                                                                    
// 2208                }  
// 2209              return; 
// 2210         case RCA:  
// 2211             
// 2212             
// 2213            
// 2214             
// 2215             IPCP_event=NO_EVENT;
// 2216             switch(IPCP_state)
// 2217                {                     
// 2218 
// 2219                 case STOP_ST:        
// 2220                             fl_ipcp.ipcp_tm_out_en=0;
// 2221                             IPCP_act_buf[uk_in_act_IPCP]=STA;  
// 2222                             prov_uk_in_ipcp();                 
// 2223                             IPCP_state=STOP_ST; 
// 2224                           
// 2225                             return;        
// 2226                 case OSTANOV:                                                                                
// 2227                             IPCP_state=OSTANOV;  
// 2228                     
// 2229                             return;  
// 2230                 case SEND_REQ: 
// 2231                             
// 2232                             vol_cnt_rst_ipcp=VOL_IPCP_MC;  
// 2233                             IPCP_act_buf[uk_in_act_IPCP]=IRC;  
// 2234                             prov_uk_in_ipcp();                                        
// 2235                             IPCP_state=REC_ACK; 
// 2236                      
// 2237                             return;
// 2238                 case REC_ACK:       
// 2239                             vol_cnt_rst_ipcp=VOL_IPCP_MC;                                             
// 2240                             IPCP_act_buf[uk_in_act_IPCP]=SCR;  
// 2241                             prov_uk_in_ipcp();                 
// 2242                             IPCP_state=SEND_REQ;
// 2243                      
// 2244                             return;
// 2245                 case SEND_ACK:                                                                
// 2246 
// 2247                             
// 2248                             vol_cnt_rst_ipcp=VOL_IPCP_MC;  
// 2249                             IPCP_act_buf[uk_in_act_IPCP]=IRC;  
// 2250                             prov_uk_in_ipcp();                                        
// 2251                             IPCP_act_buf[uk_in_act_IPCP]=TLU;  
// 2252                             prov_uk_in_ipcp();
// 2253                             IPCP_state=OPEN_ST;
// 2254                   
// 2255                             return;
// 2256                 case OPEN_ST:
// 2257                             vol_cnt_rst_ipcp=VOL_IPCP_MC;
// 2258                             IPCP_act_buf[uk_in_act_IPCP]=TLD;  
// 2259                             prov_uk_in_ipcp();   
// 2260                             IPCP_act_buf[uk_in_act_IPCP]=SCR;  
// 2261                             prov_uk_in_ipcp();                                                                               
// 2262                             IPCP_state=SEND_REQ;
// 2263                          
// 2264                             return;                                                                    
// 2265                }  
// 2266              return; 
// 2267         case RCN: 
// 2268                 IPCP_event=NO_EVENT;
// 2269         switch(IPCP_state)
// 2270                {                     
// 2271 
// 2272                 case STOP_ST:        
// 2273                             fl_ipcp.ipcp_tm_out_en=0;
// 2274                             IPCP_act_buf[uk_in_act_IPCP]=STA;  
// 2275                             prov_uk_in_ipcp();                 
// 2276                             IPCP_state=STOP_ST; 
// 2277                         
// 2278                             return;        
// 2279                 case OSTANOV:                                                                                
// 2280                             IPCP_state=OSTANOV; 
// 2281                          
// 2282                             return;  
// 2283                 case SEND_REQ:                                                                
// 2284                             vol_cnt_rst_ipcp=VOL_IPCP_MC;  
// 2285                             IPCP_act_buf[uk_in_act_IPCP]=IRC;  
// 2286                             prov_uk_in_ipcp(); 
// 2287                             IPCP_act_buf[uk_in_act_IPCP]=SCR;  
// 2288                             prov_uk_in_ipcp();                                       
// 2289                             IPCP_state=SEND_REQ;
// 2290                           
// 2291                             return;
// 2292                 case REC_ACK:     
// 2293                             vol_cnt_rst_ipcp=VOL_IPCP_MC;                                               
// 2294                             IPCP_act_buf[uk_in_act_IPCP]=SCR;  
// 2295                             prov_uk_in_ipcp();                 
// 2296                             IPCP_state=SEND_REQ;
// 2297                           
// 2298                             return;
// 2299                 case SEND_ACK:                                                                
// 2300                             vol_cnt_rst_ipcp=VOL_IPCP_MC;  
// 2301                             IPCP_act_buf[uk_in_act_IPCP]=IRC;  
// 2302                             prov_uk_in_ipcp();                                        
// 2303                             IPCP_act_buf[uk_in_act_IPCP]=SCR;  
// 2304                             prov_uk_in_ipcp();
// 2305                             IPCP_state=SEND_ACK;
// 2306                         
// 2307                             return;
// 2308                 case OPEN_ST:      
// 2309                             IPCP_act_buf[uk_in_act_IPCP]=TLD;  
// 2310                             prov_uk_in_ipcp(); 
// 2311                             vol_cnt_rst_ipcp=VOL_IPCP_MC;  
// 2312                             IPCP_act_buf[uk_in_act_IPCP]=SCR;  
// 2313                             prov_uk_in_ipcp();                                                                               
// 2314                             IPCP_state=SEND_REQ;
// 2315                       
// 2316                             return;                                                                    
// 2317                }  
// 2318              return; 
// 2319         case RTR:
// 2320              IPCP_event=NO_EVENT;
// 2321              switch(IPCP_state)
// 2322                {                     
// 2323 
// 2324                 case STOP_ST:                                                                
// 2325                             fl_ipcp.ipcp_tm_out_en=0;
// 2326                             IPCP_act_buf[uk_in_act_IPCP]=STA;  
// 2327                             prov_uk_in_ipcp();                 
// 2328                             IPCP_state=STOP_ST; 
// 2329                            
// 2330                             return;        
// 2331                 case OSTANOV:                                                                
// 2332                             IPCP_act_buf[uk_in_act_IPCP]=STA;  
// 2333                             prov_uk_in_ipcp();                 
// 2334                             IPCP_state=OSTANOV; 
// 2335                         
// 2336                             return;  
// 2337                 case SEND_REQ:                                                                
// 2338                             IPCP_act_buf[uk_in_act_IPCP]=STA;  
// 2339                             prov_uk_in_ipcp();                 
// 2340                             IPCP_state=SEND_REQ;
// 2341                          
// 2342                             return;
// 2343                 case REC_ACK:                                                                
// 2344                             IPCP_act_buf[uk_in_act_IPCP]=STA;  
// 2345                             prov_uk_in_ipcp();                 
// 2346                             IPCP_state=SEND_REQ;
// 2347                         
// 2348                             return;
// 2349                 case SEND_ACK:                                                                
// 2350                             IPCP_act_buf[uk_in_act_IPCP]=STA;  
// 2351                             prov_uk_in_ipcp();                 
// 2352                             IPCP_state=SEND_REQ;
// 2353                           
// 2354                             return;
// 2355                 case OPEN_ST:                                                                
// 2356                             vol_cnt_rst_ipcp=VOL_IPCP_MC;  
// 2357                             IPCP_act_buf[uk_in_act_IPCP]=TLD;  
// 2358                             prov_uk_in_ipcp(); 
// 2359                             IPCP_act_buf[uk_in_act_IPCP]=ZRC; 
// 2360                             prov_uk_in_ipcp();  
// 2361                             IPCP_act_buf[uk_in_act_IPCP]=STA;  
// 2362                             prov_uk_in_ipcp();                                  
// 2363                             IPCP_state=STOP_ST; 
// 2364                             
// 2365                             return;                                                                    
// 2366                }  
// 2367              return; 
// 2368         case RTA: 
// 2369              IPCP_event=NO_EVENT;
// 2370              switch(IPCP_state)
// 2371                {                     
// 2372 
// 2373                 case STOP_ST:                                                                 
// 2374                             fl_ipcp.ipcp_tm_out_en=0;                 
// 2375                             IPCP_state=STOP_ST;
// 2376                      
// 2377                             return;        
// 2378                 case OSTANOV:                                                                
// 2379                             fl_ipcp.ipcp_tm_out_en=0;                                                  
// 2380                             IPCP_act_buf[uk_in_act_IPCP]=TLF;  
// 2381                             prov_uk_in_ipcp();                   
// 2382                             IPCP_state=STOP_ST; 
// 2383          
// 2384                             return;  
// 2385                 case SEND_REQ:                                                                                
// 2386                             IPCP_state=SEND_REQ;
??monitor_event_IPCP_7:
        LDI	R16, 6
        RJMP	??monitor_event_IPCP_8
??monitor_event_IPCP_0:
        LDD	R16, Z+2
        SBRS	R16, 1
        RJMP	??monitor_event_IPCP_9
        LDD	R16, Z+2
        ANDI	R16, 0xFD
        STD	Z+2, R16
        MOV	R16, R6
        SUBI	R16, 3
        BREQ	??monitor_event_IPCP_10
        SUBI	R16, 2
        BRCS	??monitor_event_IPCP_1
        SUBI	R16, 4
        BRCS	??monitor_event_IPCP_11
        BREQ	??monitor_event_IPCP_12
        RJMP	??monitor_event_IPCP_1
??monitor_event_IPCP_10:
        LDI	R16, 2
??monitor_event_IPCP_13:
        MOVW	R31:R30, R25:R24
        STD	Z+4, R16
        CALL	prov_uk_in_ipcp
??monitor_event_IPCP_11:
        MOVW	R31:R30, R27:R26
        LDD	R16, Z+11
        ANDI	R16, 0xFD
        STD	Z+11, R16
        LDI	R16, 1
??monitor_event_IPCP_8:
        LDI	R30, LOW(cnt_pap_tm_out)
        LDI	R31, (cnt_pap_tm_out) >> 8
        STD	Z+3, R16
??monitor_event_IPCP_1:
        LDI	R30, 7
        JMP	?EPILOGUE_B7_L09
??monitor_event_IPCP_12:
        LDI	R16, 1
        RJMP	??monitor_event_IPCP_13
??monitor_event_IPCP_9:
        MOVW	R31:R30, R27:R26
        LDD	R16, Z+11
        SBRS	R16, 2
        RJMP	??monitor_event_IPCP_14
        LDD	R16, Z+11
        ANDI	R16, 0xFB
        STD	Z+11, R16
        MOV	R16, R6
        SUBI	R16, 5
        BREQ	??monitor_event_IPCP_15
        DEC	R16
        BRNE	$+2+2
        RJMP	??monitor_event_IPCP_16
        DEC	R16
        BRNE	$+2+2
        RJMP	??monitor_event_IPCP_16
        DEC	R16
        BREQ	??monitor_event_IPCP_17
        RJMP	??monitor_event_IPCP_1
??monitor_event_IPCP_15:
        LDI	R16, 2
        STD	Z+43, R16
        LDI	R16, 9
??monitor_event_IPCP_18:
        MOVW	R31:R30, R25:R24
??monitor_event_IPCP_19:
        STD	Z+4, R16
        CALL	prov_uk_in_ipcp
??monitor_event_IPCP_20:
        LDI	R16, 5
        RJMP	??monitor_event_IPCP_8
??monitor_event_IPCP_17:
        LDI	R16, 10
        STD	Z+43, R16
        LDI	R16, 6
??monitor_event_IPCP_21:
        MOVW	R31:R30, R25:R24
??monitor_event_IPCP_22:
        STD	Z+4, R16
        CALL	prov_uk_in_ipcp
// 2387                    
// 2388                             return;
// 2389                 case REC_ACK:                                                                                
// 2390                             IPCP_state=SEND_REQ;
// 2391                         
// 2392                             return;
// 2393                 case SEND_ACK:                                                                
// 2394                             fl_ipcp.ipcp_tm_out_en=0;                 
// 2395                             IPCP_state=SEND_ACK;
// 2396                  
// 2397                             return;
// 2398                 case OPEN_ST:                                                                
// 2399                             vol_cnt_rst_ipcp=VOL_IPCP_MC;  
// 2400                             IPCP_act_buf[uk_in_act_IPCP]=TLD;  
// 2401                             prov_uk_in_ipcp();   
// 2402                             IPCP_act_buf[uk_in_act_IPCP]=SCR;  
// 2403                             prov_uk_in_ipcp();                                  
// 2404                             IPCP_state=SEND_REQ;
// 2405              
// 2406                             return;                                                                    
// 2407                }  
// 2408              return;
// 2409         case RUC:  
// 2410              IPCP_event=NO_EVENT;
// 2411              switch(IPCP_state)
// 2412                {                     
// 2413 
// 2414                 case STOP_ST:                                                                
// 2415                             IPCP_act_buf[uk_in_act_IPCP]=SCJ;  
// 2416                             prov_uk_in_ipcp();   
// 2417                             fl_ipcp.ipcp_tm_out_en=0;                 
// 2418                             IPCP_state=STOP_ST; 
// 2419 
// 2420                             return;        
// 2421                 case OSTANOV:                                                                
// 2422                             IPCP_act_buf[uk_in_act_IPCP]=SCJ;  
// 2423                             prov_uk_in_ipcp();                   
// 2424                             IPCP_state=OSTANOV; 
// 2425         
// 2426                             return;  
// 2427                 case SEND_REQ:                                                                
// 2428                             IPCP_act_buf[uk_in_act_IPCP]=SCJ;  
// 2429                             prov_uk_in_ipcp();                   
// 2430                             IPCP_state=SEND_REQ;
// 2431 
// 2432                             return;
// 2433                 case REC_ACK:                                                                
// 2434                             IPCP_act_buf[uk_in_act_IPCP]=SCJ;  
// 2435                             prov_uk_in_ipcp();                   
// 2436                             IPCP_state=REC_ACK; 
// 2437             
// 2438                             return;
// 2439                 case SEND_ACK:                                                                
// 2440                             IPCP_act_buf[uk_in_act_IPCP]=SCJ;  
// 2441                             prov_uk_in_ipcp();                   
// 2442                             IPCP_state=SEND_ACK;
// 2443       
// 2444                             return;
// 2445                 case OPEN_ST:                                                                
// 2446                             IPCP_act_buf[uk_in_act_IPCP]=SCJ;  
// 2447                             prov_uk_in_ipcp();                   
// 2448                             IPCP_state=OPEN_ST; 
// 2449  
// 2450                             return;                                                                    
// 2451                }  
// 2452              return; 
// 2453         case RXJ_PL:  
// 2454              IPCP_event=NO_EVENT;
// 2455              switch(IPCP_state)
// 2456                {                     
// 2457                 
// 2458                 case STOP_ST:      
// 2459                             fl_ipcp.ipcp_tm_out_en=0;                                                              
// 2460                             IPCP_state=START_ST;
// 2461                             return;        
// 2462                 case OSTANOV:                                                                               
// 2463                             IPCP_state=OSTANOV;
// 2464                             return;  
// 2465                 case SEND_REQ:                                                                                 
// 2466                             IPCP_state=SEND_REQ;
// 2467                             return;
// 2468                 case REC_ACK:                                                                              
// 2469                             IPCP_state=REC_ACK;
// 2470                             return;
// 2471                 case SEND_ACK:                                                                              
// 2472                             IPCP_state=SEND_ACK;
??monitor_event_IPCP_23:
        LDI	R16, 8
        RJMP	??monitor_event_IPCP_8
??monitor_event_IPCP_14:
        LDD	R16, Z+11
        SBRS	R16, 3
        RJMP	??monitor_event_IPCP_24
        LDD	R16, Z+11
        ANDI	R16, 0xF7
        STD	Z+11, R16
        MOV	R16, R6
        SUBI	R16, 5
        SUBI	R16, 4
        BRCC	??monitor_event_IPCP_1
??monitor_event_IPCP_25:
        LDD	R16, Z+11
        ANDI	R16, 0xFD
        STD	Z+11, R16
        LDI	R16, 3
??monitor_event_IPCP_26:
        MOVW	R31:R30, R25:R24
??monitor_event_IPCP_27:
        STD	Z+4, R16
        CALL	prov_uk_in_ipcp
??monitor_event_IPCP_28:
        LDI	R16, 3
        RJMP	??monitor_event_IPCP_8
??monitor_event_IPCP_24:
        LDD	R16, Z+35
        LDI	R30, LOW(`?<Jumptable for monitor_event_IPCP>_0`)
        LDI	R31, (`?<Jumptable for monitor_event_IPCP>_0`) >> 16
        OUT	0x3B, R31
        LDI	R31, HIGH(`?<Jumptable for monitor_event_IPCP>_0`)
        JMP	?CV_SWITCH_L06
??monitor_event_IPCP_29:
        LDI	R16, 255
        MOVW	R31:R30, R27:R26
        STD	Z+35, R16
        MOV	R16, R6
        SUBI	R16, 3
        BREQ	??monitor_event_IPCP_30
        SUBI	R16, 2
        BREQ	??monitor_event_IPCP_20
        DEC	R16
        BREQ	??monitor_event_IPCP_31
        DEC	R16
        BREQ	??monitor_event_IPCP_32
        DEC	R16
        BREQ	??monitor_event_IPCP_31
        DEC	R16
        BREQ	??monitor_event_IPCP_33
        RJMP	??monitor_event_IPCP_1
??monitor_event_IPCP_30:
        LDI	R16, 10
        STD	Z+43, R16
        LDI	R16, 4
        MOVW	R31:R30, R25:R24
        STD	Z+4, R16
        CALL	prov_uk_in_ipcp
        LDI	R16, 6
        MOVW	R31:R30, R27:R26
        LDD	R18, Z+38
        LDI	R19, 0
        LDI	R30, LOW(cnt_pap_tm_out)
        LDI	R31, (cnt_pap_tm_out) >> 8
        ADD	R30, R18
        ADC	R31, R19
        STD	Z+4, R16
        CALL	prov_uk_in_ipcp
??monitor_event_IPCP_31:
        LDI	R16, 7
??monitor_event_IPCP_34:
        MOVW	R31:R30, R27:R26
        LDD	R18, Z+38
        LDI	R19, 0
        LDI	R30, LOW(cnt_pap_tm_out)
        LDI	R31, (cnt_pap_tm_out) >> 8
        ADD	R30, R18
        ADC	R31, R19
        RJMP	??monitor_event_IPCP_22
??monitor_event_IPCP_32:
        LDI	R16, 7
??monitor_event_IPCP_35:
        MOVW	R31:R30, R25:R24
        STD	Z+4, R16
        CALL	prov_uk_in_ipcp
        LDI	R16, 0
        MOVW	R31:R30, R27:R26
        LDD	R18, Z+38
        LDI	R30, LOW(cnt_pap_tm_out)
        LDI	R31, (cnt_pap_tm_out) >> 8
        ADD	R30, R18
        ADC	R31, R16
??monitor_event_IPCP_36:
        STD	Z+4, R16
        CALL	prov_uk_in_ipcp
// 2473                             return;
// 2474                 case OPEN_ST:                                                                                
// 2475                             IPCP_state=OPEN_ST;
??monitor_event_IPCP_37:
        LDI	R16, 9
        RJMP	??monitor_event_IPCP_8
??monitor_event_IPCP_33:
        LDI	R16, 7
        MOVW	R31:R30, R25:R24
        STD	Z+4, R16
        CALL	prov_uk_in_ipcp
        RJMP	??monitor_event_IPCP_1
??monitor_event_IPCP_38:
        LDI	R16, 255
        MOVW	R31:R30, R27:R26
        STD	Z+35, R16
        MOV	R16, R6
        SUBI	R16, 3
        BREQ	??monitor_event_IPCP_39
        SUBI	R16, 2
        BRNE	$+2+2
        RJMP	??monitor_event_IPCP_20
        DEC	R16
        BREQ	??monitor_event_IPCP_40
        DEC	R16
        BREQ	??monitor_event_IPCP_41
        DEC	R16
        BREQ	??monitor_event_IPCP_40
        DEC	R16
        BREQ	??monitor_event_IPCP_42
        RJMP	??monitor_event_IPCP_1
??monitor_event_IPCP_39:
        LDI	R16, 10
        STD	Z+43, R16
        LDI	R16, 4
        MOVW	R31:R30, R25:R24
        STD	Z+4, R16
        CALL	prov_uk_in_ipcp
        LDI	R16, 6
        MOVW	R31:R30, R27:R26
??monitor_event_IPCP_43:
        LDD	R18, Z+38
        LDI	R19, 0
        LDI	R30, LOW(cnt_pap_tm_out)
        LDI	R31, (cnt_pap_tm_out) >> 8
        ADD	R30, R18
        ADC	R31, R19
        STD	Z+4, R16
        CALL	prov_uk_in_ipcp
??monitor_event_IPCP_40:
        LDI	R16, 8
        RJMP	??monitor_event_IPCP_4
??monitor_event_IPCP_41:
        LDI	R16, 8
??monitor_event_IPCP_44:
        MOVW	R31:R30, R25:R24
        STD	Z+4, R16
        CALL	prov_uk_in_ipcp
        RJMP	??monitor_event_IPCP_45
??monitor_event_IPCP_42:
        LDI	R16, 1
        MOVW	R31:R30, R25:R24
        STD	Z+4, R16
        CALL	prov_uk_in_ipcp
        LDI	R16, 10
        MOVW	R31:R30, R27:R26
        STD	Z+43, R16
        LDI	R16, 6
        RJMP	??monitor_event_IPCP_43
??monitor_event_IPCP_46:
        LDI	R16, 255
        MOVW	R31:R30, R27:R26
        STD	Z+35, R16
        MOV	R16, R6
        SUBI	R16, 3
        BREQ	??monitor_event_IPCP_47
        SUBI	R16, 2
        BRNE	$+2+2
        RJMP	??monitor_event_IPCP_20
        DEC	R16
        BREQ	??monitor_event_IPCP_48
        DEC	R16
        BREQ	??monitor_event_IPCP_16
        DEC	R16
        BREQ	??monitor_event_IPCP_49
??monitor_event_IPCP_50:
        DEC	R16
        BREQ	??monitor_event_IPCP_51
        RJMP	??monitor_event_IPCP_1
??monitor_event_IPCP_47:
        LDD	R16, Z+11
        ANDI	R16, 0xFD
        STD	Z+11, R16
        LDI	R16, 10
        RJMP	??monitor_event_IPCP_26
??monitor_event_IPCP_48:
        LDI	R16, 10
        STD	Z+43, R16
        LDI	R16, 4
        RJMP	??monitor_event_IPCP_44
??monitor_event_IPCP_49:
        LDI	R16, 10
        STD	Z+43, R16
        LDI	R16, 4
        RJMP	??monitor_event_IPCP_35
??monitor_event_IPCP_51:
        LDI	R16, 10
        STD	Z+43, R16
        LDI	R16, 1
        RJMP	??monitor_event_IPCP_3
??monitor_event_IPCP_52:
        LDI	R16, 255
        MOVW	R31:R30, R27:R26
        STD	Z+35, R16
        MOV	R16, R6
        SUBI	R16, 3
        BREQ	??monitor_event_IPCP_47
        SUBI	R16, 2
        BRNE	$+2+2
        RJMP	??monitor_event_IPCP_20
        DEC	R16
        BRNE	$+2+2
        RJMP	??monitor_event_IPCP_2
        DEC	R16
        BREQ	??monitor_event_IPCP_16
        DEC	R16
        BREQ	??monitor_event_IPCP_53
        DEC	R16
        BREQ	??monitor_event_IPCP_54
        RJMP	??monitor_event_IPCP_1
??monitor_event_IPCP_53:
        LDI	R16, 10
        STD	Z+43, R16
        LDI	R16, 4
        MOVW	R31:R30, R25:R24
        STD	Z+4, R16
        CALL	prov_uk_in_ipcp
        LDI	R16, 6
        RJMP	??monitor_event_IPCP_34
??monitor_event_IPCP_54:
        LDI	R16, 1
        MOVW	R31:R30, R25:R24
        STD	Z+4, R16
        CALL	prov_uk_in_ipcp
??monitor_event_IPCP_16:
        LDI	R16, 10
        MOVW	R31:R30, R27:R26
        STD	Z+43, R16
        LDI	R16, 6
        RJMP	??monitor_event_IPCP_5
??monitor_event_IPCP_55:
        LDI	R16, 255
        MOVW	R31:R30, R27:R26
        STD	Z+35, R16
        MOV	R16, R6
        SUBI	R16, 3
        BREQ	??monitor_event_IPCP_47
        SUBI	R16, 2
        BREQ	??monitor_event_IPCP_56
        SUBI	R16, 1
        BRCS	??monitor_event_IPCP_57
        SUBI	R16, 3
        BRCS	??monitor_event_IPCP_58
        BREQ	??monitor_event_IPCP_59
??monitor_event_IPCP_57:
        RJMP	??monitor_event_IPCP_1
??monitor_event_IPCP_56:
        LDI	R16, 10
        RJMP	??monitor_event_IPCP_18
??monitor_event_IPCP_58:
        LDI	R16, 10
??monitor_event_IPCP_60:
        MOVW	R31:R30, R25:R24
        RJMP	??monitor_event_IPCP_6
??monitor_event_IPCP_59:
        LDI	R16, 10
        STD	Z+43, R16
        LDI	R16, 1
        MOVW	R31:R30, R25:R24
        STD	Z+4, R16
        CALL	prov_uk_in_ipcp
        LDI	R16, 5
        MOVW	R31:R30, R27:R26
        LDD	R18, Z+38
        LDI	R19, 0
        LDI	R30, LOW(cnt_pap_tm_out)
        LDI	R31, (cnt_pap_tm_out) >> 8
        ADD	R30, R18
        ADC	R31, R19
        STD	Z+4, R16
        CALL	prov_uk_in_ipcp
        LDI	R16, 10
        MOVW	R31:R30, R27:R26
        LDD	R18, Z+38
        LDI	R19, 0
        LDI	R30, LOW(cnt_pap_tm_out)
        LDI	R31, (cnt_pap_tm_out) >> 8
        ADD	R30, R18
        ADC	R31, R19
        RJMP	??monitor_event_IPCP_27
??monitor_event_IPCP_61:
        LDI	R16, 255
        MOVW	R31:R30, R27:R26
        STD	Z+35, R16
        MOV	R16, R6
        SUBI	R16, 3
        BREQ	??monitor_event_IPCP_62
        SUBI	R16, 2
        BRNE	$+2+2
        RJMP	??monitor_event_IPCP_25
        DEC	R16
        BRNE	$+2+2
        RJMP	??monitor_event_IPCP_7
        DEC	R16
        BRNE	$+2+2
        RJMP	??monitor_event_IPCP_7
        DEC	R16
        BREQ	??monitor_event_IPCP_63
        RJMP	??monitor_event_IPCP_50
??monitor_event_IPCP_62:
        MOVW	R31:R30, R27:R26
        LDD	R16, Z+11
        ANDI	R16, 0xFD
        STD	Z+11, R16
        RJMP	??monitor_event_IPCP_28
??monitor_event_IPCP_63:
        LDD	R16, Z+11
        ANDI	R16, 0xFD
        STD	Z+11, R16
        RJMP	??monitor_event_IPCP_23
??monitor_event_IPCP_64:
        LDI	R16, 255
        MOVW	R31:R30, R27:R26
        STD	Z+35, R16
        MOV	R16, R6
        SUBI	R16, 3
        BREQ	??monitor_event_IPCP_65
        SUBI	R16, 2
        BREQ	??monitor_event_IPCP_66
        DEC	R16
        BREQ	??monitor_event_IPCP_67
        DEC	R16
        BREQ	??monitor_event_IPCP_68
        DEC	R16
        BREQ	??monitor_event_IPCP_69
        DEC	R16
        BREQ	??monitor_event_IPCP_70
        RJMP	??monitor_event_IPCP_1
??monitor_event_IPCP_65:
        LDI	R16, 11
        MOVW	R31:R30, R25:R24
        STD	Z+4, R16
        CALL	prov_uk_in_ipcp
        RJMP	??monitor_event_IPCP_62
??monitor_event_IPCP_66:
        LDI	R16, 11
        RJMP	??monitor_event_IPCP_18
??monitor_event_IPCP_67:
        LDI	R16, 11
        RJMP	??monitor_event_IPCP_60
??monitor_event_IPCP_68:
        LDI	R16, 11
        RJMP	??monitor_event_IPCP_44
??monitor_event_IPCP_69:
        LDI	R16, 11
        RJMP	??monitor_event_IPCP_21
??monitor_event_IPCP_70:
        LDI	R16, 11
        MOVW	R31:R30, R25:R24
        RJMP	??monitor_event_IPCP_36
??monitor_event_IPCP_71:
        LDI	R16, 255
        MOVW	R31:R30, R27:R26
        STD	Z+35, R16
        MOV	R16, R6
        SUBI	R16, 3
        BRNE	$+2+2
        RJMP	??monitor_event_IPCP_11
        SUBI	R16, 2
        BRNE	$+2+2
        RJMP	??monitor_event_IPCP_20
        DEC	R16
        BRNE	$+2+2
        RJMP	??monitor_event_IPCP_7
        DEC	R16
        BREQ	??monitor_event_IPCP_45
        DEC	R16
        BRNE	$+2+2
        RJMP	??monitor_event_IPCP_23
        DEC	R16
        BRNE	$+2+2
        RJMP	??monitor_event_IPCP_37
        RJMP	??monitor_event_IPCP_1
??monitor_event_IPCP_45:
        LDI	R16, 7
        RJMP	??monitor_event_IPCP_8
// 2476                             return;                                                                    
// 2477                }  
// 2478              return; 
// 2479         case RXJ_MI:  
// 2480             IPCP_event=NO_EVENT;
??monitor_event_IPCP_72:
        LDI	R16, 255
        MOVW	R31:R30, R27:R26
        STD	Z+35, R16
// 2481             switch(IPCP_state)
        MOV	R16, R6
        SUBI	R16, 3
        BRNE	$+2+2
        RJMP	??monitor_event_IPCP_25
        SUBI	R16, 2
        BRCS	??monitor_event_IPCP_73
        SUBI	R16, 4
        BRCC	$+2+2
        RJMP	??monitor_event_IPCP_25
        BREQ	??monitor_event_IPCP_74
??monitor_event_IPCP_73:
        RJMP	??monitor_event_IPCP_1
// 2482                {                     
// 2483                 case STOP_ST:  
// 2484                             fl_ipcp.ipcp_tm_out_en=0;                                                  
// 2485                             IPCP_act_buf[uk_in_act_IPCP]=TLF;  
// 2486                             prov_uk_in_ipcp();                   
// 2487                             IPCP_state=STOP_ST;
// 2488                             return;               
// 2489                 case OSTANOV:  
// 2490                             fl_ipcp.ipcp_tm_out_en=0;                                                  
// 2491                             IPCP_act_buf[uk_in_act_IPCP]=TLF;  
// 2492                             prov_uk_in_ipcp();                   
// 2493                             IPCP_state=STOP_ST;
// 2494                             return;  
// 2495                 case SEND_REQ:                                                                
// 2496                             fl_ipcp.ipcp_tm_out_en=0;                                                  
// 2497                             IPCP_act_buf[uk_in_act_IPCP]=TLF;  
// 2498                             prov_uk_in_ipcp();                   
// 2499                             IPCP_state=STOP_ST;
// 2500                             return;
// 2501                 case REC_ACK:                                                                
// 2502                             fl_ipcp.ipcp_tm_out_en=0;                                                  
// 2503                             IPCP_act_buf[uk_in_act_IPCP]=TLF;  
// 2504                             prov_uk_in_ipcp();                   
// 2505                             IPCP_state=STOP_ST;
// 2506                             return;
// 2507                 case SEND_ACK:                                                                
// 2508                             fl_ipcp.ipcp_tm_out_en=0;                                                  
// 2509                             IPCP_act_buf[uk_in_act_IPCP]=TLF;  
// 2510                             prov_uk_in_ipcp();                   
// 2511                             IPCP_state=STOP_ST;
// 2512                             return;
// 2513                 case OPEN_ST:                                                                
// 2514                             vol_cnt_rst_ipcp=VOL_IPCP_MT;  
??monitor_event_IPCP_74:
        LDI	R16, 2
        STD	Z+43, R16
// 2515                             IPCP_act_buf[uk_in_act_IPCP]=TLD;  
        LDI	R16, 1
        MOVW	R31:R30, R25:R24
        STD	Z+4, R16
// 2516                             prov_uk_in_ipcp(); 
        CALL	prov_uk_in_ipcp
// 2517                             IPCP_act_buf[uk_in_act_IPCP]=IRC; 
        LDI	R16, 4
        MOVW	R31:R30, R27:R26
        LDD	R18, Z+38
        LDI	R19, 0
        LDI	R30, LOW(cnt_pap_tm_out)
        LDI	R31, (cnt_pap_tm_out) >> 8
        ADD	R30, R18
        ADC	R31, R19
        STD	Z+4, R16
// 2518                             prov_uk_in_ipcp();  
        CALL	prov_uk_in_ipcp
// 2519                             IPCP_act_buf[uk_in_act_IPCP]=STR;  
        LDI	R16, 9
        MOVW	R31:R30, R27:R26
        LDD	R18, Z+38
        LDI	R19, 0
        LDI	R30, LOW(cnt_pap_tm_out)
        LDI	R31, (cnt_pap_tm_out) >> 8
        ADD	R30, R18
        ADC	R31, R19
        RJMP	??monitor_event_IPCP_19
        CFI EndBlock cfiBlock10
// 2520                             prov_uk_in_ipcp();                                  
// 2521                             IPCP_state=OSTANOV;  
// 2522                             return;                                                                        
// 2523                } 
// 2524              return;  
// 2525         case RXR:       
// 2526              IPCP_event=NO_EVENT;
// 2527              switch(IPCP_state)
// 2528                {                     
// 2529 
// 2530                 case STOP_ST:      
// 2531                             fl_ipcp.ipcp_tm_out_en=0;                                                              
// 2532                             IPCP_state=START_ST;
// 2533                             return;        
// 2534                 case OSTANOV:                                                                               
// 2535                             IPCP_state=OSTANOV;
// 2536                             return;  
// 2537                 case SEND_REQ:                                                                                 
// 2538                             IPCP_state=SEND_REQ;
// 2539                             return;
// 2540                 case REC_ACK:                                                                              
// 2541                             IPCP_state=REC_ACK;
// 2542                             return;
// 2543                 case SEND_ACK:                                                                              
// 2544                             IPCP_state=SEND_ACK;
// 2545                             return;
// 2546                 case OPEN_ST:                                                                                
// 2547                          //   IPCP_act_buf[uk_in_act_IPCP]=SER;  
// 2548                          //   prov_uk_in_ipcp();
// 2549                             IPCP_state=OPEN_ST;
// 2550                             return;                                                                 
// 2551                }  
// 2552              return;                                  
// 2553         }
// 2554     
// 2555     }
// 2556   
// 2557   
// 2558   ////////////////  ęîíĺö ěîíčňîđű IPCP 
// 2559 

        RSEG CODE:CODE:NOROOT(1)
// 2560   unsigned int calc_crc_ip(unsigned char *p,unsigned int count)
calc_crc_ip:
        CFI Block cfiBlock11 Using cfiCommon0
        CFI Function calc_crc_ip
// 2561       {      
        SBIW	R29:R28, 6
        CFI CFA_Y Y+6
        MOVW	R31:R30, R17:R16
// 2562       
// 2563           union          
// 2564           {
// 2565            unsigned char bytes[2]; 
// 2566            unsigned int word;
// 2567           }temp1; 
// 2568          
// 2569           union
// 2570           {
// 2571            unsigned char bytes[4]; 
// 2572            unsigned long int long_word;
// 2573           }temp2; 
// 2574        
// 2575          temp1.word=0;
        LDI	R16, 0
        LDI	R17, 0
        ST	Y, R16
        STD	Y+1, R16
// 2576          temp2.long_word=0;
        STD	Y+2, R16
        STD	Y+3, R16
        STD	Y+4, R16
        STD	Y+5, R16
        RJMP	??calc_crc_ip_0
// 2577 
// 2578         while( count > 1 )  {
// 2579            /*  This is the inner loop */  
// 2580                temp1.bytes[0]=*p;
??calc_crc_ip_1:
        LD	R16, Z
        ST	Y, R16
// 2581                temp1.bytes[1]=*(p+1); 
        LDD	R16, Z+1
        STD	Y+1, R16
// 2582                temp2.long_word=temp2.long_word+temp1.word; 
        LD	R20, Y
        LDD	R21, Y+1
        LDD	R0, Y+2
        LDD	R1, Y+3
        LDD	R2, Y+4
        LDD	R3, Y+5
        ADD	R0, R20
        ADC	R1, R21
        ADC	R2, R17
        ADC	R3, R17
        STD	Y+2, R0
        STD	Y+3, R1
        STD	Y+4, R2
        STD	Y+5, R3
// 2583                p=p+2;         
        ADIW	R31:R30, 2
// 2584                count -= 2;
        SUBI	R18, 2
        SBCI	R19, 0
// 2585                             }
??calc_crc_ip_0:
        CPI	R18, 2
        CPC	R19, R17
        BRCC	??calc_crc_ip_1
// 2586 
// 2587            /*  Add left-over byte, if any */
// 2588        if( count > 0 )   
        OR	R18, R19
        BREQ	??calc_crc_ip_2
// 2589                {
// 2590                temp1.bytes[0]=0;
        ST	Y, R17
// 2591                temp1.bytes[1]=*p; 
        LD	R16, Z
        STD	Y+1, R16
// 2592                temp2.long_word=temp2.long_word+temp1.word; 
        LD	R16, Y
        LDD	R17, Y+1
        LDI	R18, 0
        LDD	R20, Y+2
        LDD	R21, Y+3
        LDD	R22, Y+4
        LDD	R23, Y+5
        ADD	R20, R16
        ADC	R21, R17
        ADC	R22, R18
        ADC	R23, R18
        STD	Y+2, R20
        STD	Y+3, R21
        STD	Y+4, R22
        STD	Y+5, R23
        RJMP	??calc_crc_ip_2
// 2593                } 
// 2594           
// 2595     
// 2596            /*  Fold 32-bit sum to 16 bits */
// 2597        while (temp2.long_word>>16)
// 2598            temp2.long_word = (temp2.long_word & 0xffff) + (temp2.long_word >> 16);
??calc_crc_ip_3:
        LDD	R17, Y+3
        LDI	R18, 0
        LDD	R22, Y+4
        LDD	R23, Y+5
        MOV	R20, R22
        MOV	R21, R23
        LDI	R22, 0
        ADD	R20, R16
        ADC	R21, R17
        ADC	R22, R18
        STD	Y+2, R20
        STD	Y+3, R21
        STD	Y+4, R22
        STD	Y+5, R18
??calc_crc_ip_2:
        LDD	R18, Y+4
        LDD	R19, Y+5
        LDI	R16, 0
        OR	R16, R18
        OR	R16, R19
        LDD	R16, Y+2
        BRNE	??calc_crc_ip_3
// 2599 
// 2600        temp1.bytes[0]=~temp2.bytes[0];
        COM	R16
        ST	Y, R16
// 2601        temp1.bytes[1]=~temp2.bytes[1];  
        LDD	R16, Y+3
        COM	R16
        STD	Y+1, R16
// 2602        
// 2603   
// 2604           
// 2605        return(temp1.word);
        LD	R16, Y
        LDD	R17, Y+1
        ADIW	R29:R28, 6
        CFI CFA_Y Y+0
        RET
        CFI EndBlock cfiBlock11
// 2606       }
// 2607        
// 2608 
// 2609 
// 2610 
// 2611  

        RSEG CODE:CODE:NOROOT(1)
// 2612  unsigned int calc_crc_udp_2(unsigned char *buf_rx_ppp,unsigned int count)
calc_crc_udp_2:
        CFI Block cfiBlock12 Using cfiCommon0
        CFI Function calc_crc_udp_2
// 2613       {      
        CALL	?PROLOGUE4_L09
        CFI R27 Frame(CFA_Y, -1)
        CFI R26 Frame(CFA_Y, -2)
        CFI R25 Frame(CFA_Y, -3)
        CFI R24 Frame(CFA_Y, -4)
        CFI CFA_Y Y+4
        SBIW	R29:R28, 6
        CFI CFA_Y Y+10
        MOVW	R27:R26, R17:R16
        MOVW	R25:R24, R19:R18
// 2614           unsigned char *p;
// 2615       
// 2616           union          
// 2617           {
// 2618            unsigned char bytes[2]; 
// 2619            unsigned int word;
// 2620           }temp1; 
// 2621          
// 2622           union
// 2623           {
// 2624            unsigned char bytes[4]; 
// 2625            unsigned long int long_word;
// 2626           }temp2; 
// 2627          p=buf_rx_ppp+22;
        MOVW	R31:R30, R27:R26
        ADIW	R31:R30, 22
// 2628          temp1.word=0;
        LDI	R18, 0
        LDI	R19, 0
        ST	Y, R18
        STD	Y+1, R18
// 2629          temp2.long_word=0;
        STD	Y+2, R18
        STD	Y+3, R18
        STD	Y+4, R18
        STD	Y+5, R18
        RJMP	??calc_crc_udp_2_0
// 2630 
// 2631         while( count > 1 )  {
// 2632            /*  This is the inner loop */  
// 2633                temp1.bytes[0]=*p;
??calc_crc_udp_2_1:
        LD	R18, Z
        ST	Y, R18
// 2634                temp1.bytes[1]=*(p+1); 
        LDD	R18, Z+1
        STD	Y+1, R18
// 2635                temp2.long_word=temp2.long_word+temp1.word; 
        LD	R20, Y
        LDD	R21, Y+1
        LDD	R0, Y+2
        LDD	R1, Y+3
        LDD	R2, Y+4
        LDD	R3, Y+5
        ADD	R0, R20
        ADC	R1, R21
        ADC	R2, R19
        ADC	R3, R19
        STD	Y+2, R0
        STD	Y+3, R1
        STD	Y+4, R2
        STD	Y+5, R3
// 2636                p=p+2;         
        ADIW	R31:R30, 2
// 2637                count -= 2;
        SBIW	R25:R24, 2
// 2638                             }
??calc_crc_udp_2_0:
        CPI	R24, 2
        CPC	R25, R19
        BRCC	??calc_crc_udp_2_1
// 2639 
// 2640            /*  Add left-over byte, if any */
// 2641        if( count > 0 )   
        OR	R24, R25
        BREQ	??calc_crc_udp_2_2
// 2642                {
// 2643                //temp1.bytes[0]=0;
// 2644                //temp1.bytes[1]=*p; 
// 2645                temp1.bytes[0]=*p; 
        LD	R16, Z
        ST	Y, R16
// 2646                temp1.bytes[1]=0;
        STD	Y+1, R19
// 2647                temp2.long_word=temp2.long_word+temp1.word; 
        LD	R16, Y
        LDD	R17, Y+1
        LDD	R20, Y+2
        LDD	R21, Y+3
        LDD	R22, Y+4
        LDD	R23, Y+5
        ADD	R20, R16
        ADC	R21, R17
        ADC	R22, R19
        ADC	R23, R19
        STD	Y+2, R20
        STD	Y+3, R21
        STD	Y+4, R22
        STD	Y+5, R23
// 2648                } 
// 2649           
// 2650           
// 2651           
// 2652           temp1.bytes[0]=buf_rx_ppp[14];
??calc_crc_udp_2_2:
        MOVW	R31:R30, R27:R26
        LDD	R16, Z+14
        ST	Y, R16
// 2653           temp1.bytes[1]=buf_rx_ppp[15]; 
        LDD	R16, Z+15
        STD	Y+1, R16
// 2654           temp2.long_word=temp2.long_word+temp1.word;  
        LD	R16, Y
        LDD	R17, Y+1
        LDD	R20, Y+2
        LDD	R21, Y+3
        LDD	R22, Y+4
        LDD	R23, Y+5
        ADD	R20, R16
        ADC	R21, R17
        ADC	R22, R19
        ADC	R23, R19
        STD	Y+2, R20
        STD	Y+3, R21
        STD	Y+4, R22
        STD	Y+5, R23
// 2655           temp1.bytes[0]=buf_rx_ppp[16];
        LDD	R16, Z+16
        ST	Y, R16
// 2656           temp1.bytes[1]=buf_rx_ppp[17]; 
        LDD	R16, Z+17
        STD	Y+1, R16
// 2657           temp2.long_word=temp2.long_word+temp1.word;  
        LD	R16, Y
        LDD	R17, Y+1
        LDD	R20, Y+2
        LDD	R21, Y+3
        LDD	R22, Y+4
        LDD	R23, Y+5
        ADD	R20, R16
        ADC	R21, R17
        ADC	R22, R19
        ADC	R23, R19
        STD	Y+2, R20
        STD	Y+3, R21
        STD	Y+4, R22
        STD	Y+5, R23
// 2658           
// 2659           temp1.bytes[0]=buf_rx_ppp[18];
        LDD	R16, Z+18
        ST	Y, R16
// 2660           temp1.bytes[1]=buf_rx_ppp[19]; 
        LDD	R16, Z+19
        STD	Y+1, R16
// 2661           temp2.long_word=temp2.long_word+temp1.word;  
        LD	R16, Y
        LDD	R17, Y+1
        LDD	R20, Y+2
        LDD	R21, Y+3
        LDD	R22, Y+4
        LDD	R23, Y+5
        ADD	R20, R16
        ADC	R21, R17
        ADC	R22, R19
        ADC	R23, R19
        STD	Y+2, R20
        STD	Y+3, R21
        STD	Y+4, R22
        STD	Y+5, R23
// 2662           temp1.bytes[0]=buf_rx_ppp[20];
        LDD	R16, Z+20
        ST	Y, R16
// 2663           temp1.bytes[1]=buf_rx_ppp[21]; 
        LDD	R16, Z+21
        STD	Y+1, R16
// 2664           temp2.long_word=temp2.long_word+temp1.word;  
        LD	R16, Y
        LDD	R17, Y+1
        LDD	R20, Y+2
        LDD	R21, Y+3
        LDD	R22, Y+4
        LDD	R23, Y+5
        ADD	R20, R16
        ADC	R21, R17
        ADC	R22, R19
        ADC	R23, R19
        STD	Y+2, R20
        STD	Y+3, R21
        STD	Y+4, R22
        STD	Y+5, R23
// 2665           
// 2666                      
// 2667       
// 2668           temp1.bytes[0]=0;
        ST	Y, R19
// 2669           temp1.bytes[1]=0x11; 
        LDI	R16, 17
        STD	Y+1, R16
// 2670           temp2.long_word=temp2.long_word+temp1.word;  
        LD	R16, Y
        LDD	R17, Y+1
        LDD	R20, Y+2
        LDD	R21, Y+3
        LDD	R22, Y+4
        LDD	R23, Y+5
        ADD	R20, R16
        ADC	R21, R17
        ADC	R22, R19
        ADC	R23, R19
        STD	Y+2, R20
        STD	Y+3, R21
        STD	Y+4, R22
        STD	Y+5, R23
// 2671            
// 2672           temp1.bytes[0]=buf_rx_ppp[26];                                //äëčíŕ
        LDD	R16, Z+26
        ST	Y, R16
// 2673           temp1.bytes[1]=buf_rx_ppp[27]; 
        LDD	R16, Z+27
        STD	Y+1, R16
// 2674           temp2.long_word=temp2.long_word+temp1.word; 
        LD	R16, Y
        LDD	R17, Y+1
        LDD	R20, Y+2
        LDD	R21, Y+3
        LDD	R22, Y+4
        LDD	R23, Y+5
        ADD	R20, R16
        ADC	R21, R17
        ADC	R22, R19
        ADC	R23, R19
        STD	Y+2, R20
        STD	Y+3, R21
        STD	Y+4, R22
        STD	Y+5, R23
        RJMP	??calc_crc_udp_2_3
// 2675          
// 2676       
// 2677           
// 2678          
// 2679           
// 2680     
// 2681            /*  Fold 32-bit sum to 16 bits */
// 2682        while (temp2.long_word>>16)
// 2683            temp2.long_word = (temp2.long_word & 0xffff) + (temp2.long_word >> 16);
??calc_crc_udp_2_4:
        LDD	R17, Y+3
        LDI	R18, 0
        LDD	R22, Y+4
        LDD	R23, Y+5
        MOV	R20, R22
        MOV	R21, R23
        LDI	R22, 0
        ADD	R20, R16
        ADC	R21, R17
        ADC	R22, R18
        STD	Y+2, R20
        STD	Y+3, R21
        STD	Y+4, R22
        STD	Y+5, R18
??calc_crc_udp_2_3:
        LDD	R18, Y+4
        LDD	R19, Y+5
        LDI	R16, 0
        OR	R16, R18
        OR	R16, R19
        LDD	R16, Y+2
        BRNE	??calc_crc_udp_2_4
// 2684 
// 2685       temp1.bytes[0]=~temp2.bytes[0];
        COM	R16
        ST	Y, R16
// 2686       temp1.bytes[1]=~temp2.bytes[1]; 
        LDD	R16, Y+3
        COM	R16
        STD	Y+1, R16
// 2687           
// 2688        return(temp1.word);
        LD	R16, Y
        LDD	R17, Y+1
        ADIW	R29:R28, 6
        CFI CFA_Y Y+4
        LDI	R30, 4
        JMP	?EPILOGUE_B4_L09
        CFI EndBlock cfiBlock12
// 2689       }
// 2690  
// 2691  
// 2692  
// 2693  

        RSEG CODE:CODE:NOROOT(1)
// 2694  unsigned char proc_ppp_packet(unsigned char *buf_rx_ppp,unsigned int count_rx_ppp)
proc_ppp_packet:
        CFI Block cfiBlock13 Using cfiCommon0
        CFI Function proc_ppp_packet
// 2695  {                
        FUNCALL proc_ppp_packet, pppfcs16
        LOCFRAME CSTACK, 13, STACK
        LOCFRAME RSTACK, 2, STACK
        FUNCALL proc_ppp_packet, calc_crc_ip
        LOCFRAME CSTACK, 13, STACK
        LOCFRAME RSTACK, 2, STACK
        FUNCALL proc_ppp_packet, calc_crc_udp_2
        LOCFRAME CSTACK, 13, STACK
        LOCFRAME RSTACK, 2, STACK
        FUNCALL proc_ppp_packet, proc_udp_data
        LOCFRAME CSTACK, 13, STACK
        LOCFRAME RSTACK, 2, STACK
        CALL	?PROLOGUE9_L09
        CFI R8 Frame(CFA_Y, -1)
        CFI R7 Frame(CFA_Y, -2)
        CFI R6 Frame(CFA_Y, -3)
        CFI R5 Frame(CFA_Y, -4)
        CFI R4 Frame(CFA_Y, -5)
        CFI R27 Frame(CFA_Y, -6)
        CFI R26 Frame(CFA_Y, -7)
        CFI R25 Frame(CFA_Y, -8)
        CFI R24 Frame(CFA_Y, -9)
        CFI CFA_Y Y+9
        REQUIRE	?Register_R4_is_cg_reg
        REQUIRE	?Register_R5_is_cg_reg
        REQUIRE	?Register_R6_is_cg_reg
        REQUIRE	?Register_R7_is_cg_reg
        REQUIRE	?Register_R8_is_cg_reg
        SBIW	R29:R28, 4
        CFI CFA_Y Y+13
        MOVW	R25:R24, R17:R16
        MOVW	R7:R6, R19:R18
// 2696     unsigned int i;
// 2697     unsigned char vol_length_opt;
// 2698     unsigned char ind_opt,count_length_opt;
// 2699      
// 2700      struct
// 2701  {
// 2702   unsigned char mru :1;  
// 2703   unsigned char accm :1; 
// 2704   unsigned char aut_prot :1; 
// 2705   unsigned char pfc :1;
// 2706   unsigned char acfc :1;
// 2707   unsigned char zap_opt:1;
// 2708   unsigned char ip_self:1;
// 2709   unsigned char ip_pri_dns:1;
// 2710  }fl_opt;     
// 2711                            
// 2712   
// 2713   
// 2714   union
// 2715  {
// 2716  unsigned char bytes[2]; 
// 2717  unsigned int word;
// 2718  } Crc_out,temp,length;
// 2719     
// 2720     
// 2721    
// 2722  
// 2723   if(count_rx_ppp<=5)return(1); 
        CPI	R18, 6
        LDI	R16, 0
        CPC	R7, R16
        BRCC	??proc_ppp_packet_0
??proc_ppp_packet_1:
        LDI	R16, 1
        ADIW	R29:R28, 4
        CFI CFA_Y Y+9
        LDI	R30, 9
        JMP	?EPILOGUE_B9_L09
        CFI CFA_Y Y+13
// 2724    
// 2725     //ďîäń÷ĺň FCS      
// 2726   if (pppfcs16(PPPINITFCS16,&buf_rx_ppp[1],count_rx_ppp-2)!=PPPGOODFCS16)return(1);       
??proc_ppp_packet_0:
        MOVW	R21:R20, R7:R6
        SUBI	R20, 2
        SBCI	R21, 0
        MOVW	R19:R18, R25:R24
        SUBI	R18, 255
        SBCI	R19, 255
        LDI	R16, 255
        LDI	R17, 255
        CALL	pppfcs16
        CPI	R16, 184
        LDI	R18, 240
        CPC	R17, R18
        BRNE	??proc_ppp_packet_1
// 2727  
// 2728  
// 2729   if ((buf_rx_ppp[1]==0xff)&&(buf_rx_ppp[2]==0x03)&&(buf_rx_ppp[3]==0xc0)&&(buf_rx_ppp[4]==0x21)&&(layer_PPP!=LAYER_HW))rcvd_protokol=PR_LCP; 
        LDI	R26, LOW(ip_pri_dns)
        LDI	R27, (ip_pri_dns) >> 8
        MOVW	R31:R30, R25:R24
        LDD	R16, Z+1
        CPI	R16, 255
        BRNE	??proc_ppp_packet_2
        LDD	R16, Z+2
        CPI	R16, 3
        BRNE	??proc_ppp_packet_2
        LDD	R16, Z+3
        CPI	R16, 192
        BRNE	??proc_ppp_packet_2
        LDD	R16, Z+4
        CPI	R16, 33
        BRNE	??proc_ppp_packet_2
        LDS	R16, layer_PPP
        TST	R16
        BREQ	??proc_ppp_packet_2
        LDI	R16, 0
        MOVW	R31:R30, R27:R26
        STD	Z+44, R16
// 2730   if ((buf_rx_ppp[1]==0xc0)&&(buf_rx_ppp[2]==0x23)&&(layer_PPP==LAYER_PAP))rcvd_protokol=PR_PAP;
??proc_ppp_packet_2:
        MOVW	R31:R30, R25:R24
        LDD	R16, Z+1
        CPI	R16, 192
        BRNE	??proc_ppp_packet_3
        LDD	R16, Z+2
        CPI	R16, 35
        BRNE	??proc_ppp_packet_3
        LDS	R16, layer_PPP
        CPI	R16, 2
        BRNE	??proc_ppp_packet_3
        LDI	R16, 1
        MOVW	R31:R30, R27:R26
        STD	Z+44, R16
// 2731   if ((buf_rx_ppp[1]==0x80)&&(buf_rx_ppp[2]==0x21)&&((layer_PPP==LAYER_IP)||(layer_PPP==LAYER_IPCP)))rcvd_protokol=PR_IPCP; 
??proc_ppp_packet_3:
        MOVW	R31:R30, R25:R24
        LDD	R16, Z+1
        CPI	R16, 128
        BRNE	??proc_ppp_packet_4
        LDD	R16, Z+2
        CPI	R16, 33
        BRNE	??proc_ppp_packet_4
        LDS	R16, layer_PPP
        CPI	R16, 4
        BREQ	??proc_ppp_packet_5
        LDS	R16, layer_PPP
        CPI	R16, 3
        BRNE	??proc_ppp_packet_4
??proc_ppp_packet_5:
        LDI	R16, 2
        MOVW	R31:R30, R27:R26
        STD	Z+44, R16
// 2732   if ((buf_rx_ppp[1]==0x21)&&(layer_PPP==LAYER_IP))rcvd_protokol=PR_IP; 
??proc_ppp_packet_4:
        MOVW	R31:R30, R25:R24
        LDD	R16, Z+1
        CPI	R16, 33
        BRNE	??proc_ppp_packet_6
        LDS	R16, layer_PPP
        CPI	R16, 4
        BRNE	??proc_ppp_packet_6
        LDI	R16, 3
        MOVW	R31:R30, R27:R26
        STD	Z+44, R16
// 2733   
// 2734   
// 2735 
// 2736  
// 2737   
// 2738      
// 2739      switch (rcvd_protokol) 
??proc_ppp_packet_6:
        MOVW	R21:R20, R7:R6
        SUBI	R20, 4
        SBCI	R21, 0
        MOVW	R17:R16, R7:R6
        SUBI	R16, 6
        SBCI	R17, 0
        LDI	R18, LOW(ip_self)
        MOV	R4, R18
        LDI	R18, (ip_self) >> 8
        MOV	R5, R18
        MOVW	R31:R30, R27:R26
        LDD	R18, Z+44
        SUBI	R18, 0
        BREQ	??proc_ppp_packet_7
        DEC	R18
        BRNE	$+2+2
        RJMP	??proc_ppp_packet_8
        DEC	R18
        BRNE	$+2+2
        RJMP	??proc_ppp_packet_9
        DEC	R18
        BRNE	$+2+2
        RJMP	??proc_ppp_packet_10
        RJMP	??proc_ppp_packet_1
// 2740       {
// 2741        case PR_LCP:
// 2742               
// 2743            
// 2744               // çäĺńü  ďđîâĺđęŕ îáůĺé äëčíű     
// 2745               length.bytes[1]=buf_rx_ppp[7];
??proc_ppp_packet_7:
        MOVW	R31:R30, R25:R24
        LDD	R16, Z+7
        STD	Y+1, R16
// 2746               length.bytes[0]=buf_rx_ppp[8];
        LDD	R16, Z+8
        ST	Y, R16
// 2747               if (length.word!=count_rx_ppp-8)return(1);
        LD	R16, Y
        LDD	R17, Y+1
        MOVW	R31:R30, R7:R6
        SBIW	R31:R30, 8
        CP	R16, R30
        CPC	R17, R31
        BREQ	$+2+2
        RJMP	??proc_ppp_packet_1
// 2748               if (count_rx_ppp>MAX_DL_LCP)return(1);//íĺ âîńďđčíčěŕňü äëčííűĺ ďŕęĺňű                           
        LDI	R16, 41
        CP	R6, R16
        LDI	R16, 0
        CPC	R7, R16
        BRCS	$+2+2
        RJMP	??proc_ppp_packet_1
// 2749               
// 2750               vol_length_opt=count_rx_ppp-12;
        LDI	R16, 244
        ADD	R6, R16
// 2751               count_length_opt=0;
        CLR	R0
// 2752               ind_opt=9;  
        LDI	R22, 9
// 2753              
// 2754               ln_rejc_lcp=0;
        MOVW	R31:R30, R27:R26
        STD	Z+55, R0
// 2755               ln_ack_lcp=0;
        STD	Z+57, R0
// 2756               ln_nak_lcp=0;
        STD	Z+58, R0
// 2757               ln_rej_lcp=0; 
        STD	Z+56, R0
// 2758               
// 2759                                   
// 2760              
// 2761                            
// 2762               switch (buf_rx_ppp[5])      
        LDD	R16, Z+45
        MOVW	R31:R30, R25:R24
        LDD	R17, Z+5
        SUBI	R17, 1
        BREQ	??proc_ppp_packet_11
        DEC	R17
        BRNE	$+2+2
        RJMP	??proc_ppp_packet_12
        DEC	R17
        BRNE	$+2+2
        RJMP	??proc_ppp_packet_13
        DEC	R17
        BRNE	$+2+2
        RJMP	??proc_ppp_packet_13
        DEC	R17
        BRNE	$+2+2
        RJMP	??proc_ppp_packet_14
        DEC	R17
        BRNE	$+2+2
        RJMP	??proc_ppp_packet_15
        RJMP	??proc_ppp_packet_1
// 2763                   {
// 2764                   case CONF_REQ :          
// 2765                  // (ĺńëč âîîáůĺ íĺ ňĺ îďöčč ňî ńáđîń ęîäŕ äŕňü) 
// 2766                       //ďđîâĺđęŕ ďđĺäëîćĺííîé ęîíôčăóđŕöčč îň ńĺđâĺđŕ    
// 2767                       //ĺńëč íóćíŕ˙ ęîíôčăóđŕöč˙ ňî ńîáűňčĺ RCR+                  
// 2768                       //ĺńëč íĺň ňî RCR-;                       
// 2769                     
// 2770              /*
// 2771                    for(i=0;i<vol_length_opt;i++)              //ńîăëŕřĺíčĺ íŕ ëţáóţ ęîíôčăóđŕöčţ
// 2772                        {
// 2773                        buf_ack_opt_lcp[ln_ack_lcp]=buf_rx_ppp[ind_opt];
// 2774                        ln_ack_lcp++;
// 2775                        //count_length_opt++;
// 2776                        ind_opt++;
// 2777                        }
// 2778                   
// 2779                   LCP_event=RCR_PL;
// 2780                   i_scan_lcp=buf_rx_ppp[6];    // ďđčńâîĺíčĺ čäĺíňčôčęŕňîđŕ                   
// 2781                   return(1); 
// 2782                      */
// 2783                 
// 2784                     fl_opt.zap_opt=0;  
??proc_ppp_packet_11:
        CLT
        BLD	R8, 5
        RJMP	??proc_ppp_packet_16
// 2785                 
// 2786 next_opt_lcp_11:  if(count_length_opt==vol_length_opt) { 
// 2787     
// 2788                                                              goto end_pcp_opt_11;
// 2789                                                              }   //îáđŕáîňŕíű âńĺ îďöčč
// 2790         switch(buf_rx_ppp[ind_opt])
// 2791         {
// 2792            case AUT_PROT:
// 2793 
// 2794                 if ((buf_rx_ppp[ind_opt+2]!=0xc0)||(buf_rx_ppp[ind_opt+3]!=0x23))
// 2795                 {
// 2796                   fl_opt.zap_opt=1;
// 2797                   
// 2798                                           
// 2799                   buf_nak_opt_lcp[ln_nak_lcp]=3;
// 2800                   ln_nak_lcp++;                                        
// 2801                   buf_nak_opt_lcp[ln_nak_lcp]=4;
// 2802                   ln_nak_lcp++;
// 2803                   buf_nak_opt_lcp[ln_nak_lcp]=0xc0; 
// 2804                   ln_nak_lcp++;                     
// 2805                   buf_nak_opt_lcp[ln_nak_lcp]=0x23; 
// 2806                   ln_nak_lcp++;        
// 2807                  
// 2808                   count_length_opt=count_length_opt+buf_rx_ppp[ind_opt+1];        
// 2809                   ind_opt=ind_opt+buf_rx_ppp[ind_opt+1];      
// 2810                 }
// 2811                 else for(i=0;i<buf_rx_ppp[ind_opt+1];i++){buf_ack_opt_lcp[ln_ack_lcp]=buf_rx_ppp[ind_opt+i];ln_ack_lcp++;}
??proc_ppp_packet_17:
        MOVW	R3:R2, R19:R18
        ADD	R2, R20
        ADC	R3, R21
        MOVW	R31:R30, R25:R24
        ADD	R30, R2
        ADC	R31, R3
        LD	R23, Z
        MOVW	R31:R30, R27:R26
        LDD	R2, Z+57
        CLR	R3
        MOVW	R31:R30, R3:R2
        SUBI	R30, LOW((-(buf_ack_opt_lcp) & 0xFFFF))
        SBCI	R31, (-(buf_ack_opt_lcp) & 0xFFFF) >> 8
        ST	Z, R23
        MOVW	R31:R30, R27:R26
        LDD	R23, Z+57
        INC	R23
        STD	Z+57, R23
        SUBI	R18, 255
        SBCI	R19, 255
??proc_ppp_packet_18:
        MOVW	R31:R30, R17:R16
        LDD	R2, Z+1
        CP	R18, R2
        CPC	R19, R21
        BRCS	??proc_ppp_packet_17
// 2812                 
// 2813             count_length_opt=count_length_opt+buf_rx_ppp[ind_opt+1];        
??proc_ppp_packet_19:
        MOVW	R31:R30, R25:R24
        ADD	R30, R22
        ADC	R31, R21
        LDD	R16, Z+1
        ADD	R0, R16
// 2814             ind_opt=ind_opt+buf_rx_ppp[ind_opt+1];     
        LDD	R16, Z+1
        ADD	R22, R16
// 2815             goto next_opt_lcp_11;                                  
??proc_ppp_packet_16:
        CP	R0, R6
        BRNE	$+2+2
        RJMP	??proc_ppp_packet_20
        LDI	R23, 0
        MOVW	R17:R16, R25:R24
        ADD	R16, R22
        ADC	R17, R23
        MOV	R20, R22
        LDI	R21, 0
        MOVW	R31:R30, R17:R16
        LD	R18, Z
        SUBI	R18, 3
        BRNE	??proc_ppp_packet_21
        LDD	R18, Z+2
        CPI	R18, 192
        BRNE	??proc_ppp_packet_22
        LDD	R18, Z+3
        CPI	R18, 35
        BREQ	??proc_ppp_packet_23
??proc_ppp_packet_22:
        SET
        BLD	R8, 5
        LDI	R18, 3
        MOVW	R31:R30, R27:R26
        LDD	R20, Z+58
        MOVW	R31:R30, R21:R20
        SUBI	R30, LOW((-(buf_ack_opt_lcp) & 0xFFFF))
        SBCI	R31, (-(buf_ack_opt_lcp) & 0xFFFF) >> 8
        STD	Z+28, R18
        MOVW	R31:R30, R27:R26
        LDD	R18, Z+58
        INC	R18
        STD	Z+58, R18
        LDI	R18, 4
        LDD	R20, Z+58
        MOVW	R31:R30, R21:R20
        SUBI	R30, LOW((-(buf_ack_opt_lcp) & 0xFFFF))
        SBCI	R31, (-(buf_ack_opt_lcp) & 0xFFFF) >> 8
        STD	Z+28, R18
        MOVW	R31:R30, R27:R26
        LDD	R18, Z+58
        INC	R18
        STD	Z+58, R18
        LDI	R18, 192
        LDD	R20, Z+58
        MOVW	R31:R30, R21:R20
        SUBI	R30, LOW((-(buf_ack_opt_lcp) & 0xFFFF))
        SBCI	R31, (-(buf_ack_opt_lcp) & 0xFFFF) >> 8
        STD	Z+28, R18
        MOVW	R31:R30, R27:R26
        LDD	R18, Z+58
        INC	R18
        STD	Z+58, R18
        LDI	R18, 35
        LDD	R20, Z+58
        MOVW	R31:R30, R21:R20
        SUBI	R30, LOW((-(buf_ack_opt_lcp) & 0xFFFF))
        SBCI	R31, (-(buf_ack_opt_lcp) & 0xFFFF) >> 8
        STD	Z+28, R18
        MOVW	R31:R30, R27:R26
        LDD	R18, Z+58
        INC	R18
        STD	Z+58, R18
        MOVW	R31:R30, R17:R16
        LDD	R18, Z+1
        ADD	R0, R18
        LDD	R16, Z+1
        ADD	R22, R16
        RJMP	??proc_ppp_packet_19
??proc_ppp_packet_23:
        LDI	R18, 0
        LDI	R19, 0
        RJMP	??proc_ppp_packet_18
// 2816            
// 2817              default:             
// 2818              for(i=0;i<buf_rx_ppp[ind_opt+1];i++){buf_ack_opt_lcp[ln_ack_lcp]=buf_rx_ppp[ind_opt+i];ln_ack_lcp++;}
??proc_ppp_packet_21:
        LDI	R18, 0
        LDI	R19, 0
        RJMP	??proc_ppp_packet_24
??proc_ppp_packet_25:
        MOVW	R3:R2, R19:R18
        ADD	R2, R20
        ADC	R3, R21
        MOVW	R31:R30, R25:R24
        ADD	R30, R2
        ADC	R31, R3
        LD	R23, Z
        MOVW	R31:R30, R27:R26
        LDD	R2, Z+57
        CLR	R3
        MOVW	R31:R30, R3:R2
        SUBI	R30, LOW((-(buf_ack_opt_lcp) & 0xFFFF))
        SBCI	R31, (-(buf_ack_opt_lcp) & 0xFFFF) >> 8
        ST	Z, R23
        MOVW	R31:R30, R27:R26
        LDD	R23, Z+57
        INC	R23
        STD	Z+57, R23
        SUBI	R18, 255
        SBCI	R19, 255
??proc_ppp_packet_24:
        MOVW	R31:R30, R17:R16
        LDD	R2, Z+1
        CP	R18, R2
        CPC	R19, R21
        BRCS	??proc_ppp_packet_25
// 2819              for(i=0;i<buf_rx_ppp[ind_opt+1];i++){buf_nak_opt_lcp[ln_nak_lcp]=buf_rx_ppp[ind_opt+i];ln_nak_lcp++;}
        LDI	R18, 0
        LDI	R19, 0
??proc_ppp_packet_26:
        MOVW	R31:R30, R17:R16
        LDD	R2, Z+1
        CP	R18, R2
        CPC	R19, R21
        BRCS	$+2+2
        RJMP	??proc_ppp_packet_19
        MOVW	R3:R2, R19:R18
        ADD	R2, R20
        ADC	R3, R21
        MOVW	R31:R30, R25:R24
        ADD	R30, R2
        ADC	R31, R3
        LD	R23, Z
        MOVW	R31:R30, R27:R26
        LDD	R2, Z+58
        CLR	R3
        MOVW	R31:R30, R3:R2
        SUBI	R30, LOW((-(buf_ack_opt_lcp) & 0xFFFF))
        SBCI	R31, (-(buf_ack_opt_lcp) & 0xFFFF) >> 8
        STD	Z+28, R23
        MOVW	R31:R30, R27:R26
        LDD	R23, Z+58
        INC	R23
        STD	Z+58, R23
        SUBI	R18, 255
        SBCI	R19, 255
        RJMP	??proc_ppp_packet_26
// 2820              count_length_opt=count_length_opt+buf_rx_ppp[ind_opt+1];        
// 2821              ind_opt=ind_opt+buf_rx_ppp[ind_opt+1];   
// 2822              goto next_opt_lcp_11; 
// 2823         }
// 2824                          
// 2825    end_pcp_opt_11:                     
// 2826                 
// 2827                   if(fl_opt.zap_opt==0)LCP_event=RCR_PL;else LCP_event=RCR_MI;
??proc_ppp_packet_20:
        BST	R8, 5
        BRTS	??proc_ppp_packet_27
        LDI	R16, 6
        RJMP	??proc_ppp_packet_28
??proc_ppp_packet_27:
        LDI	R16, 7
??proc_ppp_packet_28:
        MOVW	R31:R30, R27:R26
        STD	Z+19, R16
// 2828                   fl_opt.zap_opt=0;
// 2829                   i_scan_lcp=buf_rx_ppp[6];    // ďđčńâîĺíčĺ čäĺíňčôčęŕňîđŕ                   
        MOVW	R31:R30, R25:R24
        LDD	R16, Z+6
        MOVW	R31:R30, R27:R26
        STD	Z+46, R16
        RJMP	??proc_ppp_packet_1
// 2830                   return(1); 
// 2831                      
// 2832                    
// 2833                   
// 2834        next_opt_lcp_1:  if(count_length_opt==vol_length_opt) { 
// 2835     
// 2836                                                              goto end_pcp_opt_1;
// 2837                                                              }   //îáđŕáîňŕíű âńĺ îďöčč
// 2838                        
// 2839                        switch(buf_rx_ppp[ind_opt])
// 2840                           {
// 2841                             case MRU: 
// 2842    
// 2843                                  if (buf_rx_ppp[ind_opt+1]!=4)
// 2844                                       {                                        
// 2845                                         for(i=5;i<=count_rx_ppp-4;i++){buf_rejc_opt_lcp[ln_rejc_lcp]=buf_rx_ppp[i];ln_rejc_lcp++;}
// 2846                                         LCP_event=RUC;
// 2847                                         return(1);
// 2848                                         } 
// 2849                                  if ((buf_rx_ppp[ind_opt+2]==DL_PPP_IN_HI)&&(buf_rx_ppp[ind_opt+3]==DL_PPP_IN_LO)) 
// 2850                                        {    
// 2851                                         fl_opt.mru=1;
// 2852                                         buf_ack_opt_lcp[ln_ack_lcp]=buf_rx_ppp[ind_opt];
// 2853                                         ln_ack_lcp++;
// 2854                                         
// 2855                                         buf_ack_opt_lcp[ln_ack_lcp]=buf_rx_ppp[ind_opt+1];
// 2856                                         ln_ack_lcp++;
// 2857                                         
// 2858                                         buf_ack_opt_lcp[ln_ack_lcp]=buf_rx_ppp[ind_opt+2]; 
// 2859                                         ln_ack_lcp++;  
// 2860                                         
// 2861                                         buf_ack_opt_lcp[ln_ack_lcp]=buf_rx_ppp[ind_opt+3]; 
// 2862                                         ln_ack_lcp++; 
// 2863                                        }
// 2864                                      else   
// 2865                                         {
// 2866                                         buf_nak_opt_lcp[ln_nak_lcp]=buf_rx_ppp[ind_opt];
// 2867                                         ln_nak_lcp++;
// 2868                                         
// 2869                                         buf_nak_opt_lcp[ln_nak_lcp]=buf_rx_ppp[ind_opt+1];
// 2870                                         ln_nak_lcp++;
// 2871                                         
// 2872                                         buf_nak_opt_lcp[ln_nak_lcp]=buf_rx_ppp[ind_opt+2]; 
// 2873                                         ln_nak_lcp++;  
// 2874                                         
// 2875                                         buf_nak_opt_lcp[ln_nak_lcp]=buf_rx_ppp[ind_opt+3]; 
// 2876                                         ln_nak_lcp++; 
// 2877                                         }  
// 2878                                  count_length_opt=count_length_opt+buf_rx_ppp[ind_opt+1];        
// 2879                                  ind_opt=ind_opt+buf_rx_ppp[ind_opt+1];
// 2880                                  goto next_opt_lcp_1;   
// 2881                                  
// 2882                             case ACCM:       
// 2883                                   if (buf_rx_ppp[ind_opt+1]!=6)
// 2884                                       {
// 2885                                         for(i=5;i<=count_rx_ppp-4;i++){buf_rejc_opt_lcp[ln_rejc_lcp]=buf_rx_ppp[i];ln_rejc_lcp++;}
// 2886                                         LCP_event=RUC;
// 2887                                         return(1);
// 2888                                         } 
// 2889                                     
// 2890                                     if ( 
// 2891                                            (buf_rx_ppp[ind_opt+2]==0)&&
// 2892                                            (buf_rx_ppp[ind_opt+3]==0)&& 
// 2893                                            (buf_rx_ppp[ind_opt+4]==0)&&
// 2894                                            (buf_rx_ppp[ind_opt+5]==0) 
// 2895                                         ) 
// 2896                                        
// 2897                                        {   
// 2898                                        
// 2899                                         fl_opt.accm=1;
// 2900                                         buf_ack_opt_lcp[ln_ack_lcp]=buf_rx_ppp[ind_opt];
// 2901                                         ln_ack_lcp++;
// 2902                                         
// 2903                                         buf_ack_opt_lcp[ln_ack_lcp]=buf_rx_ppp[ind_opt+1];
// 2904                                         ln_ack_lcp++;
// 2905                                         
// 2906                                         buf_ack_opt_lcp[ln_ack_lcp]=buf_rx_ppp[ind_opt+2]; 
// 2907                                         ln_ack_lcp++;  
// 2908                                         
// 2909                                         buf_ack_opt_lcp[ln_ack_lcp]=buf_rx_ppp[ind_opt+3]; 
// 2910                                         ln_ack_lcp++; 
// 2911                                         
// 2912                                         buf_ack_opt_lcp[ln_ack_lcp]=buf_rx_ppp[ind_opt+4]; 
// 2913                                         ln_ack_lcp++;
// 2914                                         
// 2915                                         buf_ack_opt_lcp[ln_ack_lcp]=buf_rx_ppp[ind_opt+5]; 
// 2916                                         ln_ack_lcp++;
// 2917                                        }
// 2918                                      else   
// 2919                                         {
// 2920                                         buf_nak_opt_lcp[ln_nak_lcp]=buf_rx_ppp[ind_opt];
// 2921                                         ln_nak_lcp++;
// 2922                                         
// 2923                                         buf_nak_opt_lcp[ln_nak_lcp]=buf_rx_ppp[ind_opt+1];
// 2924                                         ln_nak_lcp++;
// 2925                                         
// 2926                                         buf_nak_opt_lcp[ln_nak_lcp]=buf_rx_ppp[ind_opt+2]; 
// 2927                                         ln_nak_lcp++;  
// 2928                                         
// 2929                                         buf_nak_opt_lcp[ln_nak_lcp]=buf_rx_ppp[ind_opt+3]; 
// 2930                                         ln_nak_lcp++;    
// 2931                                         
// 2932                                         buf_nak_opt_lcp[ln_nak_lcp]=buf_rx_ppp[ind_opt+4]; 
// 2933                                         ln_nak_lcp++;  
// 2934                                         
// 2935                                         buf_nak_opt_lcp[ln_nak_lcp]=buf_rx_ppp[ind_opt+5]; 
// 2936                                         ln_nak_lcp++; 
// 2937                                         }  
// 2938                                  count_length_opt=count_length_opt+buf_rx_ppp[ind_opt+1];        
// 2939                                  ind_opt=ind_opt+buf_rx_ppp[ind_opt+1];
// 2940                                  goto next_opt_lcp_1;                                       
// 2941 
// 2942                                      
// 2943                             
// 2944                             case AUT_PROT:
// 2945                                       if (((buf_rx_ppp[ind_opt+1]-2)%2)!=0) 
// 2946                                           {
// 2947                                            for(i=5;i<=count_rx_ppp-4;i++){buf_rejc_opt_lcp[ln_rejc_lcp]=buf_rx_ppp[i];ln_rejc_lcp++;}
// 2948                                            LCP_event=RUC;
// 2949                                            return(1);
// 2950                                           }  
// 2951                                       for(i=0;i<(buf_rx_ppp[ind_opt+1]-2);i=i+2)               
// 2952                                          {
// 2953                                          if ((buf_rx_ppp[ind_opt+2+i]==0xc0)&&(buf_rx_ppp[ind_opt+3+i]==0x23)) 
// 2954                                               {
// 2955                                                
// 2956                                                fl_opt.aut_prot=1;
// 2957                                                
// 2958                                                buf_ack_opt_lcp[ln_ack_lcp]=buf_rx_ppp[ind_opt];
// 2959                                                ln_ack_lcp++;
// 2960                                    
// 2961                                                buf_ack_opt_lcp[ln_ack_lcp]=buf_rx_ppp[ind_opt+1];
// 2962                                                ln_ack_lcp++;
// 2963                                         
// 2964                                                buf_ack_opt_lcp[ln_ack_lcp]=buf_rx_ppp[ind_opt+2+i]; 
// 2965                                                ln_ack_lcp++;  
// 2966                                         
// 2967                                                buf_ack_opt_lcp[ln_ack_lcp]=buf_rx_ppp[ind_opt+3+i]; 
// 2968                                                ln_ack_lcp++; 
// 2969                                               }
// 2970                                             else   
// 2971                                              {
// 2972                                              
// 2973                                              if (fl_opt.zap_opt==0)
// 2974                                                  {
// 2975                                                   fl_opt.zap_opt=1;                                            
// 2976                                                   buf_nak_opt_lcp[ln_nak_lcp]=buf_rx_ppp[ind_opt];
// 2977                                                   ln_nak_lcp++;                                        
// 2978                                                   buf_nak_opt_lcp[ln_nak_lcp]=buf_rx_ppp[ind_opt+1];
// 2979                                                   ln_nak_lcp++;
// 2980                                                   }
// 2981                                              buf_nak_opt_lcp[ln_nak_lcp]=buf_rx_ppp[ind_opt+2+i]; 
// 2982                                              ln_nak_lcp++;                     
// 2983                                               buf_nak_opt_lcp[ln_nak_lcp]=buf_rx_ppp[ind_opt+3+i]; 
// 2984                                              ln_nak_lcp++;                                             
// 2985                                             }              
// 2986                                             
// 2987                                            }  
// 2988                                  count_length_opt=count_length_opt+buf_rx_ppp[ind_opt+1];        
// 2989                                  ind_opt=ind_opt+buf_rx_ppp[ind_opt+1];          
// 2990                                  goto next_opt_lcp_1;                   
// 2991                                   
// 2992                             case PFC:
// 2993                                   if (buf_rx_ppp[ind_opt+1]!=2)
// 2994                                       {                                        
// 2995                                         for(i=5;i<=count_rx_ppp-4;i++){buf_rejc_opt_lcp[ln_rejc_lcp]=buf_rx_ppp[i];ln_rejc_lcp++;}
// 2996                                         LCP_event=RUC;
// 2997                                         return(1);
// 2998                                         } 
// 2999 
// 3000 
// 3001                                         fl_opt.pfc=1;
// 3002                                         buf_ack_opt_lcp[ln_ack_lcp]=buf_rx_ppp[ind_opt];
// 3003                                         ln_ack_lcp++;
// 3004                                         
// 3005                                         buf_ack_opt_lcp[ln_ack_lcp]=buf_rx_ppp[ind_opt+1];
// 3006                                         ln_ack_lcp++;                                        
// 3007                                         
// 3008                                         count_length_opt=count_length_opt+buf_rx_ppp[ind_opt+1];        
// 3009                                         ind_opt=ind_opt+buf_rx_ppp[ind_opt+1];          
// 3010                                         goto next_opt_lcp_1;   
// 3011                                          
// 3012                                   
// 3013                             case ACFC:      
// 3014                                    if (buf_rx_ppp[ind_opt+1]!=2)
// 3015                                       {                                        
// 3016                                         for(i=5;i<=count_rx_ppp-4;i++){buf_rejc_opt_lcp[ln_rejc_lcp]=buf_rx_ppp[i];ln_rejc_lcp++;}
// 3017                                         LCP_event=RUC;
// 3018                                         return(1);
// 3019                                         } 
// 3020                                         
// 3021                                         
// 3022                                         fl_opt.acfc=1;
// 3023                                         buf_ack_opt_lcp[ln_ack_lcp]=buf_rx_ppp[ind_opt];
// 3024                                         ln_ack_lcp++;
// 3025                                         
// 3026                                         buf_ack_opt_lcp[ln_ack_lcp]=buf_rx_ppp[ind_opt+1];
// 3027                                         ln_ack_lcp++;                                        
// 3028                                         
// 3029                                         count_length_opt=count_length_opt+buf_rx_ppp[ind_opt+1];        
// 3030                                         ind_opt=ind_opt+buf_rx_ppp[ind_opt+1];          
// 3031                                         goto next_opt_lcp_1;   
// 3032                             
// 3033                             default:
// 3034 
// 3035                                         for(i=0;i<buf_rx_ppp[ind_opt+1];i++){buf_rej_opt_lcp[ln_rej_lcp]=buf_rx_ppp[ind_opt+i];ln_rej_lcp++;}
// 3036                                         count_length_opt=count_length_opt+buf_rx_ppp[ind_opt+1];        
// 3037                                         ind_opt=ind_opt+buf_rx_ppp[ind_opt+1];      
// 3038                                   goto next_opt_lcp_1;        
// 3039                           }
// 3040                                             
// 3041  end_pcp_opt_1:        
// 3042                        
// 3043                    
// 3044                                                                                 
// 3045                        
// 3046                        if (ln_rej_lcp!=0)                    
// 3047                          {
// 3048      
// 3049                          LCP_event=RCR_MI;
// 3050                          fl_lcp2.nac_rej=1;
// 3051                          return(1); 
// 3052                          }
// 3053                        
// 3054                        
// 3055                         /*
// 3056                     
// 3057                       if(fl_opt.mru==0) 
// 3058                            {   
// 3059            
// 3060                             buf_nak_opt_lcp[ln_nak_lcp]=MRU;
// 3061                             ln_nak_lcp++;
// 3062                                         
// 3063                             buf_nak_opt_lcp[ln_nak_lcp]=4;
// 3064                             ln_nak_lcp++;
// 3065                                         
// 3066                             buf_nak_opt_lcp[ln_nak_lcp]=DL_PPP_IN_HI; 
// 3067                             ln_nak_lcp++;  
// 3068                             
// 3069                             buf_nak_opt_lcp[ln_nak_lcp]=DL_PPP_IN_LO; 
// 3070                             ln_nak_lcp++;                                                    
// 3071                            }
// 3072                            
// 3073                            */
// 3074                            
// 3075                       if(fl_opt.accm==0) 
// 3076                             {  
// 3077                             buf_nak_opt_lcp[ln_nak_lcp]=ACCM;
// 3078                             ln_nak_lcp++;                                        
// 3079                             buf_nak_opt_lcp[ln_nak_lcp]=6;
// 3080                             ln_nak_lcp++;
// 3081                             buf_nak_opt_lcp[ln_nak_lcp]=0; 
// 3082                             ln_nak_lcp++;  
// 3083                             buf_nak_opt_lcp[ln_nak_lcp]=0; 
// 3084                             ln_nak_lcp++;             
// 3085                             buf_nak_opt_lcp[ln_nak_lcp]=0; 
// 3086                             ln_nak_lcp++;                              
// 3087                             buf_nak_opt_lcp[ln_nak_lcp]=0; 
// 3088                             ln_nak_lcp++; 
// 3089                             }
// 3090                                      
// 3091                       if(fl_opt.aut_prot==0) 
// 3092                             {    
// 3093                               
// 3094                       
// 3095                          
// 3096                              
// 3097                             buf_nak_opt_lcp[ln_nak_lcp]=AUT_PROT;
// 3098                             ln_nak_lcp++;
// 3099                                         
// 3100                             buf_nak_opt_lcp[ln_nak_lcp]=4;
// 3101                             ln_nak_lcp++;
// 3102                                         
// 3103                             buf_nak_opt_lcp[ln_nak_lcp]=0xc0; 
// 3104                             ln_nak_lcp++;  
// 3105                             
// 3106                             buf_nak_opt_lcp[ln_nak_lcp]=0x23; 
// 3107                             ln_nak_lcp++;                    
// 3108                             }   
// 3109                       if(fl_opt.pfc==0) 
// 3110                             { 
// 3111                             buf_nak_opt_lcp[ln_nak_lcp]=PFC;
// 3112                             ln_nak_lcp++;
// 3113                                         
// 3114                             buf_nak_opt_lcp[ln_nak_lcp]=2;
// 3115                             ln_nak_lcp++; 
// 3116                             }                  
// 3117                      if(fl_opt.acfc==0) 
// 3118                             { 
// 3119                              buf_nak_opt_lcp[ln_nak_lcp]=ACFC;
// 3120                             ln_nak_lcp++;
// 3121                                         
// 3122                             buf_nak_opt_lcp[ln_nak_lcp]=2;
// 3123                             ln_nak_lcp++; 
// 3124                             }                   
// 3125                          
// 3126                 
// 3127                  
// 3128                                          
// 3129                          if (ln_nak_lcp!=0)                    
// 3130                          { 
// 3131        
// 3132                          LCP_event=RCR_MI;
// 3133                          fl_lcp2.nac_rej=0;  
// 3134                          i_scan_lcp=buf_rx_ppp[6];     // ďđčńâîĺíčĺ čäĺíňčôčęŕňîđŕ                 
// 3135                          return(1); 
// 3136                          } 
// 3137                        
// 3138                          if (ln_ack_lcp!=0)                    
// 3139                          {
// 3140                          
// 3141                          
// 3142                          LCP_event=RCR_PL;
// 3143                          i_scan_lcp=buf_rx_ppp[6];    // ďđčńâîĺíčĺ čäĺíňčôčęŕňîđŕ                   
// 3144                          return(1); 
// 3145                          }  
// 3146                       
// 3147                       
// 3148                         
// 3149                       break;    
// 3150                        
// 3151                   case CONF_ACK : 
// 3152                       //ďđîâĺđęŕ îďöčé (ĺńëč âîîáůĺ íĺ ňĺ îďöčč ňî ńáđîń ęîäŕ äŕňü)
// 3153                       //îďöčč ňŕ, ňî ńîáűňčĺ RCA
// 3154                     
// 3155                                           
// 3156                     
// 3157                     if(buf_rx_ppp[6]!=i_scr_lcp)return(1);                        //ďđîâĺđęŕ čäĺíňčôčęŕňîđŕ
??proc_ppp_packet_12:
        LDD	R17, Z+6
        CP	R17, R16
        BREQ	??proc_ppp_packet_29
        RJMP	??proc_ppp_packet_1
// 3158                       
// 3159    next_opt_lcp_2:  if(count_length_opt==vol_length_opt) goto end_pcp_opt_2;   //îáđŕáîňŕíű âńĺ îďöčč
// 3160                        
// 3161                        switch(buf_rx_ppp[ind_opt])
// 3162                           {
// 3163                             case ACCM:       
// 3164                                   if (buf_rx_ppp[ind_opt+1]!=6)
// 3165                                       {
// 3166                                         for(i=5;i<=count_rx_ppp-4;i++){buf_rejc_opt_lcp[ln_rejc_lcp]=buf_rx_ppp[i];ln_rejc_lcp++;}
// 3167                                         LCP_event=RUC;
// 3168                                         return(1);
// 3169                                         } 
// 3170                                     
// 3171                                     if ( 
// 3172                                            (buf_rx_ppp[ind_opt+2]==0)&&
// 3173                                            (buf_rx_ppp[ind_opt+3]==0x0a)&& 
// 3174                                            (buf_rx_ppp[ind_opt+4]==0)&&
// 3175                                            (buf_rx_ppp[ind_opt+5]==0) 
// 3176                                         )  fl_opt.accm=1;                                        
??proc_ppp_packet_30:
        LDD	R16, Z+2
        TST	R16
        BRNE	??proc_ppp_packet_31
        LDD	R16, Z+3
        CPI	R16, 10
        BRNE	??proc_ppp_packet_31
        LDD	R16, Z+4
        TST	R16
        BRNE	??proc_ppp_packet_31
        LDD	R16, Z+5
        TST	R16
        BRNE	??proc_ppp_packet_31
        SET
        BLD	R8, 1
// 3177                                      
// 3178                                        
// 3179                                      
// 3180                                       
// 3181                                  count_length_opt=count_length_opt+buf_rx_ppp[ind_opt+1];        
??proc_ppp_packet_31:
        LDD	R16, Z+1
        ADD	R0, R16
// 3182                                  ind_opt=ind_opt+buf_rx_ppp[ind_opt+1];
        LDD	R16, Z+1
        ADD	R22, R16
// 3183                                  goto next_opt_lcp_2;     
??proc_ppp_packet_29:
        CP	R0, R6
        BRNE	$+2+2
        RJMP	??proc_ppp_packet_32
        LDI	R23, 0
        MOVW	R31:R30, R25:R24
        ADD	R30, R22
        ADC	R31, R23
        LD	R16, Z
        SUBI	R16, 2
        BREQ	??proc_ppp_packet_33
        SUBI	R16, 5
        BREQ	??proc_ppp_packet_34
        DEC	R16
        BREQ	??proc_ppp_packet_35
        RJMP	??proc_ppp_packet_36
??proc_ppp_packet_33:
        LDD	R16, Z+1
        CPI	R16, 6
        BREQ	??proc_ppp_packet_30
        LDI	R18, 5
        LDI	R19, 0
        RJMP	??proc_ppp_packet_37
??proc_ppp_packet_38:
        MOVW	R31:R30, R25:R24
        ADD	R30, R18
        ADC	R31, R19
        LD	R22, Z
        MOVW	R31:R30, R27:R26
        LDD	R16, Z+55
        LDI	R17, 0
        MOVW	R31:R30, R17:R16
        SUBI	R30, LOW((-(buf_rejc_opt_lcp) & 0xFFFF))
        SBCI	R31, (-(buf_rejc_opt_lcp) & 0xFFFF) >> 8
        ST	Z, R22
        MOVW	R31:R30, R27:R26
        LDD	R16, Z+55
        INC	R16
        STD	Z+55, R16
        SUBI	R18, 255
        SBCI	R19, 255
??proc_ppp_packet_37:
        CP	R20, R18
        CPC	R21, R19
        BRCC	??proc_ppp_packet_38
??proc_ppp_packet_39:
        LDI	R16, 12
        MOVW	R31:R30, R27:R26
        STD	Z+19, R16
        RJMP	??proc_ppp_packet_1
// 3184                               
// 3185                               case PFC:
// 3186                                   if (buf_rx_ppp[ind_opt+1]!=2)
??proc_ppp_packet_34:
        LDD	R16, Z+1
        CPI	R16, 2
        BREQ	??proc_ppp_packet_40
// 3187                                       {                                        
// 3188                                         for(i=5;i<=count_rx_ppp-4;i++){buf_rejc_opt_lcp[ln_rejc_lcp]=buf_rx_ppp[i];ln_rejc_lcp++;}
        LDI	R18, 5
        LDI	R19, 0
??proc_ppp_packet_41:
        CP	R20, R18
        CPC	R21, R19
        BRCS	??proc_ppp_packet_39
        MOVW	R31:R30, R25:R24
        ADD	R30, R18
        ADC	R31, R19
        LD	R22, Z
        MOVW	R31:R30, R27:R26
        LDD	R16, Z+55
        LDI	R17, 0
        MOVW	R31:R30, R17:R16
        SUBI	R30, LOW((-(buf_rejc_opt_lcp) & 0xFFFF))
        SBCI	R31, (-(buf_rejc_opt_lcp) & 0xFFFF) >> 8
        ST	Z, R22
        MOVW	R31:R30, R27:R26
        LDD	R16, Z+55
        INC	R16
        STD	Z+55, R16
        SUBI	R18, 255
        SBCI	R19, 255
        RJMP	??proc_ppp_packet_41
// 3189                                         LCP_event=RUC;
// 3190                                         return(1);
// 3191                                         } 
// 3192 
// 3193                                         fl_opt.pfc=1;
??proc_ppp_packet_40:
        SET
        BLD	R8, 3
        RJMP	??proc_ppp_packet_31
// 3194                                         count_length_opt=count_length_opt+buf_rx_ppp[ind_opt+1];        
// 3195                                         ind_opt=ind_opt+buf_rx_ppp[ind_opt+1];          
// 3196                                         goto next_opt_lcp_2;   
// 3197                                          
// 3198                                   
// 3199                             case ACFC:      
// 3200                                    if (buf_rx_ppp[ind_opt+1]!=2)
??proc_ppp_packet_35:
        LDD	R16, Z+1
        CPI	R16, 2
        BREQ	??proc_ppp_packet_42
// 3201                                       {                                        
// 3202                                         for(i=5;i<=count_rx_ppp-4;i++){buf_rejc_opt_lcp[ln_rejc_lcp]=buf_rx_ppp[i];ln_rejc_lcp++;}
        LDI	R18, 5
        LDI	R19, 0
??proc_ppp_packet_43:
        CP	R20, R18
        CPC	R21, R19
        BRCS	??proc_ppp_packet_39
        MOVW	R31:R30, R25:R24
        ADD	R30, R18
        ADC	R31, R19
        LD	R22, Z
        MOVW	R31:R30, R27:R26
        LDD	R16, Z+55
        LDI	R17, 0
        MOVW	R31:R30, R17:R16
        SUBI	R30, LOW((-(buf_rejc_opt_lcp) & 0xFFFF))
        SBCI	R31, (-(buf_rejc_opt_lcp) & 0xFFFF) >> 8
        ST	Z, R22
        MOVW	R31:R30, R27:R26
        LDD	R16, Z+55
        INC	R16
        STD	Z+55, R16
        SUBI	R18, 255
        SBCI	R19, 255
        RJMP	??proc_ppp_packet_43
// 3203                                         LCP_event=RUC;
// 3204                                         return(1);
// 3205                                         } 
// 3206 
// 3207                                         fl_opt.acfc=1;
??proc_ppp_packet_42:
        SET
        BLD	R8, 4
        RJMP	??proc_ppp_packet_31
// 3208                                                                             
// 3209                                         
// 3210                                         count_length_opt=count_length_opt+buf_rx_ppp[ind_opt+1];        
// 3211                                         ind_opt=ind_opt+buf_rx_ppp[ind_opt+1];          
// 3212                                         goto next_opt_lcp_2;      
// 3213                             
// 3214                             default:    for(i=5;i<=count_rx_ppp-4;i++){buf_rejc_opt_lcp[ln_rejc_lcp]=buf_rx_ppp[i];ln_rejc_lcp++;}
??proc_ppp_packet_36:
        LDI	R18, 5
        LDI	R19, 0
??proc_ppp_packet_44:
        CP	R20, R18
        CPC	R21, R19
        BRCC	$+2+2
        RJMP	??proc_ppp_packet_39
        MOVW	R31:R30, R25:R24
        ADD	R30, R18
        ADC	R31, R19
        LD	R22, Z
        MOVW	R31:R30, R27:R26
        LDD	R16, Z+55
        LDI	R17, 0
        MOVW	R31:R30, R17:R16
        SUBI	R30, LOW((-(buf_rejc_opt_lcp) & 0xFFFF))
        SBCI	R31, (-(buf_rejc_opt_lcp) & 0xFFFF) >> 8
        ST	Z, R22
        MOVW	R31:R30, R27:R26
        LDD	R16, Z+55
        INC	R16
        STD	Z+55, R16
        SUBI	R18, 255
        SBCI	R19, 255
        RJMP	??proc_ppp_packet_44
// 3215                                         LCP_event=RUC;
// 3216                                         return(1);    
// 3217                                   
// 3218                           }
// 3219                       
// 3220                       
// 3221   end_pcp_opt_2:      if((fl_opt.accm==1)&&(fl_opt.acfc==1)&&(fl_opt.pfc==1))
??proc_ppp_packet_32:
        LDI	R16, 26
        AND	R8, R16
        CP	R8, R16
        BRNE	??proc_ppp_packet_45
// 3222                         {       
// 3223                                   
// 3224                          LCP_event=RCA;
        LDI	R16, 8
        MOVW	R31:R30, R27:R26
        STD	Z+19, R16
// 3225                          i_scr_lcp++;//ďđčđŕůĺíčĺ čäĺíňčôčęŕňîđŕ                      
        LDD	R16, Z+45
        INC	R16
        STD	Z+45, R16
        RJMP	??proc_ppp_packet_1
// 3226                          return(1);      
// 3227                         } 
// 3228                         else
// 3229                         {
// 3230                         for(i=5;i<=count_rx_ppp-4;i++){buf_rejc_opt_lcp[ln_rejc_lcp]=buf_rx_ppp[i];ln_rejc_lcp++;}
??proc_ppp_packet_45:
        LDI	R18, 5
        LDI	R19, 0
??proc_ppp_packet_46:
        CP	R20, R18
        CPC	R21, R19
        BRCC	$+2+2
        RJMP	??proc_ppp_packet_39
        MOVW	R31:R30, R25:R24
        ADD	R30, R18
        ADC	R31, R19
        LD	R22, Z
        MOVW	R31:R30, R27:R26
        LDD	R16, Z+55
        LDI	R17, 0
        MOVW	R31:R30, R17:R16
        SUBI	R30, LOW((-(buf_rejc_opt_lcp) & 0xFFFF))
        SBCI	R31, (-(buf_rejc_opt_lcp) & 0xFFFF) >> 8
        ST	Z, R22
        MOVW	R31:R30, R27:R26
        LDD	R16, Z+55
        INC	R16
        STD	Z+55, R16
        SUBI	R18, 255
        SBCI	R19, 255
        RJMP	??proc_ppp_packet_46
// 3231                         LCP_event=RUC;
// 3232                         return(1);               
// 3233                         }
// 3234                                 
// 3235                        
// 3236                   case CONF_NAK :                     
// 3237                         // ňî RCN íî âńĺ đŕâíî çŕďđîń ňĺő ćĺ îďöčé  
// 3238                       if(buf_rx_ppp[6]!=i_scr_lcp)return(1);                        //ďđîâĺđęŕ čäĺíňčôčęŕňîđŕ
??proc_ppp_packet_13:
        LDD	R17, Z+6
        CP	R17, R16
        BREQ	$+2+2
        RJMP	??proc_ppp_packet_1
// 3239                       i_scr_lcp++;//ďđčđŕůĺíčĺ čäĺíňčôčęŕňîđŕ
        MOVW	R31:R30, R27:R26
        LDD	R16, Z+45
        INC	R16
        STD	Z+45, R16
// 3240                       LCP_event=RCN; 
        STD	Z+19, R22
        RJMP	??proc_ppp_packet_1
// 3241                       
// 3242                       
// 3243                       return(1); 
// 3244                   case CONF_REJ :
// 3245                        // ňî RCN íî âńĺ đŕâíî çŕďđîń ňĺő ćĺ îďöčé 
// 3246                       if(buf_rx_ppp[6]!=i_scr_lcp)return(1);                        //ďđîâĺđęŕ čäĺíňčôčęŕňîđŕ
// 3247                       i_scr_lcp++;//ďđčđŕůĺíčĺ čäĺíňčôčęŕňîđŕ
// 3248                       LCP_event=RCN;
// 3249 
// 3250                       return(1);      
// 3251                        
// 3252                   case TERM_REQ :
// 3253                        LCP_event=RTR;
??proc_ppp_packet_14:
        LDI	R16, 10
        MOVW	R31:R30, R27:R26
        STD	Z+19, R16
// 3254                        i_sta_lcp=buf_rx_ppp[6];   // ďđčńâîĺíčĺ čäĺíňčôčęŕňîđŕ
        MOVW	R31:R30, R25:R24
        LDD	R16, Z+6
        MOVW	R31:R30, R27:R26
        STD	Z+49, R16
        RJMP	??proc_ppp_packet_1
// 3255                        return(1); 
// 3256                   case TERM_ACK : 
// 3257                       if(buf_rx_ppp[6]!=i_str_lcp)return(1); 
??proc_ppp_packet_15:
        LDD	R16, Z+6
        MOVW	R31:R30, R27:R26
        LDD	R17, Z+48
        CP	R16, R17
        BREQ	$+2+2
        RJMP	??proc_ppp_packet_1
// 3258                       LCP_event=RTA;
        LDI	R16, 11
        STD	Z+19, R16
// 3259                       i_str_lcp++;   //ďđčđŕůĺíčĺ čäĺíňčôčęŕňîđŕ
        LDD	R16, Z+48
        INC	R16
        STD	Z+48, R16
        RJMP	??proc_ppp_packet_1
// 3260                       return(1);  
// 3261                   case CODE_REJ :;   //ęŕę ňî ńčăíŕëčçčđîâŕňü. íî íč÷ĺăî íĺ äĺëŕňü
// 3262                       return(1);                   
// 3263                   } 
// 3264                     
// 3265        break;
// 3266        case PR_PAP:   
// 3267             
// 3268             
// 3269             
// 3270           
// 3271   
// 3272                
// 3273             // çäĺńü  ďđîâĺđęŕ îáůĺé äëčíű     
// 3274               length.bytes[1]=buf_rx_ppp[5];
??proc_ppp_packet_8:
        MOVW	R31:R30, R25:R24
        LDD	R18, Z+5
        STD	Y+1, R18
// 3275               length.bytes[0]=buf_rx_ppp[6];
        LDD	R18, Z+6
        ST	Y, R18
// 3276               if (length.word!=count_rx_ppp-6)return(1);
        LD	R18, Y
        LDD	R19, Y+1
        CP	R18, R16
        CPC	R19, R17
        BREQ	$+2+2
        RJMP	??proc_ppp_packet_1
// 3277               if (count_rx_ppp>MAX_DL_PAP)return(1);//íĺ âîńďđčíčěŕňü äëčííűĺ ďŕęĺňű                           
        LDI	R16, 61
        CP	R6, R16
        LDI	R16, 0
        CPC	R7, R16
        BRCS	$+2+2
        RJMP	??proc_ppp_packet_1
// 3278                 
// 3279 
// 3280                            
// 3281               switch (buf_rx_ppp[3])      
        MOVW	R31:R30, R27:R26
        LDD	R16, Z+54
        MOVW	R31:R30, R25:R24
        LDD	R17, Z+3
        SUBI	R17, 2
        BREQ	??proc_ppp_packet_47
        DEC	R17
        BREQ	??proc_ppp_packet_48
        RJMP	??proc_ppp_packet_1
// 3282                   {
// 3283                   case CONF_ACK :
// 3284                        if(buf_rx_ppp[4]!=i_scr_pap)return(1);     //ďđîâĺđęŕ čäĺíňčôčęŕňîđŕ
??proc_ppp_packet_47:
        LDD	R17, Z+4
        CP	R17, R16
        BREQ	$+2+2
        RJMP	??proc_ppp_packet_1
// 3285                        PAP_event=RCA; 
        LDI	R16, 8
??proc_ppp_packet_49:
        MOVW	R31:R30, R27:R26
        STD	Z+18, R16
        RJMP	??proc_ppp_packet_1
// 3286                        return(1);
// 3287                   case CONF_NAK :                      
// 3288                        if(buf_rx_ppp[4]!=i_scr_pap)return(1);     //ďđîâĺđęŕ čäĺíňčôčęŕňîđŕ
??proc_ppp_packet_48:
        LDD	R17, Z+4
        CP	R17, R16
        BREQ	$+2+2
        RJMP	??proc_ppp_packet_1
// 3289                        PAP_event=RCN;
        LDI	R16, 9
        RJMP	??proc_ppp_packet_49
// 3290                        return(1);
// 3291                   } 
// 3292         
// 3293        break;
// 3294        
// 3295        
// 3296        case PR_IPCP: 
// 3297        
// 3298              
// 3299               
// 3300               // çäĺńü  ďđîâĺđęŕ îáůĺé äëčíű     
// 3301               length.bytes[1]=buf_rx_ppp[5];
??proc_ppp_packet_9:
        MOVW	R31:R30, R25:R24
        LDD	R18, Z+5
        STD	Y+1, R18
// 3302               length.bytes[0]=buf_rx_ppp[6];
        LDD	R18, Z+6
        ST	Y, R18
// 3303               if (length.word!=count_rx_ppp-6)return(1);
        LD	R18, Y
        LDD	R19, Y+1
        CP	R18, R16
        CPC	R19, R17
        BREQ	$+2+2
        RJMP	??proc_ppp_packet_1
// 3304               if (count_rx_ppp>MAX_DL_IPCP)return(1);//íĺ âîńďđčíčěŕňü äëčííűĺ ďŕęĺňű                           
        LDI	R16, 36
        CP	R6, R16
        LDI	R16, 0
        CPC	R7, R16
        BRCS	$+2+2
        RJMP	??proc_ppp_packet_1
// 3305               
// 3306               vol_length_opt=count_rx_ppp-10;
        LDI	R16, 246
        ADD	R6, R16
// 3307               count_length_opt=0;
        CLR	R0
// 3308               ind_opt=7;  
        LDI	R22, 7
// 3309              
// 3310               ln_rejc_ipcp=0;
        MOVW	R31:R30, R27:R26
        STD	Z+59, R0
// 3311               ln_ack_ipcp=0;
        ADIW	R31:R30, 61
        ST	Z, R0
// 3312               ln_nak_ipcp=0;
        MOVW	R31:R30, R27:R26
        ADIW	R31:R30, 62
        ST	Z, R0
// 3313               ln_rej_ipcp=0; 
        MOVW	R31:R30, R27:R26
        ADIW	R31:R30, 60
        ST	Z, R0
// 3314               
// 3315              
// 3316                            
// 3317               switch (buf_rx_ppp[3])      
        MOVW	R31:R30, R27:R26
        LDD	R17, Z+50
        MOVW	R31:R30, R25:R24
        LDD	R16, Z+3
        SUBI	R16, 1
        BREQ	??proc_ppp_packet_50
        DEC	R16
        BREQ	??proc_ppp_packet_51
        DEC	R16
        BRNE	$+2+2
        RJMP	??proc_ppp_packet_52
        DEC	R16
        BRNE	$+2+2
        RJMP	??proc_ppp_packet_53
        DEC	R16
        BRNE	$+2+2
        RJMP	??proc_ppp_packet_54
        DEC	R16
        BRNE	$+2+2
        RJMP	??proc_ppp_packet_55
        RJMP	??proc_ppp_packet_1
// 3318                   {
// 3319                   case CONF_REQ : 
// 3320                   
// 3321                    
// 3322                            
// 3323                  // (ĺńëč âîîáůĺ íĺ ňĺ îďöčč ňî ńáđîń ęîäŕ äŕňü) 
// 3324                       //ďđîâĺđęŕ ďđĺäëîćĺííîé ęîíôčăóđŕöčč îň ńĺđâĺđŕ    
// 3325                       //ĺńëč íóćíŕ˙ ęîíôčăóđŕöč˙ ňî ńîáűňčĺ RCR+                  
// 3326                       //ĺńëč íĺň ňî RCR-;                       
// 3327                     
// 3328                      
// 3329                      
// 3330                                         
// 3331        next_opt_ipcp_1:  if(count_length_opt==vol_length_opt) goto end_ipcp_opt_1;   //îáđŕáîňŕíű âńĺ îďöčč
// 3332                        
// 3333                        switch(buf_rx_ppp[ind_opt])
// 3334                           {
// 3335                              
// 3336                                  
// 3337                             case IP_SELF:       
// 3338                                   if (buf_rx_ppp[ind_opt+1]!=6)
// 3339                                       {
// 3340                                         for(i=3;i<=count_rx_ppp-4;i++){buf_rejc_opt_ipcp[ln_rejc_ipcp]=buf_rx_ppp[i];ln_rejc_ipcp++;}
// 3341                                         IPCP_event=RUC;
// 3342                                         return(1);
// 3343                                         } 
// 3344                                     
// 3345                                    
// 3346                                         fl_opt.ip_self=1;
// 3347                                         
// 3348                                         buf_ack_opt_ipcp[ln_ack_ipcp]=buf_rx_ppp[ind_opt];
// 3349                                         ln_ack_ipcp++;
// 3350                                         
// 3351                                         buf_ack_opt_ipcp[ln_ack_ipcp]=buf_rx_ppp[ind_opt+1];
// 3352                                         ln_ack_ipcp++;
// 3353                                         
// 3354                                         buf_ack_opt_ipcp[ln_ack_ipcp]=buf_rx_ppp[ind_opt+2]; 
// 3355                                        // ip_serv_gprs[0]=buf_rx_ppp[ind_opt+2];
// 3356                                         ln_ack_ipcp++;  
// 3357                                         
// 3358                                         buf_ack_opt_ipcp[ln_ack_ipcp]=buf_rx_ppp[ind_opt+3]; 
// 3359                                        // ip_serv_gprs[1]=buf_rx_ppp[ind_opt+3];
// 3360                                         ln_ack_ipcp++; 
// 3361                                         
// 3362                                         buf_ack_opt_ipcp[ln_ack_ipcp]=buf_rx_ppp[ind_opt+4]; 
// 3363                                        // ip_serv_gprs[2]=buf_rx_ppp[ind_opt+4];
// 3364                                         ln_ack_ipcp++;
// 3365                                         
// 3366                                         buf_ack_opt_ipcp[ln_ack_ipcp]=buf_rx_ppp[ind_opt+5]; 
// 3367                                        // ip_serv_gprs[3]=buf_rx_ppp[ind_opt+5];
// 3368                                         ln_ack_ipcp++;
// 3369                                        
// 3370                                     
// 3371                                  count_length_opt=count_length_opt+buf_rx_ppp[ind_opt+1];        
// 3372                                  ind_opt=ind_opt+buf_rx_ppp[ind_opt+1];
// 3373                                  goto next_opt_ipcp_1;                                       
// 3374                             
// 3375                             
// 3376                            /*
// 3377                             case IP_PRI_DNS:  
// 3378                             case IP_SEC_DNS:     
// 3379                                   if (buf_rx_ppp[ind_opt+1]!=6)
// 3380                                       {
// 3381                                         for(i=3;i<=count_rx_ppp-4;i++){buf_rejc_opt_ipcp[ln_rejc_ipcp]=buf_rx_ppp[i];ln_rejc_ipcp++;}
// 3382                                         IPCP_event=RUC;
// 3383                                         return(1);
// 3384                                         } 
// 3385                                     
// 3386                                         buf_ack_opt_ipcp[ln_ack_ipcp]=buf_rx_ppp[ind_opt];
// 3387                                         buf_ack_opt_ipcp[ln_ack_ipcp]=buf_rx_ppp[ind_opt+1];
// 3388                                         buf_ack_opt_ipcp[ln_ack_ipcp]=buf_rx_ppp[ind_opt+2];  
// 3389                                         buf_ack_opt_ipcp[ln_ack_ipcp]=buf_rx_ppp[ind_opt+3]; 
// 3390                                         buf_ack_opt_ipcp[ln_ack_ipcp]=buf_rx_ppp[ind_opt+4]; 
// 3391                                         buf_ack_opt_ipcp[ln_ack_ipcp]=buf_rx_ppp[ind_opt+5]; 
// 3392                                         ln_ack_ipcp=ln_ack_ipcp+6;                                     
// 3393                                       
// 3394                                  count_length_opt=count_length_opt+buf_rx_ppp[ind_opt+1];        
// 3395                                  ind_opt=ind_opt+buf_rx_ppp[ind_opt+1];
// 3396                                  goto next_opt_ipcp_1; 
// 3397                              
// 3398                             
// 3399                             
// 3400                             
// 3401                             default:
// 3402 
// 3403                                         for(i=0;i<buf_rx_ppp[ind_opt+1];i++){buf_rej_opt_ipcp[ln_rej_ipcp]=buf_rx_ppp[ind_opt+i];ln_rej_ipcp++;}
// 3404                                         count_length_opt=count_length_opt+buf_rx_ppp[ind_opt+1];        
// 3405                                         ind_opt=ind_opt+buf_rx_ppp[ind_opt+1];      
// 3406                                   goto next_opt_ipcp_1;        
// 3407                          */
// 3408                            default:  // ďîäňâĺđćäŕňü âńĺ !!!!!!!!!!
// 3409 
// 3410                                         for(i=0;i<buf_rx_ppp[ind_opt+1];i++){buf_ack_opt_ipcp[ln_ack_ipcp]=buf_rx_ppp[ind_opt+i];ln_ack_ipcp++;}
// 3411                                         count_length_opt=count_length_opt+buf_rx_ppp[ind_opt+1];        
// 3412                                         ind_opt=ind_opt+buf_rx_ppp[ind_opt+1];      
// 3413                                   goto next_opt_ipcp_1;        
// 3414                          
// 3415                           }
// 3416                                             
// 3417  end_ipcp_opt_1:        
// 3418                        
// 3419                                        
// 3420                        if (ln_rej_ipcp!=0)                    
// 3421                          {
// 3422      
// 3423                          IPCP_event=RCR_MI;
// 3424                          fl_ipcp2.nac_rej=1;
// 3425                          return(1); 
// 3426                          }
// 3427                                                     
// 3428                      
// 3429                       if(fl_opt.ip_self==0) return(1);
// 3430                             
// 3431                        
// 3432                          if (ln_ack_ipcp!=0)                    
// 3433                          {
// 3434                           
// 3435                          IPCP_event=RCR_PL;
// 3436                          i_scan_ipcp=buf_rx_ppp[4];    // ďđčńâîĺíčĺ čäĺíňčôčęŕňîđŕ                   
// 3437                          return(1); 
// 3438                          }  
// 3439                                               
// 3440                       break;    
// 3441                       
// 3442                       
// 3443                        
// 3444                   case CONF_ACK : 
// 3445                       //ďđîâĺđęŕ îďöčé (ĺńëč âîîáůĺ íĺ ňĺ îďöčč ňî ńáđîń ęîäŕ äŕňü)
// 3446                       //îďöčč ňŕ, ňî ńîáűňčĺ RCA
// 3447                   //  led2_on;    //ďîęŕ
// 3448                   //  lock_it();    // ďîęŕ
// 3449                     
// 3450                    
// 3451                                          
// 3452                     
// 3453                     
// 3454                     if(buf_rx_ppp[4]!=i_scr_ipcp)return(1);                        //ďđîâĺđęŕ čäĺíňčôčęŕňîđŕ
??proc_ppp_packet_51:
        LDD	R16, Z+4
        CP	R16, R17
        BRNE	$+2+2
        RJMP	??proc_ppp_packet_56
        RJMP	??proc_ppp_packet_1
??proc_ppp_packet_57:
        MOV	R2, R22
        ADD	R2, R18
        ADC	R3, R19
        MOVW	R31:R30, R25:R24
        ADD	R30, R2
        ADC	R31, R3
        LD	R1, Z
        MOVW	R31:R30, R27:R26
        ADIW	R31:R30, 61
        LD	R2, Z
        CLR	R3
        MOVW	R31:R30, R3:R2
        SUBI	R30, LOW((-(cnt_ipcp_tm_out) & 0xFFFF))
        SBCI	R31, (-(cnt_ipcp_tm_out) & 0xFFFF) >> 8
        STD	Z+33, R1
        MOVW	R31:R30, R27:R26
        ADIW	R31:R30, 61
        LD	R23, Z
        INC	R23
        ST	Z, R23
        SUBI	R18, 255
        SBCI	R19, 255
??proc_ppp_packet_58:
        MOVW	R31:R30, R17:R16
        LDD	R2, Z+1
        CLR	R3
        CP	R18, R2
        CPC	R19, R3
        BRCS	??proc_ppp_packet_57
??proc_ppp_packet_59:
        MOVW	R31:R30, R17:R16
        LDD	R18, Z+1
        ADD	R0, R18
        LDD	R16, Z+1
        ADD	R22, R16
??proc_ppp_packet_50:
        MOVW	R31:R30, R27:R26
        ADIW	R31:R30, 61
        LD	R23, Z
        CP	R0, R6
        BRNE	$+2+2
        RJMP	??proc_ppp_packet_60
        MOV	R18, R22
        LDI	R19, 0
        MOVW	R17:R16, R25:R24
        ADD	R16, R18
        ADC	R17, R19
        MOVW	R31:R30, R17:R16
        LD	R18, Z
        SUBI	R18, 3
        BREQ	$+2+2
        RJMP	??proc_ppp_packet_61
        LDD	R18, Z+1
        CPI	R18, 6
        BREQ	??proc_ppp_packet_62
        LDI	R18, 3
        RJMP	??proc_ppp_packet_63
??proc_ppp_packet_64:
        MOVW	R31:R30, R25:R24
        ADD	R30, R18
        ADC	R31, R19
        LD	R22, Z
        MOVW	R31:R30, R27:R26
        LDD	R16, Z+59
        LDI	R17, 0
        MOVW	R31:R30, R17:R16
        SUBI	R30, LOW((-(cnt_ipcp_tm_out) & 0xFFFF))
        SBCI	R31, (-(cnt_ipcp_tm_out) & 0xFFFF) >> 8
        STD	Z+2, R22
        MOVW	R31:R30, R27:R26
        LDD	R16, Z+59
        INC	R16
        STD	Z+59, R16
        SUBI	R18, 255
        SBCI	R19, 255
??proc_ppp_packet_63:
        CP	R20, R18
        CPC	R21, R19
        BRCC	??proc_ppp_packet_64
??proc_ppp_packet_65:
        LDI	R16, 12
        MOVW	R31:R30, R27:R26
??proc_ppp_packet_66:
        STD	Z+35, R16
        RJMP	??proc_ppp_packet_1
??proc_ppp_packet_62:
        SET
        BLD	R8, 6
        LD	R1, Z
        MOV	R18, R23
        MOVW	R31:R30, R19:R18
        SUBI	R30, LOW((-(cnt_ipcp_tm_out) & 0xFFFF))
        SBCI	R31, (-(cnt_ipcp_tm_out) & 0xFFFF) >> 8
        STD	Z+33, R1
        MOVW	R31:R30, R27:R26
        ADIW	R31:R30, 61
        LD	R18, Z
        INC	R18
        ST	Z, R18
        MOVW	R31:R30, R17:R16
        LDD	R23, Z+1
        MOVW	R31:R30, R27:R26
        ADIW	R31:R30, 61
        LD	R18, Z
        MOVW	R31:R30, R19:R18
        SUBI	R30, LOW((-(cnt_ipcp_tm_out) & 0xFFFF))
        SBCI	R31, (-(cnt_ipcp_tm_out) & 0xFFFF) >> 8
        STD	Z+33, R23
        MOVW	R31:R30, R27:R26
        ADIW	R31:R30, 61
        LD	R18, Z
        INC	R18
        ST	Z, R18
        MOVW	R31:R30, R17:R16
        LDD	R23, Z+2
        MOVW	R31:R30, R27:R26
        ADIW	R31:R30, 61
        LD	R18, Z
        MOVW	R31:R30, R19:R18
        SUBI	R30, LOW((-(cnt_ipcp_tm_out) & 0xFFFF))
        SBCI	R31, (-(cnt_ipcp_tm_out) & 0xFFFF) >> 8
        STD	Z+33, R23
        MOVW	R31:R30, R27:R26
        ADIW	R31:R30, 61
        LD	R18, Z
        INC	R18
        ST	Z, R18
        MOVW	R31:R30, R17:R16
        LDD	R23, Z+3
        MOVW	R31:R30, R27:R26
        ADIW	R31:R30, 61
        LD	R18, Z
        MOVW	R31:R30, R19:R18
        SUBI	R30, LOW((-(cnt_ipcp_tm_out) & 0xFFFF))
        SBCI	R31, (-(cnt_ipcp_tm_out) & 0xFFFF) >> 8
        STD	Z+33, R23
        MOVW	R31:R30, R27:R26
        ADIW	R31:R30, 61
        LD	R18, Z
        INC	R18
        ST	Z, R18
        MOVW	R31:R30, R17:R16
        LDD	R23, Z+4
        MOVW	R31:R30, R27:R26
        ADIW	R31:R30, 61
        LD	R18, Z
        MOVW	R31:R30, R19:R18
        SUBI	R30, LOW((-(cnt_ipcp_tm_out) & 0xFFFF))
        SBCI	R31, (-(cnt_ipcp_tm_out) & 0xFFFF) >> 8
        STD	Z+33, R23
        MOVW	R31:R30, R27:R26
        ADIW	R31:R30, 61
        LD	R18, Z
        INC	R18
        ST	Z, R18
        MOVW	R31:R30, R17:R16
        LDD	R23, Z+5
        MOVW	R31:R30, R27:R26
        ADIW	R31:R30, 61
        LD	R18, Z
        MOVW	R31:R30, R19:R18
        SUBI	R30, LOW((-(cnt_ipcp_tm_out) & 0xFFFF))
        SBCI	R31, (-(cnt_ipcp_tm_out) & 0xFFFF) >> 8
        STD	Z+33, R23
        MOVW	R31:R30, R27:R26
        ADIW	R31:R30, 61
        LD	R18, Z
        INC	R18
        ST	Z, R18
        RJMP	??proc_ppp_packet_59
??proc_ppp_packet_61:
        LDI	R18, 0
        RJMP	??proc_ppp_packet_58
??proc_ppp_packet_60:
        BST	R8, 6
        BRTS	$+2+2
        RJMP	??proc_ppp_packet_1
        TST	R23
        BRNE	$+2+2
        RJMP	??proc_ppp_packet_1
        LDI	R16, 6
        MOVW	R31:R30, R27:R26
        STD	Z+35, R16
        MOVW	R31:R30, R25:R24
        LDD	R16, Z+4
        MOVW	R31:R30, R27:R26
        STD	Z+51, R16
        RJMP	??proc_ppp_packet_1
// 3455                       
// 3456    next_opt_ipcp_2:  if(count_length_opt==vol_length_opt) goto end_ipcp_opt_2;   //îáđŕáîňŕíű âńĺ îďöčč
// 3457                        
// 3458                        switch(buf_rx_ppp[ind_opt])
// 3459                           { 
// 3460                           
// 3461                             case IP_SELF:       
// 3462                                   if (buf_rx_ppp[ind_opt+1]!=6)
// 3463                                       {
// 3464                                         
// 3465                                         for(i=3;i<=count_rx_ppp-4;i++){buf_rejc_opt_ipcp[ln_rejc_ipcp]=buf_rx_ppp[i];ln_rejc_ipcp++;}
// 3466                                         IPCP_event=RUC;
// 3467                                         return(1);
// 3468                                         } 
// 3469                                     
// 3470                                     if ( 
// 3471                                          
// 3472                                            (buf_rx_ppp[ind_opt+2]==ip_self[0])&&
// 3473                                            (buf_rx_ppp[ind_opt+3]==ip_self[1])&& 
// 3474                                            (buf_rx_ppp[ind_opt+4]==ip_self[2])&&
// 3475                                            (buf_rx_ppp[ind_opt+5]==ip_self[3]) 
// 3476                                         )  
??proc_ppp_packet_67:
        LDD	R18, Z+2
        MOVW	R31:R30, R5:R4
        LD	R19, Z
        CP	R18, R19
        BRNE	??proc_ppp_packet_68
        MOVW	R31:R30, R17:R16
        LDD	R18, Z+3
        MOVW	R31:R30, R5:R4
        LDD	R19, Z+1
        CP	R18, R19
        BRNE	??proc_ppp_packet_68
        MOVW	R31:R30, R17:R16
        LDD	R18, Z+4
        MOVW	R31:R30, R5:R4
        LDD	R19, Z+2
        CP	R18, R19
        BRNE	??proc_ppp_packet_68
        MOVW	R31:R30, R17:R16
        LDD	R18, Z+5
        MOVW	R31:R30, R5:R4
        LDD	R19, Z+3
        CP	R18, R19
        BRNE	??proc_ppp_packet_68
// 3477                                         {
// 3478                                         fl_opt.ip_self=1;                                        
        SET
        BLD	R8, 6
// 3479                                         }
// 3480                                       
// 3481                                  count_length_opt=count_length_opt+buf_rx_ppp[ind_opt+1];        
??proc_ppp_packet_68:
        MOVW	R31:R30, R17:R16
        LDD	R18, Z+1
        ADD	R0, R18
// 3482                                  ind_opt=ind_opt+buf_rx_ppp[ind_opt+1];
        LDD	R16, Z+1
        ADD	R22, R16
// 3483                                  goto next_opt_ipcp_2;  
??proc_ppp_packet_56:
        CP	R0, R6
        BRNE	$+2+2
        RJMP	??proc_ppp_packet_69
        LDI	R23, 0
        MOVW	R17:R16, R25:R24
        ADD	R16, R22
        ADC	R17, R23
        MOVW	R31:R30, R17:R16
        LD	R18, Z
        SUBI	R18, 129
        BREQ	??proc_ppp_packet_70
        SUBI	R18, 2
        BRNE	$+2+2
        RJMP	??proc_ppp_packet_71
        SUBI	R18, 128
        BREQ	$+2+2
        RJMP	??proc_ppp_packet_72
        LDD	R18, Z+1
        CPI	R18, 6
        BREQ	??proc_ppp_packet_67
        LDI	R18, 3
        LDI	R19, 0
??proc_ppp_packet_73:
        CP	R20, R18
        CPC	R21, R19
        BRCC	$+2+2
        RJMP	??proc_ppp_packet_65
        MOVW	R31:R30, R25:R24
        ADD	R30, R18
        ADC	R31, R19
        LD	R22, Z
        MOVW	R31:R30, R27:R26
        LDD	R16, Z+59
        LDI	R17, 0
        MOVW	R31:R30, R17:R16
        SUBI	R30, LOW((-(cnt_ipcp_tm_out) & 0xFFFF))
        SBCI	R31, (-(cnt_ipcp_tm_out) & 0xFFFF) >> 8
        STD	Z+2, R22
        MOVW	R31:R30, R27:R26
        LDD	R16, Z+59
        INC	R16
        STD	Z+59, R16
        SUBI	R18, 255
        SBCI	R19, 255
        RJMP	??proc_ppp_packet_73
// 3484                              
// 3485                              
// 3486                             case IP_PRI_DNS:       
// 3487                                   if (buf_rx_ppp[ind_opt+1]!=6)
??proc_ppp_packet_70:
        LDD	R18, Z+1
        CPI	R18, 6
        BREQ	??proc_ppp_packet_74
// 3488                                       {
// 3489                                         for(i=3;i<=count_rx_ppp-4;i++){buf_rejc_opt_ipcp[ln_rejc_ipcp]=buf_rx_ppp[i];ln_rejc_ipcp++;}
        LDI	R18, 3
        LDI	R19, 0
??proc_ppp_packet_75:
        CP	R20, R18
        CPC	R21, R19
        BRCC	$+2+2
        RJMP	??proc_ppp_packet_65
        MOVW	R31:R30, R25:R24
        ADD	R30, R18
        ADC	R31, R19
        LD	R22, Z
        MOVW	R31:R30, R27:R26
        LDD	R16, Z+59
        LDI	R17, 0
        MOVW	R31:R30, R17:R16
        SUBI	R30, LOW((-(cnt_ipcp_tm_out) & 0xFFFF))
        SBCI	R31, (-(cnt_ipcp_tm_out) & 0xFFFF) >> 8
        STD	Z+2, R22
        MOVW	R31:R30, R27:R26
        LDD	R16, Z+59
        INC	R16
        STD	Z+59, R16
        SUBI	R18, 255
        SBCI	R19, 255
        RJMP	??proc_ppp_packet_75
// 3490                                         IPCP_event=RUC;
// 3491                                         return(1);
// 3492                                         } 
// 3493                                     
// 3494                                     if ( 
// 3495                                            (buf_rx_ppp[ind_opt+2]==ip_pri_dns[0])&&
// 3496                                            (buf_rx_ppp[ind_opt+3]==ip_pri_dns[1])&& 
// 3497                                            (buf_rx_ppp[ind_opt+4]==ip_pri_dns[2])&&
// 3498                                            (buf_rx_ppp[ind_opt+5]==ip_pri_dns[3]) 
// 3499                                         )  fl_opt.ip_pri_dns=1;                                        
??proc_ppp_packet_74:
        LDD	R18, Z+2
        LD	R19, X
        CP	R18, R19
        BREQ	$+2+2
        RJMP	??proc_ppp_packet_68
        LDD	R18, Z+3
        MOVW	R31:R30, R27:R26
        LDD	R19, Z+1
        CP	R18, R19
        BREQ	$+2+2
        RJMP	??proc_ppp_packet_68
        MOVW	R31:R30, R17:R16
        LDD	R18, Z+4
        MOVW	R31:R30, R27:R26
        LDD	R19, Z+2
        CP	R18, R19
        BREQ	$+2+2
        RJMP	??proc_ppp_packet_68
        MOVW	R31:R30, R17:R16
        LDD	R18, Z+5
        MOVW	R31:R30, R27:R26
        LDD	R19, Z+3
        CP	R18, R19
        BREQ	$+2+2
        RJMP	??proc_ppp_packet_68
        SET
        BLD	R8, 7
        RJMP	??proc_ppp_packet_68
// 3500                                       
// 3501                                  count_length_opt=count_length_opt+buf_rx_ppp[ind_opt+1];        
// 3502                                  ind_opt=ind_opt+buf_rx_ppp[ind_opt+1];
// 3503                                  goto next_opt_ipcp_2; 
// 3504                              
// 3505                             
// 3506                             case IP_SEC_DNS:       
// 3507                                   if (buf_rx_ppp[ind_opt+1]!=6)
??proc_ppp_packet_71:
        LDD	R18, Z+1
        CPI	R18, 6
        BREQ	??proc_ppp_packet_76
// 3508                                       {
// 3509                                         for(i=3;i<=count_rx_ppp-4;i++){buf_rejc_opt_ipcp[ln_rejc_ipcp]=buf_rx_ppp[i];ln_rejc_ipcp++;}
        LDI	R18, 3
        LDI	R19, 0
??proc_ppp_packet_77:
        CP	R20, R18
        CPC	R21, R19
        BRCC	$+2+2
        RJMP	??proc_ppp_packet_65
        MOVW	R31:R30, R25:R24
        ADD	R30, R18
        ADC	R31, R19
        LD	R22, Z
        MOVW	R31:R30, R27:R26
        LDD	R16, Z+59
        LDI	R17, 0
        MOVW	R31:R30, R17:R16
        SUBI	R30, LOW((-(cnt_ipcp_tm_out) & 0xFFFF))
        SBCI	R31, (-(cnt_ipcp_tm_out) & 0xFFFF) >> 8
        STD	Z+2, R22
        MOVW	R31:R30, R27:R26
        LDD	R16, Z+59
        INC	R16
        STD	Z+59, R16
        SUBI	R18, 255
        SBCI	R19, 255
        RJMP	??proc_ppp_packet_77
// 3510                                         IPCP_event=RUC;
// 3511                                         return(1);
// 3512                                         } 
// 3513                                     
// 3514                                     if ( 
// 3515                                            (buf_rx_ppp[ind_opt+2]==ip_sec_dns[0])&&
// 3516                                            (buf_rx_ppp[ind_opt+3]==ip_sec_dns[1])&& 
// 3517                                            (buf_rx_ppp[ind_opt+4]==ip_sec_dns[2])&&
// 3518                                            (buf_rx_ppp[ind_opt+5]==ip_sec_dns[3]) 
// 3519                                         )  fl_opt.mru=1;                                        
??proc_ppp_packet_76:
        LDD	R18, Z+2
        MOVW	R31:R30, R27:R26
        LDD	R19, Z+4
        CP	R18, R19
        BREQ	$+2+2
        RJMP	??proc_ppp_packet_68
        MOVW	R31:R30, R17:R16
        LDD	R18, Z+3
        MOVW	R31:R30, R27:R26
        LDD	R19, Z+5
        CP	R18, R19
        BREQ	$+2+2
        RJMP	??proc_ppp_packet_68
        MOVW	R31:R30, R17:R16
        LDD	R18, Z+4
        MOVW	R31:R30, R27:R26
        LDD	R19, Z+6
        CP	R18, R19
        BREQ	$+2+2
        RJMP	??proc_ppp_packet_68
        MOVW	R31:R30, R17:R16
        LDD	R18, Z+5
        MOVW	R31:R30, R27:R26
        LDD	R19, Z+7
        CP	R18, R19
        BREQ	$+2+2
        RJMP	??proc_ppp_packet_68
        SET
        BLD	R8, 0
        RJMP	??proc_ppp_packet_68
// 3520                                       
// 3521                                  count_length_opt=count_length_opt+buf_rx_ppp[ind_opt+1];        
// 3522                                  ind_opt=ind_opt+buf_rx_ppp[ind_opt+1];
// 3523                                  goto next_opt_ipcp_2; 
// 3524                              
// 3525 
// 3526                             
// 3527                             default:    for(i=3;i<=count_rx_ppp-4;i++){buf_rejc_opt_ipcp[ln_rejc_ipcp]=buf_rx_ppp[i];ln_rejc_ipcp++;}
??proc_ppp_packet_72:
        LDI	R18, 3
        LDI	R19, 0
??proc_ppp_packet_78:
        CP	R20, R18
        CPC	R21, R19
        BRCC	$+2+2
        RJMP	??proc_ppp_packet_65
        MOVW	R31:R30, R25:R24
        ADD	R30, R18
        ADC	R31, R19
        LD	R22, Z
        MOVW	R31:R30, R27:R26
        LDD	R16, Z+59
        LDI	R17, 0
        MOVW	R31:R30, R17:R16
        SUBI	R30, LOW((-(cnt_ipcp_tm_out) & 0xFFFF))
        SBCI	R31, (-(cnt_ipcp_tm_out) & 0xFFFF) >> 8
        STD	Z+2, R22
        MOVW	R31:R30, R27:R26
        LDD	R16, Z+59
        INC	R16
        STD	Z+59, R16
        SUBI	R18, 255
        SBCI	R19, 255
        RJMP	??proc_ppp_packet_78
// 3528                                         IPCP_event=RUC;
// 3529                                         return(1);    
// 3530                                   
// 3531                           }
// 3532                       
// 3533                       
// 3534   end_ipcp_opt_2:      //if((fl_opt.ip_self==1)&&(fl_opt.ip_pri_dns==1)&&(fl_opt.mru==1))
// 3535                          if(fl_opt.ip_self==1)
??proc_ppp_packet_69:
        BST	R8, 6
        BRTC	??proc_ppp_packet_79
// 3536                         {   
// 3537                          
// 3538                          
// 3539                          IPCP_event=RCA;
        LDI	R16, 8
        MOVW	R31:R30, R27:R26
        STD	Z+35, R16
// 3540                          i_scr_ipcp++;//ďđčđŕůĺíčĺ čäĺíňčôčęŕňîđŕ                      
        LDD	R16, Z+50
        INC	R16
        STD	Z+50, R16
        RJMP	??proc_ppp_packet_1
// 3541                          return(1);      
// 3542                         } 
// 3543                         else
// 3544                         {
// 3545                         for(i=3;i<=count_rx_ppp-4;i++){buf_rejc_opt_ipcp[ln_rejc_ipcp]=buf_rx_ppp[i];ln_rejc_ipcp++;}
??proc_ppp_packet_79:
        LDI	R18, 3
        LDI	R19, 0
??proc_ppp_packet_80:
        CP	R20, R18
        CPC	R21, R19
        BRCC	$+2+2
        RJMP	??proc_ppp_packet_65
        MOVW	R31:R30, R25:R24
        ADD	R30, R18
        ADC	R31, R19
        LD	R22, Z
        MOVW	R31:R30, R27:R26
        LDD	R16, Z+59
        LDI	R17, 0
        MOVW	R31:R30, R17:R16
        SUBI	R30, LOW((-(cnt_ipcp_tm_out) & 0xFFFF))
        SBCI	R31, (-(cnt_ipcp_tm_out) & 0xFFFF) >> 8
        STD	Z+2, R22
        MOVW	R31:R30, R27:R26
        LDD	R16, Z+59
        INC	R16
        STD	Z+59, R16
        SUBI	R18, 255
        SBCI	R19, 255
        RJMP	??proc_ppp_packet_80
// 3546                         IPCP_event=RUC;
// 3547                         return(1);               
// 3548                         }
// 3549                                 
// 3550                        
// 3551                   case CONF_NAK :                     
// 3552                         // ňî RCN íî âńĺ đŕâíî çŕďđîń ňĺő ćĺ îďöčé  
// 3553                     
// 3554               
// 3555                       
// 3556                       if(buf_rx_ppp[4]!=i_scr_ipcp)return(1);                        //ďđîâĺđęŕ čäĺíňčôčęŕňîđŕ
??proc_ppp_packet_52:
        LDD	R16, Z+4
        CP	R16, R17
        BREQ	??proc_ppp_packet_81
        RJMP	??proc_ppp_packet_1
// 3557                      
// 3558                      
// 3559     next_opt_ipcp_3:  if(count_length_opt==vol_length_opt) goto end_ipcp_opt_3;   //îáđŕáîňŕíű âńĺ îďöčč
// 3560                        
// 3561                        switch(buf_rx_ppp[ind_opt])
// 3562                           { 
// 3563                           
// 3564                             case IP_SELF:       
// 3565                                   if (buf_rx_ppp[ind_opt+1]!=6)
// 3566                                       {
// 3567                                         for(i=3;i<=count_rx_ppp-4;i++){buf_rejc_opt_ipcp[ln_rejc_ipcp]=buf_rx_ppp[i];ln_rejc_ipcp++;}
// 3568                                         IPCP_event=RUC;
// 3569                                         return(1);
// 3570                                         } 
// 3571                                          
// 3572 
// 3573                                                                                   
// 3574                                           
// 3575                                                   
// 3576                                          
// 3577                                           ip_self[0]=buf_rx_ppp[ind_opt+2];
??proc_ppp_packet_82:
        LDD	R18, Z+2
        MOVW	R31:R30, R5:R4
        ST	Z, R18
// 3578                                           ip_self[1]=buf_rx_ppp[ind_opt+3];
        MOVW	R31:R30, R17:R16
        LDD	R18, Z+3
        MOVW	R31:R30, R5:R4
        STD	Z+1, R18
// 3579                                           ip_self[2]=buf_rx_ppp[ind_opt+4];
        MOVW	R31:R30, R17:R16
        LDD	R18, Z+4
        MOVW	R31:R30, R5:R4
        STD	Z+2, R18
// 3580                                           ip_self[3]=buf_rx_ppp[ind_opt+5]; 
        MOVW	R31:R30, R17:R16
        LDD	R18, Z+5
        MOVW	R31:R30, R5:R4
??proc_ppp_packet_83:
        STD	Z+3, R18
// 3581                                           
// 3582                                           fl_opt.ip_self=1;                                        
// 3583                                       
// 3584                                  count_length_opt=count_length_opt+buf_rx_ppp[ind_opt+1];        
??proc_ppp_packet_84:
        MOVW	R31:R30, R17:R16
        LDD	R18, Z+1
        ADD	R0, R18
// 3585                                  ind_opt=ind_opt+buf_rx_ppp[ind_opt+1];
        LDD	R16, Z+1
        ADD	R22, R16
// 3586                                  goto next_opt_ipcp_3;  
??proc_ppp_packet_81:
        CP	R0, R6
        BRNE	$+2+2
        RJMP	??proc_ppp_packet_85
        LDI	R23, 0
        MOVW	R17:R16, R25:R24
        ADD	R16, R22
        ADC	R17, R23
        MOVW	R31:R30, R17:R16
        LD	R18, Z
        SUBI	R18, 129
        BREQ	??proc_ppp_packet_86
        SUBI	R18, 2
        BRNE	$+2+2
        RJMP	??proc_ppp_packet_87
        SUBI	R18, 128
        BREQ	$+2+2
        RJMP	??proc_ppp_packet_88
        LDD	R18, Z+1
        CPI	R18, 6
        BREQ	??proc_ppp_packet_82
        LDI	R18, 3
        LDI	R19, 0
??proc_ppp_packet_89:
        CP	R20, R18
        CPC	R21, R19
        BRCC	$+2+2
        RJMP	??proc_ppp_packet_65
        MOVW	R31:R30, R25:R24
        ADD	R30, R18
        ADC	R31, R19
        LD	R22, Z
        MOVW	R31:R30, R27:R26
        LDD	R16, Z+59
        LDI	R17, 0
        MOVW	R31:R30, R17:R16
        SUBI	R30, LOW((-(cnt_ipcp_tm_out) & 0xFFFF))
        SBCI	R31, (-(cnt_ipcp_tm_out) & 0xFFFF) >> 8
        STD	Z+2, R22
        MOVW	R31:R30, R27:R26
        LDD	R16, Z+59
        INC	R16
        STD	Z+59, R16
        SUBI	R18, 255
        SBCI	R19, 255
        RJMP	??proc_ppp_packet_89
// 3587                              
// 3588                              
// 3589                             case IP_PRI_DNS:       
// 3590                                   if (buf_rx_ppp[ind_opt+1]!=6)
??proc_ppp_packet_86:
        LDD	R18, Z+1
        CPI	R18, 6
        BREQ	??proc_ppp_packet_90
// 3591                                       {
// 3592                                         for(i=3;i<=count_rx_ppp-4;i++){buf_rejc_opt_ipcp[ln_rejc_ipcp]=buf_rx_ppp[i];ln_rejc_ipcp++;}
        LDI	R18, 3
        LDI	R19, 0
??proc_ppp_packet_91:
        CP	R20, R18
        CPC	R21, R19
        BRCC	$+2+2
        RJMP	??proc_ppp_packet_65
        MOVW	R31:R30, R25:R24
        ADD	R30, R18
        ADC	R31, R19
        LD	R22, Z
        MOVW	R31:R30, R27:R26
        LDD	R16, Z+59
        LDI	R17, 0
        MOVW	R31:R30, R17:R16
        SUBI	R30, LOW((-(cnt_ipcp_tm_out) & 0xFFFF))
        SBCI	R31, (-(cnt_ipcp_tm_out) & 0xFFFF) >> 8
        STD	Z+2, R22
        MOVW	R31:R30, R27:R26
        LDD	R16, Z+59
        INC	R16
        STD	Z+59, R16
        SUBI	R18, 255
        SBCI	R19, 255
        RJMP	??proc_ppp_packet_91
// 3593                                         IPCP_event=RUC;
// 3594                                         return(1);
// 3595                                         } 
// 3596                                            
// 3597                                           ip_pri_dns[0]=buf_rx_ppp[ind_opt+2];
??proc_ppp_packet_90:
        LDD	R18, Z+2
        ST	X, R18
// 3598                                           ip_pri_dns[1]=buf_rx_ppp[ind_opt+3];
        LDD	R18, Z+3
        MOVW	R31:R30, R27:R26
        STD	Z+1, R18
// 3599                                           ip_pri_dns[2]=buf_rx_ppp[ind_opt+4];
        MOVW	R31:R30, R17:R16
        LDD	R18, Z+4
        MOVW	R31:R30, R27:R26
        STD	Z+2, R18
// 3600                                           ip_pri_dns[3]=buf_rx_ppp[ind_opt+5]; 
        MOVW	R31:R30, R17:R16
        LDD	R18, Z+5
        MOVW	R31:R30, R27:R26
        RJMP	??proc_ppp_packet_83
// 3601                   
// 3602                                           fl_opt.ip_pri_dns=1;                                        
// 3603                                       
// 3604                                  count_length_opt=count_length_opt+buf_rx_ppp[ind_opt+1];        
// 3605                                  ind_opt=ind_opt+buf_rx_ppp[ind_opt+1];
// 3606                                  goto next_opt_ipcp_3; 
// 3607                              
// 3608                             
// 3609                             case IP_SEC_DNS:       
// 3610                                   if (buf_rx_ppp[ind_opt+1]!=6)
??proc_ppp_packet_87:
        LDD	R18, Z+1
        CPI	R18, 6
        BREQ	??proc_ppp_packet_92
// 3611                                       {
// 3612                                         for(i=3;i<=count_rx_ppp-4;i++){buf_rejc_opt_ipcp[ln_rejc_ipcp]=buf_rx_ppp[i];ln_rejc_ipcp++;}
        LDI	R18, 3
        LDI	R19, 0
??proc_ppp_packet_93:
        CP	R20, R18
        CPC	R21, R19
        BRCC	$+2+2
        RJMP	??proc_ppp_packet_65
        MOVW	R31:R30, R25:R24
        ADD	R30, R18
        ADC	R31, R19
        LD	R22, Z
        MOVW	R31:R30, R27:R26
        LDD	R16, Z+59
        LDI	R17, 0
        MOVW	R31:R30, R17:R16
        SUBI	R30, LOW((-(cnt_ipcp_tm_out) & 0xFFFF))
        SBCI	R31, (-(cnt_ipcp_tm_out) & 0xFFFF) >> 8
        STD	Z+2, R22
        MOVW	R31:R30, R27:R26
        LDD	R16, Z+59
        INC	R16
        STD	Z+59, R16
        SUBI	R18, 255
        SBCI	R19, 255
        RJMP	??proc_ppp_packet_93
// 3613                                         IPCP_event=RUC;
// 3614                                         return(1);
// 3615                                         } 
// 3616                                     
// 3617                                           ip_sec_dns[0]=buf_rx_ppp[ind_opt+2];
??proc_ppp_packet_92:
        LDD	R18, Z+2
        MOVW	R31:R30, R27:R26
        STD	Z+4, R18
// 3618                                           ip_sec_dns[1]=buf_rx_ppp[ind_opt+3];
        MOVW	R31:R30, R17:R16
        LDD	R18, Z+3
        MOVW	R31:R30, R27:R26
        STD	Z+5, R18
// 3619                                           ip_sec_dns[2]=buf_rx_ppp[ind_opt+4];
        MOVW	R31:R30, R17:R16
        LDD	R18, Z+4
        MOVW	R31:R30, R27:R26
        STD	Z+6, R18
// 3620                                           ip_sec_dns[3]=buf_rx_ppp[ind_opt+5]; 
        MOVW	R31:R30, R17:R16
        LDD	R18, Z+5
        MOVW	R31:R30, R27:R26
        STD	Z+7, R18
// 3621                                           fl_opt.mru=1;                                        
// 3622                                       
// 3623                                  count_length_opt=count_length_opt+buf_rx_ppp[ind_opt+1];        
        RJMP	??proc_ppp_packet_84
// 3624                                  ind_opt=ind_opt+buf_rx_ppp[ind_opt+1];
// 3625                                  goto next_opt_ipcp_3; 
// 3626                              
// 3627 
// 3628                             
// 3629                             default:    for(i=3;i<=count_rx_ppp-4;i++){buf_rejc_opt_ipcp[ln_rejc_ipcp]=buf_rx_ppp[i];ln_rejc_ipcp++;}
??proc_ppp_packet_88:
        LDI	R18, 3
        LDI	R19, 0
??proc_ppp_packet_94:
        CP	R20, R18
        CPC	R21, R19
        BRCC	$+2+2
        RJMP	??proc_ppp_packet_65
        MOVW	R31:R30, R25:R24
        ADD	R30, R18
        ADC	R31, R19
        LD	R22, Z
        MOVW	R31:R30, R27:R26
        LDD	R16, Z+59
        LDI	R17, 0
        MOVW	R31:R30, R17:R16
        SUBI	R30, LOW((-(cnt_ipcp_tm_out) & 0xFFFF))
        SBCI	R31, (-(cnt_ipcp_tm_out) & 0xFFFF) >> 8
        STD	Z+2, R22
        MOVW	R31:R30, R27:R26
        LDD	R16, Z+59
        INC	R16
        STD	Z+59, R16
        SUBI	R18, 255
        SBCI	R19, 255
        RJMP	??proc_ppp_packet_94
// 3630                                         IPCP_event=RUC;
// 3631                                         return(1);    
// 3632                                   
// 3633                           }
// 3634                       
// 3635                       
// 3636   end_ipcp_opt_3:                                        
// 3637                       i_scr_ipcp++;//ďđčđŕůĺíčĺ čäĺíňčôčęŕňîđŕ
// 3638                       IPCP_event=RCN;                                             
// 3639                       return(1);         
// 3640                        
// 3641                   case CONF_REJ :
// 3642                        // ňî RCN íî âńĺ đŕâíî çŕďđîń ňĺő ćĺ îďöčé 
// 3643                       if(buf_rx_ppp[4]!=i_scr_ipcp)return(1);                        //ďđîâĺđęŕ čäĺíňčôčęŕňîđŕ
??proc_ppp_packet_53:
        LDD	R16, Z+4
        CP	R16, R17
        BREQ	$+2+2
        RJMP	??proc_ppp_packet_1
??proc_ppp_packet_85:
        MOVW	R31:R30, R27:R26
        LDD	R16, Z+50
        INC	R16
        STD	Z+50, R16
        LDI	R16, 9
        RJMP	??proc_ppp_packet_66
// 3644                       i_scr_ipcp++;//ďđčđŕůĺíčĺ čäĺíňčôčęŕňîđŕ
// 3645                       IPCP_event=RCN;
// 3646 
// 3647                       return(1);      
// 3648                        
// 3649                   case TERM_REQ :
// 3650                        IPCP_event=RTR;
??proc_ppp_packet_54:
        LDI	R16, 10
        MOVW	R31:R30, R27:R26
        STD	Z+35, R16
// 3651                        i_sta_ipcp=buf_rx_ppp[4];   // ďđčńâîĺíčĺ čäĺíňčôčęŕňîđŕ
        MOVW	R31:R30, R25:R24
        LDD	R16, Z+4
        MOVW	R31:R30, R27:R26
        STD	Z+53, R16
        RJMP	??proc_ppp_packet_1
// 3652                        return(1); 
// 3653                   case TERM_ACK : 
// 3654                       if(buf_rx_ppp[4]!=i_str_ipcp)return(1); 
??proc_ppp_packet_55:
        LDD	R16, Z+4
        MOVW	R31:R30, R27:R26
        LDD	R17, Z+52
        CP	R16, R17
        BREQ	$+2+2
        RJMP	??proc_ppp_packet_1
// 3655                       IPCP_event=RTA;
        LDI	R16, 11
        STD	Z+35, R16
// 3656                       i_str_ipcp++;   //ďđčđŕůĺíčĺ čäĺíňčôčęŕňîđŕ
        LDD	R16, Z+52
        INC	R16
        STD	Z+52, R16
        RJMP	??proc_ppp_packet_1
// 3657                       return(1);  
// 3658                   case CODE_REJ :;   //ęŕę ňî ńčăíŕëčçčđîâŕňü. íî íč÷ĺăî íĺ äĺëŕňü
// 3659                       return(1);                   
// 3660                   } 
// 3661                             
// 3662        break;        
// 3663        
// 3664         
// 3665        case PR_IP:            
// 3666    
// 3667    
// 3668   
// 3669   if(count_rx_ppp<(33+MIN_TR_HEAD))return(1); 
??proc_ppp_packet_10:
        LDI	R16, 45
        CP	R6, R16
        LDI	R16, 0
        CPC	R7, R16
        BRCC	$+2+2
        RJMP	??proc_ppp_packet_1
// 3670        
// 3671   Crc_out.bytes[0]=buf_rx_ppp[12];    //ďđîâĺđęŕ CRC IP 
        MOVW	R31:R30, R25:R24
        LDD	R16, Z+12
        STD	Y+2, R16
// 3672   Crc_out.bytes[1]=buf_rx_ppp[13];  
        LDD	R16, Z+13
        STD	Y+3, R16
// 3673   buf_rx_ppp[12]=0; 
        LDI	R16, 0
        STD	Z+12, R16
// 3674   buf_rx_ppp[13]=0; 
        STD	Z+13, R16
// 3675   temp.word=calc_crc_ip(&buf_rx_ppp[2],20);
        LDI	R18, 20
        LDI	R19, 0
        MOVW	R17:R16, R25:R24
        SUBI	R16, 254
        SBCI	R17, 255
        RCALL	calc_crc_ip
        ST	Y, R16
        STD	Y+1, R17
// 3676   if(Crc_out.word!=temp.word)return(1);
        LDD	R16, Y+2
        LDD	R17, Y+3
        LD	R18, Y
        LDD	R19, Y+1
        CP	R16, R18
        CPC	R17, R19
        BREQ	$+2+2
        RJMP	??proc_ppp_packet_1
// 3677 
// 3678 
// 3679   
// 3680   
// 3681   if((buf_rx_ppp[18]!=ip_self[0])||       //ńâĺđęŕ ńî ńâîčě IP
// 3682    (buf_rx_ppp[19]!=ip_self[1])|| 
// 3683    (buf_rx_ppp[20]!=ip_self[2])|| 
// 3684    (buf_rx_ppp[21]!=ip_self[3]))return(1);
        MOVW	R31:R30, R25:R24
        LDD	R16, Z+18
        LDI	R30, LOW(ip_self)
        LDI	R31, (ip_self) >> 8
        LD	R17, Z
        CP	R16, R17
        BREQ	$+2+2
        RJMP	??proc_ppp_packet_1
        MOVW	R31:R30, R25:R24
        LDD	R16, Z+19
        LDI	R30, LOW(ip_self)
        LDI	R31, (ip_self) >> 8
        LDD	R17, Z+1
        CP	R16, R17
        BREQ	$+2+2
        RJMP	??proc_ppp_packet_1
        MOVW	R31:R30, R25:R24
        LDD	R16, Z+20
        LDI	R30, LOW(ip_self)
        LDI	R31, (ip_self) >> 8
        LDD	R17, Z+2
        CP	R16, R17
        BREQ	$+2+2
        RJMP	??proc_ppp_packet_1
        MOVW	R31:R30, R25:R24
        LDD	R16, Z+21
        LDI	R30, LOW(ip_self)
        LDI	R31, (ip_self) >> 8
        LDD	R17, Z+3
        CP	R16, R17
        BREQ	$+2+2
        RJMP	??proc_ppp_packet_1
// 3685   
// 3686  
// 3687   
// 3688   if(buf_rx_ppp[11]!=0x11)return(1);  //ńâĺđęŕ ń ďđîňîęîëîě UDP
        MOVW	R31:R30, R25:R24
        LDD	R16, Z+11
        CPI	R16, 17
        BREQ	$+2+2
        RJMP	??proc_ppp_packet_1
// 3689   
// 3690   
// 3691 
// 3692   
// 3693   Crc_out.bytes[0]=buf_rx_ppp[28];    //ďđîâĺđęŕ CRC UDP 
        LDD	R16, Z+28
        STD	Y+2, R16
// 3694   Crc_out.bytes[1]=buf_rx_ppp[29];  
        LDD	R16, Z+29
        STD	Y+3, R16
// 3695   buf_rx_ppp[28]=0; 
        LDI	R16, 0
        STD	Z+28, R16
// 3696   buf_rx_ppp[29]=0; 
        STD	Z+29, R16
// 3697   temp.bytes[1]=buf_rx_ppp[26]; 
        LDD	R16, Z+26
        STD	Y+1, R16
// 3698   temp.bytes[0]=buf_rx_ppp[27]; 
        LDD	R16, Z+27
        ST	Y, R16
// 3699   temp.word=calc_crc_udp_2(&buf_rx_ppp[0],temp.word);
        LD	R18, Y
        LDD	R19, Y+1
        MOVW	R17:R16, R25:R24
        RCALL	calc_crc_udp_2
        ST	Y, R16
        STD	Y+1, R17
// 3700   if(Crc_out.word!=temp.word)return(1); 
        LDD	R16, Y+2
        LDD	R17, Y+3
        LD	R18, Y
        LDD	R19, Y+1
        CP	R16, R18
        CPC	R17, R19
        BREQ	$+2+2
        RJMP	??proc_ppp_packet_1
// 3701    
// 3702   
// 3703    Crc_out.bytes[1]=port_udp>>8;
        LDI	R30, LOW(port_udp)
        LDI	R31, (port_udp) >> 8
        LDD	R17, Z+1
        STD	Y+3, R17
// 3704    Crc_out.bytes[0]=port_udp;
        LD	R16, Z
        STD	Y+2, R16
// 3705    if((buf_rx_ppp[24]!=Crc_out.bytes[1])||       //ďđîâĺđęŕ UDP ďîđňŕ 
// 3706       (buf_rx_ppp[25]!=Crc_out.bytes[0]))return(1); 
        MOVW	R31:R30, R25:R24
        LDD	R16, Z+24
        LDD	R17, Y+3
        CP	R16, R17
        BREQ	$+2+2
        RJMP	??proc_ppp_packet_1
        LDD	R16, Z+25
        LDD	R17, Y+2
        CP	R16, R17
        BREQ	$+2+2
        RJMP	??proc_ppp_packet_1
// 3707   
// 3708     
// 3709   
// 3710    
// 3711    if(proc_udp_data(buf_rx_ppp,count_rx_ppp)==0)return(1); 
        MOVW	R19:R18, R7:R6
        MOVW	R17:R16, R25:R24
        RCALL	proc_udp_data
        RJMP	??proc_ppp_packet_1
        CFI EndBlock cfiBlock13
// 3712  
// 3713                  
// 3714     break;
// 3715       } 
// 3716  
// 3717  return(1);  
// 3718  }
// 3719  
// 3720  
// 3721  
// 3722  //!!!!!!!!!!!!!!!!!!!!!!!!!!!!!!!!!!!!!!!!!!!!!!!!!!!!!!!!!!!!!!
// 3723  

        RSEG CODE:CODE:NOROOT(1)
// 3724  void send_no_sinc(unsigned char id,unsigned int dst,unsigned char error)
send_no_sinc:
        CFI Block cfiBlock14 Using cfiCommon0
        CFI Function send_no_sinc
// 3725     {
        FUNCALL send_no_sinc, clr_cntr_nat
        LOCFRAME CSTACK, 4, STACK
        LOCFRAME RSTACK, 2, STACK
        FUNCALL send_no_sinc, clr_cntr_link
        LOCFRAME CSTACK, 4, STACK
        LOCFRAME RSTACK, 2, STACK
        FUNCALL send_no_sinc, form_buf_tx_ppp
        LOCFRAME CSTACK, 4, STACK
        LOCFRAME RSTACK, 2, STACK
        FUNCALL send_no_sinc, check_cts
        LOCFRAME CSTACK, 4, STACK
        LOCFRAME RSTACK, 2, STACK
        CALL	?PROLOGUE4_L09
        CFI R27 Frame(CFA_Y, -1)
        CFI R26 Frame(CFA_Y, -2)
        CFI R25 Frame(CFA_Y, -3)
        CFI R24 Frame(CFA_Y, -4)
        CFI CFA_Y Y+4
        MOV	R27, R16
        MOVW	R25:R24, R19:R18
        MOV	R26, R17
// 3726        if(fl_ip.act_ip_end!=1)return;
        LDI	R30, LOW(ip_pri_dns)
        LDI	R31, (ip_pri_dns) >> 8
        LDD	R16, Z+12
        SBRS	R16, 0
        RJMP	??send_no_sinc_0
// 3727           fl_ip.act_ip_end=0;      
        LDD	R16, Z+12
        ANDI	R16, 0xFE
        STD	Z+12, R16
// 3728           clr_cntr_nat();
        CALL	clr_cntr_nat
// 3729           clr_cntr_link();
        CALL	clr_cntr_link
// 3730           Obj_ppp_tx.prozr=FALSE;            
        LDI	R16, LOW(Obj_ppp_tx)
        LDI	R17, (Obj_ppp_tx) >> 8
        LDI	R18, 0
        MOVW	R31:R30, R17:R16
        ST	Z, R18
// 3731           Obj_ppp_tx.version=VER2;      //âĺđńč˙ 
        LDI	R18, 2
        STD	Z+1, R18
// 3732           Obj_ppp_tx.type_pac=OTV;     //ňčď ďŕęĺňŕ
        LDI	R18, 1
        STD	Z+2, R18
// 3733           Obj_ppp_tx.num_src=num_self; // íîěĺđ îňďđŕâčňĺë˙
        LDI	R30, LOW(num_self)
        LDI	R31, (num_self) >> 8
        LD	R18, Z
        LDD	R19, Z+1
        MOVW	R31:R30, R17:R16
        STD	Z+3, R18
        STD	Z+4, R19
// 3734           Obj_ppp_tx.num_dst=dst; // íîěĺđ ďîëó÷ŕňĺë˙
        STD	Z+5, R24
        STD	Z+6, R25
// 3735          
// 3736           Obj_ppp_tx.id_pac=id; // čäĺíňčôčęŕňîđ ďŕęĺňŕ  
        STD	Z+7, R27
// 3737           Obj_ppp_tx.p_opt=&buf_opt_tr[0]; // //óęŕçŕňĺëü áóôĺđŕ îďöčé          
        LDI	R18, LOW(buf_opt_tr)
        LDI	R19, (buf_opt_tr) >> 8
        STD	Z+8, R18
        STD	Z+9, R19
// 3738           
// 3739           
// 3740         Obj_ppp_tx.l_opt=3;// äëčíŕ áóôĺđŕ îďöčé   
        LDI	R20, 3
        STD	Z+10, R20
// 3741         buf_opt_tr[0]=KOD_OP_ERROR;
        LDI	R20, 4
        MOVW	R31:R30, R19:R18
        ST	Z, R20
// 3742         buf_opt_tr[1]=3;
        LDI	R20, 3
        STD	Z+1, R20
// 3743         buf_opt_tr[2]=error;
        STD	Z+2, R26
// 3744         
// 3745         //Obj_ppp_tx.kol_opt=1;// ęîëč÷ĺńňâî îďöčé     
// 3746        
// 3747        
// 3748          Obj_ppp_tx.l_data=0;   // äëčíŕ äŕííűő
        LDI	R18, 0
        MOVW	R31:R30, R17:R16
        STD	Z+14, R18
        STD	Z+15, R18
// 3749          Obj_ppp_tx.p_data=&buf_tx_232[TR_OP_DATA+C1_PROT];  //óęŕçŕňĺëü áóôĺđŕ äŕííűő
        LDI	R18, LOW((buf_tx_232 + 42))
        LDI	R19, HIGH((buf_tx_232 + 42))
        STD	Z+12, R18
        STD	Z+13, R19
// 3750         
// 3751          form_buf_tx_ppp();                            
        CALL	form_buf_tx_ppp
// 3752          UCSR0A=UCSR0A | TXC;                            
        LDS	R16, 192
        ORI	R16, 0x40
        STS	192, R16
// 3753          UCSR0B=UCSR0B | TXEN;
        LDS	R16, 193
        ORI	R16, 0x08
        STS	193, R16
// 3754          UCSR0B=UCSR0B | TXCIE;
        LDS	R16, 193
        ORI	R16, 0x40
        STS	193, R16
// 3755          if(check_cts()==1) return;                
        CALL	check_cts
        CPI	R16, 1
        BREQ	??send_no_sinc_0
// 3756          S2_RD;
        SBI	0x08, 0x00
        CBI	0x08, 0x01
// 3757          UDR0=buf_tx_232[0];
        LDS	R16, buf_tx_232
        STS	198, R16
// 3758          if(Regim==RG_DEBAG) UDR3=buf_tx_232[0];
        LDS	R16, Regim
        CPI	R16, 1
        BRNE	??send_no_sinc_0
        LDS	R16, buf_tx_232
        STS	310, R16
??send_no_sinc_0:
        LDI	R30, 4
        JMP	?EPILOGUE_B4_L09
        CFI EndBlock cfiBlock14
// 3759          return;     
// 3760     }
// 3761 
// 3762 

        RSEG CODE:CODE:NOROOT(1)
// 3763 unsigned char proc_paging(void)
proc_paging:
        CFI Block cfiBlock15 Using cfiCommon0
        CFI Function proc_paging
// 3764 { 
        MOVW	R21:R20, R25:R24
// 3765  if(fl_pg_out.hold_pg==1)
        LDI	R30, LOW(Obj_ppp_tx)
        LDI	R31, (Obj_ppp_tx) >> 8
        LDD	R18, Z+35
        LDD	R16, Z+33
        SBRS	R16, 5
        RJMP	??proc_paging_0
// 3766     {
// 3767     
// 3768          if((fl_pg_out.first_pg==1)&&(cnt_pg==0))
        LDD	R16, Z+24
        LDD	R17, Z+25
        LDD	R19, Z+33
        SBRS	R19, 4
        RJMP	??proc_paging_1
        MOV	R19, R16
        OR	R19, R17
        BRNE	??proc_paging_1
// 3769          { 
// 3770          cnt_pg=0;
// 3771          fl_pg_out.first_pg=0;
// 3772          fl_pg_out.end_pg=0;
// 3773          fl_pg_out.hold_pg=0;
// 3774          fl_pg_out.ch_crc=0;
// 3775          fl_pg_out.cor_pg=0;
??proc_paging_2:
        LDD	R16, Z+33
        ANDI	R16, 0xC4
        STD	Z+33, R16
// 3776          // äŕňü îřčáęó đŕńńčíőđîíčçŕöč˙ 
// 3777          return(1);
        LDI	R16, 1
        RJMP	??proc_paging_3
// 3778          }
// 3779     
// 3780         if((fl_pg_out.first_pg==1)&&(cnt_pg!=0))
??proc_paging_1:
        LDD	R19, Z+33
        SBRS	R19, 4
        RJMP	??proc_paging_4
        OR	R16, R17
        BREQ	??proc_paging_4
// 3781          {                                      // ýňî â ńëó÷ŕĺ ęîăäŕ ďđîöĺńń ďđĺđâŕí ŕ ďîňîě çŕíîâî âîçîáíîâë˙ĺňń˙
// 3782           fl_pg_out.hold_pg=1;
// 3783           fl_pg_out.first_pg=0;
// 3784           cnt_pg=0;
??proc_paging_5:
        LDI	R16, 0
        STD	Z+24, R16
        STD	Z+25, R16
// 3785           id_pg_kp=id_pg_appl+1;
        INC	R18
        STD	Z+34, R18
// 3786           fl_pg_out.cor_pg=1;
        LDD	R16, Z+33
        ANDI	R16, 0xEF
        ORI	R16, 0x28
??proc_paging_6:
        STD	Z+33, R16
// 3787           goto check_end_pg;
// 3788          }
// 3789       
// 3790     
// 3791      
// 3792       
// 3793       
// 3794       if(id_pg_kp==id_pg_appl)
// 3795          {
// 3796           cnt_pg++;
// 3797           id_pg_kp++;
// 3798           fl_pg_out.cor_pg=1;
// 3799           goto check_end_pg;
// 3800          }
// 3801          else
// 3802          {
// 3803           fl_pg_out.cor_pg=0;
// 3804           if(id_pg_appl==(id_pg_kp-1))goto check_end_pg;
// 3805              else
// 3806              {
// 3807               cnt_pg=0;
// 3808               fl_pg_out.first_pg=0;
// 3809               fl_pg_out.end_pg=0;
// 3810               fl_pg_out.hold_pg=0;
// 3811               fl_pg_out.ch_crc=0;
// 3812               fl_pg_out.cor_pg=0;
// 3813               // äŕňü îřčáęó đŕńńčíőđîíčçŕöč˙ 
// 3814               return(1);
// 3815              }
// 3816          }   
// 3817          
// 3818     }
// 3819     else
// 3820     {
// 3821       if(fl_pg_out.first_pg==1)
// 3822          {
// 3823           fl_pg_out.hold_pg=1;
// 3824           fl_pg_out.first_pg=0;
// 3825           cnt_pg=0;
// 3826           id_pg_kp=id_pg_appl+1;
// 3827           fl_pg_out.cor_pg=1;
// 3828           goto check_end_pg;
// 3829          }
// 3830          else
// 3831          {
// 3832          cnt_pg=0;
// 3833          fl_pg_out.first_pg=0;
// 3834          fl_pg_out.end_pg=0;
// 3835          fl_pg_out.hold_pg=0;
// 3836          fl_pg_out.ch_crc=0;
// 3837          fl_pg_out.cor_pg=0;
// 3838          // äŕňü îřčáęó đŕńńčíőđîíčçŕöč˙ 
// 3839          return(1);
// 3840          }
// 3841     }
// 3842     
// 3843 check_end_pg:
// 3844     
// 3845     if(fl_pg_out.end_pg==1)
??proc_paging_7:
        LDD	R16, Z+33
        SBRS	R16, 0
        RJMP	??proc_paging_8
// 3846        {
// 3847          fl_pg_out.hold_pg=0;
// 3848          fl_pg_out.first_pg=0;
        LDD	R16, Z+33
        ANDI	R16, 0xCF
        STD	Z+33, R16
// 3849        }
// 3850           
// 3851 return(0);
??proc_paging_8:
        LDI	R16, 0
??proc_paging_3:
        MOVW	R25:R24, R21:R20
        RET
??proc_paging_4:
        LDD	R24, Z+34
        CP	R24, R18
        BRNE	??proc_paging_9
        LDD	R16, Z+24
        LDD	R17, Z+25
        SUBI	R16, 255
        SBCI	R17, 255
        STD	Z+24, R16
        STD	Z+25, R17
        LDD	R16, Z+34
        INC	R16
        STD	Z+34, R16
        LDD	R16, Z+33
        ORI	R16, 0x08
        RJMP	??proc_paging_6
??proc_paging_9:
        LDD	R16, Z+33
        ANDI	R16, 0xF7
        STD	Z+33, R16
        MOV	R16, R18
        LDI	R17, 0
        LDI	R25, 0
        SBIW	R25:R24, 1
        CP	R16, R24
        CPC	R17, R25
        BREQ	??proc_paging_7
??proc_paging_10:
        LDI	R16, 0
        STD	Z+24, R16
        STD	Z+25, R16
        RJMP	??proc_paging_2
??proc_paging_0:
        LDD	R16, Z+33
        SBRC	R16, 4
        RJMP	??proc_paging_5
        RJMP	??proc_paging_10
        CFI EndBlock cfiBlock15
// 3852 }
// 3853  
// 3854  

        RSEG CODE:CODE:NOROOT(1)
// 3855  unsigned char proc_option(unsigned char *buf_rx_ppp,unsigned int ind,unsigned int count_rx_opt)
proc_option:
        CFI Block cfiBlock16 Using cfiCommon0
        CFI Function proc_option
// 3856  {
        CALL	?PROLOGUE10_L09
        CFI R9 Frame(CFA_Y, -1)
        CFI R8 Frame(CFA_Y, -2)
        CFI R7 Frame(CFA_Y, -3)
        CFI R6 Frame(CFA_Y, -4)
        CFI R5 Frame(CFA_Y, -5)
        CFI R4 Frame(CFA_Y, -6)
        CFI R27 Frame(CFA_Y, -7)
        CFI R26 Frame(CFA_Y, -8)
        CFI R25 Frame(CFA_Y, -9)
        CFI R24 Frame(CFA_Y, -10)
        CFI CFA_Y Y+10
        REQUIRE	?Register_R4_is_cg_reg
        REQUIRE	?Register_R5_is_cg_reg
        REQUIRE	?Register_R6_is_cg_reg
        REQUIRE	?Register_R7_is_cg_reg
        REQUIRE	?Register_R8_is_cg_reg
        REQUIRE	?Register_R9_is_cg_reg
        MOVW	R25:R24, R17:R16
        MOVW	R5:R4, R19:R18
        MOVW	R9:R8, R21:R20
// 3857 
// 3858  unsigned char tt;
// 3859 //return 0 îřčáęŕ, čăíîđčđîâŕňü, âĺńü íĺęîđđĺęňíűé ďŕęĺň
// 3860 // return 1 - ďđî÷čňŕíű âńĺ îďöčč (ďđč ďîńňóďčâřĺě çŕďđîńĺ) äŕëüřĺ âűőîä č âűäŕ÷ŕ îňâĺň íŕ çŕďđîń 
// 3861 // return 2 - îňâĺňčňü ńđŕçó đŕçěĺđîě ńňđŕíčöű
// 3862 unsigned char cnt=0;
        CLR	R6
        RJMP	??proc_option_0
// 3863  
// 3864  next_option: 
// 3865                
// 3866                switch(buf_rx_ppp[ind])
// 3867                  {
// 3868                  case KOD_OP_ERROR:  
// 3869                                   
// 3870                                   if(buf_rx_ppp[ind+1]!=L_ERR_NO_INTABL)return(0);   
// 3871                                   if(buf_rx_ppp[ind+2]!=ERR_NO_INTABL)return(0);
// 3872                                   if(((buf_rx_ppp[TR_V]>>4)&0x03)!=KVIT)return(0);
// 3873                                   if(*(unsigned int*)&buf_rx_ppp[ind+3]==num_seq_cl)
// 3874                                    {
// 3875                             
// 3876                                     Appl_seq.cnt_cntr_cl=0;
// 3877                                     Appl_seq.cntr_cl=TRUE;
// 3878                                     Appl_seq.en_cntr_cl=TRUE;
// 3879                                     Appl_seq.cnt_try=0;
// 3880                                     fl_appl_seq.en_povtor=0; 
// 3881                                     Appl_seq.l_data=0; 
// 3882                                     Appl_seq.cnt_waits=0;
// 3883                                     fl_appl_seq.kv_waits=0;
// 3884                                     }
// 3885                             
// 3886                                      cnt_no_link=vol_cnt_no_link;//dobavka
// 3887                                   
// 3888                                      Control.link_waits=FALSE;
// 3889                                      Control.cnt_link=Control.vol_link;                  
// 3890                                      Control.link=FALSE; 
// 3891                            
// 3892                                      Control.cnt_try=0;
// 3893                                      Control.link_no=FALSE;
// 3894                                      return(0);
// 3895                  
// 3896                  case KOD_OP_LUFKIN: 
// 3897                                      if(buf_rx_ppp[ind+1]!=L_OP_LUFKIN)return(0);  
// 3898                                      if(((buf_rx_ppp[TR_V]>>4)&0x03)!=ZAPR)return(0);
// 3899                                      delay_pre_tx=*(unsigned int*)&buf_rx_ppp[ind+2]; 
// 3900                                      if(delay_pre_tx>5000){delay_pre_tx=0;return(0); }//5 ńĺęóíä                                       
// 3901                                      return(1);
// 3902                   
// 3903                  case KOD_OP_SIZE_PG: 
// 3904                                       if(buf_rx_ppp[ind+1]!=L_OP_SIZE_PG)return(0);   
// 3905                                       if(((buf_rx_ppp[TR_V]>>4)&0x03)!=ZAPR)return(0);                                                             
// 3906                                       return(2); 
// 3907                  
// 3908                  case KOD_WR_PG: 
// 3909                                       if(buf_rx_ppp[ind+1]!=L_OP_WR_PG)return(0);   
// 3910                                       if(((buf_rx_ppp[TR_V]>>4)&0x03)!=ZAPR)return(0);
// 3911                                       if (buf_rx_ppp[ind+2] & FIRST_PG) fl_pg_out.first_pg=1;else fl_pg_out.first_pg=0; 
// 3912                                       if (buf_rx_ppp[ind+2] & NO_END_PG) fl_pg_out.end_pg=0;else fl_pg_out.end_pg=1;                                                        
// 3913                                       if (buf_rx_ppp[ind+2] & NADO_KV) fl_pg_out.send_kv=1;else fl_pg_out.send_kv=0;
// 3914                                       id_pg_appl=buf_rx_ppp[ind+3];
// 3915                                       break;
// 3916                                                   
// 3917                  case KOD_WR_PG_CRC: 
// 3918                                      
// 3919                                       fl_pg_out.ch_crc=0;
??proc_option_1:
        MOVW	R31:R30, R17:R16
        LDD	R18, Z+33
        ANDI	R18, 0xFD
        STD	Z+33, R18
// 3920                                       if(buf_rx_ppp[ind+1]!=L_OP_WR_PG_CRC)return(0);   
        MOVW	R31:R30, R27:R26
        LDD	R18, Z+1
        CPI	R18, 4
        BREQ	$+2+2
        RJMP	??proc_option_2
// 3921                                       if(((buf_rx_ppp[TR_V]>>4)&0x03)!=ZAPR)return(0); 
        MOVW	R31:R30, R25:R24
        LDD	R18, Z+36
        SWAP	R18
        ANDI	R18, 0x0F
        ANDI	R18, 0x03
        BREQ	$+2+2
        RJMP	??proc_option_2
// 3922                                       fl_pg_out.ch_crc=1;
        MOVW	R31:R30, R17:R16
        LDD	R18, Z+33
        ORI	R18, 0x02
        STD	Z+33, R18
// 3923                                       pg_crc=*(unsigned int*)&buf_rx_ppp[ind+2];                                                            
        MOVW	R31:R30, R27:R26
        LDD	R18, Z+2
        LDD	R19, Z+3
        MOVW	R31:R30, R17:R16
        STD	Z+22, R18
        STD	Z+23, R19
// 3924                                       break;
// 3925                  
// 3926                                   
// 3927                  default:  return(0);   
// 3928                               
// 3929                  }
// 3930  
// 3931  //çäĺńü âűń÷čňűâŕĺňń˙ äëčíŕ çŕďîëíčňĺë˙              
// 3932  tt=4-((buf_rx_ppp[ind+1]+4)%4);
??proc_option_3:
        MOVW	R31:R30, R27:R26
        LDD	R16, Z+1
        LDI	R17, 0
        SUBI	R16, 252
        SBCI	R17, 255
        LDI	R20, 4
        LDI	R21, 0
        CALL	?SS_DIVMOD_L02
        LDI	R16, 4
        SUB	R16, R20
// 3933  if(tt==4)tt=0;           
        CPI	R16, 4
        BRNE	??proc_option_4
        LDI	R16, 0
// 3934  ///////////////
// 3935  
// 3936  cnt=cnt+buf_rx_ppp[ind+1]+tt;
??proc_option_4:
        MOVW	R31:R30, R27:R26
        LDD	R17, Z+1
        ADD	R17, R16
        ADD	R6, R17
// 3937  if(cnt>=count_rx_opt)return(1);//âńĺ îďöčč ďđîń÷čňŕíű
        CLR	R7
        CP	R6, R8
        CPC	R7, R9
        BRCS	$+2+2
        RJMP	??proc_option_5
// 3938         
// 3939  ind=ind+buf_rx_ppp[ind+1]+tt;               
        LDD	R18, Z+1
        LDI	R17, 0
        ADD	R16, R18
        ADC	R17, R7
        ADD	R4, R16
        ADC	R5, R17
// 3940  //if(ind>=count_rx_opt)return(1);
// 3941  goto next_option;
??proc_option_0:
        MOVW	R27:R26, R25:R24
        ADD	R26, R4
        ADC	R27, R5
        LDI	R16, LOW(Obj_ppp_tx)
        LDI	R17, (Obj_ppp_tx) >> 8
        LD	R18, X
        SUBI	R18, 1
        BRNE	$+2+2
        RJMP	??proc_option_6
        DEC	R18
        BRNE	$+2+2
        RJMP	??proc_option_7
        DEC	R18
        BRNE	$+2+2
        RJMP	??proc_option_1
        DEC	R18
        BREQ	??proc_option_8
        SUBI	R18, 2
        BRNE	$+2+2
        RJMP	??proc_option_9
        RJMP	??proc_option_2
??proc_option_8:
        MOVW	R31:R30, R27:R26
        LDD	R16, Z+1
        CPI	R16, 5
        BREQ	??proc_option_10
??proc_option_2:
        LDI	R16, 0
??proc_option_11:
        LDI	R30, 10
        JMP	?EPILOGUE_B10_L09
??proc_option_10:
        LDD	R16, Z+2
        CPI	R16, 1
        BRNE	??proc_option_2
        MOVW	R31:R30, R25:R24
        LDD	R16, Z+36
        SWAP	R16
        ANDI	R16, 0x0F
        ANDI	R16, 0x03
        CPI	R16, 3
        BRNE	??proc_option_2
        MOVW	R31:R30, R27:R26
        LDD	R16, Z+3
        LDD	R17, Z+4
        LDI	R30, LOW(num_seq_cl)
        LDI	R31, (num_seq_cl) >> 8
        LD	R18, Z
        LDD	R19, Z+1
        CP	R16, R18
        CPC	R17, R19
        BRNE	??proc_option_12
        LDI	R30, LOW(Appl_seq)
        LDI	R31, (Appl_seq) >> 8
        LDI	R16, 0
        LDI	R17, 0
        STD	Z+22, R16
        STD	Z+23, R16
        LDI	R16, 1
        STD	Z+20, R16
        STD	Z+21, R16
        STD	Z+11, R17
        STD	Z+12, R17
        STD	Z+13, R17
        STD	Z+9, R17
        STD	Z+10, R17
        LDI	R30, LOW(fl_appl_seq)
        LDI	R31, (fl_appl_seq) >> 8
        LD	R16, Z
        ANDI	R16, 0xF9
        ST	Z, R16
??proc_option_12:
        LDI	R30, LOW(vol_cnt_no_link)
        LDI	R31, (vol_cnt_no_link) >> 8
        LD	R16, Z
        LDD	R17, Z+1
        LDD	R18, Z+2
        LDD	R19, Z+3
        LDI	R30, LOW(cnt_no_link)
        LDI	R31, (cnt_no_link) >> 8
        ST	Z, R16
        STD	Z+1, R17
        STD	Z+2, R18
        STD	Z+3, R19
        LDI	R30, LOW(Control)
        LDI	R31, (Control) >> 8
        LDI	R16, 0
        STD	Z+1, R16
        LDD	R16, Z+8
        LDD	R17, Z+9
        STD	Z+4, R16
        STD	Z+5, R17
        LDI	R16, 0
        STD	Z+2, R16
        STD	Z+14, R16
        ST	Z, R16
        RJMP	??proc_option_2
??proc_option_9:
        MOVW	R31:R30, R27:R26
        LDD	R18, Z+1
        CPI	R18, 4
        BREQ	$+2+2
        RJMP	??proc_option_2
        MOVW	R31:R30, R25:R24
        LDD	R18, Z+36
        SWAP	R18
        ANDI	R18, 0x0F
        ANDI	R18, 0x03
        BREQ	$+2+2
        RJMP	??proc_option_2
        MOVW	R31:R30, R27:R26
        LDD	R18, Z+2
        LDD	R19, Z+3
        MOVW	R31:R30, R17:R16
        STD	Z+16, R18
        STD	Z+17, R19
        CPI	R18, 137
        LDI	R20, 19
        CPC	R19, R20
        BRCS	??proc_option_5
        LDI	R18, 0
        STD	Z+16, R18
        STD	Z+17, R18
        RJMP	??proc_option_2
??proc_option_5:
        LDI	R16, 1
        RJMP	??proc_option_11
??proc_option_6:
        MOVW	R31:R30, R27:R26
        LDD	R16, Z+1
        CPI	R16, 3
        BREQ	$+2+2
        RJMP	??proc_option_2
        MOVW	R31:R30, R25:R24
        LDD	R16, Z+36
        SWAP	R16
        ANDI	R16, 0x0F
        ANDI	R16, 0x03
        BREQ	$+2+2
        RJMP	??proc_option_2
        LDI	R16, 2
        RJMP	??proc_option_11
??proc_option_7:
        MOVW	R31:R30, R27:R26
        LDD	R18, Z+1
        CPI	R18, 4
        BREQ	$+2+2
        RJMP	??proc_option_2
        MOVW	R31:R30, R25:R24
        LDD	R18, Z+36
        SWAP	R18
        ANDI	R18, 0x0F
        ANDI	R18, 0x03
        BREQ	$+2+2
        RJMP	??proc_option_2
        MOVW	R31:R30, R27:R26
        LDD	R18, Z+2
        MOVW	R31:R30, R17:R16
        SBRS	R18, 0
        RJMP	??proc_option_13
        LDD	R18, Z+33
        ORI	R18, 0x10
        RJMP	??proc_option_14
??proc_option_13:
        LDD	R18, Z+33
        ANDI	R18, 0xEF
??proc_option_14:
        STD	Z+33, R18
        MOVW	R31:R30, R27:R26
        LDD	R18, Z+2
        MOVW	R31:R30, R17:R16
        SBRS	R18, 1
        RJMP	??proc_option_15
        LDD	R18, Z+33
        ANDI	R18, 0xFE
        RJMP	??proc_option_16
??proc_option_15:
        LDD	R18, Z+33
        ORI	R18, 0x01
??proc_option_16:
        STD	Z+33, R18
        MOVW	R31:R30, R27:R26
        LDD	R18, Z+2
        MOVW	R31:R30, R17:R16
        SBRS	R18, 2
        RJMP	??proc_option_17
        LDD	R18, Z+33
        ORI	R18, 0x04
        RJMP	??proc_option_18
??proc_option_17:
        LDD	R18, Z+33
        ANDI	R18, 0xFB
??proc_option_18:
        STD	Z+33, R18
        MOVW	R31:R30, R27:R26
        LDD	R18, Z+3
        MOVW	R31:R30, R17:R16
        STD	Z+35, R18
        RJMP	??proc_option_3
        CFI EndBlock cfiBlock16
// 3942  } 
// 3943  
// 3944  
// 3945  

        RSEG CODE:CODE:NOROOT(1)
// 3946  void send_size_pg(unsigned char id,unsigned int dst)
send_size_pg:
        CFI Block cfiBlock17 Using cfiCommon0
        CFI Function send_size_pg
// 3947     {
        FUNCALL send_size_pg, clr_cntr_nat
        LOCFRAME CSTACK, 4, STACK
        LOCFRAME RSTACK, 2, STACK
        FUNCALL send_size_pg, clr_cntr_link
        LOCFRAME CSTACK, 4, STACK
        LOCFRAME RSTACK, 2, STACK
        FUNCALL send_size_pg, form_buf_tx_ppp
        LOCFRAME CSTACK, 4, STACK
        LOCFRAME RSTACK, 2, STACK
        FUNCALL send_size_pg, check_cts
        LOCFRAME CSTACK, 4, STACK
        LOCFRAME RSTACK, 2, STACK
        CALL	?PROLOGUE4_L09
        CFI R27 Frame(CFA_Y, -1)
        CFI R26 Frame(CFA_Y, -2)
        CFI R25 Frame(CFA_Y, -3)
        CFI R24 Frame(CFA_Y, -4)
        CFI CFA_Y Y+4
        MOV	R26, R16
        MOVW	R25:R24, R19:R18
// 3948        if(fl_ip.act_ip_end!=1)return;
        LDI	R30, LOW(ip_pri_dns)
        LDI	R31, (ip_pri_dns) >> 8
        LDD	R16, Z+12
        SBRS	R16, 0
        RJMP	??send_size_pg_0
// 3949           fl_ip.act_ip_end=0;      
        LDD	R16, Z+12
        ANDI	R16, 0xFE
        STD	Z+12, R16
// 3950           clr_cntr_nat();
        CALL	clr_cntr_nat
// 3951           clr_cntr_link();
        CALL	clr_cntr_link
// 3952           Obj_ppp_tx.prozr=FALSE;            
        LDI	R16, LOW(Obj_ppp_tx)
        LDI	R17, (Obj_ppp_tx) >> 8
        LDI	R18, 0
        MOVW	R31:R30, R17:R16
        ST	Z, R18
// 3953           Obj_ppp_tx.version=VER2;      //âĺđńč˙ 
        LDI	R18, 2
        STD	Z+1, R18
// 3954           Obj_ppp_tx.type_pac=OTV;     //ňčď ďŕęĺňŕ
        LDI	R18, 1
        STD	Z+2, R18
// 3955           Obj_ppp_tx.num_src=num_self; // íîěĺđ îňďđŕâčňĺë˙
        LDI	R30, LOW(num_self)
        LDI	R31, (num_self) >> 8
        LD	R18, Z
        LDD	R19, Z+1
        MOVW	R31:R30, R17:R16
        STD	Z+3, R18
        STD	Z+4, R19
// 3956           Obj_ppp_tx.num_dst=dst; // íîěĺđ ďîëó÷ŕňĺë˙
        STD	Z+5, R24
        STD	Z+6, R25
// 3957          
// 3958           Obj_ppp_tx.id_pac=id; // čäĺíňčôčęŕňîđ ďŕęĺňŕ  
        STD	Z+7, R26
// 3959           Obj_ppp_tx.p_opt=&buf_opt_tr[0]; // //óęŕçŕňĺëü áóôĺđŕ îďöčé          
        LDI	R30, LOW(buf_opt_tr)
        LDI	R31, (buf_opt_tr) >> 8
        MOVW	R27:R26, R17:R16
        ADIW	R27:R26, 8
        ST	X+, R30
        ST	X, R31
// 3960           
// 3961           
// 3962         Obj_ppp_tx.l_opt=4;// äëčíŕ áóôĺđŕ îďöčé   
        LDI	R18, 4
        MOVW	R27:R26, R17:R16
        ADIW	R27:R26, 10
        ST	X, R18
// 3963         buf_opt_tr[0]=KOD_OP_SIZE_PG;
        LDI	R18, 1
        ST	Z, R18
// 3964         buf_opt_tr[1]=L_OP_SIZE_PG_OTV;
        LDI	R18, 4
        STD	Z+1, R18
// 3965         *(unsigned int*)&buf_opt_tr[2]=256;  
        LDI	R18, 0
        LDI	R19, 1
        STD	Z+2, R18
        STD	Z+3, R19
// 3966         
// 3967         //Obj_ppp_tx.kol_opt=1;// ęîëč÷ĺńňâî îďöčé     
// 3968        
// 3969        
// 3970          Obj_ppp_tx.l_data=0;   // äëčíŕ äŕííűő
        MOVW	R31:R30, R17:R16
        STD	Z+14, R18
        STD	Z+15, R18
// 3971          Obj_ppp_tx.p_data=&buf_tx_232[TR_OP_DATA+C1_PROT];  //óęŕçŕňĺëü áóôĺđŕ äŕííűő
        LDI	R18, LOW((buf_tx_232 + 42))
        LDI	R19, HIGH((buf_tx_232 + 42))
        STD	Z+12, R18
        STD	Z+13, R19
// 3972         
// 3973          form_buf_tx_ppp();                            
        CALL	form_buf_tx_ppp
// 3974          UCSR0A=UCSR0A | TXC;                            
        LDS	R16, 192
        ORI	R16, 0x40
        STS	192, R16
// 3975          UCSR0B=UCSR0B | TXEN;
        LDS	R16, 193
        ORI	R16, 0x08
        STS	193, R16
// 3976          UCSR0B=UCSR0B | TXCIE;
        LDS	R16, 193
        ORI	R16, 0x40
        STS	193, R16
// 3977          if(check_cts()==1) return;                
        CALL	check_cts
        CPI	R16, 1
        BREQ	??send_size_pg_0
// 3978          S2_RD;
        SBI	0x08, 0x00
        CBI	0x08, 0x01
// 3979          UDR0=buf_tx_232[0];
        LDS	R16, buf_tx_232
        STS	198, R16
// 3980          if(Regim==RG_DEBAG) UDR3=buf_tx_232[0];
        LDS	R16, Regim
        CPI	R16, 1
        BRNE	??send_size_pg_0
        LDS	R16, buf_tx_232
        STS	310, R16
??send_size_pg_0:
        LDI	R30, 4
        JMP	?EPILOGUE_B4_L09
        CFI EndBlock cfiBlock17
// 3981          return;     
// 3982     }
// 3983  
// 3984 /* 
// 3985  void send_otv_ping(unsigned char id,unsigned int dst)
// 3986     {
// 3987        if(fl_ip.act_ip_end!=1)return;
// 3988           fl_ip.act_ip_end=0;      
// 3989           clr_cntr_nat();
// 3990           clr_cntr_link();
// 3991           Obj_ppp_tx.prozr=FALSE;            
// 3992           Obj_ppp_tx.version=VER2;      //âĺđńč˙ 
// 3993           Obj_ppp_tx.type_pac=OTV;     //ňčď ďŕęĺňŕ
// 3994           Obj_ppp_tx.num_src=num_self; // íîěĺđ îňďđŕâčňĺë˙
// 3995           Obj_ppp_tx.num_dst=dst; // íîěĺđ ďîëó÷ŕňĺë˙
// 3996          
// 3997           Obj_ppp_tx.id_pac=id; // čäĺíňčôčęŕňîđ ďŕęĺňŕ  
// 3998               
// 3999           Obj_ppp_tx.kol_opt=0;// ęîëč÷ĺńňâî îďöčé   
// 4000           Obj_ppp_tx.l_opt=0;// äëčíŕ áóôĺđŕ îďöčé   
// 4001         
// 4002           Obj_ppp_tx.l_data=0;   // äëčíŕ äŕííűő
// 4003          
// 4004           
// 4005          form_buf_tx_ppp();                            
// 4006          UCSR0A=UCSR0A | TXC;                            
// 4007          UCSR0B=UCSR0B | TXEN;
// 4008          UCSR0B=UCSR0B | TXCIE;
// 4009          if(check_cts()==1) return;                
// 4010          S2_RD;
// 4011          UDR0=buf_tx_232[0];
// 4012          if(Regim==RG_DEBAG) UDR3=buf_tx_232[0];
// 4013          return;     
// 4014     }
// 4015  
// 4016  */
// 4017  

        RSEG CODE:CODE:NOROOT(1)
// 4018   unsigned char proc_udp_data(unsigned char *buf_rx_ppp,unsigned int count_rx_ppp)
proc_udp_data:
        CFI Block cfiBlock18 Using cfiCommon0
        CFI Function proc_udp_data
// 4019                {
        FUNCALL proc_udp_data, transform_buf
        LOCFRAME CSTACK, 18, STACK
        LOCFRAME RSTACK, 2, STACK
        FUNCALL proc_udp_data, crc_m1
        LOCFRAME CSTACK, 18, STACK
        LOCFRAME RSTACK, 2, STACK
        FUNCALL proc_udp_data, proc_option
        LOCFRAME CSTACK, 18, STACK
        LOCFRAME RSTACK, 2, STACK
        FUNCALL proc_udp_data, send_size_pg
        LOCFRAME CSTACK, 18, STACK
        LOCFRAME RSTACK, 2, STACK
        FUNCALL proc_udp_data, send_info
        LOCFRAME CSTACK, 18, STACK
        LOCFRAME RSTACK, 2, STACK
        FUNCALL proc_udp_data, clr_cntr_nat
        LOCFRAME CSTACK, 18, STACK
        LOCFRAME RSTACK, 2, STACK
        FUNCALL proc_udp_data, send_info
        LOCFRAME CSTACK, 18, STACK
        LOCFRAME RSTACK, 2, STACK
        FUNCALL proc_udp_data, send_info
        LOCFRAME CSTACK, 18, STACK
        LOCFRAME RSTACK, 2, STACK
        FUNCALL proc_udp_data, send_err485
        LOCFRAME CSTACK, 18, STACK
        LOCFRAME RSTACK, 2, STACK
        FUNCALL proc_udp_data, send_info
        LOCFRAME CSTACK, 18, STACK
        LOCFRAME RSTACK, 2, STACK
        FUNCALL proc_udp_data, send_err485
        LOCFRAME CSTACK, 18, STACK
        LOCFRAME RSTACK, 2, STACK
        FUNCALL proc_udp_data, check_cont_485_1
        LOCFRAME CSTACK, 18, STACK
        LOCFRAME RSTACK, 2, STACK
        FUNCALL proc_udp_data, send_info
        LOCFRAME CSTACK, 18, STACK
        LOCFRAME RSTACK, 2, STACK
        FUNCALL proc_udp_data, send_err485
        LOCFRAME CSTACK, 18, STACK
        LOCFRAME RSTACK, 2, STACK
        FUNCALL proc_udp_data, send_info
        LOCFRAME CSTACK, 18, STACK
        LOCFRAME RSTACK, 2, STACK
        FUNCALL proc_udp_data, send_err485
        LOCFRAME CSTACK, 18, STACK
        LOCFRAME RSTACK, 2, STACK
        FUNCALL proc_udp_data, send_info
        LOCFRAME CSTACK, 18, STACK
        LOCFRAME RSTACK, 2, STACK
        FUNCALL proc_udp_data, send_err485
        LOCFRAME CSTACK, 18, STACK
        LOCFRAME RSTACK, 2, STACK
        FUNCALL proc_udp_data, proc_option
        LOCFRAME CSTACK, 18, STACK
        LOCFRAME RSTACK, 2, STACK
        FUNCALL proc_udp_data, send_info
        LOCFRAME CSTACK, 18, STACK
        LOCFRAME RSTACK, 2, STACK
        FUNCALL proc_udp_data, send_err485
        LOCFRAME CSTACK, 18, STACK
        LOCFRAME RSTACK, 2, STACK
        FUNCALL proc_udp_data, send_info
        LOCFRAME CSTACK, 18, STACK
        LOCFRAME RSTACK, 2, STACK
        FUNCALL proc_udp_data, send_err485
        LOCFRAME CSTACK, 18, STACK
        LOCFRAME RSTACK, 2, STACK
        FUNCALL proc_udp_data, check_cont_485_1
        LOCFRAME CSTACK, 18, STACK
        LOCFRAME RSTACK, 2, STACK
        FUNCALL proc_udp_data, send_info
        LOCFRAME CSTACK, 18, STACK
        LOCFRAME RSTACK, 2, STACK
        FUNCALL proc_udp_data, send_err485
        LOCFRAME CSTACK, 18, STACK
        LOCFRAME RSTACK, 2, STACK
        FUNCALL proc_udp_data, send_info
        LOCFRAME CSTACK, 18, STACK
        LOCFRAME RSTACK, 2, STACK
        FUNCALL proc_udp_data, send_err485
        LOCFRAME CSTACK, 18, STACK
        LOCFRAME RSTACK, 2, STACK
        FUNCALL proc_udp_data, send_info
        LOCFRAME CSTACK, 18, STACK
        LOCFRAME RSTACK, 2, STACK
        FUNCALL proc_udp_data, send_err485
        LOCFRAME CSTACK, 18, STACK
        LOCFRAME RSTACK, 2, STACK
        FUNCALL proc_udp_data, proc_option
        LOCFRAME CSTACK, 18, STACK
        LOCFRAME RSTACK, 2, STACK
        FUNCALL proc_udp_data, send_info
        LOCFRAME CSTACK, 18, STACK
        LOCFRAME RSTACK, 2, STACK
        FUNCALL proc_udp_data, send_err485
        LOCFRAME CSTACK, 18, STACK
        LOCFRAME RSTACK, 2, STACK
        FUNCALL proc_udp_data, send_info
        LOCFRAME CSTACK, 18, STACK
        LOCFRAME RSTACK, 2, STACK
        FUNCALL proc_udp_data, send_err485
        LOCFRAME CSTACK, 18, STACK
        LOCFRAME RSTACK, 2, STACK
        FUNCALL proc_udp_data, check_cont_485_1
        LOCFRAME CSTACK, 18, STACK
        LOCFRAME RSTACK, 2, STACK
        FUNCALL proc_udp_data, send_info
        LOCFRAME CSTACK, 18, STACK
        LOCFRAME RSTACK, 2, STACK
        FUNCALL proc_udp_data, send_err485
        LOCFRAME CSTACK, 18, STACK
        LOCFRAME RSTACK, 2, STACK
        FUNCALL proc_udp_data, send_info
        LOCFRAME CSTACK, 18, STACK
        LOCFRAME RSTACK, 2, STACK
        FUNCALL proc_udp_data, send_err485
        LOCFRAME CSTACK, 18, STACK
        LOCFRAME RSTACK, 2, STACK
        FUNCALL proc_udp_data, send_info
        LOCFRAME CSTACK, 18, STACK
        LOCFRAME RSTACK, 2, STACK
        FUNCALL proc_udp_data, send_err485
        LOCFRAME CSTACK, 18, STACK
        LOCFRAME RSTACK, 2, STACK
        FUNCALL proc_udp_data, proc_option
        LOCFRAME CSTACK, 18, STACK
        LOCFRAME RSTACK, 2, STACK
        FUNCALL proc_udp_data, clr_cntr_nat
        LOCFRAME CSTACK, 18, STACK
        LOCFRAME RSTACK, 2, STACK
        FUNCALL proc_udp_data, clr_cntr_link
        LOCFRAME CSTACK, 18, STACK
        LOCFRAME RSTACK, 2, STACK
        FUNCALL proc_udp_data, burst_ds_r
        LOCFRAME CSTACK, 18, STACK
        LOCFRAME RSTACK, 2, STACK
        FUNCALL proc_udp_data, send_info
        LOCFRAME CSTACK, 18, STACK
        LOCFRAME RSTACK, 2, STACK
        FUNCALL proc_udp_data, form_buf_tx_ppp
        LOCFRAME CSTACK, 18, STACK
        LOCFRAME RSTACK, 2, STACK
        FUNCALL proc_udp_data, check_cts
        LOCFRAME CSTACK, 18, STACK
        LOCFRAME RSTACK, 2, STACK
        FUNCALL proc_udp_data, send_info
        LOCFRAME CSTACK, 18, STACK
        LOCFRAME RSTACK, 2, STACK
        FUNCALL proc_udp_data, check_ln_conf
        LOCFRAME CSTACK, 18, STACK
        LOCFRAME RSTACK, 2, STACK
        FUNCALL proc_udp_data, WrArrayToFlesh
        LOCFRAME CSTACK, 18, STACK
        LOCFRAME RSTACK, 2, STACK
        FUNCALL proc_udp_data, RdFromFleshToArr
        LOCFRAME CSTACK, 18, STACK
        LOCFRAME RSTACK, 2, STACK
        FUNCALL proc_udp_data, proc_config
        LOCFRAME CSTACK, 18, STACK
        LOCFRAME RSTACK, 2, STACK
        FUNCALL proc_udp_data, clr_cntr_nat
        LOCFRAME CSTACK, 18, STACK
        LOCFRAME RSTACK, 2, STACK
        FUNCALL proc_udp_data, clr_cntr_link
        LOCFRAME CSTACK, 18, STACK
        LOCFRAME RSTACK, 2, STACK
        FUNCALL proc_udp_data, send_info
        LOCFRAME CSTACK, 18, STACK
        LOCFRAME RSTACK, 2, STACK
        FUNCALL proc_udp_data, form_buf_tx_ppp
        LOCFRAME CSTACK, 18, STACK
        LOCFRAME RSTACK, 2, STACK
        FUNCALL proc_udp_data, RdFromFleshToArr
        LOCFRAME CSTACK, 18, STACK
        LOCFRAME RSTACK, 2, STACK
        FUNCALL proc_udp_data, crc_ozu
        LOCFRAME CSTACK, 18, STACK
        LOCFRAME RSTACK, 2, STACK
        FUNCALL proc_udp_data, check_cts
        LOCFRAME CSTACK, 18, STACK
        LOCFRAME RSTACK, 2, STACK
        FUNCALL proc_udp_data, proc_option
        LOCFRAME CSTACK, 18, STACK
        LOCFRAME RSTACK, 2, STACK
        FUNCALL proc_udp_data, proc_paging
        LOCFRAME CSTACK, 18, STACK
        LOCFRAME RSTACK, 2, STACK
        FUNCALL proc_udp_data, send_no_sinc
        LOCFRAME CSTACK, 18, STACK
        LOCFRAME RSTACK, 2, STACK
        FUNCALL proc_udp_data, send_no_sinc
        LOCFRAME CSTACK, 18, STACK
        LOCFRAME RSTACK, 2, STACK
        FUNCALL proc_udp_data, boot
        LOCFRAME CSTACK, 18, STACK
        LOCFRAME RSTACK, 2, STACK
        FUNCALL proc_udp_data, r_p_flash
        LOCFRAME CSTACK, 18, STACK
        LOCFRAME RSTACK, 2, STACK
        FUNCALL proc_udp_data, crc_m1
        LOCFRAME CSTACK, 18, STACK
        LOCFRAME RSTACK, 2, STACK
        FUNCALL proc_udp_data, clr_cntr_nat
        LOCFRAME CSTACK, 18, STACK
        LOCFRAME RSTACK, 2, STACK
        FUNCALL proc_udp_data, clr_cntr_link
        LOCFRAME CSTACK, 18, STACK
        LOCFRAME RSTACK, 2, STACK
        FUNCALL proc_udp_data, send_info
        LOCFRAME CSTACK, 18, STACK
        LOCFRAME RSTACK, 2, STACK
        FUNCALL proc_udp_data, form_buf_tx_ppp
        LOCFRAME CSTACK, 18, STACK
        LOCFRAME RSTACK, 2, STACK
        FUNCALL proc_udp_data, check_cts
        LOCFRAME CSTACK, 18, STACK
        LOCFRAME RSTACK, 2, STACK
        FUNCALL proc_udp_data, delay
        LOCFRAME CSTACK, 18, STACK
        LOCFRAME RSTACK, 2, STACK
        FUNCALL proc_udp_data, WrArrayToFlesh
        LOCFRAME CSTACK, 18, STACK
        LOCFRAME RSTACK, 2, STACK
        FUNCALL proc_udp_data, send_info
        LOCFRAME CSTACK, 18, STACK
        LOCFRAME RSTACK, 2, STACK
        FUNCALL proc_udp_data, reload_apl
        LOCFRAME CSTACK, 18, STACK
        LOCFRAME RSTACK, 2, STACK
        CALL	?PROLOGUE16_L09
        CFI R15 Frame(CFA_Y, -1)
        CFI R14 Frame(CFA_Y, -2)
        CFI R13 Frame(CFA_Y, -3)
        CFI R12 Frame(CFA_Y, -4)
        CFI R11 Frame(CFA_Y, -5)
        CFI R10 Frame(CFA_Y, -6)
        CFI R9 Frame(CFA_Y, -7)
        CFI R8 Frame(CFA_Y, -8)
        CFI R7 Frame(CFA_Y, -9)
        CFI R6 Frame(CFA_Y, -10)
        CFI R5 Frame(CFA_Y, -11)
        CFI R4 Frame(CFA_Y, -12)
        CFI R27 Frame(CFA_Y, -13)
        CFI R26 Frame(CFA_Y, -14)
        CFI R25 Frame(CFA_Y, -15)
        CFI R24 Frame(CFA_Y, -16)
        CFI CFA_Y Y+16
        REQUIRE	?Register_R4_is_cg_reg
        REQUIRE	?Register_R5_is_cg_reg
        REQUIRE	?Register_R6_is_cg_reg
        REQUIRE	?Register_R7_is_cg_reg
        REQUIRE	?Register_R10_is_cg_reg
        REQUIRE	?Register_R11_is_cg_reg
        REQUIRE	?Register_R12_is_cg_reg
        REQUIRE	?Register_R13_is_cg_reg
        REQUIRE	?Register_R14_is_cg_reg
        REQUIRE	?Register_R15_is_cg_reg
        SBIW	R29:R28, 2
        CFI CFA_Y Y+18
        ST	Y, R18
        STD	Y+1, R19
        MOVW	R27:R26, R17:R16
// 4020                unsigned int length,crc;
// 4021               // unsigned char *p_data;
// 4022                unsigned char length_head;
// 4023                unsigned char offset,i;
// 4024               // unsigned int ii;
// 4025              
// 4026               
// 4027                
// 4028                
// 4029                //ďđîâĺđęŕ äëčíű äŕííűő UDP 
// 4030                length=*(unsigned int*)&buf_rx_ppp[UDP_LN];
// 4031                if(length<MIN_TR_HEAD)return(0);
        MOVW	R31:R30, R27:R26
        LDD	R24, Z+26
        LDD	R25, Z+27
        CPI	R24, 12
        SBCI	R25, 0
        BRCC	??proc_udp_data_0
??proc_udp_data_1:
        LDI	R16, 0
??proc_udp_data_2:
        ADIW	R29:R28, 2
        CFI CFA_Y Y+16
        LDI	R30, 16
        JMP	?EPILOGUE_B16_L09
        CFI CFA_Y Y+18
// 4032                
// 4033                // ďđîâĺđęŕ äëčíű ňđŕíńďîđňŕ
// 4034                length=*(unsigned int*)&buf_rx_ppp[TR_LEN];
??proc_udp_data_0:
        LDD	R14, Z+32
        LDD	R15, Z+33
// 4035                if (length<MIN_TR_HEAD) return(0);
        LDI	R16, 12
        CP	R14, R16
        LDI	R16, 0
        CPC	R15, R16
        BRCS	??proc_udp_data_1
// 4036                if (length>count_rx_ppp-5-20-8)return(0);
        LD	R24, Y
        LDD	R25, Y+1
        SBIW	R25:R24, 33
        CP	R24, R14
        CPC	R25, R15
        BRCS	??proc_udp_data_1
// 4037            
// 4038                transform_buf(&buf_rx_ppp[TR_ID],*(unsigned int*)&buf_rx_ppp[TR_LEN]-7,*(unsigned int*)&buf_rx_ppp[TR_KOD]);
        LDD	R20, Z+34
        LDD	R21, Z+35
        LDD	R18, Z+32
        LDD	R19, Z+33
        SUBI	R18, 7
        SBCI	R19, 0
        MOVW	R17:R16, R27:R26
        SUBI	R16, 219
        SBCI	R17, 255
        CALL	transform_buf
// 4039                
// 4040                *(unsigned int*)&buf_rx_ppp[TR_KOD]=0;
        LDI	R16, 0
        MOVW	R31:R30, R27:R26
        STD	Z+34, R16
        STD	Z+35, R16
// 4041                 
// 4042                crc=*(unsigned int*)&buf_rx_ppp[TR_CRC];
        LDD	R4, Z+38
        LDD	R5, Z+39
// 4043                *(unsigned int*)&buf_rx_ppp[TR_CRC]=0;
        STD	Z+38, R16
        STD	Z+39, R16
// 4044                
// 4045                //ďđîâĺđęŕ crc
// 4046                 if(crc!=crc_m1(&buf_rx_ppp[TR_SRC],*(unsigned int*)&buf_rx_ppp[TR_LEN],0xffff))return(0);         
        LDI	R20, 255
        LDI	R21, 255
        LDD	R18, Z+32
        LDD	R19, Z+33
        MOVW	R17:R16, R27:R26
        SUBI	R16, 226
        SBCI	R17, 255
        CALL	crc_m1
        CP	R4, R16
        CPC	R5, R17
        BRNE	??proc_udp_data_1
// 4047                          
// 4048                 
// 4049                 
// 4050 
// 4051                if((buf_rx_ppp[TR_V]>>6)==VER2)// âĺđńč˙ ďđîňîęîëŕ VER2
        MOVW	R31:R30, R27:R26
        LDD	R16, Z+36
        ANDI	R16, 0xC0
        CPI	R16, 128
        BRNE	??proc_udp_data_1
// 4052                { 
// 4053                
// 4054                
// 4055                if(*(unsigned int*)&buf_rx_ppp[TR_DST]!=num_self)return(0); 
        LDD	R16, Z+40
        LDD	R17, Z+41
        LDI	R30, LOW(num_self)
        LDI	R31, (num_self) >> 8
        LD	R18, Z
        LDD	R19, Z+1
        CP	R16, R18
        CPC	R17, R19
        BRNE	??proc_udp_data_1
// 4056                
// 4057                
// 4058                
// 4059                length_head=(buf_rx_ppp[TR_V]&0x0f)*4;
        MOVW	R31:R30, R27:R26
        LDD	R10, Z+36
        LDI	R16, 15
        AND	R10, R16
        LSL	R10
        LSL	R10
// 4060                
// 4061                
// 4062                if(length_head<MIN_TR_HEAD)return(0);
        LDI	R16, 12
        CP	R10, R16
        BRCC	$+2+2
        RJMP	??proc_udp_data_1
// 4063                if(length_head>50)return(0);// ďîęŕ îăđŕíč÷čë
        LDI	R16, 51
        CP	R10, R16
        BRCS	$+2+2
        RJMP	??proc_udp_data_1
// 4064                
// 4065                
// 4066               
// 4067               
// 4068             
// 4069                
// 4070                length=count_rx_ppp-5-20-8-length_head;
        MOVW	R15:R14, R25:R24
        CLR	R11
        SUB	R14, R10
        SBC	R15, R11
// 4071                
// 4072                
// 4073              
// 4074                if(length==0) //ĺńëč äëčíŕ äŕííűő 0 ňî ęîíňđîëü ńâ˙çč č ďđîâĺđęŕ
        MOV	R12, R10
        CLR	R13
        LDI	R16, 244
        ADD	R12, R16
        LDI	R16, 255
        ADC	R13, R16
        MOV	R16, R14
        OR	R16, R15
        BREQ	$+2+2
        RJMP	??proc_udp_data_3
// 4075                   {
// 4076                    
// 4077                   if(length_head>MIN_TR_HEAD)
        LDI	R16, 13
        CP	R10, R16
        BRCS	??proc_udp_data_4
// 4078                     {
// 4079                      if (proc_option(buf_rx_ppp,TR_OP_DATA,length_head-MIN_TR_HEAD)==2)
        MOVW	R21:R20, R13:R12
        LDI	R18, 42
        LDI	R19, 0
        MOVW	R17:R16, R27:R26
        RCALL	proc_option
        CPI	R16, 2
        BREQ	$+2+2
        RJMP	??proc_udp_data_1
// 4080                        {
// 4081                         send_size_pg(buf_rx_ppp[TR_ID],*(unsigned int*)&buf_rx_ppp[TR_SRC]);
        MOVW	R31:R30, R27:R26
        LDD	R18, Z+30
        LDD	R19, Z+31
        LDD	R16, Z+37
        RCALL	send_size_pg
        RJMP	??proc_udp_data_1
// 4082                        }
// 4083                       return(0);
// 4084                     }
// 4085                   
// 4086                   
// 4087                 
// 4088                   /*
// 4089                   if(((buf_rx_ppp[TR_V]>>4)&0x03)==ZAPR)
// 4090                   { 
// 4091                     send_otv_ping(buf_rx_ppp[TR_ID],*(unsigned int*)&buf_rx_ppp[TR_SRC]);
// 4092                     send_info(sizeof(ans_out_ping),ans_out_ping,1,buf_rx_ppp[TR_ID]);
// 4093                     return(0); 
// 4094                   }
// 4095                   
// 4096                   */
// 4097 
// 4098                    if(*(unsigned int*)&buf_rx_ppp[TR_SRC]!=NUM_SRV_LINK)return(0);
??proc_udp_data_4:
        LDD	R16, Z+30
        LDD	R17, Z+31
        OR	R16, R17
        BREQ	$+2+2
        RJMP	??proc_udp_data_1
// 4099 //                  if(buf_rx_ppp[TR_ID]!=ID_CC)return(0);
// 4100 
// 4101                   if(((buf_rx_ppp[TR_V]>>4)&0x03)!=KVIT)return(0); 
        LDD	R16, Z+36
        SWAP	R16
        ANDI	R16, 0x0F
        ANDI	R16, 0x03
        CPI	R16, 3
        BREQ	$+2+2
        RJMP	??proc_udp_data_1
// 4102                    
// 4103                   send_info(sizeof(rec_ctrl_ch),rec_ctrl_ch,1,buf_rx_ppp[TR_ID]);
        LDD	R20, Z+37
        LDI	R17, 1
        LDI	R18, LOW((evc_rld + 7))
        LDI	R19, HIGH((evc_rld + 7))
        LDI	R16, 11
        CALL	send_info
// 4104                   
// 4105                   if(Control.link_waits==TRUE)
        LDI	R30, LOW(Control)
        LDI	R31, (Control) >> 8
        LDD	R16, Z+1
        CPI	R16, 1
        BREQ	$+2+2
        RJMP	??proc_udp_data_1
// 4106                      {   
// 4107                      cnt_no_link=vol_cnt_no_link;//dobavka  
        LDI	R30, LOW(vol_cnt_no_link)
        LDI	R31, (vol_cnt_no_link) >> 8
        LD	R16, Z
        LDD	R17, Z+1
        LDD	R18, Z+2
        LDD	R19, Z+3
        LDI	R30, LOW(cnt_no_link)
        LDI	R31, (cnt_no_link) >> 8
        ST	Z, R16
        STD	Z+1, R17
        STD	Z+2, R18
        STD	Z+3, R19
// 4108                      Control.link_waits=FALSE;
        LDI	R30, LOW(Control)
        LDI	R31, (Control) >> 8
        STD	Z+1, R11
// 4109                      Control.cnt_link=Control.vol_link;                   
        LDD	R16, Z+8
        LDD	R17, Z+9
        STD	Z+4, R16
        STD	Z+5, R17
// 4110                      Control.cnt_try=0;
        STD	Z+14, R11
// 4111                      Control.link_no=FALSE;
        ST	Z, R11
        RJMP	??proc_udp_data_5
// 4112                      return(1); 
// 4113                      }
// 4114                   return(0);
// 4115                   } 
// 4116                 
// 4117                  
// 4118               
// 4119               
// 4120               
// 4121                 // äŕëüíĺéřčé đŕçáîđ
// 4122                  
// 4123                  
// 4124                  clr_cntr_nat();
??proc_udp_data_3:
        CALL	clr_cntr_nat
// 4125                  
// 4126                  offset=2+20+8+length_head;
        MOV	R11, R10
        LDI	R16, 30
        ADD	R11, R16
        LDI	R17, 0
        MOVW	R5:R4, R27:R26
        ADD	R4, R11
        ADC	R5, R17
        LDI	R16, LOW(Appl_seq)
        LDI	R17, (Appl_seq) >> 8
        MOVW	R31:R30, R5:R4
        LD	R18, Z
        CPI	R18, 3
        BREQ	$+2+2
        RJMP	??proc_udp_data_6
// 4127               
// 4128                 
// 4129                 
// 4130                 
// 4131                 if(buf_rx_ppp[offset+SL_LS_PROT]==PROT_SL_LS)
// 4132                   {
// 4133                     //đŕçáîđ ęîěŕíä
// 4134                     //ďîęŕ îäíŕ ęîěŕíäŕ - íŕëč÷čĺ îňńóňńňâčĺ ęëčĺíňŕ â ňŕáëčöĺ ěŕđřđóňčçŕöčč
// 4135                     if(((buf_rx_ppp[TR_V]>>4)&0x03)!=OTV)return(0);
        MOVW	R31:R30, R27:R26
        LDD	R18, Z+36
        SWAP	R18
        ANDI	R18, 0x0F
        ANDI	R18, 0x03
        CPI	R18, 1
        BREQ	$+2+2
        RJMP	??proc_udp_data_1
// 4136                     if(buf_rx_ppp[offset+SL_LS_PROT+1]!=COM_CNTR_CL)return(0);
        MOVW	R31:R30, R5:R4
        LDD	R18, Z+1
        CPI	R18, 2
        BREQ	$+2+2
        RJMP	??proc_udp_data_1
// 4137                     if(*(unsigned int*)&buf_rx_ppp[offset+SL_LS_PROT+2]!=L_OTV_CNTR_CL)return(0);
        LDD	R18, Z+2
        LDD	R19, Z+3
        CPI	R18, 3
        LDI	R20, 0
        CPC	R19, R20
        BREQ	$+2+2
        RJMP	??proc_udp_data_1
// 4138                     if(*(unsigned int*)&buf_rx_ppp[offset+SL_LS_PROT+4]!=num_seq_cl)return(0);
        LDD	R18, Z+4
        LDD	R19, Z+5
        LDI	R30, LOW(num_seq_cl)
        LDI	R31, (num_seq_cl) >> 8
        LD	R20, Z
        LDD	R21, Z+1
        CP	R18, R20
        CPC	R19, R21
        BREQ	$+2+2
        RJMP	??proc_udp_data_1
// 4139                     if(buf_rx_ppp[offset+SL_LS_PROT+6]!=0)
        MOVW	R31:R30, R5:R4
        LDD	R18, Z+6
        TST	R18
        BREQ	??proc_udp_data_7
// 4140                       {// ďđčńóňńňâčĺ â ňŕáëčöĺ
// 4141                        
// 4142                        Appl_seq.en_cntr_cl=FALSE;
        LDI	R18, 0
        MOVW	R31:R30, R17:R16
        STD	Z+21, R18
// 4143                        Appl_seq.cntr_cl=FALSE;
        STD	Z+20, R18
// 4144                        Appl_seq.cnt_cntr_cl=0;
        STD	Z+22, R18
        STD	Z+23, R18
// 4145 
// 4146                      // ďđčńóňńňâčĺ â ňŕáëčöĺ
// 4147                        }
// 4148                    cnt_no_link=vol_cnt_no_link;//dobavka
??proc_udp_data_7:
        LDI	R30, LOW(vol_cnt_no_link)
        LDI	R31, (vol_cnt_no_link) >> 8
        LD	R16, Z
        LDD	R17, Z+1
        LDD	R18, Z+2
        LDD	R19, Z+3
        LDI	R30, LOW(cnt_no_link)
        LDI	R31, (cnt_no_link) >> 8
        ST	Z, R16
        STD	Z+1, R17
        STD	Z+2, R18
        STD	Z+3, R19
// 4149                    Control.link_waits=FALSE;
        LDI	R16, 0
        LDI	R30, LOW(Control)
        LDI	R31, (Control) >> 8
        STD	Z+1, R16
// 4150                    Control.cnt_link=Control.vol_link;                  
        LDD	R16, Z+8
        LDD	R17, Z+9
        STD	Z+4, R16
        STD	Z+5, R17
// 4151                    Control.link=FALSE;                           
        LDI	R16, 0
        STD	Z+2, R16
// 4152                    Control.cnt_try=0;
        STD	Z+14, R16
// 4153                    Control.link_no=FALSE;    
        ST	Z, R16
// 4154                   
// 4155                   send_info(sizeof(ans_in_ctrl_cl),ans_in_ctrl_cl,1,buf_rx_ppp[TR_ID]);
        MOVW	R31:R30, R27:R26
        LDD	R20, Z+37
        LDI	R17, 1
        LDI	R18, LOW((evc_rld + 25))
        LDI	R19, HIGH((evc_rld + 25))
        LDI	R16, 12
??proc_udp_data_8:
        CALL	send_info
        RJMP	??proc_udp_data_5
// 4156                   return(1);
// 4157                   }
// 4158                 
// 4159                 
// 4160                 
// 4161                 
// 4162                  if(buf_rx_ppp[offset+C1_PROT]!=PROT_C1)return(0);
??proc_udp_data_6:
        LD	R18, Z
        CPI	R18, 1
        BREQ	$+2+2
        RJMP	??proc_udp_data_1
        LDI	R24, LOW(Obj_ppp_tx)
        LDI	R25, (Obj_ppp_tx) >> 8
        LDD	R18, Z+1
        SUBI	R18, 1
        BREQ	??proc_udp_data_9
        DEC	R18
        BRNE	$+2+2
        RJMP	??proc_udp_data_10
        DEC	R18
        BRNE	$+2+2
        RJMP	??proc_udp_data_11
        DEC	R18
        BRNE	$+2+2
        RJMP	??proc_udp_data_12
        SUBI	R18, 2
        BRNE	$+2+2
        RJMP	??proc_udp_data_13
        DEC	R18
        BRNE	$+2+2
        RJMP	??proc_udp_data_14
        RJMP	??proc_udp_data_1
// 4163                   
// 4164                  
// 4165                  
// 4166                   
// 4167                   
// 4168                   switch(buf_rx_ppp[offset+C1_PORT])
// 4169                       {
// 4170                        case PORT485_1:
// 4171    
// 4172                             
// 4173                             if(length<11) 
??proc_udp_data_9:
        LDI	R16, 11
        CP	R14, R16
        LDI	R16, 0
        CPC	R15, R16
        BRCC	??proc_udp_data_15
// 4174                                   {
// 4175                                     // ěîćíî îňďđŕâčü ńîîáůĺíčĺ îá îřčáęĺ "íĺęîđđĺęňíűĺ äŕííűĺ"
// 4176                                    send_info(sizeof(ans_out_485_1),ans_out_485_1,1,buf_rx_ppp[TR_ID]);
        MOVW	R31:R30, R27:R26
        LDD	R20, Z+37
        LDI	R17, 1
        LDI	R18, LOW((evc_rld + 37))
        LDI	R19, HIGH((evc_rld + 37))
        LDI	R16, 10
        CALL	send_info
// 4177                                    send_err485(NUM_RS485_1,RS_DATA_ERR,buf_rx_ppp[TR_ID],*(unsigned int*)&buf_rx_ppp[TR_SRC]);
        MOVW	R31:R30, R27:R26
        LDD	R20, Z+30
        LDD	R21, Z+31
        LDD	R18, Z+37
        LDI	R17, 6
??proc_udp_data_16:
        LDI	R16, 1
??proc_udp_data_17:
        CALL	send_err485
        RJMP	??proc_udp_data_1
// 4178                                    return(0);
// 4179                                   }                 
// 4180                   
// 4181                              if(length> LN_BUF_485_1+10) 
??proc_udp_data_15:
        LDI	R16, 61
        CP	R14, R16
        LDI	R16, 0
        CPC	R15, R16
        BRCS	??proc_udp_data_18
// 4182                                  {
// 4183                                 // ěîćíî îňďđŕâčü ńîîáůĺíčĺ îá îřčáęĺ "ńëčřęîě äëčííűĺ äŕííűĺ äë˙ ďđčëîćĺíč˙"
// 4184                                    send_info(sizeof(ans_out_485_1),ans_out_485_1,1,buf_rx_ppp[TR_ID]);
        MOVW	R31:R30, R27:R26
        LDD	R20, Z+37
        LDI	R17, 1
        LDI	R18, LOW((evc_rld + 37))
        LDI	R19, HIGH((evc_rld + 37))
        LDI	R16, 10
        CALL	send_info
// 4185                                    send_err485(NUM_RS485_1,RS_OVER_BUF_TX,buf_rx_ppp[TR_ID],*(unsigned int*)&buf_rx_ppp[TR_SRC]);
        MOVW	R31:R30, R27:R26
        LDD	R20, Z+30
        LDD	R21, Z+31
        LDD	R18, Z+37
        LDI	R17, 5
        RJMP	??proc_udp_data_16
// 4186                                    return(0);
// 4187                                   } 
// 4188                             
// 4189                           
// 4190                             // çäĺńü äîëćíŕ áűňü ďđîâĺđęŕ ęîíňĺęńňŕ, ĺńëč âńĺ íîđěŕëüíî ňî äŕëüřĺ çŕáčň ęîíňĺęńň
// 4191                             // ňî ěîćíî ďîńëŕňü ńëóćĺáíîĺ ńîîáůĺíčĺ
// 4192                            
// 4193                                  if (check_cont_485_1 (&buf_rx_ppp[offset+C1_CONT])==1)
??proc_udp_data_18:
        LDI	R16, 2
        ADD	R4, R16
        LDI	R16, 0
        ADC	R5, R16
        MOVW	R17:R16, R5:R4
        CALL	check_cont_485_1
        CPI	R16, 1
        BRNE	??proc_udp_data_19
// 4194                                  {
// 4195                                    send_info(sizeof(ans_out_485_1),ans_out_485_1,1,buf_rx_ppp[TR_ID]);
        MOVW	R31:R30, R27:R26
        LDD	R20, Z+37
        LDI	R17, 1
        LDI	R18, LOW((evc_rld + 37))
        LDI	R19, HIGH((evc_rld + 37))
        LDI	R16, 10
        CALL	send_info
// 4196                                    send_err485(NUM_RS485_1,RS_NO_CONT,buf_rx_ppp[TR_ID],*(unsigned int*)&buf_rx_ppp[TR_SRC]);
        MOVW	R31:R30, R27:R26
        LDD	R20, Z+30
        LDD	R21, Z+31
        LDD	R18, Z+37
        LDI	R17, 2
        RJMP	??proc_udp_data_16
// 4197                                    return(0);
// 4198                                   } 
// 4199                            
// 4200                            
// 4201                             if(Appl_RS485_1.fl_data_buf==TRUE)
??proc_udp_data_19:
        LDI	R16, LOW(Appl_RS485_1)
        MOV	R4, R16
        LDI	R16, (Appl_RS485_1) >> 8
        MOV	R5, R16
        MOVW	R31:R30, R5:R4
        LD	R16, Z
        CPI	R16, 1
        BRNE	??proc_udp_data_20
// 4202                                {
// 4203                                // ňî ěîćíî ďîńëŕňü ńëóćĺáíîĺ ńîîáůĺíčĺ ÷ňî áóôĺđ ďĺđĺďîëíĺí
// 4204                                send_info(sizeof(ans_out_485_1),ans_out_485_1,1,buf_rx_ppp[TR_ID]);
        MOVW	R31:R30, R27:R26
        LDD	R20, Z+37
        LDI	R17, 1
        LDI	R18, LOW((evc_rld + 37))
        LDI	R19, HIGH((evc_rld + 37))
        LDI	R16, 10
        CALL	send_info
// 4205                                send_err485(NUM_RS485_1,RS_BUSY,buf_rx_ppp[TR_ID],*(unsigned int*)&buf_rx_ppp[TR_SRC]);
        MOVW	R31:R30, R27:R26
        LDD	R20, Z+30
        LDD	R21, Z+31
        LDD	R18, Z+37
        LDI	R17, 3
        RJMP	??proc_udp_data_16
// 4206                                break;
// 4207                                }
// 4208                                
// 4209                                 
// 4210                                if(Regim==RG_DEBAG)
??proc_udp_data_20:
        LDS	R16, Regim
        CPI	R16, 1
        BRNE	??proc_udp_data_21
// 4211                                {// âęëţ÷ĺí ňĺńňîâűé đĺćčě!!!
// 4212                                  send_info(sizeof(ans_out_485_1),ans_out_485_1,1,buf_rx_ppp[TR_ID]);
        MOVW	R31:R30, R27:R26
        LDD	R20, Z+37
        LDI	R17, 1
        LDI	R18, LOW((evc_rld + 37))
        LDI	R19, HIGH((evc_rld + 37))
        LDI	R16, 10
        CALL	send_info
// 4213                                  send_err485(NUM_RS485_1,RS_TEST,buf_rx_ppp[TR_ID],*(unsigned int*)&buf_rx_ppp[TR_SRC]);
        MOVW	R31:R30, R27:R26
        LDD	R20, Z+30
        LDD	R21, Z+31
        LDD	R18, Z+37
        LDI	R17, 8
        RJMP	??proc_udp_data_16
// 4214                                  return(0);
// 4215                                }
// 4216                             
// 4217                             
// 4218                                 Appl_RS485_1.pre_tx=0;
??proc_udp_data_21:
        LDI	R16, 0
        STD	Z+17, R16
        STD	Z+18, R16
// 4219                                 if(length_head>MIN_TR_HEAD)
        LDI	R16, 13
        CP	R10, R16
        BRCS	??proc_udp_data_22
// 4220                                   {
// 4221                                     if (proc_option(buf_rx_ppp,TR_OP_DATA,length_head-MIN_TR_HEAD)!=1)return(0);                                                                  
        MOVW	R21:R20, R13:R12
        LDI	R18, 42
        LDI	R19, 0
        MOVW	R17:R16, R27:R26
        RCALL	proc_option
        CPI	R16, 1
        BREQ	$+2+2
        RJMP	??proc_udp_data_1
// 4222                                     Appl_RS485_1.pre_tx=delay_pre_tx;//çŕäĺđćęŕ ďĺđĺä ďĺđĺäŕ÷ĺé
        MOVW	R31:R30, R25:R24
        LDD	R16, Z+16
        LDD	R17, Z+17
        MOVW	R31:R30, R5:R4
        STD	Z+17, R16
        STD	Z+18, R17
// 4223                                   } 
// 4224                             
// 4225                                
// 4226                                
// 4227                                if(fl_485_1.busy==1)Appl_RS485_1.fl_data_buf=TRUE;
??proc_udp_data_22:
        LDI	R30, LOW(fl_485_1)
        LDI	R31, (fl_485_1) >> 8
        LD	R16, Z
        SBRS	R16, 0
        RJMP	??proc_udp_data_23
        LDI	R16, 1
        MOVW	R31:R30, R5:R4
        RJMP	??proc_udp_data_24
// 4228                                else fl_485_1.tx=1;
??proc_udp_data_23:
        LD	R16, Z
        ORI	R16, 0x08
??proc_udp_data_24:
        ST	Z, R16
// 4229                                Appl_RS485_1.dst_buf=*(unsigned int*)&buf_rx_ppp[TR_SRC];
        MOVW	R31:R30, R27:R26
        LDD	R16, Z+30
        LDD	R17, Z+31
        MOVW	R31:R30, R5:R4
        STD	Z+3, R16
        STD	Z+4, R17
// 4230                                Appl_RS485_1.id_buf=buf_rx_ppp[TR_ID];
        MOVW	R31:R30, R27:R26
        LDD	R16, Z+37
        MOVW	R31:R30, R5:R4
        STD	Z+13, R16
// 4231                                
// 4232                                for(i=0;i<8;i++)Appl_RS485_1.cont_buf[i]=buf_rx_ppp[offset+C1_CONT+i];
        CLR	R6
        RJMP	??proc_udp_data_25
??proc_udp_data_26:
        MOV	R16, R6
        LDI	R17, 0
        MOV	R18, R11
        LDI	R19, 0
        ADD	R18, R16
        ADC	R19, R17
        MOVW	R31:R30, R27:R26
        ADD	R30, R18
        ADC	R31, R19
        LDD	R18, Z+2
        MOVW	R31:R30, R5:R4
        ADD	R30, R16
        ADC	R31, R17
        STD	Z+5, R18
        INC	R6
??proc_udp_data_25:
        LDI	R16, 8
        CP	R6, R16
        BRCS	??proc_udp_data_26
// 4233                                
// 4234                                Appl_RS485_1.ln_data_buf=length-10;
        LDI	R16, 246
        ADD	R14, R16
        LDI	R16, 255
        ADC	R15, R16
        MOVW	R31:R30, R5:R4
        STD	Z+1, R14
        STD	Z+2, R15
// 4235                                for(i=0;i<Appl_RS485_1.ln_data_buf;i++)Appl_RS485_1_data_buf[i]=buf_rx_ppp[offset+C1_DATA_RS+i];
        CLR	R6
??proc_udp_data_27:
        CLR	R7
        MOVW	R31:R30, R5:R4
        LDD	R16, Z+1
        LDD	R17, Z+2
        CP	R6, R16
        CPC	R7, R17
        BRCS	$+2+2
        RJMP	??proc_udp_data_1
        MOV	R16, R6
        LDI	R17, 0
        MOV	R18, R11
        LDI	R19, 0
        ADD	R18, R16
        ADC	R19, R7
        MOVW	R31:R30, R27:R26
        ADD	R30, R18
        ADC	R31, R19
        LDD	R18, Z+10
        MOVW	R31:R30, R17:R16
        SUBI	R30, LOW((-(Appl_RS485_1_data_buf) & 0xFFFF))
        SBCI	R31, (-(Appl_RS485_1_data_buf) & 0xFFFF) >> 8
        ST	Z, R18
        INC	R6
        RJMP	??proc_udp_data_27
// 4236                          
// 4237                             
// 4238                             break;
// 4239                        case PORT485_2:
// 4240                          
// 4241    
// 4242                                 if(length<11) 
??proc_udp_data_10:
        LDI	R16, 11
        CP	R14, R16
        LDI	R16, 0
        CPC	R15, R16
        BRCC	??proc_udp_data_28
// 4243                                   {
// 4244                                     // ěîćíî îňďđŕâčü ńîîáůĺíčĺ îá îřčáęĺ "íĺęîđđĺęňíűĺ äŕííűĺ"
// 4245                                    send_info(sizeof(ans_out_485_2),ans_out_485_2,1,buf_rx_ppp[TR_ID]);
        MOVW	R31:R30, R27:R26
        LDD	R20, Z+37
        LDI	R17, 1
        LDI	R18, LOW((evc_rld + 47))
        LDI	R19, HIGH((evc_rld + 47))
        LDI	R16, 10
        CALL	send_info
// 4246                                    send_err485(NUM_RS485_2,RS_DATA_ERR,buf_rx_ppp[TR_ID],*(unsigned int*)&buf_rx_ppp[TR_SRC]);
        MOVW	R31:R30, R27:R26
        LDD	R20, Z+30
        LDD	R21, Z+31
        LDD	R18, Z+37
        LDI	R17, 6
??proc_udp_data_29:
        LDI	R16, 2
        RJMP	??proc_udp_data_17
// 4247                                    return(0);
// 4248                                   }                 
// 4249                   
// 4250                              if(length> LN_BUF_485_2+10) 
??proc_udp_data_28:
        LDI	R16, 12
        CP	R14, R16
        LDI	R16, 0
        CPC	R15, R16
        BRCS	??proc_udp_data_30
// 4251                                  {
// 4252                                 // ěîćíî îňďđŕâčü ńîîáůĺíčĺ îá îřčáęĺ "ńëčřęîě äëčííűĺ äŕííűĺ äë˙ ďđčëîćĺíč˙"
// 4253                                    send_info(sizeof(ans_out_485_2),ans_out_485_2,1,buf_rx_ppp[TR_ID]);
        MOVW	R31:R30, R27:R26
        LDD	R20, Z+37
        LDI	R17, 1
        LDI	R18, LOW((evc_rld + 47))
        LDI	R19, HIGH((evc_rld + 47))
        LDI	R16, 10
        CALL	send_info
// 4254                                    send_err485(NUM_RS485_2,RS_OVER_BUF_TX,buf_rx_ppp[TR_ID],*(unsigned int*)&buf_rx_ppp[TR_SRC]);
        MOVW	R31:R30, R27:R26
        LDD	R20, Z+30
        LDD	R21, Z+31
        LDD	R18, Z+37
        LDI	R17, 5
        RJMP	??proc_udp_data_29
// 4255                                    return(0);
// 4256                                   } 
// 4257                             
// 4258                             
// 4259                             // çäĺńü äîëćíŕ áűňü ďđîâĺđęŕ ęîíňĺęńňŕ, ĺńëč âńĺ íîđěŕëüíî ňî äŕëüřĺ çŕáčň ęîíňĺęńň
// 4260                             // ňî ěîćíî ďîńëŕňü ńëóćĺáíîĺ ńîîáůĺíčĺ
// 4261                              if (check_cont_485_1 (&buf_rx_ppp[offset+C1_CONT])==1)
??proc_udp_data_30:
        LDI	R16, 2
        ADD	R4, R16
        LDI	R16, 0
        ADC	R5, R16
        MOVW	R17:R16, R5:R4
        CALL	check_cont_485_1
        CPI	R16, 1
        BRNE	??proc_udp_data_31
// 4262                                  {
// 4263                                    send_info(sizeof(ans_out_485_2),ans_out_485_2,1,buf_rx_ppp[TR_ID]);
        MOVW	R31:R30, R27:R26
        LDD	R20, Z+37
        LDI	R17, 1
        LDI	R18, LOW((evc_rld + 47))
        LDI	R19, HIGH((evc_rld + 47))
        LDI	R16, 10
        CALL	send_info
// 4264                                    send_err485(NUM_RS485_2,RS_NO_CONT,buf_rx_ppp[TR_ID],*(unsigned int*)&buf_rx_ppp[TR_SRC]);
        MOVW	R31:R30, R27:R26
        LDD	R20, Z+30
        LDD	R21, Z+31
        LDD	R18, Z+37
        LDI	R17, 2
        RJMP	??proc_udp_data_29
// 4265                                    return(0);
// 4266                                   } 
// 4267                             
// 4268                             
// 4269                             if(Appl_RS485_2.fl_data_buf==TRUE)
??proc_udp_data_31:
        LDI	R16, LOW(Appl_RS485_2)
        MOV	R4, R16
        LDI	R16, (Appl_RS485_2) >> 8
        MOV	R5, R16
        MOVW	R31:R30, R5:R4
        LD	R16, Z
        CPI	R16, 1
        BRNE	??proc_udp_data_32
// 4270                                {
// 4271                                // ňî ěîćíî ďîńëŕňü ńëóćĺáíîĺ ńîîáůĺíčĺ ÷ňî áóôĺđ ďĺđĺďîëíĺí
// 4272                                send_info(sizeof(ans_out_485_2),ans_out_485_2,1,buf_rx_ppp[TR_ID]);
        MOVW	R31:R30, R27:R26
        LDD	R20, Z+37
        LDI	R17, 1
        LDI	R18, LOW((evc_rld + 47))
        LDI	R19, HIGH((evc_rld + 47))
        LDI	R16, 10
        CALL	send_info
// 4273                                send_err485(NUM_RS485_2,RS_BUSY,buf_rx_ppp[TR_ID],*(unsigned int*)&buf_rx_ppp[TR_SRC]);
        MOVW	R31:R30, R27:R26
        LDD	R20, Z+30
        LDD	R21, Z+31
        LDD	R18, Z+37
        LDI	R17, 3
        RJMP	??proc_udp_data_29
// 4274                                break;
// 4275                                }
// 4276                                
// 4277                                if(Regim==RG_DEBAG)
??proc_udp_data_32:
        LDS	R16, Regim
        CPI	R16, 1
        BRNE	??proc_udp_data_33
// 4278                                {// âęëţ÷ĺí ňĺńňîâűé đĺćčě!!!
// 4279                                   send_info(sizeof(ans_out_485_2),ans_out_485_2,1,buf_rx_ppp[TR_ID]);
        MOVW	R31:R30, R27:R26
        LDD	R20, Z+37
        LDI	R17, 1
        LDI	R18, LOW((evc_rld + 47))
        LDI	R19, HIGH((evc_rld + 47))
        LDI	R16, 10
        CALL	send_info
// 4280                                  send_err485(NUM_RS485_2,RS_TEST,buf_rx_ppp[TR_ID],*(unsigned int*)&buf_rx_ppp[TR_SRC]);
        MOVW	R31:R30, R27:R26
        LDD	R20, Z+30
        LDD	R21, Z+31
        LDD	R18, Z+37
        LDI	R17, 8
        RJMP	??proc_udp_data_29
// 4281                                  return(0);
// 4282                                }
// 4283                                
// 4284                                Appl_RS485_2.pre_tx=0;
??proc_udp_data_33:
        LDI	R16, 0
        STD	Z+17, R16
        STD	Z+18, R16
// 4285                                 if(length_head>MIN_TR_HEAD)
        LDI	R16, 13
        CP	R10, R16
        BRCS	??proc_udp_data_34
// 4286                                   {
// 4287                                     if (proc_option(buf_rx_ppp,TR_OP_DATA,length_head-MIN_TR_HEAD)!=1)return(0);                                                                  
        MOVW	R21:R20, R13:R12
        LDI	R18, 42
        LDI	R19, 0
        MOVW	R17:R16, R27:R26
        RCALL	proc_option
        CPI	R16, 1
        BREQ	$+2+2
        RJMP	??proc_udp_data_1
// 4288                                     Appl_RS485_2.pre_tx=delay_pre_tx;//çŕäĺđćęŕ ďĺđĺä ďĺđĺäŕ÷ĺé
        MOVW	R31:R30, R25:R24
        LDD	R16, Z+16
        LDD	R17, Z+17
        MOVW	R31:R30, R5:R4
        STD	Z+17, R16
        STD	Z+18, R17
// 4289                                   } 
// 4290                                
// 4291                                
// 4292                                if(fl_485_2.busy==1)Appl_RS485_2.fl_data_buf=TRUE;
??proc_udp_data_34:
        LDI	R30, LOW(fl_485_2)
        LDI	R31, (fl_485_2) >> 8
        LD	R16, Z
        SBRS	R16, 0
        RJMP	??proc_udp_data_35
        LDI	R16, 1
        MOVW	R31:R30, R5:R4
        RJMP	??proc_udp_data_36
// 4293                                else fl_485_2.tx=1;
??proc_udp_data_35:
        LD	R16, Z
        ORI	R16, 0x08
??proc_udp_data_36:
        ST	Z, R16
// 4294                                Appl_RS485_2.dst_buf=*(unsigned int*)&buf_rx_ppp[TR_SRC];
        MOVW	R31:R30, R27:R26
        LDD	R16, Z+30
        LDD	R17, Z+31
        MOVW	R31:R30, R5:R4
        STD	Z+3, R16
        STD	Z+4, R17
// 4295                                Appl_RS485_2.id_buf=buf_rx_ppp[TR_ID];
        MOVW	R31:R30, R27:R26
        LDD	R16, Z+37
        MOVW	R31:R30, R5:R4
        STD	Z+13, R16
// 4296                                for(i=0;i<8;i++)Appl_RS485_2.cont_buf[i]=buf_rx_ppp[offset+C1_CONT+i];
        CLR	R6
        RJMP	??proc_udp_data_37
??proc_udp_data_38:
        MOV	R16, R6
        LDI	R17, 0
        MOV	R18, R11
        LDI	R19, 0
        ADD	R18, R16
        ADC	R19, R17
        MOVW	R31:R30, R27:R26
        ADD	R30, R18
        ADC	R31, R19
        LDD	R18, Z+2
        MOVW	R31:R30, R5:R4
        ADD	R30, R16
        ADC	R31, R17
        STD	Z+5, R18
        INC	R6
??proc_udp_data_37:
        LDI	R16, 8
        CP	R6, R16
        BRCS	??proc_udp_data_38
// 4297                                Appl_RS485_2.ln_data_buf=length-10;
        LDI	R16, 246
        ADD	R14, R16
        LDI	R16, 255
        ADC	R15, R16
        MOVW	R31:R30, R5:R4
        STD	Z+1, R14
        STD	Z+2, R15
// 4298                                for(i=0;i<Appl_RS485_2.ln_data_buf;i++)Appl_RS485_2_data_buf[i]=buf_rx_ppp[offset+C1_DATA_RS+i];
        CLR	R6
??proc_udp_data_39:
        CLR	R7
        MOVW	R31:R30, R5:R4
        LDD	R16, Z+1
        LDD	R17, Z+2
        CP	R6, R16
        CPC	R7, R17
        BRCS	$+2+2
        RJMP	??proc_udp_data_1
        MOV	R16, R6
        LDI	R17, 0
        MOV	R18, R11
        LDI	R19, 0
        ADD	R18, R16
        ADC	R19, R7
        MOVW	R31:R30, R27:R26
        ADD	R30, R18
        ADC	R31, R19
        LDD	R18, Z+10
        MOVW	R31:R30, R17:R16
        SUBI	R30, LOW((-(Appl_RS485_2_data_buf) & 0xFFFF))
        SBCI	R31, (-(Appl_RS485_2_data_buf) & 0xFFFF) >> 8
        ST	Z, R18
        INC	R6
        RJMP	??proc_udp_data_39
// 4299                                
// 4300                                
// 4301                             break;
// 4302                        
// 4303                             
// 4304                      case PORT232_2:
// 4305                          
// 4306    
// 4307                                 if(length<11) 
??proc_udp_data_11:
        LDI	R16, 11
        CP	R14, R16
        LDI	R16, 0
        CPC	R15, R16
        BRCC	??proc_udp_data_40
// 4308                                   {
// 4309                                     // ěîćíî îňďđŕâčü ńîîáůĺíčĺ îá îřčáęĺ "íĺęîđđĺęňíűĺ äŕííűĺ"
// 4310                                     send_info(sizeof(ans_out_232),ans_out_232,1,buf_rx_ppp[TR_ID]);
        MOVW	R31:R30, R27:R26
        LDD	R20, Z+37
        LDI	R17, 1
        LDI	R18, LOW((evc_rld + 57))
        LDI	R19, HIGH((evc_rld + 57))
        LDI	R16, 8
        CALL	send_info
// 4311                                     send_err485(NUM_RS232_2,RS_DATA_ERR,buf_rx_ppp[TR_ID],*(unsigned int*)&buf_rx_ppp[TR_SRC]);
        MOVW	R31:R30, R27:R26
        LDD	R20, Z+30
        LDD	R21, Z+31
        LDD	R18, Z+37
        LDI	R17, 6
??proc_udp_data_41:
        LDI	R16, 3
        RJMP	??proc_udp_data_17
// 4312                                    return(0);
// 4313                                   }                 
// 4314                   
// 4315                              if(length> LN_BUF_232_2+10) 
??proc_udp_data_40:
        LDI	R16, 61
        CP	R14, R16
        LDI	R16, 0
        CPC	R15, R16
        BRCS	??proc_udp_data_42
// 4316                                  {
// 4317                                 // ěîćíî îňďđŕâčü ńîîáůĺíčĺ îá îřčáęĺ "ńëčřęîě äëčííűĺ äŕííűĺ äë˙ ďđčëîćĺíč˙"
// 4318                                    send_info(sizeof(ans_out_232),ans_out_232,1,buf_rx_ppp[TR_ID]);
        MOVW	R31:R30, R27:R26
        LDD	R20, Z+37
        LDI	R17, 1
        LDI	R18, LOW((evc_rld + 57))
        LDI	R19, HIGH((evc_rld + 57))
        LDI	R16, 8
        CALL	send_info
// 4319                                    send_err485(NUM_RS232_2,RS_OVER_BUF_TX,buf_rx_ppp[TR_ID],*(unsigned int*)&buf_rx_ppp[TR_SRC]);
        MOVW	R31:R30, R27:R26
        LDD	R20, Z+30
        LDD	R21, Z+31
        LDD	R18, Z+37
        LDI	R17, 5
        RJMP	??proc_udp_data_41
// 4320                                    return(0);
// 4321                                   } 
// 4322                             
// 4323                             
// 4324                             // çäĺńü äîëćíŕ áűňü ďđîâĺđęŕ ęîíňĺęńňŕ, ĺńëč âńĺ íîđěŕëüíî ňî äŕëüřĺ çŕáčň ęîíňĺęńň
// 4325                             // ňî ěîćíî ďîńëŕňü ńëóćĺáíîĺ ńîîáůĺíčĺ
// 4326                              if (check_cont_485_1 (&buf_rx_ppp[offset+C1_CONT])==1)
??proc_udp_data_42:
        LDI	R16, 2
        ADD	R4, R16
        LDI	R16, 0
        ADC	R5, R16
        MOVW	R17:R16, R5:R4
        CALL	check_cont_485_1
        CPI	R16, 1
        BRNE	??proc_udp_data_43
// 4327                                  {
// 4328                                    send_info(sizeof(ans_out_232),ans_out_232,1,buf_rx_ppp[TR_ID]);
        MOVW	R31:R30, R27:R26
        LDD	R20, Z+37
        LDI	R17, 1
        LDI	R18, LOW((evc_rld + 57))
        LDI	R19, HIGH((evc_rld + 57))
        LDI	R16, 8
        CALL	send_info
// 4329                                    send_err485(NUM_RS232_2,RS_NO_CONT,buf_rx_ppp[TR_ID],*(unsigned int*)&buf_rx_ppp[TR_SRC]);
        MOVW	R31:R30, R27:R26
        LDD	R20, Z+30
        LDD	R21, Z+31
        LDD	R18, Z+37
        LDI	R17, 2
        RJMP	??proc_udp_data_41
// 4330                                    return(0);
// 4331                                   } 
// 4332                             
// 4333                             
// 4334                             if(Appl_RS232_2.fl_data_buf==TRUE)
??proc_udp_data_43:
        LDI	R16, LOW(Appl_RS232_2)
        MOV	R4, R16
        LDI	R16, (Appl_RS232_2) >> 8
        MOV	R5, R16
        MOVW	R31:R30, R5:R4
        LD	R16, Z
        CPI	R16, 1
        BRNE	??proc_udp_data_44
// 4335                                {
// 4336                                // ňî ěîćíî ďîńëŕňü ńëóćĺáíîĺ ńîîáůĺíčĺ ÷ňî áóôĺđ ďĺđĺďîëíĺí
// 4337                                send_info(sizeof(ans_out_232),ans_out_232,1,buf_rx_ppp[TR_ID]);
        MOVW	R31:R30, R27:R26
        LDD	R20, Z+37
        LDI	R17, 1
        LDI	R18, LOW((evc_rld + 57))
        LDI	R19, HIGH((evc_rld + 57))
        LDI	R16, 8
        CALL	send_info
// 4338                                  send_err485(NUM_RS232_2,RS_BUSY,buf_rx_ppp[TR_ID],*(unsigned int*)&buf_rx_ppp[TR_SRC]);
        MOVW	R31:R30, R27:R26
        LDD	R20, Z+30
        LDD	R21, Z+31
        LDD	R18, Z+37
        LDI	R17, 3
        RJMP	??proc_udp_data_41
// 4339                                break;
// 4340                                }
// 4341                                
// 4342                                if(Regim==RG_DEBAG)
??proc_udp_data_44:
        LDS	R16, Regim
        CPI	R16, 1
        BRNE	??proc_udp_data_45
// 4343                                {// âęëţ÷ĺí ňĺńňîâűé đĺćčě!!!
// 4344                                 send_info(sizeof(ans_out_232),ans_out_232,1,buf_rx_ppp[TR_ID]);
        MOVW	R31:R30, R27:R26
        LDD	R20, Z+37
        LDI	R17, 1
        LDI	R18, LOW((evc_rld + 57))
        LDI	R19, HIGH((evc_rld + 57))
        LDI	R16, 8
        CALL	send_info
// 4345                                  send_err485(NUM_RS232_2,RS_TEST,buf_rx_ppp[TR_ID],*(unsigned int*)&buf_rx_ppp[TR_SRC]);
        MOVW	R31:R30, R27:R26
        LDD	R20, Z+30
        LDD	R21, Z+31
        LDD	R18, Z+37
        LDI	R17, 8
        RJMP	??proc_udp_data_41
// 4346                                  return(0);
// 4347                                }
// 4348                                
// 4349                                
// 4350                                Appl_RS232_2.pre_tx=0;
??proc_udp_data_45:
        LDI	R16, 0
        STD	Z+17, R16
        STD	Z+18, R16
// 4351                                 if(length_head>MIN_TR_HEAD)
        LDI	R16, 13
        CP	R10, R16
        BRCS	??proc_udp_data_46
// 4352                                   {
// 4353                                     if (proc_option(buf_rx_ppp,TR_OP_DATA,length_head-MIN_TR_HEAD)!=1)return(0);                                                                  
        MOVW	R21:R20, R13:R12
        LDI	R18, 42
        LDI	R19, 0
        MOVW	R17:R16, R27:R26
        RCALL	proc_option
        CPI	R16, 1
        BREQ	$+2+2
        RJMP	??proc_udp_data_1
// 4354                                     Appl_RS232_2.pre_tx=delay_pre_tx;//çŕäĺđćęŕ ďĺđĺä ďĺđĺäŕ÷ĺé
        MOVW	R31:R30, R25:R24
        LDD	R16, Z+16
        LDD	R17, Z+17
        MOVW	R31:R30, R5:R4
        STD	Z+17, R16
        STD	Z+18, R17
// 4355                                   } 
// 4356                                
// 4357                                
// 4358                                if(fl_232_2.busy==1)Appl_RS232_2.fl_data_buf=TRUE;
??proc_udp_data_46:
        LDI	R30, LOW(fl_232_2)
        LDI	R31, (fl_232_2) >> 8
        LD	R16, Z
        SBRS	R16, 0
        RJMP	??proc_udp_data_47
        LDI	R16, 1
        MOVW	R31:R30, R5:R4
        RJMP	??proc_udp_data_48
// 4359                                else fl_232_2.tx=1;
??proc_udp_data_47:
        LD	R16, Z
        ORI	R16, 0x08
??proc_udp_data_48:
        ST	Z, R16
// 4360                                Appl_RS232_2.dst_buf=*(unsigned int*)&buf_rx_ppp[TR_SRC];
        MOVW	R31:R30, R27:R26
        LDD	R16, Z+30
        LDD	R17, Z+31
        MOVW	R31:R30, R5:R4
        STD	Z+3, R16
        STD	Z+4, R17
// 4361                                Appl_RS232_2.id_buf=buf_rx_ppp[TR_ID];
        MOVW	R31:R30, R27:R26
        LDD	R16, Z+37
        MOVW	R31:R30, R5:R4
        STD	Z+13, R16
// 4362                                for(i=0;i<8;i++)Appl_RS232_2.cont_buf[i]=buf_rx_ppp[offset+C1_CONT+i];
        CLR	R6
        RJMP	??proc_udp_data_49
??proc_udp_data_50:
        MOV	R16, R6
        LDI	R17, 0
        MOV	R18, R11
        LDI	R19, 0
        ADD	R18, R16
        ADC	R19, R17
        MOVW	R31:R30, R27:R26
        ADD	R30, R18
        ADC	R31, R19
        LDD	R18, Z+2
        MOVW	R31:R30, R5:R4
        ADD	R30, R16
        ADC	R31, R17
        STD	Z+5, R18
        INC	R6
??proc_udp_data_49:
        LDI	R16, 8
        CP	R6, R16
        BRCS	??proc_udp_data_50
// 4363                                Appl_RS232_2.ln_data_buf=length-10;
        LDI	R16, 246
        ADD	R14, R16
        LDI	R16, 255
        ADC	R15, R16
        MOVW	R31:R30, R5:R4
        STD	Z+1, R14
        STD	Z+2, R15
// 4364                                for(i=0;i<Appl_RS232_2.ln_data_buf;i++)Appl_RS232_2_data_buf[i]=buf_rx_ppp[offset+C1_DATA_RS+i];
        CLR	R6
??proc_udp_data_51:
        CLR	R7
        MOVW	R31:R30, R5:R4
        LDD	R16, Z+1
        LDD	R17, Z+2
        CP	R6, R16
        CPC	R7, R17
        BRCS	$+2+2
        RJMP	??proc_udp_data_1
        MOV	R16, R6
        LDI	R17, 0
        MOV	R18, R11
        LDI	R19, 0
        ADD	R18, R16
        ADC	R19, R7
        MOVW	R31:R30, R27:R26
        ADD	R30, R18
        ADC	R31, R19
        LDD	R18, Z+10
        MOVW	R31:R30, R17:R16
        SUBI	R30, LOW((-(Appl_RS232_2_data_buf) & 0xFFFF))
        SBCI	R31, (-(Appl_RS232_2_data_buf) & 0xFFFF) >> 8
        ST	Z, R18
        INC	R6
        RJMP	??proc_udp_data_51
// 4365                                
// 4366                                
// 4367                             break;
// 4368                             
// 4369                             
// 4370                             
// 4371 
// 4372                        case PORT_SEQ:
// 4373                             if(length<5)return(0);
??proc_udp_data_12:
        LDI	R18, 5
        CP	R14, R18
        LDI	R18, 0
        CPC	R15, R18
        BRCC	$+2+2
        RJMP	??proc_udp_data_1
// 4374                             if(*(unsigned int*)&buf_rx_ppp[TR_SRC]!=num_seq_cl)return(0);
        MOVW	R31:R30, R27:R26
        LDD	R18, Z+30
        LDD	R19, Z+31
        LDI	R30, LOW(num_seq_cl)
        LDI	R31, (num_seq_cl) >> 8
        LD	R20, Z
        LDD	R21, Z+1
        CP	R18, R20
        CPC	R19, R21
        BREQ	$+2+2
        RJMP	??proc_udp_data_1
// 4375                                
// 4376                             if(((buf_rx_ppp[TR_V]>>4)&0x03)==KVIT)
        MOVW	R31:R30, R27:R26
        LDD	R18, Z+36
        SWAP	R18
        ANDI	R18, 0x0F
        ANDI	R18, 0x03
        CPI	R18, 3
        BRNE	??proc_udp_data_52
// 4377                                 {
// 4378                                 if(buf_rx_ppp[offset+C1_DATA]!=KVITOK_SEQ)return(0);
        MOVW	R31:R30, R5:R4
        LDD	R18, Z+2
        CPI	R18, 1
        BREQ	$+2+2
        RJMP	??proc_udp_data_1
// 4379                                 if(length!=5)return(0);
        LDI	R18, 5
        CP	R14, R18
        LDI	R18, 0
        CPC	R15, R18
        BREQ	$+2+2
        RJMP	??proc_udp_data_1
// 4380                                 if(*(unsigned int*)&buf_rx_ppp[offset+C1_DATA+1]!=L_KVITOK)return(0);
        LDD	R18, Z+3
        LDD	R19, Z+4
        OR	R18, R19
        BREQ	$+2+2
        RJMP	??proc_udp_data_1
// 4381                                 }
// 4382                             
// 4383                             
// 4384                             if(((buf_rx_ppp[TR_V]>>4)&0x03)==ZAPR)
??proc_udp_data_52:
        MOVW	R31:R30, R27:R26
        LDD	R18, Z+36
        SWAP	R18
        ANDI	R18, 0x0F
        ANDI	R18, 0x03
        BREQ	$+2+2
        RJMP	??proc_udp_data_53
// 4385                                {
// 4386                                if(buf_rx_ppp[offset+C1_DATA]!=ZAPR_TC)return(0);
        MOVW	R31:R30, R5:R4
        LDD	R16, Z+2
        CPI	R16, 6
        BREQ	$+2+2
        RJMP	??proc_udp_data_1
// 4387                                if(length!=5)return(0);
        LDI	R16, 5
        CP	R14, R16
        LDI	R16, 0
        CPC	R15, R16
        BREQ	$+2+2
        RJMP	??proc_udp_data_1
// 4388                                if(*(unsigned int*)&buf_rx_ppp[offset+C1_DATA+1]!=L_ZAPR_TC)return(0);
        LDD	R16, Z+3
        LDD	R17, Z+4
        OR	R16, R17
        BREQ	$+2+2
        RJMP	??proc_udp_data_1
// 4389                                 
// 4390                                if(fl_ip.act_ip_end!=1)return(0);
        LDI	R30, LOW(ip_pri_dns)
        LDI	R31, (ip_pri_dns) >> 8
        LDD	R16, Z+12
        SBRS	R16, 0
        RJMP	??proc_udp_data_1
// 4391                                fl_ip.act_ip_end=0; 
        LDD	R16, Z+12
        ANDI	R16, 0xFE
        STD	Z+12, R16
// 4392                                clr_cntr_nat();
        CALL	clr_cntr_nat
// 4393                                clr_cntr_link();
        CALL	clr_cntr_link
// 4394                                Obj_ppp_tx.prozr=FALSE;            
        LDI	R16, 0
        MOVW	R31:R30, R25:R24
        ST	Z, R16
// 4395                                Obj_ppp_tx.version=VER2;      //âĺđńč˙ 
        LDI	R16, 2
        STD	Z+1, R16
// 4396                                Obj_ppp_tx.type_pac=OTV;     //ňčď ďŕęĺňŕ
        LDI	R16, 1
        STD	Z+2, R16
// 4397                                Obj_ppp_tx.num_src=num_self; // íîěĺđ îňďđŕâčňĺë˙
        LDI	R30, LOW(num_self)
        LDI	R31, (num_self) >> 8
        LD	R16, Z
        LDD	R17, Z+1
        MOVW	R31:R30, R25:R24
        STD	Z+3, R16
        STD	Z+4, R17
// 4398                                Obj_ppp_tx.num_dst=*(unsigned int*)&buf_rx_ppp[TR_SRC]; // íîěĺđ ďîëó÷ŕňĺë˙
        MOVW	R31:R30, R27:R26
        LDD	R16, Z+30
        LDD	R17, Z+31
        MOVW	R31:R30, R25:R24
        STD	Z+5, R16
        STD	Z+6, R17
// 4399                                Obj_ppp_tx.id_pac=buf_rx_ppp[TR_ID]; // čäĺíňčôčęŕňîđ ďŕęĺňŕ  
        MOVW	R31:R30, R27:R26
        LDD	R16, Z+37
        MOVW	R31:R30, R25:R24
        STD	Z+7, R16
// 4400                                Obj_ppp_tx.p_opt=&buf_opt_tr[0]; // //óęŕçŕňĺëü áóôĺđŕ îďöčé          
        LDI	R16, LOW(buf_opt_tr)
        LDI	R17, (buf_opt_tr) >> 8
        STD	Z+8, R16
        STD	Z+9, R17
// 4401                                Obj_ppp_tx.l_opt=0;// äëčíŕ áóôĺđŕ îďöčé   
        LDI	R16, 0
        STD	Z+10, R16
// 4402                                buf_tx_232[TR_OP_DATA+C1_PROT]=PROT_C1;
        LDI	R16, 1
        LDI	R30, LOW(buf_tx_232)
        LDI	R31, (buf_tx_232) >> 8
        STD	Z+42, R16
// 4403                                buf_tx_232[TR_OP_DATA+C1_PORT]=PORT_SEQ;
        LDI	R16, 4
        STD	Z+43, R16
// 4404                                buf_tx_232[TR_OP_DATA+C1_DATA]=SEQ_STATE;
        LDI	R16, 6
        STD	Z+44, R16
// 4405                                 *(unsigned int*)&buf_tx_232[TR_OP_DATA+C1_DATA+1]=L_STATE;
        LDI	R16, 7
        LDI	R17, 0
        STD	Z+45, R16
        STD	Z+46, R17
// 4406                                 *(unsigned long int*)&buf_tx_232[TR_OP_DATA+C1_DATA+3]=burst_ds_r();
        CALL	burst_ds_r
        LDI	R30, LOW(buf_tx_232)
        LDI	R31, (buf_tx_232) >> 8
        STD	Z+47, R16
        STD	Z+48, R17
        STD	Z+49, R18
        STD	Z+50, R19
// 4407                                buf_tx_232[TR_OP_DATA+C1_DATA+8]=0;
        LDI	R16, 0
        STD	Z+52, R16
// 4408                                buf_tx_232[TR_OP_DATA+C1_DATA+9]=0;
        STD	Z+53, R16
// 4409                                       
// 4410                                if(Appl_seq_des==0)
        LDS	R16, Appl_seq_des
        TST	R16
        BRNE	??proc_udp_data_54
// 4411                                 {
// 4412                               //   buf_tx_232[TR_OP_DATA+C1_DATA+7]=state_seq;         !!!!!!!!!!!!!!!!!!!!
// 4413                               //   buf_tx_232[TR_OP_DATA+C1_DATA+8]=sv_tc.bytes[0] & 0x01;!!!!!!!!!!!!!!!!!!!
// 4414                                  buf_tx_232[TR_OP_DATA+C1_DATA+9]=byte_state_net & 0x01;
        LDI	R30, LOW(byte_state_net)
        LDI	R31, (byte_state_net) >> 8
        LD	R16, Z
        ANDI	R16, 0x01
        LDI	R30, LOW(buf_tx_232)
        LDI	R31, (buf_tx_232) >> 8
        STD	Z+53, R16
        RJMP	??proc_udp_data_55
// 4415                                  }
// 4416                                  else buf_tx_232[TR_OP_DATA+C1_DATA+7]=DES_SEQ;
??proc_udp_data_54:
        LDI	R16, 255
        STD	Z+51, R16
// 4417                                 
// 4418                                 Obj_ppp_tx.l_data=5+L_STATE;   // äëčíŕ äŕííűő
??proc_udp_data_55:
        LDI	R16, 12
        LDI	R17, 0
        MOVW	R31:R30, R25:R24
        STD	Z+14, R16
        STD	Z+15, R17
// 4419                                 Obj_ppp_tx.p_data=&buf_tx_232[TR_OP_DATA+C1_PROT];  //óęŕçŕňĺëü áóôĺđŕ äŕííűő
        LDI	R16, LOW(buf_tx_232)
        LDI	R17, (buf_tx_232) >> 8
        SUBI	R16, 214
        SBCI	R17, 255
        STD	Z+12, R16
        STD	Z+13, R17
// 4420                              
// 4421                                send_info(sizeof(ans_out_st_contr),ans_out_st_contr,1,buf_rx_ppp[TR_ID]);
        MOVW	R31:R30, R27:R26
        LDD	R20, Z+37
        LDI	R17, 1
        LDI	R18, LOW((evc_rld + 65))
        LDI	R19, HIGH((evc_rld + 65))
        LDI	R16, 13
        CALL	send_info
// 4422                               
// 4423                                form_buf_tx_ppp();                            
        CALL	form_buf_tx_ppp
// 4424                                UCSR0A=UCSR0A | TXC;                            
        LDS	R16, 192
        ORI	R16, 0x40
        STS	192, R16
// 4425                                UCSR0B=UCSR0B | TXEN;
        LDS	R16, 193
        ORI	R16, 0x08
        STS	193, R16
// 4426                                UCSR0B=UCSR0B | TXCIE;
        LDS	R16, 193
        ORI	R16, 0x40
        STS	193, R16
// 4427                                if(check_cts()==1) return(1);                
        CALL	check_cts
        CPI	R16, 1
        BRNE	??proc_udp_data_56
??proc_udp_data_5:
        LDI	R16, 1
        RJMP	??proc_udp_data_2
// 4428                                S2_RD
??proc_udp_data_56:
        SBI	0x08, 0x00
        CBI	0x08, 0x01
// 4429                                UDR0=buf_tx_232[0]; 
        LDI	R30, LOW(buf_tx_232)
        LDI	R31, (buf_tx_232) >> 8
        LD	R16, Z
        STS	198, R16
// 4430                                if(Regim==RG_DEBAG) UDR3=buf_tx_232[0];
        LDS	R16, Regim
        CPI	R16, 1
        BRNE	??proc_udp_data_5
??proc_udp_data_57:
        LD	R16, Z
        STS	310, R16
        RJMP	??proc_udp_data_5
// 4431                                return(1);
// 4432                                } 
// 4433                             
// 4434                             
// 4435                             if(fl_appl_seq.kv_waits==1)
??proc_udp_data_53:
        LDI	R30, LOW(fl_appl_seq)
        LDI	R31, (fl_appl_seq) >> 8
        LD	R18, Z
        SBRS	R18, 1
        RJMP	??proc_udp_data_1
// 4436                                 {  
// 4437                                  if(((buf_rx_ppp[TR_V]>>4)&0x03)!=KVIT)return(0); 
        MOVW	R31:R30, R27:R26
        LDD	R18, Z+36
        SWAP	R18
        ANDI	R18, 0x0F
        ANDI	R18, 0x03
        CPI	R18, 3
        BREQ	$+2+2
        RJMP	??proc_udp_data_1
// 4438                                  if(Appl_seq.id!=buf_rx_ppp[TR_ID])return(0);// ďđîâĺđęŕ čäĺíňčôčęŕňîđŕ
        MOVW	R31:R30, R17:R16
        LD	R18, Z
        MOVW	R31:R30, R27:R26
        LDD	R19, Z+37
        CP	R18, R19
        BREQ	$+2+2
        RJMP	??proc_udp_data_1
// 4439                                 
// 4440                                  
// 4441                                  
// 4442                                  Appl_seq.cnt_waits=0;
        LDI	R18, 0
        LDI	R19, 0
        MOVW	R31:R30, R17:R16
        STD	Z+9, R18
        STD	Z+10, R18
// 4443                                  fl_appl_seq.kv_waits=0;
        LDI	R30, LOW(fl_appl_seq)
        LDI	R31, (fl_appl_seq) >> 8
        LD	R18, Z
        ANDI	R18, 0xFD
        ST	Z, R18
// 4444                                  
// 4445                                  cnt_no_link=vol_cnt_no_link;//dobavka
        LDI	R30, LOW(vol_cnt_no_link)
        LDI	R31, (vol_cnt_no_link) >> 8
        LD	R20, Z
        LDD	R21, Z+1
        LDD	R22, Z+2
        LDD	R23, Z+3
        LDI	R30, LOW(cnt_no_link)
        LDI	R31, (cnt_no_link) >> 8
        ST	Z, R20
        STD	Z+1, R21
        STD	Z+2, R22
        STD	Z+3, R23
// 4446                                  Control.link_waits=FALSE;
        LDI	R30, LOW(Control)
        LDI	R31, (Control) >> 8
        STD	Z+1, R19
// 4447                                  Control.cnt_link=Control.vol_link;                   
        LDD	R18, Z+8
        LDD	R19, Z+9
        STD	Z+4, R18
        STD	Z+5, R19
// 4448                                  Control.cnt_try=0;
        LDI	R18, 0
        STD	Z+14, R18
// 4449                                  Control.link_no=FALSE;
        ST	Z, R18
// 4450                                  
// 4451                                  fl_appl_seq.en_povtor=0;
        LDI	R30, LOW(fl_appl_seq)
        LDI	R31, (fl_appl_seq) >> 8
        LD	R18, Z
        ANDI	R18, 0xFB
        ST	Z, R18
// 4452                                  // ĘÂČŇČĐÎÂŔÍČĹ
// 4453                                  Appl_seq.p_out=Appl_seq.p_out_kv;
        MOVW	R31:R30, R17:R16
        LDD	R18, Z+5
        LDD	R19, Z+6
        STD	Z+3, R18
        STD	Z+4, R19
// 4454                                  Appl_seq.l_data=0;
        LDI	R18, 0
        STD	Z+12, R18
        STD	Z+13, R18
// 4455                                  if(fl_appl_seq1.over_buf==1)
        LDI	R30, LOW(fl_appl_seq1)
        LDI	R31, (fl_appl_seq1) >> 8
        LD	R16, Z
        SBRS	R16, 0
        RJMP	??proc_udp_data_58
// 4456                                     {
// 4457                                     fl_appl_seq1.over_buf=0;
// 4458                                     fl_appl_seq1.send_state=1;
        LDS	R16, fl_appl_seq1
        ANDI	R16, 0xFE
        ORI	R16, 0x02
        STS	fl_appl_seq1, R16
// 4459                                     }
// 4460                                  send_info(sizeof(rec_evc),rec_evc,1,buf_rx_ppp[TR_ID]);
??proc_udp_data_58:
        MOVW	R31:R30, R27:R26
        LDD	R20, Z+37
        LDI	R17, 1
        LDI	R18, LOW((evc_rld + 18))
        LDI	R19, HIGH((evc_rld + 18))
        LDI	R16, 7
        RJMP	??proc_udp_data_8
// 4461                                  return(1); 
// 4462                                  }
// 4463                                  
// 4464                                  
// 4465                             break;     
// 4466                        case PORT_SYS:
// 4467                             break;
// 4468                         case PORT_CONF:
// 4469                             if(length<5)return(0);               
??proc_udp_data_13:
        LDI	R16, 5
        CP	R14, R16
        LDI	R16, 0
        CPC	R15, R16
        BRCC	$+2+2
        RJMP	??proc_udp_data_1
// 4470                             if(((buf_rx_ppp[TR_V]>>4)&0x03)!=ZAPR)return(0);
        MOVW	R31:R30, R27:R26
        LDD	R16, Z+36
        SWAP	R16
        ANDI	R16, 0x0F
        ANDI	R16, 0x03
        BREQ	$+2+2
        RJMP	??proc_udp_data_1
// 4471                             
// 4472                             if (check_ln_conf(&buf_rx_ppp[0],offset,count_rx_ppp)==1)return(0);
        LD	R20, Y
        LDD	R21, Y+1
        MOV	R18, R11
        MOVW	R17:R16, R27:R26
        CALL	check_ln_conf
        CPI	R16, 1
        BRNE	$+2+2
        RJMP	??proc_udp_data_1
// 4473                             
// 4474 
// 4475                             
// 4476                             if((buf_rx_ppp[offset+C1_DATA] & 0x7f)==CONF_LOG)
        MOVW	R31:R30, R5:R4
        LDD	R16, Z+2
        ANDI	R16, 0x7F
        CPI	R16, 16
        BREQ	$+2+2
        RJMP	??proc_udp_data_59
// 4477                             {
// 4478                                  if(length>5)return(0);
        LDI	R16, 6
        CP	R14, R16
        LDI	R16, 0
        CPC	R15, R16
        BRCS	$+2+2
        RJMP	??proc_udp_data_1
// 4479                                  if(*(unsigned int*)&buf_rx_ppp[offset+C1_DATA+1]!=L_CONF_LOG)return(0);
        LDD	R16, Z+3
        LDD	R17, Z+4
        OR	R16, R17
        BREQ	$+2+2
        RJMP	??proc_udp_data_1
// 4480                                  if((buf_rx_ppp[offset+C1_DATA] & 0x80)==0x80)
        LDD	R16, Z+2
        SBRS	R16, 7
        RJMP	??proc_udp_data_60
// 4481                                     {
// 4482                                     //ńňčđŕíčĺ ëîă ôŕéëŕ          
// 4483                                     __watchdog_reset();
        WDR
// 4484                                      WrArrayToFlesh(BEG_BUF_LOG,0,(L_LOG*6),0x01,0x00);
        LDI	R23, 0
        LDI	R22, 1
        LDI	R20, 240
        LDI	R21, 0
        LDI	R18, 0
        LDI	R19, 0
        LDI	R16, 244
        LDI	R17, 1
        CALL	WrArrayToFlesh
// 4485                                     __watchdog_reset();
        WDR
// 4486                                     point_log_buf=0;
        LDI	R16, 0
        STS	point_log_buf, R16
// 4487                                     *(unsigned int*)&buf_tx_232[TR_OP_DATA+C1_DATA+1]=L_CONF_LOG+1;
        LDI	R16, 1
        LDI	R17, 0
        LDI	R30, LOW(buf_tx_232)
        LDI	R31, (buf_tx_232) >> 8
        STD	Z+45, R16
        STD	Z+46, R17
// 4488                                      Obj_ppp_tx.l_data=5+L_CONF_LOG+1;
        LDI	R16, 6
        RJMP	??proc_udp_data_61
// 4489                                   //  ii=0;
// 4490                                     }
// 4491                                     else
// 4492                                     {
// 4493                                     //÷ňĺíčĺ 
// 4494                                     RdFromFleshToArr(BEG_BUF_LOG,&buf_tx_232[TR_OP_DATA+C1_DATA+4],(L_LOG*6));
??proc_udp_data_60:
        LDI	R20, 240
        LDI	R21, 0
        LDI	R18, LOW(buf_tx_232)
        LDI	R19, (buf_tx_232) >> 8
        SUBI	R18, 208
        SBCI	R19, 255
        LDI	R16, 244
        LDI	R17, 1
        CALL	RdFromFleshToArr
// 4495                                     *(unsigned int*)&buf_tx_232[TR_OP_DATA+C1_DATA+1]=L_CONF_LOG+(L_LOG*6)+1;
        LDI	R16, 241
        LDI	R17, 0
        LDI	R30, LOW(buf_tx_232)
        LDI	R31, (buf_tx_232) >> 8
        STD	Z+45, R16
        STD	Z+46, R17
// 4496                                      Obj_ppp_tx.l_data=5+L_CONF_LOG+(L_LOG*6)+1;
        LDI	R16, 246
??proc_udp_data_61:
        MOVW	R31:R30, R25:R24
        STD	Z+14, R16
        STD	Z+15, R17
// 4497                                    // ii=;
// 4498                                     }
// 4499                                 
// 4500                                    buf_tx_232[TR_OP_DATA+C1_DATA]=buf_rx_ppp[offset+C1_DATA];
        MOVW	R31:R30, R5:R4
        LDD	R16, Z+2
        LDI	R30, LOW(buf_tx_232)
        LDI	R31, (buf_tx_232) >> 8
        STD	Z+44, R16
// 4501                                    buf_tx_232[TR_OP_DATA+C1_DATA+3]=0x00; //OK
        LDI	R16, 0
        STD	Z+47, R16
// 4502                                    goto otv_conf;                              
        RJMP	??proc_udp_data_62
// 4503                               
// 4504                             }
// 4505                             
// 4506                              
// 4507                              
// 4508                            Obj_ppp_tx.l_data=proc_config(&buf_rx_ppp[0],offset,count_rx_ppp);
??proc_udp_data_59:
        LD	R20, Y
        LDD	R21, Y+1
        MOV	R18, R11
        MOVW	R17:R16, R27:R26
        CALL	proc_config
        MOVW	R31:R30, R25:R24
        STD	Z+14, R16
        STD	Z+15, R17
// 4509                            Obj_ppp_tx.l_data=Obj_ppp_tx.l_data+2;     
        LDD	R16, Z+14
        LDD	R17, Z+15
        SUBI	R16, 254
        SBCI	R17, 255
        STD	Z+14, R16
        STD	Z+15, R17
// 4510                           
// 4511   
// 4512   
// 4513   otv_conf:                        
// 4514                            clr_cntr_nat();                                  
??proc_udp_data_62:
        CALL	clr_cntr_nat
// 4515                            if(fl_ip.act_ip_end!=1)return(0);
        LDI	R30, LOW(ip_pri_dns)
        LDI	R31, (ip_pri_dns) >> 8
        LDD	R16, Z+12
        SBRS	R16, 0
        RJMP	??proc_udp_data_1
// 4516                            fl_ip.act_ip_end=0;      
        LDD	R16, Z+12
        ANDI	R16, 0xFE
        STD	Z+12, R16
// 4517                            clr_cntr_link();
        CALL	clr_cntr_link
// 4518                                   Obj_ppp_tx.prozr=FALSE;            
        LDI	R16, 0
        MOVW	R31:R30, R25:R24
        ST	Z, R16
// 4519                                   Obj_ppp_tx.version=VER2;      //âĺđńč˙ 
        LDI	R16, 2
        STD	Z+1, R16
// 4520                                   Obj_ppp_tx.type_pac=OTV;     //ňčď ďŕęĺňŕ
        LDI	R16, 1
        STD	Z+2, R16
// 4521                                   Obj_ppp_tx.num_src=num_self; // íîěĺđ îňďđŕâčňĺë˙
        LDI	R30, LOW(num_self)
        LDI	R31, (num_self) >> 8
        LD	R16, Z
        LDD	R17, Z+1
        MOVW	R31:R30, R25:R24
        STD	Z+3, R16
        STD	Z+4, R17
// 4522                                   Obj_ppp_tx.num_dst=*(unsigned int*)&buf_rx_ppp[TR_SRC]; // íîěĺđ ďîëó÷ŕňĺë˙
        MOVW	R31:R30, R27:R26
        LDD	R16, Z+30
        LDD	R17, Z+31
        MOVW	R31:R30, R25:R24
        STD	Z+5, R16
        STD	Z+6, R17
// 4523                                   Obj_ppp_tx.id_pac=buf_rx_ppp[TR_ID]; // čäĺíňčôčęŕňîđ ďŕęĺňŕ  
        MOVW	R31:R30, R27:R26
        LDD	R16, Z+37
        MOVW	R31:R30, R25:R24
        STD	Z+7, R16
// 4524                                   Obj_ppp_tx.p_opt=&buf_opt_tr[0]; // //óęŕçŕňĺëü áóôĺđŕ îďöčé  
        LDI	R16, LOW(buf_opt_tr)
        LDI	R17, (buf_opt_tr) >> 8
        STD	Z+8, R16
        STD	Z+9, R17
// 4525                                   Obj_ppp_tx.l_opt=0;// äëčíŕ áóôĺđŕ îďöčé   
        LDI	R16, 0
        STD	Z+10, R16
// 4526                                   Obj_ppp_tx.kol_opt=0;// ęîëč÷ĺńňâî îďöčé   
        STD	Z+11, R16
// 4527      
// 4528                                   buf_tx_232[TR_OP_DATA+C1_PROT]=PROT_C1;
        LDI	R16, 1
        LDI	R30, LOW(buf_tx_232)
        LDI	R31, (buf_tx_232) >> 8
        STD	Z+42, R16
// 4529                                   buf_tx_232[TR_OP_DATA+C1_PORT]=PORT_CONF;
        LDI	R16, 6
        STD	Z+43, R16
// 4530  
// 4531                                 
// 4532                                  Obj_ppp_tx.p_data=&buf_tx_232[TR_OP_DATA+C1_PROT];  //óęŕçŕňĺëü áóôĺđŕ äŕííűő
        LDI	R16, LOW(buf_tx_232)
        LDI	R17, (buf_tx_232) >> 8
        SUBI	R16, 214
        SBCI	R17, 255
        MOVW	R31:R30, R25:R24
        STD	Z+12, R16
        STD	Z+13, R17
// 4533         
// 4534                                  
// 4535                                 send_info(sizeof(ans_out_config),ans_out_config,1,buf_rx_ppp[TR_ID]); 
        MOVW	R31:R30, R27:R26
        LDD	R20, Z+37
        LDI	R17, 1
        LDI	R18, LOW((evc_rld + 78))
        LDI	R19, HIGH((evc_rld + 78))
        LDI	R16, 11
        CALL	send_info
// 4536                                 form_buf_tx_ppp();   
        CALL	form_buf_tx_ppp
// 4537                                 
// 4538                                 if((fl_rewrite.udp==1)||(fl_rewrite.udp==1)||(fl_rewrite.num_self==1))
        MOVW	R31:R30, R25:R24
        LDD	R16, Z+26
        SBRC	R16, 1
        RJMP	??proc_udp_data_63
        LDD	R16, Z+26
        ANDI	R16, 0x06
        BRNE	$+2+2
        RJMP	??proc_udp_data_64
// 4539                                    {
// 4540                                     RdFromFleshToArr(A_IP_PAR,&buf_rx_ppp[0],L_IP_PAR);
??proc_udp_data_63:
        LDI	R20, 10
        LDI	R21, 0
        MOVW	R19:R18, R27:R26
        LDI	R16, 140
        LDI	R17, 0
        CALL	RdFromFleshToArr
// 4541                                     if(fl_rewrite.num_self==1)num_self=*(unsigned int*)&buf_rx_ppp[OFS_NUM];
        MOVW	R31:R30, R25:R24
        LDD	R16, Z+26
        SBRS	R16, 2
        RJMP	??proc_udp_data_65
        MOVW	R31:R30, R27:R26
        LDD	R16, Z+6
        LDD	R17, Z+7
        LDI	R30, LOW(num_self)
        LDI	R31, (num_self) >> 8
        ST	Z, R16
        STD	Z+1, R17
// 4542                                     if(fl_rewrite.udp==1)port_udp=*(unsigned int*)&buf_rx_ppp[OFS_PORT];
??proc_udp_data_65:
        MOVW	R31:R30, R25:R24
        LDD	R16, Z+26
        SBRS	R16, 1
        RJMP	??proc_udp_data_66
        MOVW	R31:R30, R27:R26
        LDD	R16, Z+4
        LDD	R17, Z+5
        LDI	R30, LOW(port_udp)
        LDI	R31, (port_udp) >> 8
        ST	Z, R16
        STD	Z+1, R17
// 4543                                     if(fl_rewrite.ip==1)
??proc_udp_data_66:
        MOVW	R31:R30, R25:R24
        LDD	R16, Z+26
        SBRS	R16, 0
        RJMP	??proc_udp_data_67
// 4544                                           {
// 4545                                           ip_ls[0]=buf_rx_ppp[OFS_IP];
        LDI	R16, LOW(ip_ls)
        LDI	R17, (ip_ls) >> 8
        LD	R18, X
        MOVW	R31:R30, R17:R16
        ST	Z, R18
// 4546                                           ip_ls[1]=buf_rx_ppp[OFS_IP+1];
        MOVW	R31:R30, R27:R26
        LDD	R18, Z+1
        MOVW	R31:R30, R17:R16
        STD	Z+1, R18
// 4547                                           ip_ls[2]=buf_rx_ppp[OFS_IP+2];
        MOVW	R31:R30, R27:R26
        LDD	R18, Z+2
        MOVW	R31:R30, R17:R16
        STD	Z+2, R18
// 4548                                           ip_ls[3]=buf_rx_ppp[OFS_IP+3];
        MOVW	R31:R30, R27:R26
        LDD	R18, Z+3
        MOVW	R31:R30, R17:R16
        STD	Z+3, R18
// 4549                                           }
// 4550                                    fl_rewrite.ip=0;
// 4551                                    fl_rewrite.udp=0;
// 4552                                    fl_rewrite.num_self=0;
??proc_udp_data_67:
        MOVW	R31:R30, R25:R24
        LDD	R16, Z+26
        ANDI	R16, 0xF8
        STD	Z+26, R16
// 4553                                    prov_ozu=crc_ozu();
        CALL	crc_ozu
        LDI	R30, LOW(prov_ozu)
        LDI	R31, (prov_ozu) >> 8
        ST	Z, R16
        STD	Z+1, R17
// 4554                                    
// 4555                                    Control.cnt_link=3;
        LDI	R16, 3
        LDI	R17, 0
        LDI	R30, LOW(Control)
        LDI	R31, (Control) >> 8
        STD	Z+4, R16
        STD	Z+5, R17
// 4556                                    Control.link_waits=FALSE;
        STD	Z+1, R17
// 4557                                    Control.cnt_try=0;
        STD	Z+14, R17
// 4558                                    Control.link_no=FALSE;
        ST	Z, R17
// 4559                                    }
// 4560                                
// 4561                                                          
// 4562                                 UCSR0A=UCSR0A | TXC;                            
??proc_udp_data_64:
        LDS	R16, 192
        ORI	R16, 0x40
        STS	192, R16
// 4563                                 UCSR0B=UCSR0B | TXEN;
        LDS	R16, 193
        ORI	R16, 0x08
        STS	193, R16
// 4564                                 UCSR0B=UCSR0B | TXCIE;
        LDS	R16, 193
        ORI	R16, 0x40
        STS	193, R16
// 4565                                 if(check_cts()==1) return(1);   
        CALL	check_cts
        CPI	R16, 1
        BRNE	$+2+2
        RJMP	??proc_udp_data_5
// 4566                                 S2_RD             
        SBI	0x08, 0x00
        CBI	0x08, 0x01
// 4567                                 UDR0=buf_tx_232[0];
        LDI	R30, LOW(buf_tx_232)
        LDI	R31, (buf_tx_232) >> 8
        LD	R16, Z
        STS	198, R16
// 4568                                 if(Regim==RG_DEBAG) UDR3=buf_tx_232[0];
        LDS	R16, Regim
        CPI	R16, 1
        BREQ	$+2+2
        RJMP	??proc_udp_data_5
        RJMP	??proc_udp_data_57
// 4569  
// 4570                              return(1);  
// 4571                              
// 4572                                  
// 4573                            // break;
// 4574                        
// 4575                        
// 4576                        
// 4577                        
// 4578                        
// 4579                        case PORT_PROG:
// 4580                             
// 4581                             if(((buf_rx_ppp[TR_V]>>4)&0x03)!=ZAPR)return(0);
??proc_udp_data_14:
        MOVW	R31:R30, R27:R26
        LDD	R16, Z+36
        SWAP	R16
        ANDI	R16, 0x0F
        ANDI	R16, 0x03
        BREQ	$+2+2
        RJMP	??proc_udp_data_1
// 4582                             
// 4583                             if(length_head==MIN_TR_HEAD)return(0);     
        LDI	R16, 12
        CP	R10, R16
        BRNE	$+2+2
        RJMP	??proc_udp_data_1
// 4584                             if (proc_option(buf_rx_ppp,TR_OP_DATA,length_head-MIN_TR_HEAD)!=1)return(0); 
        MOVW	R21:R20, R13:R12
        LDI	R18, 42
        LDI	R19, 0
        MOVW	R17:R16, R27:R26
        RCALL	proc_option
        CPI	R16, 1
        BREQ	$+2+2
        RJMP	??proc_udp_data_1
// 4585                              
// 4586                             if(length!=5+L_COM_CODE_MEM_Z)return(0);        
        LDI	R16, 5
        CP	R14, R16
        LDI	R16, 1
        CPC	R15, R16
        BREQ	$+2+2
        RJMP	??proc_udp_data_1
// 4587                             if((buf_rx_ppp[offset+C1_PORT+1])!=COM_CODE_MEM)return(0);
        MOVW	R31:R30, R5:R4
        LDD	R16, Z+2
        CPI	R16, 1
        BREQ	$+2+2
        RJMP	??proc_udp_data_1
// 4588                             if((*(unsigned int*)&buf_rx_ppp[offset+C1_PORT+2])!=L_COM_CODE_MEM_Z)return(0);
        LDD	R16, Z+3
        LDD	R17, Z+4
        CPI	R16, 0
        LDI	R18, 1
        CPC	R17, R18
        BREQ	$+2+2
        RJMP	??proc_udp_data_1
// 4589                             
// 4590                             
// 4591                             
// 4592                             
// 4593                             
// 4594                             if(proc_paging()==1)
        RCALL	proc_paging
        CPI	R16, 1
        BRNE	??proc_udp_data_68
// 4595                                {
// 4596                                send_no_sinc(buf_rx_ppp[TR_ID],*(unsigned int*)&buf_rx_ppp[TR_SRC],NO_SINC_PG);
        LDI	R17, 2
??proc_udp_data_69:
        MOVW	R31:R30, R27:R26
        LDD	R18, Z+30
        LDD	R19, Z+31
        LDD	R16, Z+37
        RCALL	send_no_sinc
        RJMP	??proc_udp_data_1
// 4597                                return(0);
// 4598                                }
// 4599                             
// 4600                            
// 4601                             
// 4602                             if(cnt_pg>251)    //(îň 0 äî 251) //ěîćíî ăđóçčňü íĺ áîëĺĺ 252 ńňđ 
??proc_udp_data_68:
        MOVW	R31:R30, R25:R24
        LDD	R18, Z+24
        LDD	R19, Z+25
        CPI	R18, 252
        LDI	R16, 0
        CPC	R19, R16
        BRCS	??proc_udp_data_70
// 4603                               {
// 4604                               cnt_pg=0;
        STD	Z+24, R16
        STD	Z+25, R16
// 4605                               fl_pg_out.send_crc=0;
// 4606                               fl_pg_out.hold_pg=0;    
// 4607                               fl_pg_out.ch_crc=0; 
// 4608                               fl_pg_out.end_pg=0;
// 4609                               fl_pg_out.cor_pg=0;
        LDD	R16, Z+33
        ANDI	R16, 0x94
        STD	Z+33, R16
// 4610                               send_no_sinc(buf_rx_ppp[TR_ID],*(unsigned int*)&buf_rx_ppp[TR_SRC],OVER_PG);
        LDI	R17, 3
        RJMP	??proc_udp_data_69
// 4611                               return(0);
// 4612                               }
// 4613                           
// 4614                         
// 4615                               reboot_byte=0; 
??proc_udp_data_70:
        STD	Z+32, R16
// 4616                               
// 4617                               if(fl_pg_out.cor_pg==1)
        LDD	R16, Z+33
        SBRS	R16, 3
        RJMP	??proc_udp_data_71
// 4618                                  {
// 4619                                  fl_pg_out.cor_pg=0;
        LDD	R16, Z+33
        ANDI	R16, 0xF7
        STD	Z+33, R16
// 4620                                   
// 4621                                   
// 4622                                   
// 4623                                   //ďđîčçâĺńňč çŕďčńü ńňđŕíčöű
// 4624                                       pagee=cnt_pg;
// 4625                                       pagee=pagee << 8;
        MOV	R19, R18
        LDI	R18, 0
        STD	Z+18, R18
        STD	Z+19, R19
// 4626                                       __disable_interrupt();                    
        CLI
// 4627                                       __watchdog_reset();           
        WDR
// 4628                                       off_buf=offset+C1_PORT+4;           
        LDI	R16, 5
        ADD	R11, R16
        STD	Z+28, R11
// 4629                                       RAMPZ=1; 
        LDI	R16, 1
        OUT	0x3B, R16
// 4630                                       array_in_232=&buf_rx_ppp[0];
        STD	Z+20, R26
        STD	Z+21, R27
// 4631                                       contr_gluk1=C_GLUK1;   
        LDI	R16, 85
        STD	Z+30, R16
// 4632                                       contr_gluk2=C_GLUK2; 
        LDI	R16, 170
        STD	Z+31, R16
// 4633                                       boot(); 
        CALL	boot
// 4634                                       
// 4635  
// 4636                                       
// 4637                                       contr_gluk1=0;   
        LDI	R16, 0
        MOVW	R31:R30, R25:R24
        STD	Z+30, R16
// 4638                                       contr_gluk2=0; 
        STD	Z+31, R16
// 4639                                       RAMPZ=0;  
        OUT	0x3B, R16
// 4640                                       __watchdog_reset();         
        WDR
// 4641                                       __enable_interrupt();
        SEI
// 4642                                     
// 4643                                  
// 4644                                  if(fl_pg_out.end_pg==1)
        LDD	R16, Z+33
        SBRS	R16, 0
        RJMP	??proc_udp_data_71
// 4645                                   {
// 4646                                 
// 4647                                     total_kol_page=cnt_pg+1;
        LDD	R16, Z+24
        INC	R16
        STD	Z+29, R16
// 4648                                     fl_pg_out.end_pg=0;
        LDD	R16, Z+33
        ANDI	R16, 0xFE
        STD	Z+33, R16
// 4649                                     //fl_pg_out.yes_crc=0; //îáíóëčňü ôëŕă ďĺđĺçŕăđóçęč
// 4650                                     if (fl_pg_out.ch_crc==1)
        LDD	R16, Z+33
        SBRS	R16, 1
        RJMP	??proc_udp_data_72
// 4651                                     {
// 4652                                     
// 4653                                        //çäĺńü ďđîâĺđęŕ crc âńĺăî ęóńęŕ
// 4654                                       
// 4655                                        length=0xffff;
        CLR	R14
        DEC	R14
        MOV	R15, R14
// 4656                                        __disable_interrupt();
        CLI
// 4657                                        
// 4658                                        
// 4659                                        
// 4660                                        for (i=0;i<total_kol_page;i++)
        CLR	R6
        RJMP	??proc_udp_data_73
// 4661                                            {
// 4662                                             array_in_232=&buf_rx_ppp[offset+C1_PORT+4];
??proc_udp_data_74:
        MOVW	R17:R16, R5:R4
        SUBI	R16, 251
        SBCI	R17, 255
        STD	Z+20, R16
        STD	Z+21, R17
// 4663                                             r_p_flash(i*256);                                                  
        MOV	R17, R6
        LDI	R16, 0
        CALL	r_p_flash
// 4664                                             length=crc_m1(&buf_rx_ppp[offset+C1_PORT+4],256,length);
        MOVW	R21:R20, R15:R14
        LDI	R18, 0
        LDI	R19, 1
        MOVW	R17:R16, R5:R4
        SUBI	R16, 251
        SBCI	R17, 255
        CALL	crc_m1
        MOVW	R15:R14, R17:R16
// 4665                                             __watchdog_reset();
        WDR
// 4666                                            }   
        INC	R6
??proc_udp_data_73:
        MOVW	R31:R30, R25:R24
        LDD	R16, Z+29
        CP	R6, R16
        BRCS	??proc_udp_data_74
// 4667                                         __enable_interrupt();
        SEI
// 4668               
// 4669                                       
// 4670                                        
// 4671                                     
// 4672                                        if(length==pg_crc)
        LDD	R16, Z+22
        LDD	R17, Z+23
        CP	R14, R16
        CPC	R15, R17
        BRNE	??proc_udp_data_75
// 4673                                         {
// 4674                                         // fl_pg_out.yes_crc=1;
// 4675                                         // âűńňŕâčňü ôëŕă ďĺđĺçŕăđóçęč áóôĺđîâ
// 4676                                          reboot_byte=0x55;
        LDI	R16, 85
        RJMP	??proc_udp_data_76
// 4677                                         }
// 4678                                         else
// 4679                                         {
// 4680                                          total_kol_page=0;
??proc_udp_data_75:
        LDI	R16, 0
        STD	Z+29, R16
// 4681                                          reboot_byte=0;                                          
??proc_udp_data_76:
        STD	Z+32, R16
// 4682                                         }
// 4683                                     
// 4684                                      fl_pg_out.send_crc=1;
        LDD	R16, Z+33
        ORI	R16, 0x40
        STD	Z+33, R16
// 4685                                      }    
// 4686                                 
// 4687                                     fl_pg_out.hold_pg=0;    
// 4688                                     fl_pg_out.ch_crc=0; 
??proc_udp_data_72:
        LDD	R16, Z+33
        ANDI	R16, 0xDD
        STD	Z+33, R16
// 4689                                
// 4690                                   }                                                                                                                                
// 4691                                  } 
// 4692                               
// 4693                               
// 4694                               
// 4695                               
// 4696                               //fl_pg_out.yes_crc=0;
// 4697                                                            
// 4698                               if(fl_pg_out.send_kv==1)
??proc_udp_data_71:
        LDD	R16, Z+33
        SBRS	R16, 2
        RJMP	??proc_udp_data_77
// 4699                                 {
// 4700                                 // âűäŕňü ęâčňîę ń ó÷ĺňîě çŕďčńč îďöčč crc çŕďčńŕííîăî ęóńęŕ 
// 4701                                                                
// 4702                                 if(reboot_byte!=0x55)
        LDD	R16, Z+32
        CPI	R16, 85
        BREQ	??proc_udp_data_78
// 4703                                  {
// 4704                                  if(fl_ip.act_ip_end!=1){fl_pg_out.send_crc=0; reboot_byte=0; return(0);}
        LDI	R30, LOW(ip_pri_dns)
        LDI	R31, (ip_pri_dns) >> 8
        LDD	R16, Z+12
        SBRC	R16, 0
        RJMP	??proc_udp_data_78
        MOVW	R31:R30, R25:R24
        LDD	R16, Z+33
        ANDI	R16, 0xBF
        STD	Z+33, R16
        LDI	R16, 0
        STD	Z+32, R16
        RJMP	??proc_udp_data_1
// 4705                                  }
// 4706                                 
// 4707                                 fl_ip.act_ip_end=0;      
??proc_udp_data_78:
        LDI	R30, LOW(ip_pri_dns)
        LDI	R31, (ip_pri_dns) >> 8
        LDD	R16, Z+12
        ANDI	R16, 0xFE
        STD	Z+12, R16
// 4708                                 clr_cntr_nat();
        CALL	clr_cntr_nat
// 4709                                 clr_cntr_link();
        CALL	clr_cntr_link
// 4710                                 Obj_ppp_tx.prozr=FALSE;            
        LDI	R16, 0
        MOVW	R31:R30, R25:R24
        ST	Z, R16
// 4711                                 Obj_ppp_tx.version=VER2;      //âĺđńč˙ 
        LDI	R16, 2
        STD	Z+1, R16
// 4712                                 Obj_ppp_tx.type_pac=OTV;     //ňčď ďŕęĺňŕ
        LDI	R16, 1
        STD	Z+2, R16
// 4713                                 Obj_ppp_tx.num_src=num_self; // íîěĺđ îňďđŕâčňĺë˙
        LDI	R30, LOW(num_self)
        LDI	R31, (num_self) >> 8
        LD	R16, Z
        LDD	R17, Z+1
        MOVW	R31:R30, R25:R24
        STD	Z+3, R16
        STD	Z+4, R17
// 4714                                 Obj_ppp_tx.num_dst=*(unsigned int*)&buf_rx_ppp[TR_SRC]; // íîěĺđ ďîëó÷ŕňĺë˙
        MOVW	R31:R30, R27:R26
        LDD	R16, Z+30
        LDD	R17, Z+31
        MOVW	R31:R30, R25:R24
        STD	Z+5, R16
        STD	Z+6, R17
// 4715          
// 4716                                 Obj_ppp_tx.id_pac=buf_rx_ppp[TR_ID]; // čäĺíňčôčęŕňîđ ďŕęĺňŕ  
        MOVW	R31:R30, R27:R26
        LDD	R16, Z+37
        MOVW	R31:R30, R25:R24
        STD	Z+7, R16
// 4717                                 Obj_ppp_tx.p_opt=&buf_opt_tr[0]; // //óęŕçŕňĺëü áóôĺđŕ îďöčé          
        LDI	R16, LOW(buf_opt_tr)
        LDI	R17, (buf_opt_tr) >> 8
        STD	Z+8, R16
        STD	Z+9, R17
// 4718                                 Obj_ppp_tx.l_opt=0;
        LDI	R16, 0
        STD	Z+10, R16
// 4719                                 
// 4720                                 if(fl_pg_out.send_crc==1)
        LDD	R16, Z+33
        SBRS	R16, 6
        RJMP	??proc_udp_data_79
// 4721                                   {
// 4722                                   Obj_ppp_tx.l_opt=4;// äëčíŕ áóôĺđŕ îďöčé   
        LDI	R16, 4
        STD	Z+10, R16
// 4723                                   buf_opt_tr[0]=KOD_WR_PG_CRC;
        LDI	R16, 3
        STS	buf_opt_tr, R16
// 4724                                   buf_opt_tr[1]=L_OP_WR_PG_CRC;
        LDI	R16, 4
        STS	(buf_opt_tr + 1), R16
// 4725                                   *(unsigned int*)&buf_opt_tr[2]=length;//ýňî crc
        LDI	R30, LOW(buf_opt_tr)
        LDI	R31, (buf_opt_tr) >> 8
        STD	Z+2, R14
        STD	Z+3, R15
// 4726                                   }
// 4727                                  fl_pg_out.send_crc=0;  
??proc_udp_data_79:
        MOVW	R31:R30, R25:R24
        LDD	R16, Z+33
        ANDI	R16, 0xBF
        STD	Z+33, R16
// 4728                               //Obj_ppp_tx.kol_opt=1;// ęîëč÷ĺńňâî îďöčé     
// 4729        
// 4730                                buf_tx_232[TR_OP_DATA+C1_PROT+10]=PROT_C1;
        LDI	R16, 1
        LDI	R30, LOW(buf_tx_232)
        LDI	R31, (buf_tx_232) >> 8
        STD	Z+52, R16
// 4731                                buf_tx_232[TR_OP_DATA+C1_PROT+11]=PORT_PROG;
        LDI	R16, 7
        STD	Z+53, R16
// 4732                                buf_tx_232[TR_OP_DATA+C1_PROT+12]=COM_CODE_MEM;
        LDI	R16, 1
        STD	Z+54, R16
// 4733                                *(unsigned int*)&buf_tx_232[TR_OP_DATA+C1_PROT+13]=L_COM_CODE_MEM_A;
        LDI	R16, 3
        LDI	R17, 0
        STD	Z+55, R16
        STD	Z+56, R17
// 4734                                buf_tx_232[TR_OP_DATA+C1_PROT+15]=0x00; //OK 
        STD	Z+57, R17
// 4735                                *(unsigned int*)&buf_tx_232[TR_OP_DATA+C1_PROT+16]=cnt_pg; //OK 
        MOVW	R31:R30, R25:R24
        LDD	R16, Z+24
        LDD	R17, Z+25
        LDI	R30, LOW(buf_tx_232)
        LDI	R31, (buf_tx_232) >> 8
        STD	Z+58, R16
        STD	Z+59, R17
// 4736    
// 4737 
// 4738                                Obj_ppp_tx.l_data=5+L_COM_CODE_MEM_A;  // äëčíŕ äŕííűő
        LDI	R16, 8
        LDI	R17, 0
        MOVW	R31:R30, R25:R24
        STD	Z+14, R16
        STD	Z+15, R17
// 4739                                Obj_ppp_tx.p_data=&buf_tx_232[TR_OP_DATA+C1_PROT+10];  //óęŕçŕňĺëü áóôĺđŕ äŕííűő
        LDI	R16, LOW(buf_tx_232)
        LDI	R17, (buf_tx_232) >> 8
        SUBI	R16, 204
        SBCI	R17, 255
        STD	Z+12, R16
        STD	Z+13, R17
// 4740         
// 4741                                send_info(sizeof(ans_out_prog),ans_out_prog,1,buf_rx_ppp[TR_ID]);
        MOVW	R31:R30, R27:R26
        LDD	R20, Z+37
        LDI	R17, 1
        LDI	R18, LOW((evc_rld + 89))
        LDI	R19, HIGH((evc_rld + 89))
        LDI	R16, 9
        CALL	send_info
// 4742                                
// 4743                                form_buf_tx_ppp();                            
        CALL	form_buf_tx_ppp
// 4744                                UCSR0A=UCSR0A | TXC;                            
        LDS	R16, 192
        ORI	R16, 0x40
        STS	192, R16
// 4745                                UCSR0B=UCSR0B | TXEN;
        LDS	R16, 193
        ORI	R16, 0x08
        STS	193, R16
// 4746                                UCSR0B=UCSR0B | TXCIE;
        LDS	R16, 193
        ORI	R16, 0x40
        STS	193, R16
// 4747                             
// 4748                             if(reboot_byte!=0x55)
        MOVW	R31:R30, R25:R24
        LDD	R16, Z+32
        CPI	R16, 85
        BREQ	??proc_udp_data_80
// 4749                                  {   
// 4750                                   // if(check_cts()==1){S5_RD; while(1)__watchdog_reset(); return(0);}
// 4751                                     if(check_cts()==1) return(0);
        CALL	check_cts
        CPI	R16, 1
        BRNE	$+2+2
        RJMP	??proc_udp_data_1
// 4752                                  }                
// 4753                               
// 4754                                S2_RD;
??proc_udp_data_80:
        SBI	0x08, 0x00
        CBI	0x08, 0x01
// 4755                                UDR0=buf_tx_232[0];
        LDI	R30, LOW(buf_tx_232)
        LDI	R31, (buf_tx_232) >> 8
        LD	R16, Z
        STS	198, R16
// 4756                                if(Regim==RG_DEBAG) UDR3=buf_tx_232[0];
        LDS	R16, Regim
        CPI	R16, 1
        BRNE	??proc_udp_data_77
        LD	R16, Z
        STS	310, R16
// 4757                                 }                               
// 4758                                 
// 4759                              
// 4760                                if(reboot_byte==0x55)
??proc_udp_data_77:
        MOVW	R31:R30, R25:R24
        LDD	R16, Z+32
        CPI	R16, 85
        BREQ	$+2+2
        RJMP	??proc_udp_data_5
// 4761                                  {
// 4762                                    for(i=0;i<30;i++)
        CLR	R6
        RJMP	??proc_udp_data_81
// 4763                                     {
// 4764                                     __watchdog_reset();
??proc_udp_data_82:
        WDR
// 4765                                     delay(45000);
        LDI	R16, 200
        LDI	R17, 175
        CALL	delay
// 4766                                     }
        INC	R6
??proc_udp_data_81:
        LDI	R16, 30
        CP	R6, R16
        BRCS	??proc_udp_data_82
// 4767                                     
// 4768                                    __disable_interrupt();
        CLI
// 4769                                    WrArrayToFlesh(BEG_BUF_LOG,0,(L_LOG*6),0x01,0x00);
        LDI	R23, 0
        LDI	R22, 1
        LDI	R20, 240
        LDI	R21, 0
        LDI	R18, 0
        LDI	R19, 0
        LDI	R16, 244
        LDI	R17, 1
        CALL	WrArrayToFlesh
// 4770 
// 4771                                    off_buf=0;
        LDI	R16, 0
        MOVW	R31:R30, R25:R24
        STD	Z+28, R16
// 4772                                    SREG=0;
        OUT	0x3F, R16
// 4773                                    WDTCSR=0x18;           
        LDI	R16, 24
        STS	96, R16
// 4774                                    WDTCSR=0x0f;           
        LDI	R16, 15
        STS	96, R16
// 4775                                    __watchdog_reset();   
        WDR
// 4776                                    contr_gluk1=C_GLUK1;   
        LDI	R16, 85
        STD	Z+30, R16
// 4777                                    contr_gluk2=C_GLUK2; 
        LDI	R16, 170
        STD	Z+31, R16
// 4778                                    send_info(sizeof(evc_rld),evc_rld,0,0);
        LDI	R20, 0
        LDI	R17, 0
        LDI	R18, LOW(evc_rld)
        LDI	R19, (evc_rld) >> 8
        LDI	R16, 7
        CALL	send_info
// 4779                                    reload_apl(); 
        CALL	reload_apl
        RJMP	??proc_udp_data_5
        CFI EndBlock cfiBlock18
// 4780                                  }          
// 4781                              
// 4782                                 
// 4783                             return(1);                         
// 4784                       }
// 4785               
// 4786               
// 4787               
// 4788               
// 4789                }//äë˙ âĺđńčč VER2
// 4790                
// 4791               
// 4792                   
// 4793                return(0);
// 4794                } 
// 4795  
// 4796  ////////////////EEEEEEEEEEEEEEEEEEEEEEEEEEEEEEEEEEEEEEEEEEEEEEEEEEEEEEEEEEEEEEEEEEEEEEE
// 4797  
// 4798  
// 4799  
// 4800  
// 4801  
// 4802  
// 4803  
// 4804 
// 4805  
// 4806  
// 4807  

        RSEG CODE:CODE:NOROOT(1)
// 4808 void analiz_ppp_rx(void)
analiz_ppp_rx:
        CFI Block cfiBlock19 Using cfiCommon0
        CFI Function analiz_ppp_rx
// 4809 {
// 4810    
// 4811   
// 4812   
// 4813   if(fl_ipcp.act_ipcp_end==0)return;
// 4814   if (fl_ip.act_ip_end==0)return;         
        FUNCALL analiz_ppp_rx, proc_ppp_packet
        LOCFRAME RSTACK, 2, STACK
        FUNCALL analiz_ppp_rx, proc_ppp_packet
        LOCFRAME RSTACK, 2, STACK
        LDI	R30, LOW(ip_pri_dns)
        LDI	R31, (ip_pri_dns) >> 8
        LDD	R16, Z+11
        ANDI	R16, 0x01
        LDD	R17, Z+12
        ANDI	R17, 0x01
        AND	R17, R16
        BREQ	??analiz_ppp_rx_0
// 4815   
// 4816   if(Buf1_rx_ppp.rec==TRUE)
        LDS	R16, (Buf1_rx_ppp + 332)
        CPI	R16, 1
        BRNE	??analiz_ppp_rx_1
// 4817   {
// 4818    
// 4819   proc_ppp_packet(&Buf1_rx_ppp.data[0],Buf1_rx_ppp.ln_data); 
        LDI	R30, LOW((Buf1_rx_ppp + 330))
        LDI	R31, HIGH((Buf1_rx_ppp + 330))
        LD	R18, Z
        LDD	R19, Z+1
        LDI	R16, LOW(Buf1_rx_ppp)
        LDI	R17, (Buf1_rx_ppp) >> 8
        CALL	proc_ppp_packet
// 4820   Buf1_rx_ppp.ln_data=0;
        LDI	R16, 0
        LDI	R30, LOW((Buf1_rx_ppp + 330))
        LDI	R31, HIGH((Buf1_rx_ppp + 330))
        ST	Z, R16
        STD	Z+1, R16
// 4821   Buf1_rx_ppp.rec=FALSE;
        STS	(Buf1_rx_ppp + 332), R16
// 4822   Buf1_rx_ppp.busy=FALSE;
        STS	(Buf1_rx_ppp + 333), R16
// 4823   return;
        RET
// 4824   }
// 4825   
// 4826   if(Buf2_rx_ppp.rec==TRUE)
??analiz_ppp_rx_1:
        LDS	R16, (Buf2_rx_ppp + 332)
        CPI	R16, 1
        BRNE	??analiz_ppp_rx_0
// 4827   {
// 4828   
// 4829  
// 4830   
// 4831   proc_ppp_packet(&Buf2_rx_ppp.data[0],Buf2_rx_ppp.ln_data); 
        LDI	R30, LOW((Buf2_rx_ppp + 330))
        LDI	R31, HIGH((Buf2_rx_ppp + 330))
        LD	R18, Z
        LDD	R19, Z+1
        LDI	R16, LOW(Buf2_rx_ppp)
        LDI	R17, (Buf2_rx_ppp) >> 8
        CALL	proc_ppp_packet
// 4832   Buf2_rx_ppp.ln_data=0;
        LDI	R16, 0
        LDI	R30, LOW((Buf2_rx_ppp + 330))
        LDI	R31, HIGH((Buf2_rx_ppp + 330))
        ST	Z, R16
        STD	Z+1, R16
// 4833   Buf2_rx_ppp.rec=FALSE;
        STS	(Buf2_rx_ppp + 332), R16
// 4834   Buf2_rx_ppp.busy=FALSE;
        STS	(Buf2_rx_ppp + 333), R16
// 4835   return;
??analiz_ppp_rx_0:
        RET
        CFI EndBlock cfiBlock19
// 4836   }        
// 4837           
// 4838 }

        ASEGN ABSOLUTE:DATA:NOROOT,01fH
__?EECR:

        ASEGN ABSOLUTE:DATA:NOROOT,020H
__?EEDR:

        ASEGN ABSOLUTE:DATA:NOROOT,021H
__?EEARL:

        ASEGN ABSOLUTE:DATA:NOROOT,022H
__?EEARH:

        RSEG INITTAB:CODE:NOROOT(0)
`?<Segment init: NEAR_Z>`:
        DW	SFE(NEAR_Z) - SFB(NEAR_Z)
        DW	SFB(NEAR_Z)
        DP	0
        REQUIRE ?need_segment_init

        RSEG SWITCH:CODE:NOROOT(1)
`?<Jumptable for run_lcp_act>_0`:
        DB	0
        DB	0
        DW	(??run_lcp_act_3) /2
        DW	12
        DW	(??run_lcp_act_0) /2
        DW	(??run_lcp_act_4) /2
        DW	(??run_lcp_act_5) /2
        DW	(??run_lcp_act_5) /2
        DW	(??run_lcp_act_6) /2
        DW	(??run_lcp_act_7) /2
        DW	(??run_lcp_act_8) /2
        DW	(??run_lcp_act_10) /2
        DW	(??run_lcp_act_15) /2
        DW	(??run_lcp_act_22) /2
        DW	(??run_lcp_act_23) /2
        DW	(??run_lcp_act_24) /2

        RSEG SWITCH:CODE:NOROOT(1)
`?<Jumptable for monitor_event_LCP>_0`:
        DB	6
        DB	0
        DW	(??monitor_event_LCP_1) /2
        DW	10
        DW	(??monitor_event_LCP_29) /2
        DW	(??monitor_event_LCP_39) /2
        DW	(??monitor_event_LCP_47) /2
        DW	(??monitor_event_LCP_53) /2
        DW	(??monitor_event_LCP_56) /2
        DW	(??monitor_event_LCP_62) /2
        DW	(??monitor_event_LCP_65) /2
        DW	(??monitor_event_LCP_72) /2
        DW	(??monitor_event_LCP_73) /2
        DW	(??monitor_event_LCP_72) /2

        RSEG SWITCH:CODE:NOROOT(1)
`?<Jumptable for run_ipcp_act>_0`:
        DB	0
        DB	0
        DW	(??run_ipcp_act_3) /2
        DW	12
        DW	(??run_ipcp_act_0) /2
        DW	(??run_ipcp_act_4) /2
        DW	(??run_ipcp_act_6) /2
        DW	(??run_ipcp_act_6) /2
        DW	(??run_ipcp_act_7) /2
        DW	(??run_ipcp_act_8) /2
        DW	(??run_ipcp_act_9) /2
        DW	(??run_ipcp_act_11) /2
        DW	(??run_ipcp_act_16) /2
        DW	(??run_ipcp_act_23) /2
        DW	(??run_ipcp_act_24) /2
        DW	(??run_ipcp_act_25) /2

        RSEG SWITCH:CODE:NOROOT(1)
`?<Jumptable for monitor_event_IPCP>_0`:
        DB	6
        DB	0
        DW	(??monitor_event_IPCP_1) /2
        DW	10
        DW	(??monitor_event_IPCP_29) /2
        DW	(??monitor_event_IPCP_38) /2
        DW	(??monitor_event_IPCP_46) /2
        DW	(??monitor_event_IPCP_52) /2
        DW	(??monitor_event_IPCP_55) /2
        DW	(??monitor_event_IPCP_61) /2
        DW	(??monitor_event_IPCP_64) /2
        DW	(??monitor_event_IPCP_71) /2
        DW	(??monitor_event_IPCP_72) /2
        DW	(??monitor_event_IPCP_71) /2

        END
// 4839 
// 
//      8 bytes in segment ABSOLUTE
// 14 118 bytes in segment CODE
//      7 bytes in segment INITTAB
//    610 bytes in segment NEAR_F
//    348 bytes in segment NEAR_Z
//    112 bytes in segment SWITCH
// 
// 14 840 bytes of CODE memory (+ 7 bytes shared)
//    348 bytes of DATA memory (+ 8 bytes shared)
//
//Errors: none
//Warnings: none
