##############################################################################
#                                                                            #
#                                                      07/Aug/2007  12:13:18 #
# IAR Atmel AVR C/C++ Compiler V4.12A/W32, Evaluation Version                #
# Copyright 1996-2005 IAR Systems. All rights reserved.                      #
#                                                                            #
#    Source file  =  D:\PRJIAR\KP7(260707)\fram.c                            #
#    Command line =  "D:\PRJIAR\KP7(260707)\fram.c" --cpu=m1280 -ms -o       #
#                    "D:\PRJIAR\KP7(260707)\Debug\Obj\" -lCN                 #
#                    "D:\PRJIAR\KP7(260707)\Debug\List\" -y                  #
#                    --initializers_in_flash -z6 --no_inline                 #
#                    --no_cross_call --no_tbaa --debug -e -I "D:\Program     #
#                    Files\IAR Systems\Embedded Workbench 4.0                #
#                    Evaluation\avr\INC\" -I "D:\Program Files\IAR           #
#                    Systems\Embedded Workbench 4.0                          #
#                    Evaluation\avr\INC\DLIB\" --eeprom_size 4096            #
#                    --dlib_config "D:\Program Files\IAR Systems\Embedded    #
#                    Workbench 4.0 Evaluation\avr\LIB\DLIB\dlAVR-3s-ec-n.h"  #
#    List file    =  D:\PRJIAR\KP7(260707)\Debug\List\fram.lst               #
#    Object file  =  D:\PRJIAR\KP7(260707)\Debug\Obj\fram.r90                #
#                                                                            #
#                                                                            #
##############################################################################

D:\PRJIAR\KP7(260707)\fram.c
      1          #include <iom1280.h> 

   \                                 In segment ABSOLUTE, at 0x2b
   \   union <unnamed> volatile __io _A_PORTD
   \                     _A_PORTD:
   \   00000000                      DS 1

   \                                 In segment ABSOLUTE, at 0x2a
   \   union <unnamed> volatile __io _A_DDRD
   \                     _A_DDRD:
   \   00000000                      DS 1

   \                                 In segment ABSOLUTE, at 0x29
   \   union <unnamed> volatile __io _A_PIND
   \                     _A_PIND:
   \   00000000                      DS 1
      2          #include <inavr.h>
      3          #include "dfpin.h"
      4          
      5          struct
      6                  { // в двоичном коде
      7                    char r_sec;
      8                    char r_min;
      9                    char r_hor;
     10                    char r_day;
     11                    char r_date;
     12                    char r_month;
     13                    char r_year;
     14                    char r_control;

   \                                 In segment NEAR_Z, align 1, keep-with-next
   \   00000000                      REQUIRE `?<Segment init: NEAR_Z>`
     15                  }  real_time; 
   \                     real_time:
   \   00000000                      DS 8
     16          
     17          
     18          

   \                                 In segment CODE, align 2, keep-with-next
     19           void delay_fl(char period)
   \                     delay_fl:
   \                     ??delay_fl_0:
     20               {
     21               bady:
     22               period--;
   \   00000000   950A               DEC     R16
     23               if(period !=0) goto bady;
   \   00000002   F7F1               BRNE    ??delay_fl_0
     24               }
   \   00000004   9508               RET
     25          
     26          

   \                                 In segment CODE, align 2, keep-with-next
     27           void delay_sh(void)
   \                     delay_sh:
     28               {
     29                 char period;
     30               period=10; 
   \   00000000   E00A               LDI     R16, 10
     31               bbbb: 
     32               period--;
   \                     ??delay_sh_0:
   \   00000002   950A               DEC     R16
     33               if(period !=0) goto bbbb;
   \   00000004   F7F1               BRNE    ??delay_sh_0
     34               } 
   \   00000006   9508               RET
     35           
     36           /*
     37          void delay_sh(void)
     38               {
     39               __no_operation();
     40               __no_operation();
     41               __no_operation();
     42               __no_operation();
     43               __no_operation();
     44               __no_operation();
     45               __no_operation();
     46               __no_operation();
     47               __no_operation();
     48               __no_operation();
     49               __no_operation();
     50               __no_operation();
     51               __no_operation();
     52               __no_operation();
     53               __no_operation();
     54               __no_operation();
     55               __no_operation();
     56               __no_operation();
     57               __no_operation();
     58               __no_operation();
     59               }
     60           */
     61          
     62          //!!!!!!!!!!!!!!!!!!!!!!!!!!!!!!!!!!!!!!!!!!!!!!!!!!!!!!!!!!!!!!!!!!!!!!!!!!!!!!!!!!!!!!!!
     63          ///////////////////////////////  функции для работы с последовательной флеш

   \                                 In segment CODE, align 2, keep-with-next
     64          void start_cond(void)   
   \                     start_cond:
     65            {
     66             SET_SCL;
   \   00000000   9A58               SBI     0x0B, 0x00
     67             SET_SDA;
   \   00000002   9A59               SBI     0x0B, 0x01
     68             SDA_OUT;
   \   00000004   9A51               SBI     0x0A, 0x01
     69             delay_fl(12);
   \   00000006   E00C               LDI     R16, 12
   \   00000008   ....               RCALL   delay_fl
     70             CLR_SDA;
   \   0000000A   9859               CBI     0x0B, 0x01
     71             delay_fl(12);
   \   0000000C   E00C               LDI     R16, 12
   \   0000000E   ....               RCALL   delay_fl
     72             CLR_SCL;
   \   00000010   9858               CBI     0x0B, 0x00
     73             delay_fl(12);
   \   00000012   E00C               LDI     R16, 12
   \   00000014   ....               RCALL   delay_fl
     74            }
   \   00000016   9508               RET
     75          
     76          

   \                                 In segment CODE, align 2, keep-with-next
     77            void stop_cond(void)      
   \                     stop_cond:
     78            { 
     79             CLR_SCL; 
   \   00000000   9858               CBI     0x0B, 0x00
     80             CLR_SDA;
   \   00000002   9859               CBI     0x0B, 0x01
     81             SDA_OUT;
   \   00000004   9A51               SBI     0x0A, 0x01
     82             delay_fl(12);
   \   00000006   E00C               LDI     R16, 12
   \   00000008   ....               RCALL   delay_fl
     83             SET_SCL; 
   \   0000000A   9A58               SBI     0x0B, 0x00
     84             delay_fl(12);
   \   0000000C   E00C               LDI     R16, 12
   \   0000000E   ....               RCALL   delay_fl
     85             SET_SDA;
   \   00000010   9A59               SBI     0x0B, 0x01
     86             delay_fl(12);
   \   00000012   E00C               LDI     R16, 12
   \   00000014   ....               RCALL   delay_fl
     87            }
   \   00000016   9508               RET
     88          
     89          
     90          

   \                                 In segment CODE, align 2, keep-with-next
     91            void cloc_scl(void)  
   \                     cloc_scl:
     92            {
     93             CLR_SCL;
   \   00000000   9858               CBI     0x0B, 0x00
     94             delay_sh();
   \   00000002   ....               RCALL   delay_sh
     95             SET_SCL;
   \   00000004   9A58               SBI     0x0B, 0x00
     96             delay_sh();
   \   00000006   ....               RCALL   delay_sh
     97             CLR_SCL;
   \   00000008   9858               CBI     0x0B, 0x00
     98             delay_sh();
   \   0000000A   ....               RCALL   delay_sh
     99            }
   \   0000000C   9508               RET
    100          
    101          

   \                                 In segment CODE, align 2, keep-with-next
    102            void out(char tt)      // записать символ
   \                     `out`:
    103            {
   \   00000000   939A               ST      -Y, R25
   \   00000002   938A               ST      -Y, R24
   \   00000004   2F90               MOV     R25, R16
    104             char i;
    105             for(i=0;i<8;i++)
   \   00000006   E080               LDI     R24, 0
   \   00000008   C004               RJMP    ??out_0
    106              {
    107                if(tt & 0x80)    {SET_SDA;}    
    108                   else  CLR_SDA;     
   \                     ??out_1:
   \   0000000A   9859               CBI     0x0B, 0x01
    109               cloc_scl();
   \                     ??out_2:
   \   0000000C   ....               RCALL   cloc_scl
    110               tt=tt<<1;
   \   0000000E   0F99               LSL     R25
   \   00000010   9583               INC     R24
   \                     ??out_0:
   \   00000012   3088               CPI     R24, 8
   \   00000014   F420               BRCC    ??out_3
   \   00000016   FB97               BST     R25, 7
   \   00000018   F7C6               BRTC    ??out_1
   \   0000001A   9A59               SBI     0x0B, 0x01
   \   0000001C   CFF7               RJMP    ??out_2
    111              }
    112            
    113             SDA_IN;  
   \                     ??out_3:
   \   0000001E   9851               CBI     0x0A, 0x01
    114             SET_SDA;    
   \   00000020   9A59               SBI     0x0B, 0x01
    115             delay_sh();
   \   00000022   ....               RCALL   delay_sh
    116             cloc_scl();
   \   00000024   ....               RCALL   cloc_scl
    117             CLR_SDA; 
   \   00000026   9859               CBI     0x0B, 0x01
    118             SDA_OUT; 
   \   00000028   9A51               SBI     0x0A, 0x01
    119            }
   \   0000002A   9189               LD      R24, Y+
   \   0000002C   9199               LD      R25, Y+
   \   0000002E   9508               RET
    120          
    121          //EEEEEEEEEEEEEEEEEEEEEEEEEEEEEEEEEEEEEEEEEEEEEEEEEEEEEEEEEEEEEEEEEEEEEEEEEEEEEEEEEEEEEEEEEEEEEEEe
    122          
    123          

   \                                 In segment CODE, align 2, keep-with-next
    124          char read_byte(void)         
   \                     read_byte:
    125            {
   \   00000000   939A               ST      -Y, R25
   \   00000002   938A               ST      -Y, R24
    126             char i,data; 
    127             SDA_IN;   
   \   00000004   9851               CBI     0x0A, 0x01
    128             SET_SDA; 
   \   00000006   9A59               SBI     0x0B, 0x01
    129             for(i=0;i<8;i++)
   \   00000008   E080               LDI     R24, 0
   \   0000000A   C004               RJMP    ??read_byte_0
    130             {
    131               data=data<<1;
    132               SET_SCL;     
    133               delay_sh();
    134               if(PIND & SDA)   data=data | 0x01;      //+r
    135                  else data=data & ~1;
   \                     ??read_byte_1:
   \   0000000C   7F9E               ANDI    R25, 0xFE
    136               CLR_SCL;              //+r
   \                     ??read_byte_2:
   \   0000000E   9858               CBI     0x0B, 0x00
    137               delay_sh();
   \   00000010   ....               RCALL   delay_sh
   \   00000012   9583               INC     R24
   \                     ??read_byte_0:
   \   00000014   3088               CPI     R24, 8
   \   00000016   F438               BRCC    ??read_byte_3
   \   00000018   0F99               LSL     R25
   \   0000001A   9A58               SBI     0x0B, 0x00
   \   0000001C   ....               RCALL   delay_sh
   \   0000001E   9B49               SBIS    0x09, 0x01
   \   00000020   CFF5               RJMP    ??read_byte_1
   \   00000022   6091               ORI     R25, 0x01
   \   00000024   CFF4               RJMP    ??read_byte_2
    138             }
    139          //
    140          //        при произвольном чтении
    141          //        после приема последнего бита порт на вывод
    142          //        и удерживается в 1 нет подтверждения
    143          //
    144              CLR_SDA; 
   \                     ??read_byte_3:
   \   00000026   9859               CBI     0x0B, 0x01
    145              SDA_OUT;
   \   00000028   9A51               SBI     0x0A, 0x01
    146              cloc_scl();
   \   0000002A   ....               RCALL   cloc_scl
    147              return(data);
   \   0000002C   2F09               MOV     R16, R25
   \   0000002E   9189               LD      R24, Y+
   \   00000030   9199               LD      R25, Y+
   \   00000032   9508               RET
    148            }
    149          
    150          
    151          
    152          
    153          //!!!!!!!!!!!!!!!!!!!!!!!!!!!!!!!!!!!!!!!!!!!!!!!!!!!!!!!!!!!!!!!!!!!!!!!!!!!!!!!!!!!!!!!!!!!!!!!!!!!!!!!!!!!!!!!!!!!!!!!!!!!!!!!!!!!!!!!!!!!!
    154          //Функции работы с реальным временем
    155          
    156           
    157           

   \                                 In segment CODE, align 2, keep-with-next
    158           unsigned long int wd_time_as(void)
   \                     wd_time_as:
    159          { unsigned long int sek_32;
   \   00000000   ........           CALL    ?PROLOGUE12_L09
   \   00000004                      REQUIRE ?Register_R4_is_cg_reg
   \   00000004                      REQUIRE ?Register_R5_is_cg_reg
   \   00000004                      REQUIRE ?Register_R6_is_cg_reg
   \   00000004                      REQUIRE ?Register_R7_is_cg_reg
   \   00000004                      REQUIRE ?Register_R10_is_cg_reg
   \   00000004                      REQUIRE ?Register_R11_is_cg_reg
    160             
    161             
    162             sek_32 = ( ( (unsigned long int)real_time.r_year * 365 ) + (real_time.r_year>>2) );
   \   00000004   ....               LDI     R30, LOW(real_time)
   \   00000006   ....               LDI     R31, (real_time) >> 8
   \   00000008   80A6               LDD     R10, Z+6
   \   0000000A   2D4A               MOV     R20, R10
   \   0000000C   E050               LDI     R21, 0
   \   0000000E   E060               LDI     R22, 0
   \   00000010   E070               LDI     R23, 0
   \   00000012   E60D               LDI     R16, 109
   \   00000014   E011               LDI     R17, 1
   \   00000016   E020               LDI     R18, 0
   \   00000018   E030               LDI     R19, 0
   \   0000001A   ........           CALL    ?L_EC_MUL_L03
   \   0000001E   2C4A               MOV     R4, R10
   \   00000020   9446               LSR     R4
   \   00000022   9446               LSR     R4
   \   00000024   2455               CLR     R5
   \   00000026   2466               CLR     R6
   \   00000028   2477               CLR     R7
   \   0000002A   0E40               ADD     R4, R16
   \   0000002C   1E51               ADC     R5, R17
   \   0000002E   1E62               ADC     R6, R18
   \   00000030   1E73               ADC     R7, R19
   \   00000032   8184               LDD     R24, Z+4
   \   00000034   E090               LDI     R25, 0
   \   00000036   E0A0               LDI     R26, 0
   \   00000038   80B5               LDD     R11, Z+5
   \   0000003A   2D0B               MOV     R16, R11
   \   0000003C   ....               LDI     R30, LOW(`?<Jumptable for wd_time_as>_0`)
   \   0000003E   ....               LDI     R31, (`?<Jumptable for wd_time_as>_0`) >> 16
   \   00000040   BFFB               OUT     0x3B, R31
   \   00000042   ....               LDI     R31, HIGH(`?<Jumptable for wd_time_as>_0`)
   \   00000044   ........           JMP     ?CV_SWITCH_L06
    163             
    164               switch ( real_time.r_month )
    165                   {
    166                    case 1: sek_32 = (sek_32 + real_time.r_date); break;
   \                     ??wd_time_as_0:
   \   00000048   0E48               ADD     R4, R24
   \   0000004A   1E59               ADC     R5, R25
   \   0000004C   1E69               ADC     R6, R25
   \   0000004E   1E79               ADC     R7, R25
   \   00000050   C01B               RJMP    ??wd_time_as_1
    167                    case 2: sek_32 = (sek_32 + real_time.r_date + 31); break;
   \                     ??wd_time_as_2:
   \   00000052   5E81               SUBI    R24, 225
   \                     ??wd_time_as_3:
   \   00000054   4F9F               SBCI    R25, 255
   \   00000056   C014               RJMP    ??wd_time_as_4
    168                    case 3: sek_32 = (sek_32 + real_time.r_date + 59); break;
   \                     ??wd_time_as_5:
   \   00000058   5C85               SUBI    R24, 197
   \   0000005A   CFFC               RJMP    ??wd_time_as_3
    169                    case 4: sek_32 = (sek_32 + real_time.r_date + 90); break;
   \                     ??wd_time_as_6:
   \   0000005C   5A86               SUBI    R24, 166
   \   0000005E   CFFA               RJMP    ??wd_time_as_3
    170                    case 5: sek_32 = (sek_32 + real_time.r_date + 120); break;
   \                     ??wd_time_as_7:
   \   00000060   5888               SUBI    R24, 136
   \   00000062   CFF8               RJMP    ??wd_time_as_3
    171                    case 6: sek_32 = (sek_32 + real_time.r_date + 151); break;
   \                     ??wd_time_as_8:
   \   00000064   5689               SUBI    R24, 105
   \   00000066   CFF6               RJMP    ??wd_time_as_3
    172                    case 7: sek_32 = (sek_32 + real_time.r_date + 181); break;
   \                     ??wd_time_as_9:
   \   00000068   548B               SUBI    R24, 75
   \   0000006A   CFF4               RJMP    ??wd_time_as_3
    173                    case 8: sek_32 = (sek_32 + real_time.r_date + 212); break;
   \                     ??wd_time_as_10:
   \   0000006C   528C               SUBI    R24, 44
   \   0000006E   CFF2               RJMP    ??wd_time_as_3
    174                    case 9: sek_32 = (sek_32 + real_time.r_date + 243); break;
   \                     ??wd_time_as_11:
   \   00000070   508D               SUBI    R24, 13
   \   00000072   CFF0               RJMP    ??wd_time_as_3
    175                    case 10: sek_32 = (sek_32 + real_time.r_date + 273); break;
   \                     ??wd_time_as_12:
   \   00000074   5E8F               SUBI    R24, 239
   \   00000076   C003               RJMP    ??wd_time_as_13
    176                    case 11: sek_32 = (sek_32 + real_time.r_date + 304); break;
   \                     ??wd_time_as_14:
   \   00000078   5D80               SUBI    R24, 208
   \   0000007A   C001               RJMP    ??wd_time_as_13
    177                    case 12: sek_32 = (sek_32 + real_time.r_date + 334); break;
   \                     ??wd_time_as_15:
   \   0000007C   5B82               SUBI    R24, 178
   \                     ??wd_time_as_13:
   \   0000007E   4F9E               SBCI    R25, 254
   \                     ??wd_time_as_4:
   \   00000080   0E48               ADD     R4, R24
   \   00000082   1E59               ADC     R5, R25
   \   00000084   1E6A               ADC     R6, R26
   \   00000086   1E7A               ADC     R7, R26
    178                    default:
    179                    sek_32 = (sek_32 + real_time.r_date);
    180                   }
    181              if ( (real_time.r_year & 0x03) == 0 )
   \                     ??wd_time_as_1:
   \   00000088   E003               LDI     R16, 3
   \   0000008A   22A0               AND     R10, R16
   \   0000008C   F439               BRNE    ??wd_time_as_16
    182                   {
    183                    if (real_time.r_month < 3) sek_32--;
   \   0000008E   16B0               CP      R11, R16
   \   00000090   F428               BRCC    ??wd_time_as_16
   \   00000092   EF0F               LDI     R16, 255
   \   00000094   0E40               ADD     R4, R16
   \   00000096   1E50               ADC     R5, R16
   \   00000098   1E60               ADC     R6, R16
   \   0000009A   1E70               ADC     R7, R16
    184                   }
    185           // sek_32 = ((sek_32 * 86400)+((unsigned long int)real_time.r_hor * 3600)+((unsigned long int)real_time.r_min * 60)+real_time.r_sec + 946684800);
    186           
    187              sek_32 = ((sek_32 * 86400)+((unsigned long int)real_time.r_hor * 3600)+((unsigned long int)real_time.r_min * 60)+real_time.r_sec);
    188           // cek_Unix_2000 = 946684800   
    189              return sek_32;
   \                     ??wd_time_as_16:
   \   0000009C   01A2               MOVW    R21:R20, R5:R4
   \   0000009E   01B3               MOVW    R23:R22, R7:R6
   \   000000A0   E800               LDI     R16, 128
   \   000000A2   E511               LDI     R17, 81
   \   000000A4   E021               LDI     R18, 1
   \   000000A6   E030               LDI     R19, 0
   \   000000A8   ........           CALL    ?L_EC_MUL_L03
   \   000000AC   01C8               MOVW    R25:R24, R17:R16
   \   000000AE   01D9               MOVW    R27:R26, R19:R18
   \   000000B0   ....               LDI     R30, LOW(real_time)
   \   000000B2   ....               LDI     R31, (real_time) >> 8
   \   000000B4   8142               LDD     R20, Z+2
   \   000000B6   E050               LDI     R21, 0
   \   000000B8   E060               LDI     R22, 0
   \   000000BA   E070               LDI     R23, 0
   \   000000BC   E100               LDI     R16, 16
   \   000000BE   E01E               LDI     R17, 14
   \   000000C0   E020               LDI     R18, 0
   \   000000C2   E030               LDI     R19, 0
   \   000000C4   ........           CALL    ?L_EC_MUL_L03
   \   000000C8   0F08               ADD     R16, R24
   \   000000CA   1F19               ADC     R17, R25
   \   000000CC   1F2A               ADC     R18, R26
   \   000000CE   1F3B               ADC     R19, R27
   \   000000D0   01C8               MOVW    R25:R24, R17:R16
   \   000000D2   01D9               MOVW    R27:R26, R19:R18
   \   000000D4   8141               LDD     R20, Z+1
   \   000000D6   E30C               LDI     R16, 60
   \   000000D8   E010               LDI     R17, 0
   \   000000DA   E020               LDI     R18, 0
   \   000000DC   E030               LDI     R19, 0
   \   000000DE   ........           CALL    ?L_EC_MUL_L03
   \   000000E2   0F08               ADD     R16, R24
   \   000000E4   1F19               ADC     R17, R25
   \   000000E6   1F2A               ADC     R18, R26
   \   000000E8   1F3B               ADC     R19, R27
   \   000000EA   8140               LD      R20, Z
   \   000000EC   0F40               ADD     R20, R16
   \   000000EE   1F51               ADC     R21, R17
   \   000000F0   1F62               ADC     R22, R18
   \   000000F2   1F73               ADC     R23, R19
   \   000000F4   018A               MOVW    R17:R16, R21:R20
   \   000000F6   019B               MOVW    R19:R18, R23:R22
   \   000000F8   E0EC               LDI     R30, 12
   \   000000FA   ........           JMP     ?EPILOGUE_B12_L09
    190          } 
    191          
    192          
    193          
    194          

   \                                 In segment CODE, align 2, keep-with-next
    195          char daa_to_hex(char b)
   \                     daa_to_hex:
    196          {
    197          return( (b & 0xf) + ((b>>4)*10) );
   \   00000000   2F10               MOV     R17, R16
   \   00000002   701F               ANDI    R17, 0x0F
   \   00000004   9502               SWAP    R16
   \   00000006   700F               ANDI    R16, 0x0F
   \   00000008   E02A               LDI     R18, 10
   \   0000000A   9F02               MUL     R16, R18
   \   0000000C   2D00               MOV     R16, R0
   \   0000000E   0F01               ADD     R16, R17
   \   00000010   9508               RET
    198          }
    199          

   \                                 In segment CODE, align 2, keep-with-next
    200          char hex_to_daa(char b)
   \                     hex_to_daa:
    201          {
   \   00000000   2F19               MOV     R17, R25
   \   00000002   2F28               MOV     R18, R24
   \   00000004   2F90               MOV     R25, R16
    202          return( ((b/10)<<4) + (b%10) );
   \   00000006   E04A               LDI     R20, 10
   \   00000008   ........           CALL    ?UC_DIVMOD_L01
   \   0000000C   2F80               MOV     R24, R16
   \   0000000E   9582               SWAP    R24
   \   00000010   7F80               ANDI    R24, 0xF0
   \   00000012   2F09               MOV     R16, R25
   \   00000014   E04A               LDI     R20, 10
   \   00000016   ........           CALL    ?UC_DIVMOD_L01
   \   0000001A   2F04               MOV     R16, R20
   \   0000001C   0F08               ADD     R16, R24
   \   0000001E   2F82               MOV     R24, R18
   \   00000020   2F91               MOV     R25, R17
   \   00000022   9508               RET
    203          }   
    204           
    205          

   \                                 In segment CODE, align 2, keep-with-next
    206          void set_rlt_poi(void)
   \                     set_rlt_poi:
    207            {
    208             start_cond();
   \   00000000   ....               RCALL   start_cond
    209             out(0xd0);
   \   00000002   ED00               LDI     R16, 208
   \   00000004   ....               RCALL   `out`
    210             out(2);
   \   00000006   E002               LDI     R16, 2
   \   00000008   ....               RCALL   `out`
    211             stop_cond();
   \   0000000A   ....               RCALL   stop_cond
    212            } 
   \   0000000C   9508               RET
    213          

   \                                 In segment CODE, align 2, keep-with-next
    214          void write_byte_rlt(char adres, char data)
   \                     write_byte_rlt:
    215            { 
   \   00000000   939A               ST      -Y, R25
   \   00000002   938A               ST      -Y, R24
   \   00000004   2F90               MOV     R25, R16
   \   00000006   2F81               MOV     R24, R17
    216             start_cond();
   \   00000008   ....               RCALL   start_cond
    217             out(0xd0);
   \   0000000A   ED00               LDI     R16, 208
   \   0000000C   ....               RCALL   `out`
    218             out(adres);
   \   0000000E   2F09               MOV     R16, R25
   \   00000010   ....               RCALL   `out`
    219             out(data);
   \   00000012   2F08               MOV     R16, R24
   \   00000014   ....               RCALL   `out`
    220             stop_cond();
   \   00000016   ....               RCALL   stop_cond
    221            }
   \   00000018   9189               LD      R24, Y+
   \   0000001A   9199               LD      R25, Y+
   \   0000001C   9508               RET
    222          

   \                                 In segment CODE, align 2, keep-with-next
    223          char read_byte_rlt(char adres)
   \                     read_byte_rlt:
    224          {
   \   00000000   938A               ST      -Y, R24
   \   00000002   2F80               MOV     R24, R16
    225             char data;
    226             start_cond();
   \   00000004   ....               RCALL   start_cond
    227             out(0xd0);
   \   00000006   ED00               LDI     R16, 208
   \   00000008   ....               RCALL   `out`
    228             out(adres);
   \   0000000A   2F08               MOV     R16, R24
   \   0000000C   ....               RCALL   `out`
    229             start_cond();
   \   0000000E   ....               RCALL   start_cond
    230             out(0xd1);
   \   00000010   ED01               LDI     R16, 209
   \   00000012   ....               RCALL   `out`
    231             data=read_byte();
   \   00000014   ....               RCALL   read_byte
   \   00000016   2F80               MOV     R24, R16
    232             stop_cond();
   \   00000018   ....               RCALL   stop_cond
    233             return(data);
   \   0000001A   2F08               MOV     R16, R24
   \   0000001C   9189               LD      R24, Y+
   \   0000001E   9508               RET
    234          }   
    235             
    236          

   \                                 In segment CODE, align 2, keep-with-next
    237          void start_rlt(void)
   \                     start_rlt:
    238            {
    239            char data;
    240            data=read_byte_rlt(1);
   \   00000000   E001               LDI     R16, 1
   \   00000002   ....               RCALL   read_byte_rlt
    241            write_byte_rlt(1, data & ~0x80); 
   \   00000004   770F               ANDI    R16, 0x7F
   \   00000006   2F10               MOV     R17, R16
   \   00000008   E001               LDI     R16, 1
   \   0000000A   ....               RCALL   write_byte_rlt
    242            }  
   \   0000000C   9508               RET
    243          
    244          

   \                                 In segment CODE, align 2, keep-with-next
    245          unsigned long int burst_ds_r(void)
   \                     burst_ds_r:
    246            {                                                   
   \   00000000   ........           CALL    ?PROLOGUE4_L09
    247             char j,data, *time_keeper;
    248             time_keeper=(  char*)&real_time;         
   \   00000004   ....               LDI     R26, LOW(real_time)
   \   00000006   ....               LDI     R27, (real_time) >> 8
    249             write_byte_rlt(0, 1);  // lock timer
   \   00000008   E011               LDI     R17, 1
   \   0000000A   E000               LDI     R16, 0
   \   0000000C   ....               RCALL   write_byte_rlt
    250             set_rlt_poi(); 
   \   0000000E   ....               RCALL   set_rlt_poi
    251             start_cond();
   \   00000010   ....               RCALL   start_cond
    252             out(0xd1);
   \   00000012   ED01               LDI     R16, 209
   \   00000014   ....               RCALL   `out`
    253               for(j=0;j<7;j++)
   \   00000016   E080               LDI     R24, 0
   \   00000018   C005               RJMP    ??burst_ds_r_0
    254               {
    255               data=read_byte();
   \                     ??burst_ds_r_1:
   \   0000001A   ....               RCALL   read_byte
    256               *time_keeper++=daa_to_hex(data & 0x7f);
   \   0000001C   770F               ANDI    R16, 0x7F
   \   0000001E   ....               RCALL   daa_to_hex
   \   00000020   930D               ST      X+, R16
    257               }
   \   00000022   9583               INC     R24
   \                     ??burst_ds_r_0:
   \   00000024   3087               CPI     R24, 7
   \   00000026   F3C8               BRCS    ??burst_ds_r_1
    258               
    259             stop_cond();
   \   00000028   ....               RCALL   stop_cond
    260             write_byte_rlt(0, 0);  // unlock timer  
   \   0000002A   E010               LDI     R17, 0
   \   0000002C   E000               LDI     R16, 0
   \   0000002E   ....               RCALL   write_byte_rlt
    261            return(0);
   \   00000030   E000               LDI     R16, 0
   \   00000032   E010               LDI     R17, 0
   \   00000034   E020               LDI     R18, 0
   \   00000036   E030               LDI     R19, 0
   \   00000038   E0E4               LDI     R30, 4
   \   0000003A   ........           JMP     ?EPILOGUE_B4_L09
    262             // return (wd_time_as());
    263           //  unix= wd_time_as();
    264            }
    265          
    266          
    267          
    268          

   \                                 In segment CODE, align 2, keep-with-next
    269          void set_rlt(char address, char * data)
   \                     set_rlt:
    270            {                      
   \   00000000   ........           CALL    ?PROLOGUE4_L09
   \   00000004   2F80               MOV     R24, R16
   \   00000006   01D9               MOVW    R27:R26, R19:R18
    271             write_byte_rlt(0, 2);  // lock timer
   \   00000008   E012               LDI     R17, 2
   \   0000000A   E000               LDI     R16, 0
   \   0000000C   ....               RCALL   write_byte_rlt
    272           //  old_unix1=unix;
    273                 
    274             //////////////////////////////// 
    275             start_cond();
   \   0000000E   ....               RCALL   start_cond
    276             out(0xd0);
   \   00000010   ED00               LDI     R16, 208
   \   00000012   ....               RCALL   `out`
    277             out(address);    
   \   00000014   2F08               MOV     R16, R24
   \   00000016   ....               RCALL   `out`
    278             out(hex_to_daa(*data++));
   \   00000018   910D               LD      R16, X+
   \   0000001A   ....               RCALL   hex_to_daa
   \   0000001C   ....               RCALL   `out`
    279             out(hex_to_daa(*data++));
   \   0000001E   910D               LD      R16, X+
   \   00000020   ....               RCALL   hex_to_daa
   \   00000022   ....               RCALL   `out`
    280             out(hex_to_daa(*data++));
   \   00000024   910D               LD      R16, X+
   \   00000026   ....               RCALL   hex_to_daa
   \   00000028   ....               RCALL   `out`
    281             out(0);
   \   0000002A   E000               LDI     R16, 0
   \   0000002C   ....               RCALL   `out`
    282             out(hex_to_daa(*data++));
   \   0000002E   910D               LD      R16, X+
   \   00000030   ....               RCALL   hex_to_daa
   \   00000032   ....               RCALL   `out`
    283             out(hex_to_daa(*data++));
   \   00000034   910C               LD      R16, X
   \   00000036   ....               RCALL   hex_to_daa
   \   00000038   ....               RCALL   `out`
    284             out(hex_to_daa(*data++));           
   \   0000003A   9611               ADIW    R27:R26, 1
   \   0000003C   910C               LD      R16, X
   \   0000003E   ....               RCALL   hex_to_daa
   \   00000040   ....               RCALL   `out`
    285             stop_cond();       
   \   00000042   ....               RCALL   stop_cond
    286             write_byte_rlt(0, 0);  // update timer
   \   00000044   E010               LDI     R17, 0
   \   00000046   E000               LDI     R16, 0
   \   00000048   ....               RCALL   write_byte_rlt
    287              
    288           // записали правильно   
    289          /*     
    290              burst_ds_r();
    291              unix= wd_time_as(); 
    292              
    293             if (old_unix1 > unix )
    294             
    295                                 {
    296                                 if (( old_unix1 - unix) < 600 ) return;
    297                                 }
    298           
    299             else 
    300                                {
    301                                 if (( unix - old_unix1) < 600 ) return;
    302                                 }
    303           
    304              
    305             
    306            {
    307               bit_level=1;
    308               if ( sost_psm==4)bit_level_psm=1; 
    309             }              
    310                               
    311           */    
    312            
    313            } 
   \   0000004A   E0E4               LDI     R30, 4
   \   0000004C   ........           JMP     ?EPILOGUE_B4_L09
    314          

   \                                 In segment CODE, align 2, keep-with-next
    315          void start_time(void)
   \                     start_time:
    316          {
    317            stop_cond();
   \   00000000   ....               RCALL   stop_cond
    318            delay_fl(200);
   \   00000002   EC08               LDI     R16, 200
   \   00000004   ....               RCALL   delay_fl
    319            stop_cond();
   \   00000006   ....               RCALL   stop_cond
    320            start_rlt();
   \   00000008   ....               RCALL   start_rlt
    321          }
   \   0000000A   9508               RET

   \                                 In segment SWITCH, align 2, keep-with-next
   \                     `?<Jumptable for wd_time_as>_0`:
   \   00000000   02                 DB      2
   \   00000001   00                 DB      0
   \   00000002   ....               DW      (??wd_time_as_0) /2
   \   00000004   000B               DW      11
   \   00000006   ....               DW      (??wd_time_as_2) /2
   \   00000008   ....               DW      (??wd_time_as_5) /2
   \   0000000A   ....               DW      (??wd_time_as_6) /2
   \   0000000C   ....               DW      (??wd_time_as_7) /2
   \   0000000E   ....               DW      (??wd_time_as_8) /2
   \   00000010   ....               DW      (??wd_time_as_9) /2
   \   00000012   ....               DW      (??wd_time_as_10) /2
   \   00000014   ....               DW      (??wd_time_as_11) /2
   \   00000016   ....               DW      (??wd_time_as_12) /2
   \   00000018   ....               DW      (??wd_time_as_14) /2
   \   0000001A   ....               DW      (??wd_time_as_15) /2
    322          
    323          

   Maximum stack usage in bytes:

     Function            CSTACK RSTACK
     --------            ------ ------
     burst_ds_r              4      2
       -> write_byte_rlt     4      2
       -> set_rlt_poi        4      2
       -> start_cond         4      2
       -> out                4      2
       -> read_byte          4      2
       -> daa_to_hex         4      2
       -> stop_cond          4      2
       -> write_byte_rlt     4      2
     cloc_scl                0      2
       -> delay_sh           0      2
       -> delay_sh           0      2
       -> delay_sh           0      2
     daa_to_hex              0      2
     delay_fl                0      2
     delay_sh                0      2
     hex_to_daa              2      4
     out                     2      2
       -> cloc_scl           2      2
       -> delay_sh           2      2
       -> cloc_scl           2      2
     read_byte               2      2
       -> delay_sh           2      2
       -> delay_sh           2      2
       -> cloc_scl           2      2
     read_byte_rlt           1      2
       -> start_cond         1      2
       -> out                1      2
       -> out                1      2
       -> start_cond         1      2
       -> out                1      2
       -> read_byte          1      2
       -> stop_cond          1      2
     set_rlt                 4      2
       -> write_byte_rlt     4      2
       -> start_cond         4      2
       -> out                4      2
       -> out                4      2
       -> hex_to_daa         4      2
       -> out                4      2
       -> hex_to_daa         4      2
       -> out                4      2
       -> hex_to_daa         4      2
       -> out                4      2
       -> out                4      2
       -> hex_to_daa         4      2
       -> out                4      2
       -> hex_to_daa         4      2
       -> out                4      2
       -> hex_to_daa         4      2
       -> out                4      2
       -> stop_cond          4      2
       -> write_byte_rlt     4      2
     set_rlt_poi             0      2
       -> start_cond         0      2
       -> out                0      2
       -> out                0      2
       -> stop_cond          0      2
     start_cond              0      2
       -> delay_fl           0      2
       -> delay_fl           0      2
       -> delay_fl           0      2
     start_rlt               0      2
       -> read_byte_rlt      0      2
       -> write_byte_rlt     0      2
     start_time              0      2
       -> stop_cond          0      2
       -> delay_fl           0      2
       -> stop_cond          0      2
       -> start_rlt          0      2
     stop_cond               0      2
       -> delay_fl           0      2
       -> delay_fl           0      2
       -> delay_fl           0      2
     wd_time_as             12      4
     write_byte_rlt          2      2
       -> start_cond         2      2
       -> out                2      2
       -> out                2      2
       -> out                2      2
       -> stop_cond          2      2


   Segment part sizes:

     Function/Label                Bytes
     --------------                -----
     _A_PORTD                         1
     _A_DDRD                          1
     _A_PIND                          1
     real_time                        8
     ??delay_fl_0                     6
     delay_sh                         8
     start_cond                      24
     stop_cond                       24
     cloc_scl                        14
     out                             48
     read_byte                       52
     wd_time_as                     254
     daa_to_hex                      18
     hex_to_daa                      36
     set_rlt_poi                     14
     write_byte_rlt                  30
     read_byte_rlt                   32
     start_rlt                       14
     burst_ds_r                      62
     set_rlt                         80
     start_time                      12
     ?<Jumptable for wd_time_as>_0   28
      Others                          7

 
   3 bytes in segment ABSOLUTE
 728 bytes in segment CODE
   7 bytes in segment INITTAB
   8 bytes in segment NEAR_Z
  28 bytes in segment SWITCH
 
 756 bytes of CODE memory (+ 7 bytes shared)
   8 bytes of DATA memory (+ 3 bytes shared)

Errors: none
Warnings: none
