//////////////////////////////////////////////////////////////////////////////
//                                                                           /
//                                                     04/Sep/2007  10:34:55 /
// IAR Atmel AVR C/C++ Compiler V4.12A/W32, Evaluation Version               /
// Copyright 1996-2005 IAR Systems. All rights reserved.                     /
//                                                                           /
//    Source file  =  D:\PRJIAR\KP7(260707)\interr.c                         /
//    Command line =  "D:\PRJIAR\KP7(260707)\interr.c" --cpu=m1280 -ms -o    /
//                    "D:\PRJIAR\KP7(260707)\Debug\Obj\" -lCN                /
//                    "D:\PRJIAR\KP7(260707)\Debug\List\" -lA                /
//                    "D:\PRJIAR\KP7(260707)\Debug\List\" -y                 /
//                    --initializers_in_flash -z6 --no_inline                /
//                    --no_cross_call --no_tbaa --debug -e -I "D:\Program    /
//                    Files\IAR Systems\Embedded Workbench 4.0               /
//                    Evaluation\avr\INC\" -I "D:\Program Files\IAR          /
//                    Systems\Embedded Workbench 4.0                         /
//                    Evaluation\avr\INC\DLIB\" --eeprom_size 4096           /
//                    --dlib_config "D:\Program Files\IAR Systems\Embedded   /
//                    Workbench 4.0 Evaluation\avr\LIB\DLIB\dlAVR-3s-ec-n.h" /
//    List file    =  D:\PRJIAR\KP7(260707)\Debug\List\interr.s90            /
//                                                                           /
//                                                                           /
//////////////////////////////////////////////////////////////////////////////

        NAME interr

        RTMODEL "__64bit_doubles", "disabled"
        RTMODEL "__cpu", "3"
        RTMODEL "__cpu_name", "ATmega1280"
        RTMODEL "__enhanced_core", "enabled"
        RTMODEL "__has_elpm", "true"
        RTMODEL "__memory_model", "2"
        RTMODEL "__no_rampd", "enabled"
        RTMODEL "__rt_version", "3"

        RSEG CSTACK:DATA:NOROOT(0)
        RSEG RSTACK:DATA:NOROOT(0)

        EXTERN ?Register_R4_is_cg_reg
        EXTERN ?Register_R5_is_cg_reg
        EXTERN ?UL_SHR_L03
        EXTERN ?need_segment_init

        PUBWEAK `?<Segment init: NEAR_Z>`
        PUBWEAK `??ADC_interrupt??INTVEC 116`
        PUBWEAK `??TIMER0_COMPA_interrupt??INTVEC 84`
        PUBWEAK `??TIMER2_COMPA_interrupt??INTVEC 52`
        PUBWEAK `??TIMER3_COMPA_interrupt??INTVEC 128`
        PUBWEAK `??USART0_RX_interrupt??INTVEC 100`
        PUBWEAK `??USART0_TX_interrupt??INTVEC 108`
        PUBWEAK `??USART1_RX_interrupt??INTVEC 144`
        PUBWEAK `??USART1_UDRE_interrupt??INTVEC 148`
        PUBWEAK `??USART2_RX_interrupt??INTVEC 204`
        PUBWEAK `??USART2_UDRE_interrupt??INTVEC 208`
        PUBWEAK `??USART3_RX_interrupt??INTVEC 216`
        PUBWEAK `??USART3_UDRE_interrupt??INTVEC 220`
        PUBLIC ADC_interrupt
        FUNCTION ADC_interrupt,0233H
        LOCFRAME CSTACK, 12, STACK
        LOCFRAME RSTACK, 4, STACK
        PUBLIC Rs232_2
        PUBLIC Rs232_2_buf_rx_tx
        PUBLIC Rs485_1
        PUBLIC Rs485_1_buf_rx_tx
        PUBLIC Rs485_2
        PUBLIC Rs485_2_buf_rx_tx
        PUBLIC TIMER0_COMPA_interrupt
        FUNCTION TIMER0_COMPA_interrupt,0233H
        LOCFRAME CSTACK, 6, STACK
        LOCFRAME RSTACK, 2, STACK
        PUBLIC TIMER2_COMPA_interrupt
        FUNCTION TIMER2_COMPA_interrupt,021233H
        LOCFRAME CSTACK, 20, STACK
        LOCFRAME RSTACK, 2, STACK
        PUBLIC TIMER3_COMPA_interrupt
        FUNCTION TIMER3_COMPA_interrupt,021233H
        LOCFRAME CSTACK, 18, STACK
        LOCFRAME RSTACK, 2, STACK
        PUBLIC USART0_RX_interrupt
        FUNCTION USART0_RX_interrupt,021233H
        LOCFRAME CSTACK, 18, STACK
        LOCFRAME RSTACK, 2, STACK
        PUBLIC USART0_TX_interrupt
        FUNCTION USART0_TX_interrupt,021233H
        LOCFRAME CSTACK, 16, STACK
        LOCFRAME RSTACK, 2, STACK
        PUBLIC USART1_RX_interrupt
        FUNCTION USART1_RX_interrupt,0233H
        LOCFRAME CSTACK, 10, STACK
        LOCFRAME RSTACK, 2, STACK
        PUBLIC USART1_UDRE_interrupt
        FUNCTION USART1_UDRE_interrupt,0233H
        LOCFRAME CSTACK, 8, STACK
        LOCFRAME RSTACK, 2, STACK
        PUBLIC USART2_RX_interrupt
        FUNCTION USART2_RX_interrupt,0233H
        LOCFRAME CSTACK, 10, STACK
        LOCFRAME RSTACK, 2, STACK
        PUBLIC USART2_UDRE_interrupt
        FUNCTION USART2_UDRE_interrupt,0233H
        LOCFRAME CSTACK, 8, STACK
        LOCFRAME RSTACK, 2, STACK
        PUBLIC USART3_RX_interrupt
        FUNCTION USART3_RX_interrupt,0233H
        LOCFRAME CSTACK, 10, STACK
        LOCFRAME RSTACK, 2, STACK
        PUBLIC USART3_UDRE_interrupt
        FUNCTION USART3_UDRE_interrupt,0233H
        LOCFRAME CSTACK, 8, STACK
        LOCFRAME RSTACK, 2, STACK
        PUBWEAK _A_ADC
        PUBWEAK _A_ADCSRA
        PUBWEAK _A_PINE
        PUBWEAK _A_PING
        PUBWEAK _A_PORTC
        PUBWEAK _A_PORTD
        PUBWEAK _A_PORTH
        PUBWEAK _A_PORTJ
        PUBWEAK _A_UCSR0B
        PUBWEAK _A_UCSR1B
        PUBWEAK _A_UCSR2B
        PUBWEAK _A_UCSR3B
        PUBWEAK _A_UDR0
        PUBWEAK _A_UDR1
        PUBWEAK _A_UDR2
        PUBWEAK _A_UDR3
        PUBWEAK __?EEARH
        PUBWEAK __?EEARL
        PUBWEAK __?EECR
        PUBWEAK __?EEDR
        PUBLIC cnt_clr_wdt
        PUBLIC cnt_flag_out
        PUBLIC fl_232_2
        PUBLIC fl_485_1
        PUBLIC fl_485_2
        PUBLIC fl_rx_ppp
        PUBLIC recive_buf1
        FUNCTION recive_buf1,0203H
        LOCFRAME RSTACK, 2, STACK
        PUBLIC recive_buf2
        FUNCTION recive_buf2,0203H
        LOCFRAME RSTACK, 2, STACK
        PUBLIC sending_ppp_pac
        FUNCTION sending_ppp_pac,0203H
        LOCFRAME RSTACK, 2, STACK
        PUBLIC sending_ppp_proverka
        FUNCTION sending_ppp_proverka,0203H
        LOCFRAME RSTACK, 2, STACK
        PUBLIC struct_tcc1
        
        CFI Names cfiNames0
        CFI StackFrame CFA_Y Y DATA
        CFI StackFrame CFA_SP SP DATA
        CFI VirtualResource ?RetPad:1, ?RetHigh:8, ?RetLow:8, ?Ret:17
        CFI Resource R0:8, R1:8, R2:8, R3:8, R4:8, R5:8, R6:8, R7:8, R8:8, R9:8
        CFI Resource R10:8, R11:8, R12:8, R13:8, R14:8, R15:8, R16:8, R17:8
        CFI Resource R18:8, R19:8, R20:8, R21:8, R22:8, R23:8, R24:8, R25:8
        CFI Resource R26:8, R27:8, R28:8, R29:8, R30:8, R31:8
        CFI Resource ?RetHighByteMask:8, SP:16, SPH:8, SPL:8, Y:16
        CFI ResourceParts ?Ret ?RetHigh, ?RetLow, ?RetPad
        CFI ResourceParts SP SPH, SPL
        CFI ResourceParts Y R29, R28
        CFI EndNames cfiNames0
        
        CFI Common cfiCommon0 Using cfiNames0
        CFI CodeAlign 1
        CFI DataAlign 1
        CFI ReturnAddress ?Ret CODE
        CFI CFA_Y Y+0
        CFI CFA_SP SP+2
        CFI ?RetPad 0
        CFI ?RetHigh and(load(1, DATA, sub(CFA_SP, 1)), ?RetHighByteMask)
        CFI ?RetLow Frame(CFA_SP, 0)
        CFI ?Ret Concat
        CFI R0 Undefined
        CFI R1 Undefined
        CFI R2 Undefined
        CFI R3 Undefined
        CFI R4 SameValue
        CFI R5 SameValue
        CFI R6 SameValue
        CFI R7 SameValue
        CFI R8 SameValue
        CFI R9 SameValue
        CFI R10 SameValue
        CFI R11 SameValue
        CFI R12 SameValue
        CFI R13 SameValue
        CFI R14 SameValue
        CFI R15 SameValue
        CFI R16 Undefined
        CFI R17 Undefined
        CFI R18 Undefined
        CFI R19 Undefined
        CFI R20 Undefined
        CFI R21 Undefined
        CFI R22 Undefined
        CFI R23 Undefined
        CFI R24 SameValue
        CFI R25 SameValue
        CFI R26 SameValue
        CFI R27 SameValue
        CFI R28 Undefined
        CFI R29 Undefined
        CFI R30 Undefined
        CFI R31 Undefined
        CFI ?RetHighByteMask SameValue
        CFI SPH Undefined
        CFI SPL Undefined
        CFI EndCommon cfiCommon0
        
        
        CFI Common cfiCommon1 Using cfiNames0
        CFI CodeAlign 1
        CFI DataAlign 1
        CFI ReturnAddress ?Ret CODE
        CFI CFA_Y Y+0
        CFI CFA_SP SP+2
        CFI ?RetPad 0
        CFI ?RetHigh and(load(1, DATA, sub(CFA_SP, 1)), ?RetHighByteMask)
        CFI ?RetLow Frame(CFA_SP, 0)
        CFI ?Ret Concat
        CFI R0 SameValue
        CFI R1 SameValue
        CFI R2 SameValue
        CFI R3 SameValue
        CFI R4 SameValue
        CFI R5 SameValue
        CFI R6 SameValue
        CFI R7 SameValue
        CFI R8 SameValue
        CFI R9 SameValue
        CFI R10 SameValue
        CFI R11 SameValue
        CFI R12 SameValue
        CFI R13 SameValue
        CFI R14 SameValue
        CFI R15 SameValue
        CFI R16 SameValue
        CFI R17 SameValue
        CFI R18 SameValue
        CFI R19 SameValue
        CFI R20 SameValue
        CFI R21 SameValue
        CFI R22 SameValue
        CFI R23 SameValue
        CFI R24 SameValue
        CFI R25 SameValue
        CFI R26 SameValue
        CFI R27 SameValue
        CFI R28 Undefined
        CFI R29 Undefined
        CFI R30 SameValue
        CFI R31 SameValue
        CFI ?RetHighByteMask SameValue
        CFI SPH Undefined
        CFI SPL Undefined
        CFI EndCommon cfiCommon1
        
ADC_interrupt       SYMBOL "ADC_interrupt"
`??ADC_interrupt??INTVEC 116` SYMBOL "??INTVEC 116", ADC_interrupt
TIMER0_COMPA_interrupt SYMBOL "TIMER0_COMPA_interrupt"
`??TIMER0_COMPA_interrupt??INTVEC 84` SYMBOL "??INTVEC 84", TIMER0_COMPA_interrupt
TIMER2_COMPA_interrupt SYMBOL "TIMER2_COMPA_interrupt"
`??TIMER2_COMPA_interrupt??INTVEC 52` SYMBOL "??INTVEC 52", TIMER2_COMPA_interrupt
TIMER3_COMPA_interrupt SYMBOL "TIMER3_COMPA_interrupt"
`??TIMER3_COMPA_interrupt??INTVEC 128` SYMBOL "??INTVEC 128", TIMER3_COMPA_interrupt
USART0_RX_interrupt SYMBOL "USART0_RX_interrupt"
`??USART0_RX_interrupt??INTVEC 100` SYMBOL "??INTVEC 100", USART0_RX_interrupt
USART0_TX_interrupt SYMBOL "USART0_TX_interrupt"
`??USART0_TX_interrupt??INTVEC 108` SYMBOL "??INTVEC 108", USART0_TX_interrupt
USART1_RX_interrupt SYMBOL "USART1_RX_interrupt"
`??USART1_RX_interrupt??INTVEC 144` SYMBOL "??INTVEC 144", USART1_RX_interrupt
USART1_UDRE_interrupt SYMBOL "USART1_UDRE_interrupt"
`??USART1_UDRE_interrupt??INTVEC 148` SYMBOL "??INTVEC 148", USART1_UDRE_interrupt
USART2_RX_interrupt SYMBOL "USART2_RX_interrupt"
`??USART2_RX_interrupt??INTVEC 204` SYMBOL "??INTVEC 204", USART2_RX_interrupt
USART2_UDRE_interrupt SYMBOL "USART2_UDRE_interrupt"
`??USART2_UDRE_interrupt??INTVEC 208` SYMBOL "??INTVEC 208", USART2_UDRE_interrupt
USART3_RX_interrupt SYMBOL "USART3_RX_interrupt"
`??USART3_RX_interrupt??INTVEC 216` SYMBOL "??INTVEC 216", USART3_RX_interrupt
USART3_UDRE_interrupt SYMBOL "USART3_UDRE_interrupt"
`??USART3_UDRE_interrupt??INTVEC 220` SYMBOL "??INTVEC 220", USART3_UDRE_interrupt

        EXTERN fun_state_md
        FUNCTION fun_state_md,0202H
        EXTERN lock_it
        FUNCTION lock_it,0202H
        EXTERN sending_at_pac
        FUNCTION sending_at_pac,0202H
        EXTERN check_cts
        FUNCTION check_cts,0202H
        EXTERN Appl_seq
        EXTERN At_com
        EXTERN Buf1_rx_ppp
        EXTERN Buf2_rx_ppp
        EXTERN Control
        EXTERN Regim
        EXTERN buf_tx_232
        EXTERN cnt_cts_off
        EXTERN cnt_ipcp_tm_out
        EXTERN cnt_lcp_tm_out
        EXTERN cnt_pap_tm_out
        EXTERN cnt_rst_ipcp
        EXTERN cnt_rst_lcp
        EXTERN cnt_rst_pap
        EXTERN cnt_stm_tm1
        EXTERN command_AT
        EXTERN count_block_net
        EXTERN count_summa_temperatura
        EXTERN count_tx_ppp
        EXTERN event_modem
        EXTERN fl_appl_seq
        EXTERN fl_appl_seq1
        EXTERN fl_at_com
        EXTERN fl_at_mom_232
        EXTERN fl_cts_232
        EXTERN fl_cts_232_ignor
        EXTERN fl_ip
        EXTERN fl_ipcp
        EXTERN fl_lcp
        EXTERN fl_pap
        EXTERN fl_reg3
        EXTERN fl_rewrite
        EXTERN fl_wdt
        EXTERN layer_PPP
        EXTERN summa_temperatura
        EXTERN temperatura
        EXTERN vol_cnt_rst_ipcp
        EXTERN vol_cnt_rst_lcp
        EXTERN vol_cnt_rst_pap
        EXTERN vol_tx_ppp

// D:\PRJIAR\KP7(260707)\interr.c
//    1 #include <iom1280.h> 

        ASEGN ABSOLUTE:DATA:NOROOT,0136H
// union <unnamed> volatile __ext_io _A_UDR3
_A_UDR3:
        DS 1

        ASEGN ABSOLUTE:DATA:NOROOT,0131H
// union <unnamed> volatile __ext_io _A_UCSR3B
_A_UCSR3B:
        DS 1

        ASEGN ABSOLUTE:DATA:NOROOT,0105H
// union <unnamed> volatile __ext_io _A_PORTJ
_A_PORTJ:
        DS 1

        ASEGN ABSOLUTE:DATA:NOROOT,0102H
// union <unnamed> volatile __ext_io _A_PORTH
_A_PORTH:
        DS 1

        ASEGN ABSOLUTE:DATA:NOROOT,0d6H
// union <unnamed> volatile __io _A_UDR2
_A_UDR2:
        DS 1

        ASEGN ABSOLUTE:DATA:NOROOT,0d1H
// union <unnamed> volatile __io _A_UCSR2B
_A_UCSR2B:
        DS 1

        ASEGN ABSOLUTE:DATA:NOROOT,0ceH
// union <unnamed> volatile __io _A_UDR1
_A_UDR1:
        DS 1

        ASEGN ABSOLUTE:DATA:NOROOT,0c9H
// union <unnamed> volatile __io _A_UCSR1B
_A_UCSR1B:
        DS 1

        ASEGN ABSOLUTE:DATA:NOROOT,0c6H
// union <unnamed> volatile __io _A_UDR0
_A_UDR0:
        DS 1

        ASEGN ABSOLUTE:DATA:NOROOT,0c1H
// union <unnamed> volatile __io _A_UCSR0B
_A_UCSR0B:
        DS 1

        ASEGN ABSOLUTE:DATA:NOROOT,07aH
// union <unnamed> volatile __io _A_ADCSRA
_A_ADCSRA:
        DS 1

        ASEGN ABSOLUTE:DATA:NOROOT,078H
// union <unnamed> volatile __io _A_ADC
_A_ADC:
        DS 2

        ASEGN ABSOLUTE:DATA:NOROOT,032H
// union <unnamed> volatile __io _A_PING
_A_PING:
        DS 1

        ASEGN ABSOLUTE:DATA:NOROOT,02cH
// union <unnamed> volatile __io _A_PINE
_A_PINE:
        DS 1

        ASEGN ABSOLUTE:DATA:NOROOT,02bH
// union <unnamed> volatile __io _A_PORTD
_A_PORTD:
        DS 1

        ASEGN ABSOLUTE:DATA:NOROOT,028H
// union <unnamed> volatile __io _A_PORTC
_A_PORTC:
        DS 1
//    2 #include <inavr.h> 
//    3 #include "dfpin.h"
//    4 #include "dfproc.h"
//    5 #include "ozu_map.h"
//    6 #include "dfcnst.h"
//    7 #include "def_at.h"
//    8 #include "def_link.h"
//    9 #include "sec.h"
//   10 
//   11 
//   12 extern unsigned char layer_PPP;
//   13                                               
//   14 
//   15 void lock_it(void);
//   16 
//   17 void fun_state_md(void);
//   18 extern void tx_rs485_1(void);
//   19 extern void tx_rs485_2(void);
//   20 extern void tx_rs232_2(void);
//   21 extern void tx_rs232_time(void);
//   22 extern void test_fram(void);
//   23 extern unsigned long int burst_ds_r(void);
//   24 
//   25 unsigned char check_cts(void);
//   26 
//   27 extern unsigned char count_block_net;
//   28 
//   29 extern struct
//   30  {
//   31  unsigned char  clr_wdt     :1;
//   32  unsigned char  fl_out      :1;
//   33  unsigned char  from_timer0 :1;
//   34  unsigned char  fl_main     :1;
//   35  unsigned char  from_timer3 :1;
//   36  unsigned char  from_timer2 :1; 
//   37  unsigned char  from_adc :1;
//   38  }fl_wdt;

        RSEG NEAR_Z:DATA:NOROOT(0)
        REQUIRE `?<Segment init: NEAR_Z>`
//   39 unsigned char cnt_clr_wdt, cnt_flag_out;
//   40 
//   41 extern unsigned char cnt_rst_lcp,vol_cnt_rst_lcp;
//   42 extern unsigned char cnt_rst_ipcp,vol_cnt_rst_ipcp;                       
//   43 extern unsigned char cnt_rst_pap,vol_cnt_rst_pap;  
//   44 extern unsigned int cnt_lcp_tm_out,cnt_ipcp_tm_out;
//   45 extern unsigned int cnt_pap_tm_out;
//   46 
//   47 extern struct
//   48 {
//   49 unsigned char over_buf :1;
//   50 unsigned char send_state :1;
//   51 unsigned char enable:1; 
//   52 }fl_appl_seq1; 
//   53 
//   54  extern struct
//   55   {
//   56   unsigned char  ip         :1;
//   57   unsigned char  udp        :1;
//   58   unsigned char  num_self   :1;
//   59   unsigned char cnt_reset;
//   60   }fl_rewrite;
//   61  
//   62 
//   63 
//   64 extern struct                   //ńņšóźņóšą, īļčńūāąžłą˙ īįśåźņ ļåšåäą÷č ļī PPP 
//   65   {  
//   66   enum bool link_no ; //ńā˙ēč ķåņ
//   67   enum bool link_waits; //īęčäąķčå źāčņźą ķą źīķņšīėü ńā˙ēč
//   68   enum bool link;      //źīķņšīėü ńā˙ēč    
//   69   enum bool nat;      //źīķņšīėü nat 
//   70   unsigned int cnt_link; // ń÷åņ÷čź
//   71   unsigned int cnt_nat; // ń÷åņ÷čź
//   72   unsigned int vol_link; // ēķą÷åķčå  
//   73   unsigned int vol_nat; // //ēķą÷åķčå 
//   74   unsigned int vol_waits; // ēķą÷åķčå āšåģåķč źāčņźą īęčäąķč˙ źīķņšīė˙ ńā˙ēč
//   75   unsigned char cnt_try; // ń÷åņ÷čź ļīļūņīź ļīėó÷čņü źāčņīź
//   76   unsigned char vol_try; // rjkbxtcndj ļīļūņīź ļīėó÷čņü źāčņīź
//   77   }Control;
//   78 
//   79 
//   80   //!!!!!!!!!!!!!!!!!!!!!!!!!!!!!ńņšóźņóšū ļščėīęåķč˙
//   81 extern  struct
//   82 {
//   83 unsigned char id;
//   84 unsigned int p_in;// óźąēąņåėü ńāīįīäķīé ˙÷åéźč
//   85 unsigned int p_out;
//   86 unsigned int p_out_kv;
//   87 unsigned int crc;
//   88 unsigned int cnt_waits; // ń÷åņ÷čź īęčäąķč˙ źāčņźą
//   89 unsigned char cnt_try; // ń÷åņ÷čź ļīļūņīź ļīėó÷čņü źāčņīź 
//   90 unsigned int l_data; // äėčķą ļīńūėąåģūõ äąķķūõ
//   91 unsigned char state;
//   92 unsigned char event;
//   93 unsigned int tm_vzat;
//   94 unsigned int vol_tm_vzat;
//   95 enum bool cntr_cl;
//   96 enum bool en_cntr_cl;
//   97 unsigned int cnt_cntr_cl;
//   98 unsigned int vol_cntr_cl;
//   99 }Appl_seq;
//  100 
//  101 //unsigned char Appl_seq_des;
//  102 
//  103 //unsigned char state_seq;
//  104 
//  105 //unsigned char Appl_seq_buf[MAX_BUF_SEQ]; 
//  106 
//  107 
//  108 extern struct
//  109 {
//  110 unsigned char en_tx :1;
//  111 unsigned char kv_waits :1;
//  112 unsigned char en_povtor:1;
//  113 }fl_appl_seq;
//  114 
//  115 
//  116 
//  117 
//  118 extern unsigned char proverka;
//  119 extern unsigned char fl_at_mom_232;
//  120 
//  121 extern enum t_event_modem event_modem;
//  122 
//  123 
//  124 extern unsigned char buf_tx_232[VOL_TX_PPP];
//  125 extern unsigned int count_tx_ppp,vol_tx_ppp;
//  126 
//  127 
//  128 extern unsigned char Regim;
//  129 extern unsigned char cnt_stm_tm1;
//  130 
//  131 extern void sending_at_pac(void); 
//  132 
//  133 extern  struct
//  134 {
//  135 char buf[LN_BUF_AT];
//  136 unsigned char cnt_tx;
//  137 unsigned char cnt_rx;
//  138 unsigned char ln_buf;
//  139 unsigned char list_com[VOL_LIST];// ļåšå÷åķü čńļīėķ˙åģūõ źīģąķä
//  140 unsigned char ln_list;//äėčķą ļåšå÷ķ˙
//  141 unsigned char cnt_com;//ń÷åņ÷čź źīģąķä
//  142 unsigned int cnt_tm_out; //ń÷åņ÷čź āšåģåķč īęčäąķč˙ īņāåņą
//  143 unsigned int vol_tm_out; //ļšåäåė āšåģåķč īęčäąķč˙ īņāåņą
//  144 unsigned int cnt_rx_out; //ń÷åņ÷čź ģåęįąéņīāūé ļšīģåęóņīź
//  145 unsigned int vol_rx_out; //ļšåäåė ģåęįąéņīāīćī ļšīģåęóņźą
//  146 }At_com;
//  147 
//  148 extern enum bool command_AT;
//  149 extern enum bool fl_cts_232_ignor;
//  150 extern unsigned int cnt_cts_off;
//  151 
//  152 extern struct
//  153  {
//  154  unsigned char on: 1;
//  155  } fl_cts_232;
//  156 
//  157 extern struct
//  158 {
//  159 unsigned char ok :1;//ņšåįóåģūé īņāåņ
//  160 unsigned char err :1;//īųčįī÷ķūé, ķåņšåįóåģūé īņāåņ
//  161 unsigned char tm_out :1;//īņńóņńņāčå īņāåņą
//  162 unsigned char tx_en :1;//ļīńėąņü źīģģąķäó
//  163 unsigned char rx_en :1;//ļščķčģąņü īņāåņū
//  164 unsigned char rx_rec :1;//ļščķ˙ņ īņāåņ
//  165 //unsigned char tm_out_en:1;//šąēšåųåķčå ąķąėčēą ļī ļšåāūųåķčž āšåģåķč īęčäąķč˙ īņāåņą
//  166 }
//  167 fl_at_com;
//  168 
//  169 unsigned char Rs485_1_buf_rx_tx[MAX_BUF_RS485_1];
//  170 unsigned char Rs485_2_buf_rx_tx[MAX_BUF_RS485_2];
//  171 unsigned char Rs232_2_buf_rx_tx[MAX_BUF_RS232_2];
//  172 
//  173 struct                   //ńņšóźņóšą īļčńūāąžłą˙ šąįīņó ļīšņą "RS485_1" 
//  174   {
//  175   unsigned int  cnt_bt_rx_tx;       // ń÷åņ÷čź įąéņīā ķą ļščåģ-ļåšåäą÷ó
//  176   unsigned int  cnt_tm_tx_out;    // ń÷åņ÷čź āšåģåķč ķą óäåšęąķčå rts ļīńėå ļåšåäą÷č
//  177   unsigned int  cnt_tm_pre_tx;    // ń÷åņ÷čź āšåģåķč ķą óäåšęąķčå rts ļåšåä ļåšåäą÷č
//  178   unsigned int  vol_tm_tx_out;    // ļšåäåė ń÷åņ÷čź āšåģåķč ķą óäåšęąķčå rts ļīńėå ļåšåäą÷č
//  179   unsigned int  cnt_tm_rx_out;   //  ń÷åņ÷čź āšåģåķč ķą īļšåäåėåķčå źīķöą ļščåģą
//  180   unsigned int  vol_tm_rx_out;   //  ļšåäåė āšåģåķč ķą īļšåäåėåķčå źīķöą ļščåģą
//  181   unsigned int  cnt_tm_out;     // ń÷åņ÷čź āšåģåķč ķą ļščåģ 
//  182   unsigned int  vol_tm_out;     // ļšåäåė ń÷åņ÷čźą āšåģåķč ķą ļščåģ 
//  183   unsigned char *p_data485;   // óźąēąņåėü ķą įóōåš ļåšåäą÷č
//  184   }Rs485_1,Rs485_2,Rs232_2;
Rs485_1:
        DS 18
Rs485_2:
        DS 18
Rs232_2:
        DS 18
cnt_clr_wdt:
        DS 1
cnt_flag_out:
        DS 1
Rs485_2_buf_rx_tx:
        DS 2
//  185   
//  186 struct
//  187  {
//  188  unsigned char busy : 1;
//  189  unsigned char rec : 1;
//  190  unsigned char tm_out : 1;
//  191  unsigned char tx : 1;
//  192  unsigned char over : 1;
//  193  unsigned char buffed : 1;
//  194  }fl_485_1,fl_485_2,fl_232_2;
fl_485_1:
        DS 1
fl_485_2:
        DS 1
fl_232_2:
        DS 1

        RSEG NEAR_Z:DATA:NOROOT(0)
        REQUIRE `?<Segment init: NEAR_Z>`
Rs485_1_buf_rx_tx:
        DS 100

        RSEG NEAR_Z:DATA:NOROOT(0)
        REQUIRE `?<Segment init: NEAR_Z>`
Rs232_2_buf_rx_tx:
        DS 900
//  195 
//  196 
//  197 
//  198 extern  struct
//  199  {
//  200   unsigned char data[VOL_RX_PPP];//ńąģ įóōåš
//  201   unsigned int ln_data;  // äėčķą äąķķūõ
//  202   enum bool rec; // ļąźåņ ļščķ˙ņ
//  203   enum bool busy;// įóōåš ēąķ˙ņ
//  204   enum bool check_busy;// ļšīāåšźą ēąķ˙ņ ėč įóōåš
//  205  }Buf1_rx_ppp,Buf2_rx_ppp; // 
//  206 
//  207 
//  208  struct
//  209  {
//  210  unsigned char fl_7e : 1;//
//  211  unsigned char fl_7d : 1;//
//  212  unsigned char switcher : 1;//ļåšåźėž÷ąņåėü įóōåšīā

        RSEG NEAR_Z:DATA:NOROOT(0)
        REQUIRE `?<Segment init: NEAR_Z>`
//  213  } fl_rx_ppp;
fl_rx_ppp:
        DS 1
//  214 
//  215 ///!!!!!!!!!!!!!!!!!!!!!!!!!!!!!!!!!!!äė˙ ŠŠŠ
//  216 extern struct
//  217  {
//  218   unsigned char act_lcp_end :1;  
//  219   unsigned char lcp_tm_out_en :1;
//  220   unsigned char t0_pl:1;
//  221   unsigned char t0_mi:1;
//  222  }fl_lcp; 
//  223  
//  224 
//  225 extern struct
//  226  {
//  227   unsigned char act_ipcp_end :1;  
//  228   unsigned char ipcp_tm_out_en :1;
//  229   unsigned char t0_pl:1;
//  230   unsigned char t0_mi:1;
//  231  }fl_ipcp; 
//  232 
//  233 extern struct
//  234  {
//  235   unsigned char act_ip_end :1; 
//  236   unsigned char ip_tm_cntr_en :1; 
//  237   unsigned char ip_tm_nat_en :1;
//  238  }fl_ip;
//  239 
//  240 
//  241 
//  242   
//  243 extern struct
//  244  {
//  245   unsigned char act_pap_end :1;  
//  246   unsigned char pap_tm_out_en:1;
//  247   unsigned char t0_pl:1;
//  248   unsigned char t0_mi:1;  
//  249   unsigned char up: 1; 
//  250  }fl_pap; 
//  251 
//  252 extern struct
//  253  {
//  254   unsigned char add_byte :1; 
//  255  }fl_reg3;
//  256   //EEEEEEEEEEEEEEEEEEEEEEEEEEEEEEEEEEEEEEEEE 
//  257  
//  258 
//  259 extern unsigned long int summa_temperatura;         
//  260 extern unsigned int temperatura;
//  261 extern unsigned int count_summa_temperatura; 
//  262 
//  263 
//  264 
//  265 struct
//  266 {
//  267  
//  268   unsigned char tek_pin :1;
//  269   unsigned char old_pin :1;
//  270   unsigned char fl_ch_tc :1;
//  271   unsigned char real_tc;
//  272   unsigned int count_tc; 

        RSEG NEAR_Z:DATA:NOROOT(0)
        REQUIRE `?<Segment init: NEAR_Z>`
//  273 }struct_tcc1;
struct_tcc1:
        DS 4
//  274 
//  275 ///11111111111111111111111111111 ōóķźöčč
//  276  

        RSEG CODE:CODE:NOROOT(1)
//  277 void sending_ppp_proverka(void)
sending_ppp_proverka:
        CFI Block cfiBlock0 Using cfiCommon0
        CFI Function sending_ppp_proverka
//  278 {   
        MOVW	R19:R18, R27:R26
//  279    if(count_tx_ppp>=20)
        LDI	R26, LOW(count_tx_ppp)
        LDI	R27, (count_tx_ppp) >> 8
        LD	R30, X+
        LD	R31, X
        SBIW	R31:R30, 20
        BRCS	??sending_ppp_proverka_0
//  280    {
//  281     // UCSR0B=UCSR0B & ~TXEN;!!!!
//  282     // UCSR0B=UCSR0B & ~TXCIE; !!!!
//  283      S2_OFF;
        CBI	0x08, 0x00
        CBI	0x08, 0x01
//  284      return;
        RJMP	??sending_ppp_proverka_1
//  285    }
//  286    
//  287    UDR0=buf_tx_232[count_tx_ppp]; if(Regim==RG_DEBAG) UDR3=buf_tx_232[count_tx_ppp];
??sending_ppp_proverka_0:
        LDI	R30, LOW(count_tx_ppp)
        LDI	R31, (count_tx_ppp) >> 8
        LD	R16, Z
        LDD	R17, Z+1
        MOVW	R31:R30, R17:R16
        SUBI	R30, LOW((-(buf_tx_232) & 0xFFFF))
        SBCI	R31, (-(buf_tx_232) & 0xFFFF) >> 8
        LD	R17, Z
        STS	198, R17
        LDS	R16, Regim
        CPI	R16, 2
        BRNE	??sending_ppp_proverka_2
        STS	310, R17
//  288    count_tx_ppp++;
??sending_ppp_proverka_2:
        LDI	R30, LOW(count_tx_ppp)
        LDI	R31, (count_tx_ppp) >> 8
        LD	R16, Z
        LDD	R17, Z+1
        SUBI	R16, 255
        SBCI	R17, 255
        ST	Z, R16
        STD	Z+1, R17
//  289 }
??sending_ppp_proverka_1:
        MOVW	R27:R26, R19:R18
        RET
        CFI EndBlock cfiBlock0
//  290 
//  291 
//  292 

        RSEG CODE:CODE:NOROOT(1)
//  293   void sending_ppp_pac(void)
sending_ppp_pac:
        CFI Block cfiBlock1 Using cfiCommon0
        CFI Function sending_ppp_pac
//  294 {   
//  295  if(count_tx_ppp>=(vol_tx_ppp-1))
        LDI	R30, LOW(vol_tx_ppp)
        LDI	R31, (vol_tx_ppp) >> 8
        LD	R16, Z
        LDD	R17, Z+1
        SUBI	R16, 1
        SBCI	R17, 0
        LDI	R30, LOW(count_tx_ppp)
        LDI	R31, (count_tx_ppp) >> 8
        LD	R18, Z
        LDD	R19, Z+1
        CP	R18, R16
        CPC	R19, R17
        BRCS	??sending_ppp_pac_0
//  296      { 
//  297   
//  298      if (fl_lcp.act_lcp_end==0) fl_lcp.act_lcp_end=1;
        LDI	R30, LOW(fl_lcp)
        LDI	R31, (fl_lcp) >> 8
        LD	R16, Z
        SBRC	R16, 0
        RJMP	??sending_ppp_pac_1
        LD	R16, Z
        ORI	R16, 0x01
        ST	Z, R16
//  299      if (fl_pap.act_pap_end==0) fl_pap.act_pap_end=1;    
??sending_ppp_pac_1:
        LDI	R30, LOW(fl_pap)
        LDI	R31, (fl_pap) >> 8
        LD	R16, Z
        SBRC	R16, 0
        RJMP	??sending_ppp_pac_2
        LD	R16, Z
        ORI	R16, 0x01
        ST	Z, R16
//  300      if (fl_ipcp.act_ipcp_end==0) fl_ipcp.act_ipcp_end=1;  
??sending_ppp_pac_2:
        LDI	R30, LOW(fl_ipcp)
        LDI	R31, (fl_ipcp) >> 8
        LD	R16, Z
        SBRC	R16, 0
        RJMP	??sending_ppp_pac_3
        LD	R16, Z
        ORI	R16, 0x01
        ST	Z, R16
//  301      if (fl_ip.act_ip_end==0) fl_ip.act_ip_end=1; 
??sending_ppp_pac_3:
        LDI	R30, LOW(fl_ip)
        LDI	R31, (fl_ip) >> 8
        LD	R16, Z
        SBRC	R16, 0
        RJMP	??sending_ppp_pac_4
        LD	R16, Z
        ORI	R16, 0x01
        ST	Z, R16
//  302      fl_reg3.add_byte=0;   
??sending_ppp_pac_4:
        LDI	R30, LOW(fl_reg3)
        LDI	R31, (fl_reg3) >> 8
        LD	R16, Z
        ANDI	R16, 0xFE
        ST	Z, R16
//  303    //  UCSR0B=UCSR0B & ~TXEN;!!!!!!!
//  304    //  UCSR0B=UCSR0B & ~TXCIE; !!!!
//  305      S2_OFF;
        CBI	0x08, 0x00
        CBI	0x08, 0x01
//  306      return;
        RET
//  307      }   
//  308       
//  309        
//  310 if (fl_reg3.add_byte==1) 
??sending_ppp_pac_0:
        LDI	R30, LOW(fl_reg3)
        LDI	R31, (fl_reg3) >> 8
        LD	R18, Z
        SBRS	R18, 0
        RJMP	??sending_ppp_pac_5
//  311     {         
//  312       fl_reg3.add_byte=0;
        LD	R16, Z
        ANDI	R16, 0xFE
        ST	Z, R16
//  313       if (buf_tx_232[count_tx_ppp]==0x7e){UDR0=0x5e;if(Regim==RG_DEBAG) UDR3=0x5e;return;}  
        LDI	R30, LOW(count_tx_ppp)
        LDI	R31, (count_tx_ppp) >> 8
        LD	R16, Z
        LDD	R17, Z+1
        MOVW	R31:R30, R17:R16
        SUBI	R30, LOW((-(buf_tx_232) & 0xFFFF))
        SBCI	R31, (-(buf_tx_232) & 0xFFFF) >> 8
        LD	R16, Z
        CPI	R16, 126
        BRNE	??sending_ppp_pac_6
        LDI	R16, 94
        STS	198, R16
        LDS	R16, Regim
        CPI	R16, 2
        BREQ	$+2+2
        RJMP	??sending_ppp_pac_7
        LDI	R16, 94
        RJMP	??sending_ppp_pac_8
//  314       if (buf_tx_232[count_tx_ppp]==0x7d){UDR0=0x5d;if(Regim==RG_DEBAG) UDR3=0x5d;return;} 
??sending_ppp_pac_6:
        CPI	R16, 125
        BRNE	??sending_ppp_pac_9
        LDI	R16, 93
        STS	198, R16
        LDS	R16, Regim
        CPI	R16, 2
        BREQ	$+2+2
        RJMP	??sending_ppp_pac_7
        LDI	R16, 93
??sending_ppp_pac_8:
        STS	310, R16
        RET
//  315       UDR0=buf_tx_232[count_tx_ppp]+0x20;if(Regim==RG_DEBAG) UDR3=buf_tx_232[count_tx_ppp]+0x20;
??sending_ppp_pac_9:
        SUBI	R16, 224
        STS	198, R16
        LDS	R17, Regim
        CPI	R17, 2
        BREQ	$+2+2
        RJMP	??sending_ppp_pac_7
        RJMP	??sending_ppp_pac_8
//  316       return;
//  317     }
//  318 
//  319                                                          
//  320   count_tx_ppp++;                
??sending_ppp_pac_5:
        LDI	R30, LOW(count_tx_ppp)
        LDI	R31, (count_tx_ppp) >> 8
        LD	R18, Z
        LDD	R19, Z+1
        SUBI	R18, 255
        SBCI	R19, 255
        ST	Z, R18
        STD	Z+1, R19
//  321    
//  322   if(count_tx_ppp==(vol_tx_ppp-1))goto exit_tx;   
        LD	R18, Z
        LDD	R19, Z+1
        CP	R18, R16
        CPC	R19, R17
        BREQ	??sending_ppp_pac_10
//  323   
//  324        
//  325        if ((buf_tx_232[count_tx_ppp]==0x7e)||(buf_tx_232[count_tx_ppp]==0x7d))
        LD	R16, Z
        LDD	R17, Z+1
        MOVW	R31:R30, R17:R16
        SUBI	R30, LOW((-(buf_tx_232) & 0xFFFF))
        SBCI	R31, (-(buf_tx_232) & 0xFFFF) >> 8
        LD	R16, Z
        CPI	R16, 126
        BREQ	??sending_ppp_pac_11
        CPI	R16, 125
        BRNE	??sending_ppp_pac_12
//  326             {
//  327             fl_reg3.add_byte=1;
??sending_ppp_pac_11:
        LDI	R30, LOW(fl_reg3)
        LDI	R31, (fl_reg3) >> 8
        LD	R16, Z
        ORI	R16, 0x01
        ST	Z, R16
//  328             UDR0=0x7d; 
        LDI	R16, 125
        STS	198, R16
//  329             if(Regim==RG_DEBAG) UDR3=0x7d;
        LDS	R16, Regim
        CPI	R16, 2
        BRNE	??sending_ppp_pac_7
        LDI	R16, 125
        RJMP	??sending_ppp_pac_8
//  330             return;
//  331             } 
//  332         
//  333        if ((buf_tx_232[count_tx_ppp]==17)||(buf_tx_232[count_tx_ppp]==19))
??sending_ppp_pac_12:
        CPI	R16, 17
        BREQ	??sending_ppp_pac_11
        CPI	R16, 19
        BREQ	??sending_ppp_pac_11
//  334             {
//  335             fl_reg3.add_byte=1;
//  336             UDR0=0x7d; 
//  337             if(Regim==RG_DEBAG) UDR3=0x7d;
//  338             return;
//  339             }     
//  340         
//  341        if ((buf_tx_232[count_tx_ppp]<0x20)&&(fl_ip.act_ip_end==1)) 
        CPI	R16, 32
        BRCC	??sending_ppp_pac_10
        LDI	R30, LOW(fl_ip)
        LDI	R31, (fl_ip) >> 8
        LD	R16, Z
        SBRC	R16, 0
        RJMP	??sending_ppp_pac_11
//  342             {
//  343             fl_reg3.add_byte=1;
//  344             UDR0=0x7d; 
//  345             if(Regim==RG_DEBAG) UDR3=0x7d;
//  346             return;
//  347             }   
//  348        
//  349                   
//  350 exit_tx:  UDR0=buf_tx_232[count_tx_ppp]; if(Regim==RG_DEBAG) UDR3=buf_tx_232[count_tx_ppp];
??sending_ppp_pac_10:
        LDI	R30, LOW(count_tx_ppp)
        LDI	R31, (count_tx_ppp) >> 8
        LD	R16, Z
        LDD	R17, Z+1
        MOVW	R31:R30, R17:R16
        SUBI	R30, LOW((-(buf_tx_232) & 0xFFFF))
        SBCI	R31, (-(buf_tx_232) & 0xFFFF) >> 8
        LD	R16, Z
        STS	198, R16
        LDS	R17, Regim
        CPI	R17, 2
        BRNE	??sending_ppp_pac_7
        STS	310, R16
??sending_ppp_pac_7:
        RET
        CFI EndBlock cfiBlock1
//  351 } 
//  352 
//  353  
//  354  

        RSEG CODE:CODE:NOROOT(1)
//  355  void recive_buf1(unsigned char temp)
recive_buf1:
        CFI Block cfiBlock2 Using cfiCommon0
        CFI Function recive_buf1
//  356   {
        MOVW	R21:R20, R27:R26
//  357   
//  358   if(Regim==RG_DEBAG)UDR1=temp;  //!!!!!!!! poka
        LDS	R17, Regim
        CPI	R17, 2
        BRNE	??recive_buf1_0
        STS	206, R16
//  359     
//  360   if(fl_rx_ppp.fl_7e==1)
??recive_buf1_0:
        LDI	R30, LOW(fl_rx_ppp)
        LDI	R31, (fl_rx_ppp) >> 8
        LD	R17, Z
        SBRS	R17, 0
        RJMP	??recive_buf1_1
//  361                   { 
//  362                    
//  363                    
//  364                     if(Buf1_rx_ppp.ln_data>=VOL_RX_PPP)// ļšīāåšźą ķą ļåšåļīėķåķčå ļåšāīćī įóōåšą
        LDI	R30, LOW((Buf1_rx_ppp + 330))
        LDI	R31, HIGH((Buf1_rx_ppp + 330))
        LD	R18, Z
        LDD	R19, Z+1
        CPI	R18, 74
        LDI	R17, 1
        CPC	R19, R17
        BRCS	??recive_buf1_2
//  365                     {
//  366                        Buf1_rx_ppp.ln_data=0;
        LDI	R16, 0
        ST	Z, R16
        STD	Z+1, R16
//  367                        fl_rx_ppp.fl_7e=0;
//  368                        fl_rx_ppp.fl_7d=0;
        LDI	R30, LOW(fl_rx_ppp)
        LDI	R31, (fl_rx_ppp) >> 8
        LD	R16, Z
        ANDI	R16, 0xFC
        ST	Z, R16
//  369                        S2_OFF;        
        CBI	0x08, 0x00
        CBI	0x08, 0x01
//  370                        
//  371                        S3_GR;//!!!!proverka
        CBI	0x08, 0x02
        SBI	0x08, 0x03
//  372                        return;
        RJMP	??recive_buf1_3
//  373                     }
//  374   
//  375                      
//  376                     // //////////óźėąäźą
//  377                     if(temp==0x7d)
??recive_buf1_2:
        CPI	R16, 125
        BRNE	??recive_buf1_4
//  378                        {  
//  379                          fl_rx_ppp.fl_7d=1;
        LDI	R30, LOW(fl_rx_ppp)
        LDI	R31, (fl_rx_ppp) >> 8
        LD	R16, Z
        ORI	R16, 0x02
??recive_buf1_5:
        ST	Z, R16
//  380                          return;
        RJMP	??recive_buf1_3
//  381                        }
//  382                         else
//  383                        {  
//  384                          if (fl_rx_ppp.fl_7d==1)
??recive_buf1_4:
        LDI	R30, LOW(Buf1_rx_ppp)
        LDI	R31, (Buf1_rx_ppp) >> 8
        ADD	R30, R18
        ADC	R31, R19
        LDI	R26, LOW(fl_rx_ppp)
        LDI	R27, (fl_rx_ppp) >> 8
        LD	R17, X
        SBRS	R17, 1
        RJMP	??recive_buf1_6
//  385                             {                 
//  386                               if((temp>=0x20)&&(temp<0x40)){Buf1_rx_ppp.data[Buf1_rx_ppp.ln_data]=temp-0x20;Buf1_rx_ppp.ln_data++;fl_rx_ppp.fl_7d=0;return;}                                
        CPI	R16, 32
        BRCS	??recive_buf1_7
        CPI	R16, 64
        BRCC	??recive_buf1_7
        SUBI	R16, 32
??recive_buf1_8:
        ST	Z, R16
        LDI	R30, LOW((Buf1_rx_ppp + 330))
        LDI	R31, HIGH((Buf1_rx_ppp + 330))
        LD	R16, Z
        LDD	R17, Z+1
        SUBI	R16, 255
        SBCI	R17, 255
        ST	Z, R16
        STD	Z+1, R17
        LDI	R30, LOW(fl_rx_ppp)
        LDI	R31, (fl_rx_ppp) >> 8
        LD	R16, Z
        ANDI	R16, 0xFD
        RJMP	??recive_buf1_5
//  387                               if(temp==0x5e){Buf1_rx_ppp.data[Buf1_rx_ppp.ln_data]=0x7e;Buf1_rx_ppp.ln_data++;fl_rx_ppp.fl_7d=0;return;}  
??recive_buf1_7:
        CPI	R16, 94
        BRNE	??recive_buf1_9
        LDI	R16, 126
        RJMP	??recive_buf1_8
//  388                               if(temp==0x5d){Buf1_rx_ppp.data[Buf1_rx_ppp.ln_data]=0x7d;Buf1_rx_ppp.ln_data++;fl_rx_ppp.fl_7d=0;return;} 
??recive_buf1_9:
        CPI	R16, 93
        BRNE	??recive_buf1_10
        LDI	R16, 125
        RJMP	??recive_buf1_8
//  389                               Buf1_rx_ppp.ln_data=0;
??recive_buf1_10:
        LDI	R16, 0
        LDI	R30, LOW((Buf1_rx_ppp + 330))
        LDI	R31, HIGH((Buf1_rx_ppp + 330))
        ST	Z, R16
        STD	Z+1, R16
//  390                               fl_rx_ppp.fl_7e=0;
//  391                               fl_rx_ppp.fl_7d=0;
        LDI	R30, LOW(fl_rx_ppp)
        LDI	R31, (fl_rx_ppp) >> 8
        LD	R16, Z
        ANDI	R16, 0xFC
        ST	Z, R16
//  392                               
//  393                               S3_RD;//!!!!proverka
        SBI	0x08, 0x02
        CBI	0x08, 0x03
//  394                               
//  395                               S2_OFF;
        CBI	0x08, 0x00
        CBI	0x08, 0x01
//  396                               return;
        RJMP	??recive_buf1_3
//  397                              }  
//  398                             else
//  399                               {        
//  400                                    Buf1_rx_ppp.data[Buf1_rx_ppp.ln_data] =temp;
??recive_buf1_6:
        ST	Z, R16
//  401                                    Buf1_rx_ppp.ln_data++;                                                  
        LDI	R30, LOW((Buf1_rx_ppp + 330))
        LDI	R31, HIGH((Buf1_rx_ppp + 330))
        LD	R18, Z
        LDD	R19, Z+1
        SUBI	R18, 255
        SBCI	R19, 255
        ST	Z, R18
        STD	Z+1, R19
//  402                         
//  403                                      if(temp==0x7e)         //ķåņ ļåšåļīėķåķč˙
        CPI	R16, 126
        BREQ	$+2+2
        RJMP	??recive_buf1_3
//  404                                         {  
//  405                                          if(Buf1_rx_ppp.ln_data<=2) //åńėč ļīäš˙ä äāą 0x7e 
        LD	R18, Z
        LDD	R19, Z+1
        CPI	R18, 3
        LDI	R16, 0
        CPC	R19, R16
        BRCC	??recive_buf1_11
//  406                                              {
//  407                                               //  if(ppp_packet.rcvd==1)???????????????
//  408                                               
//  409                                               if((layer_PPP==LAYER_IP)&&(Buf1_rx_ppp.ln_data==2))
        LDS	R16, layer_PPP
        CPI	R16, 4
        BRNE	??recive_buf1_12
        CPI	R18, 2
        LDI	R16, 0
        CPC	R19, R16
        BRNE	??recive_buf1_12
//  410                                               {
//  411                                                S4_RD;//proverka!!!!!
        SBI	0x08, 0x04
        CBI	0x08, 0x05
//  412                                                while(1)__watchdog_reset();//proverka!!!!!
??recive_buf1_13:
        WDR
        RJMP	??recive_buf1_13
//  413                                               }
//  414                                                
//  415                                               fl_rx_ppp.fl_7e=1;   
??recive_buf1_12:
        LDI	R30, LOW(fl_rx_ppp)
        LDI	R31, (fl_rx_ppp) >> 8
        LD	R16, Z
        ORI	R16, 0x01
        ST	Z, R16
//  416                                               Buf1_rx_ppp.data[0]=temp;  
        LDI	R16, 126
        STS	Buf1_rx_ppp, R16
//  417                                               Buf1_rx_ppp.ln_data=1; 
        LDI	R16, 1
        LDI	R17, 0
        LDI	R30, LOW((Buf1_rx_ppp + 330))
        LDI	R31, HIGH((Buf1_rx_ppp + 330))
        ST	Z, R16
        STD	Z+1, R17
//  418                                               return;
        RJMP	??recive_buf1_3
//  419                                               }
//  420                                         
//  421                                                     
//  422                                          S2_OFF;
??recive_buf1_11:
        CBI	0x08, 0x00
        CBI	0x08, 0x01
//  423                                          fl_rx_ppp.fl_7e=0;
//  424                                          fl_rx_ppp.switcher=1;
        LDI	R30, LOW(fl_rx_ppp)
        LDI	R31, (fl_rx_ppp) >> 8
        LD	R16, Z
        ANDI	R16, 0xFE
        ST	Z, R16
        LD	R16, Z
        ORI	R16, 0x04
        ST	Z, R16
//  425                                          Buf1_rx_ppp.rec=TRUE; 
        LDI	R16, 1
        STS	(Buf1_rx_ppp + 332), R16
//  426                                          Buf1_rx_ppp.busy=TRUE;
        STS	(Buf1_rx_ppp + 333), R16
//  427                                          if(Buf2_rx_ppp.busy==TRUE)
        LDS	R16, (Buf2_rx_ppp + 333)
        CPI	R16, 1
        BRNE	??recive_buf1_3
//  428                                           {
//  429                                         
//  430                                            Buf2_rx_ppp.check_busy=TRUE;
        LDI	R16, 1
        STS	(Buf2_rx_ppp + 334), R16
//  431                                            UCSR0B=UCSR0B & ~RXEN;
        LDS	R16, 193
        ANDI	R16, 0xEF
        STS	193, R16
//  432                                            UCSR0B=UCSR0B & ~RXCIE; 
        LDS	R16, 193
        ANDI	R16, 0x7F
        STS	193, R16
        RJMP	??recive_buf1_3
//  433                                           }
//  434                                          return;
//  435                                         }  
//  436                                }
//  437                   
//  438                         }
//  439                                     
//  440                     return;   
//  441                   }         //ź ļåźåņ įåćčķ
//  442                   else
//  443                   {
//  444                    if(temp==0x7e)
??recive_buf1_1:
        CPI	R16, 126
        BRNE	??recive_buf1_3
//  445                           {
//  446                         //  if(ppp_packet.rcvd==1)???????????????                          
//  447                           fl_rx_ppp.fl_7e=1;   
        LD	R16, Z
        ORI	R16, 0x01
        ST	Z, R16
//  448                           Buf1_rx_ppp.data[0]=temp;  
        LDI	R16, 126
        STS	Buf1_rx_ppp, R16
//  449                           Buf1_rx_ppp.ln_data=1;
        LDI	R16, 1
        LDI	R17, 0
        LDI	R30, LOW((Buf1_rx_ppp + 330))
        LDI	R31, HIGH((Buf1_rx_ppp + 330))
        ST	Z, R16
        STD	Z+1, R17
//  450                           S2_GR; 
        CBI	0x08, 0x00
        SBI	0x08, 0x01
??recive_buf1_3:
        MOVW	R27:R26, R21:R20
        RET
        CFI EndBlock cfiBlock2
//  451                           }
//  452                   }
//  453   }
//  454  
//  455 
//  456 
//  457 

        RSEG CODE:CODE:NOROOT(1)
//  458 void recive_buf2(unsigned char temp)
recive_buf2:
        CFI Block cfiBlock3 Using cfiCommon0
        CFI Function recive_buf2
//  459   {
        MOVW	R21:R20, R27:R26
//  460   
//  461   if(Regim==RG_DEBAG)UDR1=temp;  //!!!!!!!! poka
        LDS	R17, Regim
        CPI	R17, 2
        BRNE	??recive_buf2_0
        STS	206, R16
//  462     
//  463   if(fl_rx_ppp.fl_7e==1)
??recive_buf2_0:
        LDI	R30, LOW(fl_rx_ppp)
        LDI	R31, (fl_rx_ppp) >> 8
        LD	R17, Z
        SBRS	R17, 0
        RJMP	??recive_buf2_1
//  464                   { 
//  465                    
//  466                    
//  467                     if(Buf2_rx_ppp.ln_data>=VOL_RX_PPP)// ļšīāåšźą ķą ļåšåļīėķåķčå ļåšāīćī įóōåšą
        LDI	R30, LOW((Buf2_rx_ppp + 330))
        LDI	R31, HIGH((Buf2_rx_ppp + 330))
        LD	R18, Z
        LDD	R19, Z+1
        CPI	R18, 74
        LDI	R17, 1
        CPC	R19, R17
        BRCS	??recive_buf2_2
//  468                     {
//  469                        Buf2_rx_ppp.ln_data=0;
        LDI	R16, 0
        ST	Z, R16
        STD	Z+1, R16
//  470                        fl_rx_ppp.fl_7e=0;
//  471                        fl_rx_ppp.fl_7d=0;
        LDI	R30, LOW(fl_rx_ppp)
        LDI	R31, (fl_rx_ppp) >> 8
        LD	R16, Z
        ANDI	R16, 0xFC
        ST	Z, R16
//  472                        S2_OFF;
        CBI	0x08, 0x00
        CBI	0x08, 0x01
//  473                        S3_GR;//!!!!proverka
        CBI	0x08, 0x02
        SBI	0x08, 0x03
//  474                        return;
        RJMP	??recive_buf2_3
//  475                     }
//  476   
//  477                      
//  478                     // //////////óźėąäźą
//  479                     if(temp==0x7d)
??recive_buf2_2:
        CPI	R16, 125
        BRNE	??recive_buf2_4
//  480                        {  
//  481                          fl_rx_ppp.fl_7d=1;
        LDI	R30, LOW(fl_rx_ppp)
        LDI	R31, (fl_rx_ppp) >> 8
        LD	R16, Z
        ORI	R16, 0x02
??recive_buf2_5:
        ST	Z, R16
//  482                          return;
        RJMP	??recive_buf2_3
//  483                        }
//  484                         else
//  485                        {  
//  486                          if (fl_rx_ppp.fl_7d==1)
??recive_buf2_4:
        LDI	R30, LOW(Buf2_rx_ppp)
        LDI	R31, (Buf2_rx_ppp) >> 8
        ADD	R30, R18
        ADC	R31, R19
        LDI	R26, LOW(fl_rx_ppp)
        LDI	R27, (fl_rx_ppp) >> 8
        LD	R17, X
        SBRS	R17, 1
        RJMP	??recive_buf2_6
//  487                             { 
//  488                                                   
//  489                               if((temp>=0x20)&&(temp<0x40)){Buf2_rx_ppp.data[Buf2_rx_ppp.ln_data]=temp-0x20;Buf2_rx_ppp.ln_data++;fl_rx_ppp.fl_7d=0;return;}                                
        CPI	R16, 32
        BRCS	??recive_buf2_7
        CPI	R16, 64
        BRCC	??recive_buf2_7
        SUBI	R16, 32
??recive_buf2_8:
        ST	Z, R16
        LDI	R30, LOW((Buf2_rx_ppp + 330))
        LDI	R31, HIGH((Buf2_rx_ppp + 330))
        LD	R16, Z
        LDD	R17, Z+1
        SUBI	R16, 255
        SBCI	R17, 255
        ST	Z, R16
        STD	Z+1, R17
        LDI	R30, LOW(fl_rx_ppp)
        LDI	R31, (fl_rx_ppp) >> 8
        LD	R16, Z
        ANDI	R16, 0xFD
        RJMP	??recive_buf2_5
//  490                               if(temp==0x5e){Buf2_rx_ppp.data[Buf2_rx_ppp.ln_data]=0x7e;Buf2_rx_ppp.ln_data++;fl_rx_ppp.fl_7d=0;return;}  
??recive_buf2_7:
        CPI	R16, 94
        BRNE	??recive_buf2_9
        LDI	R16, 126
        RJMP	??recive_buf2_8
//  491                               if(temp==0x5d){Buf2_rx_ppp.data[Buf2_rx_ppp.ln_data]=0x7d;Buf2_rx_ppp.ln_data++;fl_rx_ppp.fl_7d=0;return;} 
??recive_buf2_9:
        CPI	R16, 93
        BRNE	??recive_buf2_10
        LDI	R16, 125
        RJMP	??recive_buf2_8
//  492                               Buf2_rx_ppp.ln_data=0;
??recive_buf2_10:
        LDI	R16, 0
        LDI	R30, LOW((Buf2_rx_ppp + 330))
        LDI	R31, HIGH((Buf2_rx_ppp + 330))
        ST	Z, R16
        STD	Z+1, R16
//  493                               fl_rx_ppp.fl_7e=0;
//  494                               fl_rx_ppp.fl_7d=0;
        LDI	R30, LOW(fl_rx_ppp)
        LDI	R31, (fl_rx_ppp) >> 8
        LD	R16, Z
        ANDI	R16, 0xFC
        ST	Z, R16
//  495                               
//  496                               S3_RD;//!!!!proverka
        SBI	0x08, 0x02
        CBI	0x08, 0x03
//  497                               
//  498                               S2_OFF;
        CBI	0x08, 0x00
        CBI	0x08, 0x01
//  499                               return;
        RJMP	??recive_buf2_3
//  500                              }  
//  501                             else
//  502                               {        
//  503                                    Buf2_rx_ppp.data[Buf2_rx_ppp.ln_data]=temp;
??recive_buf2_6:
        ST	Z, R16
//  504                                    Buf2_rx_ppp.ln_data++;                                                  
        LDI	R30, LOW((Buf2_rx_ppp + 330))
        LDI	R31, HIGH((Buf2_rx_ppp + 330))
        LD	R18, Z
        LDD	R19, Z+1
        SUBI	R18, 255
        SBCI	R19, 255
        ST	Z, R18
        STD	Z+1, R19
//  505                         
//  506                                      if(temp==0x7e)         //ķåņ ļåšåļīėķåķč˙
        CPI	R16, 126
        BREQ	$+2+2
        RJMP	??recive_buf2_3
//  507                                         {  
//  508                                          if(Buf2_rx_ppp.ln_data<=2) //åńėč ļīäš˙ä äāą 0x7e 
        LD	R18, Z
        LDD	R19, Z+1
        CPI	R18, 3
        LDI	R16, 0
        CPC	R19, R16
        BRCC	??recive_buf2_11
//  509                                              {
//  510                                               
//  511                                                if((layer_PPP==LAYER_IP)&&(Buf2_rx_ppp.ln_data==2))
        LDS	R16, layer_PPP
        CPI	R16, 4
        BRNE	??recive_buf2_12
        CPI	R18, 2
        LDI	R16, 0
        CPC	R19, R16
        BRNE	??recive_buf2_12
//  512                                               {
//  513                                                S5_RD;//proverka!!!!!
        SBI	0x08, 0x06
        CBI	0x08, 0x07
//  514                                                while(1)__watchdog_reset();//proverka!!!!!
??recive_buf2_13:
        WDR
        RJMP	??recive_buf2_13
//  515                                               }
//  516                                                
//  517                                                //  if(ppp_packet.rcvd==1)???????????????
//  518                                               fl_rx_ppp.fl_7e=1;   
??recive_buf2_12:
        LDI	R30, LOW(fl_rx_ppp)
        LDI	R31, (fl_rx_ppp) >> 8
        LD	R16, Z
        ORI	R16, 0x01
        ST	Z, R16
//  519                                               Buf2_rx_ppp.data[0]=temp;  
        LDI	R16, 126
        STS	Buf2_rx_ppp, R16
//  520                                               Buf2_rx_ppp.ln_data=1; 
        LDI	R16, 1
        LDI	R17, 0
        LDI	R30, LOW((Buf2_rx_ppp + 330))
        LDI	R31, HIGH((Buf2_rx_ppp + 330))
        ST	Z, R16
        STD	Z+1, R17
//  521                                               return;
        RJMP	??recive_buf2_3
//  522                                               }
//  523   
//  524 
//  525                                          S2_OFF;
??recive_buf2_11:
        CBI	0x08, 0x00
        CBI	0x08, 0x01
//  526                                          fl_rx_ppp.fl_7e=0;
//  527                                          fl_rx_ppp.switcher=0;
        LDI	R30, LOW(fl_rx_ppp)
        LDI	R31, (fl_rx_ppp) >> 8
        LD	R16, Z
        ANDI	R16, 0xFA
        ST	Z, R16
//  528                                          Buf2_rx_ppp.rec=TRUE; 
        LDI	R16, 1
        STS	(Buf2_rx_ppp + 332), R16
//  529                                          Buf2_rx_ppp.busy=TRUE;
        STS	(Buf2_rx_ppp + 333), R16
//  530                                          if(Buf1_rx_ppp.busy==TRUE)
        LDS	R16, (Buf1_rx_ppp + 333)
        CPI	R16, 1
        BRNE	??recive_buf2_3
//  531                                           {
//  532                                            
//  533                                            Buf1_rx_ppp.check_busy=TRUE;
        LDI	R16, 1
        STS	(Buf1_rx_ppp + 334), R16
//  534                                            UCSR0B=UCSR0B & ~RXEN;
        LDS	R16, 193
        ANDI	R16, 0xEF
        STS	193, R16
//  535                                            UCSR0B=UCSR0B & ~RXCIE; 
        LDS	R16, 193
        ANDI	R16, 0x7F
        STS	193, R16
        RJMP	??recive_buf2_3
//  536                                           }
//  537                                          return;
//  538                                         }  
//  539                                }
//  540                   
//  541                         }
//  542                                     
//  543                     return;   
//  544                   }         //ź ļåźåņ įåćčķ
//  545                   else
//  546                   {
//  547                    if(temp==0x7e)
??recive_buf2_1:
        CPI	R16, 126
        BRNE	??recive_buf2_3
//  548                           {
//  549                         //  if(ppp_packet.rcvd==1)???????????????
//  550                           fl_rx_ppp.fl_7e=1;   
        LD	R16, Z
        ORI	R16, 0x01
        ST	Z, R16
//  551                           Buf2_rx_ppp.data[0]=temp;  
        LDI	R16, 126
        STS	Buf2_rx_ppp, R16
//  552                           Buf2_rx_ppp.ln_data=1; 
        LDI	R16, 1
        LDI	R17, 0
        LDI	R30, LOW((Buf2_rx_ppp + 330))
        LDI	R31, HIGH((Buf2_rx_ppp + 330))
        ST	Z, R16
        STD	Z+1, R17
//  553                           S2_GR;
        CBI	0x08, 0x00
        SBI	0x08, 0x01
??recive_buf2_3:
        MOVW	R27:R26, R21:R20
        RET
        CFI EndBlock cfiBlock3
//  554                           }        
//  555                   }
//  556   } 
//  557  //EEEEEEEEEEEEEEEEEEEEEEEEEEEEEEEEEEEEEEEEEEEEEEEEEEEEEEEEEEEEEEE
//  558 
//  559 
//  560 
//  561 
//  562 
//  563 
//  564 //////////////////////////////////////////////////////////////////////////////////////////////
//  565 #pragma vector=TIMER0_COMPA_vect       

        RSEG CODE:CODE:NOROOT(1)
//  566      __interrupt void TIMER0_COMPA_interrupt(void)
TIMER0_COMPA_interrupt:
        CFI Block cfiBlock4 Using cfiCommon1
        CFI Function TIMER0_COMPA_interrupt
//  567  {
        ST	-Y, R31
        CFI R31 Frame(CFA_Y, -1)
        CFI CFA_Y Y+1
        ST	-Y, R30
        CFI R30 Frame(CFA_Y, -2)
        CFI CFA_Y Y+2
        ST	-Y, R18
        CFI R18 Frame(CFA_Y, -3)
        CFI CFA_Y Y+3
        ST	-Y, R17
        CFI R17 Frame(CFA_Y, -4)
        CFI CFA_Y Y+4
        ST	-Y, R16
        CFI R16 Frame(CFA_Y, -5)
        CFI CFA_Y Y+5
        IN	R18, 0x3F
//  568    
//  569    
//  570    fl_wdt.from_timer0=1;
        LDI	R30, LOW(fl_wdt)
        LDI	R31, (fl_wdt) >> 8
        LD	R16, Z
        ORI	R16, 0x04
        ST	Z, R16
//  571    
//  572     __enable_interrupt();
        SEI
//  573    
//  574    
//  575    if(PING & TCC1)struct_tcc1.tek_pin=1;else struct_tcc1.tek_pin=0;
        LDI	R30, LOW(struct_tcc1)
        LDI	R31, (struct_tcc1) >> 8
        LD	R16, Z
        SBIS	0x12, 0x02
        RJMP	??TIMER0_COMPA_interrupt_0
        ORI	R16, 0x01
        RJMP	??TIMER0_COMPA_interrupt_1
??TIMER0_COMPA_interrupt_0:
        ANDI	R16, 0xFE
??TIMER0_COMPA_interrupt_1:
        ST	Z, R16
//  576    
//  577    if(struct_tcc1.fl_ch_tc==1)
        LD	R16, Z
        SBRS	R16, 2
        RJMP	??TIMER0_COMPA_interrupt_2
//  578      {
//  579        struct_tcc1.count_tc--;
        LDD	R16, Z+2
        LDD	R17, Z+3
        SUBI	R16, 1
        SBCI	R17, 0
        STD	Z+2, R16
        STD	Z+3, R17
//  580        if(struct_tcc1.count_tc==0)
        LDD	R16, Z+2
        LDD	R17, Z+3
        OR	R16, R17
        BRNE	??TIMER0_COMPA_interrupt_3
//  581        {
//  582          struct_tcc1.fl_ch_tc=0;
        LD	R16, Z
        ANDI	R16, 0xFB
        ST	Z, R16
//  583          struct_tcc1.real_tc=0x01 & (~struct_tcc1.tek_pin);
        LD	R16, Z
        ANDI	R16, 0x01
        COM	R16
        ANDI	R16, 0x01
        STD	Z+1, R16
        RJMP	??TIMER0_COMPA_interrupt_3
//  584        }
//  585      } 
//  586      else
//  587      {
//  588        if(struct_tcc1.tek_pin!=struct_tcc1.old_pin)
??TIMER0_COMPA_interrupt_2:
        LD	R16, Z
        ANDI	R16, 0x01
        LD	R17, Z
        BST	R17, 1
        LDI	R17, 0
        BLD	R17, 0
        CP	R16, R17
        BREQ	??TIMER0_COMPA_interrupt_3
//  589        {
//  590         struct_tcc1.fl_ch_tc=1;
        LD	R16, Z
        ORI	R16, 0x04
        ST	Z, R16
//  591         struct_tcc1.count_tc=882;
        LDI	R16, 114
        LDI	R17, 3
        STD	Z+2, R16
        STD	Z+3, R17
//  592        }
//  593      }
//  594     struct_tcc1.old_pin=struct_tcc1.tek_pin;
??TIMER0_COMPA_interrupt_3:
        LD	R16, Z
        ANDI	R16, 0x01
        BST	R16, 0
        LD	R16, Z
        BLD	R16, 1
        ST	Z, R16
//  595    
//  596  
//  597  }
        OUT	0x3F, R18
        LD	R16, Y+
        CFI R16 SameValue
        CFI CFA_Y Y+4
        LD	R17, Y+
        CFI R17 SameValue
        CFI CFA_Y Y+3
        LD	R18, Y+
        CFI R18 SameValue
        CFI CFA_Y Y+2
        LD	R30, Y+
        CFI R30 SameValue
        CFI CFA_Y Y+1
        LD	R31, Y+
        CFI R31 SameValue
        CFI CFA_Y Y+0
        RETI
        CFI EndBlock cfiBlock4
//  598 //////////////////////////////////////////////1/16000000///////////////////////////////////////////////
//  599 
//  600 
//  601 
//  602 //////////////////////////////////////////////////////////////////////////////////////////
//  603 #pragma vector=TIMER2_COMPA_vect     //1 ģčėėčńåźóķäą

        RSEG CODE:CODE:NOROOT(1)
//  604      __interrupt void TIMER2_COMPA_interrupt(void)
TIMER2_COMPA_interrupt:
        CFI Block cfiBlock5 Using cfiCommon1
        CFI Function TIMER2_COMPA_interrupt
//  605   {
        FUNCALL TIMER2_COMPA_interrupt, sending_ppp_pac
        LOCFRAME CSTACK, 20, STACK
        LOCFRAME RSTACK, 2, STACK
        FUNCALL TIMER2_COMPA_interrupt, sending_ppp_pac
        LOCFRAME CSTACK, 20, STACK
        LOCFRAME RSTACK, 2, STACK
        FUNCALL TIMER2_COMPA_interrupt, fun_state_md
        LOCFRAME CSTACK, 20, STACK
        LOCFRAME RSTACK, 2, STACK
        ST	-Y, R5
        CFI R5 Frame(CFA_Y, -1)
        CFI CFA_Y Y+1
        ST	-Y, R4
        CFI R4 Frame(CFA_Y, -2)
        CFI CFA_Y Y+2
        ST	-Y, R27
        CFI R27 Frame(CFA_Y, -3)
        CFI CFA_Y Y+3
        ST	-Y, R26
        CFI R26 Frame(CFA_Y, -4)
        CFI CFA_Y Y+4
        ST	-Y, R25
        CFI R25 Frame(CFA_Y, -5)
        CFI CFA_Y Y+5
        ST	-Y, R24
        CFI R24 Frame(CFA_Y, -6)
        CFI CFA_Y Y+6
        ST	-Y, R31
        CFI R31 Frame(CFA_Y, -7)
        CFI CFA_Y Y+7
        ST	-Y, R30
        CFI R30 Frame(CFA_Y, -8)
        CFI CFA_Y Y+8
        ST	-Y, R3
        CFI R3 Frame(CFA_Y, -9)
        CFI CFA_Y Y+9
        ST	-Y, R2
        CFI R2 Frame(CFA_Y, -10)
        CFI CFA_Y Y+10
        ST	-Y, R1
        CFI R1 Frame(CFA_Y, -11)
        CFI CFA_Y Y+11
        ST	-Y, R0
        CFI R0 Frame(CFA_Y, -12)
        CFI CFA_Y Y+12
        ST	-Y, R23
        CFI R23 Frame(CFA_Y, -13)
        CFI CFA_Y Y+13
        ST	-Y, R22
        CFI R22 Frame(CFA_Y, -14)
        CFI CFA_Y Y+14
        ST	-Y, R21
        CFI R21 Frame(CFA_Y, -15)
        CFI CFA_Y Y+15
        ST	-Y, R20
        CFI R20 Frame(CFA_Y, -16)
        CFI CFA_Y Y+16
        ST	-Y, R19
        CFI R19 Frame(CFA_Y, -17)
        CFI CFA_Y Y+17
        ST	-Y, R18
        CFI R18 Frame(CFA_Y, -18)
        CFI CFA_Y Y+18
        ST	-Y, R17
        CFI R17 Frame(CFA_Y, -19)
        CFI CFA_Y Y+19
        ST	-Y, R16
        CFI R16 Frame(CFA_Y, -20)
        CFI CFA_Y Y+20
        IN	R4, 0x3F
        IN	R5, 0x3B
        REQUIRE	?Register_R4_is_cg_reg
        REQUIRE	?Register_R5_is_cg_reg
//  606   
//  607    unsigned char temp;
//  608   
//  609     fl_wdt.from_timer2=1;
        LDI	R30, LOW(fl_wdt)
        LDI	R31, (fl_wdt) >> 8
        LD	R16, Z
        ORI	R16, 0x20
        ST	Z, R16
//  610     
//  611     cnt_clr_wdt++;
        LDI	R24, LOW(Rs485_1)
        LDI	R25, (Rs485_1) >> 8
        MOVW	R31:R30, R25:R24
        LDD	R16, Z+54
        INC	R16
        STD	Z+54, R16
//  612   if (cnt_clr_wdt>=250)
        LDD	R16, Z+54
        CPI	R16, 250
        BRCS	??TIMER2_COMPA_interrupt_0
//  613      {
//  614      cnt_clr_wdt=0;
        LDI	R16, 0
        STD	Z+54, R16
//  615      fl_wdt.clr_wdt=1;
        LDI	R30, LOW(fl_wdt)
        LDI	R31, (fl_wdt) >> 8
        LD	R16, Z
        ORI	R16, 0x01
        ST	Z, R16
//  616      cnt_flag_out++;
        MOVW	R31:R30, R25:R24
        LDD	R16, Z+55
        INC	R16
        STD	Z+55, R16
//  617      if (cnt_flag_out>=50)
        LDD	R16, Z+55
        CPI	R16, 50
        BRCS	??TIMER2_COMPA_interrupt_0
//  618        {
//  619         cnt_flag_out=0;
        LDI	R16, 0
        STD	Z+55, R16
//  620         fl_wdt.fl_out=1;
        LDI	R30, LOW(fl_wdt)
        LDI	R31, (fl_wdt) >> 8
        LD	R16, Z
        ORI	R16, 0x02
        ST	Z, R16
//  621        } 
//  622       }
//  623     
//  624    
//  625     if(fl_cts_232.on==1)
??TIMER2_COMPA_interrupt_0:
        LDI	R30, LOW(fl_cts_232)
        LDI	R31, (fl_cts_232) >> 8
        LD	R16, Z
        SBRS	R16, 0
        RJMP	??TIMER2_COMPA_interrupt_1
//  626     {
//  627       if(fl_cts_232_ignor==TRUE)
        LDS	R16, fl_cts_232_ignor
        CPI	R16, 1
        BRNE	??TIMER2_COMPA_interrupt_2
//  628             {
//  629              fl_cts_232.on=0;
        LD	R16, Z
        ANDI	R16, 0xFE
        ST	Z, R16
//  630              if(count_tx_ppp==0){S2_RD;UDR0=buf_tx_232[0];if(Regim==RG_DEBAG) UDR3=buf_tx_232[0];}
        LDI	R30, LOW(count_tx_ppp)
        LDI	R31, (count_tx_ppp) >> 8
        LD	R16, Z
        LDD	R17, Z+1
        OR	R16, R17
        BRNE	??TIMER2_COMPA_interrupt_3
        SBI	0x08, 0x00
        CBI	0x08, 0x01
        LDS	R16, buf_tx_232
        STS	198, R16
        LDS	R16, Regim
        CPI	R16, 2
        BRNE	??TIMER2_COMPA_interrupt_2
        LDS	R16, buf_tx_232
        STS	310, R16
        RJMP	??TIMER2_COMPA_interrupt_2
//  631                 else sending_ppp_pac();
??TIMER2_COMPA_interrupt_3:
        RCALL	sending_ppp_pac
//  632         ///     return;!!!!!!!!!!!!!!!!!!!!!!!!!!!!!!!!!!!!!!!!!!
//  633              }
//  634       
//  635      // if ((PINE & CTS0)==0)  
//  636       if (PINE & CTS0)  
??TIMER2_COMPA_interrupt_2:
        SBIS	0x0C, 0x04
        RJMP	??TIMER2_COMPA_interrupt_4
//  637       {
//  638         cnt_cts_off=0;
        LDI	R16, 0
        LDI	R30, LOW(cnt_cts_off)
        LDI	R31, (cnt_cts_off) >> 8
        ST	Z, R16
        STD	Z+1, R16
//  639         fl_cts_232.on=0; 
        LDI	R30, LOW(fl_cts_232)
        LDI	R31, (fl_cts_232) >> 8
        LD	R16, Z
        ANDI	R16, 0xFE
        ST	Z, R16
//  640         if(count_tx_ppp==0){S2_RD;UDR0=buf_tx_232[0];if(Regim==RG_DEBAG) UDR3=buf_tx_232[0];}
        LDI	R30, LOW(count_tx_ppp)
        LDI	R31, (count_tx_ppp) >> 8
        LD	R16, Z
        LDD	R17, Z+1
        OR	R16, R17
        BRNE	??TIMER2_COMPA_interrupt_5
        SBI	0x08, 0x00
        CBI	0x08, 0x01
        LDS	R16, buf_tx_232
        STS	198, R16
        LDS	R16, Regim
        CPI	R16, 2
        BRNE	??TIMER2_COMPA_interrupt_1
        LDS	R16, buf_tx_232
        STS	310, R16
        RJMP	??TIMER2_COMPA_interrupt_1
//  641            else sending_ppp_pac(); 
??TIMER2_COMPA_interrupt_5:
        RCALL	sending_ppp_pac
        RJMP	??TIMER2_COMPA_interrupt_1
//  642        } 
//  643        else
//  644         {
//  645         cnt_cts_off++;
??TIMER2_COMPA_interrupt_4:
        LDI	R30, LOW(cnt_cts_off)
        LDI	R31, (cnt_cts_off) >> 8
        LD	R16, Z
        LDD	R17, Z+1
        SUBI	R16, 255
        SBCI	R17, 255
        ST	Z, R16
        STD	Z+1, R17
//  646         if(cnt_cts_off>=10000)
        LD	R16, Z
        LDD	R17, Z+1
        CPI	R16, 16
        LDI	R18, 39
        CPC	R17, R18
        BRCS	??TIMER2_COMPA_interrupt_1
//  647            {
//  648            cnt_cts_off=0;
        LDI	R16, 0
        ST	Z, R16
        STD	Z+1, R16
//  649            event_modem=EVM_CTS_ERR;
        LDI	R16, 9
        STS	event_modem, R16
//  650            }
//  651         }
//  652     }
//  653   
//  654   
//  655    fun_state_md(); 
??TIMER2_COMPA_interrupt_1:
        CALL	fun_state_md
//  656  
//  657   
//  658   if(Buf1_rx_ppp.check_busy==TRUE)
        LDS	R16, (Buf1_rx_ppp + 334)
        CPI	R16, 1
        BRNE	??TIMER2_COMPA_interrupt_6
//  659      {
//  660       if(Buf1_rx_ppp.busy==FALSE)
        LDS	R16, (Buf1_rx_ppp + 333)
        TST	R16
        BRNE	??TIMER2_COMPA_interrupt_6
//  661       {
//  662       Buf1_rx_ppp.check_busy=FALSE;
        LDI	R16, 0
        STS	(Buf1_rx_ppp + 334), R16
//  663       temp=UDR0; 
        LDS	R16, 198
//  664       UCSR0B=UCSR0B | RXEN;
        LDS	R16, 193
        ORI	R16, 0x10
        STS	193, R16
//  665       UCSR0B=UCSR0B | RXCIE; 
        LDS	R16, 193
        ORI	R16, 0x80
        STS	193, R16
//  666       }    
//  667      }  
//  668   
//  669   if(Buf2_rx_ppp.check_busy==TRUE)
??TIMER2_COMPA_interrupt_6:
        LDS	R16, (Buf2_rx_ppp + 334)
        CPI	R16, 1
        BRNE	??TIMER2_COMPA_interrupt_7
//  670      {
//  671       if(Buf2_rx_ppp.busy==FALSE)
        LDS	R16, (Buf2_rx_ppp + 333)
        TST	R16
        BRNE	??TIMER2_COMPA_interrupt_7
//  672       {
//  673       Buf2_rx_ppp.check_busy=FALSE;
        LDI	R16, 0
        STS	(Buf2_rx_ppp + 334), R16
//  674       temp=UDR0; 
        LDS	R16, 198
//  675       UCSR0B=UCSR0B | RXEN;
        LDS	R16, 193
        ORI	R16, 0x10
        STS	193, R16
//  676       UCSR0B=UCSR0B | RXCIE; 
        LDS	R16, 193
        ORI	R16, 0x80
        STS	193, R16
//  677       }    
//  678      }   
//  679     
//  680     
//  681     
//  682   if (At_com.cnt_tm_out==0)goto next_step0; 
??TIMER2_COMPA_interrupt_7:
        LDI	R30, LOW(At_com)
        LDI	R31, (At_com) >> 8
        LDD	R16, Z+55
        LDD	R17, Z+56
        OR	R16, R17
        BREQ	??TIMER2_COMPA_interrupt_8
//  683    {
//  684    At_com.cnt_tm_out--;
        LDD	R16, Z+55
        LDD	R17, Z+56
        SUBI	R16, 1
        SBCI	R17, 0
        STD	Z+55, R16
        STD	Z+56, R17
//  685    if(At_com.cnt_tm_out==0)
        LDD	R16, Z+55
        LDD	R17, Z+56
        OR	R16, R17
        BRNE	??TIMER2_COMPA_interrupt_8
//  686      {
//  687      UCSR0B=UCSR0B & ~RXEN;
        LDS	R16, 193
        ANDI	R16, 0xEF
        STS	193, R16
//  688      UCSR0B=UCSR0B & ~RXCIE; 
        LDS	R16, 193
        ANDI	R16, 0x7F
        STS	193, R16
//  689      At_com.cnt_rx_out=0;
        LDI	R16, 0
        STD	Z+59, R16
        STD	Z+60, R16
//  690      fl_at_com.tm_out=1;
//  691      fl_at_com.rx_rec=0;
//  692      fl_at_com.rx_en=0;
//  693      fl_at_com.err=0;
//  694      fl_at_com.ok=0;
        LDI	R26, LOW(fl_at_com)
        LDI	R27, (fl_at_com) >> 8
        LD	R16, X
        ANDI	R16, 0xCC
        ST	X, R16
        LD	R16, X
        ORI	R16, 0x04
        ST	X, R16
//  695      }
//  696    }
//  697 
//  698 
//  699 
//  700    
//  701    
//  702    
//  703 next_step0:  
//  704 
//  705   if(At_com.cnt_rx_out==0)goto next_step1;
??TIMER2_COMPA_interrupt_8:
        LDD	R16, Z+59
        LDD	R17, Z+60
        OR	R16, R17
        BREQ	??TIMER2_COMPA_interrupt_9
//  706     At_com.cnt_rx_out--;
        LDD	R16, Z+59
        LDD	R17, Z+60
        SUBI	R16, 1
        SBCI	R17, 0
        STD	Z+59, R16
        STD	Z+60, R17
//  707     if(At_com.cnt_rx_out==0)
        LDD	R16, Z+59
        LDD	R17, Z+60
        OR	R16, R17
        BRNE	??TIMER2_COMPA_interrupt_9
//  708     {
//  709      UCSR0B=UCSR0B & ~RXEN;
        LDS	R16, 193
        ANDI	R16, 0xEF
        STS	193, R16
//  710      UCSR0B=UCSR0B & ~RXCIE;
        LDS	R16, 193
        ANDI	R16, 0x7F
        STS	193, R16
//  711      fl_at_com.rx_rec=1; 
        LDI	R30, LOW(fl_at_com)
        LDI	R31, (fl_at_com) >> 8
        LD	R16, Z
        ORI	R16, 0x20
        ST	Z, R16
//  712      S2_OFF;
        CBI	0x08, 0x00
        CBI	0x08, 0x01
//  713     } //ń÷åņ÷čź ģåęįąéņīāūé ļšīģåęóņīź
//  714 next_step1:
//  715    
//  716     
//  717     
//  718   //!!!!!!!!!!!!!!!!!!!!!!!!!!!!!!!!!!!!!!!!!!!!!!!!!!!!!!!!!!!!!!!!!!!!!!!!!!!!!11
//  719     //īįšąįīņźą ļī ļīšņó RS-485 ¹1
//  720     if(Rs485_1.cnt_tm_pre_tx==0) goto  nxt_step2;
??TIMER2_COMPA_interrupt_9:
        MOVW	R31:R30, R25:R24
        LDD	R16, Z+4
        LDD	R17, Z+5
        OR	R16, R17
        BREQ	??TIMER2_COMPA_interrupt_10
//  721     Rs485_1.cnt_tm_pre_tx--;
        LDD	R16, Z+4
        LDD	R17, Z+5
        SUBI	R16, 1
        SBCI	R17, 0
        STD	Z+4, R16
        STD	Z+5, R17
//  722     if(Rs485_1.cnt_tm_pre_tx==0) UCSR3B=UCSR3B | UDRIE;  // enable transmit 485_1 
        LDD	R16, Z+4
        LDD	R17, Z+5
        OR	R16, R17
        BRNE	??TIMER2_COMPA_interrupt_10
        LDS	R16, 305
        ORI	R16, 0x20
        STS	305, R16
//  723 
//  724   nxt_step2:
//  725                        
//  726                 if(Rs485_1.cnt_tm_out==0) goto nxt_step3;
??TIMER2_COMPA_interrupt_10:
        LDD	R16, Z+12
        LDD	R17, Z+13
        OR	R16, R17
        BREQ	??TIMER2_COMPA_interrupt_11
//  727                 Rs485_1.cnt_tm_out--;
        LDD	R16, Z+12
        LDD	R17, Z+13
        SUBI	R16, 1
        SBCI	R17, 0
        STD	Z+12, R16
        STD	Z+13, R17
//  728                 if(Rs485_1.cnt_tm_out==0){
        LDD	R16, Z+12
        LDD	R17, Z+13
        OR	R16, R17
        BRNE	??TIMER2_COMPA_interrupt_11
//  729                                           S3_OFF;
        CBI	0x08, 0x02
        CBI	0x08, 0x03
//  730                                           UCSR3B =UCSR3B & ~(RXEN | RXCIE);
        LDS	R16, 305
        ANDI	R16, 0x6F
        STS	305, R16
//  731                                           Rs485_1.cnt_bt_rx_tx=0;
        LDI	R16, 0
        ST	Z, R16
        STD	Z+1, R16
//  732                                           Rs485_1.cnt_tm_rx_out=0;
        STD	Z+8, R16
        STD	Z+9, R16
//  733                                           fl_485_1.rec=0;
//  734                                           fl_485_1.tm_out=1;
        LDD	R16, Z+58
        ANDI	R16, 0xFD
        ORI	R16, 0x04
        STD	Z+58, R16
//  735                                          }                              
//  736  nxt_step3:      
//  737           
//  738  
//  739                  if(Rs485_1.cnt_tm_rx_out==0) goto nxt_step4;
??TIMER2_COMPA_interrupt_11:
        LDD	R16, Z+8
        LDD	R17, Z+9
        OR	R16, R17
        BREQ	??TIMER2_COMPA_interrupt_12
//  740                     Rs485_1.cnt_tm_rx_out--;
        LDD	R16, Z+8
        LDD	R17, Z+9
        SUBI	R16, 1
        SBCI	R17, 0
        STD	Z+8, R16
        STD	Z+9, R17
//  741                    if(Rs485_1.cnt_tm_rx_out==0)
        LDD	R16, Z+8
        LDD	R17, Z+9
        OR	R16, R17
        BRNE	??TIMER2_COMPA_interrupt_12
//  742                    {
//  743                      S3_OFF;
        CBI	0x08, 0x02
        CBI	0x08, 0x03
//  744                      fl_485_1.rec=1;
        LDD	R16, Z+58
        ORI	R16, 0x02
        STD	Z+58, R16
//  745                      Rs485_1.cnt_tm_out=0;
        LDI	R16, 0
        STD	Z+12, R16
        STD	Z+13, R16
//  746                      fl_485_1.tm_out=0;  
        LDD	R16, Z+58
        ANDI	R16, 0xFB
        STD	Z+58, R16
//  747                      UCSR3B =UCSR3B & ~(RXEN | RXCIE);
        LDS	R16, 305
        ANDI	R16, 0x6F
        STS	305, R16
//  748                     } 
//  749  nxt_step4:                  
//  750                 if(Rs485_1.cnt_tm_tx_out==0) goto lable_tm21;
??TIMER2_COMPA_interrupt_12:
        LDD	R16, Z+2
        LDD	R17, Z+3
        OR	R16, R17
        BREQ	??TIMER2_COMPA_interrupt_13
//  751                 Rs485_1.cnt_tm_tx_out--;
        LDD	R16, Z+2
        LDD	R17, Z+3
        SUBI	R16, 1
        SBCI	R17, 0
        STD	Z+2, R16
        STD	Z+3, R17
//  752                 if(Rs485_1.cnt_tm_tx_out==1) {CLR_RTS1;} /*togle to receiv mode*/ 
        LDD	R16, Z+2
        LDD	R17, Z+3
        CPI	R16, 1
        LDI	R18, 0
        CPC	R17, R18
        BRNE	??TIMER2_COMPA_interrupt_14
        LDS	R16, 261
        ANDI	R16, 0xFB
        STS	261, R16
//  753                 if(Rs485_1.cnt_tm_tx_out==0){S3_OFF;Rs485_1.cnt_tm_out=Rs485_1.vol_tm_out;UCSR3B =UCSR3B | RXEN | RXCIE;} // togle to receiv mode ;
??TIMER2_COMPA_interrupt_14:
        LDD	R16, Z+2
        LDD	R17, Z+3
        OR	R16, R17
        BRNE	??TIMER2_COMPA_interrupt_13
        CBI	0x08, 0x02
        CBI	0x08, 0x03
        LDD	R16, Z+14
        LDD	R17, Z+15
        STD	Z+12, R16
        STD	Z+13, R17
        LDS	R16, 305
        ORI	R16, 0x90
        STS	305, R16
//  754                 
//  755  //EEEEEEEEEEEEEEEEEEEEEEEEEEEEEEEEEEEEEEEEEEEEEEEEEEEEEEEEEEEEEEEEEEEEEEEEEEEEEEEEEEEEEEEEEEEEEEEEEEEEEEEEEEEEEEEE                
//  756  
//  757   
//  758                 
//  759                 
//  760   lable_tm21:               
//  761  //!!!!!!!!!!!!!!!!!!!!!!!!!!!!!!!!!!!!!!!!!!!!!!!!!!!!!!!!!!!!!!!!!!!!!!!!!!!!!11
//  762     //īįšąįīņźą ļī ļīšņó RS-485 ¹2
//  763     if(Rs485_2.cnt_tm_pre_tx==0) goto  next_step2;
??TIMER2_COMPA_interrupt_13:
        LDD	R16, Z+22
        LDD	R17, Z+23
        OR	R16, R17
        BREQ	??TIMER2_COMPA_interrupt_15
//  764     Rs485_2.cnt_tm_pre_tx--;
        LDD	R16, Z+22
        LDD	R17, Z+23
        SUBI	R16, 1
        SBCI	R17, 0
        STD	Z+22, R16
        STD	Z+23, R17
//  765     if(Rs485_2.cnt_tm_pre_tx==0) UCSR1B=UCSR1B | UDRIE;  // enable transmit 485_1 
        LDD	R16, Z+22
        LDD	R17, Z+23
        OR	R16, R17
        BRNE	??TIMER2_COMPA_interrupt_15
        LDS	R16, 201
        ORI	R16, 0x20
        STS	201, R16
//  766 
//  767   next_step2:
//  768                        
//  769                 if(Rs485_2.cnt_tm_out==0) goto next_step3;
??TIMER2_COMPA_interrupt_15:
        LDD	R16, Z+30
        LDD	R17, Z+31
        OR	R16, R17
        BREQ	??TIMER2_COMPA_interrupt_16
//  770                 Rs485_2.cnt_tm_out--;
        LDD	R16, Z+30
        LDD	R17, Z+31
        SUBI	R16, 1
        SBCI	R17, 0
        STD	Z+30, R16
        STD	Z+31, R17
//  771                 if(Rs485_2.cnt_tm_out==0){
        LDD	R16, Z+30
        LDD	R17, Z+31
        OR	R16, R17
        BRNE	??TIMER2_COMPA_interrupt_16
//  772                                           S4_OFF;
        CBI	0x08, 0x04
        CBI	0x08, 0x05
//  773                                           UCSR1B =UCSR1B & ~(RXEN | RXCIE);
        LDS	R16, 201
        ANDI	R16, 0x6F
        STS	201, R16
//  774                                           Rs485_2.cnt_bt_rx_tx=0;
        LDI	R16, 0
        STD	Z+18, R16
        STD	Z+19, R16
//  775                                           Rs485_2.cnt_tm_rx_out=0;
        STD	Z+26, R16
        STD	Z+27, R16
//  776                                           fl_485_2.rec=0;
//  777                                           fl_485_2.tm_out=1;
        LDD	R16, Z+59
        ANDI	R16, 0xFD
        ORI	R16, 0x04
        STD	Z+59, R16
//  778                                          }                              
//  779  next_step3:      
//  780           
//  781  
//  782                  if(Rs485_2.cnt_tm_rx_out==0) goto next_step4;
??TIMER2_COMPA_interrupt_16:
        LDD	R16, Z+26
        LDD	R17, Z+27
        OR	R16, R17
        BREQ	??TIMER2_COMPA_interrupt_17
//  783                     Rs485_2.cnt_tm_rx_out--;
        LDD	R16, Z+26
        LDD	R17, Z+27
        SUBI	R16, 1
        SBCI	R17, 0
        STD	Z+26, R16
        STD	Z+27, R17
//  784                    if(Rs485_2.cnt_tm_rx_out==0)
        LDD	R16, Z+26
        LDD	R17, Z+27
        OR	R16, R17
        BRNE	??TIMER2_COMPA_interrupt_17
//  785                    {
//  786                      S4_OFF;
        CBI	0x08, 0x04
        CBI	0x08, 0x05
//  787                      fl_485_2.rec=1;
        LDD	R16, Z+59
        ORI	R16, 0x02
        STD	Z+59, R16
//  788                      Rs485_2.cnt_tm_out=0;
        LDI	R16, 0
        STD	Z+30, R16
        STD	Z+31, R16
//  789                      fl_485_2.tm_out=0;  
        LDD	R16, Z+59
        ANDI	R16, 0xFB
        STD	Z+59, R16
//  790                      UCSR1B =UCSR1B & ~(RXEN | RXCIE);
        LDS	R16, 201
        ANDI	R16, 0x6F
        STS	201, R16
//  791                     } 
//  792  next_step4:                  
//  793                 if(Rs485_2.cnt_tm_tx_out==0) goto lable_tm22;
??TIMER2_COMPA_interrupt_17:
        LDD	R16, Z+20
        LDD	R17, Z+21
        OR	R16, R17
        BREQ	??TIMER2_COMPA_interrupt_18
//  794                 Rs485_2.cnt_tm_tx_out--;
        LDD	R16, Z+20
        LDD	R17, Z+21
        SUBI	R16, 1
        SBCI	R17, 0
        STD	Z+20, R16
        STD	Z+21, R17
//  795                 if(Rs485_2.cnt_tm_tx_out==1) {CLR_RTS3; } /*togle to receiv mode*/ 
        LDD	R16, Z+20
        LDD	R17, Z+21
        CPI	R16, 1
        LDI	R18, 0
        CPC	R17, R18
        BRNE	??TIMER2_COMPA_interrupt_19
        CBI	0x0B, 0x04
//  796                 if(Rs485_2.cnt_tm_tx_out==0){S4_OFF;Rs485_2.cnt_tm_out=Rs485_2.vol_tm_out;UCSR1B =UCSR1B | RXEN | RXCIE;} // togle to receiv mode ;
??TIMER2_COMPA_interrupt_19:
        LDD	R16, Z+20
        LDD	R17, Z+21
        OR	R16, R17
        BRNE	??TIMER2_COMPA_interrupt_18
        CBI	0x08, 0x04
        CBI	0x08, 0x05
        LDD	R16, Z+32
        LDD	R17, Z+33
        STD	Z+30, R16
        STD	Z+31, R17
        LDS	R16, 201
        ORI	R16, 0x90
        STS	201, R16
//  797                 
//  798  //EEEEEEEEEEEEEEEEEEEEEEEEEEEEEEEEEEEEEEEEEEEEEEEEEEEEEEEEEEEEEEEEEEEEEEEEEEEEEEEEEEEEEEEEEEEEEEEEEEEEEEEEEEEEEEEE              
//  799                 
//  800  
//  801    lable_tm22:               
//  802  //!!!!!!!!!!!!!!!!!!!!!!!!!!!!!!!!!!!!!!!!!!!!!!!!!!!!!!!!!!!!!!!!!!!!!!!!!!!!!11
//  803     //īįšąįīņźą ļī ļīšņó RS-232 ¹2
//  804     if(Rs232_2.cnt_tm_pre_tx==0) goto  nt_step2;
??TIMER2_COMPA_interrupt_18:
        LDD	R16, Z+40
        LDD	R17, Z+41
        OR	R16, R17
        BREQ	??TIMER2_COMPA_interrupt_20
//  805     Rs232_2.cnt_tm_pre_tx--;
        LDD	R16, Z+40
        LDD	R17, Z+41
        SUBI	R16, 1
        SBCI	R17, 0
        STD	Z+40, R16
        STD	Z+41, R17
//  806     if(Rs232_2.cnt_tm_pre_tx==0) UCSR2B=UCSR2B | UDRIE;  // enable transmit 232_1 
        LDD	R16, Z+40
        LDD	R17, Z+41
        OR	R16, R17
        BRNE	??TIMER2_COMPA_interrupt_20
        LDS	R16, 209
        ORI	R16, 0x20
        STS	209, R16
//  807 
//  808   nt_step2:
//  809                        
//  810                 if(Rs232_2.cnt_tm_out==0) goto nt_step3;
??TIMER2_COMPA_interrupt_20:
        LDD	R16, Z+48
        LDD	R17, Z+49
        OR	R16, R17
        BREQ	??TIMER2_COMPA_interrupt_21
//  811                 Rs232_2.cnt_tm_out--;
        LDD	R16, Z+48
        LDD	R17, Z+49
        SUBI	R16, 1
        SBCI	R17, 0
        STD	Z+48, R16
        STD	Z+49, R17
//  812                 if(Rs232_2.cnt_tm_out==0){
        LDD	R16, Z+48
        LDD	R17, Z+49
        OR	R16, R17
        BRNE	??TIMER2_COMPA_interrupt_21
//  813                                        
//  814                                           S5_OFF;
        CBI	0x08, 0x06
        CBI	0x08, 0x07
//  815                                           UCSR2B =UCSR2B & ~(RXEN | RXCIE);
        LDS	R16, 209
        ANDI	R16, 0x6F
        STS	209, R16
//  816                                           Rs232_2.cnt_bt_rx_tx=0;
        LDI	R16, 0
        STD	Z+36, R16
        STD	Z+37, R16
//  817                                           Rs232_2.cnt_tm_rx_out=0;
        STD	Z+44, R16
        STD	Z+45, R16
//  818                                           fl_232_2.rec=0;
//  819                                           fl_232_2.tm_out=1;
        ADIW	R31:R30, 60
        LD	R16, Z
        ANDI	R16, 0xFD
        ORI	R16, 0x04
        MOVW	R31:R30, R25:R24
        ADIW	R31:R30, 60
        ST	Z, R16
//  820                                          }                              
//  821  nt_step3:      
//  822           
//  823  
//  824                  if(Rs232_2.cnt_tm_rx_out==0) goto nt_step4;
??TIMER2_COMPA_interrupt_21:
        MOVW	R31:R30, R25:R24
        LDD	R16, Z+44
        LDD	R17, Z+45
        OR	R16, R17
        BREQ	??TIMER2_COMPA_interrupt_22
//  825                     Rs232_2.cnt_tm_rx_out--;
        LDD	R16, Z+44
        LDD	R17, Z+45
        SUBI	R16, 1
        SBCI	R17, 0
        STD	Z+44, R16
        STD	Z+45, R17
//  826                    if(Rs232_2.cnt_tm_rx_out==0)
        LDD	R16, Z+44
        LDD	R17, Z+45
        OR	R16, R17
        BRNE	??TIMER2_COMPA_interrupt_22
//  827                    {
//  828                      S5_OFF;
        CBI	0x08, 0x06
        CBI	0x08, 0x07
//  829                      fl_232_2.rec=1;
        ADIW	R31:R30, 60
        LD	R16, Z
        ORI	R16, 0x02
        ST	Z, R16
//  830                      Rs232_2.cnt_tm_out=0;
        LDI	R16, 0
        MOVW	R31:R30, R25:R24
        STD	Z+48, R16
        STD	Z+49, R16
//  831                      fl_232_2.tm_out=0;  
        ADIW	R31:R30, 60
        LD	R16, Z
        ANDI	R16, 0xFB
        ST	Z, R16
//  832                      UCSR2B =UCSR2B & ~(RXEN | RXCIE);
        LDS	R16, 209
        ANDI	R16, 0x6F
        STS	209, R16
//  833                     } 
//  834  nt_step4:                  
//  835                 if(Rs232_2.cnt_tm_tx_out==0) goto lable_tm23;
??TIMER2_COMPA_interrupt_22:
        MOVW	R31:R30, R25:R24
        LDD	R16, Z+38
        LDD	R17, Z+39
        OR	R16, R17
        BREQ	??TIMER2_COMPA_interrupt_23
//  836                 Rs232_2.cnt_tm_tx_out--;
        LDD	R16, Z+38
        LDD	R17, Z+39
        SUBI	R16, 1
        SBCI	R17, 0
        STD	Z+38, R16
        STD	Z+39, R17
//  837                 if(Rs232_2.cnt_tm_tx_out==1) {CLR_RTS2;} /*togle to receiv mode*/ 
        LDD	R16, Z+38
        LDD	R17, Z+39
        CPI	R16, 1
        LDI	R18, 0
        CPC	R17, R18
        BRNE	??TIMER2_COMPA_interrupt_24
        LDS	R16, 258
        ORI	R16, 0x04
        STS	258, R16
//  838                 if(Rs232_2.cnt_tm_tx_out==0){S5_OFF;Rs232_2.cnt_tm_out=Rs232_2.vol_tm_out;UCSR2B =UCSR2B | RXEN | RXCIE;} // togle to receiv mode ;
??TIMER2_COMPA_interrupt_24:
        LDD	R16, Z+38
        LDD	R17, Z+39
        OR	R16, R17
        BRNE	??TIMER2_COMPA_interrupt_23
        CBI	0x08, 0x06
        CBI	0x08, 0x07
        LDD	R16, Z+50
        LDD	R17, Z+51
        STD	Z+48, R16
        STD	Z+49, R17
        LDS	R16, 209
        ORI	R16, 0x90
        STS	209, R16
//  839                 
//  840  //EEEEEEEEEEEEEEEEEEEEEEEEEEEEEEEEEEEEEEEEEEEEEEEEEEEEEEEEEEEEEEEEEEEEEEEEEEEEEEEEEEEEEEEEEEEEEEEEEEEEEEEEEEEEEEEE                   
//  841                 
//  842   lable_tm23:
//  843     
//  844     
//  845     ///ņąéģåš šåńņąšņą LCP
//  846     if(fl_lcp.lcp_tm_out_en==1)
??TIMER2_COMPA_interrupt_23:
        LDI	R30, LOW(fl_lcp)
        LDI	R31, (fl_lcp) >> 8
        LD	R16, Z
        SBRS	R16, 1
        RJMP	??TIMER2_COMPA_interrupt_25
//  847        {                 
//  848                cnt_lcp_tm_out--;
        LDI	R30, LOW(cnt_lcp_tm_out)
        LDI	R31, (cnt_lcp_tm_out) >> 8
        LD	R16, Z
        LDD	R17, Z+1
        SUBI	R16, 1
        SBCI	R17, 0
        ST	Z, R16
        STD	Z+1, R17
//  849                if(cnt_lcp_tm_out==0)
        LD	R16, Z
        LDD	R17, Z+1
        OR	R16, R17
        BRNE	??TIMER2_COMPA_interrupt_25
//  850                   {
//  851                   cnt_lcp_tm_out=VOL_LCP_TM_OUT;
        LDI	R16, 184
        LDI	R17, 11
        ST	Z, R16
        STD	Z+1, R17
//  852                   if(cnt_rst_lcp==0)
        LDS	R16, cnt_rst_lcp
        TST	R16
        BRNE	??TIMER2_COMPA_interrupt_26
//  853                      {   
//  854                       cnt_lcp_tm_out=vol_cnt_rst_lcp;
        LDS	R16, vol_cnt_rst_lcp
        LDI	R17, 0
        ST	Z, R16
        STD	Z+1, R17
//  855                       fl_lcp.t0_mi=1;
        LDI	R30, LOW(fl_lcp)
        LDI	R31, (fl_lcp) >> 8
        LD	R16, Z
        ORI	R16, 0x08
        RJMP	??TIMER2_COMPA_interrupt_27
//  856                      }
//  857                      else 
//  858                        {
//  859                        cnt_rst_lcp--;
??TIMER2_COMPA_interrupt_26:
        LDI	R30, LOW(cnt_rst_lcp)
        LDI	R31, (cnt_rst_lcp) >> 8
        LD	R16, Z
        DEC	R16
        ST	Z, R16
//  860                        fl_lcp.t0_pl=1;       
        LDI	R30, LOW(fl_lcp)
        LDI	R31, (fl_lcp) >> 8
        LD	R16, Z
        ORI	R16, 0x04
??TIMER2_COMPA_interrupt_27:
        ST	Z, R16
//  861                        } 
//  862                   } 
//  863        
//  864        }
//  865  //////////////////////////////////////////
//  866  
//  867  ///ņąéģåš šåńņąšņą PAP
//  868     if(fl_pap.pap_tm_out_en==1)
??TIMER2_COMPA_interrupt_25:
        LDI	R30, LOW(fl_pap)
        LDI	R31, (fl_pap) >> 8
        LD	R16, Z
        SBRS	R16, 1
        RJMP	??TIMER2_COMPA_interrupt_28
//  869        {                 
//  870                cnt_pap_tm_out--;
        LDI	R30, LOW(cnt_pap_tm_out)
        LDI	R31, (cnt_pap_tm_out) >> 8
        LD	R16, Z
        LDD	R17, Z+1
        SUBI	R16, 1
        SBCI	R17, 0
        ST	Z, R16
        STD	Z+1, R17
//  871                if(cnt_pap_tm_out==0)
        LD	R16, Z
        LDD	R17, Z+1
        OR	R16, R17
        BRNE	??TIMER2_COMPA_interrupt_28
//  872                   {
//  873                   cnt_pap_tm_out=VOL_PAP_TM_OUT;
        LDI	R16, 184
        LDI	R17, 11
        ST	Z, R16
        STD	Z+1, R17
//  874                   if(cnt_rst_pap==0)
        LDS	R16, cnt_rst_pap
        TST	R16
        BRNE	??TIMER2_COMPA_interrupt_29
//  875                      {   
//  876                       cnt_pap_tm_out=vol_cnt_rst_pap;
        LDS	R16, vol_cnt_rst_pap
        LDI	R17, 0
        ST	Z, R16
        STD	Z+1, R17
//  877                       fl_pap.t0_mi=1;
        LDI	R30, LOW(fl_pap)
        LDI	R31, (fl_pap) >> 8
        LD	R16, Z
        ORI	R16, 0x08
        RJMP	??TIMER2_COMPA_interrupt_30
//  878                      }
//  879                      else 
//  880                        {
//  881                        cnt_rst_pap--;
??TIMER2_COMPA_interrupt_29:
        LDI	R30, LOW(cnt_rst_pap)
        LDI	R31, (cnt_rst_pap) >> 8
        LD	R16, Z
        DEC	R16
        ST	Z, R16
//  882                        fl_pap.t0_pl=1; 
        LDI	R30, LOW(fl_pap)
        LDI	R31, (fl_pap) >> 8
        LD	R16, Z
        ORI	R16, 0x04
??TIMER2_COMPA_interrupt_30:
        ST	Z, R16
//  883                        } 
//  884                   } 
//  885        
//  886        }
//  887  //////////////////////////////////////////
//  888  
//  889  ///ņąéģåš šåńņąšņą IPCP
//  890     if(fl_ipcp.ipcp_tm_out_en==1)
??TIMER2_COMPA_interrupt_28:
        LDI	R30, LOW(fl_ipcp)
        LDI	R31, (fl_ipcp) >> 8
        LD	R16, Z
        SBRS	R16, 1
        RJMP	??TIMER2_COMPA_interrupt_31
//  891        {                 
//  892                cnt_ipcp_tm_out--;
        LDI	R30, LOW(cnt_ipcp_tm_out)
        LDI	R31, (cnt_ipcp_tm_out) >> 8
        LD	R16, Z
        LDD	R17, Z+1
        SUBI	R16, 1
        SBCI	R17, 0
        ST	Z, R16
        STD	Z+1, R17
//  893                if(cnt_ipcp_tm_out==0)
        LD	R16, Z
        LDD	R17, Z+1
        OR	R16, R17
        BRNE	??TIMER2_COMPA_interrupt_31
//  894                   {
//  895                   cnt_ipcp_tm_out=VOL_IPCP_TM_OUT;
        LDI	R16, 184
        LDI	R17, 11
        ST	Z, R16
        STD	Z+1, R17
//  896                   if(cnt_rst_ipcp==0)
        LDS	R16, cnt_rst_ipcp
        TST	R16
        BRNE	??TIMER2_COMPA_interrupt_32
//  897                      {   
//  898                       cnt_ipcp_tm_out=vol_cnt_rst_ipcp;
        LDS	R16, vol_cnt_rst_ipcp
        LDI	R17, 0
        ST	Z, R16
        STD	Z+1, R17
//  899                       fl_ipcp.t0_mi=1;
        LDI	R30, LOW(fl_ipcp)
        LDI	R31, (fl_ipcp) >> 8
        LD	R16, Z
        ORI	R16, 0x08
        RJMP	??TIMER2_COMPA_interrupt_33
//  900                      }
//  901                      else 
//  902                        {  
//  903                        cnt_rst_ipcp--;
??TIMER2_COMPA_interrupt_32:
        LDI	R30, LOW(cnt_rst_ipcp)
        LDI	R31, (cnt_rst_ipcp) >> 8
        LD	R16, Z
        DEC	R16
        ST	Z, R16
//  904                        fl_ipcp.t0_pl=1; 
        LDI	R30, LOW(fl_ipcp)
        LDI	R31, (fl_ipcp) >> 8
        LD	R16, Z
        ORI	R16, 0x04
??TIMER2_COMPA_interrupt_33:
        ST	Z, R16
//  905                        } 
//  906                   } 
//  907        
//  908        }
//  909                 
//  910                 
//  911   }
??TIMER2_COMPA_interrupt_31:
        OUT	0x3B, R5
        OUT	0x3F, R4
        LD	R16, Y+
        CFI R16 SameValue
        CFI CFA_Y Y+19
        LD	R17, Y+
        CFI R17 SameValue
        CFI CFA_Y Y+18
        LD	R18, Y+
        CFI R18 SameValue
        CFI CFA_Y Y+17
        LD	R19, Y+
        CFI R19 SameValue
        CFI CFA_Y Y+16
        LD	R20, Y+
        CFI R20 SameValue
        CFI CFA_Y Y+15
        LD	R21, Y+
        CFI R21 SameValue
        CFI CFA_Y Y+14
        LD	R22, Y+
        CFI R22 SameValue
        CFI CFA_Y Y+13
        LD	R23, Y+
        CFI R23 SameValue
        CFI CFA_Y Y+12
        LD	R0, Y+
        CFI R0 SameValue
        CFI CFA_Y Y+11
        LD	R1, Y+
        CFI R1 SameValue
        CFI CFA_Y Y+10
        LD	R2, Y+
        CFI R2 SameValue
        CFI CFA_Y Y+9
        LD	R3, Y+
        CFI R3 SameValue
        CFI CFA_Y Y+8
        LD	R30, Y+
        CFI R30 SameValue
        CFI CFA_Y Y+7
        LD	R31, Y+
        CFI R31 SameValue
        CFI CFA_Y Y+6
        LD	R24, Y+
        CFI R24 SameValue
        CFI CFA_Y Y+5
        LD	R25, Y+
        CFI R25 SameValue
        CFI CFA_Y Y+4
        LD	R26, Y+
        CFI R26 SameValue
        CFI CFA_Y Y+3
        LD	R27, Y+
        CFI R27 SameValue
        CFI CFA_Y Y+2
        LD	R4, Y+
        CFI R4 SameValue
        CFI CFA_Y Y+1
        LD	R5, Y+
        CFI R5 SameValue
        CFI CFA_Y Y+0
        RETI
        CFI EndBlock cfiBlock5
//  912 ///////////////////////////////////////////////////////////////////////////////////////////////////
//  913 
//  914 
//  915 
//  916 
//  917 /////////////////////////////////////////////////////////////////////////////////////////////////////////
//  918 #pragma vector=TIMER3_COMPA_vect 

        RSEG CODE:CODE:NOROOT(1)
//  919      __interrupt void TIMER3_COMPA_interrupt(void)
TIMER3_COMPA_interrupt:
        CFI Block cfiBlock6 Using cfiCommon1
        CFI Function TIMER3_COMPA_interrupt
//  920     { 
        FUNCALL TIMER3_COMPA_interrupt, lock_it
        LOCFRAME CSTACK, 18, STACK
        LOCFRAME RSTACK, 2, STACK
        ST	-Y, R27
        CFI R27 Frame(CFA_Y, -1)
        CFI CFA_Y Y+1
        ST	-Y, R26
        CFI R26 Frame(CFA_Y, -2)
        CFI CFA_Y Y+2
        ST	-Y, R25
        CFI R25 Frame(CFA_Y, -3)
        CFI CFA_Y Y+3
        ST	-Y, R24
        CFI R24 Frame(CFA_Y, -4)
        CFI CFA_Y Y+4
        ST	-Y, R31
        CFI R31 Frame(CFA_Y, -5)
        CFI CFA_Y Y+5
        ST	-Y, R30
        CFI R30 Frame(CFA_Y, -6)
        CFI CFA_Y Y+6
        ST	-Y, R3
        CFI R3 Frame(CFA_Y, -7)
        CFI CFA_Y Y+7
        ST	-Y, R2
        CFI R2 Frame(CFA_Y, -8)
        CFI CFA_Y Y+8
        ST	-Y, R1
        CFI R1 Frame(CFA_Y, -9)
        CFI CFA_Y Y+9
        ST	-Y, R0
        CFI R0 Frame(CFA_Y, -10)
        CFI CFA_Y Y+10
        ST	-Y, R23
        CFI R23 Frame(CFA_Y, -11)
        CFI CFA_Y Y+11
        ST	-Y, R22
        CFI R22 Frame(CFA_Y, -12)
        CFI CFA_Y Y+12
        ST	-Y, R21
        CFI R21 Frame(CFA_Y, -13)
        CFI CFA_Y Y+13
        ST	-Y, R20
        CFI R20 Frame(CFA_Y, -14)
        CFI CFA_Y Y+14
        ST	-Y, R19
        CFI R19 Frame(CFA_Y, -15)
        CFI CFA_Y Y+15
        ST	-Y, R18
        CFI R18 Frame(CFA_Y, -16)
        CFI CFA_Y Y+16
        ST	-Y, R17
        CFI R17 Frame(CFA_Y, -17)
        CFI CFA_Y Y+17
        ST	-Y, R16
        CFI R16 Frame(CFA_Y, -18)
        CFI CFA_Y Y+18
        IN	R24, 0x3F
        IN	R25, 0x3B
//  921  
//  922       
//  923          fl_wdt.from_timer3=1;
        LDI	R30, LOW(fl_wdt)
        LDI	R31, (fl_wdt) >> 8
        LD	R16, Z
        ORI	R16, 0x10
        ST	Z, R16
//  924       
//  925     /*
//  926     if((PINB & CTS_232)==CTS_232)
//  927                     { 
//  928                     cnt_term++;
//  929                     if(cnt_term>=4)lock_it();
//  930                     }
//  931                     else cnt_term=0;
//  932    */ 
//  933     
//  934     
//  935     if(count_block_net!=0) count_block_net--;
        LDS	R16, count_block_net
        TST	R16
        BREQ	??TIMER3_COMPA_interrupt_0
        LDI	R30, LOW(count_block_net)
        LDI	R31, (count_block_net) >> 8
        LD	R16, Z
        DEC	R16
        ST	Z, R16
//  936     
//  937    
//  938       if(Appl_seq.cntr_cl==TRUE)
??TIMER3_COMPA_interrupt_0:
        LDI	R26, LOW(Appl_seq)
        LDI	R27, (Appl_seq) >> 8
        MOVW	R31:R30, R27:R26
        LDD	R16, Z+20
        CPI	R16, 1
        BRNE	??TIMER3_COMPA_interrupt_1
//  939       {
//  940       if(Appl_seq.cnt_cntr_cl!=0) 
        LDD	R16, Z+22
        LDD	R17, Z+23
        OR	R16, R17
        BREQ	??TIMER3_COMPA_interrupt_1
//  941          {
//  942          Appl_seq.cnt_cntr_cl--;
        LDD	R16, Z+22
        LDD	R17, Z+23
        SUBI	R16, 1
        SBCI	R17, 0
        STD	Z+22, R16
        STD	Z+23, R17
//  943          if(Appl_seq.cnt_cntr_cl==0) Appl_seq.en_cntr_cl=TRUE;
        LDD	R16, Z+22
        LDD	R17, Z+23
        OR	R16, R17
        BRNE	??TIMER3_COMPA_interrupt_1
        LDI	R16, 1
        STD	Z+21, R16
//  944          } 
//  945       }
//  946       
//  947       
//  948       if(cnt_stm_tm1==0)goto next_tm00;  
??TIMER3_COMPA_interrupt_1:
        LDS	R16, cnt_stm_tm1
        TST	R16
        BREQ	??TIMER3_COMPA_interrupt_2
//  949          cnt_stm_tm1--;
        LDI	R30, LOW(cnt_stm_tm1)
        LDI	R31, (cnt_stm_tm1) >> 8
        LD	R16, Z
        DEC	R16
        ST	Z, R16
//  950          if(cnt_stm_tm1==0) event_modem=EVM_TM1;
        LDS	R16, cnt_stm_tm1
        TST	R16
        BRNE	??TIMER3_COMPA_interrupt_2
        LDI	R16, 1
        STS	event_modem, R16
//  951  next_tm00:
//  952    
//  953     
//  954     if(fl_rewrite.cnt_reset==0)goto next_tm01; 
??TIMER3_COMPA_interrupt_2:
        LDI	R30, LOW(fl_rewrite)
        LDI	R31, (fl_rewrite) >> 8
        LDD	R16, Z+1
        TST	R16
        BREQ	??TIMER3_COMPA_interrupt_3
//  955     fl_rewrite.cnt_reset--;
        LDD	R16, Z+1
        DEC	R16
        STD	Z+1, R16
//  956     if(fl_rewrite.cnt_reset==0)
        LDD	R16, Z+1
        TST	R16
        BRNE	??TIMER3_COMPA_interrupt_3
//  957        {
//  958         lock_it();   
        CALL	lock_it
//  959        }       
//  960 next_tm01: 
//  961   
//  962   
//  963       
//  964    ///ņąéģåš źīķņšīė˙ IP
//  965     if (Appl_seq.tm_vzat==0)goto next_tm0;
??TIMER3_COMPA_interrupt_3:
        MOVW	R31:R30, R27:R26
        LDD	R16, Z+16
        LDD	R17, Z+17
        OR	R16, R17
        BREQ	??TIMER3_COMPA_interrupt_4
//  966     Appl_seq.tm_vzat--;
        LDD	R16, Z+16
        LDD	R17, Z+17
        SUBI	R16, 1
        SBCI	R17, 0
        STD	Z+16, R16
        STD	Z+17, R17
//  967     if (Appl_seq.tm_vzat==0)Appl_seq.event=EV_TM_OUT;
        LDD	R16, Z+16
        LDD	R17, Z+17
        OR	R16, R17
        BRNE	??TIMER3_COMPA_interrupt_4
        LDI	R16, 2
        STD	Z+15, R16
//  968 next_tm0:   
//  969     
//  970     
//  971     
//  972         if(Appl_seq.cnt_waits==0)goto next_tm1;
??TIMER3_COMPA_interrupt_4:
        LDD	R16, Z+9
        LDD	R17, Z+10
        OR	R16, R17
        BREQ	??TIMER3_COMPA_interrupt_5
//  973         Appl_seq.cnt_waits--;
        LDD	R16, Z+9
        LDD	R17, Z+10
        SUBI	R16, 1
        SBCI	R17, 0
        STD	Z+9, R16
        STD	Z+10, R17
//  974         if(Appl_seq.cnt_waits==0)
        LDD	R16, Z+9
        LDD	R17, Z+10
        OR	R16, R17
        BRNE	??TIMER3_COMPA_interrupt_5
//  975                { 
//  976                   
//  977                    //   Appl_seq.cnt_try++;
//  978                       fl_appl_seq.kv_waits=0;
//  979                       fl_appl_seq.en_povtor=1; 
        LDS	R16, fl_appl_seq
        ANDI	R16, 0xFD
        ORI	R16, 0x04
        STS	fl_appl_seq, R16
//  980                       Appl_seq.l_data=0;
        LDI	R16, 0
        STD	Z+12, R16
        STD	Z+13, R16
//  981                       
//  982                       /*
//  983                       if(Appl_seq.cnt_try>=2) 
//  984                        {
//  985                        Appl_seq.cnt_cntr_cl=0;
//  986                        Appl_seq.cntr_cl=TRUE;
//  987                        Appl_seq.en_cntr_cl=TRUE;
//  988                        Appl_seq.cnt_try=0;
//  989                        fl_appl_seq.en_povtor=0;                      
//  990                        }
//  991                        */
//  992                        
//  993                                       
//  994                }    
//  995  next_tm1:   
//  996     
//  997     if(fl_ip.ip_tm_cntr_en==1)
??TIMER3_COMPA_interrupt_5:
        LDI	R30, LOW(Control)
        LDI	R31, (Control) >> 8
        LDI	R26, LOW(fl_ip)
        LDI	R27, (fl_ip) >> 8
        LD	R16, X
        SBRS	R16, 1
        RJMP	??TIMER3_COMPA_interrupt_6
//  998        {       
//  999                
// 1000                if(Control.cnt_link==0) goto  next_tm2;
        LDD	R16, Z+4
        LDD	R17, Z+5
        OR	R16, R17
        BREQ	??TIMER3_COMPA_interrupt_6
// 1001                
// 1002                Control.cnt_link--;
        LDD	R16, Z+4
        LDD	R17, Z+5
        SUBI	R16, 1
        SBCI	R17, 0
        STD	Z+4, R16
        STD	Z+5, R17
// 1003                if(Control.cnt_link==0)
        LDD	R16, Z+4
        LDD	R17, Z+5
        OR	R16, R17
        BRNE	??TIMER3_COMPA_interrupt_6
// 1004                { 
// 1005                
// 1006                fl_appl_seq1.enable=1;
        LDI	R26, LOW(fl_appl_seq1)
        LDI	R27, (fl_appl_seq1) >> 8
        LD	R16, X
        ORI	R16, 0x04
        ST	X, R16
// 1007                
// 1008                //Control.cnt_link=Control.vol_link;
// 1009                Control.link=TRUE; 
        LDI	R16, 1
        STD	Z+2, R16
// 1010                if(Control.link_waits==TRUE)
        LDD	R16, Z+1
        CPI	R16, 1
        BRNE	??TIMER3_COMPA_interrupt_7
// 1011                   {
// 1012                  // if(Control.vol_try!=0)
// 1013                   //   {
// 1014                       Control.cnt_try++;
        LDD	R16, Z+14
        INC	R16
        STD	Z+14, R16
// 1015                       if(Control.cnt_try>=Control.vol_try)
        LDD	R16, Z+14
        LDD	R17, Z+15
        CP	R16, R17
        BRCS	??TIMER3_COMPA_interrupt_7
// 1016                        {   
// 1017                        Control.link=FALSE;   
        LDI	R16, 0
        STD	Z+2, R16
// 1018                        event_modem=EVM_MS_LMT;
        LDI	R16, 7
        STS	event_modem, R16
// 1019                        Control.link_no=TRUE;//ļščēķąź ńā˙ēč ķåņ.
        LDI	R16, 1
        ST	Z, R16
// 1020                        }
// 1021                     // }
// 1022                   }
// 1023                               
// 1024                 Control.link_waits=FALSE;
??TIMER3_COMPA_interrupt_7:
        LDI	R16, 0
        STD	Z+1, R16
// 1025                              
// 1026                }    
// 1027        
// 1028        }
// 1029        
// 1030  next_tm2:  
// 1031    
// 1032        
// 1033        if(fl_ip.ip_tm_nat_en==1)   ///ņąéģåš źīķņšīė˙ NAT
??TIMER3_COMPA_interrupt_6:
        LDI	R26, LOW(fl_ip)
        LDI	R27, (fl_ip) >> 8
        LD	R16, X
        SBRS	R16, 2
        RJMP	??TIMER3_COMPA_interrupt_8
// 1034        {       
// 1035                Control.cnt_nat--;
        LDD	R16, Z+6
        LDD	R17, Z+7
        SUBI	R16, 1
        SBCI	R17, 0
        STD	Z+6, R16
        STD	Z+7, R17
// 1036                if(Control.cnt_nat==0)
        LDD	R16, Z+6
        LDD	R17, Z+7
        OR	R16, R17
        BRNE	??TIMER3_COMPA_interrupt_8
// 1037                { 
// 1038                 Control.cnt_nat=Control.vol_nat;
        LDD	R16, Z+10
        LDD	R17, Z+11
        STD	Z+6, R16
        STD	Z+7, R17
// 1039                 Control.nat=TRUE;
        LDI	R16, 1
        STD	Z+3, R16
// 1040                }    
// 1041        
// 1042        }
// 1043        
// 1044  ////////////////////////////////////////// 
// 1045      
// 1046     }
??TIMER3_COMPA_interrupt_8:
        OUT	0x3B, R25
        OUT	0x3F, R24
        LD	R16, Y+
        CFI R16 SameValue
        CFI CFA_Y Y+17
        LD	R17, Y+
        CFI R17 SameValue
        CFI CFA_Y Y+16
        LD	R18, Y+
        CFI R18 SameValue
        CFI CFA_Y Y+15
        LD	R19, Y+
        CFI R19 SameValue
        CFI CFA_Y Y+14
        LD	R20, Y+
        CFI R20 SameValue
        CFI CFA_Y Y+13
        LD	R21, Y+
        CFI R21 SameValue
        CFI CFA_Y Y+12
        LD	R22, Y+
        CFI R22 SameValue
        CFI CFA_Y Y+11
        LD	R23, Y+
        CFI R23 SameValue
        CFI CFA_Y Y+10
        LD	R0, Y+
        CFI R0 SameValue
        CFI CFA_Y Y+9
        LD	R1, Y+
        CFI R1 SameValue
        CFI CFA_Y Y+8
        LD	R2, Y+
        CFI R2 SameValue
        CFI CFA_Y Y+7
        LD	R3, Y+
        CFI R3 SameValue
        CFI CFA_Y Y+6
        LD	R30, Y+
        CFI R30 SameValue
        CFI CFA_Y Y+5
        LD	R31, Y+
        CFI R31 SameValue
        CFI CFA_Y Y+4
        LD	R24, Y+
        CFI R24 SameValue
        CFI CFA_Y Y+3
        LD	R25, Y+
        CFI R25 SameValue
        CFI CFA_Y Y+2
        LD	R26, Y+
        CFI R26 SameValue
        CFI CFA_Y Y+1
        LD	R27, Y+
        CFI R27 SameValue
        CFI CFA_Y Y+0
        RETI
        CFI EndBlock cfiBlock6
// 1047 
// 1048 
// 1049 
// 1050 #pragma vector=USART0_RX_vect
// 1051            

        RSEG CODE:CODE:NOROOT(1)
// 1052            __interrupt  void USART0_RX_interrupt(void)
USART0_RX_interrupt:
        CFI Block cfiBlock7 Using cfiCommon1
        CFI Function USART0_RX_interrupt
// 1053                  
// 1054                  
// 1055                 {
        FUNCALL USART0_RX_interrupt, recive_buf1
        LOCFRAME CSTACK, 18, STACK
        LOCFRAME RSTACK, 2, STACK
        FUNCALL USART0_RX_interrupt, recive_buf2
        LOCFRAME CSTACK, 18, STACK
        LOCFRAME RSTACK, 2, STACK
        ST	-Y, R27
        CFI R27 Frame(CFA_Y, -1)
        CFI CFA_Y Y+1
        ST	-Y, R26
        CFI R26 Frame(CFA_Y, -2)
        CFI CFA_Y Y+2
        ST	-Y, R25
        CFI R25 Frame(CFA_Y, -3)
        CFI CFA_Y Y+3
        ST	-Y, R24
        CFI R24 Frame(CFA_Y, -4)
        CFI CFA_Y Y+4
        ST	-Y, R31
        CFI R31 Frame(CFA_Y, -5)
        CFI CFA_Y Y+5
        ST	-Y, R30
        CFI R30 Frame(CFA_Y, -6)
        CFI CFA_Y Y+6
        ST	-Y, R3
        CFI R3 Frame(CFA_Y, -7)
        CFI CFA_Y Y+7
        ST	-Y, R2
        CFI R2 Frame(CFA_Y, -8)
        CFI CFA_Y Y+8
        ST	-Y, R1
        CFI R1 Frame(CFA_Y, -9)
        CFI CFA_Y Y+9
        ST	-Y, R0
        CFI R0 Frame(CFA_Y, -10)
        CFI CFA_Y Y+10
        ST	-Y, R23
        CFI R23 Frame(CFA_Y, -11)
        CFI CFA_Y Y+11
        ST	-Y, R22
        CFI R22 Frame(CFA_Y, -12)
        CFI CFA_Y Y+12
        ST	-Y, R21
        CFI R21 Frame(CFA_Y, -13)
        CFI CFA_Y Y+13
        ST	-Y, R20
        CFI R20 Frame(CFA_Y, -14)
        CFI CFA_Y Y+14
        ST	-Y, R19
        CFI R19 Frame(CFA_Y, -15)
        CFI CFA_Y Y+15
        ST	-Y, R18
        CFI R18 Frame(CFA_Y, -16)
        CFI CFA_Y Y+16
        ST	-Y, R17
        CFI R17 Frame(CFA_Y, -17)
        CFI CFA_Y Y+17
        ST	-Y, R16
        CFI R16 Frame(CFA_Y, -18)
        CFI CFA_Y Y+18
        IN	R24, 0x3F
        IN	R25, 0x3B
// 1056                 unsigned char data;                
// 1057                 data=UDR0;
        LDS	R16, 198
// 1058                 if(Regim==MODEM_ONLY){UDR2=data;return;}            
        LDS	R17, Regim
        CPI	R17, 1
        BRNE	??USART0_RX_interrupt_0
        STS	214, R16
        RJMP	??USART0_RX_interrupt_1
// 1059                // if(Regim==RG_DEBAG)UDR1=data; ///poka!!!
// 1060               
// 1061                 if(command_AT==TRUE)
??USART0_RX_interrupt_0:
        LDS	R17, command_AT
        CPI	R17, 1
        BRNE	??USART0_RX_interrupt_2
// 1062                     {
// 1063                     S2_GR;
        CBI	0x08, 0x00
        SBI	0x08, 0x01
// 1064                     At_com.cnt_rx_out=At_com.vol_rx_out;
        LDI	R30, LOW(At_com)
        LDI	R31, (At_com) >> 8
        MOVW	R27:R26, R31:R30
        ADIW	R27:R26, 61
        LD	R18, X+
        LD	R19, X
        STD	Z+59, R18
        STD	Z+60, R19
// 1065                     At_com.cnt_tm_out=0;
        LDI	R18, 0
        LDI	R19, 0
        STD	Z+55, R18
        STD	Z+56, R18
// 1066                     if(At_com.cnt_rx < LN_BUF_AT)
        LDD	R18, Z+41
        CPI	R18, 40
        BRCC	??USART0_RX_interrupt_1
// 1067                           {
// 1068                            At_com.buf[At_com.cnt_rx]=data;
        MOVW	R27:R26, R31:R30
        ADD	R26, R18
        ADC	R27, R19
        ST	X, R16
// 1069                            At_com.cnt_rx++;
        LDD	R16, Z+41
        INC	R16
        STD	Z+41, R16
        RJMP	??USART0_RX_interrupt_1
// 1070                            }
// 1071                     return;
// 1072                     }
// 1073                
// 1074                 
// 1075                   if(fl_rx_ppp.switcher==0)recive_buf1(data);else recive_buf2(data);
??USART0_RX_interrupt_2:
        LDI	R30, LOW(fl_rx_ppp)
        LDI	R31, (fl_rx_ppp) >> 8
        LD	R17, Z
        SBRC	R17, 2
        RJMP	??USART0_RX_interrupt_3
        RCALL	recive_buf1
        RJMP	??USART0_RX_interrupt_1
??USART0_RX_interrupt_3:
        RCALL	recive_buf2
??USART0_RX_interrupt_1:
        OUT	0x3B, R25
        OUT	0x3F, R24
        LD	R16, Y+
        CFI R16 SameValue
        CFI CFA_Y Y+17
        LD	R17, Y+
        CFI R17 SameValue
        CFI CFA_Y Y+16
        LD	R18, Y+
        CFI R18 SameValue
        CFI CFA_Y Y+15
        LD	R19, Y+
        CFI R19 SameValue
        CFI CFA_Y Y+14
        LD	R20, Y+
        CFI R20 SameValue
        CFI CFA_Y Y+13
        LD	R21, Y+
        CFI R21 SameValue
        CFI CFA_Y Y+12
        LD	R22, Y+
        CFI R22 SameValue
        CFI CFA_Y Y+11
        LD	R23, Y+
        CFI R23 SameValue
        CFI CFA_Y Y+10
        LD	R0, Y+
        CFI R0 SameValue
        CFI CFA_Y Y+9
        LD	R1, Y+
        CFI R1 SameValue
        CFI CFA_Y Y+8
        LD	R2, Y+
        CFI R2 SameValue
        CFI CFA_Y Y+7
        LD	R3, Y+
        CFI R3 SameValue
        CFI CFA_Y Y+6
        LD	R30, Y+
        CFI R30 SameValue
        CFI CFA_Y Y+5
        LD	R31, Y+
        CFI R31 SameValue
        CFI CFA_Y Y+4
        LD	R24, Y+
        CFI R24 SameValue
        CFI CFA_Y Y+3
        LD	R25, Y+
        CFI R25 SameValue
        CFI CFA_Y Y+2
        LD	R26, Y+
        CFI R26 SameValue
        CFI CFA_Y Y+1
        LD	R27, Y+
        CFI R27 SameValue
        CFI CFA_Y Y+0
        RETI
        CFI EndBlock cfiBlock7
// 1076   
// 1077                  }
// 1078  /////////////////////////////////////////////////////////////////////////////////////////////////////  
// 1079     
// 1080  //////////////////////////////////////////////////////////////////////////////////////////////////////////
// 1081 
// 1082 #pragma vector=USART0_TX_vect

        RSEG CODE:CODE:NOROOT(1)
// 1083      __interrupt void USART0_TX_interrupt(void) 
USART0_TX_interrupt:
        CFI Block cfiBlock8 Using cfiCommon1
        CFI Function USART0_TX_interrupt
// 1084 
// 1085 { 
        FUNCALL USART0_TX_interrupt, sending_at_pac
        LOCFRAME CSTACK, 16, STACK
        LOCFRAME RSTACK, 2, STACK
        FUNCALL USART0_TX_interrupt, sending_ppp_pac
        LOCFRAME CSTACK, 16, STACK
        LOCFRAME RSTACK, 2, STACK
        FUNCALL USART0_TX_interrupt, check_cts
        LOCFRAME CSTACK, 16, STACK
        LOCFRAME RSTACK, 2, STACK
        ST	-Y, R25
        CFI R25 Frame(CFA_Y, -1)
        CFI CFA_Y Y+1
        ST	-Y, R24
        CFI R24 Frame(CFA_Y, -2)
        CFI CFA_Y Y+2
        ST	-Y, R31
        CFI R31 Frame(CFA_Y, -3)
        CFI CFA_Y Y+3
        ST	-Y, R30
        CFI R30 Frame(CFA_Y, -4)
        CFI CFA_Y Y+4
        ST	-Y, R3
        CFI R3 Frame(CFA_Y, -5)
        CFI CFA_Y Y+5
        ST	-Y, R2
        CFI R2 Frame(CFA_Y, -6)
        CFI CFA_Y Y+6
        ST	-Y, R1
        CFI R1 Frame(CFA_Y, -7)
        CFI CFA_Y Y+7
        ST	-Y, R0
        CFI R0 Frame(CFA_Y, -8)
        CFI CFA_Y Y+8
        ST	-Y, R23
        CFI R23 Frame(CFA_Y, -9)
        CFI CFA_Y Y+9
        ST	-Y, R22
        CFI R22 Frame(CFA_Y, -10)
        CFI CFA_Y Y+10
        ST	-Y, R21
        CFI R21 Frame(CFA_Y, -11)
        CFI CFA_Y Y+11
        ST	-Y, R20
        CFI R20 Frame(CFA_Y, -12)
        CFI CFA_Y Y+12
        ST	-Y, R19
        CFI R19 Frame(CFA_Y, -13)
        CFI CFA_Y Y+13
        ST	-Y, R18
        CFI R18 Frame(CFA_Y, -14)
        CFI CFA_Y Y+14
        ST	-Y, R17
        CFI R17 Frame(CFA_Y, -15)
        CFI CFA_Y Y+15
        ST	-Y, R16
        CFI R16 Frame(CFA_Y, -16)
        CFI CFA_Y Y+16
        IN	R24, 0x3F
        IN	R25, 0x3B
// 1086   
// 1087   if(command_AT==TRUE)sending_at_pac(); 
        LDS	R16, command_AT
        CPI	R16, 1
        BRNE	??USART0_TX_interrupt_0
        CALL	sending_at_pac
        RJMP	??USART0_TX_interrupt_1
// 1088     
// 1089   else 
// 1090         {
// 1091         
// 1092         if(fl_cts_232_ignor==TRUE){sending_ppp_pac();return;}
??USART0_TX_interrupt_0:
        LDS	R16, fl_cts_232_ignor
        CPI	R16, 1
        BRNE	??USART0_TX_interrupt_2
??USART0_TX_interrupt_3:
        RCALL	sending_ppp_pac
        RJMP	??USART0_TX_interrupt_1
// 1093         
// 1094         if(check_cts()==1) return;
??USART0_TX_interrupt_2:
        CALL	check_cts
        CPI	R16, 1
        BRNE	??USART0_TX_interrupt_3
??USART0_TX_interrupt_1:
        OUT	0x3B, R25
        OUT	0x3F, R24
        LD	R16, Y+
        CFI R16 SameValue
        CFI CFA_Y Y+15
        LD	R17, Y+
        CFI R17 SameValue
        CFI CFA_Y Y+14
        LD	R18, Y+
        CFI R18 SameValue
        CFI CFA_Y Y+13
        LD	R19, Y+
        CFI R19 SameValue
        CFI CFA_Y Y+12
        LD	R20, Y+
        CFI R20 SameValue
        CFI CFA_Y Y+11
        LD	R21, Y+
        CFI R21 SameValue
        CFI CFA_Y Y+10
        LD	R22, Y+
        CFI R22 SameValue
        CFI CFA_Y Y+9
        LD	R23, Y+
        CFI R23 SameValue
        CFI CFA_Y Y+8
        LD	R0, Y+
        CFI R0 SameValue
        CFI CFA_Y Y+7
        LD	R1, Y+
        CFI R1 SameValue
        CFI CFA_Y Y+6
        LD	R2, Y+
        CFI R2 SameValue
        CFI CFA_Y Y+5
        LD	R3, Y+
        CFI R3 SameValue
        CFI CFA_Y Y+4
        LD	R30, Y+
        CFI R30 SameValue
        CFI CFA_Y Y+3
        LD	R31, Y+
        CFI R31 SameValue
        CFI CFA_Y Y+2
        LD	R24, Y+
        CFI R24 SameValue
        CFI CFA_Y Y+1
        LD	R25, Y+
        CFI R25 SameValue
        CFI CFA_Y Y+0
        RETI
        CFI EndBlock cfiBlock8
// 1095         sending_ppp_pac();
// 1096         } 
// 1097   }
// 1098 
// 1099 /////////////////////////////////////////////////////////////////////////////////////////////////////
// 1100 /*
// 1101 #pragma vector=USART0_UDRE_vect
// 1102            
// 1103            __interrupt  void USART0_UDRE_interrupt(void)
// 1104            {
// 1105              sending_ppp_proverka();
// 1106            }
// 1107 
// 1108 
// 1109 */
// 1110 /////////////////////////////////////////////////////////////////////////////////////////////////////
// 1111 #pragma vector=USART1_RX_vect
// 1112            

        RSEG CODE:CODE:NOROOT(1)
// 1113            __interrupt  void USART1_RX_interrupt(void)
USART1_RX_interrupt:
        CFI Block cfiBlock9 Using cfiCommon1
        CFI Function USART1_RX_interrupt
// 1114                  
// 1115                  
// 1116                 {
        ST	-Y, R27
        CFI R27 Frame(CFA_Y, -1)
        CFI CFA_Y Y+1
        ST	-Y, R26
        CFI R26 Frame(CFA_Y, -2)
        CFI CFA_Y Y+2
        ST	-Y, R31
        CFI R31 Frame(CFA_Y, -3)
        CFI CFA_Y Y+3
        ST	-Y, R30
        CFI R30 Frame(CFA_Y, -4)
        CFI CFA_Y Y+4
        ST	-Y, R20
        CFI R20 Frame(CFA_Y, -5)
        CFI CFA_Y Y+5
        ST	-Y, R19
        CFI R19 Frame(CFA_Y, -6)
        CFI CFA_Y Y+6
        ST	-Y, R18
        CFI R18 Frame(CFA_Y, -7)
        CFI CFA_Y Y+7
        ST	-Y, R17
        CFI R17 Frame(CFA_Y, -8)
        CFI CFA_Y Y+8
        ST	-Y, R16
        CFI R16 Frame(CFA_Y, -9)
        CFI CFA_Y Y+9
        IN	R20, 0x3F
// 1117                 unsigned char data;
// 1118                 
// 1119                 data=UDR1;
        LDS	R18, 206
// 1120                 S4_GR;
        CBI	0x08, 0x04
        SBI	0x08, 0x05
// 1121                 Rs485_2.cnt_tm_rx_out=Rs485_2.vol_tm_rx_out;
        LDI	R30, LOW(Rs485_1)
        LDI	R31, (Rs485_1) >> 8
        LDD	R16, Z+28
        LDD	R17, Z+29
        STD	Z+26, R16
        STD	Z+27, R17
// 1122                 Rs485_2.cnt_tm_out=0;
        LDI	R16, 0
        STD	Z+30, R16
        STD	Z+31, R16
// 1123                 if(Rs485_2.cnt_bt_rx_tx < MAX_BUF_RS485_2)
        LDD	R16, Z+18
        LDD	R17, Z+19
        CPI	R16, 2
        LDI	R19, 0
        CPC	R17, R19
        BRCC	??USART1_RX_interrupt_0
// 1124                        {
// 1125                         Rs485_2_buf_rx_tx[Rs485_2.cnt_bt_rx_tx]=data;
        MOVW	R27:R26, R31:R30
        ADD	R26, R16
        ADC	R27, R17
        ADIW	R27:R26, 56
        ST	X, R18
// 1126                         Rs485_2.cnt_bt_rx_tx++;
        LDD	R16, Z+18
        LDD	R17, Z+19
        SUBI	R16, 255
        SBCI	R17, 255
        STD	Z+18, R16
        STD	Z+19, R17
        RJMP	??USART1_RX_interrupt_1
// 1127                         }
// 1128                         else fl_485_2.over=1;
??USART1_RX_interrupt_0:
        LDD	R16, Z+59
        ORI	R16, 0x10
        STD	Z+59, R16
// 1129                 }
??USART1_RX_interrupt_1:
        OUT	0x3F, R20
        LD	R16, Y+
        CFI R16 SameValue
        CFI CFA_Y Y+8
        LD	R17, Y+
        CFI R17 SameValue
        CFI CFA_Y Y+7
        LD	R18, Y+
        CFI R18 SameValue
        CFI CFA_Y Y+6
        LD	R19, Y+
        CFI R19 SameValue
        CFI CFA_Y Y+5
        LD	R20, Y+
        CFI R20 SameValue
        CFI CFA_Y Y+4
        LD	R30, Y+
        CFI R30 SameValue
        CFI CFA_Y Y+3
        LD	R31, Y+
        CFI R31 SameValue
        CFI CFA_Y Y+2
        LD	R26, Y+
        CFI R26 SameValue
        CFI CFA_Y Y+1
        LD	R27, Y+
        CFI R27 SameValue
        CFI CFA_Y Y+0
        RETI
        CFI EndBlock cfiBlock9
// 1130  /////////////////////////////////////////////////////////////////////////////////////////////////////
// 1131  
// 1132 
// 1133 
// 1134 
// 1135 /////////////////////////////////////////////////////////////////////////////////////////////////////
// 1136 
// 1137 #pragma vector=USART1_UDRE_vect
// 1138            

        RSEG CODE:CODE:NOROOT(1)
// 1139            __interrupt  void USART1_UDRE_interrupt(void)
USART1_UDRE_interrupt:
        CFI Block cfiBlock10 Using cfiCommon1
        CFI Function USART1_UDRE_interrupt
// 1140 
// 1141 {
        ST	-Y, R27
        CFI R27 Frame(CFA_Y, -1)
        CFI CFA_Y Y+1
        ST	-Y, R26
        CFI R26 Frame(CFA_Y, -2)
        CFI CFA_Y Y+2
        ST	-Y, R31
        CFI R31 Frame(CFA_Y, -3)
        CFI CFA_Y Y+3
        ST	-Y, R30
        CFI R30 Frame(CFA_Y, -4)
        CFI CFA_Y Y+4
        ST	-Y, R18
        CFI R18 Frame(CFA_Y, -5)
        CFI CFA_Y Y+5
        ST	-Y, R17
        CFI R17 Frame(CFA_Y, -6)
        CFI CFA_Y Y+6
        ST	-Y, R16
        CFI R16 Frame(CFA_Y, -7)
        CFI CFA_Y Y+7
        IN	R18, 0x3F
// 1142 
// 1143  if(Rs485_2.cnt_bt_rx_tx==0) goto end_tx1;
        LDI	R30, LOW(Rs485_1)
        LDI	R31, (Rs485_1) >> 8
        LDD	R16, Z+18
        LDD	R17, Z+19
        OR	R16, R17
        BRNE	??USART1_UDRE_interrupt_0
// 1144                                                        
// 1145                 UDR1=*Rs485_2.p_data485++;
// 1146                 Rs485_2.cnt_bt_rx_tx--; 
// 1147                 return;
// 1148 end_tx1:
// 1149                UCSR1B=UCSR1B & ~UDRIE;
        LDS	R16, 201
        ANDI	R16, 0xDF
        STS	201, R16
// 1150                Rs485_2.cnt_bt_rx_tx=0;
        LDI	R16, 0
        STD	Z+18, R16
        STD	Z+19, R16
// 1151                Rs485_2.cnt_tm_tx_out=Rs485_2.vol_tm_tx_out;
        LDD	R16, Z+24
        LDD	R17, Z+25
        STD	Z+20, R16
        STD	Z+21, R17
// 1152                if(Rs485_2.cnt_tm_tx_out==0)
        OR	R16, R17
        BRNE	??USART1_UDRE_interrupt_1
// 1153                {
// 1154                 S4_OFF;
        CBI	0x08, 0x04
        CBI	0x08, 0x05
// 1155                 Rs485_2.cnt_tm_out=Rs485_2.vol_tm_out;
        LDD	R16, Z+32
        LDD	R17, Z+33
        STD	Z+30, R16
        STD	Z+31, R17
// 1156                 CLR_RTS3;  // togle to receiv mode  
        CBI	0x0B, 0x04
// 1157                 UCSR1B =UCSR1B | RXEN | RXCIE; // togle to receiv mode ;
        LDS	R16, 201
        ORI	R16, 0x90
        STS	201, R16
??USART1_UDRE_interrupt_1:
        OUT	0x3F, R18
        LD	R16, Y+
        CFI R16 SameValue
        CFI CFA_Y Y+6
        LD	R17, Y+
        CFI R17 SameValue
        CFI CFA_Y Y+5
        LD	R18, Y+
        CFI R18 SameValue
        CFI CFA_Y Y+4
        LD	R30, Y+
        CFI R30 SameValue
        CFI CFA_Y Y+3
        LD	R31, Y+
        CFI R31 SameValue
        CFI CFA_Y Y+2
        LD	R26, Y+
        CFI R26 SameValue
        CFI CFA_Y Y+1
        LD	R27, Y+
        CFI R27 SameValue
        CFI CFA_Y Y+0
        RETI
        CFI R16 Frame(CFA_Y, -7)
        CFI R17 Frame(CFA_Y, -6)
        CFI R18 Frame(CFA_Y, -5)
        CFI R30 Frame(CFA_Y, -4)
        CFI R31 Frame(CFA_Y, -3)
        CFI R26 Frame(CFA_Y, -2)
        CFI R27 Frame(CFA_Y, -1)
        CFI CFA_Y Y+7
// 1158                }
??USART1_UDRE_interrupt_0:
        LDD	R26, Z+34
        LDD	R27, Z+35
        LD	R16, X
        STS	206, R16
        LDD	R16, Z+34
        LDD	R17, Z+35
        SUBI	R16, 255
        SBCI	R17, 255
        STD	Z+34, R16
        STD	Z+35, R17
        LDD	R16, Z+18
        LDD	R17, Z+19
        SUBI	R16, 1
        SBCI	R17, 0
        STD	Z+18, R16
        STD	Z+19, R17
        RJMP	??USART1_UDRE_interrupt_1
        CFI EndBlock cfiBlock10
// 1159               
// 1160 
// 1161 }
// 1162 ///////////////////////////////////////////////////////////////////////////////////////////////////////////////////
// 1163 
// 1164 
// 1165 
// 1166 
// 1167 
// 1168 
// 1169 /////////////////////////////////////////////////////////////////////////////////////////////////////
// 1170 #pragma vector=USART2_RX_vect
// 1171            

        RSEG CODE:CODE:NOROOT(1)
// 1172            __interrupt  void USART2_RX_interrupt(void)
USART2_RX_interrupt:
        CFI Block cfiBlock11 Using cfiCommon1
        CFI Function USART2_RX_interrupt
// 1173                  
// 1174                  
// 1175                 {
        ST	-Y, R27
        CFI R27 Frame(CFA_Y, -1)
        CFI CFA_Y Y+1
        ST	-Y, R26
        CFI R26 Frame(CFA_Y, -2)
        CFI CFA_Y Y+2
        ST	-Y, R31
        CFI R31 Frame(CFA_Y, -3)
        CFI CFA_Y Y+3
        ST	-Y, R30
        CFI R30 Frame(CFA_Y, -4)
        CFI CFA_Y Y+4
        ST	-Y, R20
        CFI R20 Frame(CFA_Y, -5)
        CFI CFA_Y Y+5
        ST	-Y, R19
        CFI R19 Frame(CFA_Y, -6)
        CFI CFA_Y Y+6
        ST	-Y, R18
        CFI R18 Frame(CFA_Y, -7)
        CFI CFA_Y Y+7
        ST	-Y, R17
        CFI R17 Frame(CFA_Y, -8)
        CFI CFA_Y Y+8
        ST	-Y, R16
        CFI R16 Frame(CFA_Y, -9)
        CFI CFA_Y Y+9
        IN	R20, 0x3F
// 1176                 unsigned char data;                
// 1177                 data=UDR2;
        LDS	R18, 214
// 1178                   
// 1179                 
// 1180                  if (fl_at_mom_232==1)
        LDS	R16, fl_at_mom_232
        CPI	R16, 1
        BRNE	??USART2_RX_interrupt_0
// 1181                 {
// 1182                   if(vol_tx_ppp>=VOL_TX_PPP)vol_tx_ppp=0;
        LDI	R30, LOW(vol_tx_ppp)
        LDI	R31, (vol_tx_ppp) >> 8
        LD	R16, Z
        LDD	R17, Z+1
        CPI	R16, 202
        LDI	R19, 3
        CPC	R17, R19
        BRCS	??USART2_RX_interrupt_1
        LDI	R16, 0
        ST	Z, R16
        STD	Z+1, R16
// 1183                   buf_tx_232[vol_tx_ppp]=data; 
??USART2_RX_interrupt_1:
        LD	R16, Z
        LDD	R17, Z+1
        MOVW	R31:R30, R17:R16
        SUBI	R30, LOW((-(buf_tx_232) & 0xFFFF))
        SBCI	R31, (-(buf_tx_232) & 0xFFFF) >> 8
        ST	Z, R18
// 1184                   vol_tx_ppp++; 
        LDI	R30, LOW(vol_tx_ppp)
        LDI	R31, (vol_tx_ppp) >> 8
        LD	R16, Z
        LDD	R17, Z+1
        SUBI	R16, 255
        SBCI	R17, 255
        ST	Z, R16
        STD	Z+1, R17
// 1185                   return; 
        RJMP	??USART2_RX_interrupt_2
// 1186                  } 
// 1187                 
// 1188                 
// 1189                 if(Regim==MODEM_ONLY){UDR0=data;return;}
??USART2_RX_interrupt_0:
        LDS	R16, Regim
        CPI	R16, 1
        BRNE	??USART2_RX_interrupt_3
        STS	198, R18
        RJMP	??USART2_RX_interrupt_2
// 1190                 S5_GR;
??USART2_RX_interrupt_3:
        CBI	0x08, 0x06
        SBI	0x08, 0x07
// 1191                 Rs232_2.cnt_tm_rx_out=Rs232_2.vol_tm_rx_out;
        LDI	R30, LOW(Rs485_1)
        LDI	R31, (Rs485_1) >> 8
        LDD	R16, Z+46
        LDD	R17, Z+47
        STD	Z+44, R16
        STD	Z+45, R17
// 1192                 Rs232_2.cnt_tm_out=0;
        LDI	R16, 0
        STD	Z+48, R16
        STD	Z+49, R16
// 1193                 if(Rs232_2.cnt_bt_rx_tx < MAX_BUF_RS232_2)
        LDD	R16, Z+36
        LDD	R17, Z+37
        CPI	R16, 132
        LDI	R19, 3
        CPC	R17, R19
        BRCC	??USART2_RX_interrupt_4
// 1194                        {
// 1195                         Rs232_2_buf_rx_tx[Rs232_2.cnt_bt_rx_tx]=data;
        MOVW	R27:R26, R17:R16
        SUBI	R26, LOW((-(Rs232_2_buf_rx_tx) & 0xFFFF))
        SBCI	R27, (-(Rs232_2_buf_rx_tx) & 0xFFFF) >> 8
        ST	X, R18
// 1196                         Rs232_2.cnt_bt_rx_tx++;
        LDD	R16, Z+36
        LDD	R17, Z+37
        SUBI	R16, 255
        SBCI	R17, 255
        STD	Z+36, R16
        STD	Z+37, R17
        RJMP	??USART2_RX_interrupt_2
// 1197                         }
// 1198                         else fl_232_2.over=1;
??USART2_RX_interrupt_4:
        ADIW	R31:R30, 60
        LD	R16, Z
        ORI	R16, 0x10
        ST	Z, R16
??USART2_RX_interrupt_2:
        OUT	0x3F, R20
        LD	R16, Y+
        CFI R16 SameValue
        CFI CFA_Y Y+8
        LD	R17, Y+
        CFI R17 SameValue
        CFI CFA_Y Y+7
        LD	R18, Y+
        CFI R18 SameValue
        CFI CFA_Y Y+6
        LD	R19, Y+
        CFI R19 SameValue
        CFI CFA_Y Y+5
        LD	R20, Y+
        CFI R20 SameValue
        CFI CFA_Y Y+4
        LD	R30, Y+
        CFI R30 SameValue
        CFI CFA_Y Y+3
        LD	R31, Y+
        CFI R31 SameValue
        CFI CFA_Y Y+2
        LD	R26, Y+
        CFI R26 SameValue
        CFI CFA_Y Y+1
        LD	R27, Y+
        CFI R27 SameValue
        CFI CFA_Y Y+0
        RETI
        CFI EndBlock cfiBlock11
// 1199                 }
// 1200  /////////////////////////////////////////////////////////////////////////////////////////////////////
// 1201  
// 1202 
// 1203 
// 1204 
// 1205 /////////////////////////////////////////////////////////////////////////////////////////////////////
// 1206 
// 1207 #pragma vector=USART2_UDRE_vect
// 1208            

        RSEG CODE:CODE:NOROOT(1)
// 1209            __interrupt  void USART2_UDRE_interrupt(void)
USART2_UDRE_interrupt:
        CFI Block cfiBlock12 Using cfiCommon1
        CFI Function USART2_UDRE_interrupt
// 1210 
// 1211 {
        ST	-Y, R27
        CFI R27 Frame(CFA_Y, -1)
        CFI CFA_Y Y+1
        ST	-Y, R26
        CFI R26 Frame(CFA_Y, -2)
        CFI CFA_Y Y+2
        ST	-Y, R31
        CFI R31 Frame(CFA_Y, -3)
        CFI CFA_Y Y+3
        ST	-Y, R30
        CFI R30 Frame(CFA_Y, -4)
        CFI CFA_Y Y+4
        ST	-Y, R18
        CFI R18 Frame(CFA_Y, -5)
        CFI CFA_Y Y+5
        ST	-Y, R17
        CFI R17 Frame(CFA_Y, -6)
        CFI CFA_Y Y+6
        ST	-Y, R16
        CFI R16 Frame(CFA_Y, -7)
        CFI CFA_Y Y+7
        IN	R18, 0x3F
// 1212 
// 1213  if(Rs232_2.cnt_bt_rx_tx==0) goto end_tx;
        LDI	R30, LOW(Rs485_1)
        LDI	R31, (Rs485_1) >> 8
        LDD	R16, Z+36
        LDD	R17, Z+37
        OR	R16, R17
        BRNE	??USART2_UDRE_interrupt_0
// 1214                                                        
// 1215                 UDR2=*Rs232_2.p_data485++;
// 1216                 Rs232_2.cnt_bt_rx_tx--; 
// 1217                 return;
// 1218 end_tx:
// 1219                UCSR2B=UCSR2B & ~UDRIE;
        LDS	R16, 209
        ANDI	R16, 0xDF
        STS	209, R16
// 1220                Rs232_2.cnt_bt_rx_tx=0;
        LDI	R16, 0
        STD	Z+36, R16
        STD	Z+37, R16
// 1221                Rs232_2.cnt_tm_tx_out=Rs232_2.vol_tm_tx_out;
        LDD	R16, Z+42
        LDD	R17, Z+43
        STD	Z+38, R16
        STD	Z+39, R17
// 1222                if(Rs232_2.cnt_tm_tx_out==0)
        OR	R16, R17
        BRNE	??USART2_UDRE_interrupt_1
// 1223                {
// 1224                 S5_OFF;
        CBI	0x08, 0x06
        CBI	0x08, 0x07
// 1225                 Rs232_2.cnt_tm_out=Rs232_2.vol_tm_out;
        LDD	R16, Z+50
        LDD	R17, Z+51
        STD	Z+48, R16
        STD	Z+49, R17
// 1226                 CLR_RTS2;  // togle to receiv mode  
        LDS	R16, 258
        ORI	R16, 0x04
        STS	258, R16
// 1227                 UCSR2B =UCSR2B | RXEN | RXCIE; // togle to receiv mode ;
        LDS	R16, 209
        ORI	R16, 0x90
        STS	209, R16
??USART2_UDRE_interrupt_1:
        OUT	0x3F, R18
        LD	R16, Y+
        CFI R16 SameValue
        CFI CFA_Y Y+6
        LD	R17, Y+
        CFI R17 SameValue
        CFI CFA_Y Y+5
        LD	R18, Y+
        CFI R18 SameValue
        CFI CFA_Y Y+4
        LD	R30, Y+
        CFI R30 SameValue
        CFI CFA_Y Y+3
        LD	R31, Y+
        CFI R31 SameValue
        CFI CFA_Y Y+2
        LD	R26, Y+
        CFI R26 SameValue
        CFI CFA_Y Y+1
        LD	R27, Y+
        CFI R27 SameValue
        CFI CFA_Y Y+0
        RETI
        CFI R16 Frame(CFA_Y, -7)
        CFI R17 Frame(CFA_Y, -6)
        CFI R18 Frame(CFA_Y, -5)
        CFI R30 Frame(CFA_Y, -4)
        CFI R31 Frame(CFA_Y, -3)
        CFI R26 Frame(CFA_Y, -2)
        CFI R27 Frame(CFA_Y, -1)
        CFI CFA_Y Y+7
// 1228                }
??USART2_UDRE_interrupt_0:
        LDD	R26, Z+52
        LDD	R27, Z+53
        LD	R16, X
        STS	214, R16
        LDD	R16, Z+52
        LDD	R17, Z+53
        SUBI	R16, 255
        SBCI	R17, 255
        STD	Z+52, R16
        STD	Z+53, R17
        LDD	R16, Z+36
        LDD	R17, Z+37
        SUBI	R16, 1
        SBCI	R17, 0
        STD	Z+36, R16
        STD	Z+37, R17
        RJMP	??USART2_UDRE_interrupt_1
        CFI EndBlock cfiBlock12
// 1229               
// 1230 
// 1231 }
// 1232 ///////////////////////////////////////////////////////////////////////////////////////////////////////////////////
// 1233 
// 1234 
// 1235 
// 1236 
// 1237 
// 1238 /////////////////////////////////////////////////////////////////////////////////////////////////////
// 1239 #pragma vector=USART3_RX_vect
// 1240            

        RSEG CODE:CODE:NOROOT(1)
// 1241            __interrupt  void USART3_RX_interrupt(void)
USART3_RX_interrupt:
        CFI Block cfiBlock13 Using cfiCommon1
        CFI Function USART3_RX_interrupt
// 1242                  
// 1243                  
// 1244                 {
        ST	-Y, R27
        CFI R27 Frame(CFA_Y, -1)
        CFI CFA_Y Y+1
        ST	-Y, R26
        CFI R26 Frame(CFA_Y, -2)
        CFI CFA_Y Y+2
        ST	-Y, R31
        CFI R31 Frame(CFA_Y, -3)
        CFI CFA_Y Y+3
        ST	-Y, R30
        CFI R30 Frame(CFA_Y, -4)
        CFI CFA_Y Y+4
        ST	-Y, R20
        CFI R20 Frame(CFA_Y, -5)
        CFI CFA_Y Y+5
        ST	-Y, R19
        CFI R19 Frame(CFA_Y, -6)
        CFI CFA_Y Y+6
        ST	-Y, R18
        CFI R18 Frame(CFA_Y, -7)
        CFI CFA_Y Y+7
        ST	-Y, R17
        CFI R17 Frame(CFA_Y, -8)
        CFI CFA_Y Y+8
        ST	-Y, R16
        CFI R16 Frame(CFA_Y, -9)
        CFI CFA_Y Y+9
        IN	R20, 0x3F
// 1245                 unsigned char data;
// 1246                 
// 1247                 data=UDR3;
        LDS	R18, 310
// 1248                 S3_GR;
        CBI	0x08, 0x02
        SBI	0x08, 0x03
// 1249                 Rs485_1.cnt_tm_rx_out=Rs485_1.vol_tm_rx_out;
        LDI	R30, LOW(Rs485_1)
        LDI	R31, (Rs485_1) >> 8
        LDD	R16, Z+10
        LDD	R17, Z+11
        STD	Z+8, R16
        STD	Z+9, R17
// 1250                 Rs485_1.cnt_tm_out=0;
        LDI	R16, 0
        STD	Z+12, R16
        STD	Z+13, R16
// 1251                 if(Rs485_1.cnt_bt_rx_tx < MAX_BUF_RS485_1)
        LD	R16, Z
        LDD	R17, Z+1
        CPI	R16, 100
        LDI	R19, 0
        CPC	R17, R19
        BRCC	??USART3_RX_interrupt_0
// 1252                        {
// 1253                         Rs485_1_buf_rx_tx[Rs485_1.cnt_bt_rx_tx]=data;
        LD	R16, Z
        LDD	R17, Z+1
        MOVW	R27:R26, R17:R16
        SUBI	R26, LOW((-(Rs485_1_buf_rx_tx) & 0xFFFF))
        SBCI	R27, (-(Rs485_1_buf_rx_tx) & 0xFFFF) >> 8
        ST	X, R18
// 1254                         Rs485_1.cnt_bt_rx_tx++;
        LD	R16, Z
        LDD	R17, Z+1
        SUBI	R16, 255
        SBCI	R17, 255
        ST	Z, R16
        STD	Z+1, R17
        RJMP	??USART3_RX_interrupt_1
// 1255                         }
// 1256                         else fl_485_1.over=1;
??USART3_RX_interrupt_0:
        LDD	R16, Z+58
        ORI	R16, 0x10
        STD	Z+58, R16
// 1257                 }
??USART3_RX_interrupt_1:
        OUT	0x3F, R20
        LD	R16, Y+
        CFI R16 SameValue
        CFI CFA_Y Y+8
        LD	R17, Y+
        CFI R17 SameValue
        CFI CFA_Y Y+7
        LD	R18, Y+
        CFI R18 SameValue
        CFI CFA_Y Y+6
        LD	R19, Y+
        CFI R19 SameValue
        CFI CFA_Y Y+5
        LD	R20, Y+
        CFI R20 SameValue
        CFI CFA_Y Y+4
        LD	R30, Y+
        CFI R30 SameValue
        CFI CFA_Y Y+3
        LD	R31, Y+
        CFI R31 SameValue
        CFI CFA_Y Y+2
        LD	R26, Y+
        CFI R26 SameValue
        CFI CFA_Y Y+1
        LD	R27, Y+
        CFI R27 SameValue
        CFI CFA_Y Y+0
        RETI
        CFI EndBlock cfiBlock13
// 1258  /////////////////////////////////////////////////////////////////////////////////////////////////////
// 1259  
// 1260 
// 1261 
// 1262 
// 1263 /////////////////////////////////////////////////////////////////////////////////////////////////////
// 1264 
// 1265 #pragma vector=USART3_UDRE_vect
// 1266            

        RSEG CODE:CODE:NOROOT(1)
// 1267            __interrupt  void USART3_UDRE_interrupt(void)
USART3_UDRE_interrupt:
        CFI Block cfiBlock14 Using cfiCommon1
        CFI Function USART3_UDRE_interrupt
// 1268 
// 1269 {
        ST	-Y, R27
        CFI R27 Frame(CFA_Y, -1)
        CFI CFA_Y Y+1
        ST	-Y, R26
        CFI R26 Frame(CFA_Y, -2)
        CFI CFA_Y Y+2
        ST	-Y, R31
        CFI R31 Frame(CFA_Y, -3)
        CFI CFA_Y Y+3
        ST	-Y, R30
        CFI R30 Frame(CFA_Y, -4)
        CFI CFA_Y Y+4
        ST	-Y, R18
        CFI R18 Frame(CFA_Y, -5)
        CFI CFA_Y Y+5
        ST	-Y, R17
        CFI R17 Frame(CFA_Y, -6)
        CFI CFA_Y Y+6
        ST	-Y, R16
        CFI R16 Frame(CFA_Y, -7)
        CFI CFA_Y Y+7
        IN	R18, 0x3F
// 1270 
// 1271  if(Rs485_1.cnt_bt_rx_tx==0) goto end_tx2;
        LDI	R30, LOW(Rs485_1)
        LDI	R31, (Rs485_1) >> 8
        LD	R16, Z
        LDD	R17, Z+1
        OR	R16, R17
        BRNE	??USART3_UDRE_interrupt_0
// 1272                                                        
// 1273                 UDR3=*Rs485_1.p_data485++;
// 1274                 Rs485_1.cnt_bt_rx_tx--; 
// 1275                 return;
// 1276 end_tx2:
// 1277                UCSR3B=UCSR3B & ~UDRIE;
        LDS	R16, 305
        ANDI	R16, 0xDF
        STS	305, R16
// 1278                Rs485_1.cnt_bt_rx_tx=0;
        LDI	R16, 0
        ST	Z, R16
        STD	Z+1, R16
// 1279                Rs485_1.cnt_tm_tx_out=Rs485_1.vol_tm_tx_out;
        LDD	R16, Z+6
        LDD	R17, Z+7
        STD	Z+2, R16
        STD	Z+3, R17
// 1280                if(Rs485_1.cnt_tm_tx_out==0)
        OR	R16, R17
        BRNE	??USART3_UDRE_interrupt_1
// 1281                {
// 1282                 S3_OFF;
        CBI	0x08, 0x02
        CBI	0x08, 0x03
// 1283                 Rs485_1.cnt_tm_out=Rs485_1.vol_tm_out;
        LDD	R16, Z+14
        LDD	R17, Z+15
        STD	Z+12, R16
        STD	Z+13, R17
// 1284                 CLR_RTS1;  // togle to receiv mode  
        LDS	R16, 261
        ANDI	R16, 0xFB
        STS	261, R16
// 1285                 UCSR3B =UCSR3B | RXEN | RXCIE; // togle to receiv mode ;
        LDS	R16, 305
        ORI	R16, 0x90
        STS	305, R16
??USART3_UDRE_interrupt_1:
        OUT	0x3F, R18
        LD	R16, Y+
        CFI R16 SameValue
        CFI CFA_Y Y+6
        LD	R17, Y+
        CFI R17 SameValue
        CFI CFA_Y Y+5
        LD	R18, Y+
        CFI R18 SameValue
        CFI CFA_Y Y+4
        LD	R30, Y+
        CFI R30 SameValue
        CFI CFA_Y Y+3
        LD	R31, Y+
        CFI R31 SameValue
        CFI CFA_Y Y+2
        LD	R26, Y+
        CFI R26 SameValue
        CFI CFA_Y Y+1
        LD	R27, Y+
        CFI R27 SameValue
        CFI CFA_Y Y+0
        RETI
        CFI R16 Frame(CFA_Y, -7)
        CFI R17 Frame(CFA_Y, -6)
        CFI R18 Frame(CFA_Y, -5)
        CFI R30 Frame(CFA_Y, -4)
        CFI R31 Frame(CFA_Y, -3)
        CFI R26 Frame(CFA_Y, -2)
        CFI R27 Frame(CFA_Y, -1)
        CFI CFA_Y Y+7
// 1286                }
??USART3_UDRE_interrupt_0:
        LDD	R26, Z+16
        LDD	R27, Z+17
        LD	R16, X
        STS	310, R16
        LDD	R16, Z+16
        LDD	R17, Z+17
        SUBI	R16, 255
        SBCI	R17, 255
        STD	Z+16, R16
        STD	Z+17, R17
        LD	R16, Z
        LDD	R17, Z+1
        SUBI	R16, 1
        SBCI	R17, 0
        ST	Z, R16
        STD	Z+1, R17
        RJMP	??USART3_UDRE_interrupt_1
        CFI EndBlock cfiBlock14
// 1287               
// 1288 
// 1289 }
// 1290 ///////////////////////////////////////////////////////////////////////////////////////////////////////////////////
// 1291 
// 1292 #pragma vector=ADC_vect

        RSEG CODE:CODE:NOROOT(1)
// 1293  __interrupt  void ADC_interrupt(void)
ADC_interrupt:
        CFI Block cfiBlock15 Using cfiCommon1
        CFI Function ADC_interrupt
// 1294  { 
        ST	-Y, R31
        CFI R31 Frame(CFA_Y, -1)
        CFI CFA_Y Y+1
        ST	-Y, R30
        CFI R30 Frame(CFA_Y, -2)
        CFI CFA_Y Y+2
        ST	-Y, R0
        CFI R0 Frame(CFA_Y, -3)
        CFI CFA_Y Y+3
        ST	-Y, R23
        CFI R23 Frame(CFA_Y, -4)
        CFI CFA_Y Y+4
        ST	-Y, R22
        CFI R22 Frame(CFA_Y, -5)
        CFI CFA_Y Y+5
        ST	-Y, R21
        CFI R21 Frame(CFA_Y, -6)
        CFI CFA_Y Y+6
        ST	-Y, R20
        CFI R20 Frame(CFA_Y, -7)
        CFI CFA_Y Y+7
        ST	-Y, R19
        CFI R19 Frame(CFA_Y, -8)
        CFI CFA_Y Y+8
        ST	-Y, R18
        CFI R18 Frame(CFA_Y, -9)
        CFI CFA_Y Y+9
        ST	-Y, R17
        CFI R17 Frame(CFA_Y, -10)
        CFI CFA_Y Y+10
        ST	-Y, R16
        CFI R16 Frame(CFA_Y, -11)
        CFI CFA_Y Y+11
        IN	R0, 0x3F
// 1295   // temperatura=ADC;
// 1296 
// 1297    fl_wdt.from_adc=1;
        LDI	R30, LOW(fl_wdt)
        LDI	R31, (fl_wdt) >> 8
        LD	R16, Z
        ORI	R16, 0x40
        ST	Z, R16
// 1298    
// 1299     __enable_interrupt();
        SEI
// 1300    
// 1301    count_summa_temperatura++;
        LDI	R30, LOW(count_summa_temperatura)
        LDI	R31, (count_summa_temperatura) >> 8
        LD	R16, Z
        LDD	R17, Z+1
        SUBI	R16, 255
        SBCI	R17, 255
        ST	Z, R16
        STD	Z+1, R17
// 1302    summa_temperatura=summa_temperatura+ADC;
        LDS	R16, 120
        LDS	R17, 121
        LDI	R18, 0
        LDI	R19, 0
        LDI	R30, LOW(summa_temperatura)
        LDI	R31, (summa_temperatura) >> 8
        LD	R20, Z
        LDD	R21, Z+1
        LDD	R22, Z+2
        LDD	R23, Z+3
        ADD	R20, R16
        ADC	R21, R17
        ADC	R22, R18
        ADC	R23, R18
        ST	Z, R20
        STD	Z+1, R21
        STD	Z+2, R22
        STD	Z+3, R23
// 1303    
// 1304        if(count_summa_temperatura>=1024)
        LDI	R30, LOW(count_summa_temperatura)
        LDI	R31, (count_summa_temperatura) >> 8
        LD	R16, Z
        LDD	R17, Z+1
        CPI	R16, 0
        LDI	R18, 4
        CPC	R17, R18
        BRCS	??ADC_interrupt_0
// 1305           {
// 1306           count_summa_temperatura=0;
        ST	Z, R19
        STD	Z+1, R19
// 1307           temperatura=summa_temperatura>>10;
        LDI	R30, LOW(summa_temperatura)
        LDI	R31, (summa_temperatura) >> 8
        LD	R16, Z
        LDD	R17, Z+1
        LDD	R18, Z+2
        LDD	R19, Z+3
        LDI	R20, 10
        CALL	?UL_SHR_L03
        LDI	R30, LOW(temperatura)
        LDI	R31, (temperatura) >> 8
        ST	Z, R16
        STD	Z+1, R17
// 1308           summa_temperatura=0;
        LDI	R30, LOW(summa_temperatura)
        LDI	R31, (summa_temperatura) >> 8
        ST	Z, R19
        STD	Z+1, R19
        STD	Z+2, R19
        STD	Z+3, R19
// 1309         }  
// 1310        
// 1311        ADCSRA=ADCSRA | 0x47;       
??ADC_interrupt_0:
        LDS	R16, 122
        ORI	R16, 0x47
        STS	122, R16
// 1312  }
        OUT	0x3F, R0
        LD	R16, Y+
        CFI R16 SameValue
        CFI CFA_Y Y+10
        LD	R17, Y+
        CFI R17 SameValue
        CFI CFA_Y Y+9
        LD	R18, Y+
        CFI R18 SameValue
        CFI CFA_Y Y+8
        LD	R19, Y+
        CFI R19 SameValue
        CFI CFA_Y Y+7
        LD	R20, Y+
        CFI R20 SameValue
        CFI CFA_Y Y+6
        LD	R21, Y+
        CFI R21 SameValue
        CFI CFA_Y Y+5
        LD	R22, Y+
        CFI R22 SameValue
        CFI CFA_Y Y+4
        LD	R23, Y+
        CFI R23 SameValue
        CFI CFA_Y Y+3
        LD	R0, Y+
        CFI R0 SameValue
        CFI CFA_Y Y+2
        LD	R30, Y+
        CFI R30 SameValue
        CFI CFA_Y Y+1
        LD	R31, Y+
        CFI R31 SameValue
        CFI CFA_Y Y+0
        RETI
        CFI EndBlock cfiBlock15

        ASEGN ABSOLUTE:DATA:NOROOT,01fH
__?EECR:

        ASEGN ABSOLUTE:DATA:NOROOT,020H
__?EEDR:

        ASEGN ABSOLUTE:DATA:NOROOT,021H
__?EEARL:

        ASEGN ABSOLUTE:DATA:NOROOT,022H
__?EEARH:

        COMMON INTVEC:CODE:ROOT(1)
        ORG 52
`??TIMER2_COMPA_interrupt??INTVEC 52`:
        JMP	TIMER2_COMPA_interrupt

        COMMON INTVEC:CODE:ROOT(1)
        ORG 84
`??TIMER0_COMPA_interrupt??INTVEC 84`:
        JMP	TIMER0_COMPA_interrupt

        COMMON INTVEC:CODE:ROOT(1)
        ORG 100
`??USART0_RX_interrupt??INTVEC 100`:
        JMP	USART0_RX_interrupt

        COMMON INTVEC:CODE:ROOT(1)
        ORG 108
`??USART0_TX_interrupt??INTVEC 108`:
        JMP	USART0_TX_interrupt

        COMMON INTVEC:CODE:ROOT(1)
        ORG 116
`??ADC_interrupt??INTVEC 116`:
        JMP	ADC_interrupt

        COMMON INTVEC:CODE:ROOT(1)
        ORG 128
`??TIMER3_COMPA_interrupt??INTVEC 128`:
        JMP	TIMER3_COMPA_interrupt

        COMMON INTVEC:CODE:ROOT(1)
        ORG 144
`??USART1_RX_interrupt??INTVEC 144`:
        JMP	USART1_RX_interrupt

        COMMON INTVEC:CODE:ROOT(1)
        ORG 148
`??USART1_UDRE_interrupt??INTVEC 148`:
        JMP	USART1_UDRE_interrupt

        COMMON INTVEC:CODE:ROOT(1)
        ORG 204
`??USART2_RX_interrupt??INTVEC 204`:
        JMP	USART2_RX_interrupt

        COMMON INTVEC:CODE:ROOT(1)
        ORG 208
`??USART2_UDRE_interrupt??INTVEC 208`:
        JMP	USART2_UDRE_interrupt

        COMMON INTVEC:CODE:ROOT(1)
        ORG 216
`??USART3_RX_interrupt??INTVEC 216`:
        JMP	USART3_RX_interrupt

        COMMON INTVEC:CODE:ROOT(1)
        ORG 220
`??USART3_UDRE_interrupt??INTVEC 220`:
        JMP	USART3_UDRE_interrupt

        RSEG INITTAB:CODE:NOROOT(0)
`?<Segment init: NEAR_Z>`:
        DW	SFE(NEAR_Z) - SFB(NEAR_Z)
        DW	SFB(NEAR_Z)
        DP	0
        REQUIRE ?need_segment_init

        END
// 1313 
// 1314    
// 1315 
// 1316 
// 
//    17 bytes in segment ABSOLUTE
// 4 558 bytes in segment CODE
//     7 bytes in segment INITTAB
//    48 bytes in segment INTVEC
// 1 066 bytes in segment NEAR_Z
// 
// 4 558 bytes of CODE memory (+ 55 bytes shared)
// 1 066 bytes of DATA memory (+ 17 bytes shared)
//
//Errors: none
//Warnings: 1
