##############################################################################
#                                                                            #
#                                                      13/Nov/2010  12:45:53 #
# IAR Atmel AVR C/C++ Compiler V4.12A/W32, Evaluation Version                #
# Copyright 1996-2005 IAR Systems. All rights reserved.                      #
#                                                                            #
#    Source file  =  D:\PRJIAR\NSS261010 new\interr3.c                       #
#    Command line =  "D:\PRJIAR\NSS261010 new\interr3.c" --cpu=m1280 -ms -o  #
#                    "D:\PRJIAR\NSS261010 new\Debug\Obj\" -lCN               #
#                    "D:\PRJIAR\NSS261010 new\Debug\List\" -lA               #
#                    "D:\PRJIAR\NSS261010 new\Debug\List\" -y                #
#                    --initializers_in_flash -z6 --no_inline                 #
#                    --no_cross_call --no_tbaa --debug -e -I "D:\Program     #
#                    Files\IAR Systems\Embedded Workbench 4.0                #
#                    Evaluation\avr\INC\" -I "D:\Program Files\IAR           #
#                    Systems\Embedded Workbench 4.0                          #
#                    Evaluation\avr\INC\DLIB\" --eeprom_size 4096            #
#                    --dlib_config "D:\Program Files\IAR Systems\Embedded    #
#                    Workbench 4.0 Evaluation\avr\LIB\DLIB\dlAVR-3s-ec-n.h"  #
#    List file    =  D:\PRJIAR\NSS261010 new\Debug\List\interr3.lst          #
#    Object file  =  D:\PRJIAR\NSS261010 new\Debug\Obj\interr3.r90           #
#                                                                            #
#                                                                            #
##############################################################################

D:\PRJIAR\NSS261010 new\interr3.c
      1          #include <iom1280.h> 

   \                                 In segment ABSOLUTE, at 0x136
   \   union <unnamed> volatile __ext_io _A_UDR3
   \                     _A_UDR3:
   \   00000000                      DS 1

   \                                 In segment ABSOLUTE, at 0x131
   \   union <unnamed> volatile __ext_io _A_UCSR3B
   \                     _A_UCSR3B:
   \   00000000                      DS 1

   \                                 In segment ABSOLUTE, at 0x106
   \   union <unnamed> volatile __ext_io _A_PINK
   \                     _A_PINK:
   \   00000000                      DS 1

   \                                 In segment ABSOLUTE, at 0x105
   \   union <unnamed> volatile __ext_io _A_PORTJ
   \                     _A_PORTJ:
   \   00000000                      DS 1

   \                                 In segment ABSOLUTE, at 0x103
   \   union <unnamed> volatile __ext_io _A_PINJ
   \                     _A_PINJ:
   \   00000000                      DS 1

   \                                 In segment ABSOLUTE, at 0x102
   \   union <unnamed> volatile __ext_io _A_PORTH
   \                     _A_PORTH:
   \   00000000                      DS 1

   \                                 In segment ABSOLUTE, at 0xd6
   \   union <unnamed> volatile __io _A_UDR2
   \                     _A_UDR2:
   \   00000000                      DS 1

   \                                 In segment ABSOLUTE, at 0xd1
   \   union <unnamed> volatile __io _A_UCSR2B
   \                     _A_UCSR2B:
   \   00000000                      DS 1

   \                                 In segment ABSOLUTE, at 0xce
   \   union <unnamed> volatile __io _A_UDR1
   \                     _A_UDR1:
   \   00000000                      DS 1

   \                                 In segment ABSOLUTE, at 0xc9
   \   union <unnamed> volatile __io _A_UCSR1B
   \                     _A_UCSR1B:
   \   00000000                      DS 1

   \                                 In segment ABSOLUTE, at 0xc6
   \   union <unnamed> volatile __io _A_UDR0
   \                     _A_UDR0:
   \   00000000                      DS 1

   \                                 In segment ABSOLUTE, at 0xc1
   \   union <unnamed> volatile __io _A_UCSR0B
   \                     _A_UCSR0B:
   \   00000000                      DS 1

   \                                 In segment ABSOLUTE, at 0x7c
   \   union <unnamed> volatile __io _A_ADMUX
   \                     _A_ADMUX:
   \   00000000                      DS 1

   \                                 In segment ABSOLUTE, at 0x7b
   \   union <unnamed> volatile __io _A_ADCSRB
   \                     _A_ADCSRB:
   \   00000000                      DS 1

   \                                 In segment ABSOLUTE, at 0x7a
   \   union <unnamed> volatile __io _A_ADCSRA
   \                     _A_ADCSRA:
   \   00000000                      DS 1

   \                                 In segment ABSOLUTE, at 0x78
   \   union <unnamed> volatile __io _A_ADC
   \                     _A_ADC:
   \   00000000                      DS 2

   \                                 In segment ABSOLUTE, at 0x32
   \   union <unnamed> volatile __io _A_PING
   \                     _A_PING:
   \   00000000                      DS 1

   \                                 In segment ABSOLUTE, at 0x2c
   \   union <unnamed> volatile __io _A_PINE
   \                     _A_PINE:
   \   00000000                      DS 1

   \                                 In segment ABSOLUTE, at 0x2b
   \   union <unnamed> volatile __io _A_PORTD
   \                     _A_PORTD:
   \   00000000                      DS 1

   \                                 In segment ABSOLUTE, at 0x28
   \   union <unnamed> volatile __io _A_PORTC
   \                     _A_PORTC:
   \   00000000                      DS 1

   \                                 In segment ABSOLUTE, at 0x25
   \   union <unnamed> volatile __io _A_PORTB
   \                     _A_PORTB:
   \   00000000                      DS 1

   \                                 In segment ABSOLUTE, at 0x22
   \   union <unnamed> volatile __io _A_PORTA
   \                     _A_PORTA:
   \   00000000                      DS 1

   \                                 In segment ABSOLUTE, at 0x20
   \   union <unnamed> volatile __io _A_PINA
   \                     _A_PINA:
   \   00000000                      DS 1
      2          #include <inavr.h> 
      3          #include "dfpin.h"
      4          #include "dfproc.h"
      5          #include "ozu_map.h"
      6          #include "dfcnst.h"
      7          #include "def_at.h"
      8          #include "def_link.h"
      9          #include "sec.h"
     10          #include "map_ef.h"
     11          #include "map_mbus.h"
     12          
     13          extern unsigned int cnt_sec;
     14          
     15          extern unsigned int cnt_supervosor;
     16          
     17          extern unsigned char simka; //dobavka
     18          
     19          extern unsigned char layer_PPP;
     20                                                        
     21          extern unsigned long int cnt_outcom,cnt_incom;
     22          extern unsigned char time_cnt_ch_time;
     23          
     24          unsigned int crc_m1(unsigned char *ka,unsigned int num,unsigned int crc);
     25          void WrArrayToFlesh(unsigned int adres_flesh,  unsigned char *adres_ozu, unsigned int num,unsigned char flag,unsigned char znach);
     26          
     27          void lock_it(void);
     28          
     29          void fun_state_md(void);
     30          extern void tx_rs485_1(void);
     31          extern void tx_rs485_2(void);
     32          extern void tx_rs232_2(void);
     33          extern void tx_rs232_time(void);
     34          extern void test_fram(void);
     35          extern unsigned long int burst_ds_r(void);
     36          
     37          unsigned char check_cts(void);
     38          
     39          extern unsigned int func_crc_tii(void);
     40          extern __no_init unsigned int crc_tii;
     41          extern __no_init unsigned int cnt_tii[8];
     42          
     43          
     44          extern unsigned char Fl_ch_sim; ; //dobavka
     45          extern unsigned long int cnt_no_link, cnt_link_res; //dobavka
     46          
     47          //extern unsigned char count_block_net;
     48          
     49          extern struct
     50           {
     51           unsigned char  clr_wdt     :1;
     52           unsigned char  fl_out      :1;
     53           unsigned char  from_timer0 :1;
     54           unsigned char  fl_main     :1;
     55           unsigned char  from_timer3 :1;
     56           unsigned char  from_timer2 :1; 
     57           unsigned char  from_adc :1;
     58           }fl_wdt;
     59          unsigned char cnt_clr_wdt, cnt_flag_out;
     60          
     61          extern unsigned char cnt_rst_lcp,vol_cnt_rst_lcp;
     62          extern unsigned char cnt_rst_ipcp,vol_cnt_rst_ipcp;                       
     63          extern unsigned char cnt_rst_pap,vol_cnt_rst_pap;  
     64          extern unsigned int cnt_lcp_tm_out,cnt_ipcp_tm_out;
     65          extern unsigned int cnt_pap_tm_out;
     66          
     67          extern struct
     68          {
     69          unsigned char over_buf :1;
     70          unsigned char send_state :1;
     71          unsigned char enable:1; 
     72          }fl_appl_seq1; 
     73          
     74           extern struct
     75            {
     76            unsigned char  ip         :1;
     77            unsigned char  udp        :1;
     78            unsigned char  num_self   :1;
     79            unsigned char cnt_reset;
     80            }fl_rewrite;
     81           
     82          
     83          
     84          extern struct                   //ńňđóęňóđŕ, îďčńűâŕţůŕ˙ îáúĺęň ďĺđĺäŕ÷č ďî PPP 
     85            {  
     86            enum bool link_no ; //ńâ˙çč íĺň
     87            enum bool link_waits; //îćčäŕíčĺ ęâčňęŕ íŕ ęîíňđîëü ńâ˙çč
     88            enum bool link;      //ęîíňđîëü ńâ˙çč    
     89            enum bool nat;      //ęîíňđîëü nat 
     90            unsigned int cnt_link; // ń÷ĺň÷čę
     91            unsigned int cnt_nat; // ń÷ĺň÷čę
     92            unsigned int vol_link; // çíŕ÷ĺíčĺ  
     93            unsigned int vol_nat; // //çíŕ÷ĺíčĺ 
     94            unsigned int vol_waits; // çíŕ÷ĺíčĺ âđĺěĺíč ęâčňęŕ îćčäŕíč˙ ęîíňđîë˙ ńâ˙çč
     95            unsigned char cnt_try; // ń÷ĺň÷čę ďîďűňîę ďîëó÷čňü ęâčňîę
     96            unsigned char vol_try; // rjkbxtcndj ďîďűňîę ďîëó÷čňü ęâčňîę
     97            unsigned int vol_nat_r; // ń÷ĺň÷čę
     98            }Control;
     99          
    100          
    101            //!!!!!!!!!!!!!!!!!!!!!!!!!!!!!ńňđóęňóđű ďđčëîćĺíč˙
    102          extern  struct
    103          {
    104          unsigned char id;
    105          unsigned int p_in;// óęŕçŕňĺëü ńâîáîäíîé ˙÷ĺéęč
    106          unsigned int p_out;
    107          unsigned int p_out_kv;
    108          unsigned int crc;
    109          unsigned int cnt_waits; // ń÷ĺň÷čę îćčäŕíč˙ ęâčňęŕ
    110          unsigned char cnt_try; // ń÷ĺň÷čę ďîďűňîę ďîëó÷čňü ęâčňîę 
    111          unsigned int l_data; // äëčíŕ ďîńűëŕĺěűő äŕííűő
    112          unsigned char state;
    113          unsigned char event;
    114          unsigned int tm_vzat;
    115          unsigned int vol_tm_vzat;
    116          enum bool cntr_cl;
    117          enum bool en_cntr_cl;
    118          unsigned int cnt_cntr_cl;
    119          unsigned int vol_cntr_cl;
    120          }Appl_seq;
    121          
    122          //unsigned char Appl_seq_des;
    123          
    124          //unsigned char state_seq;
    125          
    126          //unsigned char Appl_seq_buf[MAX_BUF_SEQ]; 
    127          
    128          
    129          extern struct
    130          {
    131          unsigned char en_tx :1;
    132          unsigned char kv_waits :1;
    133          unsigned char en_povtor:1;
    134          }fl_appl_seq;
    135          
    136          
    137          extern struct
    138           {
    139            unsigned char time_485_1;
    140            unsigned int client_485_1;
    141            unsigned char start_485_1;
    142            unsigned char time_485_2;
    143            unsigned int client_485_2;
    144            unsigned char start_485_2;
    145            unsigned char time_232_2;
    146            unsigned int client_232_2;
    147            unsigned char start_232_2;
    148           }Life; 
    149          
    150          
    151          extern unsigned char proverka;
    152          extern unsigned char fl_at_mom_232;
    153          
    154          extern enum t_event_modem event_modem;
    155          
    156          
    157          extern unsigned char buf_tx_232[VOL_TX_PPP];
    158          extern unsigned int count_tx_ppp,vol_tx_ppp;
    159          
    160          
    161          extern unsigned char Regim;
    162          extern unsigned char cnt_stm_tm1,cnt_stm_tm2;
    163          extern unsigned int cnt_key_off;
    164          
    165          extern void sending_at_pac(void); 
    166          
    167          extern  struct
    168          {
    169          char buf[LN_BUF_AT];
    170          unsigned char cnt_tx;
    171          unsigned char cnt_rx;
    172          unsigned char ln_buf;
    173          unsigned char list_com[VOL_LIST];// ďĺđĺ÷ĺíü čńďîëí˙ĺěűő ęîěŕíä
    174          unsigned char ln_list;//äëčíŕ ďĺđĺ÷í˙
    175          unsigned char cnt_com;//ń÷ĺň÷čę ęîěŕíä
    176          unsigned int cnt_tm_out; //ń÷ĺň÷čę âđĺěĺíč îćčäŕíč˙ îňâĺňŕ
    177          unsigned int vol_tm_out; //ďđĺäĺë âđĺěĺíč îćčäŕíč˙ îňâĺňŕ
    178          unsigned int cnt_rx_out; //ń÷ĺň÷čę ěĺćáŕéňîâűé ďđîěĺćóňîę
    179          unsigned int vol_rx_out; //ďđĺäĺë ěĺćáŕéňîâîăî ďđîěĺćóňęŕ
    180          }At_com;
    181          
    182          extern enum bool command_AT;
    183          extern enum bool fl_cts_232_ignor;
    184          extern unsigned int cnt_cts_off;
    185          
    186          extern struct
    187           {
    188           unsigned char on: 1;
    189           } fl_cts_232;
    190          
    191          extern struct
    192          {
    193          unsigned char ok :1;//ňđĺáóĺěűé îňâĺň
    194          unsigned char err :1;//îřčáî÷íűé, íĺňđĺáóĺěűé îňâĺň
    195          unsigned char tm_out :1;//îňńóňńňâčĺ îňâĺňŕ
    196          unsigned char tx_en :1;//ďîńëŕňü ęîěěŕíäó
    197          unsigned char rx_en :1;//ďđčíčěŕňü îňâĺňű
    198          unsigned char rx_rec :1;//ďđčí˙ň îňâĺň
    199          //unsigned char tm_out_en:1;//đŕçđĺřĺíčĺ ŕíŕëčçŕ ďî ďđĺâűřĺíčţ âđĺěĺíč îćčäŕíč˙ îňâĺňŕ
    200          }
    201          fl_at_com;
    202          
    203          
    204          #pragma dataseg=MY_SEG

   \                                 In segment MY_SEG, align 1, keep-with-next
    205          __no_init unsigned char Rs485_1_buf_rx_tx[MAX_BUF_RS485_1];
   \                     Rs485_1_buf_rx_tx:
   \   00000000                      DS 1024

   \                                 In segment MY_SEG, align 1, keep-with-next
    206          __no_init unsigned char Rs485_2_buf_rx_tx[MAX_BUF_RS485_2];
   \                     Rs485_2_buf_rx_tx:
   \   00000000                      DS 1024

   \                                 In segment MY_SEG, align 1, keep-with-next
    207          __no_init unsigned char Rs232_2_buf_rx_tx[MAX_BUF_RS232_2];
   \                     Rs232_2_buf_rx_tx:
   \   00000000                      DS 1024

   \                                 In segment NEAR_Z, align 1, keep-with-next
   \   00000000                      REQUIRE `?<Segment init: NEAR_Z>`
    208          #pragma dataseg=default
    209          
    210          
    211          struct                   //ńňđóęňóđŕ îďčńűâŕţůŕ˙ đŕáîňó ďîđňŕ "RS485_1" 
    212            {
    213            unsigned int  cnt_bt_rx_tx;       // ń÷ĺň÷čę áŕéňîâ íŕ ďđčĺě-ďĺđĺäŕ÷ó
    214            unsigned int  cnt_tm_tx_out;    // ń÷ĺň÷čę âđĺěĺíč íŕ óäĺđćŕíčĺ rts ďîńëĺ ďĺđĺäŕ÷č
    215            unsigned int  cnt_tm_pre_tx;    // ń÷ĺň÷čę âđĺěĺíč íŕ óäĺđćŕíčĺ rts ďĺđĺä ďĺđĺäŕ÷č
    216            unsigned int  vol_tm_tx_out;    // ďđĺäĺë ń÷ĺň÷čę âđĺěĺíč íŕ óäĺđćŕíčĺ rts ďîńëĺ ďĺđĺäŕ÷č
    217            unsigned int  cnt_tm_rx_out;   //  ń÷ĺň÷čę âđĺěĺíč íŕ îďđĺäĺëĺíčĺ ęîíöŕ ďđčĺěŕ
    218            unsigned int  vol_tm_rx_out;   //  ďđĺäĺë âđĺěĺíč íŕ îďđĺäĺëĺíčĺ ęîíöŕ ďđčĺěŕ
    219            unsigned int  cnt_tm_out;     // ń÷ĺň÷čę âđĺěĺíč íŕ ďđčĺě 
    220            unsigned int  vol_tm_out;     // ďđĺäĺë ń÷ĺň÷čęŕ âđĺěĺíč íŕ ďđčĺě 
    221            unsigned char *p_data485;   // óęŕçŕňĺëü íŕ áóôĺđ ďĺđĺäŕ÷č
    222            }Rs485_1,Rs485_2,Rs232_2;
   \                     Rs485_1:
   \   00000000                      DS 18
   \                     Rs485_2:
   \   00000012                      DS 18
   \                     Rs232_2:
   \   00000024                      DS 18
   \                     cnt_clr_wdt:
   \   00000036                      DS 1
   \                     cnt_flag_out:
   \   00000037                      DS 1
    223            
    224          struct
    225           {
    226           unsigned char busy : 1;
    227           unsigned char rec : 1;
    228           unsigned char tm_out : 1;
    229           unsigned char tx : 1;
    230           unsigned char over : 1;
    231           unsigned char buffed : 1;
    232           }fl_485_1,fl_485_2,fl_232_2;
   \                     fl_485_1:
   \   00000038                      DS 1
   \                     fl_485_2:
   \   00000039                      DS 1
   \                     fl_232_2:
   \   0000003A                      DS 1
    233          
    234          
    235          
    236          extern  struct
    237           {
    238            unsigned char data[VOL_RX_PPP];//ńŕě áóôĺđ
    239            unsigned int ln_data;  // äëčíŕ äŕííűő
    240            enum bool rec; // ďŕęĺň ďđčí˙ň
    241            enum bool busy;// áóôĺđ çŕí˙ň
    242            enum bool check_busy;// ďđîâĺđęŕ çŕí˙ň ëč áóôĺđ
    243           }Buf1_rx_ppp,Buf2_rx_ppp; // 
    244          
    245          
    246           struct
    247           {
    248           unsigned char fl_7e : 1;//
    249           unsigned char fl_7d : 1;//
    250           unsigned char switcher : 1;//ďĺđĺęëţ÷ŕňĺëü áóôĺđîâ

   \                                 In segment NEAR_Z, align 1, keep-with-next
   \   00000000                      REQUIRE `?<Segment init: NEAR_Z>`
    251           } fl_rx_ppp;
   \                     fl_rx_ppp:
   \   00000000                      DS 1
    252          
    253          ///!!!!!!!!!!!!!!!!!!!!!!!!!!!!!!!!!!!äë˙ ĐĐĐ
    254          extern struct
    255           {
    256            unsigned char act_lcp_end :1;  
    257            unsigned char lcp_tm_out_en :1;
    258            unsigned char t0_pl:1;
    259            unsigned char t0_mi:1;
    260           }fl_lcp; 
    261           
    262          
    263          extern struct
    264           {
    265            unsigned char act_ipcp_end :1;  
    266            unsigned char ipcp_tm_out_en :1;
    267            unsigned char t0_pl:1;
    268            unsigned char t0_mi:1;
    269           }fl_ipcp; 
    270          
    271          extern struct
    272           {
    273            unsigned char act_ip_end :1; 
    274            unsigned char ip_tm_cntr_en :1; 
    275            unsigned char ip_tm_nat_en :1;
    276           }fl_ip;
    277          
    278          
    279          
    280            
    281          extern struct
    282           {
    283            unsigned char act_pap_end :1;  
    284            unsigned char pap_tm_out_en:1;
    285            unsigned char t0_pl:1;
    286            unsigned char t0_mi:1;  
    287            unsigned char up: 1; 
    288           }fl_pap; 
    289          
    290          extern struct
    291           {
    292            unsigned char add_byte :1; 
    293           }fl_reg3;
    294            //EEEEEEEEEEEEEEEEEEEEEEEEEEEEEEEEEEEEEEEEE 
    295           
    296          
    297          extern unsigned long int summa_temperatura;         
    298          extern unsigned int temperatura;
    299          extern unsigned int count_summa_temperatura; 
    300          

   \                                 In segment NEAR_Z, align 1, keep-with-next
   \   00000000                      REQUIRE `?<Segment init: NEAR_Z>`
    301          unsigned int modbus_mem1[SEG1];
   \                     modbus_mem1:
   \   00000000                      DS 70
    302          extern unsigned long int arr_tii_32[8];
    303          
    304          
    305          struct
    306          {
    307           
    308            unsigned char tek_pin :1;
    309            unsigned char old_pin :1;
    310            unsigned char fl_ch_tc :1;
    311            unsigned char real_tc;
    312            unsigned int count_tc; 
    313            unsigned char type;
    314            unsigned char cnt_block_tc;

   \                                 In segment NEAR_Z, align 1, keep-with-next
   \   00000000                      REQUIRE `?<Segment init: NEAR_Z>`
    315          }struct_tcc1,struct_tcc2;
   \                     struct_tcc1:
   \   00000000                      DS 6
   \                     struct_tcc2:
   \   00000006                      DS 6
    316          
    317          
    318          unsigned long int summa_adc[4];         
    319          unsigned char count_summa_adc[4];
    320          
    321          
    322          ///11111111111111111111111111111 ôóíęöčč
    323          
    324          /*
    325           struct struct_ts
    326          {
    327           
    328            unsigned char tek_pin :1;
    329            unsigned char old_pin :1;
    330            unsigned char fl_ch_tc :1;
    331          //  unsigned char real_tc:1;
    332            unsigned char count_tc;
    333          };
    334          */
    335          
    336          struct struct_ts str_tc2,str_tc3,str_tc4,str_tc5,str_tc6,str_tc7,str_tc8;
    337          ///11111111111111111111111111111 ôóíęöčč
    338           
    339          unsigned char cnt_tu1, cnt_tu2;
   \                     cnt_tu1:
   \   0000000C                      DS 1
   \                     cnt_tu2:
   \   0000000D                      DS 1
   \                     str_tc2:
   \   0000000E                      DS 2
   \                     str_tc3:
   \   00000010                      DS 2
   \                     str_tc4:
   \   00000012                      DS 2
   \                     str_tc5:
   \   00000014                      DS 2
   \                     str_tc6:
   \   00000016                      DS 2
   \                     str_tc7:
   \   00000018                      DS 2
   \                     str_tc8:
   \   0000001A                      DS 2

   \                                 In segment NEAR_Z, align 1, keep-with-next
   \   00000000                      REQUIRE `?<Segment init: NEAR_Z>`
   \                     summa_adc:
   \   00000000                      DS 16
   \                     count_summa_adc:
   \   00000010                      DS 4
    340          
    341          
    342          //void opros_ts(unsigned char num, unsigned char port, unsigned char pin, struct struct_ts *ts, unsigned int *tii)

   \                                 In segment CODE, align 2, keep-with-next
    343          void opros_ts(unsigned char num, unsigned char port, unsigned char pin, struct struct_ts *ts)
   \                     opros_ts:
    344          
    345          {
   \   00000000   ........           CALL    ?PROLOGUE4_L09
   \   00000004   2F60               MOV     R22, R16
   \   00000006   01FA               MOVW    R31:R30, R21:R20
    346            if(port & pin)ts->tek_pin=0;else ts->tek_pin=1;
   \   00000008   2321               AND     R18, R17
   \   0000000A   8100               LD      R16, Z
   \   0000000C   F011               BREQ    ??opros_ts_0
   \   0000000E   7F0E               ANDI    R16, 0xFE
   \   00000010   C001               RJMP    ??opros_ts_1
   \                     ??opros_ts_0:
   \   00000012   6001               ORI     R16, 0x01
   \                     ??opros_ts_1:
   \   00000014   8300               ST      Z, R16
    347             if(ts->fl_ch_tc==1)
   \   00000016   8100               LD      R16, Z
   \   00000018   FF02               SBRS    R16, 2
   \   0000001A   C048               RJMP    ??opros_ts_2
    348               {
    349                 ts->count_tc--;
   \   0000001C   8101               LDD     R16, Z+1
   \   0000001E   950A               DEC     R16
   \   00000020   8301               STD     Z+1, R16
    350                 if(ts->count_tc==0)
   \   00000022   8101               LDD     R16, Z+1
   \   00000024   2300               TST     R16
   \   00000026   F009               BREQ    $+2+2
   \   00000028   C04E               RJMP    ??opros_ts_3
    351                 {
    352                   ts->fl_ch_tc=0;
   \   0000002A   8100               LD      R16, Z
   \   0000002C   7F0B               ANDI    R16, 0xFB
   \   0000002E   8300               ST      Z, R16
    353                 //  ts->real_tc=0x01 & (~ts->tek_pin);
    354                  // *tii++;
    355                 //  modbus_mem1[num]=*tii;
    356                   modbus_mem1[AD_TII1+num]++;
   \   00000030   2F26               MOV     R18, R22
   \   00000032   E030               LDI     R19, 0
   \   00000034   ....               LDI     R24, LOW(modbus_mem1)
   \   00000036   ....               LDI     R25, (modbus_mem1) >> 8
   \   00000038   0189               MOVW    R17:R16, R19:R18
   \   0000003A   0F00               LSL     R16
   \   0000003C   1F11               ROL     R17
   \   0000003E   01DC               MOVW    R27:R26, R25:R24
   \   00000040   0FA0               ADD     R26, R16
   \   00000042   1FB1               ADC     R27, R17
   \   00000044   910D               LD      R16, X+
   \   00000046   911C               LD      R17, X
   \   00000048   5F0F               SUBI    R16, 255
   \   0000004A   4F1F               SBCI    R17, 255
   \   0000004C   931C               ST      X, R17
   \   0000004E   930E               ST      -X, R16
    357                   arr_tii_32[num]++;
   \   00000050   0F22               LSL     R18
   \   00000052   1F33               ROL     R19
   \   00000054   0F22               LSL     R18
   \   00000056   1F33               ROL     R19
   \   00000058   01D9               MOVW    R27:R26, R19:R18
   \   0000005A   ....               SUBI    R26, LOW((-(arr_tii_32) & 0xFFFF))
   \   0000005C   ....               SBCI    R27, (-(arr_tii_32) & 0xFFFF) >> 8
   \   0000005E   910D               LD      R16, X+
   \   00000060   911D               LD      R17, X+
   \   00000062   912D               LD      R18, X+
   \   00000064   913C               LD      R19, X
   \   00000066   5F0F               SUBI    R16, 255
   \   00000068   4F1F               SBCI    R17, 255
   \   0000006A   4F2F               SBCI    R18, 255
   \   0000006C   4F3F               SBCI    R19, 255
   \   0000006E   933C               ST      X, R19
   \   00000070   932E               ST      -X, R18
   \   00000072   931E               ST      -X, R17
   \   00000074   930E               ST      -X, R16
    358                   modbus_mem1[AD_TS]=(modbus_mem1[AD_TS] & (~(0x01<<num))) | (ts->tek_pin <<num);
   \   00000076   01DC               MOVW    R27:R26, R25:R24
   \   00000078   96D0               ADIW    R27:R26, 48
   \   0000007A   912D               LD      R18, X+
   \   0000007C   913C               LD      R19, X
   \   0000007E   E001               LDI     R16, 1
   \   00000080   E010               LDI     R17, 0
   \   00000082   2F46               MOV     R20, R22
   \   00000084   ........           CALL    ?S_SHL_L02
   \   00000088   0108               MOVW    R1:R0, R17:R16
   \   0000008A   9400               COM     R0
   \   0000008C   9410               COM     R1
   \   0000008E   2202               AND     R0, R18
   \   00000090   2213               AND     R1, R19
   \   00000092   8100               LD      R16, Z
   \   00000094   7001               ANDI    R16, 0x01
   \   00000096   E010               LDI     R17, 0
   \   00000098   2F46               MOV     R20, R22
   \   0000009A   ........           CALL    ?S_SHL_L02
   \   0000009E   2900               OR      R16, R0
   \   000000A0   2911               OR      R17, R1
   \   000000A2   01DC               MOVW    R27:R26, R25:R24
   \   000000A4   96D0               ADIW    R27:R26, 48
   \   000000A6   930D               ST      X+, R16
   \   000000A8   931C               ST      X, R17
   \   000000AA   C00D               RJMP    ??opros_ts_3
    359                 }
    360               } 
    361               else
    362               {
    363                 if(ts->tek_pin!=ts->old_pin)
   \                     ??opros_ts_2:
   \   000000AC   8100               LD      R16, Z
   \   000000AE   7001               ANDI    R16, 0x01
   \   000000B0   8110               LD      R17, Z
   \   000000B2   FB11               BST     R17, 1
   \   000000B4   E010               LDI     R17, 0
   \   000000B6   F910               BLD     R17, 0
   \   000000B8   1701               CP      R16, R17
   \   000000BA   F029               BREQ    ??opros_ts_3
    364                 {
    365                 ts->fl_ch_tc=1;
   \   000000BC   8100               LD      R16, Z
   \   000000BE   6004               ORI     R16, 0x04
   \   000000C0   8300               ST      Z, R16
    366                 ts->count_tc=30;
   \   000000C2   E10E               LDI     R16, 30
   \   000000C4   8301               STD     Z+1, R16
    367                 }
    368               }
    369              ts->old_pin=ts->tek_pin;
   \                     ??opros_ts_3:
   \   000000C6   8100               LD      R16, Z
   \   000000C8   7001               ANDI    R16, 0x01
   \   000000CA   FB00               BST     R16, 0
   \   000000CC   8100               LD      R16, Z
   \   000000CE   F901               BLD     R16, 1
   \   000000D0   8300               ST      Z, R16
    370          }
   \   000000D2   E0E4               LDI     R30, 4
   \   000000D4   ........           JMP     ?EPILOGUE_B4_L09
    371          
    372          
    373          
    374          

   \                                 In segment CODE, align 2, keep-with-next
    375          void sending_ppp_proverka(void)
   \                     sending_ppp_proverka:
    376          {   
   \   00000000   019D               MOVW    R19:R18, R27:R26
    377             if(count_tx_ppp>=20)
   \   00000002   ....               LDI     R26, LOW(count_tx_ppp)
   \   00000004   ....               LDI     R27, (count_tx_ppp) >> 8
   \   00000006   91ED               LD      R30, X+
   \   00000008   91FC               LD      R31, X
   \   0000000A   9774               SBIW    R31:R30, 20
   \   0000000C   F018               BRCS    ??sending_ppp_proverka_0
    378             {
    379              // UCSR0B=UCSR0B & ~TXEN;!!!!
    380              // UCSR0B=UCSR0B & ~TXCIE; !!!!
    381               S2_OFF;
   \   0000000E   9840               CBI     0x08, 0x00
   \   00000010   9841               CBI     0x08, 0x01
    382               return;
   \   00000012   C018               RJMP    ??sending_ppp_proverka_1
    383             }
    384             
    385             UDR0=buf_tx_232[count_tx_ppp]; if(Regim==RG_DEBAG) UDR3=buf_tx_232[count_tx_ppp];
   \                     ??sending_ppp_proverka_0:
   \   00000014   ....               LDI     R30, LOW(count_tx_ppp)
   \   00000016   ....               LDI     R31, (count_tx_ppp) >> 8
   \   00000018   8100               LD      R16, Z
   \   0000001A   8111               LDD     R17, Z+1
   \   0000001C   01F8               MOVW    R31:R30, R17:R16
   \   0000001E   ....               SUBI    R30, LOW((-(buf_tx_232) & 0xFFFF))
   \   00000020   ....               SBCI    R31, (-(buf_tx_232) & 0xFFFF) >> 8
   \   00000022   8110               LD      R17, Z
   \   00000024   931000C6           STS     198, R17
   \   00000028   9100....           LDS     R16, Regim
   \   0000002C   3001               CPI     R16, 1
   \   0000002E   F411               BRNE    ??sending_ppp_proverka_2
   \   00000030   93100136           STS     310, R17
    386             count_tx_ppp++;
   \                     ??sending_ppp_proverka_2:
   \   00000034   ....               LDI     R30, LOW(count_tx_ppp)
   \   00000036   ....               LDI     R31, (count_tx_ppp) >> 8
   \   00000038   8100               LD      R16, Z
   \   0000003A   8111               LDD     R17, Z+1
   \   0000003C   5F0F               SUBI    R16, 255
   \   0000003E   4F1F               SBCI    R17, 255
   \   00000040   8300               ST      Z, R16
   \   00000042   8311               STD     Z+1, R17
    387          }
   \                     ??sending_ppp_proverka_1:
   \   00000044   01D9               MOVW    R27:R26, R19:R18
   \   00000046   9508               RET
    388          
    389          
    390          

   \                                 In segment CODE, align 2, keep-with-next
    391            void sending_ppp_pac(void)
   \                     sending_ppp_pac:
    392          {   
    393            cnt_supervosor=0;
   \   00000000   E000               LDI     R16, 0
   \   00000002   ....               LDI     R30, LOW(cnt_supervosor)
   \   00000004   ....               LDI     R31, (cnt_supervosor) >> 8
   \   00000006   8300               ST      Z, R16
   \   00000008   8301               STD     Z+1, R16
    394            
    395           if(count_tx_ppp>=(vol_tx_ppp-1))
   \   0000000A   ....               LDI     R30, LOW(vol_tx_ppp)
   \   0000000C   ....               LDI     R31, (vol_tx_ppp) >> 8
   \   0000000E   8100               LD      R16, Z
   \   00000010   8111               LDD     R17, Z+1
   \   00000012   5001               SUBI    R16, 1
   \   00000014   4010               SBCI    R17, 0
   \   00000016   ....               LDI     R30, LOW(count_tx_ppp)
   \   00000018   ....               LDI     R31, (count_tx_ppp) >> 8
   \   0000001A   8120               LD      R18, Z
   \   0000001C   8131               LDD     R19, Z+1
   \   0000001E   1720               CP      R18, R16
   \   00000020   0731               CPC     R19, R17
   \   00000022   F140               BRCS    ??sending_ppp_pac_0
    396               { 
    397            
    398               if (fl_lcp.act_lcp_end==0) fl_lcp.act_lcp_end=1;
   \   00000024   ....               LDI     R30, LOW(fl_lcp)
   \   00000026   ....               LDI     R31, (fl_lcp) >> 8
   \   00000028   8100               LD      R16, Z
   \   0000002A   FD00               SBRC    R16, 0
   \   0000002C   C003               RJMP    ??sending_ppp_pac_1
   \   0000002E   8100               LD      R16, Z
   \   00000030   6001               ORI     R16, 0x01
   \   00000032   8300               ST      Z, R16
    399               if (fl_pap.act_pap_end==0) fl_pap.act_pap_end=1;    
   \                     ??sending_ppp_pac_1:
   \   00000034   ....               LDI     R30, LOW(fl_pap)
   \   00000036   ....               LDI     R31, (fl_pap) >> 8
   \   00000038   8100               LD      R16, Z
   \   0000003A   FD00               SBRC    R16, 0
   \   0000003C   C003               RJMP    ??sending_ppp_pac_2
   \   0000003E   8100               LD      R16, Z
   \   00000040   6001               ORI     R16, 0x01
   \   00000042   8300               ST      Z, R16
    400               if (fl_ipcp.act_ipcp_end==0) fl_ipcp.act_ipcp_end=1;  
   \                     ??sending_ppp_pac_2:
   \   00000044   ....               LDI     R30, LOW(fl_ipcp)
   \   00000046   ....               LDI     R31, (fl_ipcp) >> 8
   \   00000048   8100               LD      R16, Z
   \   0000004A   FD00               SBRC    R16, 0
   \   0000004C   C003               RJMP    ??sending_ppp_pac_3
   \   0000004E   8100               LD      R16, Z
   \   00000050   6001               ORI     R16, 0x01
   \   00000052   8300               ST      Z, R16
    401               if (fl_ip.act_ip_end==0) fl_ip.act_ip_end=1; 
   \                     ??sending_ppp_pac_3:
   \   00000054   ....               LDI     R30, LOW(fl_ip)
   \   00000056   ....               LDI     R31, (fl_ip) >> 8
   \   00000058   8100               LD      R16, Z
   \   0000005A   FD00               SBRC    R16, 0
   \   0000005C   C003               RJMP    ??sending_ppp_pac_4
   \   0000005E   8100               LD      R16, Z
   \   00000060   6001               ORI     R16, 0x01
   \   00000062   8300               ST      Z, R16
    402               fl_reg3.add_byte=0;   
   \                     ??sending_ppp_pac_4:
   \   00000064   ....               LDI     R30, LOW(fl_reg3)
   \   00000066   ....               LDI     R31, (fl_reg3) >> 8
   \   00000068   8100               LD      R16, Z
   \   0000006A   7F0E               ANDI    R16, 0xFE
   \   0000006C   8300               ST      Z, R16
    403             //  UCSR0B=UCSR0B & ~TXEN;!!!!!!!
    404             //  UCSR0B=UCSR0B & ~TXCIE; !!!!
    405               S2_OFF;
   \   0000006E   9840               CBI     0x08, 0x00
   \   00000070   9841               CBI     0x08, 0x01
    406               return;
   \   00000072   9508               RET
    407               }   
    408                
    409                 
    410          if (fl_reg3.add_byte==1) 
   \                     ??sending_ppp_pac_0:
   \   00000074   ....               LDI     R30, LOW(fl_reg3)
   \   00000076   ....               LDI     R31, (fl_reg3) >> 8
   \   00000078   8120               LD      R18, Z
   \   0000007A   FF20               SBRS    R18, 0
   \   0000007C   C02E               RJMP    ??sending_ppp_pac_5
    411              {         
    412                fl_reg3.add_byte=0;
   \   0000007E   8100               LD      R16, Z
   \   00000080   7F0E               ANDI    R16, 0xFE
   \   00000082   8300               ST      Z, R16
    413                if (buf_tx_232[count_tx_ppp]==0x7e){UDR0=0x5e;if(Regim==RG_DEBAG) UDR3=0x5e;return;}  
   \   00000084   ....               LDI     R30, LOW(count_tx_ppp)
   \   00000086   ....               LDI     R31, (count_tx_ppp) >> 8
   \   00000088   8100               LD      R16, Z
   \   0000008A   8111               LDD     R17, Z+1
   \   0000008C   01F8               MOVW    R31:R30, R17:R16
   \   0000008E   ....               SUBI    R30, LOW((-(buf_tx_232) & 0xFFFF))
   \   00000090   ....               SBCI    R31, (-(buf_tx_232) & 0xFFFF) >> 8
   \   00000092   8100               LD      R16, Z
   \   00000094   370E               CPI     R16, 126
   \   00000096   F451               BRNE    ??sending_ppp_pac_6
   \   00000098   E50E               LDI     R16, 94
   \   0000009A   930000C6           STS     198, R16
   \   0000009E   9100....           LDS     R16, Regim
   \   000000A2   3001               CPI     R16, 1
   \   000000A4   F009               BREQ    $+2+2
   \   000000A6   C059               RJMP    ??sending_ppp_pac_7
   \   000000A8   E50E               LDI     R16, 94
   \   000000AA   C00B               RJMP    ??sending_ppp_pac_8
    414                if (buf_tx_232[count_tx_ppp]==0x7d){UDR0=0x5d;if(Regim==RG_DEBAG) UDR3=0x5d;return;} 
   \                     ??sending_ppp_pac_6:
   \   000000AC   370D               CPI     R16, 125
   \   000000AE   F461               BRNE    ??sending_ppp_pac_9
   \   000000B0   E50D               LDI     R16, 93
   \   000000B2   930000C6           STS     198, R16
   \   000000B6   9100....           LDS     R16, Regim
   \   000000BA   3001               CPI     R16, 1
   \   000000BC   F009               BREQ    $+2+2
   \   000000BE   C04D               RJMP    ??sending_ppp_pac_7
   \   000000C0   E50D               LDI     R16, 93
   \                     ??sending_ppp_pac_8:
   \   000000C2   93000136           STS     310, R16
   \   000000C6   9508               RET
    415                UDR0=buf_tx_232[count_tx_ppp]+0x20;if(Regim==RG_DEBAG) UDR3=buf_tx_232[count_tx_ppp]+0x20;
   \                     ??sending_ppp_pac_9:
   \   000000C8   5E00               SUBI    R16, 224
   \   000000CA   930000C6           STS     198, R16
   \   000000CE   9110....           LDS     R17, Regim
   \   000000D2   3011               CPI     R17, 1
   \   000000D4   F009               BREQ    $+2+2
   \   000000D6   C041               RJMP    ??sending_ppp_pac_7
   \   000000D8   CFF4               RJMP    ??sending_ppp_pac_8
    416                return;
    417              }
    418          
    419                                                                   
    420            count_tx_ppp++;                
   \                     ??sending_ppp_pac_5:
   \   000000DA   ....               LDI     R30, LOW(count_tx_ppp)
   \   000000DC   ....               LDI     R31, (count_tx_ppp) >> 8
   \   000000DE   8120               LD      R18, Z
   \   000000E0   8131               LDD     R19, Z+1
   \   000000E2   5F2F               SUBI    R18, 255
   \   000000E4   4F3F               SBCI    R19, 255
   \   000000E6   8320               ST      Z, R18
   \   000000E8   8331               STD     Z+1, R19
    421             
    422            if(count_tx_ppp==(vol_tx_ppp-1))goto exit_tx;   
   \   000000EA   8120               LD      R18, Z
   \   000000EC   8131               LDD     R19, Z+1
   \   000000EE   1720               CP      R18, R16
   \   000000F0   0731               CPC     R19, R17
   \   000000F2   F119               BREQ    ??sending_ppp_pac_10
    423            
    424                 
    425                 if ((buf_tx_232[count_tx_ppp]==0x7e)||(buf_tx_232[count_tx_ppp]==0x7d))
   \   000000F4   8100               LD      R16, Z
   \   000000F6   8111               LDD     R17, Z+1
   \   000000F8   01F8               MOVW    R31:R30, R17:R16
   \   000000FA   ....               SUBI    R30, LOW((-(buf_tx_232) & 0xFFFF))
   \   000000FC   ....               SBCI    R31, (-(buf_tx_232) & 0xFFFF) >> 8
   \   000000FE   8100               LD      R16, Z
   \   00000100   370E               CPI     R16, 126
   \   00000102   F011               BREQ    ??sending_ppp_pac_11
   \   00000104   370D               CPI     R16, 125
   \   00000106   F471               BRNE    ??sending_ppp_pac_12
    426                      {
    427                      fl_reg3.add_byte=1;
   \                     ??sending_ppp_pac_11:
   \   00000108   ....               LDI     R30, LOW(fl_reg3)
   \   0000010A   ....               LDI     R31, (fl_reg3) >> 8
   \   0000010C   8100               LD      R16, Z
   \   0000010E   6001               ORI     R16, 0x01
   \   00000110   8300               ST      Z, R16
    428                      UDR0=0x7d; 
   \   00000112   E70D               LDI     R16, 125
   \   00000114   930000C6           STS     198, R16
    429                      if(Regim==RG_DEBAG) UDR3=0x7d;
   \   00000118   9100....           LDS     R16, Regim
   \   0000011C   3001               CPI     R16, 1
   \   0000011E   F4E9               BRNE    ??sending_ppp_pac_7
   \   00000120   E70D               LDI     R16, 125
   \   00000122   CFCF               RJMP    ??sending_ppp_pac_8
    430                      return;
    431                      } 
    432                  
    433                 if ((buf_tx_232[count_tx_ppp]==17)||(buf_tx_232[count_tx_ppp]==19))
   \                     ??sending_ppp_pac_12:
   \   00000124   3101               CPI     R16, 17
   \   00000126   F381               BREQ    ??sending_ppp_pac_11
   \   00000128   3103               CPI     R16, 19
   \   0000012A   F371               BREQ    ??sending_ppp_pac_11
    434                      {
    435                      fl_reg3.add_byte=1;
    436                      UDR0=0x7d; 
    437                      if(Regim==RG_DEBAG) UDR3=0x7d;
    438                      return;
    439                      }     
    440                  
    441                 if ((buf_tx_232[count_tx_ppp]<0x20)&&(fl_ip.act_ip_end==1)) 
   \   0000012C   3200               CPI     R16, 32
   \   0000012E   F428               BRCC    ??sending_ppp_pac_10
   \   00000130   ....               LDI     R30, LOW(fl_ip)
   \   00000132   ....               LDI     R31, (fl_ip) >> 8
   \   00000134   8100               LD      R16, Z
   \   00000136   FD00               SBRC    R16, 0
   \   00000138   CFE7               RJMP    ??sending_ppp_pac_11
    442                      {
    443                      fl_reg3.add_byte=1;
    444                      UDR0=0x7d; 
    445                      if(Regim==RG_DEBAG) UDR3=0x7d;
    446                      return;
    447                      }   
    448                 
    449                            
    450          exit_tx:  UDR0=buf_tx_232[count_tx_ppp]; if(Regim==RG_DEBAG) UDR3=buf_tx_232[count_tx_ppp];
   \                     ??sending_ppp_pac_10:
   \   0000013A   ....               LDI     R30, LOW(count_tx_ppp)
   \   0000013C   ....               LDI     R31, (count_tx_ppp) >> 8
   \   0000013E   8100               LD      R16, Z
   \   00000140   8111               LDD     R17, Z+1
   \   00000142   01F8               MOVW    R31:R30, R17:R16
   \   00000144   ....               SUBI    R30, LOW((-(buf_tx_232) & 0xFFFF))
   \   00000146   ....               SBCI    R31, (-(buf_tx_232) & 0xFFFF) >> 8
   \   00000148   8100               LD      R16, Z
   \   0000014A   930000C6           STS     198, R16
   \   0000014E   9110....           LDS     R17, Regim
   \   00000152   3011               CPI     R17, 1
   \   00000154   F411               BRNE    ??sending_ppp_pac_7
   \   00000156   93000136           STS     310, R16
   \                     ??sending_ppp_pac_7:
   \   0000015A   9508               RET
    451          } 
    452          
    453           
    454           

   \                                 In segment CODE, align 2, keep-with-next
    455           void recive_buf1(unsigned char temp)
   \                     recive_buf1:
    456            {
   \   00000000   01AD               MOVW    R21:R20, R27:R26
    457            
    458           // if(Regim==RG_DEBAG)UDR1=temp;  //!!!!!!!! poka
    459              
    460            if(fl_rx_ppp.fl_7e==1)
   \   00000002   ....               LDI     R30, LOW(fl_rx_ppp)
   \   00000004   ....               LDI     R31, (fl_rx_ppp) >> 8
   \   00000006   8110               LD      R17, Z
   \   00000008   FF10               SBRS    R17, 0
   \   0000000A   C076               RJMP    ??recive_buf1_0
    461                            { 
    462                             
    463                             
    464                              if(Buf1_rx_ppp.ln_data>=VOL_RX_PPP)// ďđîâĺđęŕ íŕ ďĺđĺďîëíĺíčĺ ďĺđâîăî áóôĺđŕ
   \   0000000C   ....               LDI     R30, LOW((Buf1_rx_ppp + 330))
   \   0000000E   ....               LDI     R31, HIGH((Buf1_rx_ppp + 330))
   \   00000010   8120               LD      R18, Z
   \   00000012   8131               LDD     R19, Z+1
   \   00000014   342A               CPI     R18, 74
   \   00000016   E011               LDI     R17, 1
   \   00000018   0731               CPC     R19, R17
   \   0000001A   F058               BRCS    ??recive_buf1_1
    465                              {
    466                                 Buf1_rx_ppp.ln_data=0;
   \   0000001C   E000               LDI     R16, 0
   \   0000001E   8300               ST      Z, R16
   \   00000020   8301               STD     Z+1, R16
    467                                 fl_rx_ppp.fl_7e=0;
    468                                 fl_rx_ppp.fl_7d=0;
   \   00000022   ....               LDI     R30, LOW(fl_rx_ppp)
   \   00000024   ....               LDI     R31, (fl_rx_ppp) >> 8
   \   00000026   8100               LD      R16, Z
   \   00000028   7F0C               ANDI    R16, 0xFC
   \   0000002A   8300               ST      Z, R16
    469                                 S2_OFF;        
   \   0000002C   9840               CBI     0x08, 0x00
   \   0000002E   9841               CBI     0x08, 0x01
    470                                 
    471                                 //S3_GR;//!!!!proverka
    472                                 return;
   \   00000030   C073               RJMP    ??recive_buf1_2
    473                              }
    474            
    475                               
    476                              // //////////óęëŕäęŕ
    477                              if(temp==0x7d)
   \                     ??recive_buf1_1:
   \   00000032   370D               CPI     R16, 125
   \   00000034   F431               BRNE    ??recive_buf1_3
    478                                 {  
    479                                   fl_rx_ppp.fl_7d=1;
   \   00000036   ....               LDI     R30, LOW(fl_rx_ppp)
   \   00000038   ....               LDI     R31, (fl_rx_ppp) >> 8
   \   0000003A   8100               LD      R16, Z
   \   0000003C   6002               ORI     R16, 0x02
   \                     ??recive_buf1_4:
   \   0000003E   8300               ST      Z, R16
    480                                   return;
   \   00000040   C06B               RJMP    ??recive_buf1_2
    481                                 }
    482                                  else
    483                                 {  
    484                                   if (fl_rx_ppp.fl_7d==1)
   \                     ??recive_buf1_3:
   \   00000042   ....               LDI     R30, LOW(Buf1_rx_ppp)
   \   00000044   ....               LDI     R31, (Buf1_rx_ppp) >> 8
   \   00000046   0FE2               ADD     R30, R18
   \   00000048   1FF3               ADC     R31, R19
   \   0000004A   ....               LDI     R26, LOW(fl_rx_ppp)
   \   0000004C   ....               LDI     R27, (fl_rx_ppp) >> 8
   \   0000004E   911C               LD      R17, X
   \   00000050   FF11               SBRS    R17, 1
   \   00000052   C010               RJMP    ??recive_buf1_5
    485                                      {                 
    486                                        
    487                                        Buf1_rx_ppp.data[Buf1_rx_ppp.ln_data]=temp ^ 0x20;
   \   00000054   E210               LDI     R17, 32
   \   00000056   2710               EOR     R17, R16
   \   00000058   8310               ST      Z, R17
    488                                        Buf1_rx_ppp.ln_data++;
   \   0000005A   ....               LDI     R30, LOW((Buf1_rx_ppp + 330))
   \   0000005C   ....               LDI     R31, HIGH((Buf1_rx_ppp + 330))
   \   0000005E   8100               LD      R16, Z
   \   00000060   8111               LDD     R17, Z+1
   \   00000062   5F0F               SUBI    R16, 255
   \   00000064   4F1F               SBCI    R17, 255
   \   00000066   8300               ST      Z, R16
   \   00000068   8311               STD     Z+1, R17
    489                                        fl_rx_ppp.fl_7d=0;
   \   0000006A   ....               LDI     R30, LOW(fl_rx_ppp)
   \   0000006C   ....               LDI     R31, (fl_rx_ppp) >> 8
   \   0000006E   8100               LD      R16, Z
   \   00000070   7F0D               ANDI    R16, 0xFD
   \   00000072   CFE5               RJMP    ??recive_buf1_4
    490                                        /*
    491                                        if((temp>=0x20)&&(temp<0x40)){Buf1_rx_ppp.data[Buf1_rx_ppp.ln_data]=temp-0x20;Buf1_rx_ppp.ln_data++;fl_rx_ppp.fl_7d=0;return;}                                
    492                                        if(temp==0x5e){Buf1_rx_ppp.data[Buf1_rx_ppp.ln_data]=0x7e;Buf1_rx_ppp.ln_data++;fl_rx_ppp.fl_7d=0;return;}  
    493                                        if(temp==0x5d){Buf1_rx_ppp.data[Buf1_rx_ppp.ln_data]=0x7d;Buf1_rx_ppp.ln_data++;fl_rx_ppp.fl_7d=0;return;} 
    494                                        Buf1_rx_ppp.ln_data=0;
    495                                        fl_rx_ppp.fl_7e=0;
    496                                        fl_rx_ppp.fl_7d=0;             
    497                                        S3_RD;//!!!!proverka
    498                                        S2_OFF;
    499                                        */
    500                                        
    501                                        return;
    502                                       }  
    503                                      else
    504                                        {        
    505                                             Buf1_rx_ppp.data[Buf1_rx_ppp.ln_data] =temp;
   \                     ??recive_buf1_5:
   \   00000074   8300               ST      Z, R16
    506                                             Buf1_rx_ppp.ln_data++;                                                  
   \   00000076   ....               LDI     R30, LOW((Buf1_rx_ppp + 330))
   \   00000078   ....               LDI     R31, HIGH((Buf1_rx_ppp + 330))
   \   0000007A   8120               LD      R18, Z
   \   0000007C   8131               LDD     R19, Z+1
   \   0000007E   5F2F               SUBI    R18, 255
   \   00000080   4F3F               SBCI    R19, 255
   \   00000082   8320               ST      Z, R18
   \   00000084   8331               STD     Z+1, R19
    507                                  
    508                                               if(temp==0x7e)         //íĺň ďĺđĺďîëíĺíč˙
   \   00000086   370E               CPI     R16, 126
   \   00000088   F009               BREQ    $+2+2
   \   0000008A   C046               RJMP    ??recive_buf1_2
    509                                                  {  
    510                                                   if(Buf1_rx_ppp.ln_data<=2) //ĺńëč ďîäđ˙ä äâŕ 0x7e 
   \   0000008C   ....               LDI     R26, LOW((Buf1_rx_ppp + 330))
   \   0000008E   ....               LDI     R27, HIGH((Buf1_rx_ppp + 330))
   \   00000090   91ED               LD      R30, X+
   \   00000092   91FC               LD      R31, X
   \   00000094   9733               SBIW    R31:R30, 3
   \   00000096   F478               BRCC    ??recive_buf1_6
    511                                                       {
    512                                                        //  if(ppp_packet.rcvd==1)???????????????
    513                                                        /*
    514                                                        if((layer_PPP==LAYER_IP)&&(Buf1_rx_ppp.ln_data==2))
    515                                                        {
    516                                                         S4_RD;//proverka!!!!!
    517                                                         while(1)__watchdog_reset();//proverka!!!!!
    518                                                        }
    519                                                        */
    520                                                         
    521                                                        fl_rx_ppp.fl_7e=1;   
   \   00000098   ....               LDI     R30, LOW(fl_rx_ppp)
   \   0000009A   ....               LDI     R31, (fl_rx_ppp) >> 8
   \   0000009C   8100               LD      R16, Z
   \   0000009E   6001               ORI     R16, 0x01
   \   000000A0   8300               ST      Z, R16
    522                                                        Buf1_rx_ppp.data[0]=temp;  
   \   000000A2   E70E               LDI     R16, 126
   \   000000A4   9300....           STS     Buf1_rx_ppp, R16
    523                                                        Buf1_rx_ppp.ln_data=1; 
   \   000000A8   E001               LDI     R16, 1
   \   000000AA   E010               LDI     R17, 0
   \   000000AC   ....               LDI     R30, LOW((Buf1_rx_ppp + 330))
   \   000000AE   ....               LDI     R31, HIGH((Buf1_rx_ppp + 330))
   \   000000B0   8300               ST      Z, R16
   \   000000B2   8311               STD     Z+1, R17
    524                                                        return;
   \   000000B4   C031               RJMP    ??recive_buf1_2
    525                                                        }
    526                                                  
    527                                                              
    528                                                   S2_OFF;
   \                     ??recive_buf1_6:
   \   000000B6   9840               CBI     0x08, 0x00
   \   000000B8   9841               CBI     0x08, 0x01
    529                                                   fl_rx_ppp.fl_7e=0;
    530                                                   fl_rx_ppp.switcher=1;
   \   000000BA   ....               LDI     R30, LOW(fl_rx_ppp)
   \   000000BC   ....               LDI     R31, (fl_rx_ppp) >> 8
   \   000000BE   8100               LD      R16, Z
   \   000000C0   7F0E               ANDI    R16, 0xFE
   \   000000C2   8300               ST      Z, R16
   \   000000C4   8100               LD      R16, Z
   \   000000C6   6004               ORI     R16, 0x04
   \   000000C8   8300               ST      Z, R16
    531                                                   Buf1_rx_ppp.rec=TRUE; 
   \   000000CA   E001               LDI     R16, 1
   \   000000CC   9300....           STS     (Buf1_rx_ppp + 332), R16
    532                                                   Buf1_rx_ppp.busy=TRUE;
   \   000000D0   9300....           STS     (Buf1_rx_ppp + 333), R16
    533                                                   if(Buf2_rx_ppp.busy==TRUE)
   \   000000D4   9100....           LDS     R16, (Buf2_rx_ppp + 333)
   \   000000D8   3001               CPI     R16, 1
   \   000000DA   F4F1               BRNE    ??recive_buf1_2
    534                                                    {
    535                                                  
    536                                                     Buf2_rx_ppp.check_busy=TRUE;
   \   000000DC   E001               LDI     R16, 1
   \   000000DE   9300....           STS     (Buf2_rx_ppp + 334), R16
    537                                                     UCSR0B=UCSR0B & ~RXEN;
   \   000000E2   910000C1           LDS     R16, 193
   \   000000E6   7E0F               ANDI    R16, 0xEF
   \   000000E8   930000C1           STS     193, R16
    538                                                     UCSR0B=UCSR0B & ~RXCIE; 
   \   000000EC   910000C1           LDS     R16, 193
   \   000000F0   770F               ANDI    R16, 0x7F
   \   000000F2   930000C1           STS     193, R16
   \   000000F6   C010               RJMP    ??recive_buf1_2
    539                                                    }
    540                                                   return;
    541                                                  }  
    542                                         }
    543                            
    544                                  }
    545                                              
    546                              return;   
    547                            }         //ę ďĺęĺň áĺăčí
    548                            else
    549                            {
    550                             if(temp==0x7e)
   \                     ??recive_buf1_0:
   \   000000F8   370E               CPI     R16, 126
   \   000000FA   F471               BRNE    ??recive_buf1_2
    551                                    {
    552                                  //  if(ppp_packet.rcvd==1)???????????????                          
    553                                    fl_rx_ppp.fl_7e=1;   
   \   000000FC   8100               LD      R16, Z
   \   000000FE   6001               ORI     R16, 0x01
   \   00000100   8300               ST      Z, R16
    554                                    Buf1_rx_ppp.data[0]=temp;  
   \   00000102   E70E               LDI     R16, 126
   \   00000104   9300....           STS     Buf1_rx_ppp, R16
    555                                    Buf1_rx_ppp.ln_data=1;
   \   00000108   E001               LDI     R16, 1
   \   0000010A   E010               LDI     R17, 0
   \   0000010C   ....               LDI     R30, LOW((Buf1_rx_ppp + 330))
   \   0000010E   ....               LDI     R31, HIGH((Buf1_rx_ppp + 330))
   \   00000110   8300               ST      Z, R16
   \   00000112   8311               STD     Z+1, R17
    556                                    S2_GR; 
   \   00000114   9840               CBI     0x08, 0x00
   \   00000116   9A41               SBI     0x08, 0x01
   \                     ??recive_buf1_2:
   \   00000118   01DA               MOVW    R27:R26, R21:R20
   \   0000011A   9508               RET
    557                                    }
    558                            }
    559            }
    560           
    561          
    562          
    563          

   \                                 In segment CODE, align 2, keep-with-next
    564          void recive_buf2(unsigned char temp)
   \                     recive_buf2:
    565            {
   \   00000000   01AD               MOVW    R21:R20, R27:R26
    566            
    567           // if(Regim==RG_DEBAG)UDR1=temp;  //!!!!!!!! poka
    568              
    569            if(fl_rx_ppp.fl_7e==1)
   \   00000002   ....               LDI     R30, LOW(fl_rx_ppp)
   \   00000004   ....               LDI     R31, (fl_rx_ppp) >> 8
   \   00000006   8110               LD      R17, Z
   \   00000008   FF10               SBRS    R17, 0
   \   0000000A   C073               RJMP    ??recive_buf2_0
    570                            { 
    571                             
    572                             
    573                              if(Buf2_rx_ppp.ln_data>=VOL_RX_PPP)// ďđîâĺđęŕ íŕ ďĺđĺďîëíĺíčĺ ďĺđâîăî áóôĺđŕ
   \   0000000C   ....               LDI     R30, LOW((Buf2_rx_ppp + 330))
   \   0000000E   ....               LDI     R31, HIGH((Buf2_rx_ppp + 330))
   \   00000010   8120               LD      R18, Z
   \   00000012   8131               LDD     R19, Z+1
   \   00000014   342A               CPI     R18, 74
   \   00000016   E011               LDI     R17, 1
   \   00000018   0731               CPC     R19, R17
   \   0000001A   F058               BRCS    ??recive_buf2_1
    574                              {
    575                                 Buf2_rx_ppp.ln_data=0;
   \   0000001C   E000               LDI     R16, 0
   \   0000001E   8300               ST      Z, R16
   \   00000020   8301               STD     Z+1, R16
    576                                 fl_rx_ppp.fl_7e=0;
    577                                 fl_rx_ppp.fl_7d=0;
   \   00000022   ....               LDI     R30, LOW(fl_rx_ppp)
   \   00000024   ....               LDI     R31, (fl_rx_ppp) >> 8
   \   00000026   8100               LD      R16, Z
   \   00000028   7F0C               ANDI    R16, 0xFC
   \   0000002A   8300               ST      Z, R16
    578                                 S2_OFF;
   \   0000002C   9840               CBI     0x08, 0x00
   \   0000002E   9841               CBI     0x08, 0x01
    579                            //     S3_GR;//!!!!proverka
    580                                 return;
   \   00000030   C070               RJMP    ??recive_buf2_2
    581                              }
    582            
    583                               
    584                              // //////////óęëŕäęŕ
    585                              if(temp==0x7d)
   \                     ??recive_buf2_1:
   \   00000032   370D               CPI     R16, 125
   \   00000034   F431               BRNE    ??recive_buf2_3
    586                                 {  
    587                                   fl_rx_ppp.fl_7d=1;
   \   00000036   ....               LDI     R30, LOW(fl_rx_ppp)
   \   00000038   ....               LDI     R31, (fl_rx_ppp) >> 8
   \   0000003A   8100               LD      R16, Z
   \   0000003C   6002               ORI     R16, 0x02
   \                     ??recive_buf2_4:
   \   0000003E   8300               ST      Z, R16
    588                                   return;
   \   00000040   C068               RJMP    ??recive_buf2_2
    589                                 }
    590                                  else
    591                                 {  
    592                                   if (fl_rx_ppp.fl_7d==1)
   \                     ??recive_buf2_3:
   \   00000042   ....               LDI     R30, LOW(Buf2_rx_ppp)
   \   00000044   ....               LDI     R31, (Buf2_rx_ppp) >> 8
   \   00000046   0FE2               ADD     R30, R18
   \   00000048   1FF3               ADC     R31, R19
   \   0000004A   ....               LDI     R26, LOW(fl_rx_ppp)
   \   0000004C   ....               LDI     R27, (fl_rx_ppp) >> 8
   \   0000004E   911C               LD      R17, X
   \   00000050   FF11               SBRS    R17, 1
   \   00000052   C010               RJMP    ??recive_buf2_5
    593                                      { 
    594                                        Buf2_rx_ppp.data[Buf2_rx_ppp.ln_data]=temp ^ 0x20;
   \   00000054   E210               LDI     R17, 32
   \   00000056   2710               EOR     R17, R16
   \   00000058   8310               ST      Z, R17
    595                                        Buf2_rx_ppp.ln_data++;
   \   0000005A   ....               LDI     R30, LOW((Buf2_rx_ppp + 330))
   \   0000005C   ....               LDI     R31, HIGH((Buf2_rx_ppp + 330))
   \   0000005E   8100               LD      R16, Z
   \   00000060   8111               LDD     R17, Z+1
   \   00000062   5F0F               SUBI    R16, 255
   \   00000064   4F1F               SBCI    R17, 255
   \   00000066   8300               ST      Z, R16
   \   00000068   8311               STD     Z+1, R17
    596                                        fl_rx_ppp.fl_7d=0;
   \   0000006A   ....               LDI     R30, LOW(fl_rx_ppp)
   \   0000006C   ....               LDI     R31, (fl_rx_ppp) >> 8
   \   0000006E   8100               LD      R16, Z
   \   00000070   7F0D               ANDI    R16, 0xFD
   \   00000072   CFE5               RJMP    ??recive_buf2_4
    597                                        
    598                                        /*                    
    599                                        if((temp>=0x20)&&(temp<0x40)){Buf2_rx_ppp.data[Buf2_rx_ppp.ln_data]=temp-0x20;Buf2_rx_ppp.ln_data++;fl_rx_ppp.fl_7d=0;return;}                                
    600                                        if(temp==0x5e){Buf2_rx_ppp.data[Buf2_rx_ppp.ln_data]=0x7e;Buf2_rx_ppp.ln_data++;fl_rx_ppp.fl_7d=0;return;}  
    601                                        if(temp==0x5d){Buf2_rx_ppp.data[Buf2_rx_ppp.ln_data]=0x7d;Buf2_rx_ppp.ln_data++;fl_rx_ppp.fl_7d=0;return;} 
    602                                        Buf2_rx_ppp.ln_data=0;
    603                                        fl_rx_ppp.fl_7e=0;
    604                                        fl_rx_ppp.fl_7d=0;
    605                                        S3_RD;//!!!!proverka
    606                                        S2_OFF;
    607                                        */
    608                                        return;
    609                                       }  
    610                                      else
    611                                        {        
    612                                             Buf2_rx_ppp.data[Buf2_rx_ppp.ln_data]=temp;
   \                     ??recive_buf2_5:
   \   00000074   8300               ST      Z, R16
    613                                             Buf2_rx_ppp.ln_data++;                                                  
   \   00000076   ....               LDI     R30, LOW((Buf2_rx_ppp + 330))
   \   00000078   ....               LDI     R31, HIGH((Buf2_rx_ppp + 330))
   \   0000007A   8120               LD      R18, Z
   \   0000007C   8131               LDD     R19, Z+1
   \   0000007E   5F2F               SUBI    R18, 255
   \   00000080   4F3F               SBCI    R19, 255
   \   00000082   8320               ST      Z, R18
   \   00000084   8331               STD     Z+1, R19
    614                                  
    615                                               if(temp==0x7e)         //íĺň ďĺđĺďîëíĺíč˙
   \   00000086   370E               CPI     R16, 126
   \   00000088   F009               BREQ    $+2+2
   \   0000008A   C043               RJMP    ??recive_buf2_2
    616                                                  {  
    617                                                   if(Buf2_rx_ppp.ln_data<=2) //ĺńëč ďîäđ˙ä äâŕ 0x7e 
   \   0000008C   ....               LDI     R26, LOW((Buf2_rx_ppp + 330))
   \   0000008E   ....               LDI     R27, HIGH((Buf2_rx_ppp + 330))
   \   00000090   91ED               LD      R30, X+
   \   00000092   91FC               LD      R31, X
   \   00000094   9733               SBIW    R31:R30, 3
   \   00000096   F478               BRCC    ??recive_buf2_6
    618                                                       {
    619                                                        /*
    620                                                         if((layer_PPP==LAYER_IP)&&(Buf2_rx_ppp.ln_data==2))
    621                                                        {
    622                                                         S5_RD;//proverka!!!!!
    623                                                         while(1)__watchdog_reset();//proverka!!!!!
    624                                                        }
    625                                                        */
    626                                                         
    627                                                         //  if(ppp_packet.rcvd==1)???????????????
    628                                                        fl_rx_ppp.fl_7e=1;   
   \   00000098   ....               LDI     R30, LOW(fl_rx_ppp)
   \   0000009A   ....               LDI     R31, (fl_rx_ppp) >> 8
   \   0000009C   8100               LD      R16, Z
   \   0000009E   6001               ORI     R16, 0x01
   \   000000A0   8300               ST      Z, R16
    629                                                        Buf2_rx_ppp.data[0]=temp;  
   \   000000A2   E70E               LDI     R16, 126
   \   000000A4   9300....           STS     Buf2_rx_ppp, R16
    630                                                        Buf2_rx_ppp.ln_data=1; 
   \   000000A8   E001               LDI     R16, 1
   \   000000AA   E010               LDI     R17, 0
   \   000000AC   ....               LDI     R30, LOW((Buf2_rx_ppp + 330))
   \   000000AE   ....               LDI     R31, HIGH((Buf2_rx_ppp + 330))
   \   000000B0   8300               ST      Z, R16
   \   000000B2   8311               STD     Z+1, R17
    631                                                        return;
   \   000000B4   C02E               RJMP    ??recive_buf2_2
    632                                                        }
    633            
    634          
    635                                                   S2_OFF;
   \                     ??recive_buf2_6:
   \   000000B6   9840               CBI     0x08, 0x00
   \   000000B8   9841               CBI     0x08, 0x01
    636                                                   fl_rx_ppp.fl_7e=0;
    637                                                   fl_rx_ppp.switcher=0;
   \   000000BA   ....               LDI     R30, LOW(fl_rx_ppp)
   \   000000BC   ....               LDI     R31, (fl_rx_ppp) >> 8
   \   000000BE   8100               LD      R16, Z
   \   000000C0   7F0A               ANDI    R16, 0xFA
   \   000000C2   8300               ST      Z, R16
    638                                                   Buf2_rx_ppp.rec=TRUE; 
   \   000000C4   E001               LDI     R16, 1
   \   000000C6   9300....           STS     (Buf2_rx_ppp + 332), R16
    639                                                   Buf2_rx_ppp.busy=TRUE;
   \   000000CA   9300....           STS     (Buf2_rx_ppp + 333), R16
    640                                                   if(Buf1_rx_ppp.busy==TRUE)
   \   000000CE   9100....           LDS     R16, (Buf1_rx_ppp + 333)
   \   000000D2   3001               CPI     R16, 1
   \   000000D4   F4F1               BRNE    ??recive_buf2_2
    641                                                    {
    642                                                     
    643                                                     Buf1_rx_ppp.check_busy=TRUE;
   \   000000D6   E001               LDI     R16, 1
   \   000000D8   9300....           STS     (Buf1_rx_ppp + 334), R16
    644                                                     UCSR0B=UCSR0B & ~RXEN;
   \   000000DC   910000C1           LDS     R16, 193
   \   000000E0   7E0F               ANDI    R16, 0xEF
   \   000000E2   930000C1           STS     193, R16
    645                                                     UCSR0B=UCSR0B & ~RXCIE; 
   \   000000E6   910000C1           LDS     R16, 193
   \   000000EA   770F               ANDI    R16, 0x7F
   \   000000EC   930000C1           STS     193, R16
   \   000000F0   C010               RJMP    ??recive_buf2_2
    646                                                    }
    647                                                   return;
    648                                                  }  
    649                                         }
    650                            
    651                                  }
    652                                              
    653                              return;   
    654                            }         //ę ďĺęĺň áĺăčí
    655                            else
    656                            {
    657                             if(temp==0x7e)
   \                     ??recive_buf2_0:
   \   000000F2   370E               CPI     R16, 126
   \   000000F4   F471               BRNE    ??recive_buf2_2
    658                                    {
    659                                  //  if(ppp_packet.rcvd==1)???????????????
    660                                    fl_rx_ppp.fl_7e=1;   
   \   000000F6   8100               LD      R16, Z
   \   000000F8   6001               ORI     R16, 0x01
   \   000000FA   8300               ST      Z, R16
    661                                    Buf2_rx_ppp.data[0]=temp;  
   \   000000FC   E70E               LDI     R16, 126
   \   000000FE   9300....           STS     Buf2_rx_ppp, R16
    662                                    Buf2_rx_ppp.ln_data=1; 
   \   00000102   E001               LDI     R16, 1
   \   00000104   E010               LDI     R17, 0
   \   00000106   ....               LDI     R30, LOW((Buf2_rx_ppp + 330))
   \   00000108   ....               LDI     R31, HIGH((Buf2_rx_ppp + 330))
   \   0000010A   8300               ST      Z, R16
   \   0000010C   8311               STD     Z+1, R17
    663                                    S2_GR;
   \   0000010E   9840               CBI     0x08, 0x00
   \   00000110   9A41               SBI     0x08, 0x01
   \                     ??recive_buf2_2:
   \   00000112   01DA               MOVW    R27:R26, R21:R20
   \   00000114   9508               RET
    664                                    }        
    665                            }
    666            } 
    667           //EEEEEEEEEEEEEEEEEEEEEEEEEEEEEEEEEEEEEEEEEEEEEEEEEEEEEEEEEEEEEEE
    668          
    669          
    670          
    671          
    672          
    673          
    674          //////////////////////////////////////////////////////////////////////////////////////////////
    675          #pragma vector=TIMER0_COMPA_vect       

   \                                 In segment CODE, align 2, keep-with-next
    676               __interrupt void TIMER0_COMPA_interrupt(void)
   \                     TIMER0_COMPA_interrupt:
    677           {
   \   00000000   93BA               ST      -Y, R27
   \   00000002   93AA               ST      -Y, R26
   \   00000004   939A               ST      -Y, R25
   \   00000006   938A               ST      -Y, R24
   \   00000008   93FA               ST      -Y, R31
   \   0000000A   93EA               ST      -Y, R30
   \   0000000C   923A               ST      -Y, R3
   \   0000000E   922A               ST      -Y, R2
   \   00000010   921A               ST      -Y, R1
   \   00000012   920A               ST      -Y, R0
   \   00000014   937A               ST      -Y, R23
   \   00000016   936A               ST      -Y, R22
   \   00000018   935A               ST      -Y, R21
   \   0000001A   934A               ST      -Y, R20
   \   0000001C   933A               ST      -Y, R19
   \   0000001E   932A               ST      -Y, R18
   \   00000020   931A               ST      -Y, R17
   \   00000022   930A               ST      -Y, R16
   \   00000024   B78F               IN      R24, 0x3F
   \   00000026   B79B               IN      R25, 0x3B
    678             
    679             
    680             fl_wdt.from_timer0=1;
   \   00000028   ....               LDI     R30, LOW(fl_wdt)
   \   0000002A   ....               LDI     R31, (fl_wdt) >> 8
   \   0000002C   8100               LD      R16, Z
   \   0000002E   6004               ORI     R16, 0x04
   \   00000030   8300               ST      Z, R16
    681             
    682             // __enable_interrupt();
    683             
    684             
    685             if(PING & TCC1)struct_tcc1.tek_pin=1;else struct_tcc1.tek_pin=0;
   \   00000032   ....               LDI     R26, LOW(struct_tcc1)
   \   00000034   ....               LDI     R27, (struct_tcc1) >> 8
   \   00000036   910C               LD      R16, X
   \   00000038   9B92               SBIS    0x12, 0x02
   \   0000003A   C002               RJMP    ??TIMER0_COMPA_interrupt_0
   \   0000003C   6001               ORI     R16, 0x01
   \   0000003E   C001               RJMP    ??TIMER0_COMPA_interrupt_1
   \                     ??TIMER0_COMPA_interrupt_0:
   \   00000040   7F0E               ANDI    R16, 0xFE
   \                     ??TIMER0_COMPA_interrupt_1:
   \   00000042   930C               ST      X, R16
    686             
    687             if(struct_tcc1.fl_ch_tc==1)
   \   00000044   ....               LDI     R16, LOW(modbus_mem1)
   \   00000046   ....               LDI     R17, (modbus_mem1) >> 8
   \   00000048   912C               LD      R18, X
   \   0000004A   FF22               SBRS    R18, 2
   \   0000004C   C022               RJMP    ??TIMER0_COMPA_interrupt_2
    688               {
    689                 struct_tcc1.count_tc--;
   \   0000004E   01FD               MOVW    R31:R30, R27:R26
   \   00000050   8122               LDD     R18, Z+2
   \   00000052   8133               LDD     R19, Z+3
   \   00000054   5021               SUBI    R18, 1
   \   00000056   4030               SBCI    R19, 0
   \   00000058   8322               STD     Z+2, R18
   \   0000005A   8333               STD     Z+3, R19
    690                 if(struct_tcc1.count_tc==0)
   \   0000005C   8122               LDD     R18, Z+2
   \   0000005E   8133               LDD     R19, Z+3
   \   00000060   2B23               OR      R18, R19
   \   00000062   F539               BRNE    ??TIMER0_COMPA_interrupt_3
    691                 {
    692                   struct_tcc1.fl_ch_tc=0;
   \   00000064   912C               LD      R18, X
   \   00000066   7F2B               ANDI    R18, 0xFB
   \   00000068   932C               ST      X, R18
    693                   struct_tcc1.real_tc=0x01 & (~struct_tcc1.tek_pin);
   \   0000006A   912C               LD      R18, X
   \   0000006C   7021               ANDI    R18, 0x01
   \   0000006E   9520               COM     R18
   \   00000070   7021               ANDI    R18, 0x01
   \   00000072   8321               STD     Z+1, R18
    694                   modbus_mem1[AD_TS]=(modbus_mem1[AD_TS] & (~(0x01<<14))) | (struct_tcc1.real_tc <<14);
   \   00000074   01F8               MOVW    R31:R30, R17:R16
   \   00000076   A920               LDD     R18, Z+48
   \   00000078   A931               LDD     R19, Z+49
   \   0000007A   7B3F               ANDI    R19, 0xBF
   \   0000007C   01FD               MOVW    R31:R30, R27:R26
   \   0000007E   8141               LDD     R20, Z+1
   \   00000080   E460               LDI     R22, 64
   \   00000082   2F54               MOV     R21, R20
   \   00000084   9F56               MUL     R21, R22
   \   00000086   2D50               MOV     R21, R0
   \   00000088   2B53               OR      R21, R19
   \   0000008A   01F8               MOVW    R31:R30, R17:R16
   \   0000008C   AB20               STD     Z+48, R18
   \   0000008E   AB51               STD     Z+49, R21
   \   00000090   C010               RJMP    ??TIMER0_COMPA_interrupt_3
    695                 }
    696               } 
    697               else
    698               {
    699                 if(struct_tcc1.tek_pin!=struct_tcc1.old_pin)
   \                     ??TIMER0_COMPA_interrupt_2:
   \   00000092   912C               LD      R18, X
   \   00000094   7021               ANDI    R18, 0x01
   \   00000096   913C               LD      R19, X
   \   00000098   FB31               BST     R19, 1
   \   0000009A   E030               LDI     R19, 0
   \   0000009C   F930               BLD     R19, 0
   \   0000009E   1723               CP      R18, R19
   \   000000A0   F041               BREQ    ??TIMER0_COMPA_interrupt_3
    700                 {
    701                  struct_tcc1.fl_ch_tc=1;
   \   000000A2   912C               LD      R18, X
   \   000000A4   6024               ORI     R18, 0x04
   \   000000A6   932C               ST      X, R18
    702                  struct_tcc1.count_tc=882;
   \   000000A8   E722               LDI     R18, 114
   \   000000AA   E033               LDI     R19, 3
   \   000000AC   01FD               MOVW    R31:R30, R27:R26
   \   000000AE   8322               STD     Z+2, R18
   \   000000B0   8333               STD     Z+3, R19
    703                 }
    704               }
    705              struct_tcc1.old_pin=struct_tcc1.tek_pin;
   \                     ??TIMER0_COMPA_interrupt_3:
   \   000000B2   912C               LD      R18, X
   \   000000B4   7021               ANDI    R18, 0x01
   \   000000B6   FB20               BST     R18, 0
   \   000000B8   912C               LD      R18, X
   \   000000BA   F921               BLD     R18, 1
   \   000000BC   932C               ST      X, R18
    706             
    707             
    708             if(PINA & TCC2)struct_tcc2.tek_pin=1;else struct_tcc2.tek_pin=0;
   \   000000BE   01FD               MOVW    R31:R30, R27:R26
   \   000000C0   8126               LDD     R18, Z+6
   \   000000C2   9B07               SBIS    0x00, 0x07
   \   000000C4   C002               RJMP    ??TIMER0_COMPA_interrupt_4
   \   000000C6   6021               ORI     R18, 0x01
   \   000000C8   C001               RJMP    ??TIMER0_COMPA_interrupt_5
   \                     ??TIMER0_COMPA_interrupt_4:
   \   000000CA   7F2E               ANDI    R18, 0xFE
   \                     ??TIMER0_COMPA_interrupt_5:
   \   000000CC   8326               STD     Z+6, R18
    709             
    710             if(struct_tcc2.fl_ch_tc==1)
   \   000000CE   8126               LDD     R18, Z+6
   \   000000D0   FF22               SBRS    R18, 2
   \   000000D2   C01A               RJMP    ??TIMER0_COMPA_interrupt_6
    711               {
    712                 struct_tcc2.count_tc--;
   \   000000D4   8520               LDD     R18, Z+8
   \   000000D6   8531               LDD     R19, Z+9
   \   000000D8   5021               SUBI    R18, 1
   \   000000DA   4030               SBCI    R19, 0
   \   000000DC   8720               STD     Z+8, R18
   \   000000DE   8731               STD     Z+9, R19
    713                 if(struct_tcc2.count_tc==0)
   \   000000E0   8520               LDD     R18, Z+8
   \   000000E2   8531               LDD     R19, Z+9
   \   000000E4   2B23               OR      R18, R19
   \   000000E6   F4F9               BRNE    ??TIMER0_COMPA_interrupt_7
    714                 {
    715                   struct_tcc2.fl_ch_tc=0;
   \   000000E8   8126               LDD     R18, Z+6
   \   000000EA   7F2B               ANDI    R18, 0xFB
   \   000000EC   8326               STD     Z+6, R18
    716                   struct_tcc2.real_tc=0x01 & (~struct_tcc2.tek_pin);
   \   000000EE   8126               LDD     R18, Z+6
   \   000000F0   7021               ANDI    R18, 0x01
   \   000000F2   9520               COM     R18
   \   000000F4   7021               ANDI    R18, 0x01
   \   000000F6   8327               STD     Z+7, R18
    717                   modbus_mem1[AD_TS]=(modbus_mem1[AD_TS] & (~(0x01<<15))) | (struct_tcc2.real_tc <<15);
   \   000000F8   8127               LDD     R18, Z+7
   \   000000FA   7021               ANDI    R18, 0x01
   \   000000FC   01F8               MOVW    R31:R30, R17:R16
   \   000000FE   FB20               BST     R18, 0
   \   00000100   A911               LDD     R17, Z+49
   \   00000102   F917               BLD     R17, 7
   \   00000104   AB11               STD     Z+49, R17
   \   00000106   C00F               RJMP    ??TIMER0_COMPA_interrupt_7
    718                 }
    719               } 
    720               else
    721               {
    722                 if(struct_tcc2.tek_pin!=struct_tcc2.old_pin)
   \                     ??TIMER0_COMPA_interrupt_6:
   \   00000108   8106               LDD     R16, Z+6
   \   0000010A   7001               ANDI    R16, 0x01
   \   0000010C   8116               LDD     R17, Z+6
   \   0000010E   FB11               BST     R17, 1
   \   00000110   E010               LDI     R17, 0
   \   00000112   F910               BLD     R17, 0
   \   00000114   1701               CP      R16, R17
   \   00000116   F039               BREQ    ??TIMER0_COMPA_interrupt_7
    723                 {
    724                  struct_tcc2.fl_ch_tc=1;
   \   00000118   8106               LDD     R16, Z+6
   \   0000011A   6004               ORI     R16, 0x04
   \   0000011C   8306               STD     Z+6, R16
    725                  struct_tcc2.count_tc=882;
   \   0000011E   E702               LDI     R16, 114
   \   00000120   E013               LDI     R17, 3
   \   00000122   8700               STD     Z+8, R16
   \   00000124   8711               STD     Z+9, R17
    726                 }
    727               }
    728              struct_tcc2.old_pin=struct_tcc2.tek_pin;
   \                     ??TIMER0_COMPA_interrupt_7:
   \   00000126   01FD               MOVW    R31:R30, R27:R26
   \   00000128   8106               LDD     R16, Z+6
   \   0000012A   7001               ANDI    R16, 0x01
   \   0000012C   FB00               BST     R16, 0
   \   0000012E   8106               LDD     R16, Z+6
   \   00000130   F901               BLD     R16, 1
   \   00000132   8306               STD     Z+6, R16
    729             
    730             
    731             
    732              
    733              opros_ts(1,PINK,IO2,&str_tc2);
   \   00000134   01AD               MOVW    R21:R20, R27:R26
   \   00000136   5F42               SUBI    R20, 242
   \   00000138   4F5F               SBCI    R21, 255
   \   0000013A   E420               LDI     R18, 64
   \   0000013C   91100106           LDS     R17, 262
   \   00000140   E001               LDI     R16, 1
   \   00000142   ....               RCALL   opros_ts
    734              opros_ts(2,PINA,IO3,&str_tc3);
   \   00000144   01AD               MOVW    R21:R20, R27:R26
   \   00000146   5F40               SUBI    R20, 240
   \   00000148   4F5F               SBCI    R21, 255
   \   0000014A   E021               LDI     R18, 1
   \   0000014C   B110               IN      R17, 0x00
   \   0000014E   E002               LDI     R16, 2
   \   00000150   ....               RCALL   opros_ts
    735              opros_ts(3,PINK,IO8,&str_tc4);
   \   00000152   01AD               MOVW    R21:R20, R27:R26
   \   00000154   5E4E               SUBI    R20, 238
   \   00000156   4F5F               SBCI    R21, 255
   \   00000158   E024               LDI     R18, 4
   \   0000015A   91100106           LDS     R17, 262
   \   0000015E   E003               LDI     R16, 3
   \   00000160   ....               RCALL   opros_ts
    736              opros_ts(4,PINJ,IO4,&str_tc5); 
   \   00000162   01AD               MOVW    R21:R20, R27:R26
   \   00000164   5E4C               SUBI    R20, 236
   \   00000166   4F5F               SBCI    R21, 255
   \   00000168   E820               LDI     R18, 128
   \   0000016A   91100103           LDS     R17, 259
   \   0000016E   E004               LDI     R16, 4
   \   00000170   ....               RCALL   opros_ts
    737              opros_ts(5,PINA,IO5,&str_tc6);
   \   00000172   01AD               MOVW    R21:R20, R27:R26
   \   00000174   5E4A               SUBI    R20, 234
   \   00000176   4F5F               SBCI    R21, 255
   \   00000178   E024               LDI     R18, 4
   \   0000017A   B110               IN      R17, 0x00
   \   0000017C   E005               LDI     R16, 5
   \   0000017E   ....               RCALL   opros_ts
    738              opros_ts(6,PINK,IO6,&str_tc7);
   \   00000180   01AD               MOVW    R21:R20, R27:R26
   \   00000182   5E48               SUBI    R20, 232
   \   00000184   4F5F               SBCI    R21, 255
   \   00000186   E120               LDI     R18, 16
   \   00000188   91100106           LDS     R17, 262
   \   0000018C   E006               LDI     R16, 6
   \   0000018E   ....               RCALL   opros_ts
    739              opros_ts(7,PINA,IO7,&str_tc8);
   \   00000190   965A               ADIW    R27:R26, 26
   \   00000192   01AD               MOVW    R21:R20, R27:R26
   \   00000194   E022               LDI     R18, 2
   \   00000196   B110               IN      R17, 0x00
   \   00000198   E007               LDI     R16, 7
   \   0000019A   ....               RCALL   opros_ts
    740           }
   \   0000019C   BF9B               OUT     0x3B, R25
   \   0000019E   BF8F               OUT     0x3F, R24
   \   000001A0   9109               LD      R16, Y+
   \   000001A2   9119               LD      R17, Y+
   \   000001A4   9129               LD      R18, Y+
   \   000001A6   9139               LD      R19, Y+
   \   000001A8   9149               LD      R20, Y+
   \   000001AA   9159               LD      R21, Y+
   \   000001AC   9169               LD      R22, Y+
   \   000001AE   9179               LD      R23, Y+
   \   000001B0   9009               LD      R0, Y+
   \   000001B2   9019               LD      R1, Y+
   \   000001B4   9029               LD      R2, Y+
   \   000001B6   9039               LD      R3, Y+
   \   000001B8   91E9               LD      R30, Y+
   \   000001BA   91F9               LD      R31, Y+
   \   000001BC   9189               LD      R24, Y+
   \   000001BE   9199               LD      R25, Y+
   \   000001C0   91A9               LD      R26, Y+
   \   000001C2   91B9               LD      R27, Y+
   \   000001C4   9518               RETI
    741          //////////////////////////////////////////////1/16000000///////////////////////////////////////////////
    742          
    743          
    744          
    745          //////////////////////////////////////////////////////////////////////////////////////////
    746          #pragma vector=TIMER2_COMPA_vect     //1 ěčëëčńĺęóíäŕ

   \                                 In segment CODE, align 2, keep-with-next
    747               __interrupt void TIMER2_COMPA_interrupt(void)
   \                     TIMER2_COMPA_interrupt:
    748            {
   \   00000000   925A               ST      -Y, R5
   \   00000002   924A               ST      -Y, R4
   \   00000004   93BA               ST      -Y, R27
   \   00000006   93AA               ST      -Y, R26
   \   00000008   939A               ST      -Y, R25
   \   0000000A   938A               ST      -Y, R24
   \   0000000C   93FA               ST      -Y, R31
   \   0000000E   93EA               ST      -Y, R30
   \   00000010   923A               ST      -Y, R3
   \   00000012   922A               ST      -Y, R2
   \   00000014   921A               ST      -Y, R1
   \   00000016   920A               ST      -Y, R0
   \   00000018   937A               ST      -Y, R23
   \   0000001A   936A               ST      -Y, R22
   \   0000001C   935A               ST      -Y, R21
   \   0000001E   934A               ST      -Y, R20
   \   00000020   933A               ST      -Y, R19
   \   00000022   932A               ST      -Y, R18
   \   00000024   931A               ST      -Y, R17
   \   00000026   930A               ST      -Y, R16
   \   00000028   B64F               IN      R4, 0x3F
   \   0000002A   B65B               IN      R5, 0x3B
   \   0000002C                      REQUIRE ?Register_R4_is_cg_reg
   \   0000002C                      REQUIRE ?Register_R5_is_cg_reg
    749            
    750             unsigned char temp;
    751            
    752              fl_wdt.from_timer2=1;
   \   0000002C   ....               LDI     R30, LOW(fl_wdt)
   \   0000002E   ....               LDI     R31, (fl_wdt) >> 8
   \   00000030   8100               LD      R16, Z
   \   00000032   6200               ORI     R16, 0x20
   \   00000034   8300               ST      Z, R16
    753              
    754              cnt_clr_wdt++;
   \   00000036   ....               LDI     R24, LOW(Rs485_1)
   \   00000038   ....               LDI     R25, (Rs485_1) >> 8
   \   0000003A   01FC               MOVW    R31:R30, R25:R24
   \   0000003C   A906               LDD     R16, Z+54
   \   0000003E   9503               INC     R16
   \   00000040   AB06               STD     Z+54, R16
    755            if (cnt_clr_wdt>=250)
   \   00000042   A906               LDD     R16, Z+54
   \   00000044   3F0A               CPI     R16, 250
   \   00000046   F0A8               BRCS    ??TIMER2_COMPA_interrupt_0
    756               {
    757               cnt_clr_wdt=0;
   \   00000048   E000               LDI     R16, 0
   \   0000004A   AB06               STD     Z+54, R16
    758               fl_wdt.clr_wdt=1;
   \   0000004C   ....               LDI     R30, LOW(fl_wdt)
   \   0000004E   ....               LDI     R31, (fl_wdt) >> 8
   \   00000050   8100               LD      R16, Z
   \   00000052   6001               ORI     R16, 0x01
   \   00000054   8300               ST      Z, R16
    759               cnt_flag_out++;
   \   00000056   01FC               MOVW    R31:R30, R25:R24
   \   00000058   A907               LDD     R16, Z+55
   \   0000005A   9503               INC     R16
   \   0000005C   AB07               STD     Z+55, R16
    760               if (cnt_flag_out>=50)
   \   0000005E   A907               LDD     R16, Z+55
   \   00000060   3302               CPI     R16, 50
   \   00000062   F038               BRCS    ??TIMER2_COMPA_interrupt_0
    761                 {
    762                  cnt_flag_out=0;
   \   00000064   E000               LDI     R16, 0
   \   00000066   AB07               STD     Z+55, R16
    763                  fl_wdt.fl_out=1;
   \   00000068   ....               LDI     R30, LOW(fl_wdt)
   \   0000006A   ....               LDI     R31, (fl_wdt) >> 8
   \   0000006C   8100               LD      R16, Z
   \   0000006E   6002               ORI     R16, 0x02
   \   00000070   8300               ST      Z, R16
    764                 } 
    765                }
    766              
    767             
    768              if(cnt_sec<DEF_CNT_SEC)cnt_sec++;
   \                     ??TIMER2_COMPA_interrupt_0:
   \   00000072   ....               LDI     R30, LOW(cnt_sec)
   \   00000074   ....               LDI     R31, (cnt_sec) >> 8
   \   00000076   8100               LD      R16, Z
   \   00000078   8111               LDD     R17, Z+1
   \   0000007A   3D06               CPI     R16, 214
   \   0000007C   E023               LDI     R18, 3
   \   0000007E   0712               CPC     R17, R18
   \   00000080   F430               BRCC    ??TIMER2_COMPA_interrupt_1
   \   00000082   8100               LD      R16, Z
   \   00000084   8111               LDD     R17, Z+1
   \   00000086   5F0F               SUBI    R16, 255
   \   00000088   4F1F               SBCI    R17, 255
   \   0000008A   8300               ST      Z, R16
   \   0000008C   8311               STD     Z+1, R17
    769            
    770            
    771            
    772              if(fl_cts_232.on==1)
   \                     ??TIMER2_COMPA_interrupt_1:
   \   0000008E   ....               LDI     R30, LOW(fl_cts_232)
   \   00000090   ....               LDI     R31, (fl_cts_232) >> 8
   \   00000092   8100               LD      R16, Z
   \   00000094   FF00               SBRS    R16, 0
   \   00000096   C054               RJMP    ??TIMER2_COMPA_interrupt_2
    773              {
    774                if(fl_cts_232_ignor==TRUE)
   \   00000098   9100....           LDS     R16, fl_cts_232_ignor
   \   0000009C   3001               CPI     R16, 1
   \   0000009E   F4C9               BRNE    ??TIMER2_COMPA_interrupt_3
    775                      {
    776                       fl_cts_232.on=0;
   \   000000A0   8100               LD      R16, Z
   \   000000A2   7F0E               ANDI    R16, 0xFE
   \   000000A4   8300               ST      Z, R16
    777                       if(count_tx_ppp==0){S2_RD;UDR0=buf_tx_232[0];if(Regim==RG_DEBAG) UDR3=buf_tx_232[0];}
   \   000000A6   ....               LDI     R30, LOW(count_tx_ppp)
   \   000000A8   ....               LDI     R31, (count_tx_ppp) >> 8
   \   000000AA   8100               LD      R16, Z
   \   000000AC   8111               LDD     R17, Z+1
   \   000000AE   2B01               OR      R16, R17
   \   000000B0   F479               BRNE    ??TIMER2_COMPA_interrupt_4
   \   000000B2   9A40               SBI     0x08, 0x00
   \   000000B4   9841               CBI     0x08, 0x01
   \   000000B6   9100....           LDS     R16, buf_tx_232
   \   000000BA   930000C6           STS     198, R16
   \   000000BE   9100....           LDS     R16, Regim
   \   000000C2   3001               CPI     R16, 1
   \   000000C4   F431               BRNE    ??TIMER2_COMPA_interrupt_3
   \   000000C6   9100....           LDS     R16, buf_tx_232
   \   000000CA   93000136           STS     310, R16
   \   000000CE   C001               RJMP    ??TIMER2_COMPA_interrupt_3
    778                          else sending_ppp_pac();
   \                     ??TIMER2_COMPA_interrupt_4:
   \   000000D0   ....               RCALL   sending_ppp_pac
    779                  ///     return;!!!!!!!!!!!!!!!!!!!!!!!!!!!!!!!!!!!!!!!!!!
    780                       }
    781                
    782               // if ((PINE & CTS0)==0)  
    783                if (PINE & CTS0)  
   \                     ??TIMER2_COMPA_interrupt_3:
   \   000000D2   9B64               SBIS    0x0C, 0x04
   \   000000D4   C021               RJMP    ??TIMER2_COMPA_interrupt_5
    784                {
    785                  cnt_cts_off=0;
   \   000000D6   E000               LDI     R16, 0
   \   000000D8   ....               LDI     R30, LOW(cnt_cts_off)
   \   000000DA   ....               LDI     R31, (cnt_cts_off) >> 8
   \   000000DC   8300               ST      Z, R16
   \   000000DE   8301               STD     Z+1, R16
    786                  fl_cts_232.on=0; 
   \   000000E0   ....               LDI     R30, LOW(fl_cts_232)
   \   000000E2   ....               LDI     R31, (fl_cts_232) >> 8
   \   000000E4   8100               LD      R16, Z
   \   000000E6   7F0E               ANDI    R16, 0xFE
   \   000000E8   8300               ST      Z, R16
    787                  if(count_tx_ppp==0){S2_RD;UDR0=buf_tx_232[0];if(Regim==RG_DEBAG) UDR3=buf_tx_232[0];}
   \   000000EA   ....               LDI     R30, LOW(count_tx_ppp)
   \   000000EC   ....               LDI     R31, (count_tx_ppp) >> 8
   \   000000EE   8100               LD      R16, Z
   \   000000F0   8111               LDD     R17, Z+1
   \   000000F2   2B01               OR      R16, R17
   \   000000F4   F479               BRNE    ??TIMER2_COMPA_interrupt_6
   \   000000F6   9A40               SBI     0x08, 0x00
   \   000000F8   9841               CBI     0x08, 0x01
   \   000000FA   9100....           LDS     R16, buf_tx_232
   \   000000FE   930000C6           STS     198, R16
   \   00000102   9100....           LDS     R16, Regim
   \   00000106   3001               CPI     R16, 1
   \   00000108   F4D9               BRNE    ??TIMER2_COMPA_interrupt_2
   \   0000010A   9100....           LDS     R16, buf_tx_232
   \   0000010E   93000136           STS     310, R16
   \   00000112   C016               RJMP    ??TIMER2_COMPA_interrupt_2
    788                     else sending_ppp_pac(); 
   \                     ??TIMER2_COMPA_interrupt_6:
   \   00000114   ....               RCALL   sending_ppp_pac
   \   00000116   C014               RJMP    ??TIMER2_COMPA_interrupt_2
    789                 } 
    790                 else
    791                  {
    792                  cnt_cts_off++;
   \                     ??TIMER2_COMPA_interrupt_5:
   \   00000118   ....               LDI     R30, LOW(cnt_cts_off)
   \   0000011A   ....               LDI     R31, (cnt_cts_off) >> 8
   \   0000011C   8100               LD      R16, Z
   \   0000011E   8111               LDD     R17, Z+1
   \   00000120   5F0F               SUBI    R16, 255
   \   00000122   4F1F               SBCI    R17, 255
   \   00000124   8300               ST      Z, R16
   \   00000126   8311               STD     Z+1, R17
    793                  if(cnt_cts_off>=10000)
   \   00000128   8100               LD      R16, Z
   \   0000012A   8111               LDD     R17, Z+1
   \   0000012C   3100               CPI     R16, 16
   \   0000012E   E227               LDI     R18, 39
   \   00000130   0712               CPC     R17, R18
   \   00000132   F030               BRCS    ??TIMER2_COMPA_interrupt_2
    794                     {
    795                     cnt_cts_off=0;
   \   00000134   E000               LDI     R16, 0
   \   00000136   8300               ST      Z, R16
   \   00000138   8301               STD     Z+1, R16
    796                     event_modem=EVM_CTS_ERR;
   \   0000013A   E009               LDI     R16, 9
   \   0000013C   9300....           STS     event_modem, R16
    797                     }
    798                  }
    799              }
    800            
    801            
    802             fun_state_md(); 
   \                     ??TIMER2_COMPA_interrupt_2:
   \   00000140   ........           CALL    fun_state_md
    803           
    804            
    805            if(Buf1_rx_ppp.check_busy==TRUE)
   \   00000144   9100....           LDS     R16, (Buf1_rx_ppp + 334)
   \   00000148   3001               CPI     R16, 1
   \   0000014A   F499               BRNE    ??TIMER2_COMPA_interrupt_7
    806               {
    807                if(Buf1_rx_ppp.busy==FALSE)
   \   0000014C   9100....           LDS     R16, (Buf1_rx_ppp + 333)
   \   00000150   2300               TST     R16
   \   00000152   F479               BRNE    ??TIMER2_COMPA_interrupt_7
    808                {
    809                Buf1_rx_ppp.check_busy=FALSE;
   \   00000154   E000               LDI     R16, 0
   \   00000156   9300....           STS     (Buf1_rx_ppp + 334), R16
    810                temp=UDR0; 
   \   0000015A   910000C6           LDS     R16, 198
    811                UCSR0B=UCSR0B | RXEN;
   \   0000015E   910000C1           LDS     R16, 193
   \   00000162   6100               ORI     R16, 0x10
   \   00000164   930000C1           STS     193, R16
    812                UCSR0B=UCSR0B | RXCIE; 
   \   00000168   910000C1           LDS     R16, 193
   \   0000016C   6800               ORI     R16, 0x80
   \   0000016E   930000C1           STS     193, R16
    813                }    
    814               }  
    815            
    816            if(Buf2_rx_ppp.check_busy==TRUE)
   \                     ??TIMER2_COMPA_interrupt_7:
   \   00000172   9100....           LDS     R16, (Buf2_rx_ppp + 334)
   \   00000176   3001               CPI     R16, 1
   \   00000178   F499               BRNE    ??TIMER2_COMPA_interrupt_8
    817               {
    818                if(Buf2_rx_ppp.busy==FALSE)
   \   0000017A   9100....           LDS     R16, (Buf2_rx_ppp + 333)
   \   0000017E   2300               TST     R16
   \   00000180   F479               BRNE    ??TIMER2_COMPA_interrupt_8
    819                {
    820                Buf2_rx_ppp.check_busy=FALSE;
   \   00000182   E000               LDI     R16, 0
   \   00000184   9300....           STS     (Buf2_rx_ppp + 334), R16
    821                temp=UDR0; 
   \   00000188   910000C6           LDS     R16, 198
    822                UCSR0B=UCSR0B | RXEN;
   \   0000018C   910000C1           LDS     R16, 193
   \   00000190   6100               ORI     R16, 0x10
   \   00000192   930000C1           STS     193, R16
    823                UCSR0B=UCSR0B | RXCIE; 
   \   00000196   910000C1           LDS     R16, 193
   \   0000019A   6800               ORI     R16, 0x80
   \   0000019C   930000C1           STS     193, R16
    824                }    
    825               }   
    826              
    827             if (cnt_key_off==0)goto  next_step00;
   \                     ??TIMER2_COMPA_interrupt_8:
   \   000001A0   ....               LDI     R30, LOW(cnt_key_off)
   \   000001A2   ....               LDI     R31, (cnt_key_off) >> 8
   \   000001A4   8100               LD      R16, Z
   \   000001A6   8111               LDD     R17, Z+1
   \   000001A8   2B01               OR      R16, R17
   \   000001AA   F059               BREQ    ??TIMER2_COMPA_interrupt_9
    828                 cnt_key_off--;
   \   000001AC   8100               LD      R16, Z
   \   000001AE   8111               LDD     R17, Z+1
   \   000001B0   5001               SUBI    R16, 1
   \   000001B2   4010               SBCI    R17, 0
   \   000001B4   8300               ST      Z, R16
   \   000001B6   8311               STD     Z+1, R17
    829                 if (cnt_key_off==0) CLR_PWRK;
   \   000001B8   8100               LD      R16, Z
   \   000001BA   8111               LDD     R17, Z+1
   \   000001BC   2B01               OR      R16, R17
   \   000001BE   F409               BRNE    ??TIMER2_COMPA_interrupt_9
   \   000001C0   982C               CBI     0x05, 0x04
    830            
    831            next_step00:
    832                       
    833                       
    834               if (At_com.cnt_tm_out==0)goto next_step0; 
   \                     ??TIMER2_COMPA_interrupt_9:
   \   000001C2   ....               LDI     R30, LOW(At_com)
   \   000001C4   ....               LDI     R31, (At_com) >> 8
   \   000001C6   AD02               LDD     R16, Z+58
   \   000001C8   AD13               LDD     R17, Z+59
   \   000001CA   2B01               OR      R16, R17
   \   000001CC   F109               BREQ    ??TIMER2_COMPA_interrupt_10
    835             {
    836             At_com.cnt_tm_out--;
   \   000001CE   AD02               LDD     R16, Z+58
   \   000001D0   AD13               LDD     R17, Z+59
   \   000001D2   5001               SUBI    R16, 1
   \   000001D4   4010               SBCI    R17, 0
   \   000001D6   AF02               STD     Z+58, R16
   \   000001D8   AF13               STD     Z+59, R17
    837             if(At_com.cnt_tm_out==0)
   \   000001DA   AD02               LDD     R16, Z+58
   \   000001DC   AD13               LDD     R17, Z+59
   \   000001DE   2B01               OR      R16, R17
   \   000001E0   F4B9               BRNE    ??TIMER2_COMPA_interrupt_10
    838               {
    839               UCSR0B=UCSR0B & ~RXEN;
   \   000001E2   910000C1           LDS     R16, 193
   \   000001E6   7E0F               ANDI    R16, 0xEF
   \   000001E8   930000C1           STS     193, R16
    840               UCSR0B=UCSR0B & ~RXCIE; 
   \   000001EC   910000C1           LDS     R16, 193
   \   000001F0   770F               ANDI    R16, 0x7F
   \   000001F2   930000C1           STS     193, R16
    841               At_com.cnt_rx_out=0;
   \   000001F6   E000               LDI     R16, 0
   \   000001F8   01DF               MOVW    R27:R26, R31:R30
   \   000001FA   96DE               ADIW    R27:R26, 62
   \   000001FC   930D               ST      X+, R16
   \   000001FE   930C               ST      X, R16
    842               fl_at_com.tm_out=1;
    843               fl_at_com.rx_rec=0;
    844               fl_at_com.rx_en=0;
    845               fl_at_com.err=0;
    846               fl_at_com.ok=0;
   \   00000200   ....               LDI     R26, LOW(fl_at_com)
   \   00000202   ....               LDI     R27, (fl_at_com) >> 8
   \   00000204   910C               LD      R16, X
   \   00000206   7C0C               ANDI    R16, 0xCC
   \   00000208   930C               ST      X, R16
   \   0000020A   910C               LD      R16, X
   \   0000020C   6004               ORI     R16, 0x04
   \   0000020E   930C               ST      X, R16
    847               }
    848             }
    849          
    850          
    851             
    852             
    853          next_step0:  
    854          
    855            if(At_com.cnt_rx_out==0)goto next_step1;
   \                     ??TIMER2_COMPA_interrupt_10:
   \   00000210   01DF               MOVW    R27:R26, R31:R30
   \   00000212   96DE               ADIW    R27:R26, 62
   \   00000214   910D               LD      R16, X+
   \   00000216   911C               LD      R17, X
   \   00000218   9711               SBIW    R27:R26, 1
   \   0000021A   2B01               OR      R16, R17
   \   0000021C   F0F1               BREQ    ??TIMER2_COMPA_interrupt_11
    856              At_com.cnt_rx_out--;
   \   0000021E   01DF               MOVW    R27:R26, R31:R30
   \   00000220   96DE               ADIW    R27:R26, 62
   \   00000222   910D               LD      R16, X+
   \   00000224   911C               LD      R17, X
   \   00000226   5001               SUBI    R16, 1
   \   00000228   4010               SBCI    R17, 0
   \   0000022A   931C               ST      X, R17
   \   0000022C   930E               ST      -X, R16
    857              if(At_com.cnt_rx_out==0)
   \   0000022E   96FE               ADIW    R31:R30, 62
   \   00000230   8100               LD      R16, Z
   \   00000232   8111               LDD     R17, Z+1
   \   00000234   2B01               OR      R16, R17
   \   00000236   F489               BRNE    ??TIMER2_COMPA_interrupt_11
    858              {
    859               UCSR0B=UCSR0B & ~RXEN;
   \   00000238   910000C1           LDS     R16, 193
   \   0000023C   7E0F               ANDI    R16, 0xEF
   \   0000023E   930000C1           STS     193, R16
    860               UCSR0B=UCSR0B & ~RXCIE;
   \   00000242   910000C1           LDS     R16, 193
   \   00000246   770F               ANDI    R16, 0x7F
   \   00000248   930000C1           STS     193, R16
    861               fl_at_com.rx_rec=1; 
   \   0000024C   ....               LDI     R30, LOW(fl_at_com)
   \   0000024E   ....               LDI     R31, (fl_at_com) >> 8
   \   00000250   8100               LD      R16, Z
   \   00000252   6200               ORI     R16, 0x20
   \   00000254   8300               ST      Z, R16
    862               S2_OFF;
   \   00000256   9840               CBI     0x08, 0x00
   \   00000258   9841               CBI     0x08, 0x01
    863              } //ń÷ĺň÷čę ěĺćáŕéňîâűé ďđîěĺćóňîę
    864          next_step1:
    865             
    866              
    867              
    868            //!!!!!!!!!!!!!!!!!!!!!!!!!!!!!!!!!!!!!!!!!!!!!!!!!!!!!!!!!!!!!!!!!!!!!!!!!!!!!11
    869              //îáđŕáîňęŕ ďî ďîđňó RS-485 ą1
    870              if(Rs485_1.cnt_tm_pre_tx==0) goto  nxt_step2;
   \                     ??TIMER2_COMPA_interrupt_11:
   \   0000025A   01FC               MOVW    R31:R30, R25:R24
   \   0000025C   8104               LDD     R16, Z+4
   \   0000025E   8115               LDD     R17, Z+5
   \   00000260   2B01               OR      R16, R17
   \   00000262   F079               BREQ    ??TIMER2_COMPA_interrupt_12
    871              Rs485_1.cnt_tm_pre_tx--;
   \   00000264   8104               LDD     R16, Z+4
   \   00000266   8115               LDD     R17, Z+5
   \   00000268   5001               SUBI    R16, 1
   \   0000026A   4010               SBCI    R17, 0
   \   0000026C   8304               STD     Z+4, R16
   \   0000026E   8315               STD     Z+5, R17
    872              if(Rs485_1.cnt_tm_pre_tx==0) UCSR3B=UCSR3B | UDRIE;  // enable transmit 485_1 
   \   00000270   8104               LDD     R16, Z+4
   \   00000272   8115               LDD     R17, Z+5
   \   00000274   2B01               OR      R16, R17
   \   00000276   F429               BRNE    ??TIMER2_COMPA_interrupt_12
   \   00000278   91000131           LDS     R16, 305
   \   0000027C   6200               ORI     R16, 0x20
   \   0000027E   93000131           STS     305, R16
    873          
    874            nxt_step2:
    875                                 
    876                          if(Rs485_1.cnt_tm_out==0) goto nxt_step3;
   \                     ??TIMER2_COMPA_interrupt_12:
   \   00000282   8504               LDD     R16, Z+12
   \   00000284   8515               LDD     R17, Z+13
   \   00000286   2B01               OR      R16, R17
   \   00000288   F0D1               BREQ    ??TIMER2_COMPA_interrupt_13
    877                          Rs485_1.cnt_tm_out--;
   \   0000028A   8504               LDD     R16, Z+12
   \   0000028C   8515               LDD     R17, Z+13
   \   0000028E   5001               SUBI    R16, 1
   \   00000290   4010               SBCI    R17, 0
   \   00000292   8704               STD     Z+12, R16
   \   00000294   8715               STD     Z+13, R17
    878                          if(Rs485_1.cnt_tm_out==0){
   \   00000296   8504               LDD     R16, Z+12
   \   00000298   8515               LDD     R17, Z+13
   \   0000029A   2B01               OR      R16, R17
   \   0000029C   F481               BRNE    ??TIMER2_COMPA_interrupt_13
    879                                                    S3_OFF;
   \   0000029E   9844               CBI     0x08, 0x04
   \   000002A0   9845               CBI     0x08, 0x05
    880                                                    UCSR3B =UCSR3B & ~(RXEN | RXCIE);
   \   000002A2   91000131           LDS     R16, 305
   \   000002A6   760F               ANDI    R16, 0x6F
   \   000002A8   93000131           STS     305, R16
    881                                                    Rs485_1.cnt_bt_rx_tx=0;
   \   000002AC   E000               LDI     R16, 0
   \   000002AE   8300               ST      Z, R16
   \   000002B0   8301               STD     Z+1, R16
    882                                                    Rs485_1.cnt_tm_rx_out=0;
   \   000002B2   8700               STD     Z+8, R16
   \   000002B4   8701               STD     Z+9, R16
    883                                                    fl_485_1.rec=0;
    884                                                    fl_485_1.tm_out=1;
   \   000002B6   AD00               LDD     R16, Z+56
   \   000002B8   7F0D               ANDI    R16, 0xFD
   \   000002BA   6004               ORI     R16, 0x04
   \   000002BC   AF00               STD     Z+56, R16
    885                                                   }                              
    886           nxt_step3:      
    887                    
    888           
    889                           if(Rs485_1.cnt_tm_rx_out==0) goto nxt_step4;
   \                     ??TIMER2_COMPA_interrupt_13:
   \   000002BE   8500               LDD     R16, Z+8
   \   000002C0   8511               LDD     R17, Z+9
   \   000002C2   2B01               OR      R16, R17
   \   000002C4   F0D1               BREQ    ??TIMER2_COMPA_interrupt_14
    890                              Rs485_1.cnt_tm_rx_out--;
   \   000002C6   8500               LDD     R16, Z+8
   \   000002C8   8511               LDD     R17, Z+9
   \   000002CA   5001               SUBI    R16, 1
   \   000002CC   4010               SBCI    R17, 0
   \   000002CE   8700               STD     Z+8, R16
   \   000002D0   8711               STD     Z+9, R17
    891                             if(Rs485_1.cnt_tm_rx_out==0)
   \   000002D2   8500               LDD     R16, Z+8
   \   000002D4   8511               LDD     R17, Z+9
   \   000002D6   2B01               OR      R16, R17
   \   000002D8   F481               BRNE    ??TIMER2_COMPA_interrupt_14
    892                             {
    893                               S3_OFF;
   \   000002DA   9844               CBI     0x08, 0x04
   \   000002DC   9845               CBI     0x08, 0x05
    894                               fl_485_1.rec=1;
   \   000002DE   AD00               LDD     R16, Z+56
   \   000002E0   6002               ORI     R16, 0x02
   \   000002E2   AF00               STD     Z+56, R16
    895                               Rs485_1.cnt_tm_out=0;
   \   000002E4   E000               LDI     R16, 0
   \   000002E6   8704               STD     Z+12, R16
   \   000002E8   8705               STD     Z+13, R16
    896                               fl_485_1.tm_out=0;  
   \   000002EA   AD00               LDD     R16, Z+56
   \   000002EC   7F0B               ANDI    R16, 0xFB
   \   000002EE   AF00               STD     Z+56, R16
    897                               UCSR3B =UCSR3B & ~(RXEN | RXCIE);
   \   000002F0   91000131           LDS     R16, 305
   \   000002F4   760F               ANDI    R16, 0x6F
   \   000002F6   93000131           STS     305, R16
    898                              } 
    899           nxt_step4:                  
    900                          if(Rs485_1.cnt_tm_tx_out==0) goto lable_tm21;
   \                     ??TIMER2_COMPA_interrupt_14:
   \   000002FA   8102               LDD     R16, Z+2
   \   000002FC   8113               LDD     R17, Z+3
   \   000002FE   2B01               OR      R16, R17
   \   00000300   F129               BREQ    ??TIMER2_COMPA_interrupt_15
    901                          Rs485_1.cnt_tm_tx_out--;
   \   00000302   8102               LDD     R16, Z+2
   \   00000304   8113               LDD     R17, Z+3
   \   00000306   5001               SUBI    R16, 1
   \   00000308   4010               SBCI    R17, 0
   \   0000030A   8302               STD     Z+2, R16
   \   0000030C   8313               STD     Z+3, R17
    902                          if(Rs485_1.cnt_tm_tx_out==1) {CLR_RTS1;} /*togle to receiv mode*/ 
   \   0000030E   8102               LDD     R16, Z+2
   \   00000310   8113               LDD     R17, Z+3
   \   00000312   3001               CPI     R16, 1
   \   00000314   E020               LDI     R18, 0
   \   00000316   0712               CPC     R17, R18
   \   00000318   F429               BRNE    ??TIMER2_COMPA_interrupt_16
   \   0000031A   91000105           LDS     R16, 261
   \   0000031E   7F0B               ANDI    R16, 0xFB
   \   00000320   93000105           STS     261, R16
    903                          if(Rs485_1.cnt_tm_tx_out==0){CLR_RTS1;S3_OFF;Rs485_1.cnt_tm_out=Rs485_1.vol_tm_out;UCSR3B =UCSR3B | RXEN | RXCIE;} // togle to receiv mode ;
   \                     ??TIMER2_COMPA_interrupt_16:
   \   00000324   8102               LDD     R16, Z+2
   \   00000326   8113               LDD     R17, Z+3
   \   00000328   2B01               OR      R16, R17
   \   0000032A   F481               BRNE    ??TIMER2_COMPA_interrupt_15
   \   0000032C   91000105           LDS     R16, 261
   \   00000330   7F0B               ANDI    R16, 0xFB
   \   00000332   93000105           STS     261, R16
   \   00000336   9844               CBI     0x08, 0x04
   \   00000338   9845               CBI     0x08, 0x05
   \   0000033A   8506               LDD     R16, Z+14
   \   0000033C   8517               LDD     R17, Z+15
   \   0000033E   8704               STD     Z+12, R16
   \   00000340   8715               STD     Z+13, R17
   \   00000342   91000131           LDS     R16, 305
   \   00000346   6900               ORI     R16, 0x90
   \   00000348   93000131           STS     305, R16
    904                          
    905           //EEEEEEEEEEEEEEEEEEEEEEEEEEEEEEEEEEEEEEEEEEEEEEEEEEEEEEEEEEEEEEEEEEEEEEEEEEEEEEEEEEEEEEEEEEEEEEEEEEEEEEEEEEEEEEEE                
    906           
    907            
    908                          
    909                          
    910            lable_tm21:               
    911           //!!!!!!!!!!!!!!!!!!!!!!!!!!!!!!!!!!!!!!!!!!!!!!!!!!!!!!!!!!!!!!!!!!!!!!!!!!!!!11
    912              //îáđŕáîňęŕ ďî ďîđňó RS-485 ą2
    913              if(Rs485_2.cnt_tm_pre_tx==0) goto  next_step2;
   \                     ??TIMER2_COMPA_interrupt_15:
   \   0000034C   8906               LDD     R16, Z+22
   \   0000034E   8917               LDD     R17, Z+23
   \   00000350   2B01               OR      R16, R17
   \   00000352   F079               BREQ    ??TIMER2_COMPA_interrupt_17
    914              Rs485_2.cnt_tm_pre_tx--;
   \   00000354   8906               LDD     R16, Z+22
   \   00000356   8917               LDD     R17, Z+23
   \   00000358   5001               SUBI    R16, 1
   \   0000035A   4010               SBCI    R17, 0
   \   0000035C   8B06               STD     Z+22, R16
   \   0000035E   8B17               STD     Z+23, R17
    915              if(Rs485_2.cnt_tm_pre_tx==0) UCSR1B=UCSR1B | UDRIE;  // enable transmit 485_1 
   \   00000360   8906               LDD     R16, Z+22
   \   00000362   8917               LDD     R17, Z+23
   \   00000364   2B01               OR      R16, R17
   \   00000366   F429               BRNE    ??TIMER2_COMPA_interrupt_17
   \   00000368   910000C9           LDS     R16, 201
   \   0000036C   6200               ORI     R16, 0x20
   \   0000036E   930000C9           STS     201, R16
    916          
    917            next_step2:
    918                                 
    919                          if(Rs485_2.cnt_tm_out==0) goto next_step3;
   \                     ??TIMER2_COMPA_interrupt_17:
   \   00000372   8D06               LDD     R16, Z+30
   \   00000374   8D17               LDD     R17, Z+31
   \   00000376   2B01               OR      R16, R17
   \   00000378   F0D1               BREQ    ??TIMER2_COMPA_interrupt_18
    920                          Rs485_2.cnt_tm_out--;
   \   0000037A   8D06               LDD     R16, Z+30
   \   0000037C   8D17               LDD     R17, Z+31
   \   0000037E   5001               SUBI    R16, 1
   \   00000380   4010               SBCI    R17, 0
   \   00000382   8F06               STD     Z+30, R16
   \   00000384   8F17               STD     Z+31, R17
    921                          if(Rs485_2.cnt_tm_out==0){
   \   00000386   8D06               LDD     R16, Z+30
   \   00000388   8D17               LDD     R17, Z+31
   \   0000038A   2B01               OR      R16, R17
   \   0000038C   F481               BRNE    ??TIMER2_COMPA_interrupt_18
    922                                                    S4_OFF;
   \   0000038E   9842               CBI     0x08, 0x02
   \   00000390   9843               CBI     0x08, 0x03
    923                                                    UCSR1B =UCSR1B & ~(RXEN | RXCIE);
   \   00000392   910000C9           LDS     R16, 201
   \   00000396   760F               ANDI    R16, 0x6F
   \   00000398   930000C9           STS     201, R16
    924                                                    Rs485_2.cnt_bt_rx_tx=0;
   \   0000039C   E000               LDI     R16, 0
   \   0000039E   8B02               STD     Z+18, R16
   \   000003A0   8B03               STD     Z+19, R16
    925                                                    Rs485_2.cnt_tm_rx_out=0;
   \   000003A2   8F02               STD     Z+26, R16
   \   000003A4   8F03               STD     Z+27, R16
    926                                                    fl_485_2.rec=0;
    927                                                    fl_485_2.tm_out=1;
   \   000003A6   AD01               LDD     R16, Z+57
   \   000003A8   7F0D               ANDI    R16, 0xFD
   \   000003AA   6004               ORI     R16, 0x04
   \   000003AC   AF01               STD     Z+57, R16
    928                                                   }                              
    929           next_step3:      
    930                    
    931           
    932                           if(Rs485_2.cnt_tm_rx_out==0) goto next_step4;
   \                     ??TIMER2_COMPA_interrupt_18:
   \   000003AE   8D02               LDD     R16, Z+26
   \   000003B0   8D13               LDD     R17, Z+27
   \   000003B2   2B01               OR      R16, R17
   \   000003B4   F0D1               BREQ    ??TIMER2_COMPA_interrupt_19
    933                              Rs485_2.cnt_tm_rx_out--;
   \   000003B6   8D02               LDD     R16, Z+26
   \   000003B8   8D13               LDD     R17, Z+27
   \   000003BA   5001               SUBI    R16, 1
   \   000003BC   4010               SBCI    R17, 0
   \   000003BE   8F02               STD     Z+26, R16
   \   000003C0   8F13               STD     Z+27, R17
    934                             if(Rs485_2.cnt_tm_rx_out==0)
   \   000003C2   8D02               LDD     R16, Z+26
   \   000003C4   8D13               LDD     R17, Z+27
   \   000003C6   2B01               OR      R16, R17
   \   000003C8   F481               BRNE    ??TIMER2_COMPA_interrupt_19
    935                             {
    936                               S4_OFF;
   \   000003CA   9842               CBI     0x08, 0x02
   \   000003CC   9843               CBI     0x08, 0x03
    937                               fl_485_2.rec=1;
   \   000003CE   AD01               LDD     R16, Z+57
   \   000003D0   6002               ORI     R16, 0x02
   \   000003D2   AF01               STD     Z+57, R16
    938                               Rs485_2.cnt_tm_out=0;
   \   000003D4   E000               LDI     R16, 0
   \   000003D6   8F06               STD     Z+30, R16
   \   000003D8   8F07               STD     Z+31, R16
    939                               fl_485_2.tm_out=0;  
   \   000003DA   AD01               LDD     R16, Z+57
   \   000003DC   7F0B               ANDI    R16, 0xFB
   \   000003DE   AF01               STD     Z+57, R16
    940                               UCSR1B =UCSR1B & ~(RXEN | RXCIE);
   \   000003E0   910000C9           LDS     R16, 201
   \   000003E4   760F               ANDI    R16, 0x6F
   \   000003E6   930000C9           STS     201, R16
    941                              } 
    942           next_step4:                  
    943                          if(Rs485_2.cnt_tm_tx_out==0) goto lable_tm22;
   \                     ??TIMER2_COMPA_interrupt_19:
   \   000003EA   8904               LDD     R16, Z+20
   \   000003EC   8915               LDD     R17, Z+21
   \   000003EE   2B01               OR      R16, R17
   \   000003F0   F0E9               BREQ    ??TIMER2_COMPA_interrupt_20
    944                          Rs485_2.cnt_tm_tx_out--;
   \   000003F2   8904               LDD     R16, Z+20
   \   000003F4   8915               LDD     R17, Z+21
   \   000003F6   5001               SUBI    R16, 1
   \   000003F8   4010               SBCI    R17, 0
   \   000003FA   8B04               STD     Z+20, R16
   \   000003FC   8B15               STD     Z+21, R17
    945                          if(Rs485_2.cnt_tm_tx_out==1) {CLR_RTS3; } /*togle to receiv mode*/ 
   \   000003FE   8904               LDD     R16, Z+20
   \   00000400   8915               LDD     R17, Z+21
   \   00000402   3001               CPI     R16, 1
   \   00000404   E020               LDI     R18, 0
   \   00000406   0712               CPC     R17, R18
   \   00000408   F409               BRNE    ??TIMER2_COMPA_interrupt_21
   \   0000040A   985C               CBI     0x0B, 0x04
    946                          if(Rs485_2.cnt_tm_tx_out==0){CLR_RTS3;S4_OFF;Rs485_2.cnt_tm_out=Rs485_2.vol_tm_out;UCSR1B =UCSR1B | RXEN | RXCIE;} // togle to receiv mode ;
   \                     ??TIMER2_COMPA_interrupt_21:
   \   0000040C   8904               LDD     R16, Z+20
   \   0000040E   8915               LDD     R17, Z+21
   \   00000410   2B01               OR      R16, R17
   \   00000412   F461               BRNE    ??TIMER2_COMPA_interrupt_20
   \   00000414   985C               CBI     0x0B, 0x04
   \   00000416   9842               CBI     0x08, 0x02
   \   00000418   9843               CBI     0x08, 0x03
   \   0000041A   A100               LDD     R16, Z+32
   \   0000041C   A111               LDD     R17, Z+33
   \   0000041E   8F06               STD     Z+30, R16
   \   00000420   8F17               STD     Z+31, R17
   \   00000422   910000C9           LDS     R16, 201
   \   00000426   6900               ORI     R16, 0x90
   \   00000428   930000C9           STS     201, R16
    947                          
    948           //EEEEEEEEEEEEEEEEEEEEEEEEEEEEEEEEEEEEEEEEEEEEEEEEEEEEEEEEEEEEEEEEEEEEEEEEEEEEEEEEEEEEEEEEEEEEEEEEEEEEEEEEEEEEEEEE              
    949                          
    950           
    951             lable_tm22:               
    952           //!!!!!!!!!!!!!!!!!!!!!!!!!!!!!!!!!!!!!!!!!!!!!!!!!!!!!!!!!!!!!!!!!!!!!!!!!!!!!11
    953              //îáđŕáîňęŕ ďî ďîđňó RS-232 ą2
    954              if(Rs232_2.cnt_tm_pre_tx==0) goto  nt_step2;
   \                     ??TIMER2_COMPA_interrupt_20:
   \   0000042C   A500               LDD     R16, Z+40
   \   0000042E   A511               LDD     R17, Z+41
   \   00000430   2B01               OR      R16, R17
   \   00000432   F079               BREQ    ??TIMER2_COMPA_interrupt_22
    955              Rs232_2.cnt_tm_pre_tx--;
   \   00000434   A500               LDD     R16, Z+40
   \   00000436   A511               LDD     R17, Z+41
   \   00000438   5001               SUBI    R16, 1
   \   0000043A   4010               SBCI    R17, 0
   \   0000043C   A700               STD     Z+40, R16
   \   0000043E   A711               STD     Z+41, R17
    956              if(Rs232_2.cnt_tm_pre_tx==0) UCSR2B=UCSR2B | UDRIE;  // enable transmit 232_1 
   \   00000440   A500               LDD     R16, Z+40
   \   00000442   A511               LDD     R17, Z+41
   \   00000444   2B01               OR      R16, R17
   \   00000446   F429               BRNE    ??TIMER2_COMPA_interrupt_22
   \   00000448   910000D1           LDS     R16, 209
   \   0000044C   6200               ORI     R16, 0x20
   \   0000044E   930000D1           STS     209, R16
    957          
    958            nt_step2:
    959                                 
    960                          if(Rs232_2.cnt_tm_out==0) goto nt_step3;
   \                     ??TIMER2_COMPA_interrupt_22:
   \   00000452   A900               LDD     R16, Z+48
   \   00000454   A911               LDD     R17, Z+49
   \   00000456   2B01               OR      R16, R17
   \   00000458   F0D1               BREQ    ??TIMER2_COMPA_interrupt_23
    961                          Rs232_2.cnt_tm_out--;
   \   0000045A   A900               LDD     R16, Z+48
   \   0000045C   A911               LDD     R17, Z+49
   \   0000045E   5001               SUBI    R16, 1
   \   00000460   4010               SBCI    R17, 0
   \   00000462   AB00               STD     Z+48, R16
   \   00000464   AB11               STD     Z+49, R17
    962                          if(Rs232_2.cnt_tm_out==0){
   \   00000466   A900               LDD     R16, Z+48
   \   00000468   A911               LDD     R17, Z+49
   \   0000046A   2B01               OR      R16, R17
   \   0000046C   F481               BRNE    ??TIMER2_COMPA_interrupt_23
    963                                                 
    964                                                    S5_OFF;
   \   0000046E   9846               CBI     0x08, 0x06
   \   00000470   9847               CBI     0x08, 0x07
    965                                                    UCSR2B =UCSR2B & ~(RXEN | RXCIE);
   \   00000472   910000D1           LDS     R16, 209
   \   00000476   760F               ANDI    R16, 0x6F
   \   00000478   930000D1           STS     209, R16
    966                                                    Rs232_2.cnt_bt_rx_tx=0;
   \   0000047C   E000               LDI     R16, 0
   \   0000047E   A304               STD     Z+36, R16
   \   00000480   A305               STD     Z+37, R16
    967                                                    Rs232_2.cnt_tm_rx_out=0;
   \   00000482   A704               STD     Z+44, R16
   \   00000484   A705               STD     Z+45, R16
    968                                                    fl_232_2.rec=0;
    969                                                    fl_232_2.tm_out=1;
   \   00000486   AD02               LDD     R16, Z+58
   \   00000488   7F0D               ANDI    R16, 0xFD
   \   0000048A   6004               ORI     R16, 0x04
   \   0000048C   AF02               STD     Z+58, R16
    970                                                   }                              
    971           nt_step3:      
    972                    
    973           
    974                           if(Rs232_2.cnt_tm_rx_out==0) goto nt_step4;
   \                     ??TIMER2_COMPA_interrupt_23:
   \   0000048E   A504               LDD     R16, Z+44
   \   00000490   A515               LDD     R17, Z+45
   \   00000492   2B01               OR      R16, R17
   \   00000494   F0D1               BREQ    ??TIMER2_COMPA_interrupt_24
    975                              Rs232_2.cnt_tm_rx_out--;
   \   00000496   A504               LDD     R16, Z+44
   \   00000498   A515               LDD     R17, Z+45
   \   0000049A   5001               SUBI    R16, 1
   \   0000049C   4010               SBCI    R17, 0
   \   0000049E   A704               STD     Z+44, R16
   \   000004A0   A715               STD     Z+45, R17
    976                             if(Rs232_2.cnt_tm_rx_out==0)
   \   000004A2   A504               LDD     R16, Z+44
   \   000004A4   A515               LDD     R17, Z+45
   \   000004A6   2B01               OR      R16, R17
   \   000004A8   F481               BRNE    ??TIMER2_COMPA_interrupt_24
    977                             {
    978                               S5_OFF;
   \   000004AA   9846               CBI     0x08, 0x06
   \   000004AC   9847               CBI     0x08, 0x07
    979                               fl_232_2.rec=1;
   \   000004AE   AD02               LDD     R16, Z+58
   \   000004B0   6002               ORI     R16, 0x02
   \   000004B2   AF02               STD     Z+58, R16
    980                               Rs232_2.cnt_tm_out=0;
   \   000004B4   E000               LDI     R16, 0
   \   000004B6   AB00               STD     Z+48, R16
   \   000004B8   AB01               STD     Z+49, R16
    981                               fl_232_2.tm_out=0;  
   \   000004BA   AD02               LDD     R16, Z+58
   \   000004BC   7F0B               ANDI    R16, 0xFB
   \   000004BE   AF02               STD     Z+58, R16
    982                               UCSR2B =UCSR2B & ~(RXEN | RXCIE);
   \   000004C0   910000D1           LDS     R16, 209
   \   000004C4   760F               ANDI    R16, 0x6F
   \   000004C6   930000D1           STS     209, R16
    983                              } 
    984           nt_step4:                  
    985                          if(Rs232_2.cnt_tm_tx_out==0) goto lable_tm23;
   \                     ??TIMER2_COMPA_interrupt_24:
   \   000004CA   A106               LDD     R16, Z+38
   \   000004CC   A117               LDD     R17, Z+39
   \   000004CE   2B01               OR      R16, R17
   \   000004D0   F129               BREQ    ??TIMER2_COMPA_interrupt_25
    986                          Rs232_2.cnt_tm_tx_out--;
   \   000004D2   A106               LDD     R16, Z+38
   \   000004D4   A117               LDD     R17, Z+39
   \   000004D6   5001               SUBI    R16, 1
   \   000004D8   4010               SBCI    R17, 0
   \   000004DA   A306               STD     Z+38, R16
   \   000004DC   A317               STD     Z+39, R17
    987                          if(Rs232_2.cnt_tm_tx_out==1) {CLR_RTS2;} /*togle to receiv mode*/ 
   \   000004DE   A106               LDD     R16, Z+38
   \   000004E0   A117               LDD     R17, Z+39
   \   000004E2   3001               CPI     R16, 1
   \   000004E4   E020               LDI     R18, 0
   \   000004E6   0712               CPC     R17, R18
   \   000004E8   F429               BRNE    ??TIMER2_COMPA_interrupt_26
   \   000004EA   91000102           LDS     R16, 258
   \   000004EE   6004               ORI     R16, 0x04
   \   000004F0   93000102           STS     258, R16
    988                          if(Rs232_2.cnt_tm_tx_out==0){CLR_RTS2;S5_OFF;Rs232_2.cnt_tm_out=Rs232_2.vol_tm_out;UCSR2B =UCSR2B | RXEN | RXCIE;} // togle to receiv mode ;
   \                     ??TIMER2_COMPA_interrupt_26:
   \   000004F4   A106               LDD     R16, Z+38
   \   000004F6   A117               LDD     R17, Z+39
   \   000004F8   2B01               OR      R16, R17
   \   000004FA   F481               BRNE    ??TIMER2_COMPA_interrupt_25
   \   000004FC   91000102           LDS     R16, 258
   \   00000500   6004               ORI     R16, 0x04
   \   00000502   93000102           STS     258, R16
   \   00000506   9846               CBI     0x08, 0x06
   \   00000508   9847               CBI     0x08, 0x07
   \   0000050A   A902               LDD     R16, Z+50
   \   0000050C   A913               LDD     R17, Z+51
   \   0000050E   AB00               STD     Z+48, R16
   \   00000510   AB11               STD     Z+49, R17
   \   00000512   910000D1           LDS     R16, 209
   \   00000516   6900               ORI     R16, 0x90
   \   00000518   930000D1           STS     209, R16
    989                          
    990           //EEEEEEEEEEEEEEEEEEEEEEEEEEEEEEEEEEEEEEEEEEEEEEEEEEEEEEEEEEEEEEEEEEEEEEEEEEEEEEEEEEEEEEEEEEEEEEEEEEEEEEEEEEEEEEEE                   
    991                          
    992            lable_tm23:
    993                ///ňŕéěĺđ đĺńňŕđňŕ LCP
    994              if(fl_lcp.lcp_tm_out_en==1)
   \                     ??TIMER2_COMPA_interrupt_25:
   \   0000051C   ....               LDI     R30, LOW(fl_lcp)
   \   0000051E   ....               LDI     R31, (fl_lcp) >> 8
   \   00000520   8100               LD      R16, Z
   \   00000522   FF01               SBRS    R16, 1
   \   00000524   C015               RJMP    ??TIMER2_COMPA_interrupt_27
    995                 {                 
    996                      if(cnt_lcp_tm_out==0)goto lable_tm24;  
   \   00000526   ....               LDI     R30, LOW(cnt_lcp_tm_out)
   \   00000528   ....               LDI     R31, (cnt_lcp_tm_out) >> 8
   \   0000052A   8100               LD      R16, Z
   \   0000052C   8111               LDD     R17, Z+1
   \   0000052E   2B01               OR      R16, R17
   \   00000530   F079               BREQ    ??TIMER2_COMPA_interrupt_27
    997                      cnt_lcp_tm_out--;
   \   00000532   8100               LD      R16, Z
   \   00000534   8111               LDD     R17, Z+1
   \   00000536   5001               SUBI    R16, 1
   \   00000538   4010               SBCI    R17, 0
   \   0000053A   8300               ST      Z, R16
   \   0000053C   8311               STD     Z+1, R17
    998                      if(cnt_lcp_tm_out==0)fl_lcp.t0_pl=1;
   \   0000053E   8100               LD      R16, Z
   \   00000540   8111               LDD     R17, Z+1
   \   00000542   2B01               OR      R16, R17
   \   00000544   F429               BRNE    ??TIMER2_COMPA_interrupt_27
   \   00000546   ....               LDI     R30, LOW(fl_lcp)
   \   00000548   ....               LDI     R31, (fl_lcp) >> 8
   \   0000054A   8100               LD      R16, Z
   \   0000054C   6004               ORI     R16, 0x04
   \   0000054E   8300               ST      Z, R16
    999                      /*
   1000                         cnt_lcp_tm_out--;
   1001                         if(cnt_lcp_tm_out==0)
   1002                            {
   1003                            cnt_lcp_tm_out=VOL_LCP_TM_OUT;
   1004                            if(cnt_rst_lcp==0)
   1005                               {   
   1006                                cnt_lcp_tm_out=vol_cnt_rst_lcp;
   1007                                fl_lcp.t0_mi=1;
   1008                               }
   1009                               else 
   1010                                 {
   1011                                 cnt_rst_lcp--;
   1012                                 fl_lcp.t0_pl=1;       
   1013                                 } 
   1014                            } 
   1015                      */
   1016                   
   1017                 }
   1018            lable_tm24:;
   1019           //////////////////////////////////////////
   1020           
   1021           ///ňŕéěĺđ đĺńňŕđňŕ PAP
   1022              if(fl_pap.pap_tm_out_en==1)
   \                     ??TIMER2_COMPA_interrupt_27:
   \   00000550   ....               LDI     R30, LOW(fl_pap)
   \   00000552   ....               LDI     R31, (fl_pap) >> 8
   \   00000554   8100               LD      R16, Z
   \   00000556   FF01               SBRS    R16, 1
   \   00000558   C015               RJMP    ??TIMER2_COMPA_interrupt_28
   1023                 {        
   1024                         if(cnt_pap_tm_out==0)goto lable_tm25;
   \   0000055A   ....               LDI     R30, LOW(cnt_pap_tm_out)
   \   0000055C   ....               LDI     R31, (cnt_pap_tm_out) >> 8
   \   0000055E   8100               LD      R16, Z
   \   00000560   8111               LDD     R17, Z+1
   \   00000562   2B01               OR      R16, R17
   \   00000564   F079               BREQ    ??TIMER2_COMPA_interrupt_28
   1025                         cnt_pap_tm_out--;
   \   00000566   8100               LD      R16, Z
   \   00000568   8111               LDD     R17, Z+1
   \   0000056A   5001               SUBI    R16, 1
   \   0000056C   4010               SBCI    R17, 0
   \   0000056E   8300               ST      Z, R16
   \   00000570   8311               STD     Z+1, R17
   1026                         if(cnt_pap_tm_out==0)fl_pap.t0_pl=1; 
   \   00000572   8100               LD      R16, Z
   \   00000574   8111               LDD     R17, Z+1
   \   00000576   2B01               OR      R16, R17
   \   00000578   F429               BRNE    ??TIMER2_COMPA_interrupt_28
   \   0000057A   ....               LDI     R30, LOW(fl_pap)
   \   0000057C   ....               LDI     R31, (fl_pap) >> 8
   \   0000057E   8100               LD      R16, Z
   \   00000580   6004               ORI     R16, 0x04
   \   00000582   8300               ST      Z, R16
   1027                   /*      
   1028                           if(cnt_pap_tm_out==0)
   1029                            {
   1030                            cnt_pap_tm_out=VOL_PAP_TM_OUT;
   1031                            if(cnt_rst_pap==0)
   1032                               {   
   1033                                cnt_pap_tm_out=vol_cnt_rst_pap;
   1034                                fl_pap.t0_mi=1;
   1035                               }
   1036                               else 
   1037                                 {
   1038                                 cnt_rst_pap--;
   1039                                 fl_pap.t0_pl=1; 
   1040                                 } 
   1041                            } 
   1042                 */
   1043                           
   1044                 }
   1045            lable_tm25: ;
   1046           //////////////////////////////////////////
   1047           
   1048           ///ňŕéěĺđ đĺńňŕđňŕ IPCP
   1049              if(fl_ipcp.ipcp_tm_out_en==1)
   \                     ??TIMER2_COMPA_interrupt_28:
   \   00000584   ....               LDI     R30, LOW(fl_ipcp)
   \   00000586   ....               LDI     R31, (fl_ipcp) >> 8
   \   00000588   8100               LD      R16, Z
   \   0000058A   FF01               SBRS    R16, 1
   \   0000058C   C015               RJMP    ??TIMER2_COMPA_interrupt_29
   1050                 {                 
   1051                         
   1052                         if(cnt_ipcp_tm_out==0)goto lable_tm26;
   \   0000058E   ....               LDI     R30, LOW(cnt_ipcp_tm_out)
   \   00000590   ....               LDI     R31, (cnt_ipcp_tm_out) >> 8
   \   00000592   8100               LD      R16, Z
   \   00000594   8111               LDD     R17, Z+1
   \   00000596   2B01               OR      R16, R17
   \   00000598   F079               BREQ    ??TIMER2_COMPA_interrupt_29
   1053                         cnt_ipcp_tm_out--;
   \   0000059A   8100               LD      R16, Z
   \   0000059C   8111               LDD     R17, Z+1
   \   0000059E   5001               SUBI    R16, 1
   \   000005A0   4010               SBCI    R17, 0
   \   000005A2   8300               ST      Z, R16
   \   000005A4   8311               STD     Z+1, R17
   1054                         if(cnt_ipcp_tm_out==0)fl_ipcp.t0_pl=1; 
   \   000005A6   8100               LD      R16, Z
   \   000005A8   8111               LDD     R17, Z+1
   \   000005AA   2B01               OR      R16, R17
   \   000005AC   F429               BRNE    ??TIMER2_COMPA_interrupt_29
   \   000005AE   ....               LDI     R30, LOW(fl_ipcp)
   \   000005B0   ....               LDI     R31, (fl_ipcp) >> 8
   \   000005B2   8100               LD      R16, Z
   \   000005B4   6004               ORI     R16, 0x04
   \   000005B6   8300               ST      Z, R16
   1055                        /* 
   1056                         cnt_ipcp_tm_out--;
   1057                         if(cnt_ipcp_tm_out==0)
   1058                            {
   1059                            cnt_ipcp_tm_out=VOL_IPCP_TM_OUT;
   1060                            if(cnt_rst_ipcp==0)
   1061                               {   
   1062                                cnt_ipcp_tm_out=vol_cnt_rst_ipcp;
   1063                                fl_ipcp.t0_mi=1;
   1064                               }
   1065                               else 
   1066                                 {  
   1067                                 cnt_rst_ipcp--;
   1068                                 fl_ipcp.t0_pl=1; 
   1069                                 } 
   1070                            } */
   1071                 
   1072                 }
   1073                          
   1074            lable_tm26:;       
   1075                 
   1076                 }
   \                     ??TIMER2_COMPA_interrupt_29:
   \   000005B8   BE5B               OUT     0x3B, R5
   \   000005BA   BE4F               OUT     0x3F, R4
   \   000005BC   9109               LD      R16, Y+
   \   000005BE   9119               LD      R17, Y+
   \   000005C0   9129               LD      R18, Y+
   \   000005C2   9139               LD      R19, Y+
   \   000005C4   9149               LD      R20, Y+
   \   000005C6   9159               LD      R21, Y+
   \   000005C8   9169               LD      R22, Y+
   \   000005CA   9179               LD      R23, Y+
   \   000005CC   9009               LD      R0, Y+
   \   000005CE   9019               LD      R1, Y+
   \   000005D0   9029               LD      R2, Y+
   \   000005D2   9039               LD      R3, Y+
   \   000005D4   91E9               LD      R30, Y+
   \   000005D6   91F9               LD      R31, Y+
   \   000005D8   9189               LD      R24, Y+
   \   000005DA   9199               LD      R25, Y+
   \   000005DC   91A9               LD      R26, Y+
   \   000005DE   91B9               LD      R27, Y+
   \   000005E0   9049               LD      R4, Y+
   \   000005E2   9059               LD      R5, Y+
   \   000005E4   9518               RETI
   1077           
   1078          ///////////////////////////////////////////////////////////////////////////////////////////////////
   1079          
   1080          
   1081          
   1082          
   1083          /////////////////////////////////////////////////////////////////////////////////////////////////////////
   1084          #pragma vector=TIMER3_COMPA_vect 

   \                                 In segment CODE, align 2, keep-with-next
   1085               __interrupt void TIMER3_COMPA_interrupt(void)
   \                     TIMER3_COMPA_interrupt:
   1086              { 
   \   00000000   925A               ST      -Y, R5
   \   00000002   924A               ST      -Y, R4
   \   00000004   93BA               ST      -Y, R27
   \   00000006   93AA               ST      -Y, R26
   \   00000008   939A               ST      -Y, R25
   \   0000000A   938A               ST      -Y, R24
   \   0000000C   93FA               ST      -Y, R31
   \   0000000E   93EA               ST      -Y, R30
   \   00000010   923A               ST      -Y, R3
   \   00000012   922A               ST      -Y, R2
   \   00000014   921A               ST      -Y, R1
   \   00000016   920A               ST      -Y, R0
   \   00000018   937A               ST      -Y, R23
   \   0000001A   936A               ST      -Y, R22
   \   0000001C   935A               ST      -Y, R21
   \   0000001E   934A               ST      -Y, R20
   \   00000020   933A               ST      -Y, R19
   \   00000022   932A               ST      -Y, R18
   \   00000024   931A               ST      -Y, R17
   \   00000026   930A               ST      -Y, R16
   \   00000028   B64F               IN      R4, 0x3F
   \   0000002A   B65B               IN      R5, 0x3B
   \   0000002C                      REQUIRE ?Register_R4_is_cg_reg
   \   0000002C                      REQUIRE ?Register_R5_is_cg_reg
   1087           
   1088                
   1089                   fl_wdt.from_timer3=1;
   \   0000002C   ....               LDI     R30, LOW(fl_wdt)
   \   0000002E   ....               LDI     R31, (fl_wdt) >> 8
   \   00000030   8100               LD      R16, Z
   \   00000032   6100               ORI     R16, 0x10
   \   00000034   8300               ST      Z, R16
   1090                   
   1091                   
   1092                    if(cnt_tu1!=0)
   \   00000036   ....               LDI     R30, LOW(struct_tcc1)
   \   00000038   ....               LDI     R31, (struct_tcc1) >> 8
   \   0000003A   8504               LDD     R16, Z+12
   \   0000003C   2300               TST     R16
   \   0000003E   F039               BREQ    ??TIMER3_COMPA_interrupt_0
   1093                {
   1094                  cnt_tu1--;
   \   00000040   8504               LDD     R16, Z+12
   \   00000042   950A               DEC     R16
   \   00000044   8704               STD     Z+12, R16
   1095                  if(cnt_tu1==0) {TU1_OFF;}
   \   00000046   8504               LDD     R16, Z+12
   \   00000048   2300               TST     R16
   \   0000004A   F409               BRNE    ??TIMER3_COMPA_interrupt_0
   \   0000004C   9814               CBI     0x02, 0x04
   1096                }
   1097                   
   1098                if(cnt_tu2!=0)
   \                     ??TIMER3_COMPA_interrupt_0:
   \   0000004E   8505               LDD     R16, Z+13
   \   00000050   2300               TST     R16
   \   00000052   F039               BREQ    ??TIMER3_COMPA_interrupt_1
   1099                {
   1100                  cnt_tu2--;
   \   00000054   8505               LDD     R16, Z+13
   \   00000056   950A               DEC     R16
   \   00000058   8705               STD     Z+13, R16
   1101                  if(cnt_tu2==0) {TU2_OFF;}
   \   0000005A   8505               LDD     R16, Z+13
   \   0000005C   2300               TST     R16
   \   0000005E   F409               BRNE    ??TIMER3_COMPA_interrupt_1
   \   00000060   9813               CBI     0x02, 0x03
   1102                }
   1103                   
   1104                   
   1105                   
   1106                   if(time_cnt_ch_time!=0) time_cnt_ch_time--;
   \                     ??TIMER3_COMPA_interrupt_1:
   \   00000062   9100....           LDS     R16, time_cnt_ch_time
   \   00000066   2300               TST     R16
   \   00000068   F029               BREQ    ??TIMER3_COMPA_interrupt_2
   \   0000006A   ....               LDI     R26, LOW(time_cnt_ch_time)
   \   0000006C   ....               LDI     R27, (time_cnt_ch_time) >> 8
   \   0000006E   910C               LD      R16, X
   \   00000070   950A               DEC     R16
   \   00000072   930C               ST      X, R16
   1107                   
   1108                   cnt_supervosor++;
   \                     ??TIMER3_COMPA_interrupt_2:
   \   00000074   ....               LDI     R26, LOW(cnt_supervosor)
   \   00000076   ....               LDI     R27, (cnt_supervosor) >> 8
   \   00000078   910D               LD      R16, X+
   \   0000007A   911C               LD      R17, X
   \   0000007C   5F0F               SUBI    R16, 255
   \   0000007E   4F1F               SBCI    R17, 255
   \   00000080   931C               ST      X, R17
   \   00000082   930E               ST      -X, R16
   1109                
   1110              /*
   1111              if((PINB & CTS_232)==CTS_232)
   1112                              { 
   1113                              cnt_term++;
   1114                              if(cnt_term>=4)lock_it();
   1115                              }
   1116                              else cnt_term=0;
   1117             */ 
   1118              
   1119              
   1120              //if(count_block_net!=0) count_block_net--;
   1121               
   1122                       
   1123                   
   1124                   
   1125                if(struct_tcc1.cnt_block_tc!=0) struct_tcc1.cnt_block_tc--;     
   \   00000084   8105               LDD     R16, Z+5
   \   00000086   2300               TST     R16
   \   00000088   F019               BREQ    ??TIMER3_COMPA_interrupt_3
   \   0000008A   8105               LDD     R16, Z+5
   \   0000008C   950A               DEC     R16
   \   0000008E   8305               STD     Z+5, R16
   1126                if(struct_tcc2.cnt_block_tc!=0) struct_tcc2.cnt_block_tc--; 
   \                     ??TIMER3_COMPA_interrupt_3:
   \   00000090   8503               LDD     R16, Z+11
   \   00000092   2300               TST     R16
   \   00000094   F019               BREQ    ??TIMER3_COMPA_interrupt_4
   \   00000096   8503               LDD     R16, Z+11
   \   00000098   950A               DEC     R16
   \   0000009A   8703               STD     Z+11, R16
   1127             
   1128                if(Appl_seq.cntr_cl==TRUE)
   \                     ??TIMER3_COMPA_interrupt_4:
   \   0000009C   ....               LDI     R26, LOW(Appl_seq)
   \   0000009E   ....               LDI     R27, (Appl_seq) >> 8
   \   000000A0   01FD               MOVW    R31:R30, R27:R26
   \   000000A2   8904               LDD     R16, Z+20
   \   000000A4   3001               CPI     R16, 1
   \   000000A6   F481               BRNE    ??TIMER3_COMPA_interrupt_5
   1129                {
   1130                if(Appl_seq.cnt_cntr_cl!=0) 
   \   000000A8   8906               LDD     R16, Z+22
   \   000000AA   8917               LDD     R17, Z+23
   \   000000AC   2B01               OR      R16, R17
   \   000000AE   F061               BREQ    ??TIMER3_COMPA_interrupt_5
   1131                   {
   1132                   Appl_seq.cnt_cntr_cl--;
   \   000000B0   8906               LDD     R16, Z+22
   \   000000B2   8917               LDD     R17, Z+23
   \   000000B4   5001               SUBI    R16, 1
   \   000000B6   4010               SBCI    R17, 0
   \   000000B8   8B06               STD     Z+22, R16
   \   000000BA   8B17               STD     Z+23, R17
   1133                   if(Appl_seq.cnt_cntr_cl==0) Appl_seq.en_cntr_cl=TRUE;
   \   000000BC   8906               LDD     R16, Z+22
   \   000000BE   8917               LDD     R17, Z+23
   \   000000C0   2B01               OR      R16, R17
   \   000000C2   F411               BRNE    ??TIMER3_COMPA_interrupt_5
   \   000000C4   E001               LDI     R16, 1
   \   000000C6   8B05               STD     Z+21, R16
   1134                   } 
   1135                }
   1136                
   1137                
   1138                if(cnt_stm_tm1==0)goto next_tm00;  
   \                     ??TIMER3_COMPA_interrupt_5:
   \   000000C8   9100....           LDS     R16, cnt_stm_tm1
   \   000000CC   2300               TST     R16
   \   000000CE   F061               BREQ    ??TIMER3_COMPA_interrupt_6
   1139                   cnt_stm_tm1--;
   \   000000D0   ....               LDI     R30, LOW(cnt_stm_tm1)
   \   000000D2   ....               LDI     R31, (cnt_stm_tm1) >> 8
   \   000000D4   8100               LD      R16, Z
   \   000000D6   950A               DEC     R16
   \   000000D8   8300               ST      Z, R16
   1140                   if(cnt_stm_tm1==0) event_modem=EVM_TM1;
   \   000000DA   9100....           LDS     R16, cnt_stm_tm1
   \   000000DE   2300               TST     R16
   \   000000E0   F419               BRNE    ??TIMER3_COMPA_interrupt_6
   \   000000E2   E001               LDI     R16, 1
   \   000000E4   9300....           STS     event_modem, R16
   1141           next_tm00:
   1142             
   1143             
   1144             if(cnt_stm_tm2==0)goto next_tm001;  
   \                     ??TIMER3_COMPA_interrupt_6:
   \   000000E8   9100....           LDS     R16, cnt_stm_tm2
   \   000000EC   2300               TST     R16
   \   000000EE   F059               BREQ    ??TIMER3_COMPA_interrupt_7
   1145                   cnt_stm_tm2--;
   \   000000F0   ....               LDI     R30, LOW(cnt_stm_tm2)
   \   000000F2   ....               LDI     R31, (cnt_stm_tm2) >> 8
   \   000000F4   8100               LD      R16, Z
   \   000000F6   950A               DEC     R16
   \   000000F8   8300               ST      Z, R16
   1146                   if(cnt_stm_tm2==0) lock_it();
   \   000000FA   9100....           LDS     R16, cnt_stm_tm2
   \   000000FE   2300               TST     R16
   \   00000100   F411               BRNE    ??TIMER3_COMPA_interrupt_7
   \   00000102   ........           CALL    lock_it
   1147                   
   1148          
   1149             
   1150          next_tm001:   
   1151              
   1152              if(fl_rewrite.cnt_reset==0)goto next_tm01; 
   \                     ??TIMER3_COMPA_interrupt_7:
   \   00000106   ....               LDI     R30, LOW(fl_rewrite)
   \   00000108   ....               LDI     R31, (fl_rewrite) >> 8
   \   0000010A   8101               LDD     R16, Z+1
   \   0000010C   2300               TST     R16
   \   0000010E   F409               BRNE    $+2+2
   \   00000110   C041               RJMP    ??TIMER3_COMPA_interrupt_8
   1153              fl_rewrite.cnt_reset--;
   \   00000112   8101               LDD     R16, Z+1
   \   00000114   950A               DEC     R16
   \   00000116   8301               STD     Z+1, R16
   1154              if(fl_rewrite.cnt_reset==0)
   \   00000118   8101               LDD     R16, Z+1
   \   0000011A   2300               TST     R16
   \   0000011C   F5D9               BRNE    ??TIMER3_COMPA_interrupt_8
   1155                 {
   1156                  
   1157                   __disable_interrupt();
   \   0000011E   94F8               CLI
   1158                   
   1159                   crc_tii=func_crc_tii();
   \   00000120   ........           CALL    func_crc_tii
   \   00000124   ....               LDI     R30, LOW(crc_tii)
   \   00000126   ....               LDI     R31, (crc_tii) >> 8
   \   00000128   8300               ST      Z, R16
   \   0000012A   8311               STD     Z+1, R17
   1160          
   1161                  *(unsigned long int*)&buf_tx_232[0]=burst_ds_r();
   \   0000012C   ....               LDI     R24, LOW(buf_tx_232)
   \   0000012E   ....               LDI     R25, (buf_tx_232) >> 8
   \   00000130   ........           CALL    burst_ds_r
   \   00000134   01FC               MOVW    R31:R30, R25:R24
   \   00000136   8300               ST      Z, R16
   \   00000138   8311               STD     Z+1, R17
   \   0000013A   8322               STD     Z+2, R18
   \   0000013C   8333               STD     Z+3, R19
   1162                  *(unsigned long int*)&buf_tx_232[4]=cnt_outcom;
   \   0000013E   ....               LDI     R30, LOW(cnt_outcom)
   \   00000140   ....               LDI     R31, (cnt_outcom) >> 8
   \   00000142   8100               LD      R16, Z
   \   00000144   8111               LDD     R17, Z+1
   \   00000146   8122               LDD     R18, Z+2
   \   00000148   8133               LDD     R19, Z+3
   \   0000014A   01FC               MOVW    R31:R30, R25:R24
   \   0000014C   8304               STD     Z+4, R16
   \   0000014E   8315               STD     Z+5, R17
   \   00000150   8326               STD     Z+6, R18
   \   00000152   8337               STD     Z+7, R19
   1163                  *(unsigned long int*)&buf_tx_232[8]=cnt_incom;
   \   00000154   ....               LDI     R30, LOW(cnt_incom)
   \   00000156   ....               LDI     R31, (cnt_incom) >> 8
   \   00000158   8100               LD      R16, Z
   \   0000015A   8111               LDD     R17, Z+1
   \   0000015C   8122               LDD     R18, Z+2
   \   0000015E   8133               LDD     R19, Z+3
   \   00000160   01FC               MOVW    R31:R30, R25:R24
   \   00000162   8700               STD     Z+8, R16
   \   00000164   8711               STD     Z+9, R17
   \   00000166   8722               STD     Z+10, R18
   \   00000168   8733               STD     Z+11, R19
   1164                  *(unsigned int*)&buf_tx_232[L_TRAF-2]=crc_m1(&buf_tx_232[0],L_TRAF-2,0xffff);
   \   0000016A   EF4F               LDI     R20, 255
   \   0000016C   EF5F               LDI     R21, 255
   \   0000016E   E02C               LDI     R18, 12
   \   00000170   E030               LDI     R19, 0
   \   00000172   018C               MOVW    R17:R16, R25:R24
   \   00000174   ........           CALL    crc_m1
   \   00000178   01FC               MOVW    R31:R30, R25:R24
   \   0000017A   8704               STD     Z+12, R16
   \   0000017C   8715               STD     Z+13, R17
   1165                  WrArrayToFlesh(A_TRAF, &buf_tx_232[0],L_TRAF,0,0); 
   \   0000017E   E070               LDI     R23, 0
   \   00000180   E060               LDI     R22, 0
   \   00000182   E04E               LDI     R20, 14
   \   00000184   E050               LDI     R21, 0
   \   00000186   019C               MOVW    R19:R18, R25:R24
   \   00000188   EF0E               LDI     R16, 254
   \   0000018A   E714               LDI     R17, 116
   \   0000018C   ........           CALL    WrArrayToFlesh
   1166                  lock_it();   
   \   00000190   ........           CALL    lock_it
   1167                 }       
   1168          next_tm01: 
   1169            
   1170            
   1171                
   1172             ///ňŕéěĺđ ęîíňđîë˙ IP
   1173              if (Appl_seq.tm_vzat==0)goto next_tm0;
   \                     ??TIMER3_COMPA_interrupt_8:
   \   00000194   01FD               MOVW    R31:R30, R27:R26
   \   00000196   8900               LDD     R16, Z+16
   \   00000198   8911               LDD     R17, Z+17
   \   0000019A   2B01               OR      R16, R17
   \   0000019C   F061               BREQ    ??TIMER3_COMPA_interrupt_9
   1174              Appl_seq.tm_vzat--;
   \   0000019E   8900               LDD     R16, Z+16
   \   000001A0   8911               LDD     R17, Z+17
   \   000001A2   5001               SUBI    R16, 1
   \   000001A4   4010               SBCI    R17, 0
   \   000001A6   8B00               STD     Z+16, R16
   \   000001A8   8B11               STD     Z+17, R17
   1175              if (Appl_seq.tm_vzat==0)Appl_seq.event=EV_TM_OUT;
   \   000001AA   8900               LDD     R16, Z+16
   \   000001AC   8911               LDD     R17, Z+17
   \   000001AE   2B01               OR      R16, R17
   \   000001B0   F411               BRNE    ??TIMER3_COMPA_interrupt_9
   \   000001B2   E002               LDI     R16, 2
   \   000001B4   8707               STD     Z+15, R16
   1176          next_tm0:   
   1177              
   1178              
   1179              
   1180                  if(Appl_seq.cnt_waits==0)goto next_tm1;
   \                     ??TIMER3_COMPA_interrupt_9:
   \   000001B6   8501               LDD     R16, Z+9
   \   000001B8   8512               LDD     R17, Z+10
   \   000001BA   2B01               OR      R16, R17
   \   000001BC   F099               BREQ    ??TIMER3_COMPA_interrupt_10
   1181                  Appl_seq.cnt_waits--;
   \   000001BE   8501               LDD     R16, Z+9
   \   000001C0   8512               LDD     R17, Z+10
   \   000001C2   5001               SUBI    R16, 1
   \   000001C4   4010               SBCI    R17, 0
   \   000001C6   8701               STD     Z+9, R16
   \   000001C8   8712               STD     Z+10, R17
   1182                  if(Appl_seq.cnt_waits==0)
   \   000001CA   8501               LDD     R16, Z+9
   \   000001CC   8512               LDD     R17, Z+10
   \   000001CE   2B01               OR      R16, R17
   \   000001D0   F449               BRNE    ??TIMER3_COMPA_interrupt_10
   1183                         { 
   1184                            
   1185                             //   Appl_seq.cnt_try++;
   1186                                fl_appl_seq.kv_waits=0;
   1187                                fl_appl_seq.en_povtor=1; 
   \   000001D2   9100....           LDS     R16, fl_appl_seq
   \   000001D6   7F0D               ANDI    R16, 0xFD
   \   000001D8   6004               ORI     R16, 0x04
   \   000001DA   9300....           STS     fl_appl_seq, R16
   1188                                Appl_seq.l_data=0;
   \   000001DE   E000               LDI     R16, 0
   \   000001E0   8704               STD     Z+12, R16
   \   000001E2   8705               STD     Z+13, R16
   1189                                
   1190                                /*
   1191                                if(Appl_seq.cnt_try>=2) 
   1192                                 {
   1193                                 Appl_seq.cnt_cntr_cl=0;
   1194                                 Appl_seq.cntr_cl=TRUE;
   1195                                 Appl_seq.en_cntr_cl=TRUE;
   1196                                 Appl_seq.cnt_try=0;
   1197                                 fl_appl_seq.en_povtor=0;                      
   1198                                 }
   1199                                 */
   1200                                 
   1201                                                
   1202                         }    
   1203           next_tm1:   
   1204              
   1205              if(fl_ip.ip_tm_cntr_en==1)
   \                     ??TIMER3_COMPA_interrupt_10:
   \   000001E4   ....               LDI     R30, LOW(Control)
   \   000001E6   ....               LDI     R31, (Control) >> 8
   \   000001E8   ....               LDI     R26, LOW(fl_ip)
   \   000001EA   ....               LDI     R27, (fl_ip) >> 8
   \   000001EC   910C               LD      R16, X
   \   000001EE   FF01               SBRS    R16, 1
   \   000001F0   C028               RJMP    ??TIMER3_COMPA_interrupt_11
   1206                 {       
   1207                         
   1208                         if(Control.cnt_link==0) goto  next_tm2;
   \   000001F2   8104               LDD     R16, Z+4
   \   000001F4   8115               LDD     R17, Z+5
   \   000001F6   2B01               OR      R16, R17
   \   000001F8   F121               BREQ    ??TIMER3_COMPA_interrupt_11
   1209                         
   1210                         Control.cnt_link--;
   \   000001FA   8104               LDD     R16, Z+4
   \   000001FC   8115               LDD     R17, Z+5
   \   000001FE   5001               SUBI    R16, 1
   \   00000200   4010               SBCI    R17, 0
   \   00000202   8304               STD     Z+4, R16
   \   00000204   8315               STD     Z+5, R17
   1211                         if(Control.cnt_link==0)
   \   00000206   8104               LDD     R16, Z+4
   \   00000208   8115               LDD     R17, Z+5
   \   0000020A   2B01               OR      R16, R17
   \   0000020C   F4D1               BRNE    ??TIMER3_COMPA_interrupt_11
   1212                         { 
   1213                         
   1214                         fl_appl_seq1.enable=1;
   \   0000020E   ....               LDI     R26, LOW(fl_appl_seq1)
   \   00000210   ....               LDI     R27, (fl_appl_seq1) >> 8
   \   00000212   910C               LD      R16, X
   \   00000214   6004               ORI     R16, 0x04
   \   00000216   930C               ST      X, R16
   1215                         
   1216                         //Control.cnt_link=Control.vol_link;
   1217                         Control.link=TRUE; 
   \   00000218   E001               LDI     R16, 1
   \   0000021A   8302               STD     Z+2, R16
   1218                         if(Control.link_waits==TRUE)
   \   0000021C   8101               LDD     R16, Z+1
   \   0000021E   3001               CPI     R16, 1
   \   00000220   F471               BRNE    ??TIMER3_COMPA_interrupt_12
   1219                            {
   1220                           // if(Control.vol_try!=0)
   1221                            //   {
   1222                                Control.cnt_try++;
   \   00000222   8506               LDD     R16, Z+14
   \   00000224   9503               INC     R16
   \   00000226   8706               STD     Z+14, R16
   1223                                if(Control.cnt_try>=Control.vol_try)
   \   00000228   8506               LDD     R16, Z+14
   \   0000022A   8517               LDD     R17, Z+15
   \   0000022C   1701               CP      R16, R17
   \   0000022E   F038               BRCS    ??TIMER3_COMPA_interrupt_12
   1224                                 {   
   1225                                 Control.link=FALSE;   
   \   00000230   E000               LDI     R16, 0
   \   00000232   8302               STD     Z+2, R16
   1226                                 event_modem=EVM_MS_LMT;
   \   00000234   E007               LDI     R16, 7
   \   00000236   9300....           STS     event_modem, R16
   1227                                 Control.link_no=TRUE;//ďđčçíŕę ńâ˙çč íĺň.
   \   0000023A   E001               LDI     R16, 1
   \   0000023C   8300               ST      Z, R16
   1228                                 }
   1229                              // }
   1230                            }
   1231                                        
   1232                          Control.link_waits=FALSE;
   \                     ??TIMER3_COMPA_interrupt_12:
   \   0000023E   E000               LDI     R16, 0
   \   00000240   8301               STD     Z+1, R16
   1233                                       
   1234                         }    
   1235                 
   1236                 }
   1237                 
   1238           next_tm2:  
   1239             
   1240                 
   1241                 if(fl_ip.ip_tm_nat_en==1)   ///ňŕéěĺđ ęîíňđîë˙ NAT
   \                     ??TIMER3_COMPA_interrupt_11:
   \   00000242   ....               LDI     R26, LOW(fl_ip)
   \   00000244   ....               LDI     R27, (fl_ip) >> 8
   \   00000246   910C               LD      R16, X
   \   00000248   FF02               SBRS    R16, 2
   \   0000024A   C017               RJMP    ??TIMER3_COMPA_interrupt_13
   1242                 {       
   1243                         Control.cnt_nat--;
   \   0000024C   8106               LDD     R16, Z+6
   \   0000024E   8117               LDD     R17, Z+7
   \   00000250   5001               SUBI    R16, 1
   \   00000252   4010               SBCI    R17, 0
   \   00000254   8306               STD     Z+6, R16
   \   00000256   8317               STD     Z+7, R17
   1244                         if(Control.cnt_nat==0)
   \   00000258   8106               LDD     R16, Z+6
   \   0000025A   8117               LDD     R17, Z+7
   \   0000025C   2B01               OR      R16, R17
   \   0000025E   F469               BRNE    ??TIMER3_COMPA_interrupt_13
   1245                         { 
   1246                          if(simka==SIM_RES)Control.cnt_nat=Control.vol_nat_r;else Control.cnt_nat=Control.vol_nat;
   \   00000260   9100....           LDS     R16, simka
   \   00000264   3001               CPI     R16, 1
   \   00000266   F419               BRNE    ??TIMER3_COMPA_interrupt_14
   \   00000268   8900               LDD     R16, Z+16
   \   0000026A   8911               LDD     R17, Z+17
   \   0000026C   C002               RJMP    ??TIMER3_COMPA_interrupt_15
   \                     ??TIMER3_COMPA_interrupt_14:
   \   0000026E   8502               LDD     R16, Z+10
   \   00000270   8513               LDD     R17, Z+11
   \                     ??TIMER3_COMPA_interrupt_15:
   \   00000272   8306               STD     Z+6, R16
   \   00000274   8317               STD     Z+7, R17
   1247                          Control.nat=TRUE;
   \   00000276   E001               LDI     R16, 1
   \   00000278   8303               STD     Z+3, R16
   1248                         }    
   1249                 
   1250                 }
   1251            
   1252             //!!!!!!!!!!!!!dobavka
   1253                 if(cnt_no_link==0) goto next_tm3;
   \                     ??TIMER3_COMPA_interrupt_13:
   \   0000027A   ....               LDI     R30, LOW(cnt_no_link)
   \   0000027C   ....               LDI     R31, (cnt_no_link) >> 8
   \   0000027E   8100               LD      R16, Z
   \   00000280   8111               LDD     R17, Z+1
   \   00000282   8122               LDD     R18, Z+2
   \   00000284   8133               LDD     R19, Z+3
   \   00000286   2B01               OR      R16, R17
   \   00000288   2B02               OR      R16, R18
   \   0000028A   2B03               OR      R16, R19
   \   0000028C   F0B9               BREQ    ??TIMER3_COMPA_interrupt_16
   1254                   cnt_no_link--;
   \   0000028E   8100               LD      R16, Z
   \   00000290   8111               LDD     R17, Z+1
   \   00000292   8122               LDD     R18, Z+2
   \   00000294   8133               LDD     R19, Z+3
   \   00000296   5001               SUBI    R16, 1
   \   00000298   4010               SBCI    R17, 0
   \   0000029A   4020               SBCI    R18, 0
   \   0000029C   4030               SBCI    R19, 0
   \   0000029E   8300               ST      Z, R16
   \   000002A0   8311               STD     Z+1, R17
   \   000002A2   8322               STD     Z+2, R18
   \   000002A4   8333               STD     Z+3, R19
   1255                   if(cnt_no_link==0)Fl_ch_sim=1;
   \   000002A6   8100               LD      R16, Z
   \   000002A8   8111               LDD     R17, Z+1
   \   000002AA   8122               LDD     R18, Z+2
   \   000002AC   8133               LDD     R19, Z+3
   \   000002AE   2B01               OR      R16, R17
   \   000002B0   2B02               OR      R16, R18
   \   000002B2   2B03               OR      R16, R19
   \   000002B4   F419               BRNE    ??TIMER3_COMPA_interrupt_16
   \   000002B6   E001               LDI     R16, 1
   \   000002B8   9300....           STS     Fl_ch_sim, R16
   1256            next_tm3:     
   1257                 
   1258                  if(cnt_link_res==0) goto next_tm4;
   \                     ??TIMER3_COMPA_interrupt_16:
   \   000002BC   ....               LDI     R30, LOW(cnt_link_res)
   \   000002BE   ....               LDI     R31, (cnt_link_res) >> 8
   \   000002C0   8100               LD      R16, Z
   \   000002C2   8111               LDD     R17, Z+1
   \   000002C4   8122               LDD     R18, Z+2
   \   000002C6   8133               LDD     R19, Z+3
   \   000002C8   2B01               OR      R16, R17
   \   000002CA   2B02               OR      R16, R18
   \   000002CC   2B03               OR      R16, R19
   \   000002CE   F0B9               BREQ    ??TIMER3_COMPA_interrupt_17
   1259                  cnt_link_res--;
   \   000002D0   8100               LD      R16, Z
   \   000002D2   8111               LDD     R17, Z+1
   \   000002D4   8122               LDD     R18, Z+2
   \   000002D6   8133               LDD     R19, Z+3
   \   000002D8   5001               SUBI    R16, 1
   \   000002DA   4010               SBCI    R17, 0
   \   000002DC   4020               SBCI    R18, 0
   \   000002DE   4030               SBCI    R19, 0
   \   000002E0   8300               ST      Z, R16
   \   000002E2   8311               STD     Z+1, R17
   \   000002E4   8322               STD     Z+2, R18
   \   000002E6   8333               STD     Z+3, R19
   1260                  if(cnt_link_res==0)Fl_ch_sim=1;
   \   000002E8   8100               LD      R16, Z
   \   000002EA   8111               LDD     R17, Z+1
   \   000002EC   8122               LDD     R18, Z+2
   \   000002EE   8133               LDD     R19, Z+3
   \   000002F0   2B01               OR      R16, R17
   \   000002F2   2B02               OR      R16, R18
   \   000002F4   2B03               OR      R16, R19
   \   000002F6   F419               BRNE    ??TIMER3_COMPA_interrupt_17
   \   000002F8   E001               LDI     R16, 1
   \   000002FA   9300....           STS     Fl_ch_sim, R16
   1261              next_tm4:        
   1262                    
   1263           //EEEEEEEEEEEEEE dobavka
   1264           
   1265              if (Life.time_485_1==0)goto next_tm5;
   \                     ??TIMER3_COMPA_interrupt_17:
   \   000002FE   ....               LDI     R30, LOW(Life)
   \   00000300   ....               LDI     R31, (Life) >> 8
   \   00000302   8100               LD      R16, Z
   \   00000304   2300               TST     R16
   \   00000306   F041               BREQ    ??TIMER3_COMPA_interrupt_18
   1266                  Life.time_485_1--;
   \   00000308   8100               LD      R16, Z
   \   0000030A   950A               DEC     R16
   \   0000030C   8300               ST      Z, R16
   1267              if (Life.time_485_1==0)Life.start_485_1=0;    
   \   0000030E   8100               LD      R16, Z
   \   00000310   2300               TST     R16
   \   00000312   F411               BRNE    ??TIMER3_COMPA_interrupt_18
   \   00000314   E000               LDI     R16, 0
   \   00000316   8303               STD     Z+3, R16
   1268              next_tm5:
   1269                
   1270              if (Life.time_485_2==0)goto next_tm6;
   \                     ??TIMER3_COMPA_interrupt_18:
   \   00000318   8104               LDD     R16, Z+4
   \   0000031A   2300               TST     R16
   \   0000031C   F041               BREQ    ??TIMER3_COMPA_interrupt_19
   1271                  Life.time_485_2--;
   \   0000031E   8104               LDD     R16, Z+4
   \   00000320   950A               DEC     R16
   \   00000322   8304               STD     Z+4, R16
   1272              if (Life.time_485_2==0)Life.start_485_2=0;    
   \   00000324   8104               LDD     R16, Z+4
   \   00000326   2300               TST     R16
   \   00000328   F411               BRNE    ??TIMER3_COMPA_interrupt_19
   \   0000032A   E000               LDI     R16, 0
   \   0000032C   8307               STD     Z+7, R16
   1273                 
   1274              next_tm6:
   1275                
   1276              if (Life.time_232_2==0)goto next_tm7;
   \                     ??TIMER3_COMPA_interrupt_19:
   \   0000032E   8500               LDD     R16, Z+8
   \   00000330   2300               TST     R16
   \   00000332   F041               BREQ    ??TIMER3_COMPA_interrupt_20
   1277                  Life.time_232_2--;
   \   00000334   8500               LDD     R16, Z+8
   \   00000336   950A               DEC     R16
   \   00000338   8700               STD     Z+8, R16
   1278              if (Life.time_232_2==0)Life.start_232_2=0;
   \   0000033A   8500               LDD     R16, Z+8
   \   0000033C   2300               TST     R16
   \   0000033E   F411               BRNE    ??TIMER3_COMPA_interrupt_20
   \   00000340   E000               LDI     R16, 0
   \   00000342   8703               STD     Z+11, R16
   1279              next_tm7:;
   1280           ////////////////////////////////////////// 
   1281               
   1282              }
   \                     ??TIMER3_COMPA_interrupt_20:
   \   00000344   BE5B               OUT     0x3B, R5
   \   00000346   BE4F               OUT     0x3F, R4
   \   00000348   9109               LD      R16, Y+
   \   0000034A   9119               LD      R17, Y+
   \   0000034C   9129               LD      R18, Y+
   \   0000034E   9139               LD      R19, Y+
   \   00000350   9149               LD      R20, Y+
   \   00000352   9159               LD      R21, Y+
   \   00000354   9169               LD      R22, Y+
   \   00000356   9179               LD      R23, Y+
   \   00000358   9009               LD      R0, Y+
   \   0000035A   9019               LD      R1, Y+
   \   0000035C   9029               LD      R2, Y+
   \   0000035E   9039               LD      R3, Y+
   \   00000360   91E9               LD      R30, Y+
   \   00000362   91F9               LD      R31, Y+
   \   00000364   9189               LD      R24, Y+
   \   00000366   9199               LD      R25, Y+
   \   00000368   91A9               LD      R26, Y+
   \   0000036A   91B9               LD      R27, Y+
   \   0000036C   9049               LD      R4, Y+
   \   0000036E   9059               LD      R5, Y+
   \   00000370   9518               RETI
   1283          
   1284          
   1285          
   1286          #pragma vector=USART0_RX_vect
   1287                     

   \                                 In segment CODE, align 2, keep-with-next
   1288                     __interrupt  void USART0_RX_interrupt(void)
   \                     USART0_RX_interrupt:
   1289                           
   1290                           
   1291                          {
   \   00000000   939A               ST      -Y, R25
   \   00000002   938A               ST      -Y, R24
   \   00000004   93FA               ST      -Y, R31
   \   00000006   93EA               ST      -Y, R30
   \   00000008   923A               ST      -Y, R3
   \   0000000A   922A               ST      -Y, R2
   \   0000000C   921A               ST      -Y, R1
   \   0000000E   920A               ST      -Y, R0
   \   00000010   937A               ST      -Y, R23
   \   00000012   936A               ST      -Y, R22
   \   00000014   935A               ST      -Y, R21
   \   00000016   934A               ST      -Y, R20
   \   00000018   933A               ST      -Y, R19
   \   0000001A   932A               ST      -Y, R18
   \   0000001C   931A               ST      -Y, R17
   \   0000001E   930A               ST      -Y, R16
   \   00000020   B78F               IN      R24, 0x3F
   \   00000022   B79B               IN      R25, 0x3B
   1292                          unsigned char data;                
   1293                          data=UDR0;
   \   00000024   910000C6           LDS     R16, 198
   1294                          if((Regim==MODEM_ONLY)||(Regim==MODEM_ONLY_R)){UDR2=data;return;} //dobavka             
   \   00000028   9110....           LDS     R17, Regim
   \   0000002C   3012               CPI     R17, 2
   \   0000002E   F021               BREQ    ??USART0_RX_interrupt_0
   \   00000030   9110....           LDS     R17, Regim
   \   00000034   3013               CPI     R17, 3
   \   00000036   F419               BRNE    ??USART0_RX_interrupt_1
   \                     ??USART0_RX_interrupt_0:
   \   00000038   930000D6           STS     214, R16
   \   0000003C   C043               RJMP    ??USART0_RX_interrupt_2
   1295                          if(Regim==RG_DEBAG)UDR1=data; 
   \                     ??USART0_RX_interrupt_1:
   \   0000003E   9110....           LDS     R17, Regim
   \   00000042   3011               CPI     R17, 1
   \   00000044   F411               BRNE    ??USART0_RX_interrupt_3
   \   00000046   930000CE           STS     206, R16
   1296                        
   1297                          if(command_AT==TRUE)
   \                     ??USART0_RX_interrupt_3:
   \   0000004A   9110....           LDS     R17, command_AT
   \   0000004E   3011               CPI     R17, 1
   \   00000050   F519               BRNE    ??USART0_RX_interrupt_4
   1298                              {
   1299                              if(fl_at_com.rx_en==0)return;  //dobavka 08.11.2007
   \   00000052   ....               LDI     R30, LOW(fl_at_com)
   \   00000054   ....               LDI     R31, (fl_at_com) >> 8
   \   00000056   8110               LD      R17, Z
   \   00000058   FF14               SBRS    R17, 4
   \   0000005A   C034               RJMP    ??USART0_RX_interrupt_2
   1300                              
   1301                              S2_GR;
   \   0000005C   9840               CBI     0x08, 0x00
   \   0000005E   9A41               SBI     0x08, 0x01
   1302                              At_com.cnt_rx_out=At_com.vol_rx_out;
   \   00000060   ....               LDI     R30, LOW((At_com + 64))
   \   00000062   ....               LDI     R31, HIGH((At_com + 64))
   \   00000064   8120               LD      R18, Z
   \   00000066   8131               LDD     R19, Z+1
   \   00000068   ....               LDI     R30, LOW((At_com + 62))
   \   0000006A   ....               LDI     R31, HIGH((At_com + 62))
   \   0000006C   8320               ST      Z, R18
   \   0000006E   8331               STD     Z+1, R19
   1303                              At_com.cnt_tm_out=0;
   \   00000070   E020               LDI     R18, 0
   \   00000072   E030               LDI     R19, 0
   \   00000074   ....               LDI     R30, LOW(At_com)
   \   00000076   ....               LDI     R31, (At_com) >> 8
   \   00000078   AF22               STD     Z+58, R18
   \   0000007A   AF23               STD     Z+59, R18
   1304                              if(At_com.cnt_rx < LN_BUF_AT)
   \   0000007C   9120....           LDS     R18, (At_com + 41)
   \   00000080   3228               CPI     R18, 40
   \   00000082   F500               BRCC    ??USART0_RX_interrupt_2
   1305                                    {
   1306                                     At_com.buf[At_com.cnt_rx]=data;
   \   00000084   01F9               MOVW    R31:R30, R19:R18
   \   00000086   ....               SUBI    R30, LOW((-(At_com) & 0xFFFF))
   \   00000088   ....               SBCI    R31, (-(At_com) & 0xFFFF) >> 8
   \   0000008A   8300               ST      Z, R16
   1307                                     At_com.cnt_rx++;
   \   0000008C   ....               LDI     R30, LOW(At_com)
   \   0000008E   ....               LDI     R31, (At_com) >> 8
   \   00000090   A501               LDD     R16, Z+41
   \   00000092   9503               INC     R16
   \   00000094   A701               STD     Z+41, R16
   \   00000096   C016               RJMP    ??USART0_RX_interrupt_2
   1308                                     }
   1309                              return;
   1310                              }
   1311                         
   1312                            cnt_incom++;
   \                     ??USART0_RX_interrupt_4:
   \   00000098   ....               LDI     R30, LOW(cnt_incom)
   \   0000009A   ....               LDI     R31, (cnt_incom) >> 8
   \   0000009C   8140               LD      R20, Z
   \   0000009E   8151               LDD     R21, Z+1
   \   000000A0   8162               LDD     R22, Z+2
   \   000000A2   8173               LDD     R23, Z+3
   \   000000A4   5F4F               SUBI    R20, 255
   \   000000A6   4F5F               SBCI    R21, 255
   \   000000A8   4F6F               SBCI    R22, 255
   \   000000AA   4F7F               SBCI    R23, 255
   \   000000AC   8340               ST      Z, R20
   \   000000AE   8351               STD     Z+1, R21
   \   000000B0   8362               STD     Z+2, R22
   \   000000B2   8373               STD     Z+3, R23
   1313                            if(fl_rx_ppp.switcher==0)recive_buf1(data);else recive_buf2(data);
   \   000000B4   ....               LDI     R30, LOW(fl_rx_ppp)
   \   000000B6   ....               LDI     R31, (fl_rx_ppp) >> 8
   \   000000B8   8110               LD      R17, Z
   \   000000BA   FD12               SBRC    R17, 2
   \   000000BC   C002               RJMP    ??USART0_RX_interrupt_5
   \   000000BE   ....               RCALL   recive_buf1
   \   000000C0   C001               RJMP    ??USART0_RX_interrupt_2
   \                     ??USART0_RX_interrupt_5:
   \   000000C2   ....               RCALL   recive_buf2
   \                     ??USART0_RX_interrupt_2:
   \   000000C4   BF9B               OUT     0x3B, R25
   \   000000C6   BF8F               OUT     0x3F, R24
   \   000000C8   9109               LD      R16, Y+
   \   000000CA   9119               LD      R17, Y+
   \   000000CC   9129               LD      R18, Y+
   \   000000CE   9139               LD      R19, Y+
   \   000000D0   9149               LD      R20, Y+
   \   000000D2   9159               LD      R21, Y+
   \   000000D4   9169               LD      R22, Y+
   \   000000D6   9179               LD      R23, Y+
   \   000000D8   9009               LD      R0, Y+
   \   000000DA   9019               LD      R1, Y+
   \   000000DC   9029               LD      R2, Y+
   \   000000DE   9039               LD      R3, Y+
   \   000000E0   91E9               LD      R30, Y+
   \   000000E2   91F9               LD      R31, Y+
   \   000000E4   9189               LD      R24, Y+
   \   000000E6   9199               LD      R25, Y+
   \   000000E8   9518               RETI
   1314            
   1315                           }
   1316           /////////////////////////////////////////////////////////////////////////////////////////////////////  
   1317              
   1318           //////////////////////////////////////////////////////////////////////////////////////////////////////////
   1319          
   1320          #pragma vector=USART0_TX_vect

   \                                 In segment CODE, align 2, keep-with-next
   1321               __interrupt void USART0_TX_interrupt(void) 
   \                     USART0_TX_interrupt:
   1322          
   1323          { 
   \   00000000   939A               ST      -Y, R25
   \   00000002   938A               ST      -Y, R24
   \   00000004   93FA               ST      -Y, R31
   \   00000006   93EA               ST      -Y, R30
   \   00000008   923A               ST      -Y, R3
   \   0000000A   922A               ST      -Y, R2
   \   0000000C   921A               ST      -Y, R1
   \   0000000E   920A               ST      -Y, R0
   \   00000010   937A               ST      -Y, R23
   \   00000012   936A               ST      -Y, R22
   \   00000014   935A               ST      -Y, R21
   \   00000016   934A               ST      -Y, R20
   \   00000018   933A               ST      -Y, R19
   \   0000001A   932A               ST      -Y, R18
   \   0000001C   931A               ST      -Y, R17
   \   0000001E   930A               ST      -Y, R16
   \   00000020   B78F               IN      R24, 0x3F
   \   00000022   B79B               IN      R25, 0x3B
   1324            
   1325            if(command_AT==TRUE)sending_at_pac(); 
   \   00000024   9100....           LDS     R16, command_AT
   \   00000028   3001               CPI     R16, 1
   \   0000002A   F419               BRNE    ??USART0_TX_interrupt_0
   \   0000002C   ........           CALL    sending_at_pac
   \   00000030   C018               RJMP    ??USART0_TX_interrupt_1
   1326              
   1327            else 
   1328                  {
   1329                  
   1330                  if(fl_cts_232_ignor==TRUE){sending_ppp_pac();return;}
   \                     ??USART0_TX_interrupt_0:
   \   00000032   9100....           LDS     R16, fl_cts_232_ignor
   \   00000036   3001               CPI     R16, 1
   \   00000038   F411               BRNE    ??USART0_TX_interrupt_2
   \                     ??USART0_TX_interrupt_3:
   \   0000003A   ....               RCALL   sending_ppp_pac
   \   0000003C   C012               RJMP    ??USART0_TX_interrupt_1
   1331                  
   1332                  cnt_outcom++;
   \                     ??USART0_TX_interrupt_2:
   \   0000003E   ....               LDI     R30, LOW(cnt_outcom)
   \   00000040   ....               LDI     R31, (cnt_outcom) >> 8
   \   00000042   8100               LD      R16, Z
   \   00000044   8111               LDD     R17, Z+1
   \   00000046   8122               LDD     R18, Z+2
   \   00000048   8133               LDD     R19, Z+3
   \   0000004A   5F0F               SUBI    R16, 255
   \   0000004C   4F1F               SBCI    R17, 255
   \   0000004E   4F2F               SBCI    R18, 255
   \   00000050   4F3F               SBCI    R19, 255
   \   00000052   8300               ST      Z, R16
   \   00000054   8311               STD     Z+1, R17
   \   00000056   8322               STD     Z+2, R18
   \   00000058   8333               STD     Z+3, R19
   1333                  
   1334                  if(check_cts()==1) return;
   \   0000005A   ........           CALL    check_cts
   \   0000005E   3001               CPI     R16, 1
   \   00000060   F761               BRNE    ??USART0_TX_interrupt_3
   \                     ??USART0_TX_interrupt_1:
   \   00000062   BF9B               OUT     0x3B, R25
   \   00000064   BF8F               OUT     0x3F, R24
   \   00000066   9109               LD      R16, Y+
   \   00000068   9119               LD      R17, Y+
   \   0000006A   9129               LD      R18, Y+
   \   0000006C   9139               LD      R19, Y+
   \   0000006E   9149               LD      R20, Y+
   \   00000070   9159               LD      R21, Y+
   \   00000072   9169               LD      R22, Y+
   \   00000074   9179               LD      R23, Y+
   \   00000076   9009               LD      R0, Y+
   \   00000078   9019               LD      R1, Y+
   \   0000007A   9029               LD      R2, Y+
   \   0000007C   9039               LD      R3, Y+
   \   0000007E   91E9               LD      R30, Y+
   \   00000080   91F9               LD      R31, Y+
   \   00000082   9189               LD      R24, Y+
   \   00000084   9199               LD      R25, Y+
   \   00000086   9518               RETI
   1335                  sending_ppp_pac();
   1336                  } 
   1337            }
   1338          
   1339          /////////////////////////////////////////////////////////////////////////////////////////////////////
   1340          /*
   1341          #pragma vector=USART0_UDRE_vect
   1342                     
   1343                     __interrupt  void USART0_UDRE_interrupt(void)
   1344                     {
   1345                       sending_ppp_proverka();
   1346                     }
   1347          
   1348          
   1349          */
   1350          /////////////////////////////////////////////////////////////////////////////////////////////////////
   1351          #pragma vector=USART1_RX_vect
   1352                     

   \                                 In segment CODE, align 2, keep-with-next
   1353                     __interrupt  void USART1_RX_interrupt(void)
   \                     USART1_RX_interrupt:
   1354                           
   1355                           
   1356                          {
   \   00000000   93BA               ST      -Y, R27
   \   00000002   93AA               ST      -Y, R26
   \   00000004   93FA               ST      -Y, R31
   \   00000006   93EA               ST      -Y, R30
   \   00000008   934A               ST      -Y, R20
   \   0000000A   933A               ST      -Y, R19
   \   0000000C   932A               ST      -Y, R18
   \   0000000E   931A               ST      -Y, R17
   \   00000010   930A               ST      -Y, R16
   \   00000012   B74F               IN      R20, 0x3F
   1357                          unsigned char data;
   1358                          
   1359                          data=UDR1;
   \   00000014   912000CE           LDS     R18, 206
   1360                          S4_GR;
   \   00000018   9842               CBI     0x08, 0x02
   \   0000001A   9A43               SBI     0x08, 0x03
   1361                          Rs485_2.cnt_tm_rx_out=Rs485_2.vol_tm_rx_out;
   \   0000001C   ....               LDI     R30, LOW(Rs485_1)
   \   0000001E   ....               LDI     R31, (Rs485_1) >> 8
   \   00000020   8D04               LDD     R16, Z+28
   \   00000022   8D15               LDD     R17, Z+29
   \   00000024   8F02               STD     Z+26, R16
   \   00000026   8F13               STD     Z+27, R17
   1362                          Rs485_2.cnt_tm_out=0;
   \   00000028   E000               LDI     R16, 0
   \   0000002A   8F06               STD     Z+30, R16
   \   0000002C   8F07               STD     Z+31, R16
   1363                          if(Rs485_2.cnt_bt_rx_tx < MAX_BUF_RS485_2)
   \   0000002E   8902               LDD     R16, Z+18
   \   00000030   8913               LDD     R17, Z+19
   \   00000032   3000               CPI     R16, 0
   \   00000034   E034               LDI     R19, 4
   \   00000036   0713               CPC     R17, R19
   \   00000038   F458               BRCC    ??USART1_RX_interrupt_0
   1364                                 {
   1365                                  Rs485_2_buf_rx_tx[Rs485_2.cnt_bt_rx_tx]=data;
   \   0000003A   01D8               MOVW    R27:R26, R17:R16
   \   0000003C   ....               SUBI    R26, LOW((-(Rs485_2_buf_rx_tx) & 0xFFFF))
   \   0000003E   ....               SBCI    R27, (-(Rs485_2_buf_rx_tx) & 0xFFFF) >> 8
   \   00000040   932C               ST      X, R18
   1366                                  Rs485_2.cnt_bt_rx_tx++;
   \   00000042   8902               LDD     R16, Z+18
   \   00000044   8913               LDD     R17, Z+19
   \   00000046   5F0F               SUBI    R16, 255
   \   00000048   4F1F               SBCI    R17, 255
   \   0000004A   8B02               STD     Z+18, R16
   \   0000004C   8B13               STD     Z+19, R17
   \   0000004E   C003               RJMP    ??USART1_RX_interrupt_1
   1367                                  }
   1368                                  else fl_485_2.over=1;
   \                     ??USART1_RX_interrupt_0:
   \   00000050   AD01               LDD     R16, Z+57
   \   00000052   6100               ORI     R16, 0x10
   \   00000054   AF01               STD     Z+57, R16
   1369                          }
   \                     ??USART1_RX_interrupt_1:
   \   00000056   BF4F               OUT     0x3F, R20
   \   00000058   9109               LD      R16, Y+
   \   0000005A   9119               LD      R17, Y+
   \   0000005C   9129               LD      R18, Y+
   \   0000005E   9139               LD      R19, Y+
   \   00000060   9149               LD      R20, Y+
   \   00000062   91E9               LD      R30, Y+
   \   00000064   91F9               LD      R31, Y+
   \   00000066   91A9               LD      R26, Y+
   \   00000068   91B9               LD      R27, Y+
   \   0000006A   9518               RETI
   1370           /////////////////////////////////////////////////////////////////////////////////////////////////////
   1371           
   1372          
   1373          
   1374          
   1375          /////////////////////////////////////////////////////////////////////////////////////////////////////
   1376          
   1377          #pragma vector=USART1_UDRE_vect
   1378                     

   \                                 In segment CODE, align 2, keep-with-next
   1379                     __interrupt  void USART1_UDRE_interrupt(void)
   \                     USART1_UDRE_interrupt:
   1380          
   1381          {
   \   00000000   93BA               ST      -Y, R27
   \   00000002   93AA               ST      -Y, R26
   \   00000004   93FA               ST      -Y, R31
   \   00000006   93EA               ST      -Y, R30
   \   00000008   932A               ST      -Y, R18
   \   0000000A   931A               ST      -Y, R17
   \   0000000C   930A               ST      -Y, R16
   \   0000000E   B72F               IN      R18, 0x3F
   1382          
   1383           if(Rs485_2.cnt_bt_rx_tx==0) goto end_tx1;
   \   00000010   ....               LDI     R30, LOW(Rs485_1)
   \   00000012   ....               LDI     R31, (Rs485_1) >> 8
   \   00000014   8902               LDD     R16, Z+18
   \   00000016   8913               LDD     R17, Z+19
   \   00000018   2B01               OR      R16, R17
   \   0000001A   F519               BRNE    ??USART1_UDRE_interrupt_0
   1384                                                                 
   1385                          UDR1=*Rs485_2.p_data485++;
   1386                          Rs485_2.cnt_bt_rx_tx--; 
   1387                          return;
   1388          end_tx1:
   1389                         UCSR1B=UCSR1B & ~UDRIE;
   \   0000001C   910000C9           LDS     R16, 201
   \   00000020   7D0F               ANDI    R16, 0xDF
   \   00000022   930000C9           STS     201, R16
   1390                         Rs485_2.cnt_bt_rx_tx=0;
   \   00000026   E000               LDI     R16, 0
   \   00000028   8B02               STD     Z+18, R16
   \   0000002A   8B03               STD     Z+19, R16
   1391                         Rs485_2.cnt_tm_tx_out=Rs485_2.vol_tm_tx_out;
   \   0000002C   8D00               LDD     R16, Z+24
   \   0000002E   8D11               LDD     R17, Z+25
   \   00000030   8B04               STD     Z+20, R16
   \   00000032   8B15               STD     Z+21, R17
   1392                         if(Rs485_2.cnt_tm_tx_out==0)
   \   00000034   2B01               OR      R16, R17
   \   00000036   F461               BRNE    ??USART1_UDRE_interrupt_1
   1393                         {
   1394                          S4_OFF;
   \   00000038   9842               CBI     0x08, 0x02
   \   0000003A   9843               CBI     0x08, 0x03
   1395                          Rs485_2.cnt_tm_out=Rs485_2.vol_tm_out;
   \   0000003C   A100               LDD     R16, Z+32
   \   0000003E   A111               LDD     R17, Z+33
   \   00000040   8F06               STD     Z+30, R16
   \   00000042   8F17               STD     Z+31, R17
   1396                          CLR_RTS3;  // togle to receiv mode  
   \   00000044   985C               CBI     0x0B, 0x04
   1397                          UCSR1B =UCSR1B | RXEN | RXCIE; // togle to receiv mode ;
   \   00000046   910000C9           LDS     R16, 201
   \   0000004A   6900               ORI     R16, 0x90
   \   0000004C   930000C9           STS     201, R16
   \                     ??USART1_UDRE_interrupt_1:
   \   00000050   BF2F               OUT     0x3F, R18
   \   00000052   9109               LD      R16, Y+
   \   00000054   9119               LD      R17, Y+
   \   00000056   9129               LD      R18, Y+
   \   00000058   91E9               LD      R30, Y+
   \   0000005A   91F9               LD      R31, Y+
   \   0000005C   91A9               LD      R26, Y+
   \   0000005E   91B9               LD      R27, Y+
   \   00000060   9518               RETI
   1398                         }
   \                     ??USART1_UDRE_interrupt_0:
   \   00000062   A1A2               LDD     R26, Z+34
   \   00000064   A1B3               LDD     R27, Z+35
   \   00000066   910C               LD      R16, X
   \   00000068   930000CE           STS     206, R16
   \   0000006C   A102               LDD     R16, Z+34
   \   0000006E   A113               LDD     R17, Z+35
   \   00000070   5F0F               SUBI    R16, 255
   \   00000072   4F1F               SBCI    R17, 255
   \   00000074   A302               STD     Z+34, R16
   \   00000076   A313               STD     Z+35, R17
   \   00000078   8902               LDD     R16, Z+18
   \   0000007A   8913               LDD     R17, Z+19
   \   0000007C   5001               SUBI    R16, 1
   \   0000007E   4010               SBCI    R17, 0
   \   00000080   8B02               STD     Z+18, R16
   \   00000082   8B13               STD     Z+19, R17
   \   00000084   CFE5               RJMP    ??USART1_UDRE_interrupt_1
   1399                        
   1400          
   1401          }
   1402          ///////////////////////////////////////////////////////////////////////////////////////////////////////////////////
   1403          
   1404          
   1405          
   1406          
   1407          
   1408          
   1409          /////////////////////////////////////////////////////////////////////////////////////////////////////
   1410          #pragma vector=USART2_RX_vect
   1411                     

   \                                 In segment CODE, align 2, keep-with-next
   1412                     __interrupt  void USART2_RX_interrupt(void)
   \                     USART2_RX_interrupt:
   1413                           
   1414                           
   1415                          {
   \   00000000   93BA               ST      -Y, R27
   \   00000002   93AA               ST      -Y, R26
   \   00000004   93FA               ST      -Y, R31
   \   00000006   93EA               ST      -Y, R30
   \   00000008   934A               ST      -Y, R20
   \   0000000A   933A               ST      -Y, R19
   \   0000000C   932A               ST      -Y, R18
   \   0000000E   931A               ST      -Y, R17
   \   00000010   930A               ST      -Y, R16
   \   00000012   B74F               IN      R20, 0x3F
   1416                          unsigned char data;                
   1417                          data=UDR2;
   \   00000014   912000D6           LDS     R18, 214
   1418                            
   1419                          
   1420                           if (fl_at_mom_232==1)
   \   00000018   9100....           LDS     R16, fl_at_mom_232
   \   0000001C   3001               CPI     R16, 1
   \   0000001E   F4D1               BRNE    ??USART2_RX_interrupt_0
   1421                          {
   1422                            if(vol_tx_ppp>=VOL_TX_PPP)vol_tx_ppp=0;
   \   00000020   ....               LDI     R30, LOW(vol_tx_ppp)
   \   00000022   ....               LDI     R31, (vol_tx_ppp) >> 8
   \   00000024   8100               LD      R16, Z
   \   00000026   8111               LDD     R17, Z+1
   \   00000028   340C               CPI     R16, 76
   \   0000002A   E034               LDI     R19, 4
   \   0000002C   0713               CPC     R17, R19
   \   0000002E   F018               BRCS    ??USART2_RX_interrupt_1
   \   00000030   E000               LDI     R16, 0
   \   00000032   8300               ST      Z, R16
   \   00000034   8301               STD     Z+1, R16
   1423                            buf_tx_232[vol_tx_ppp]=data; 
   \                     ??USART2_RX_interrupt_1:
   \   00000036   8100               LD      R16, Z
   \   00000038   8111               LDD     R17, Z+1
   \   0000003A   01F8               MOVW    R31:R30, R17:R16
   \   0000003C   ....               SUBI    R30, LOW((-(buf_tx_232) & 0xFFFF))
   \   0000003E   ....               SBCI    R31, (-(buf_tx_232) & 0xFFFF) >> 8
   \   00000040   8320               ST      Z, R18
   1424                            vol_tx_ppp++; 
   \   00000042   ....               LDI     R30, LOW(vol_tx_ppp)
   \   00000044   ....               LDI     R31, (vol_tx_ppp) >> 8
   \   00000046   8100               LD      R16, Z
   \   00000048   8111               LDD     R17, Z+1
   \   0000004A   5F0F               SUBI    R16, 255
   \   0000004C   4F1F               SBCI    R17, 255
   \   0000004E   8300               ST      Z, R16
   \   00000050   8311               STD     Z+1, R17
   1425                            return; 
   \   00000052   C02A               RJMP    ??USART2_RX_interrupt_2
   1426                           } 
   1427                          
   1428                          
   1429                          if((Regim==MODEM_ONLY)||(Regim==MODEM_ONLY_R)){UDR0=data;return;}//dobavka  
   \                     ??USART2_RX_interrupt_0:
   \   00000054   9100....           LDS     R16, Regim
   \   00000058   3002               CPI     R16, 2
   \   0000005A   F021               BREQ    ??USART2_RX_interrupt_3
   \   0000005C   9100....           LDS     R16, Regim
   \   00000060   3003               CPI     R16, 3
   \   00000062   F419               BRNE    ??USART2_RX_interrupt_4
   \                     ??USART2_RX_interrupt_3:
   \   00000064   932000C6           STS     198, R18
   \   00000068   C01F               RJMP    ??USART2_RX_interrupt_2
   1430                          S5_GR;
   \                     ??USART2_RX_interrupt_4:
   \   0000006A   9846               CBI     0x08, 0x06
   \   0000006C   9A47               SBI     0x08, 0x07
   1431                          Rs232_2.cnt_tm_rx_out=Rs232_2.vol_tm_rx_out;
   \   0000006E   ....               LDI     R30, LOW(Rs485_1)
   \   00000070   ....               LDI     R31, (Rs485_1) >> 8
   \   00000072   A506               LDD     R16, Z+46
   \   00000074   A517               LDD     R17, Z+47
   \   00000076   A704               STD     Z+44, R16
   \   00000078   A715               STD     Z+45, R17
   1432                          Rs232_2.cnt_tm_out=0;
   \   0000007A   E000               LDI     R16, 0
   \   0000007C   AB00               STD     Z+48, R16
   \   0000007E   AB01               STD     Z+49, R16
   1433                          if(Rs232_2.cnt_bt_rx_tx < MAX_BUF_RS232_2)
   \   00000080   A104               LDD     R16, Z+36
   \   00000082   A115               LDD     R17, Z+37
   \   00000084   3000               CPI     R16, 0
   \   00000086   E034               LDI     R19, 4
   \   00000088   0713               CPC     R17, R19
   \   0000008A   F458               BRCC    ??USART2_RX_interrupt_5
   1434                                 {
   1435                                  Rs232_2_buf_rx_tx[Rs232_2.cnt_bt_rx_tx]=data;
   \   0000008C   01D8               MOVW    R27:R26, R17:R16
   \   0000008E   ....               SUBI    R26, LOW((-(Rs232_2_buf_rx_tx) & 0xFFFF))
   \   00000090   ....               SBCI    R27, (-(Rs232_2_buf_rx_tx) & 0xFFFF) >> 8
   \   00000092   932C               ST      X, R18
   1436                                  Rs232_2.cnt_bt_rx_tx++;
   \   00000094   A104               LDD     R16, Z+36
   \   00000096   A115               LDD     R17, Z+37
   \   00000098   5F0F               SUBI    R16, 255
   \   0000009A   4F1F               SBCI    R17, 255
   \   0000009C   A304               STD     Z+36, R16
   \   0000009E   A315               STD     Z+37, R17
   \   000000A0   C003               RJMP    ??USART2_RX_interrupt_2
   1437                                  }
   1438                                  else fl_232_2.over=1;
   \                     ??USART2_RX_interrupt_5:
   \   000000A2   AD02               LDD     R16, Z+58
   \   000000A4   6100               ORI     R16, 0x10
   \   000000A6   AF02               STD     Z+58, R16
   \                     ??USART2_RX_interrupt_2:
   \   000000A8   BF4F               OUT     0x3F, R20
   \   000000AA   9109               LD      R16, Y+
   \   000000AC   9119               LD      R17, Y+
   \   000000AE   9129               LD      R18, Y+
   \   000000B0   9139               LD      R19, Y+
   \   000000B2   9149               LD      R20, Y+
   \   000000B4   91E9               LD      R30, Y+
   \   000000B6   91F9               LD      R31, Y+
   \   000000B8   91A9               LD      R26, Y+
   \   000000BA   91B9               LD      R27, Y+
   \   000000BC   9518               RETI
   1439                          }
   1440           /////////////////////////////////////////////////////////////////////////////////////////////////////
   1441           
   1442          
   1443          
   1444          
   1445          /////////////////////////////////////////////////////////////////////////////////////////////////////
   1446          
   1447          #pragma vector=USART2_UDRE_vect
   1448                     

   \                                 In segment CODE, align 2, keep-with-next
   1449                     __interrupt  void USART2_UDRE_interrupt(void)
   \                     USART2_UDRE_interrupt:
   1450          
   1451          {
   \   00000000   93BA               ST      -Y, R27
   \   00000002   93AA               ST      -Y, R26
   \   00000004   93FA               ST      -Y, R31
   \   00000006   93EA               ST      -Y, R30
   \   00000008   932A               ST      -Y, R18
   \   0000000A   931A               ST      -Y, R17
   \   0000000C   930A               ST      -Y, R16
   \   0000000E   B72F               IN      R18, 0x3F
   1452          
   1453           if(Rs232_2.cnt_bt_rx_tx==0) goto end_tx;
   \   00000010   ....               LDI     R30, LOW(Rs485_1)
   \   00000012   ....               LDI     R31, (Rs485_1) >> 8
   \   00000014   A104               LDD     R16, Z+36
   \   00000016   A115               LDD     R17, Z+37
   \   00000018   2B01               OR      R16, R17
   \   0000001A   F539               BRNE    ??USART2_UDRE_interrupt_0
   1454                                                                 
   1455                          UDR2=*Rs232_2.p_data485++;
   1456                          Rs232_2.cnt_bt_rx_tx--; 
   1457                          return;
   1458          end_tx:
   1459                         UCSR2B=UCSR2B & ~UDRIE;
   \   0000001C   910000D1           LDS     R16, 209
   \   00000020   7D0F               ANDI    R16, 0xDF
   \   00000022   930000D1           STS     209, R16
   1460                         Rs232_2.cnt_bt_rx_tx=0;
   \   00000026   E000               LDI     R16, 0
   \   00000028   A304               STD     Z+36, R16
   \   0000002A   A305               STD     Z+37, R16
   1461                         Rs232_2.cnt_tm_tx_out=Rs232_2.vol_tm_tx_out;
   \   0000002C   A502               LDD     R16, Z+42
   \   0000002E   A513               LDD     R17, Z+43
   \   00000030   A306               STD     Z+38, R16
   \   00000032   A317               STD     Z+39, R17
   1462                         if(Rs232_2.cnt_tm_tx_out==0)
   \   00000034   2B01               OR      R16, R17
   \   00000036   F481               BRNE    ??USART2_UDRE_interrupt_1
   1463                         {
   1464                          S5_OFF;
   \   00000038   9846               CBI     0x08, 0x06
   \   0000003A   9847               CBI     0x08, 0x07
   1465                          Rs232_2.cnt_tm_out=Rs232_2.vol_tm_out;
   \   0000003C   A902               LDD     R16, Z+50
   \   0000003E   A913               LDD     R17, Z+51
   \   00000040   AB00               STD     Z+48, R16
   \   00000042   AB11               STD     Z+49, R17
   1466                          CLR_RTS2;  // togle to receiv mode  
   \   00000044   91000102           LDS     R16, 258
   \   00000048   6004               ORI     R16, 0x04
   \   0000004A   93000102           STS     258, R16
   1467                          UCSR2B =UCSR2B | RXEN | RXCIE; // togle to receiv mode ;
   \   0000004E   910000D1           LDS     R16, 209
   \   00000052   6900               ORI     R16, 0x90
   \   00000054   930000D1           STS     209, R16
   \                     ??USART2_UDRE_interrupt_1:
   \   00000058   BF2F               OUT     0x3F, R18
   \   0000005A   9109               LD      R16, Y+
   \   0000005C   9119               LD      R17, Y+
   \   0000005E   9129               LD      R18, Y+
   \   00000060   91E9               LD      R30, Y+
   \   00000062   91F9               LD      R31, Y+
   \   00000064   91A9               LD      R26, Y+
   \   00000066   91B9               LD      R27, Y+
   \   00000068   9518               RETI
   1468                         }
   \                     ??USART2_UDRE_interrupt_0:
   \   0000006A   A9A4               LDD     R26, Z+52
   \   0000006C   A9B5               LDD     R27, Z+53
   \   0000006E   910C               LD      R16, X
   \   00000070   930000D6           STS     214, R16
   \   00000074   A904               LDD     R16, Z+52
   \   00000076   A915               LDD     R17, Z+53
   \   00000078   5F0F               SUBI    R16, 255
   \   0000007A   4F1F               SBCI    R17, 255
   \   0000007C   AB04               STD     Z+52, R16
   \   0000007E   AB15               STD     Z+53, R17
   \   00000080   A104               LDD     R16, Z+36
   \   00000082   A115               LDD     R17, Z+37
   \   00000084   5001               SUBI    R16, 1
   \   00000086   4010               SBCI    R17, 0
   \   00000088   A304               STD     Z+36, R16
   \   0000008A   A315               STD     Z+37, R17
   \   0000008C   CFE5               RJMP    ??USART2_UDRE_interrupt_1
   1469                        
   1470          
   1471          }
   1472          ///////////////////////////////////////////////////////////////////////////////////////////////////////////////////
   1473          
   1474          
   1475          
   1476          
   1477          
   1478          /////////////////////////////////////////////////////////////////////////////////////////////////////
   1479          #pragma vector=USART3_RX_vect
   1480                     

   \                                 In segment CODE, align 2, keep-with-next
   1481                     __interrupt  void USART3_RX_interrupt(void)
   \                     USART3_RX_interrupt:
   1482                           
   1483                           
   1484                          {
   \   00000000   93BA               ST      -Y, R27
   \   00000002   93AA               ST      -Y, R26
   \   00000004   93FA               ST      -Y, R31
   \   00000006   93EA               ST      -Y, R30
   \   00000008   934A               ST      -Y, R20
   \   0000000A   933A               ST      -Y, R19
   \   0000000C   932A               ST      -Y, R18
   \   0000000E   931A               ST      -Y, R17
   \   00000010   930A               ST      -Y, R16
   \   00000012   B74F               IN      R20, 0x3F
   1485                          unsigned char data;
   1486                          
   1487                          data=UDR3;
   \   00000014   91200136           LDS     R18, 310
   1488                          S3_GR;
   \   00000018   9844               CBI     0x08, 0x04
   \   0000001A   9A45               SBI     0x08, 0x05
   1489                          Rs485_1.cnt_tm_rx_out=Rs485_1.vol_tm_rx_out;
   \   0000001C   ....               LDI     R30, LOW(Rs485_1)
   \   0000001E   ....               LDI     R31, (Rs485_1) >> 8
   \   00000020   8502               LDD     R16, Z+10
   \   00000022   8513               LDD     R17, Z+11
   \   00000024   8700               STD     Z+8, R16
   \   00000026   8711               STD     Z+9, R17
   1490                          Rs485_1.cnt_tm_out=0;
   \   00000028   E000               LDI     R16, 0
   \   0000002A   8704               STD     Z+12, R16
   \   0000002C   8705               STD     Z+13, R16
   1491                          if(Rs485_1.cnt_bt_rx_tx < MAX_BUF_RS485_1)
   \   0000002E   8100               LD      R16, Z
   \   00000030   8111               LDD     R17, Z+1
   \   00000032   3000               CPI     R16, 0
   \   00000034   E034               LDI     R19, 4
   \   00000036   0713               CPC     R17, R19
   \   00000038   F468               BRCC    ??USART3_RX_interrupt_0
   1492                                 {
   1493                                  Rs485_1_buf_rx_tx[Rs485_1.cnt_bt_rx_tx]=data;
   \   0000003A   8100               LD      R16, Z
   \   0000003C   8111               LDD     R17, Z+1
   \   0000003E   01D8               MOVW    R27:R26, R17:R16
   \   00000040   ....               SUBI    R26, LOW((-(Rs485_1_buf_rx_tx) & 0xFFFF))
   \   00000042   ....               SBCI    R27, (-(Rs485_1_buf_rx_tx) & 0xFFFF) >> 8
   \   00000044   932C               ST      X, R18
   1494                                  Rs485_1.cnt_bt_rx_tx++;
   \   00000046   8100               LD      R16, Z
   \   00000048   8111               LDD     R17, Z+1
   \   0000004A   5F0F               SUBI    R16, 255
   \   0000004C   4F1F               SBCI    R17, 255
   \   0000004E   8300               ST      Z, R16
   \   00000050   8311               STD     Z+1, R17
   \   00000052   C003               RJMP    ??USART3_RX_interrupt_1
   1495                                  }
   1496                                  else fl_485_1.over=1;
   \                     ??USART3_RX_interrupt_0:
   \   00000054   AD00               LDD     R16, Z+56
   \   00000056   6100               ORI     R16, 0x10
   \   00000058   AF00               STD     Z+56, R16
   1497                          }
   \                     ??USART3_RX_interrupt_1:
   \   0000005A   BF4F               OUT     0x3F, R20
   \   0000005C   9109               LD      R16, Y+
   \   0000005E   9119               LD      R17, Y+
   \   00000060   9129               LD      R18, Y+
   \   00000062   9139               LD      R19, Y+
   \   00000064   9149               LD      R20, Y+
   \   00000066   91E9               LD      R30, Y+
   \   00000068   91F9               LD      R31, Y+
   \   0000006A   91A9               LD      R26, Y+
   \   0000006C   91B9               LD      R27, Y+
   \   0000006E   9518               RETI
   1498           /////////////////////////////////////////////////////////////////////////////////////////////////////
   1499           
   1500          
   1501          
   1502          
   1503          /////////////////////////////////////////////////////////////////////////////////////////////////////
   1504          
   1505          #pragma vector=USART3_UDRE_vect
   1506                     

   \                                 In segment CODE, align 2, keep-with-next
   1507                     __interrupt  void USART3_UDRE_interrupt(void)
   \                     USART3_UDRE_interrupt:
   1508          
   1509          {
   \   00000000   93BA               ST      -Y, R27
   \   00000002   93AA               ST      -Y, R26
   \   00000004   93FA               ST      -Y, R31
   \   00000006   93EA               ST      -Y, R30
   \   00000008   932A               ST      -Y, R18
   \   0000000A   931A               ST      -Y, R17
   \   0000000C   930A               ST      -Y, R16
   \   0000000E   B72F               IN      R18, 0x3F
   1510          
   1511           if(Rs485_1.cnt_bt_rx_tx==0) goto end_tx2;
   \   00000010   ....               LDI     R30, LOW(Rs485_1)
   \   00000012   ....               LDI     R31, (Rs485_1) >> 8
   \   00000014   8100               LD      R16, Z
   \   00000016   8111               LDD     R17, Z+1
   \   00000018   2B01               OR      R16, R17
   \   0000001A   F539               BRNE    ??USART3_UDRE_interrupt_0
   1512                                                                 
   1513                          UDR3=*Rs485_1.p_data485++;
   1514                          Rs485_1.cnt_bt_rx_tx--; 
   1515                          return;
   1516          end_tx2:
   1517                         UCSR3B=UCSR3B & ~UDRIE;
   \   0000001C   91000131           LDS     R16, 305
   \   00000020   7D0F               ANDI    R16, 0xDF
   \   00000022   93000131           STS     305, R16
   1518                         Rs485_1.cnt_bt_rx_tx=0;
   \   00000026   E000               LDI     R16, 0
   \   00000028   8300               ST      Z, R16
   \   0000002A   8301               STD     Z+1, R16
   1519                         Rs485_1.cnt_tm_tx_out=Rs485_1.vol_tm_tx_out;
   \   0000002C   8106               LDD     R16, Z+6
   \   0000002E   8117               LDD     R17, Z+7
   \   00000030   8302               STD     Z+2, R16
   \   00000032   8313               STD     Z+3, R17
   1520                         if(Rs485_1.cnt_tm_tx_out==0)
   \   00000034   2B01               OR      R16, R17
   \   00000036   F481               BRNE    ??USART3_UDRE_interrupt_1
   1521                         {
   1522                          S3_OFF;
   \   00000038   9844               CBI     0x08, 0x04
   \   0000003A   9845               CBI     0x08, 0x05
   1523                          Rs485_1.cnt_tm_out=Rs485_1.vol_tm_out;
   \   0000003C   8506               LDD     R16, Z+14
   \   0000003E   8517               LDD     R17, Z+15
   \   00000040   8704               STD     Z+12, R16
   \   00000042   8715               STD     Z+13, R17
   1524                          CLR_RTS1;  // togle to receiv mode  
   \   00000044   91000105           LDS     R16, 261
   \   00000048   7F0B               ANDI    R16, 0xFB
   \   0000004A   93000105           STS     261, R16
   1525                          UCSR3B =UCSR3B | RXEN | RXCIE; // togle to receiv mode ;
   \   0000004E   91000131           LDS     R16, 305
   \   00000052   6900               ORI     R16, 0x90
   \   00000054   93000131           STS     305, R16
   \                     ??USART3_UDRE_interrupt_1:
   \   00000058   BF2F               OUT     0x3F, R18
   \   0000005A   9109               LD      R16, Y+
   \   0000005C   9119               LD      R17, Y+
   \   0000005E   9129               LD      R18, Y+
   \   00000060   91E9               LD      R30, Y+
   \   00000062   91F9               LD      R31, Y+
   \   00000064   91A9               LD      R26, Y+
   \   00000066   91B9               LD      R27, Y+
   \   00000068   9518               RETI
   1526                         }
   \                     ??USART3_UDRE_interrupt_0:
   \   0000006A   89A0               LDD     R26, Z+16
   \   0000006C   89B1               LDD     R27, Z+17
   \   0000006E   910C               LD      R16, X
   \   00000070   93000136           STS     310, R16
   \   00000074   8900               LDD     R16, Z+16
   \   00000076   8911               LDD     R17, Z+17
   \   00000078   5F0F               SUBI    R16, 255
   \   0000007A   4F1F               SBCI    R17, 255
   \   0000007C   8B00               STD     Z+16, R16
   \   0000007E   8B11               STD     Z+17, R17
   \   00000080   8100               LD      R16, Z
   \   00000082   8111               LDD     R17, Z+1
   \   00000084   5001               SUBI    R16, 1
   \   00000086   4010               SBCI    R17, 0
   \   00000088   8300               ST      Z, R16
   \   0000008A   8311               STD     Z+1, R17
   \   0000008C   CFE5               RJMP    ??USART3_UDRE_interrupt_1
   1527                        
   1528          
   1529          }
   1530          ///////////////////////////////////////////////////////////////////////////////////////////////////////////////////
   1531          /*
   1532          #pragma vector=ADC_vect
   1533           __interrupt  void ADC_interrupt(void)
   1534           { 
   1535            // temperatura=ADC;
   1536          
   1537             fl_wdt.from_adc=1;
   1538             
   1539            //  __enable_interrupt();
   1540             
   1541             count_summa_temperatura++;
   1542             summa_temperatura=summa_temperatura+ADC;
   1543             
   1544                 if(count_summa_temperatura>=1024)
   1545                    {
   1546                    count_summa_temperatura=0;
   1547                    temperatura=summa_temperatura>>10;
   1548                    summa_temperatura=0;
   1549                  }  
   1550                 
   1551                 ADCSRA=ADCSRA | 0x47;       
   1552           }
   1553          
   1554          */
   1555          
   1556          
   1557          #pragma vector=ADC_vect

   \                                 In segment CODE, align 2, keep-with-next
   1558           __interrupt  void ADC_interrupt(void)
   \                     ADC_interrupt:
   1559           { 
   \   00000000   927A               ST      -Y, R7
   \   00000002   926A               ST      -Y, R6
   \   00000004   925A               ST      -Y, R5
   \   00000006   924A               ST      -Y, R4
   \   00000008   93BA               ST      -Y, R27
   \   0000000A   93AA               ST      -Y, R26
   \   0000000C   93FA               ST      -Y, R31
   \   0000000E   93EA               ST      -Y, R30
   \   00000010   923A               ST      -Y, R3
   \   00000012   922A               ST      -Y, R2
   \   00000014   921A               ST      -Y, R1
   \   00000016   920A               ST      -Y, R0
   \   00000018   937A               ST      -Y, R23
   \   0000001A   936A               ST      -Y, R22
   \   0000001C   935A               ST      -Y, R21
   \   0000001E   934A               ST      -Y, R20
   \   00000020   933A               ST      -Y, R19
   \   00000022   932A               ST      -Y, R18
   \   00000024   931A               ST      -Y, R17
   \   00000026   930A               ST      -Y, R16
   \   00000028   B63F               IN      R3, 0x3F
   \   0000002A                      REQUIRE ?Register_R4_is_cg_reg
   \   0000002A                      REQUIRE ?Register_R5_is_cg_reg
   \   0000002A                      REQUIRE ?Register_R6_is_cg_reg
   \   0000002A                      REQUIRE ?Register_R7_is_cg_reg
   1560           char i;
   1561          //ňđč çŕěĺđŕ ęŕćäűé çŕěĺđ ďî ęŕíŕëó ÷ĺđĺç 115 ěńĺę
   1562          // 1/11059200 *13*128*256*3=115 msec
   1563           
   1564             fl_wdt.from_adc=1;   
   \   0000002A   ....               LDI     R30, LOW(fl_wdt)
   \   0000002C   ....               LDI     R31, (fl_wdt) >> 8
   \   0000002E   8100               LD      R16, Z
   \   00000030   6400               ORI     R16, 0x40
   \   00000032   8300               ST      Z, R16
   1565              
   1566             i = ADMUX;
   \   00000034   9100007C           LDS     R16, 124
   1567             i = i & 0x07; 
   \   00000038   7007               ANDI    R16, 0x07
   1568             count_summa_adc[i]++;
   \   0000003A   2F60               MOV     R22, R16
   \   0000003C   E070               LDI     R23, 0
   \   0000003E   ....               LDI     R26, LOW(summa_adc)
   \   00000040   ....               LDI     R27, (summa_adc) >> 8
   \   00000042   019D               MOVW    R19:R18, R27:R26
   \   00000044   0F20               ADD     R18, R16
   \   00000046   1F37               ADC     R19, R23
   \   00000048   01F9               MOVW    R31:R30, R19:R18
   \   0000004A   8910               LDD     R17, Z+16
   \   0000004C   9513               INC     R17
   \   0000004E   8B10               STD     Z+16, R17
   1569             summa_adc[i]=summa_adc[i]+ADC;
   \   00000050   0F66               LSL     R22
   \   00000052   0F66               LSL     R22
   \   00000054   01AD               MOVW    R21:R20, R27:R26
   \   00000056   0F46               ADD     R20, R22
   \   00000058   1F57               ADC     R21, R23
   \   0000005A   90000078           LDS     R0, 120
   \   0000005E   90100079           LDS     R1, 121
   \   00000062   01FA               MOVW    R31:R30, R21:R20
   \   00000064   8040               LD      R4, Z
   \   00000066   8051               LDD     R5, Z+1
   \   00000068   8062               LDD     R6, Z+2
   \   0000006A   8073               LDD     R7, Z+3
   \   0000006C   0C40               ADD     R4, R0
   \   0000006E   1C51               ADC     R5, R1
   \   00000070   1E67               ADC     R6, R23
   \   00000072   1E77               ADC     R7, R23
   \   00000074   8240               ST      Z, R4
   \   00000076   8251               STD     Z+1, R5
   \   00000078   8262               STD     Z+2, R6
   \   0000007A   8273               STD     Z+3, R7
   1570             
   1571             if(count_summa_adc[i]==0)
   \   0000007C   01F9               MOVW    R31:R30, R19:R18
   \   0000007E   8910               LDD     R17, Z+16
   \   00000080   2311               TST     R17
   \   00000082   F521               BRNE    ??ADC_interrupt_0
   1572                {
   1573                  if(i==0) {modbus_mem1[AD_TEMP]=summa_adc[0]>>8;temperatura=modbus_mem1[AD_TEMP];}
   \   00000084   ....               LDI     R18, LOW(modbus_mem1)
   \   00000086   ....               LDI     R19, (modbus_mem1) >> 8
   \   00000088   2300               TST     R16
   \   0000008A   F469               BRNE    ??ADC_interrupt_1
   \   0000008C   900D               LD      R0, X+
   \   0000008E   901D               LD      R1, X+
   \   00000090   902D               LD      R2, X+
   \   00000092   01F9               MOVW    R31:R30, R19:R18
   \   00000094   A216               STD     Z+38, R1
   \   00000096   A227               STD     Z+39, R2
   \   00000098   A126               LDD     R18, Z+38
   \   0000009A   A137               LDD     R19, Z+39
   \   0000009C   ....               LDI     R30, LOW(temperatura)
   \   0000009E   ....               LDI     R31, (temperatura) >> 8
   \   000000A0   8320               ST      Z, R18
   \   000000A2   8331               STD     Z+1, R19
   \   000000A4   C00E               RJMP    ??ADC_interrupt_2
   1574                  else
   1575                      if(i==1) modbus_mem1[AD_TIT1]=summa_adc[1]>>8; 
   \                     ??ADC_interrupt_1:
   \   000000A6   3001               CPI     R16, 1
   \   000000A8   01FD               MOVW    R31:R30, R27:R26
   \   000000AA   F431               BRNE    ??ADC_interrupt_3
   \   000000AC   8015               LDD     R1, Z+5
   \   000000AE   8026               LDD     R2, Z+6
   \   000000B0   01F9               MOVW    R31:R30, R19:R18
   \   000000B2   A210               STD     Z+32, R1
   \   000000B4   A221               STD     Z+33, R2
   \   000000B6   C005               RJMP    ??ADC_interrupt_2
   1576                               else modbus_mem1[AD_TIT1+1]=summa_adc[3]>>8;
   \                     ??ADC_interrupt_3:
   \   000000B8   8415               LDD     R1, Z+13
   \   000000BA   8426               LDD     R2, Z+14
   \   000000BC   01F9               MOVW    R31:R30, R19:R18
   \   000000BE   A212               STD     Z+34, R1
   \   000000C0   A223               STD     Z+35, R2
   1577                
   1578                 summa_adc[i]=0;
   \                     ??ADC_interrupt_2:
   \   000000C2   01FA               MOVW    R31:R30, R21:R20
   \   000000C4   8370               ST      Z, R23
   \   000000C6   8371               STD     Z+1, R23
   \   000000C8   8372               STD     Z+2, R23
   \   000000CA   8373               STD     Z+3, R23
   1579                }
   1580             
   1581             if ( i<3 )
   \                     ??ADC_interrupt_0:
   \   000000CC   3003               CPI     R16, 3
   \   000000CE   F470               BRCC    ??ADC_interrupt_4
   1582                {
   1583                
   1584                i++;
   \   000000D0   9503               INC     R16
   1585                if(i==2)i=3;
   \   000000D2   3002               CPI     R16, 2
   \   000000D4   F409               BRNE    ??ADC_interrupt_5
   \   000000D6   E003               LDI     R16, 3
   1586                
   1587                ADCSRB=0x08;
   \                     ??ADC_interrupt_5:
   \   000000D8   E018               LDI     R17, 8
   \   000000DA   9310007B           STS     123, R17
   1588                ADMUX =(ADMUX & (~0x07)) | i;
   \   000000DE   9110007C           LDS     R17, 124
   \   000000E2   7F18               ANDI    R17, 0xF8
   \   000000E4   2B10               OR      R17, R16
   \   000000E6   9310007C           STS     124, R17
   1589                ADCSRA =ADCSRA | 0x47;
   \   000000EA   C005               RJMP    ??ADC_interrupt_6
   1590                }
   1591              else 
   1592                    {
   1593                    ADCSRB=0;       
   \                     ??ADC_interrupt_4:
   \   000000EC   9370007B           STS     123, R23
   1594                    ADMUX=0x40;  
   \   000000F0   E400               LDI     R16, 64
   \   000000F2   9300007C           STS     124, R16
   1595                    ADCSRA =ADCSRA | 0x47;
   \                     ??ADC_interrupt_6:
   \   000000F6   9100007A           LDS     R16, 122
   \   000000FA   6407               ORI     R16, 0x47
   \   000000FC   9300007A           STS     122, R16
   1596                    }
   1597                 
   1598           }
   \   00000100   BE3F               OUT     0x3F, R3
   \   00000102   9109               LD      R16, Y+
   \   00000104   9119               LD      R17, Y+
   \   00000106   9129               LD      R18, Y+
   \   00000108   9139               LD      R19, Y+
   \   0000010A   9149               LD      R20, Y+
   \   0000010C   9159               LD      R21, Y+
   \   0000010E   9169               LD      R22, Y+
   \   00000110   9179               LD      R23, Y+
   \   00000112   9009               LD      R0, Y+
   \   00000114   9019               LD      R1, Y+
   \   00000116   9029               LD      R2, Y+
   \   00000118   9039               LD      R3, Y+
   \   0000011A   91E9               LD      R30, Y+
   \   0000011C   91F9               LD      R31, Y+
   \   0000011E   91A9               LD      R26, Y+
   \   00000120   91B9               LD      R27, Y+
   \   00000122   9049               LD      R4, Y+
   \   00000124   9059               LD      R5, Y+
   \   00000126   9069               LD      R6, Y+
   \   00000128   9079               LD      R7, Y+
   \   0000012A   9518               RETI
   1599          
   1600          
   1601          
   1602          
   1603          
   1604          
   1605          
   1606          
   1607          
   1608          
   1609          
   1610          
   1611          
   1612          
   1613          
   1614          
   1615          
   1616          
   1617          #pragma vector=PCINT2_vect

   \                                 In segment CODE, align 2, keep-with-next
   1618           __interrupt  void PCINT2_interrupt(void)
   \                     PCINT2_interrupt:
   1619           {   
   \   00000000   93FA               ST      -Y, R31
   \   00000002   93EA               ST      -Y, R30
   \   00000004   934A               ST      -Y, R20
   \   00000006   933A               ST      -Y, R19
   \   00000008   932A               ST      -Y, R18
   \   0000000A   931A               ST      -Y, R17
   \   0000000C   930A               ST      -Y, R16
   \   0000000E   B74F               IN      R20, 0x3F
   1620             if(PINK & IO1) modbus_mem1[AD_TS]=modbus_mem1[AD_TS] & (~0x01);  
   \   00000010   91000106           LDS     R16, 262
   \   00000014   2F10               MOV     R17, R16
   \   00000016   ....               LDI     R30, LOW(modbus_mem1)
   \   00000018   ....               LDI     R31, (modbus_mem1) >> 8
   \   0000001A   A900               LDD     R16, Z+48
   \   0000001C   FF17               SBRS    R17, 7
   \   0000001E   C003               RJMP    ??PCINT2_interrupt_0
   \   00000020   7F0E               ANDI    R16, 0xFE
   \   00000022   AB00               STD     Z+48, R16
   \   00000024   C016               RJMP    ??PCINT2_interrupt_1
   1621              else 
   1622              {
   1623               modbus_mem1[AD_TS]=modbus_mem1[AD_TS] | 0x01;  
   \                     ??PCINT2_interrupt_0:
   \   00000026   6001               ORI     R16, 0x01
   \   00000028   AB00               STD     Z+48, R16
   1624              // cnt_tii[0]++;
   1625              // modbus_mem1[0]=cnt_tii[0];
   1626               modbus_mem1[AD_TII1]++;
   \   0000002A   8100               LD      R16, Z
   \   0000002C   8111               LDD     R17, Z+1
   \   0000002E   5F0F               SUBI    R16, 255
   \   00000030   4F1F               SBCI    R17, 255
   \   00000032   8300               ST      Z, R16
   \   00000034   8311               STD     Z+1, R17
   1627               arr_tii_32[0]++;
   \   00000036   ....               LDI     R30, LOW(arr_tii_32)
   \   00000038   ....               LDI     R31, (arr_tii_32) >> 8
   \   0000003A   8100               LD      R16, Z
   \   0000003C   8111               LDD     R17, Z+1
   \   0000003E   8122               LDD     R18, Z+2
   \   00000040   8133               LDD     R19, Z+3
   \   00000042   5F0F               SUBI    R16, 255
   \   00000044   4F1F               SBCI    R17, 255
   \   00000046   4F2F               SBCI    R18, 255
   \   00000048   4F3F               SBCI    R19, 255
   \   0000004A   8300               ST      Z, R16
   \   0000004C   8311               STD     Z+1, R17
   \   0000004E   8322               STD     Z+2, R18
   \   00000050   8333               STD     Z+3, R19
   1628              }
   1629           }
   \                     ??PCINT2_interrupt_1:
   \   00000052   BF4F               OUT     0x3F, R20
   \   00000054   9109               LD      R16, Y+
   \   00000056   9119               LD      R17, Y+
   \   00000058   9129               LD      R18, Y+
   \   0000005A   9139               LD      R19, Y+
   \   0000005C   9149               LD      R20, Y+
   \   0000005E   91E9               LD      R30, Y+
   \   00000060   91F9               LD      R31, Y+
   \   00000062   9518               RETI

   \                                 In segment INTVEC, offset 0x2c, root
   \                     `??PCINT2_interrupt??INTVEC 44`:
   \   0000002C   ........           JMP     PCINT2_interrupt

   \                                 In segment INTVEC, offset 0x34, root
   \                     `??TIMER2_COMPA_interrupt??INTVEC 52`:
   \   00000034   ........           JMP     TIMER2_COMPA_interrupt

   \                                 In segment INTVEC, offset 0x54, root
   \                     `??TIMER0_COMPA_interrupt??INTVEC 84`:
   \   00000054   ........           JMP     TIMER0_COMPA_interrupt

   \                                 In segment INTVEC, offset 0x64, root
   \                     `??USART0_RX_interrupt??INTVEC 100`:
   \   00000064   ........           JMP     USART0_RX_interrupt

   \                                 In segment INTVEC, offset 0x6c, root
   \                     `??USART0_TX_interrupt??INTVEC 108`:
   \   0000006C   ........           JMP     USART0_TX_interrupt

   \                                 In segment INTVEC, offset 0x74, root
   \                     `??ADC_interrupt??INTVEC 116`:
   \   00000074   ........           JMP     ADC_interrupt

   \                                 In segment INTVEC, offset 0x80, root
   \                     `??TIMER3_COMPA_interrupt??INTVEC 128`:
   \   00000080   ........           JMP     TIMER3_COMPA_interrupt

   \                                 In segment INTVEC, offset 0x90, root
   \                     `??USART1_RX_interrupt??INTVEC 144`:
   \   00000090   ........           JMP     USART1_RX_interrupt

   \                                 In segment INTVEC, offset 0x94, root
   \                     `??USART1_UDRE_interrupt??INTVEC 148`:
   \   00000094   ........           JMP     USART1_UDRE_interrupt

   \                                 In segment INTVEC, offset 0xcc, root
   \                     `??USART2_RX_interrupt??INTVEC 204`:
   \   000000CC   ........           JMP     USART2_RX_interrupt

   \                                 In segment INTVEC, offset 0xd0, root
   \                     `??USART2_UDRE_interrupt??INTVEC 208`:
   \   000000D0   ........           JMP     USART2_UDRE_interrupt

   \                                 In segment INTVEC, offset 0xd8, root
   \                     `??USART3_RX_interrupt??INTVEC 216`:
   \   000000D8   ........           JMP     USART3_RX_interrupt

   \                                 In segment INTVEC, offset 0xdc, root
   \                     `??USART3_UDRE_interrupt??INTVEC 220`:
   \   000000DC   ........           JMP     USART3_UDRE_interrupt
   1630          
   1631          
   1632             
   1633          
   1634          

   Maximum stack usage in bytes:

     Function               CSTACK RSTACK
     --------               ------ ------
     ADC_interrupt             24      2
     PCINT2_interrupt           8      2
     TIMER0_COMPA_interrupt    18      2
       -> opros_ts             18      2
       -> opros_ts             18      2
       -> opros_ts             18      2
       -> opros_ts             18      2
       -> opros_ts             18      2
       -> opros_ts             18      2
       -> opros_ts             18      2
     TIMER2_COMPA_interrupt    20      2
       -> sending_ppp_pac      20      2
       -> sending_ppp_pac      20      2
       -> fun_state_md         20      2
     TIMER3_COMPA_interrupt    20      2
       -> lock_it              20      2
       -> func_crc_tii         20      2
       -> burst_ds_r           20      2
       -> crc_m1               20      2
       -> WrArrayToFlesh       20      2
       -> lock_it              20      2
     USART0_RX_interrupt       16      2
       -> recive_buf1          16      2
       -> recive_buf2          16      2
     USART0_TX_interrupt       16      2
       -> sending_at_pac       16      2
       -> sending_ppp_pac      16      2
       -> check_cts            16      2
     USART1_RX_interrupt       10      2
     USART1_UDRE_interrupt      8      2
     USART2_RX_interrupt       10      2
     USART2_UDRE_interrupt      8      2
     USART3_RX_interrupt       10      2
     USART3_UDRE_interrupt      8      2
     opros_ts                   4      4
     recive_buf1                0      2
     recive_buf2                0      2
     sending_ppp_pac            0      2
     sending_ppp_proverka       0      2


   Segment part sizes:

     Function/Label                 Bytes
     --------------                 -----
     _A_UDR3                           1
     _A_UCSR3B                         1
     _A_PINK                           1
     _A_PORTJ                          1
     _A_PINJ                           1
     _A_PORTH                          1
     _A_UDR2                           1
     _A_UCSR2B                         1
     _A_UDR1                           1
     _A_UCSR1B                         1
     _A_UDR0                           1
     _A_UCSR0B                         1
     _A_ADMUX                          1
     _A_ADCSRB                         1
     _A_ADCSRA                         1
     _A_ADC                            2
     _A_PING                           1
     _A_PINE                           1
     _A_PORTD                          1
     _A_PORTC                          1
     _A_PORTB                          1
     _A_PORTA                          1
     _A_PINA                           1
     Rs485_1_buf_rx_tx              1024
     Rs485_2_buf_rx_tx              1024
     Rs232_2_buf_rx_tx              1024
     Rs485_1                          59
     fl_rx_ppp                         1
     modbus_mem1                      70
     struct_tcc1                      28
     summa_adc                        20
     opros_ts                        216
     sending_ppp_proverka             72
     sending_ppp_pac                 348
     recive_buf1                     284
     recive_buf2                     278
     TIMER0_COMPA_interrupt          454
     TIMER2_COMPA_interrupt         1510
     TIMER3_COMPA_interrupt          882
     USART0_RX_interrupt             234
     USART0_TX_interrupt             136
     USART1_RX_interrupt             108
     USART1_UDRE_interrupt           134
     USART2_RX_interrupt             190
     USART2_UDRE_interrupt           142
     USART3_RX_interrupt             112
     USART3_UDRE_interrupt           142
     ADC_interrupt                   300
     PCINT2_interrupt                100
     ??PCINT2_interrupt??INTVEC 44     4
     ??TIMER2_COMPA_interrupt??INTVEC 52
                                       4
     ??TIMER0_COMPA_interrupt??INTVEC 84
                                       4
     ??USART0_RX_interrupt??INTVEC 100
                                       4
     ??USART0_TX_interrupt??INTVEC 108
                                       4
     ??ADC_interrupt??INTVEC 116       4
     ??TIMER3_COMPA_interrupt??INTVEC 128
                                       4
     ??USART1_RX_interrupt??INTVEC 144
                                       4
     ??USART1_UDRE_interrupt??INTVEC 148
                                       4
     ??USART2_RX_interrupt??INTVEC 204
                                       4
     ??USART2_UDRE_interrupt??INTVEC 208
                                       4
     ??USART3_RX_interrupt??INTVEC 216
                                       4
     ??USART3_UDRE_interrupt??INTVEC 220
                                       4
      Others                           7

 
    24 bytes in segment ABSOLUTE
 5 642 bytes in segment CODE
     7 bytes in segment INITTAB
    52 bytes in segment INTVEC
 3 072 bytes in segment MY_SEG
   178 bytes in segment NEAR_Z
 
 5 642 bytes of CODE memory (+ 59 bytes shared)
 3 250 bytes of DATA memory (+ 24 bytes shared)

Errors: none
Warnings: 1
