##############################################################################
#                                                                            #
#                                                      28/Sep/2007  15:44:41 #
# IAR Atmel AVR C/C++ Compiler V4.12A/W32, Evaluation Version                #
# Copyright 1996-2005 IAR Systems. All rights reserved.                      #
#                                                                            #
#    Source file  =  D:\PRJIAR\NSS270907\KP7(270907)\interr1.c               #
#    Command line =  "D:\PRJIAR\NSS270907\KP7(270907)\interr1.c"             #
#                    --cpu=m1280 -ms -o "D:\PRJIAR\NSS270907\KP7(270907)\Deb #
#                    ug\Obj\" -lCN "D:\PRJIAR\NSS270907\KP7(270907)\Debug\Li #
#                    st\" -lA "D:\PRJIAR\NSS270907\KP7(270907)\Debug\List\"  #
#                    -y --initializers_in_flash -z6 --no_inline              #
#                    --no_cross_call --no_tbaa --debug -e -I "D:\Program     #
#                    Files\IAR Systems\Embedded Workbench 4.0                #
#                    Evaluation\avr\INC\" -I "D:\Program Files\IAR           #
#                    Systems\Embedded Workbench 4.0                          #
#                    Evaluation\avr\INC\DLIB\" --eeprom_size 4096            #
#                    --dlib_config "D:\Program Files\IAR Systems\Embedded    #
#                    Workbench 4.0 Evaluation\avr\LIB\DLIB\dlAVR-3s-ec-n.h"  #
#    List file    =  D:\PRJIAR\NSS270907\KP7(270907)\Debug\List\interr1.lst  #
#    Object file  =  D:\PRJIAR\NSS270907\KP7(270907)\Debug\Obj\interr1.r90   #
#                                                                            #
#                                                                            #
##############################################################################

D:\PRJIAR\NSS270907\KP7(270907)\interr1.c
      1          #include <iom1280.h> 

   \                                 In segment ABSOLUTE, at 0x136
   \   union <unnamed> volatile __ext_io _A_UDR3
   \                     _A_UDR3:
   \   00000000                      DS 1

   \                                 In segment ABSOLUTE, at 0x131
   \   union <unnamed> volatile __ext_io _A_UCSR3B
   \                     _A_UCSR3B:
   \   00000000                      DS 1

   \                                 In segment ABSOLUTE, at 0x105
   \   union <unnamed> volatile __ext_io _A_PORTJ
   \                     _A_PORTJ:
   \   00000000                      DS 1

   \                                 In segment ABSOLUTE, at 0x102
   \   union <unnamed> volatile __ext_io _A_PORTH
   \                     _A_PORTH:
   \   00000000                      DS 1

   \                                 In segment ABSOLUTE, at 0xd6
   \   union <unnamed> volatile __io _A_UDR2
   \                     _A_UDR2:
   \   00000000                      DS 1

   \                                 In segment ABSOLUTE, at 0xd1
   \   union <unnamed> volatile __io _A_UCSR2B
   \                     _A_UCSR2B:
   \   00000000                      DS 1

   \                                 In segment ABSOLUTE, at 0xce
   \   union <unnamed> volatile __io _A_UDR1
   \                     _A_UDR1:
   \   00000000                      DS 1

   \                                 In segment ABSOLUTE, at 0xc9
   \   union <unnamed> volatile __io _A_UCSR1B
   \                     _A_UCSR1B:
   \   00000000                      DS 1

   \                                 In segment ABSOLUTE, at 0xc6
   \   union <unnamed> volatile __io _A_UDR0
   \                     _A_UDR0:
   \   00000000                      DS 1

   \                                 In segment ABSOLUTE, at 0xc1
   \   union <unnamed> volatile __io _A_UCSR0B
   \                     _A_UCSR0B:
   \   00000000                      DS 1

   \                                 In segment ABSOLUTE, at 0x7a
   \   union <unnamed> volatile __io _A_ADCSRA
   \                     _A_ADCSRA:
   \   00000000                      DS 1

   \                                 In segment ABSOLUTE, at 0x78
   \   union <unnamed> volatile __io _A_ADC
   \                     _A_ADC:
   \   00000000                      DS 2

   \                                 In segment ABSOLUTE, at 0x32
   \   union <unnamed> volatile __io _A_PING
   \                     _A_PING:
   \   00000000                      DS 1

   \                                 In segment ABSOLUTE, at 0x2c
   \   union <unnamed> volatile __io _A_PINE
   \                     _A_PINE:
   \   00000000                      DS 1

   \                                 In segment ABSOLUTE, at 0x2b
   \   union <unnamed> volatile __io _A_PORTD
   \                     _A_PORTD:
   \   00000000                      DS 1

   \                                 In segment ABSOLUTE, at 0x28
   \   union <unnamed> volatile __io _A_PORTC
   \                     _A_PORTC:
   \   00000000                      DS 1
      2          #include <inavr.h> 
      3          #include "dfpin.h"
      4          #include "dfproc.h"
      5          #include "ozu_map.h"
      6          #include "dfcnst.h"
      7          #include "def_at.h"
      8          #include "def_link.h"
      9          #include "sec.h"
     10          
     11          
     12          extern unsigned char layer_PPP;
     13                                                        
     14          
     15          void lock_it(void);
     16          
     17          void fun_state_md(void);
     18          extern void tx_rs485_1(void);
     19          extern void tx_rs485_2(void);
     20          extern void tx_rs232_2(void);
     21          extern void tx_rs232_time(void);
     22          extern void test_fram(void);
     23          extern unsigned long int burst_ds_r(void);
     24          
     25          unsigned char check_cts(void);
     26          
     27          extern unsigned char Fl_ch_sim; ; //dobavka
     28          extern unsigned long int cnt_no_link, cnt_link_res; //dobavka
     29          
     30          extern unsigned char count_block_net;
     31          
     32          extern struct
     33           {
     34           unsigned char  clr_wdt     :1;
     35           unsigned char  fl_out      :1;
     36           unsigned char  from_timer0 :1;
     37           unsigned char  fl_main     :1;
     38           unsigned char  from_timer3 :1;
     39           unsigned char  from_timer2 :1; 
     40           unsigned char  from_adc :1;
     41           }fl_wdt;

   \                                 In segment NEAR_Z, align 1, keep-with-next
   \   00000000                      REQUIRE `?<Segment init: NEAR_Z>`
     42          unsigned char cnt_clr_wdt, cnt_flag_out;
     43          
     44          extern unsigned char cnt_rst_lcp,vol_cnt_rst_lcp;
     45          extern unsigned char cnt_rst_ipcp,vol_cnt_rst_ipcp;                       
     46          extern unsigned char cnt_rst_pap,vol_cnt_rst_pap;  
     47          extern unsigned int cnt_lcp_tm_out,cnt_ipcp_tm_out;
     48          extern unsigned int cnt_pap_tm_out;
     49          
     50          extern struct
     51          {
     52          unsigned char over_buf :1;
     53          unsigned char send_state :1;
     54          unsigned char enable:1; 
     55          }fl_appl_seq1; 
     56          
     57           extern struct
     58            {
     59            unsigned char  ip         :1;
     60            unsigned char  udp        :1;
     61            unsigned char  num_self   :1;
     62            unsigned char cnt_reset;
     63            }fl_rewrite;
     64           
     65          
     66          
     67          extern struct                   //ёҐЁґъҐґЁр, юяшё√тр■їр  юс·хъҐ яхЁхфріш яю PPP 
     68            {  
     69            enum bool link_no ; //ёт чш эхҐ
     70            enum bool link_waits; //юцшфрэшх ътшҐър эр ъюэҐЁюы№ ёт чш
     71            enum bool link;      //ъюэҐЁюы№ ёт чш    
     72            enum bool nat;      //ъюэҐЁюы№ nat 
     73            unsigned int cnt_link; // ёіхҐішъ
     74            unsigned int cnt_nat; // ёіхҐішъ
     75            unsigned int vol_link; // чэріхэшх  
     76            unsigned int vol_nat; // //чэріхэшх 
     77            unsigned int vol_waits; // чэріхэшх тЁхьхэш ътшҐър юцшфрэш  ъюэҐЁюы  ёт чш
     78            unsigned char cnt_try; // ёіхҐішъ яюя√Ґюъ яюыґішҐ№ ътшҐюъ
     79            unsigned char vol_try; // rjkbxtcndj яюя√Ґюъ яюыґішҐ№ ътшҐюъ
     80            }Control;
     81          
     82          
     83            //!!!!!!!!!!!!!!!!!!!!!!!!!!!!!ёҐЁґъҐґЁ√ яЁшыюцхэш 
     84          extern  struct
     85          {
     86          unsigned char id;
     87          unsigned int p_in;// ґърчрҐхы№ ётюсюфэющ  іхщъш
     88          unsigned int p_out;
     89          unsigned int p_out_kv;
     90          unsigned int crc;
     91          unsigned int cnt_waits; // ёіхҐішъ юцшфрэш  ътшҐър
     92          unsigned char cnt_try; // ёіхҐішъ яюя√Ґюъ яюыґішҐ№ ътшҐюъ 
     93          unsigned int l_data; // фышэр яюё√ырхь√є фрээ√є
     94          unsigned char state;
     95          unsigned char event;
     96          unsigned int tm_vzat;
     97          unsigned int vol_tm_vzat;
     98          enum bool cntr_cl;
     99          enum bool en_cntr_cl;
    100          unsigned int cnt_cntr_cl;
    101          unsigned int vol_cntr_cl;
    102          }Appl_seq;
    103          
    104          //unsigned char Appl_seq_des;
    105          
    106          //unsigned char state_seq;
    107          
    108          //unsigned char Appl_seq_buf[MAX_BUF_SEQ]; 
    109          
    110          
    111          extern struct
    112          {
    113          unsigned char en_tx :1;
    114          unsigned char kv_waits :1;
    115          unsigned char en_povtor:1;
    116          }fl_appl_seq;
    117          
    118          
    119          
    120          
    121          extern unsigned char proverka;
    122          extern unsigned char fl_at_mom_232;
    123          
    124          extern enum t_event_modem event_modem;
    125          
    126          
    127          extern unsigned char buf_tx_232[VOL_TX_PPP];
    128          extern unsigned int count_tx_ppp,vol_tx_ppp;
    129          
    130          
    131          extern unsigned char Regim;
    132          extern unsigned char cnt_stm_tm1;
    133          
    134          extern void sending_at_pac(void); 
    135          
    136          extern  struct
    137          {
    138          char buf[LN_BUF_AT];
    139          unsigned char cnt_tx;
    140          unsigned char cnt_rx;
    141          unsigned char ln_buf;
    142          unsigned char list_com[VOL_LIST];// яхЁхіхэ№ шёяюыэ хь√є ъюьрэф
    143          unsigned char ln_list;//фышэр яхЁхіэ 
    144          unsigned char cnt_com;//ёіхҐішъ ъюьрэф
    145          unsigned int cnt_tm_out; //ёіхҐішъ тЁхьхэш юцшфрэш  юҐтхҐр
    146          unsigned int vol_tm_out; //яЁхфхы тЁхьхэш юцшфрэш  юҐтхҐр
    147          unsigned int cnt_rx_out; //ёіхҐішъ ьхцсрщҐют√щ яЁюьхцґҐюъ
    148          unsigned int vol_rx_out; //яЁхфхы ьхцсрщҐютюую яЁюьхцґҐър
    149          }At_com;
    150          
    151          extern enum bool command_AT;
    152          extern enum bool fl_cts_232_ignor;
    153          extern unsigned int cnt_cts_off;
    154          
    155          extern struct
    156           {
    157           unsigned char on: 1;
    158           } fl_cts_232;
    159          
    160          extern struct
    161          {
    162          unsigned char ok :1;//ҐЁхсґхь√щ юҐтхҐ
    163          unsigned char err :1;//юЇшсюіэ√щ, эхҐЁхсґхь√щ юҐтхҐ
    164          unsigned char tm_out :1;//юҐёґҐёҐтшх юҐтхҐр
    165          unsigned char tx_en :1;//яюёырҐ№ ъюььрэфґ
    166          unsigned char rx_en :1;//яЁшэшьрҐ№ юҐтхҐ√
    167          unsigned char rx_rec :1;//яЁшэ Ґ юҐтхҐ
    168          //unsigned char tm_out_en:1;//ЁрчЁхЇхэшх рэрышчр яю яЁхт√Їхэш■ тЁхьхэш юцшфрэш  юҐтхҐр
    169          }
    170          fl_at_com;
    171          
    172          unsigned char Rs485_1_buf_rx_tx[MAX_BUF_RS485_1];
    173          unsigned char Rs485_2_buf_rx_tx[MAX_BUF_RS485_2];
    174          unsigned char Rs232_2_buf_rx_tx[MAX_BUF_RS232_2];
    175          
    176          struct                   //ёҐЁґъҐґЁр юяшё√тр■їр  ЁрсюҐґ яюЁҐр "RS485_1" 
    177            {
    178            unsigned int  cnt_bt_rx_tx;       // ёіхҐішъ срщҐют эр яЁшхь-яхЁхфріґ
    179            unsigned int  cnt_tm_tx_out;    // ёіхҐішъ тЁхьхэш эр ґфхЁцрэшх rts яюёых яхЁхфріш
    180            unsigned int  cnt_tm_pre_tx;    // ёіхҐішъ тЁхьхэш эр ґфхЁцрэшх rts яхЁхф яхЁхфріш
    181            unsigned int  vol_tm_tx_out;    // яЁхфхы ёіхҐішъ тЁхьхэш эр ґфхЁцрэшх rts яюёых яхЁхфріш
    182            unsigned int  cnt_tm_rx_out;   //  ёіхҐішъ тЁхьхэш эр юяЁхфхыхэшх ъюэІр яЁшхьр
    183            unsigned int  vol_tm_rx_out;   //  яЁхфхы тЁхьхэш эр юяЁхфхыхэшх ъюэІр яЁшхьр
    184            unsigned int  cnt_tm_out;     // ёіхҐішъ тЁхьхэш эр яЁшхь 
    185            unsigned int  vol_tm_out;     // яЁхфхы ёіхҐішър тЁхьхэш эр яЁшхь 
    186            unsigned char *p_data485;   // ґърчрҐхы№ эр сґЄхЁ яхЁхфріш
    187            }Rs485_1,Rs485_2,Rs232_2;
   \                     Rs485_1:
   \   00000000                      DS 18
   \                     Rs485_2:
   \   00000012                      DS 18
   \                     Rs232_2:
   \   00000024                      DS 18
   \                     cnt_clr_wdt:
   \   00000036                      DS 1
   \                     cnt_flag_out:
   \   00000037                      DS 1
   \                     Rs485_2_buf_rx_tx:
   \   00000038                      DS 2
    188            
    189          struct
    190           {
    191           unsigned char busy : 1;
    192           unsigned char rec : 1;
    193           unsigned char tm_out : 1;
    194           unsigned char tx : 1;
    195           unsigned char over : 1;
    196           unsigned char buffed : 1;
    197           }fl_485_1,fl_485_2,fl_232_2;
   \                     fl_485_1:
   \   0000003A                      DS 1
   \                     fl_485_2:
   \   0000003B                      DS 1
   \                     fl_232_2:
   \   0000003C                      DS 1

   \                                 In segment NEAR_Z, align 1, keep-with-next
   \   00000000                      REQUIRE `?<Segment init: NEAR_Z>`
   \                     Rs485_1_buf_rx_tx:
   \   00000000                      DS 100

   \                                 In segment NEAR_Z, align 1, keep-with-next
   \   00000000                      REQUIRE `?<Segment init: NEAR_Z>`
   \                     Rs232_2_buf_rx_tx:
   \   00000000                      DS 900
    198          
    199          
    200          
    201          extern  struct
    202           {
    203            unsigned char data[VOL_RX_PPP];//ёрь сґЄхЁ
    204            unsigned int ln_data;  // фышэр фрээ√є
    205            enum bool rec; // яръхҐ яЁшэ Ґ
    206            enum bool busy;// сґЄхЁ чрэ Ґ
    207            enum bool check_busy;// яЁютхЁър чрэ Ґ ыш сґЄхЁ
    208           }Buf1_rx_ppp,Buf2_rx_ppp; // 
    209          
    210          
    211           struct
    212           {
    213           unsigned char fl_7e : 1;//
    214           unsigned char fl_7d : 1;//
    215           unsigned char switcher : 1;//яхЁхъы■ірҐхы№ сґЄхЁют

   \                                 In segment NEAR_Z, align 1, keep-with-next
   \   00000000                      REQUIRE `?<Segment init: NEAR_Z>`
    216           } fl_rx_ppp;
   \                     fl_rx_ppp:
   \   00000000                      DS 1
    217          
    218          ///!!!!!!!!!!!!!!!!!!!!!!!!!!!!!!!!!!!фы  ╨╨╨
    219          extern struct
    220           {
    221            unsigned char act_lcp_end :1;  
    222            unsigned char lcp_tm_out_en :1;
    223            unsigned char t0_pl:1;
    224            unsigned char t0_mi:1;
    225           }fl_lcp; 
    226           
    227          
    228          extern struct
    229           {
    230            unsigned char act_ipcp_end :1;  
    231            unsigned char ipcp_tm_out_en :1;
    232            unsigned char t0_pl:1;
    233            unsigned char t0_mi:1;
    234           }fl_ipcp; 
    235          
    236          extern struct
    237           {
    238            unsigned char act_ip_end :1; 
    239            unsigned char ip_tm_cntr_en :1; 
    240            unsigned char ip_tm_nat_en :1;
    241           }fl_ip;
    242          
    243          
    244          
    245            
    246          extern struct
    247           {
    248            unsigned char act_pap_end :1;  
    249            unsigned char pap_tm_out_en:1;
    250            unsigned char t0_pl:1;
    251            unsigned char t0_mi:1;  
    252            unsigned char up: 1; 
    253           }fl_pap; 
    254          
    255          extern struct
    256           {
    257            unsigned char add_byte :1; 
    258           }fl_reg3;
    259            //EEEEEEEEEEEEEEEEEEEEEEEEEEEEEEEEEEEEEEEEE 
    260           
    261          
    262          extern unsigned long int summa_temperatura;         
    263          extern unsigned int temperatura;
    264          extern unsigned int count_summa_temperatura; 
    265          
    266          
    267          
    268          struct
    269          {
    270           
    271            unsigned char tek_pin :1;
    272            unsigned char old_pin :1;
    273            unsigned char fl_ch_tc :1;
    274            unsigned char real_tc;
    275            unsigned int count_tc; 

   \                                 In segment NEAR_Z, align 1, keep-with-next
   \   00000000                      REQUIRE `?<Segment init: NEAR_Z>`
    276          }struct_tcc1;
   \                     struct_tcc1:
   \   00000000                      DS 4
    277          
    278          ///11111111111111111111111111111 ЄґэъІшш
    279           

   \                                 In segment CODE, align 2, keep-with-next
    280          void sending_ppp_proverka(void)
   \                     sending_ppp_proverka:
    281          {   
   \   00000000   019D               MOVW    R19:R18, R27:R26
    282             if(count_tx_ppp>=20)
   \   00000002   ....               LDI     R26, LOW(count_tx_ppp)
   \   00000004   ....               LDI     R27, (count_tx_ppp) >> 8
   \   00000006   91ED               LD      R30, X+
   \   00000008   91FC               LD      R31, X
   \   0000000A   9774               SBIW    R31:R30, 20
   \   0000000C   F018               BRCS    ??sending_ppp_proverka_0
    283             {
    284              // UCSR0B=UCSR0B & ~TXEN;!!!!
    285              // UCSR0B=UCSR0B & ~TXCIE; !!!!
    286               S2_OFF;
   \   0000000E   9840               CBI     0x08, 0x00
   \   00000010   9841               CBI     0x08, 0x01
    287               return;
   \   00000012   C018               RJMP    ??sending_ppp_proverka_1
    288             }
    289             
    290             UDR0=buf_tx_232[count_tx_ppp]; if(Regim==RG_DEBAG) UDR3=buf_tx_232[count_tx_ppp];
   \                     ??sending_ppp_proverka_0:
   \   00000014   ....               LDI     R30, LOW(count_tx_ppp)
   \   00000016   ....               LDI     R31, (count_tx_ppp) >> 8
   \   00000018   8100               LD      R16, Z
   \   0000001A   8111               LDD     R17, Z+1
   \   0000001C   01F8               MOVW    R31:R30, R17:R16
   \   0000001E   ....               SUBI    R30, LOW((-(buf_tx_232) & 0xFFFF))
   \   00000020   ....               SBCI    R31, (-(buf_tx_232) & 0xFFFF) >> 8
   \   00000022   8110               LD      R17, Z
   \   00000024   931000C6           STS     198, R17
   \   00000028   9100....           LDS     R16, Regim
   \   0000002C   3001               CPI     R16, 1
   \   0000002E   F411               BRNE    ??sending_ppp_proverka_2
   \   00000030   93100136           STS     310, R17
    291             count_tx_ppp++;
   \                     ??sending_ppp_proverka_2:
   \   00000034   ....               LDI     R30, LOW(count_tx_ppp)
   \   00000036   ....               LDI     R31, (count_tx_ppp) >> 8
   \   00000038   8100               LD      R16, Z
   \   0000003A   8111               LDD     R17, Z+1
   \   0000003C   5F0F               SUBI    R16, 255
   \   0000003E   4F1F               SBCI    R17, 255
   \   00000040   8300               ST      Z, R16
   \   00000042   8311               STD     Z+1, R17
    292          }
   \                     ??sending_ppp_proverka_1:
   \   00000044   01D9               MOVW    R27:R26, R19:R18
   \   00000046   9508               RET
    293          
    294          
    295          

   \                                 In segment CODE, align 2, keep-with-next
    296            void sending_ppp_pac(void)
   \                     sending_ppp_pac:
    297          {   
    298           if(count_tx_ppp>=(vol_tx_ppp-1))
   \   00000000   ....               LDI     R30, LOW(vol_tx_ppp)
   \   00000002   ....               LDI     R31, (vol_tx_ppp) >> 8
   \   00000004   8100               LD      R16, Z
   \   00000006   8111               LDD     R17, Z+1
   \   00000008   5001               SUBI    R16, 1
   \   0000000A   4010               SBCI    R17, 0
   \   0000000C   ....               LDI     R30, LOW(count_tx_ppp)
   \   0000000E   ....               LDI     R31, (count_tx_ppp) >> 8
   \   00000010   8120               LD      R18, Z
   \   00000012   8131               LDD     R19, Z+1
   \   00000014   1720               CP      R18, R16
   \   00000016   0731               CPC     R19, R17
   \   00000018   F140               BRCS    ??sending_ppp_pac_0
    299               { 
    300            
    301               if (fl_lcp.act_lcp_end==0) fl_lcp.act_lcp_end=1;
   \   0000001A   ....               LDI     R30, LOW(fl_lcp)
   \   0000001C   ....               LDI     R31, (fl_lcp) >> 8
   \   0000001E   8100               LD      R16, Z
   \   00000020   FD00               SBRC    R16, 0
   \   00000022   C003               RJMP    ??sending_ppp_pac_1
   \   00000024   8100               LD      R16, Z
   \   00000026   6001               ORI     R16, 0x01
   \   00000028   8300               ST      Z, R16
    302               if (fl_pap.act_pap_end==0) fl_pap.act_pap_end=1;    
   \                     ??sending_ppp_pac_1:
   \   0000002A   ....               LDI     R30, LOW(fl_pap)
   \   0000002C   ....               LDI     R31, (fl_pap) >> 8
   \   0000002E   8100               LD      R16, Z
   \   00000030   FD00               SBRC    R16, 0
   \   00000032   C003               RJMP    ??sending_ppp_pac_2
   \   00000034   8100               LD      R16, Z
   \   00000036   6001               ORI     R16, 0x01
   \   00000038   8300               ST      Z, R16
    303               if (fl_ipcp.act_ipcp_end==0) fl_ipcp.act_ipcp_end=1;  
   \                     ??sending_ppp_pac_2:
   \   0000003A   ....               LDI     R30, LOW(fl_ipcp)
   \   0000003C   ....               LDI     R31, (fl_ipcp) >> 8
   \   0000003E   8100               LD      R16, Z
   \   00000040   FD00               SBRC    R16, 0
   \   00000042   C003               RJMP    ??sending_ppp_pac_3
   \   00000044   8100               LD      R16, Z
   \   00000046   6001               ORI     R16, 0x01
   \   00000048   8300               ST      Z, R16
    304               if (fl_ip.act_ip_end==0) fl_ip.act_ip_end=1; 
   \                     ??sending_ppp_pac_3:
   \   0000004A   ....               LDI     R30, LOW(fl_ip)
   \   0000004C   ....               LDI     R31, (fl_ip) >> 8
   \   0000004E   8100               LD      R16, Z
   \   00000050   FD00               SBRC    R16, 0
   \   00000052   C003               RJMP    ??sending_ppp_pac_4
   \   00000054   8100               LD      R16, Z
   \   00000056   6001               ORI     R16, 0x01
   \   00000058   8300               ST      Z, R16
    305               fl_reg3.add_byte=0;   
   \                     ??sending_ppp_pac_4:
   \   0000005A   ....               LDI     R30, LOW(fl_reg3)
   \   0000005C   ....               LDI     R31, (fl_reg3) >> 8
   \   0000005E   8100               LD      R16, Z
   \   00000060   7F0E               ANDI    R16, 0xFE
   \   00000062   8300               ST      Z, R16
    306             //  UCSR0B=UCSR0B & ~TXEN;!!!!!!!
    307             //  UCSR0B=UCSR0B & ~TXCIE; !!!!
    308               S2_OFF;
   \   00000064   9840               CBI     0x08, 0x00
   \   00000066   9841               CBI     0x08, 0x01
    309               return;
   \   00000068   9508               RET
    310               }   
    311                
    312                 
    313          if (fl_reg3.add_byte==1) 
   \                     ??sending_ppp_pac_0:
   \   0000006A   ....               LDI     R30, LOW(fl_reg3)
   \   0000006C   ....               LDI     R31, (fl_reg3) >> 8
   \   0000006E   8120               LD      R18, Z
   \   00000070   FF20               SBRS    R18, 0
   \   00000072   C02E               RJMP    ??sending_ppp_pac_5
    314              {         
    315                fl_reg3.add_byte=0;
   \   00000074   8100               LD      R16, Z
   \   00000076   7F0E               ANDI    R16, 0xFE
   \   00000078   8300               ST      Z, R16
    316                if (buf_tx_232[count_tx_ppp]==0x7e){UDR0=0x5e;if(Regim==RG_DEBAG) UDR3=0x5e;return;}  
   \   0000007A   ....               LDI     R30, LOW(count_tx_ppp)
   \   0000007C   ....               LDI     R31, (count_tx_ppp) >> 8
   \   0000007E   8100               LD      R16, Z
   \   00000080   8111               LDD     R17, Z+1
   \   00000082   01F8               MOVW    R31:R30, R17:R16
   \   00000084   ....               SUBI    R30, LOW((-(buf_tx_232) & 0xFFFF))
   \   00000086   ....               SBCI    R31, (-(buf_tx_232) & 0xFFFF) >> 8
   \   00000088   8100               LD      R16, Z
   \   0000008A   370E               CPI     R16, 126
   \   0000008C   F451               BRNE    ??sending_ppp_pac_6
   \   0000008E   E50E               LDI     R16, 94
   \   00000090   930000C6           STS     198, R16
   \   00000094   9100....           LDS     R16, Regim
   \   00000098   3001               CPI     R16, 1
   \   0000009A   F009               BREQ    $+2+2
   \   0000009C   C059               RJMP    ??sending_ppp_pac_7
   \   0000009E   E50E               LDI     R16, 94
   \   000000A0   C00B               RJMP    ??sending_ppp_pac_8
    317                if (buf_tx_232[count_tx_ppp]==0x7d){UDR0=0x5d;if(Regim==RG_DEBAG) UDR3=0x5d;return;} 
   \                     ??sending_ppp_pac_6:
   \   000000A2   370D               CPI     R16, 125
   \   000000A4   F461               BRNE    ??sending_ppp_pac_9
   \   000000A6   E50D               LDI     R16, 93
   \   000000A8   930000C6           STS     198, R16
   \   000000AC   9100....           LDS     R16, Regim
   \   000000B0   3001               CPI     R16, 1
   \   000000B2   F009               BREQ    $+2+2
   \   000000B4   C04D               RJMP    ??sending_ppp_pac_7
   \   000000B6   E50D               LDI     R16, 93
   \                     ??sending_ppp_pac_8:
   \   000000B8   93000136           STS     310, R16
   \   000000BC   9508               RET
    318                UDR0=buf_tx_232[count_tx_ppp]+0x20;if(Regim==RG_DEBAG) UDR3=buf_tx_232[count_tx_ppp]+0x20;
   \                     ??sending_ppp_pac_9:
   \   000000BE   5E00               SUBI    R16, 224
   \   000000C0   930000C6           STS     198, R16
   \   000000C4   9110....           LDS     R17, Regim
   \   000000C8   3011               CPI     R17, 1
   \   000000CA   F009               BREQ    $+2+2
   \   000000CC   C041               RJMP    ??sending_ppp_pac_7
   \   000000CE   CFF4               RJMP    ??sending_ppp_pac_8
    319                return;
    320              }
    321          
    322                                                                   
    323            count_tx_ppp++;                
   \                     ??sending_ppp_pac_5:
   \   000000D0   ....               LDI     R30, LOW(count_tx_ppp)
   \   000000D2   ....               LDI     R31, (count_tx_ppp) >> 8
   \   000000D4   8120               LD      R18, Z
   \   000000D6   8131               LDD     R19, Z+1
   \   000000D8   5F2F               SUBI    R18, 255
   \   000000DA   4F3F               SBCI    R19, 255
   \   000000DC   8320               ST      Z, R18
   \   000000DE   8331               STD     Z+1, R19
    324             
    325            if(count_tx_ppp==(vol_tx_ppp-1))goto exit_tx;   
   \   000000E0   8120               LD      R18, Z
   \   000000E2   8131               LDD     R19, Z+1
   \   000000E4   1720               CP      R18, R16
   \   000000E6   0731               CPC     R19, R17
   \   000000E8   F119               BREQ    ??sending_ppp_pac_10
    326            
    327                 
    328                 if ((buf_tx_232[count_tx_ppp]==0x7e)||(buf_tx_232[count_tx_ppp]==0x7d))
   \   000000EA   8100               LD      R16, Z
   \   000000EC   8111               LDD     R17, Z+1
   \   000000EE   01F8               MOVW    R31:R30, R17:R16
   \   000000F0   ....               SUBI    R30, LOW((-(buf_tx_232) & 0xFFFF))
   \   000000F2   ....               SBCI    R31, (-(buf_tx_232) & 0xFFFF) >> 8
   \   000000F4   8100               LD      R16, Z
   \   000000F6   370E               CPI     R16, 126
   \   000000F8   F011               BREQ    ??sending_ppp_pac_11
   \   000000FA   370D               CPI     R16, 125
   \   000000FC   F471               BRNE    ??sending_ppp_pac_12
    329                      {
    330                      fl_reg3.add_byte=1;
   \                     ??sending_ppp_pac_11:
   \   000000FE   ....               LDI     R30, LOW(fl_reg3)
   \   00000100   ....               LDI     R31, (fl_reg3) >> 8
   \   00000102   8100               LD      R16, Z
   \   00000104   6001               ORI     R16, 0x01
   \   00000106   8300               ST      Z, R16
    331                      UDR0=0x7d; 
   \   00000108   E70D               LDI     R16, 125
   \   0000010A   930000C6           STS     198, R16
    332                      if(Regim==RG_DEBAG) UDR3=0x7d;
   \   0000010E   9100....           LDS     R16, Regim
   \   00000112   3001               CPI     R16, 1
   \   00000114   F4E9               BRNE    ??sending_ppp_pac_7
   \   00000116   E70D               LDI     R16, 125
   \   00000118   CFCF               RJMP    ??sending_ppp_pac_8
    333                      return;
    334                      } 
    335                  
    336                 if ((buf_tx_232[count_tx_ppp]==17)||(buf_tx_232[count_tx_ppp]==19))
   \                     ??sending_ppp_pac_12:
   \   0000011A   3101               CPI     R16, 17
   \   0000011C   F381               BREQ    ??sending_ppp_pac_11
   \   0000011E   3103               CPI     R16, 19
   \   00000120   F371               BREQ    ??sending_ppp_pac_11
    337                      {
    338                      fl_reg3.add_byte=1;
    339                      UDR0=0x7d; 
    340                      if(Regim==RG_DEBAG) UDR3=0x7d;
    341                      return;
    342                      }     
    343                  
    344                 if ((buf_tx_232[count_tx_ppp]<0x20)&&(fl_ip.act_ip_end==1)) 
   \   00000122   3200               CPI     R16, 32
   \   00000124   F428               BRCC    ??sending_ppp_pac_10
   \   00000126   ....               LDI     R30, LOW(fl_ip)
   \   00000128   ....               LDI     R31, (fl_ip) >> 8
   \   0000012A   8100               LD      R16, Z
   \   0000012C   FD00               SBRC    R16, 0
   \   0000012E   CFE7               RJMP    ??sending_ppp_pac_11
    345                      {
    346                      fl_reg3.add_byte=1;
    347                      UDR0=0x7d; 
    348                      if(Regim==RG_DEBAG) UDR3=0x7d;
    349                      return;
    350                      }   
    351                 
    352                            
    353          exit_tx:  UDR0=buf_tx_232[count_tx_ppp]; if(Regim==RG_DEBAG) UDR3=buf_tx_232[count_tx_ppp];
   \                     ??sending_ppp_pac_10:
   \   00000130   ....               LDI     R30, LOW(count_tx_ppp)
   \   00000132   ....               LDI     R31, (count_tx_ppp) >> 8
   \   00000134   8100               LD      R16, Z
   \   00000136   8111               LDD     R17, Z+1
   \   00000138   01F8               MOVW    R31:R30, R17:R16
   \   0000013A   ....               SUBI    R30, LOW((-(buf_tx_232) & 0xFFFF))
   \   0000013C   ....               SBCI    R31, (-(buf_tx_232) & 0xFFFF) >> 8
   \   0000013E   8100               LD      R16, Z
   \   00000140   930000C6           STS     198, R16
   \   00000144   9110....           LDS     R17, Regim
   \   00000148   3011               CPI     R17, 1
   \   0000014A   F411               BRNE    ??sending_ppp_pac_7
   \   0000014C   93000136           STS     310, R16
   \                     ??sending_ppp_pac_7:
   \   00000150   9508               RET
    354          } 
    355          
    356           
    357           

   \                                 In segment CODE, align 2, keep-with-next
    358           void recive_buf1(unsigned char temp)
   \                     recive_buf1:
    359            {
   \   00000000   01AD               MOVW    R21:R20, R27:R26
    360            
    361           // if(Regim==RG_DEBAG)UDR1=temp;  //!!!!!!!! poka
    362              
    363            if(fl_rx_ppp.fl_7e==1)
   \   00000002   ....               LDI     R30, LOW(fl_rx_ppp)
   \   00000004   ....               LDI     R31, (fl_rx_ppp) >> 8
   \   00000006   8110               LD      R17, Z
   \   00000008   FF10               SBRS    R17, 0
   \   0000000A   C078               RJMP    ??recive_buf1_0
    364                            { 
    365                             
    366                             
    367                              if(Buf1_rx_ppp.ln_data>=VOL_RX_PPP)// яЁютхЁър эр яхЁхяюыэхэшх яхЁтюую сґЄхЁр
   \   0000000C   ....               LDI     R30, LOW((Buf1_rx_ppp + 330))
   \   0000000E   ....               LDI     R31, HIGH((Buf1_rx_ppp + 330))
   \   00000010   8120               LD      R18, Z
   \   00000012   8131               LDD     R19, Z+1
   \   00000014   342A               CPI     R18, 74
   \   00000016   E011               LDI     R17, 1
   \   00000018   0731               CPC     R19, R17
   \   0000001A   F068               BRCS    ??recive_buf1_1
    368                              {
    369                                 Buf1_rx_ppp.ln_data=0;
   \   0000001C   E000               LDI     R16, 0
   \   0000001E   8300               ST      Z, R16
   \   00000020   8301               STD     Z+1, R16
    370                                 fl_rx_ppp.fl_7e=0;
    371                                 fl_rx_ppp.fl_7d=0;
   \   00000022   ....               LDI     R30, LOW(fl_rx_ppp)
   \   00000024   ....               LDI     R31, (fl_rx_ppp) >> 8
   \   00000026   8100               LD      R16, Z
   \   00000028   7F0C               ANDI    R16, 0xFC
   \   0000002A   8300               ST      Z, R16
    372                                 S2_OFF;        
   \   0000002C   9840               CBI     0x08, 0x00
   \   0000002E   9841               CBI     0x08, 0x01
    373                                 
    374                                 S3_GR;//!!!!proverka
   \   00000030   9842               CBI     0x08, 0x02
   \   00000032   9A43               SBI     0x08, 0x03
    375                                 return;
   \   00000034   C073               RJMP    ??recive_buf1_2
    376                              }
    377            
    378                               
    379                              // //////////ґъырфър
    380                              if(temp==0x7d)
   \                     ??recive_buf1_1:
   \   00000036   370D               CPI     R16, 125
   \   00000038   F431               BRNE    ??recive_buf1_3
    381                                 {  
    382                                   fl_rx_ppp.fl_7d=1;
   \   0000003A   ....               LDI     R30, LOW(fl_rx_ppp)
   \   0000003C   ....               LDI     R31, (fl_rx_ppp) >> 8
   \   0000003E   8100               LD      R16, Z
   \   00000040   6002               ORI     R16, 0x02
   \                     ??recive_buf1_4:
   \   00000042   8300               ST      Z, R16
    383                                   return;
   \   00000044   C06B               RJMP    ??recive_buf1_2
    384                                 }
    385                                  else
    386                                 {  
    387                                   if (fl_rx_ppp.fl_7d==1)
   \                     ??recive_buf1_3:
   \   00000046   ....               LDI     R30, LOW(Buf1_rx_ppp)
   \   00000048   ....               LDI     R31, (Buf1_rx_ppp) >> 8
   \   0000004A   0FE2               ADD     R30, R18
   \   0000004C   1FF3               ADC     R31, R19
   \   0000004E   ....               LDI     R26, LOW(fl_rx_ppp)
   \   00000050   ....               LDI     R27, (fl_rx_ppp) >> 8
   \   00000052   911C               LD      R17, X
   \   00000054   FF11               SBRS    R17, 1
   \   00000056   C010               RJMP    ??recive_buf1_5
    388                                      {                 
    389                                        
    390                                        Buf1_rx_ppp.data[Buf1_rx_ppp.ln_data]=temp ^ 0x20;
   \   00000058   E210               LDI     R17, 32
   \   0000005A   2710               EOR     R17, R16
   \   0000005C   8310               ST      Z, R17
    391                                        Buf1_rx_ppp.ln_data++;
   \   0000005E   ....               LDI     R30, LOW((Buf1_rx_ppp + 330))
   \   00000060   ....               LDI     R31, HIGH((Buf1_rx_ppp + 330))
   \   00000062   8100               LD      R16, Z
   \   00000064   8111               LDD     R17, Z+1
   \   00000066   5F0F               SUBI    R16, 255
   \   00000068   4F1F               SBCI    R17, 255
   \   0000006A   8300               ST      Z, R16
   \   0000006C   8311               STD     Z+1, R17
    392                                        fl_rx_ppp.fl_7d=0;
   \   0000006E   ....               LDI     R30, LOW(fl_rx_ppp)
   \   00000070   ....               LDI     R31, (fl_rx_ppp) >> 8
   \   00000072   8100               LD      R16, Z
   \   00000074   7F0D               ANDI    R16, 0xFD
   \   00000076   CFE5               RJMP    ??recive_buf1_4
    393                                        /*
    394                                        if((temp>=0x20)&&(temp<0x40)){Buf1_rx_ppp.data[Buf1_rx_ppp.ln_data]=temp-0x20;Buf1_rx_ppp.ln_data++;fl_rx_ppp.fl_7d=0;return;}                                
    395                                        if(temp==0x5e){Buf1_rx_ppp.data[Buf1_rx_ppp.ln_data]=0x7e;Buf1_rx_ppp.ln_data++;fl_rx_ppp.fl_7d=0;return;}  
    396                                        if(temp==0x5d){Buf1_rx_ppp.data[Buf1_rx_ppp.ln_data]=0x7d;Buf1_rx_ppp.ln_data++;fl_rx_ppp.fl_7d=0;return;} 
    397                                        Buf1_rx_ppp.ln_data=0;
    398                                        fl_rx_ppp.fl_7e=0;
    399                                        fl_rx_ppp.fl_7d=0;             
    400                                        S3_RD;//!!!!proverka
    401                                        S2_OFF;
    402                                        */
    403                                        
    404                                        return;
    405                                       }  
    406                                      else
    407                                        {        
    408                                             Buf1_rx_ppp.data[Buf1_rx_ppp.ln_data] =temp;
   \                     ??recive_buf1_5:
   \   00000078   8300               ST      Z, R16
    409                                             Buf1_rx_ppp.ln_data++;                                                  
   \   0000007A   ....               LDI     R30, LOW((Buf1_rx_ppp + 330))
   \   0000007C   ....               LDI     R31, HIGH((Buf1_rx_ppp + 330))
   \   0000007E   8120               LD      R18, Z
   \   00000080   8131               LDD     R19, Z+1
   \   00000082   5F2F               SUBI    R18, 255
   \   00000084   4F3F               SBCI    R19, 255
   \   00000086   8320               ST      Z, R18
   \   00000088   8331               STD     Z+1, R19
    410                                  
    411                                               if(temp==0x7e)         //эхҐ яхЁхяюыэхэш 
   \   0000008A   370E               CPI     R16, 126
   \   0000008C   F009               BREQ    $+2+2
   \   0000008E   C046               RJMP    ??recive_buf1_2
    412                                                  {  
    413                                                   if(Buf1_rx_ppp.ln_data<=2) //хёыш яюфЁ ф фтр 0x7e 
   \   00000090   ....               LDI     R26, LOW((Buf1_rx_ppp + 330))
   \   00000092   ....               LDI     R27, HIGH((Buf1_rx_ppp + 330))
   \   00000094   91ED               LD      R30, X+
   \   00000096   91FC               LD      R31, X
   \   00000098   9733               SBIW    R31:R30, 3
   \   0000009A   F478               BRCC    ??recive_buf1_6
    414                                                       {
    415                                                        //  if(ppp_packet.rcvd==1)???????????????
    416                                                        /*
    417                                                        if((layer_PPP==LAYER_IP)&&(Buf1_rx_ppp.ln_data==2))
    418                                                        {
    419                                                         S4_RD;//proverka!!!!!
    420                                                         while(1)__watchdog_reset();//proverka!!!!!
    421                                                        }
    422                                                        */
    423                                                         
    424                                                        fl_rx_ppp.fl_7e=1;   
   \   0000009C   ....               LDI     R30, LOW(fl_rx_ppp)
   \   0000009E   ....               LDI     R31, (fl_rx_ppp) >> 8
   \   000000A0   8100               LD      R16, Z
   \   000000A2   6001               ORI     R16, 0x01
   \   000000A4   8300               ST      Z, R16
    425                                                        Buf1_rx_ppp.data[0]=temp;  
   \   000000A6   E70E               LDI     R16, 126
   \   000000A8   9300....           STS     Buf1_rx_ppp, R16
    426                                                        Buf1_rx_ppp.ln_data=1; 
   \   000000AC   E001               LDI     R16, 1
   \   000000AE   E010               LDI     R17, 0
   \   000000B0   ....               LDI     R30, LOW((Buf1_rx_ppp + 330))
   \   000000B2   ....               LDI     R31, HIGH((Buf1_rx_ppp + 330))
   \   000000B4   8300               ST      Z, R16
   \   000000B6   8311               STD     Z+1, R17
    427                                                        return;
   \   000000B8   C031               RJMP    ??recive_buf1_2
    428                                                        }
    429                                                  
    430                                                              
    431                                                   S2_OFF;
   \                     ??recive_buf1_6:
   \   000000BA   9840               CBI     0x08, 0x00
   \   000000BC   9841               CBI     0x08, 0x01
    432                                                   fl_rx_ppp.fl_7e=0;
    433                                                   fl_rx_ppp.switcher=1;
   \   000000BE   ....               LDI     R30, LOW(fl_rx_ppp)
   \   000000C0   ....               LDI     R31, (fl_rx_ppp) >> 8
   \   000000C2   8100               LD      R16, Z
   \   000000C4   7F0E               ANDI    R16, 0xFE
   \   000000C6   8300               ST      Z, R16
   \   000000C8   8100               LD      R16, Z
   \   000000CA   6004               ORI     R16, 0x04
   \   000000CC   8300               ST      Z, R16
    434                                                   Buf1_rx_ppp.rec=TRUE; 
   \   000000CE   E001               LDI     R16, 1
   \   000000D0   9300....           STS     (Buf1_rx_ppp + 332), R16
    435                                                   Buf1_rx_ppp.busy=TRUE;
   \   000000D4   9300....           STS     (Buf1_rx_ppp + 333), R16
    436                                                   if(Buf2_rx_ppp.busy==TRUE)
   \   000000D8   9100....           LDS     R16, (Buf2_rx_ppp + 333)
   \   000000DC   3001               CPI     R16, 1
   \   000000DE   F4F1               BRNE    ??recive_buf1_2
    437                                                    {
    438                                                  
    439                                                     Buf2_rx_ppp.check_busy=TRUE;
   \   000000E0   E001               LDI     R16, 1
   \   000000E2   9300....           STS     (Buf2_rx_ppp + 334), R16
    440                                                     UCSR0B=UCSR0B & ~RXEN;
   \   000000E6   910000C1           LDS     R16, 193
   \   000000EA   7E0F               ANDI    R16, 0xEF
   \   000000EC   930000C1           STS     193, R16
    441                                                     UCSR0B=UCSR0B & ~RXCIE; 
   \   000000F0   910000C1           LDS     R16, 193
   \   000000F4   770F               ANDI    R16, 0x7F
   \   000000F6   930000C1           STS     193, R16
   \   000000FA   C010               RJMP    ??recive_buf1_2
    442                                                    }
    443                                                   return;
    444                                                  }  
    445                                         }
    446                            
    447                                  }
    448                                              
    449                              return;   
    450                            }         //ъ яхъхҐ схушэ
    451                            else
    452                            {
    453                             if(temp==0x7e)
   \                     ??recive_buf1_0:
   \   000000FC   370E               CPI     R16, 126
   \   000000FE   F471               BRNE    ??recive_buf1_2
    454                                    {
    455                                  //  if(ppp_packet.rcvd==1)???????????????                          
    456                                    fl_rx_ppp.fl_7e=1;   
   \   00000100   8100               LD      R16, Z
   \   00000102   6001               ORI     R16, 0x01
   \   00000104   8300               ST      Z, R16
    457                                    Buf1_rx_ppp.data[0]=temp;  
   \   00000106   E70E               LDI     R16, 126
   \   00000108   9300....           STS     Buf1_rx_ppp, R16
    458                                    Buf1_rx_ppp.ln_data=1;
   \   0000010C   E001               LDI     R16, 1
   \   0000010E   E010               LDI     R17, 0
   \   00000110   ....               LDI     R30, LOW((Buf1_rx_ppp + 330))
   \   00000112   ....               LDI     R31, HIGH((Buf1_rx_ppp + 330))
   \   00000114   8300               ST      Z, R16
   \   00000116   8311               STD     Z+1, R17
    459                                    S2_GR; 
   \   00000118   9840               CBI     0x08, 0x00
   \   0000011A   9A41               SBI     0x08, 0x01
   \                     ??recive_buf1_2:
   \   0000011C   01DA               MOVW    R27:R26, R21:R20
   \   0000011E   9508               RET
    460                                    }
    461                            }
    462            }
    463           
    464          
    465          
    466          

   \                                 In segment CODE, align 2, keep-with-next
    467          void recive_buf2(unsigned char temp)
   \                     recive_buf2:
    468            {
   \   00000000   01AD               MOVW    R21:R20, R27:R26
    469            
    470           // if(Regim==RG_DEBAG)UDR1=temp;  //!!!!!!!! poka
    471              
    472            if(fl_rx_ppp.fl_7e==1)
   \   00000002   ....               LDI     R30, LOW(fl_rx_ppp)
   \   00000004   ....               LDI     R31, (fl_rx_ppp) >> 8
   \   00000006   8110               LD      R17, Z
   \   00000008   FF10               SBRS    R17, 0
   \   0000000A   C075               RJMP    ??recive_buf2_0
    473                            { 
    474                             
    475                             
    476                              if(Buf2_rx_ppp.ln_data>=VOL_RX_PPP)// яЁютхЁър эр яхЁхяюыэхэшх яхЁтюую сґЄхЁр
   \   0000000C   ....               LDI     R30, LOW((Buf2_rx_ppp + 330))
   \   0000000E   ....               LDI     R31, HIGH((Buf2_rx_ppp + 330))
   \   00000010   8120               LD      R18, Z
   \   00000012   8131               LDD     R19, Z+1
   \   00000014   342A               CPI     R18, 74
   \   00000016   E011               LDI     R17, 1
   \   00000018   0731               CPC     R19, R17
   \   0000001A   F068               BRCS    ??recive_buf2_1
    477                              {
    478                                 Buf2_rx_ppp.ln_data=0;
   \   0000001C   E000               LDI     R16, 0
   \   0000001E   8300               ST      Z, R16
   \   00000020   8301               STD     Z+1, R16
    479                                 fl_rx_ppp.fl_7e=0;
    480                                 fl_rx_ppp.fl_7d=0;
   \   00000022   ....               LDI     R30, LOW(fl_rx_ppp)
   \   00000024   ....               LDI     R31, (fl_rx_ppp) >> 8
   \   00000026   8100               LD      R16, Z
   \   00000028   7F0C               ANDI    R16, 0xFC
   \   0000002A   8300               ST      Z, R16
    481                                 S2_OFF;
   \   0000002C   9840               CBI     0x08, 0x00
   \   0000002E   9841               CBI     0x08, 0x01
    482                                 S3_GR;//!!!!proverka
   \   00000030   9842               CBI     0x08, 0x02
   \   00000032   9A43               SBI     0x08, 0x03
    483                                 return;
   \   00000034   C070               RJMP    ??recive_buf2_2
    484                              }
    485            
    486                               
    487                              // //////////ґъырфър
    488                              if(temp==0x7d)
   \                     ??recive_buf2_1:
   \   00000036   370D               CPI     R16, 125
   \   00000038   F431               BRNE    ??recive_buf2_3
    489                                 {  
    490                                   fl_rx_ppp.fl_7d=1;
   \   0000003A   ....               LDI     R30, LOW(fl_rx_ppp)
   \   0000003C   ....               LDI     R31, (fl_rx_ppp) >> 8
   \   0000003E   8100               LD      R16, Z
   \   00000040   6002               ORI     R16, 0x02
   \                     ??recive_buf2_4:
   \   00000042   8300               ST      Z, R16
    491                                   return;
   \   00000044   C068               RJMP    ??recive_buf2_2
    492                                 }
    493                                  else
    494                                 {  
    495                                   if (fl_rx_ppp.fl_7d==1)
   \                     ??recive_buf2_3:
   \   00000046   ....               LDI     R30, LOW(Buf2_rx_ppp)
   \   00000048   ....               LDI     R31, (Buf2_rx_ppp) >> 8
   \   0000004A   0FE2               ADD     R30, R18
   \   0000004C   1FF3               ADC     R31, R19
   \   0000004E   ....               LDI     R26, LOW(fl_rx_ppp)
   \   00000050   ....               LDI     R27, (fl_rx_ppp) >> 8
   \   00000052   911C               LD      R17, X
   \   00000054   FF11               SBRS    R17, 1
   \   00000056   C010               RJMP    ??recive_buf2_5
    496                                      { 
    497                                        Buf2_rx_ppp.data[Buf2_rx_ppp.ln_data]=temp ^ 0x20;
   \   00000058   E210               LDI     R17, 32
   \   0000005A   2710               EOR     R17, R16
   \   0000005C   8310               ST      Z, R17
    498                                        Buf2_rx_ppp.ln_data++;
   \   0000005E   ....               LDI     R30, LOW((Buf2_rx_ppp + 330))
   \   00000060   ....               LDI     R31, HIGH((Buf2_rx_ppp + 330))
   \   00000062   8100               LD      R16, Z
   \   00000064   8111               LDD     R17, Z+1
   \   00000066   5F0F               SUBI    R16, 255
   \   00000068   4F1F               SBCI    R17, 255
   \   0000006A   8300               ST      Z, R16
   \   0000006C   8311               STD     Z+1, R17
    499                                        fl_rx_ppp.fl_7d=0;
   \   0000006E   ....               LDI     R30, LOW(fl_rx_ppp)
   \   00000070   ....               LDI     R31, (fl_rx_ppp) >> 8
   \   00000072   8100               LD      R16, Z
   \   00000074   7F0D               ANDI    R16, 0xFD
   \   00000076   CFE5               RJMP    ??recive_buf2_4
    500                                        
    501                                        /*                    
    502                                        if((temp>=0x20)&&(temp<0x40)){Buf2_rx_ppp.data[Buf2_rx_ppp.ln_data]=temp-0x20;Buf2_rx_ppp.ln_data++;fl_rx_ppp.fl_7d=0;return;}                                
    503                                        if(temp==0x5e){Buf2_rx_ppp.data[Buf2_rx_ppp.ln_data]=0x7e;Buf2_rx_ppp.ln_data++;fl_rx_ppp.fl_7d=0;return;}  
    504                                        if(temp==0x5d){Buf2_rx_ppp.data[Buf2_rx_ppp.ln_data]=0x7d;Buf2_rx_ppp.ln_data++;fl_rx_ppp.fl_7d=0;return;} 
    505                                        Buf2_rx_ppp.ln_data=0;
    506                                        fl_rx_ppp.fl_7e=0;
    507                                        fl_rx_ppp.fl_7d=0;
    508                                        S3_RD;//!!!!proverka
    509                                        S2_OFF;
    510                                        */
    511                                        return;
    512                                       }  
    513                                      else
    514                                        {        
    515                                             Buf2_rx_ppp.data[Buf2_rx_ppp.ln_data]=temp;
   \                     ??recive_buf2_5:
   \   00000078   8300               ST      Z, R16
    516                                             Buf2_rx_ppp.ln_data++;                                                  
   \   0000007A   ....               LDI     R30, LOW((Buf2_rx_ppp + 330))
   \   0000007C   ....               LDI     R31, HIGH((Buf2_rx_ppp + 330))
   \   0000007E   8120               LD      R18, Z
   \   00000080   8131               LDD     R19, Z+1
   \   00000082   5F2F               SUBI    R18, 255
   \   00000084   4F3F               SBCI    R19, 255
   \   00000086   8320               ST      Z, R18
   \   00000088   8331               STD     Z+1, R19
    517                                  
    518                                               if(temp==0x7e)         //эхҐ яхЁхяюыэхэш 
   \   0000008A   370E               CPI     R16, 126
   \   0000008C   F009               BREQ    $+2+2
   \   0000008E   C043               RJMP    ??recive_buf2_2
    519                                                  {  
    520                                                   if(Buf2_rx_ppp.ln_data<=2) //хёыш яюфЁ ф фтр 0x7e 
   \   00000090   ....               LDI     R26, LOW((Buf2_rx_ppp + 330))
   \   00000092   ....               LDI     R27, HIGH((Buf2_rx_ppp + 330))
   \   00000094   91ED               LD      R30, X+
   \   00000096   91FC               LD      R31, X
   \   00000098   9733               SBIW    R31:R30, 3
   \   0000009A   F478               BRCC    ??recive_buf2_6
    521                                                       {
    522                                                        /*
    523                                                         if((layer_PPP==LAYER_IP)&&(Buf2_rx_ppp.ln_data==2))
    524                                                        {
    525                                                         S5_RD;//proverka!!!!!
    526                                                         while(1)__watchdog_reset();//proverka!!!!!
    527                                                        }
    528                                                        */
    529                                                         
    530                                                         //  if(ppp_packet.rcvd==1)???????????????
    531                                                        fl_rx_ppp.fl_7e=1;   
   \   0000009C   ....               LDI     R30, LOW(fl_rx_ppp)
   \   0000009E   ....               LDI     R31, (fl_rx_ppp) >> 8
   \   000000A0   8100               LD      R16, Z
   \   000000A2   6001               ORI     R16, 0x01
   \   000000A4   8300               ST      Z, R16
    532                                                        Buf2_rx_ppp.data[0]=temp;  
   \   000000A6   E70E               LDI     R16, 126
   \   000000A8   9300....           STS     Buf2_rx_ppp, R16
    533                                                        Buf2_rx_ppp.ln_data=1; 
   \   000000AC   E001               LDI     R16, 1
   \   000000AE   E010               LDI     R17, 0
   \   000000B0   ....               LDI     R30, LOW((Buf2_rx_ppp + 330))
   \   000000B2   ....               LDI     R31, HIGH((Buf2_rx_ppp + 330))
   \   000000B4   8300               ST      Z, R16
   \   000000B6   8311               STD     Z+1, R17
    534                                                        return;
   \   000000B8   C02E               RJMP    ??recive_buf2_2
    535                                                        }
    536            
    537          
    538                                                   S2_OFF;
   \                     ??recive_buf2_6:
   \   000000BA   9840               CBI     0x08, 0x00
   \   000000BC   9841               CBI     0x08, 0x01
    539                                                   fl_rx_ppp.fl_7e=0;
    540                                                   fl_rx_ppp.switcher=0;
   \   000000BE   ....               LDI     R30, LOW(fl_rx_ppp)
   \   000000C0   ....               LDI     R31, (fl_rx_ppp) >> 8
   \   000000C2   8100               LD      R16, Z
   \   000000C4   7F0A               ANDI    R16, 0xFA
   \   000000C6   8300               ST      Z, R16
    541                                                   Buf2_rx_ppp.rec=TRUE; 
   \   000000C8   E001               LDI     R16, 1
   \   000000CA   9300....           STS     (Buf2_rx_ppp + 332), R16
    542                                                   Buf2_rx_ppp.busy=TRUE;
   \   000000CE   9300....           STS     (Buf2_rx_ppp + 333), R16
    543                                                   if(Buf1_rx_ppp.busy==TRUE)
   \   000000D2   9100....           LDS     R16, (Buf1_rx_ppp + 333)
   \   000000D6   3001               CPI     R16, 1
   \   000000D8   F4F1               BRNE    ??recive_buf2_2
    544                                                    {
    545                                                     
    546                                                     Buf1_rx_ppp.check_busy=TRUE;
   \   000000DA   E001               LDI     R16, 1
   \   000000DC   9300....           STS     (Buf1_rx_ppp + 334), R16
    547                                                     UCSR0B=UCSR0B & ~RXEN;
   \   000000E0   910000C1           LDS     R16, 193
   \   000000E4   7E0F               ANDI    R16, 0xEF
   \   000000E6   930000C1           STS     193, R16
    548                                                     UCSR0B=UCSR0B & ~RXCIE; 
   \   000000EA   910000C1           LDS     R16, 193
   \   000000EE   770F               ANDI    R16, 0x7F
   \   000000F0   930000C1           STS     193, R16
   \   000000F4   C010               RJMP    ??recive_buf2_2
    549                                                    }
    550                                                   return;
    551                                                  }  
    552                                         }
    553                            
    554                                  }
    555                                              
    556                              return;   
    557                            }         //ъ яхъхҐ схушэ
    558                            else
    559                            {
    560                             if(temp==0x7e)
   \                     ??recive_buf2_0:
   \   000000F6   370E               CPI     R16, 126
   \   000000F8   F471               BRNE    ??recive_buf2_2
    561                                    {
    562                                  //  if(ppp_packet.rcvd==1)???????????????
    563                                    fl_rx_ppp.fl_7e=1;   
   \   000000FA   8100               LD      R16, Z
   \   000000FC   6001               ORI     R16, 0x01
   \   000000FE   8300               ST      Z, R16
    564                                    Buf2_rx_ppp.data[0]=temp;  
   \   00000100   E70E               LDI     R16, 126
   \   00000102   9300....           STS     Buf2_rx_ppp, R16
    565                                    Buf2_rx_ppp.ln_data=1; 
   \   00000106   E001               LDI     R16, 1
   \   00000108   E010               LDI     R17, 0
   \   0000010A   ....               LDI     R30, LOW((Buf2_rx_ppp + 330))
   \   0000010C   ....               LDI     R31, HIGH((Buf2_rx_ppp + 330))
   \   0000010E   8300               ST      Z, R16
   \   00000110   8311               STD     Z+1, R17
    566                                    S2_GR;
   \   00000112   9840               CBI     0x08, 0x00
   \   00000114   9A41               SBI     0x08, 0x01
   \                     ??recive_buf2_2:
   \   00000116   01DA               MOVW    R27:R26, R21:R20
   \   00000118   9508               RET
    567                                    }        
    568                            }
    569            } 
    570           //EEEEEEEEEEEEEEEEEEEEEEEEEEEEEEEEEEEEEEEEEEEEEEEEEEEEEEEEEEEEEEE
    571          
    572          
    573          
    574          
    575          
    576          
    577          //////////////////////////////////////////////////////////////////////////////////////////////
    578          #pragma vector=TIMER0_COMPA_vect       

   \                                 In segment CODE, align 2, keep-with-next
    579               __interrupt void TIMER0_COMPA_interrupt(void)
   \                     TIMER0_COMPA_interrupt:
    580           {
   \   00000000   93FA               ST      -Y, R31
   \   00000002   93EA               ST      -Y, R30
   \   00000004   932A               ST      -Y, R18
   \   00000006   931A               ST      -Y, R17
   \   00000008   930A               ST      -Y, R16
   \   0000000A   B72F               IN      R18, 0x3F
    581             
    582             
    583             fl_wdt.from_timer0=1;
   \   0000000C   ....               LDI     R30, LOW(fl_wdt)
   \   0000000E   ....               LDI     R31, (fl_wdt) >> 8
   \   00000010   8100               LD      R16, Z
   \   00000012   6004               ORI     R16, 0x04
   \   00000014   8300               ST      Z, R16
    584             
    585             // __enable_interrupt();
    586             
    587             
    588             if(PING & TCC1)struct_tcc1.tek_pin=1;else struct_tcc1.tek_pin=0;
   \   00000016   ....               LDI     R30, LOW(struct_tcc1)
   \   00000018   ....               LDI     R31, (struct_tcc1) >> 8
   \   0000001A   8100               LD      R16, Z
   \   0000001C   9B92               SBIS    0x12, 0x02
   \   0000001E   C002               RJMP    ??TIMER0_COMPA_interrupt_0
   \   00000020   6001               ORI     R16, 0x01
   \   00000022   C001               RJMP    ??TIMER0_COMPA_interrupt_1
   \                     ??TIMER0_COMPA_interrupt_0:
   \   00000024   7F0E               ANDI    R16, 0xFE
   \                     ??TIMER0_COMPA_interrupt_1:
   \   00000026   8300               ST      Z, R16
    589             
    590             if(struct_tcc1.fl_ch_tc==1)
   \   00000028   8100               LD      R16, Z
   \   0000002A   FF02               SBRS    R16, 2
   \   0000002C   C013               RJMP    ??TIMER0_COMPA_interrupt_2
    591               {
    592                 struct_tcc1.count_tc--;
   \   0000002E   8102               LDD     R16, Z+2
   \   00000030   8113               LDD     R17, Z+3
   \   00000032   5001               SUBI    R16, 1
   \   00000034   4010               SBCI    R17, 0
   \   00000036   8302               STD     Z+2, R16
   \   00000038   8313               STD     Z+3, R17
    593                 if(struct_tcc1.count_tc==0)
   \   0000003A   8102               LDD     R16, Z+2
   \   0000003C   8113               LDD     R17, Z+3
   \   0000003E   2B01               OR      R16, R17
   \   00000040   F4C1               BRNE    ??TIMER0_COMPA_interrupt_3
    594                 {
    595                   struct_tcc1.fl_ch_tc=0;
   \   00000042   8100               LD      R16, Z
   \   00000044   7F0B               ANDI    R16, 0xFB
   \   00000046   8300               ST      Z, R16
    596                   struct_tcc1.real_tc=0x01 & (~struct_tcc1.tek_pin);
   \   00000048   8100               LD      R16, Z
   \   0000004A   7001               ANDI    R16, 0x01
   \   0000004C   9500               COM     R16
   \   0000004E   7001               ANDI    R16, 0x01
   \   00000050   8301               STD     Z+1, R16
   \   00000052   C00F               RJMP    ??TIMER0_COMPA_interrupt_3
    597                 }
    598               } 
    599               else
    600               {
    601                 if(struct_tcc1.tek_pin!=struct_tcc1.old_pin)
   \                     ??TIMER0_COMPA_interrupt_2:
   \   00000054   8100               LD      R16, Z
   \   00000056   7001               ANDI    R16, 0x01
   \   00000058   8110               LD      R17, Z
   \   0000005A   FB11               BST     R17, 1
   \   0000005C   E010               LDI     R17, 0
   \   0000005E   F910               BLD     R17, 0
   \   00000060   1701               CP      R16, R17
   \   00000062   F039               BREQ    ??TIMER0_COMPA_interrupt_3
    602                 {
    603                  struct_tcc1.fl_ch_tc=1;
   \   00000064   8100               LD      R16, Z
   \   00000066   6004               ORI     R16, 0x04
   \   00000068   8300               ST      Z, R16
    604                  struct_tcc1.count_tc=882;
   \   0000006A   E702               LDI     R16, 114
   \   0000006C   E013               LDI     R17, 3
   \   0000006E   8302               STD     Z+2, R16
   \   00000070   8313               STD     Z+3, R17
    605                 }
    606               }
    607              struct_tcc1.old_pin=struct_tcc1.tek_pin;
   \                     ??TIMER0_COMPA_interrupt_3:
   \   00000072   8100               LD      R16, Z
   \   00000074   7001               ANDI    R16, 0x01
   \   00000076   FB00               BST     R16, 0
   \   00000078   8100               LD      R16, Z
   \   0000007A   F901               BLD     R16, 1
   \   0000007C   8300               ST      Z, R16
    608             
    609           
    610           }
   \   0000007E   BF2F               OUT     0x3F, R18
   \   00000080   9109               LD      R16, Y+
   \   00000082   9119               LD      R17, Y+
   \   00000084   9129               LD      R18, Y+
   \   00000086   91E9               LD      R30, Y+
   \   00000088   91F9               LD      R31, Y+
   \   0000008A   9518               RETI
    611          //////////////////////////////////////////////1/16000000///////////////////////////////////////////////
    612          
    613          
    614          
    615          //////////////////////////////////////////////////////////////////////////////////////////
    616          #pragma vector=TIMER2_COMPA_vect     //1 ьшыышёхъґэфр

   \                                 In segment CODE, align 2, keep-with-next
    617               __interrupt void TIMER2_COMPA_interrupt(void)
   \                     TIMER2_COMPA_interrupt:
    618            {
   \   00000000   925A               ST      -Y, R5
   \   00000002   924A               ST      -Y, R4
   \   00000004   93BA               ST      -Y, R27
   \   00000006   93AA               ST      -Y, R26
   \   00000008   939A               ST      -Y, R25
   \   0000000A   938A               ST      -Y, R24
   \   0000000C   93FA               ST      -Y, R31
   \   0000000E   93EA               ST      -Y, R30
   \   00000010   923A               ST      -Y, R3
   \   00000012   922A               ST      -Y, R2
   \   00000014   921A               ST      -Y, R1
   \   00000016   920A               ST      -Y, R0
   \   00000018   937A               ST      -Y, R23
   \   0000001A   936A               ST      -Y, R22
   \   0000001C   935A               ST      -Y, R21
   \   0000001E   934A               ST      -Y, R20
   \   00000020   933A               ST      -Y, R19
   \   00000022   932A               ST      -Y, R18
   \   00000024   931A               ST      -Y, R17
   \   00000026   930A               ST      -Y, R16
   \   00000028   B64F               IN      R4, 0x3F
   \   0000002A   B65B               IN      R5, 0x3B
   \   0000002C                      REQUIRE ?Register_R4_is_cg_reg
   \   0000002C                      REQUIRE ?Register_R5_is_cg_reg
    619            
    620             unsigned char temp;
    621            
    622              fl_wdt.from_timer2=1;
   \   0000002C   ....               LDI     R30, LOW(fl_wdt)
   \   0000002E   ....               LDI     R31, (fl_wdt) >> 8
   \   00000030   8100               LD      R16, Z
   \   00000032   6200               ORI     R16, 0x20
   \   00000034   8300               ST      Z, R16
    623              
    624              cnt_clr_wdt++;
   \   00000036   ....               LDI     R24, LOW(Rs485_1)
   \   00000038   ....               LDI     R25, (Rs485_1) >> 8
   \   0000003A   01FC               MOVW    R31:R30, R25:R24
   \   0000003C   A906               LDD     R16, Z+54
   \   0000003E   9503               INC     R16
   \   00000040   AB06               STD     Z+54, R16
    625            if (cnt_clr_wdt>=250)
   \   00000042   A906               LDD     R16, Z+54
   \   00000044   3F0A               CPI     R16, 250
   \   00000046   F0A8               BRCS    ??TIMER2_COMPA_interrupt_0
    626               {
    627               cnt_clr_wdt=0;
   \   00000048   E000               LDI     R16, 0
   \   0000004A   AB06               STD     Z+54, R16
    628               fl_wdt.clr_wdt=1;
   \   0000004C   ....               LDI     R30, LOW(fl_wdt)
   \   0000004E   ....               LDI     R31, (fl_wdt) >> 8
   \   00000050   8100               LD      R16, Z
   \   00000052   6001               ORI     R16, 0x01
   \   00000054   8300               ST      Z, R16
    629               cnt_flag_out++;
   \   00000056   01FC               MOVW    R31:R30, R25:R24
   \   00000058   A907               LDD     R16, Z+55
   \   0000005A   9503               INC     R16
   \   0000005C   AB07               STD     Z+55, R16
    630               if (cnt_flag_out>=50)
   \   0000005E   A907               LDD     R16, Z+55
   \   00000060   3302               CPI     R16, 50
   \   00000062   F038               BRCS    ??TIMER2_COMPA_interrupt_0
    631                 {
    632                  cnt_flag_out=0;
   \   00000064   E000               LDI     R16, 0
   \   00000066   AB07               STD     Z+55, R16
    633                  fl_wdt.fl_out=1;
   \   00000068   ....               LDI     R30, LOW(fl_wdt)
   \   0000006A   ....               LDI     R31, (fl_wdt) >> 8
   \   0000006C   8100               LD      R16, Z
   \   0000006E   6002               ORI     R16, 0x02
   \   00000070   8300               ST      Z, R16
    634                 } 
    635                }
    636              
    637             
    638              if(fl_cts_232.on==1)
   \                     ??TIMER2_COMPA_interrupt_0:
   \   00000072   ....               LDI     R30, LOW(fl_cts_232)
   \   00000074   ....               LDI     R31, (fl_cts_232) >> 8
   \   00000076   8100               LD      R16, Z
   \   00000078   FF00               SBRS    R16, 0
   \   0000007A   C054               RJMP    ??TIMER2_COMPA_interrupt_1
    639              {
    640                if(fl_cts_232_ignor==TRUE)
   \   0000007C   9100....           LDS     R16, fl_cts_232_ignor
   \   00000080   3001               CPI     R16, 1
   \   00000082   F4C9               BRNE    ??TIMER2_COMPA_interrupt_2
    641                      {
    642                       fl_cts_232.on=0;
   \   00000084   8100               LD      R16, Z
   \   00000086   7F0E               ANDI    R16, 0xFE
   \   00000088   8300               ST      Z, R16
    643                       if(count_tx_ppp==0){S2_RD;UDR0=buf_tx_232[0];if(Regim==RG_DEBAG) UDR3=buf_tx_232[0];}
   \   0000008A   ....               LDI     R30, LOW(count_tx_ppp)
   \   0000008C   ....               LDI     R31, (count_tx_ppp) >> 8
   \   0000008E   8100               LD      R16, Z
   \   00000090   8111               LDD     R17, Z+1
   \   00000092   2B01               OR      R16, R17
   \   00000094   F479               BRNE    ??TIMER2_COMPA_interrupt_3
   \   00000096   9A40               SBI     0x08, 0x00
   \   00000098   9841               CBI     0x08, 0x01
   \   0000009A   9100....           LDS     R16, buf_tx_232
   \   0000009E   930000C6           STS     198, R16
   \   000000A2   9100....           LDS     R16, Regim
   \   000000A6   3001               CPI     R16, 1
   \   000000A8   F431               BRNE    ??TIMER2_COMPA_interrupt_2
   \   000000AA   9100....           LDS     R16, buf_tx_232
   \   000000AE   93000136           STS     310, R16
   \   000000B2   C001               RJMP    ??TIMER2_COMPA_interrupt_2
    644                          else sending_ppp_pac();
   \                     ??TIMER2_COMPA_interrupt_3:
   \   000000B4   ....               RCALL   sending_ppp_pac
    645                  ///     return;!!!!!!!!!!!!!!!!!!!!!!!!!!!!!!!!!!!!!!!!!!
    646                       }
    647                
    648               // if ((PINE & CTS0)==0)  
    649                if (PINE & CTS0)  
   \                     ??TIMER2_COMPA_interrupt_2:
   \   000000B6   9B64               SBIS    0x0C, 0x04
   \   000000B8   C021               RJMP    ??TIMER2_COMPA_interrupt_4
    650                {
    651                  cnt_cts_off=0;
   \   000000BA   E000               LDI     R16, 0
   \   000000BC   ....               LDI     R30, LOW(cnt_cts_off)
   \   000000BE   ....               LDI     R31, (cnt_cts_off) >> 8
   \   000000C0   8300               ST      Z, R16
   \   000000C2   8301               STD     Z+1, R16
    652                  fl_cts_232.on=0; 
   \   000000C4   ....               LDI     R30, LOW(fl_cts_232)
   \   000000C6   ....               LDI     R31, (fl_cts_232) >> 8
   \   000000C8   8100               LD      R16, Z
   \   000000CA   7F0E               ANDI    R16, 0xFE
   \   000000CC   8300               ST      Z, R16
    653                  if(count_tx_ppp==0){S2_RD;UDR0=buf_tx_232[0];if(Regim==RG_DEBAG) UDR3=buf_tx_232[0];}
   \   000000CE   ....               LDI     R30, LOW(count_tx_ppp)
   \   000000D0   ....               LDI     R31, (count_tx_ppp) >> 8
   \   000000D2   8100               LD      R16, Z
   \   000000D4   8111               LDD     R17, Z+1
   \   000000D6   2B01               OR      R16, R17
   \   000000D8   F479               BRNE    ??TIMER2_COMPA_interrupt_5
   \   000000DA   9A40               SBI     0x08, 0x00
   \   000000DC   9841               CBI     0x08, 0x01
   \   000000DE   9100....           LDS     R16, buf_tx_232
   \   000000E2   930000C6           STS     198, R16
   \   000000E6   9100....           LDS     R16, Regim
   \   000000EA   3001               CPI     R16, 1
   \   000000EC   F4D9               BRNE    ??TIMER2_COMPA_interrupt_1
   \   000000EE   9100....           LDS     R16, buf_tx_232
   \   000000F2   93000136           STS     310, R16
   \   000000F6   C016               RJMP    ??TIMER2_COMPA_interrupt_1
    654                     else sending_ppp_pac(); 
   \                     ??TIMER2_COMPA_interrupt_5:
   \   000000F8   ....               RCALL   sending_ppp_pac
   \   000000FA   C014               RJMP    ??TIMER2_COMPA_interrupt_1
    655                 } 
    656                 else
    657                  {
    658                  cnt_cts_off++;
   \                     ??TIMER2_COMPA_interrupt_4:
   \   000000FC   ....               LDI     R30, LOW(cnt_cts_off)
   \   000000FE   ....               LDI     R31, (cnt_cts_off) >> 8
   \   00000100   8100               LD      R16, Z
   \   00000102   8111               LDD     R17, Z+1
   \   00000104   5F0F               SUBI    R16, 255
   \   00000106   4F1F               SBCI    R17, 255
   \   00000108   8300               ST      Z, R16
   \   0000010A   8311               STD     Z+1, R17
    659                  if(cnt_cts_off>=10000)
   \   0000010C   8100               LD      R16, Z
   \   0000010E   8111               LDD     R17, Z+1
   \   00000110   3100               CPI     R16, 16
   \   00000112   E227               LDI     R18, 39
   \   00000114   0712               CPC     R17, R18
   \   00000116   F030               BRCS    ??TIMER2_COMPA_interrupt_1
    660                     {
    661                     cnt_cts_off=0;
   \   00000118   E000               LDI     R16, 0
   \   0000011A   8300               ST      Z, R16
   \   0000011C   8301               STD     Z+1, R16
    662                     event_modem=EVM_CTS_ERR;
   \   0000011E   E009               LDI     R16, 9
   \   00000120   9300....           STS     event_modem, R16
    663                     }
    664                  }
    665              }
    666            
    667            
    668             fun_state_md(); 
   \                     ??TIMER2_COMPA_interrupt_1:
   \   00000124   ........           CALL    fun_state_md
    669           
    670            
    671            if(Buf1_rx_ppp.check_busy==TRUE)
   \   00000128   9100....           LDS     R16, (Buf1_rx_ppp + 334)
   \   0000012C   3001               CPI     R16, 1
   \   0000012E   F499               BRNE    ??TIMER2_COMPA_interrupt_6
    672               {
    673                if(Buf1_rx_ppp.busy==FALSE)
   \   00000130   9100....           LDS     R16, (Buf1_rx_ppp + 333)
   \   00000134   2300               TST     R16
   \   00000136   F479               BRNE    ??TIMER2_COMPA_interrupt_6
    674                {
    675                Buf1_rx_ppp.check_busy=FALSE;
   \   00000138   E000               LDI     R16, 0
   \   0000013A   9300....           STS     (Buf1_rx_ppp + 334), R16
    676                temp=UDR0; 
   \   0000013E   910000C6           LDS     R16, 198
    677                UCSR0B=UCSR0B | RXEN;
   \   00000142   910000C1           LDS     R16, 193
   \   00000146   6100               ORI     R16, 0x10
   \   00000148   930000C1           STS     193, R16
    678                UCSR0B=UCSR0B | RXCIE; 
   \   0000014C   910000C1           LDS     R16, 193
   \   00000150   6800               ORI     R16, 0x80
   \   00000152   930000C1           STS     193, R16
    679                }    
    680               }  
    681            
    682            if(Buf2_rx_ppp.check_busy==TRUE)
   \                     ??TIMER2_COMPA_interrupt_6:
   \   00000156   9100....           LDS     R16, (Buf2_rx_ppp + 334)
   \   0000015A   3001               CPI     R16, 1
   \   0000015C   F499               BRNE    ??TIMER2_COMPA_interrupt_7
    683               {
    684                if(Buf2_rx_ppp.busy==FALSE)
   \   0000015E   9100....           LDS     R16, (Buf2_rx_ppp + 333)
   \   00000162   2300               TST     R16
   \   00000164   F479               BRNE    ??TIMER2_COMPA_interrupt_7
    685                {
    686                Buf2_rx_ppp.check_busy=FALSE;
   \   00000166   E000               LDI     R16, 0
   \   00000168   9300....           STS     (Buf2_rx_ppp + 334), R16
    687                temp=UDR0; 
   \   0000016C   910000C6           LDS     R16, 198
    688                UCSR0B=UCSR0B | RXEN;
   \   00000170   910000C1           LDS     R16, 193
   \   00000174   6100               ORI     R16, 0x10
   \   00000176   930000C1           STS     193, R16
    689                UCSR0B=UCSR0B | RXCIE; 
   \   0000017A   910000C1           LDS     R16, 193
   \   0000017E   6800               ORI     R16, 0x80
   \   00000180   930000C1           STS     193, R16
    690                }    
    691               }   
    692              
    693              
    694              
    695            if (At_com.cnt_tm_out==0)goto next_step0; 
   \                     ??TIMER2_COMPA_interrupt_7:
   \   00000184   ....               LDI     R30, LOW(At_com)
   \   00000186   ....               LDI     R31, (At_com) >> 8
   \   00000188   A907               LDD     R16, Z+55
   \   0000018A   AD10               LDD     R17, Z+56
   \   0000018C   2B01               OR      R16, R17
   \   0000018E   F0F9               BREQ    ??TIMER2_COMPA_interrupt_8
    696             {
    697             At_com.cnt_tm_out--;
   \   00000190   A907               LDD     R16, Z+55
   \   00000192   AD10               LDD     R17, Z+56
   \   00000194   5001               SUBI    R16, 1
   \   00000196   4010               SBCI    R17, 0
   \   00000198   AB07               STD     Z+55, R16
   \   0000019A   AF10               STD     Z+56, R17
    698             if(At_com.cnt_tm_out==0)
   \   0000019C   A907               LDD     R16, Z+55
   \   0000019E   AD10               LDD     R17, Z+56
   \   000001A0   2B01               OR      R16, R17
   \   000001A2   F4A9               BRNE    ??TIMER2_COMPA_interrupt_8
    699               {
    700               UCSR0B=UCSR0B & ~RXEN;
   \   000001A4   910000C1           LDS     R16, 193
   \   000001A8   7E0F               ANDI    R16, 0xEF
   \   000001AA   930000C1           STS     193, R16
    701               UCSR0B=UCSR0B & ~RXCIE; 
   \   000001AE   910000C1           LDS     R16, 193
   \   000001B2   770F               ANDI    R16, 0x7F
   \   000001B4   930000C1           STS     193, R16
    702               At_com.cnt_rx_out=0;
   \   000001B8   E000               LDI     R16, 0
   \   000001BA   AF03               STD     Z+59, R16
   \   000001BC   AF04               STD     Z+60, R16
    703               fl_at_com.tm_out=1;
    704               fl_at_com.rx_rec=0;
    705               fl_at_com.rx_en=0;
    706               fl_at_com.err=0;
    707               fl_at_com.ok=0;
   \   000001BE   ....               LDI     R26, LOW(fl_at_com)
   \   000001C0   ....               LDI     R27, (fl_at_com) >> 8
   \   000001C2   910C               LD      R16, X
   \   000001C4   7C0C               ANDI    R16, 0xCC
   \   000001C6   930C               ST      X, R16
   \   000001C8   910C               LD      R16, X
   \   000001CA   6004               ORI     R16, 0x04
   \   000001CC   930C               ST      X, R16
    708               }
    709             }
    710          
    711          
    712          
    713             
    714             
    715             
    716          next_step0:  
    717          
    718            if(At_com.cnt_rx_out==0)goto next_step1;
   \                     ??TIMER2_COMPA_interrupt_8:
   \   000001CE   AD03               LDD     R16, Z+59
   \   000001D0   AD14               LDD     R17, Z+60
   \   000001D2   2B01               OR      R16, R17
   \   000001D4   F0D9               BREQ    ??TIMER2_COMPA_interrupt_9
    719              At_com.cnt_rx_out--;
   \   000001D6   AD03               LDD     R16, Z+59
   \   000001D8   AD14               LDD     R17, Z+60
   \   000001DA   5001               SUBI    R16, 1
   \   000001DC   4010               SBCI    R17, 0
   \   000001DE   AF03               STD     Z+59, R16
   \   000001E0   AF14               STD     Z+60, R17
    720              if(At_com.cnt_rx_out==0)
   \   000001E2   AD03               LDD     R16, Z+59
   \   000001E4   AD14               LDD     R17, Z+60
   \   000001E6   2B01               OR      R16, R17
   \   000001E8   F489               BRNE    ??TIMER2_COMPA_interrupt_9
    721              {
    722               UCSR0B=UCSR0B & ~RXEN;
   \   000001EA   910000C1           LDS     R16, 193
   \   000001EE   7E0F               ANDI    R16, 0xEF
   \   000001F0   930000C1           STS     193, R16
    723               UCSR0B=UCSR0B & ~RXCIE;
   \   000001F4   910000C1           LDS     R16, 193
   \   000001F8   770F               ANDI    R16, 0x7F
   \   000001FA   930000C1           STS     193, R16
    724               fl_at_com.rx_rec=1; 
   \   000001FE   ....               LDI     R30, LOW(fl_at_com)
   \   00000200   ....               LDI     R31, (fl_at_com) >> 8
   \   00000202   8100               LD      R16, Z
   \   00000204   6200               ORI     R16, 0x20
   \   00000206   8300               ST      Z, R16
    725               S2_OFF;
   \   00000208   9840               CBI     0x08, 0x00
   \   0000020A   9841               CBI     0x08, 0x01
    726              } //ёіхҐішъ ьхцсрщҐют√щ яЁюьхцґҐюъ
    727          next_step1:
    728             
    729              
    730              
    731            //!!!!!!!!!!!!!!!!!!!!!!!!!!!!!!!!!!!!!!!!!!!!!!!!!!!!!!!!!!!!!!!!!!!!!!!!!!!!!11
    732              //юсЁрсюҐър яю яюЁҐґ RS-485 ╣1
    733              if(Rs485_1.cnt_tm_pre_tx==0) goto  nxt_step2;
   \                     ??TIMER2_COMPA_interrupt_9:
   \   0000020C   01FC               MOVW    R31:R30, R25:R24
   \   0000020E   8104               LDD     R16, Z+4
   \   00000210   8115               LDD     R17, Z+5
   \   00000212   2B01               OR      R16, R17
   \   00000214   F079               BREQ    ??TIMER2_COMPA_interrupt_10
    734              Rs485_1.cnt_tm_pre_tx--;
   \   00000216   8104               LDD     R16, Z+4
   \   00000218   8115               LDD     R17, Z+5
   \   0000021A   5001               SUBI    R16, 1
   \   0000021C   4010               SBCI    R17, 0
   \   0000021E   8304               STD     Z+4, R16
   \   00000220   8315               STD     Z+5, R17
    735              if(Rs485_1.cnt_tm_pre_tx==0) UCSR3B=UCSR3B | UDRIE;  // enable transmit 485_1 
   \   00000222   8104               LDD     R16, Z+4
   \   00000224   8115               LDD     R17, Z+5
   \   00000226   2B01               OR      R16, R17
   \   00000228   F429               BRNE    ??TIMER2_COMPA_interrupt_10
   \   0000022A   91000131           LDS     R16, 305
   \   0000022E   6200               ORI     R16, 0x20
   \   00000230   93000131           STS     305, R16
    736          
    737            nxt_step2:
    738                                 
    739                          if(Rs485_1.cnt_tm_out==0) goto nxt_step3;
   \                     ??TIMER2_COMPA_interrupt_10:
   \   00000234   8504               LDD     R16, Z+12
   \   00000236   8515               LDD     R17, Z+13
   \   00000238   2B01               OR      R16, R17
   \   0000023A   F0D1               BREQ    ??TIMER2_COMPA_interrupt_11
    740                          Rs485_1.cnt_tm_out--;
   \   0000023C   8504               LDD     R16, Z+12
   \   0000023E   8515               LDD     R17, Z+13
   \   00000240   5001               SUBI    R16, 1
   \   00000242   4010               SBCI    R17, 0
   \   00000244   8704               STD     Z+12, R16
   \   00000246   8715               STD     Z+13, R17
    741                          if(Rs485_1.cnt_tm_out==0){
   \   00000248   8504               LDD     R16, Z+12
   \   0000024A   8515               LDD     R17, Z+13
   \   0000024C   2B01               OR      R16, R17
   \   0000024E   F481               BRNE    ??TIMER2_COMPA_interrupt_11
    742                                                    S3_OFF;
   \   00000250   9842               CBI     0x08, 0x02
   \   00000252   9843               CBI     0x08, 0x03
    743                                                    UCSR3B =UCSR3B & ~(RXEN | RXCIE);
   \   00000254   91000131           LDS     R16, 305
   \   00000258   760F               ANDI    R16, 0x6F
   \   0000025A   93000131           STS     305, R16
    744                                                    Rs485_1.cnt_bt_rx_tx=0;
   \   0000025E   E000               LDI     R16, 0
   \   00000260   8300               ST      Z, R16
   \   00000262   8301               STD     Z+1, R16
    745                                                    Rs485_1.cnt_tm_rx_out=0;
   \   00000264   8700               STD     Z+8, R16
   \   00000266   8701               STD     Z+9, R16
    746                                                    fl_485_1.rec=0;
    747                                                    fl_485_1.tm_out=1;
   \   00000268   AD02               LDD     R16, Z+58
   \   0000026A   7F0D               ANDI    R16, 0xFD
   \   0000026C   6004               ORI     R16, 0x04
   \   0000026E   AF02               STD     Z+58, R16
    748                                                   }                              
    749           nxt_step3:      
    750                    
    751           
    752                           if(Rs485_1.cnt_tm_rx_out==0) goto nxt_step4;
   \                     ??TIMER2_COMPA_interrupt_11:
   \   00000270   8500               LDD     R16, Z+8
   \   00000272   8511               LDD     R17, Z+9
   \   00000274   2B01               OR      R16, R17
   \   00000276   F0D1               BREQ    ??TIMER2_COMPA_interrupt_12
    753                              Rs485_1.cnt_tm_rx_out--;
   \   00000278   8500               LDD     R16, Z+8
   \   0000027A   8511               LDD     R17, Z+9
   \   0000027C   5001               SUBI    R16, 1
   \   0000027E   4010               SBCI    R17, 0
   \   00000280   8700               STD     Z+8, R16
   \   00000282   8711               STD     Z+9, R17
    754                             if(Rs485_1.cnt_tm_rx_out==0)
   \   00000284   8500               LDD     R16, Z+8
   \   00000286   8511               LDD     R17, Z+9
   \   00000288   2B01               OR      R16, R17
   \   0000028A   F481               BRNE    ??TIMER2_COMPA_interrupt_12
    755                             {
    756                               S3_OFF;
   \   0000028C   9842               CBI     0x08, 0x02
   \   0000028E   9843               CBI     0x08, 0x03
    757                               fl_485_1.rec=1;
   \   00000290   AD02               LDD     R16, Z+58
   \   00000292   6002               ORI     R16, 0x02
   \   00000294   AF02               STD     Z+58, R16
    758                               Rs485_1.cnt_tm_out=0;
   \   00000296   E000               LDI     R16, 0
   \   00000298   8704               STD     Z+12, R16
   \   0000029A   8705               STD     Z+13, R16
    759                               fl_485_1.tm_out=0;  
   \   0000029C   AD02               LDD     R16, Z+58
   \   0000029E   7F0B               ANDI    R16, 0xFB
   \   000002A0   AF02               STD     Z+58, R16
    760                               UCSR3B =UCSR3B & ~(RXEN | RXCIE);
   \   000002A2   91000131           LDS     R16, 305
   \   000002A6   760F               ANDI    R16, 0x6F
   \   000002A8   93000131           STS     305, R16
    761                              } 
    762           nxt_step4:                  
    763                          if(Rs485_1.cnt_tm_tx_out==0) goto lable_tm21;
   \                     ??TIMER2_COMPA_interrupt_12:
   \   000002AC   8102               LDD     R16, Z+2
   \   000002AE   8113               LDD     R17, Z+3
   \   000002B0   2B01               OR      R16, R17
   \   000002B2   F101               BREQ    ??TIMER2_COMPA_interrupt_13
    764                          Rs485_1.cnt_tm_tx_out--;
   \   000002B4   8102               LDD     R16, Z+2
   \   000002B6   8113               LDD     R17, Z+3
   \   000002B8   5001               SUBI    R16, 1
   \   000002BA   4010               SBCI    R17, 0
   \   000002BC   8302               STD     Z+2, R16
   \   000002BE   8313               STD     Z+3, R17
    765                          if(Rs485_1.cnt_tm_tx_out==1) {CLR_RTS1;} /*togle to receiv mode*/ 
   \   000002C0   8102               LDD     R16, Z+2
   \   000002C2   8113               LDD     R17, Z+3
   \   000002C4   3001               CPI     R16, 1
   \   000002C6   E020               LDI     R18, 0
   \   000002C8   0712               CPC     R17, R18
   \   000002CA   F429               BRNE    ??TIMER2_COMPA_interrupt_14
   \   000002CC   91000105           LDS     R16, 261
   \   000002D0   7F0B               ANDI    R16, 0xFB
   \   000002D2   93000105           STS     261, R16
    766                          if(Rs485_1.cnt_tm_tx_out==0){S3_OFF;Rs485_1.cnt_tm_out=Rs485_1.vol_tm_out;UCSR3B =UCSR3B | RXEN | RXCIE;} // togle to receiv mode ;
   \                     ??TIMER2_COMPA_interrupt_14:
   \   000002D6   8102               LDD     R16, Z+2
   \   000002D8   8113               LDD     R17, Z+3
   \   000002DA   2B01               OR      R16, R17
   \   000002DC   F459               BRNE    ??TIMER2_COMPA_interrupt_13
   \   000002DE   9842               CBI     0x08, 0x02
   \   000002E0   9843               CBI     0x08, 0x03
   \   000002E2   8506               LDD     R16, Z+14
   \   000002E4   8517               LDD     R17, Z+15
   \   000002E6   8704               STD     Z+12, R16
   \   000002E8   8715               STD     Z+13, R17
   \   000002EA   91000131           LDS     R16, 305
   \   000002EE   6900               ORI     R16, 0x90
   \   000002F0   93000131           STS     305, R16
    767                          
    768           //EEEEEEEEEEEEEEEEEEEEEEEEEEEEEEEEEEEEEEEEEEEEEEEEEEEEEEEEEEEEEEEEEEEEEEEEEEEEEEEEEEEEEEEEEEEEEEEEEEEEEEEEEEEEEEEE                
    769           
    770            
    771                          
    772                          
    773            lable_tm21:               
    774           //!!!!!!!!!!!!!!!!!!!!!!!!!!!!!!!!!!!!!!!!!!!!!!!!!!!!!!!!!!!!!!!!!!!!!!!!!!!!!11
    775              //юсЁрсюҐър яю яюЁҐґ RS-485 ╣2
    776              if(Rs485_2.cnt_tm_pre_tx==0) goto  next_step2;
   \                     ??TIMER2_COMPA_interrupt_13:
   \   000002F4   8906               LDD     R16, Z+22
   \   000002F6   8917               LDD     R17, Z+23
   \   000002F8   2B01               OR      R16, R17
   \   000002FA   F079               BREQ    ??TIMER2_COMPA_interrupt_15
    777              Rs485_2.cnt_tm_pre_tx--;
   \   000002FC   8906               LDD     R16, Z+22
   \   000002FE   8917               LDD     R17, Z+23
   \   00000300   5001               SUBI    R16, 1
   \   00000302   4010               SBCI    R17, 0
   \   00000304   8B06               STD     Z+22, R16
   \   00000306   8B17               STD     Z+23, R17
    778              if(Rs485_2.cnt_tm_pre_tx==0) UCSR1B=UCSR1B | UDRIE;  // enable transmit 485_1 
   \   00000308   8906               LDD     R16, Z+22
   \   0000030A   8917               LDD     R17, Z+23
   \   0000030C   2B01               OR      R16, R17
   \   0000030E   F429               BRNE    ??TIMER2_COMPA_interrupt_15
   \   00000310   910000C9           LDS     R16, 201
   \   00000314   6200               ORI     R16, 0x20
   \   00000316   930000C9           STS     201, R16
    779          
    780            next_step2:
    781                                 
    782                          if(Rs485_2.cnt_tm_out==0) goto next_step3;
   \                     ??TIMER2_COMPA_interrupt_15:
   \   0000031A   8D06               LDD     R16, Z+30
   \   0000031C   8D17               LDD     R17, Z+31
   \   0000031E   2B01               OR      R16, R17
   \   00000320   F0D1               BREQ    ??TIMER2_COMPA_interrupt_16
    783                          Rs485_2.cnt_tm_out--;
   \   00000322   8D06               LDD     R16, Z+30
   \   00000324   8D17               LDD     R17, Z+31
   \   00000326   5001               SUBI    R16, 1
   \   00000328   4010               SBCI    R17, 0
   \   0000032A   8F06               STD     Z+30, R16
   \   0000032C   8F17               STD     Z+31, R17
    784                          if(Rs485_2.cnt_tm_out==0){
   \   0000032E   8D06               LDD     R16, Z+30
   \   00000330   8D17               LDD     R17, Z+31
   \   00000332   2B01               OR      R16, R17
   \   00000334   F481               BRNE    ??TIMER2_COMPA_interrupt_16
    785                                                    S4_OFF;
   \   00000336   9844               CBI     0x08, 0x04
   \   00000338   9845               CBI     0x08, 0x05
    786                                                    UCSR1B =UCSR1B & ~(RXEN | RXCIE);
   \   0000033A   910000C9           LDS     R16, 201
   \   0000033E   760F               ANDI    R16, 0x6F
   \   00000340   930000C9           STS     201, R16
    787                                                    Rs485_2.cnt_bt_rx_tx=0;
   \   00000344   E000               LDI     R16, 0
   \   00000346   8B02               STD     Z+18, R16
   \   00000348   8B03               STD     Z+19, R16
    788                                                    Rs485_2.cnt_tm_rx_out=0;
   \   0000034A   8F02               STD     Z+26, R16
   \   0000034C   8F03               STD     Z+27, R16
    789                                                    fl_485_2.rec=0;
    790                                                    fl_485_2.tm_out=1;
   \   0000034E   AD03               LDD     R16, Z+59
   \   00000350   7F0D               ANDI    R16, 0xFD
   \   00000352   6004               ORI     R16, 0x04
   \   00000354   AF03               STD     Z+59, R16
    791                                                   }                              
    792           next_step3:      
    793                    
    794           
    795                           if(Rs485_2.cnt_tm_rx_out==0) goto next_step4;
   \                     ??TIMER2_COMPA_interrupt_16:
   \   00000356   8D02               LDD     R16, Z+26
   \   00000358   8D13               LDD     R17, Z+27
   \   0000035A   2B01               OR      R16, R17
   \   0000035C   F0D1               BREQ    ??TIMER2_COMPA_interrupt_17
    796                              Rs485_2.cnt_tm_rx_out--;
   \   0000035E   8D02               LDD     R16, Z+26
   \   00000360   8D13               LDD     R17, Z+27
   \   00000362   5001               SUBI    R16, 1
   \   00000364   4010               SBCI    R17, 0
   \   00000366   8F02               STD     Z+26, R16
   \   00000368   8F13               STD     Z+27, R17
    797                             if(Rs485_2.cnt_tm_rx_out==0)
   \   0000036A   8D02               LDD     R16, Z+26
   \   0000036C   8D13               LDD     R17, Z+27
   \   0000036E   2B01               OR      R16, R17
   \   00000370   F481               BRNE    ??TIMER2_COMPA_interrupt_17
    798                             {
    799                               S4_OFF;
   \   00000372   9844               CBI     0x08, 0x04
   \   00000374   9845               CBI     0x08, 0x05
    800                               fl_485_2.rec=1;
   \   00000376   AD03               LDD     R16, Z+59
   \   00000378   6002               ORI     R16, 0x02
   \   0000037A   AF03               STD     Z+59, R16
    801                               Rs485_2.cnt_tm_out=0;
   \   0000037C   E000               LDI     R16, 0
   \   0000037E   8F06               STD     Z+30, R16
   \   00000380   8F07               STD     Z+31, R16
    802                               fl_485_2.tm_out=0;  
   \   00000382   AD03               LDD     R16, Z+59
   \   00000384   7F0B               ANDI    R16, 0xFB
   \   00000386   AF03               STD     Z+59, R16
    803                               UCSR1B =UCSR1B & ~(RXEN | RXCIE);
   \   00000388   910000C9           LDS     R16, 201
   \   0000038C   760F               ANDI    R16, 0x6F
   \   0000038E   930000C9           STS     201, R16
    804                              } 
    805           next_step4:                  
    806                          if(Rs485_2.cnt_tm_tx_out==0) goto lable_tm22;
   \                     ??TIMER2_COMPA_interrupt_17:
   \   00000392   8904               LDD     R16, Z+20
   \   00000394   8915               LDD     R17, Z+21
   \   00000396   2B01               OR      R16, R17
   \   00000398   F0E1               BREQ    ??TIMER2_COMPA_interrupt_18
    807                          Rs485_2.cnt_tm_tx_out--;
   \   0000039A   8904               LDD     R16, Z+20
   \   0000039C   8915               LDD     R17, Z+21
   \   0000039E   5001               SUBI    R16, 1
   \   000003A0   4010               SBCI    R17, 0
   \   000003A2   8B04               STD     Z+20, R16
   \   000003A4   8B15               STD     Z+21, R17
    808                          if(Rs485_2.cnt_tm_tx_out==1) {CLR_RTS3; } /*togle to receiv mode*/ 
   \   000003A6   8904               LDD     R16, Z+20
   \   000003A8   8915               LDD     R17, Z+21
   \   000003AA   3001               CPI     R16, 1
   \   000003AC   E020               LDI     R18, 0
   \   000003AE   0712               CPC     R17, R18
   \   000003B0   F409               BRNE    ??TIMER2_COMPA_interrupt_19
   \   000003B2   985C               CBI     0x0B, 0x04
    809                          if(Rs485_2.cnt_tm_tx_out==0){S4_OFF;Rs485_2.cnt_tm_out=Rs485_2.vol_tm_out;UCSR1B =UCSR1B | RXEN | RXCIE;} // togle to receiv mode ;
   \                     ??TIMER2_COMPA_interrupt_19:
   \   000003B4   8904               LDD     R16, Z+20
   \   000003B6   8915               LDD     R17, Z+21
   \   000003B8   2B01               OR      R16, R17
   \   000003BA   F459               BRNE    ??TIMER2_COMPA_interrupt_18
   \   000003BC   9844               CBI     0x08, 0x04
   \   000003BE   9845               CBI     0x08, 0x05
   \   000003C0   A100               LDD     R16, Z+32
   \   000003C2   A111               LDD     R17, Z+33
   \   000003C4   8F06               STD     Z+30, R16
   \   000003C6   8F17               STD     Z+31, R17
   \   000003C8   910000C9           LDS     R16, 201
   \   000003CC   6900               ORI     R16, 0x90
   \   000003CE   930000C9           STS     201, R16
    810                          
    811           //EEEEEEEEEEEEEEEEEEEEEEEEEEEEEEEEEEEEEEEEEEEEEEEEEEEEEEEEEEEEEEEEEEEEEEEEEEEEEEEEEEEEEEEEEEEEEEEEEEEEEEEEEEEEEEEE              
    812                          
    813           
    814             lable_tm22:               
    815           //!!!!!!!!!!!!!!!!!!!!!!!!!!!!!!!!!!!!!!!!!!!!!!!!!!!!!!!!!!!!!!!!!!!!!!!!!!!!!11
    816              //юсЁрсюҐър яю яюЁҐґ RS-232 ╣2
    817              if(Rs232_2.cnt_tm_pre_tx==0) goto  nt_step2;
   \                     ??TIMER2_COMPA_interrupt_18:
   \   000003D2   A500               LDD     R16, Z+40
   \   000003D4   A511               LDD     R17, Z+41
   \   000003D6   2B01               OR      R16, R17
   \   000003D8   F079               BREQ    ??TIMER2_COMPA_interrupt_20
    818              Rs232_2.cnt_tm_pre_tx--;
   \   000003DA   A500               LDD     R16, Z+40
   \   000003DC   A511               LDD     R17, Z+41
   \   000003DE   5001               SUBI    R16, 1
   \   000003E0   4010               SBCI    R17, 0
   \   000003E2   A700               STD     Z+40, R16
   \   000003E4   A711               STD     Z+41, R17
    819              if(Rs232_2.cnt_tm_pre_tx==0) UCSR2B=UCSR2B | UDRIE;  // enable transmit 232_1 
   \   000003E6   A500               LDD     R16, Z+40
   \   000003E8   A511               LDD     R17, Z+41
   \   000003EA   2B01               OR      R16, R17
   \   000003EC   F429               BRNE    ??TIMER2_COMPA_interrupt_20
   \   000003EE   910000D1           LDS     R16, 209
   \   000003F2   6200               ORI     R16, 0x20
   \   000003F4   930000D1           STS     209, R16
    820          
    821            nt_step2:
    822                                 
    823                          if(Rs232_2.cnt_tm_out==0) goto nt_step3;
   \                     ??TIMER2_COMPA_interrupt_20:
   \   000003F8   A900               LDD     R16, Z+48
   \   000003FA   A911               LDD     R17, Z+49
   \   000003FC   2B01               OR      R16, R17
   \   000003FE   F0E9               BREQ    ??TIMER2_COMPA_interrupt_21
    824                          Rs232_2.cnt_tm_out--;
   \   00000400   A900               LDD     R16, Z+48
   \   00000402   A911               LDD     R17, Z+49
   \   00000404   5001               SUBI    R16, 1
   \   00000406   4010               SBCI    R17, 0
   \   00000408   AB00               STD     Z+48, R16
   \   0000040A   AB11               STD     Z+49, R17
    825                          if(Rs232_2.cnt_tm_out==0){
   \   0000040C   A900               LDD     R16, Z+48
   \   0000040E   A911               LDD     R17, Z+49
   \   00000410   2B01               OR      R16, R17
   \   00000412   F499               BRNE    ??TIMER2_COMPA_interrupt_21
    826                                                 
    827                                                    S5_OFF;
   \   00000414   9846               CBI     0x08, 0x06
   \   00000416   9847               CBI     0x08, 0x07
    828                                                    UCSR2B =UCSR2B & ~(RXEN | RXCIE);
   \   00000418   910000D1           LDS     R16, 209
   \   0000041C   760F               ANDI    R16, 0x6F
   \   0000041E   930000D1           STS     209, R16
    829                                                    Rs232_2.cnt_bt_rx_tx=0;
   \   00000422   E000               LDI     R16, 0
   \   00000424   A304               STD     Z+36, R16
   \   00000426   A305               STD     Z+37, R16
    830                                                    Rs232_2.cnt_tm_rx_out=0;
   \   00000428   A704               STD     Z+44, R16
   \   0000042A   A705               STD     Z+45, R16
    831                                                    fl_232_2.rec=0;
    832                                                    fl_232_2.tm_out=1;
   \   0000042C   96FC               ADIW    R31:R30, 60
   \   0000042E   8100               LD      R16, Z
   \   00000430   7F0D               ANDI    R16, 0xFD
   \   00000432   6004               ORI     R16, 0x04
   \   00000434   01FC               MOVW    R31:R30, R25:R24
   \   00000436   96FC               ADIW    R31:R30, 60
   \   00000438   8300               ST      Z, R16
    833                                                   }                              
    834           nt_step3:      
    835                    
    836           
    837                           if(Rs232_2.cnt_tm_rx_out==0) goto nt_step4;
   \                     ??TIMER2_COMPA_interrupt_21:
   \   0000043A   01FC               MOVW    R31:R30, R25:R24
   \   0000043C   A504               LDD     R16, Z+44
   \   0000043E   A515               LDD     R17, Z+45
   \   00000440   2B01               OR      R16, R17
   \   00000442   F0E9               BREQ    ??TIMER2_COMPA_interrupt_22
    838                              Rs232_2.cnt_tm_rx_out--;
   \   00000444   A504               LDD     R16, Z+44
   \   00000446   A515               LDD     R17, Z+45
   \   00000448   5001               SUBI    R16, 1
   \   0000044A   4010               SBCI    R17, 0
   \   0000044C   A704               STD     Z+44, R16
   \   0000044E   A715               STD     Z+45, R17
    839                             if(Rs232_2.cnt_tm_rx_out==0)
   \   00000450   A504               LDD     R16, Z+44
   \   00000452   A515               LDD     R17, Z+45
   \   00000454   2B01               OR      R16, R17
   \   00000456   F499               BRNE    ??TIMER2_COMPA_interrupt_22
    840                             {
    841                               S5_OFF;
   \   00000458   9846               CBI     0x08, 0x06
   \   0000045A   9847               CBI     0x08, 0x07
    842                               fl_232_2.rec=1;
   \   0000045C   96FC               ADIW    R31:R30, 60
   \   0000045E   8100               LD      R16, Z
   \   00000460   6002               ORI     R16, 0x02
   \   00000462   8300               ST      Z, R16
    843                               Rs232_2.cnt_tm_out=0;
   \   00000464   E000               LDI     R16, 0
   \   00000466   01FC               MOVW    R31:R30, R25:R24
   \   00000468   AB00               STD     Z+48, R16
   \   0000046A   AB01               STD     Z+49, R16
    844                               fl_232_2.tm_out=0;  
   \   0000046C   96FC               ADIW    R31:R30, 60
   \   0000046E   8100               LD      R16, Z
   \   00000470   7F0B               ANDI    R16, 0xFB
   \   00000472   8300               ST      Z, R16
    845                               UCSR2B =UCSR2B & ~(RXEN | RXCIE);
   \   00000474   910000D1           LDS     R16, 209
   \   00000478   760F               ANDI    R16, 0x6F
   \   0000047A   930000D1           STS     209, R16
    846                              } 
    847           nt_step4:                  
    848                          if(Rs232_2.cnt_tm_tx_out==0) goto lable_tm23;
   \                     ??TIMER2_COMPA_interrupt_22:
   \   0000047E   01FC               MOVW    R31:R30, R25:R24
   \   00000480   A106               LDD     R16, Z+38
   \   00000482   A117               LDD     R17, Z+39
   \   00000484   2B01               OR      R16, R17
   \   00000486   F101               BREQ    ??TIMER2_COMPA_interrupt_23
    849                          Rs232_2.cnt_tm_tx_out--;
   \   00000488   A106               LDD     R16, Z+38
   \   0000048A   A117               LDD     R17, Z+39
   \   0000048C   5001               SUBI    R16, 1
   \   0000048E   4010               SBCI    R17, 0
   \   00000490   A306               STD     Z+38, R16
   \   00000492   A317               STD     Z+39, R17
    850                          if(Rs232_2.cnt_tm_tx_out==1) {CLR_RTS2;} /*togle to receiv mode*/ 
   \   00000494   A106               LDD     R16, Z+38
   \   00000496   A117               LDD     R17, Z+39
   \   00000498   3001               CPI     R16, 1
   \   0000049A   E020               LDI     R18, 0
   \   0000049C   0712               CPC     R17, R18
   \   0000049E   F429               BRNE    ??TIMER2_COMPA_interrupt_24
   \   000004A0   91000102           LDS     R16, 258
   \   000004A4   6004               ORI     R16, 0x04
   \   000004A6   93000102           STS     258, R16
    851                          if(Rs232_2.cnt_tm_tx_out==0){S5_OFF;Rs232_2.cnt_tm_out=Rs232_2.vol_tm_out;UCSR2B =UCSR2B | RXEN | RXCIE;} // togle to receiv mode ;
   \                     ??TIMER2_COMPA_interrupt_24:
   \   000004AA   A106               LDD     R16, Z+38
   \   000004AC   A117               LDD     R17, Z+39
   \   000004AE   2B01               OR      R16, R17
   \   000004B0   F459               BRNE    ??TIMER2_COMPA_interrupt_23
   \   000004B2   9846               CBI     0x08, 0x06
   \   000004B4   9847               CBI     0x08, 0x07
   \   000004B6   A902               LDD     R16, Z+50
   \   000004B8   A913               LDD     R17, Z+51
   \   000004BA   AB00               STD     Z+48, R16
   \   000004BC   AB11               STD     Z+49, R17
   \   000004BE   910000D1           LDS     R16, 209
   \   000004C2   6900               ORI     R16, 0x90
   \   000004C4   930000D1           STS     209, R16
    852                          
    853           //EEEEEEEEEEEEEEEEEEEEEEEEEEEEEEEEEEEEEEEEEEEEEEEEEEEEEEEEEEEEEEEEEEEEEEEEEEEEEEEEEEEEEEEEEEEEEEEEEEEEEEEEEEEEEEEE                   
    854                          
    855            lable_tm23:
    856              
    857              
    858              ///ҐрщьхЁ ЁхёҐрЁҐр LCP
    859              if(fl_lcp.lcp_tm_out_en==1)
   \                     ??TIMER2_COMPA_interrupt_23:
   \   000004C8   ....               LDI     R30, LOW(fl_lcp)
   \   000004CA   ....               LDI     R31, (fl_lcp) >> 8
   \   000004CC   8100               LD      R16, Z
   \   000004CE   FF01               SBRS    R16, 1
   \   000004D0   C028               RJMP    ??TIMER2_COMPA_interrupt_25
    860                 {                 
    861                         cnt_lcp_tm_out--;
   \   000004D2   ....               LDI     R30, LOW(cnt_lcp_tm_out)
   \   000004D4   ....               LDI     R31, (cnt_lcp_tm_out) >> 8
   \   000004D6   8100               LD      R16, Z
   \   000004D8   8111               LDD     R17, Z+1
   \   000004DA   5001               SUBI    R16, 1
   \   000004DC   4010               SBCI    R17, 0
   \   000004DE   8300               ST      Z, R16
   \   000004E0   8311               STD     Z+1, R17
    862                         if(cnt_lcp_tm_out==0)
   \   000004E2   8100               LD      R16, Z
   \   000004E4   8111               LDD     R17, Z+1
   \   000004E6   2B01               OR      R16, R17
   \   000004E8   F4E1               BRNE    ??TIMER2_COMPA_interrupt_25
    863                            {
    864                            cnt_lcp_tm_out=VOL_LCP_TM_OUT;
   \   000004EA   EB08               LDI     R16, 184
   \   000004EC   E01B               LDI     R17, 11
   \   000004EE   8300               ST      Z, R16
   \   000004F0   8311               STD     Z+1, R17
    865                            if(cnt_rst_lcp==0)
   \   000004F2   9100....           LDS     R16, cnt_rst_lcp
   \   000004F6   2300               TST     R16
   \   000004F8   F451               BRNE    ??TIMER2_COMPA_interrupt_26
    866                               {   
    867                                cnt_lcp_tm_out=vol_cnt_rst_lcp;
   \   000004FA   9100....           LDS     R16, vol_cnt_rst_lcp
   \   000004FE   E010               LDI     R17, 0
   \   00000500   8300               ST      Z, R16
   \   00000502   8311               STD     Z+1, R17
    868                                fl_lcp.t0_mi=1;
   \   00000504   ....               LDI     R30, LOW(fl_lcp)
   \   00000506   ....               LDI     R31, (fl_lcp) >> 8
   \   00000508   8100               LD      R16, Z
   \   0000050A   6008               ORI     R16, 0x08
   \   0000050C   C009               RJMP    ??TIMER2_COMPA_interrupt_27
    869                               }
    870                               else 
    871                                 {
    872                                 cnt_rst_lcp--;
   \                     ??TIMER2_COMPA_interrupt_26:
   \   0000050E   ....               LDI     R30, LOW(cnt_rst_lcp)
   \   00000510   ....               LDI     R31, (cnt_rst_lcp) >> 8
   \   00000512   8100               LD      R16, Z
   \   00000514   950A               DEC     R16
   \   00000516   8300               ST      Z, R16
    873                                 fl_lcp.t0_pl=1;       
   \   00000518   ....               LDI     R30, LOW(fl_lcp)
   \   0000051A   ....               LDI     R31, (fl_lcp) >> 8
   \   0000051C   8100               LD      R16, Z
   \   0000051E   6004               ORI     R16, 0x04
   \                     ??TIMER2_COMPA_interrupt_27:
   \   00000520   8300               ST      Z, R16
    874                                 } 
    875                            } 
    876                 
    877                 }
    878           //////////////////////////////////////////
    879           
    880           ///ҐрщьхЁ ЁхёҐрЁҐр PAP
    881              if(fl_pap.pap_tm_out_en==1)
   \                     ??TIMER2_COMPA_interrupt_25:
   \   00000522   ....               LDI     R30, LOW(fl_pap)
   \   00000524   ....               LDI     R31, (fl_pap) >> 8
   \   00000526   8100               LD      R16, Z
   \   00000528   FF01               SBRS    R16, 1
   \   0000052A   C028               RJMP    ??TIMER2_COMPA_interrupt_28
    882                 {                 
    883                         cnt_pap_tm_out--;
   \   0000052C   ....               LDI     R30, LOW(cnt_pap_tm_out)
   \   0000052E   ....               LDI     R31, (cnt_pap_tm_out) >> 8
   \   00000530   8100               LD      R16, Z
   \   00000532   8111               LDD     R17, Z+1
   \   00000534   5001               SUBI    R16, 1
   \   00000536   4010               SBCI    R17, 0
   \   00000538   8300               ST      Z, R16
   \   0000053A   8311               STD     Z+1, R17
    884                         if(cnt_pap_tm_out==0)
   \   0000053C   8100               LD      R16, Z
   \   0000053E   8111               LDD     R17, Z+1
   \   00000540   2B01               OR      R16, R17
   \   00000542   F4E1               BRNE    ??TIMER2_COMPA_interrupt_28
    885                            {
    886                            cnt_pap_tm_out=VOL_PAP_TM_OUT;
   \   00000544   EB08               LDI     R16, 184
   \   00000546   E01B               LDI     R17, 11
   \   00000548   8300               ST      Z, R16
   \   0000054A   8311               STD     Z+1, R17
    887                            if(cnt_rst_pap==0)
   \   0000054C   9100....           LDS     R16, cnt_rst_pap
   \   00000550   2300               TST     R16
   \   00000552   F451               BRNE    ??TIMER2_COMPA_interrupt_29
    888                               {   
    889                                cnt_pap_tm_out=vol_cnt_rst_pap;
   \   00000554   9100....           LDS     R16, vol_cnt_rst_pap
   \   00000558   E010               LDI     R17, 0
   \   0000055A   8300               ST      Z, R16
   \   0000055C   8311               STD     Z+1, R17
    890                                fl_pap.t0_mi=1;
   \   0000055E   ....               LDI     R30, LOW(fl_pap)
   \   00000560   ....               LDI     R31, (fl_pap) >> 8
   \   00000562   8100               LD      R16, Z
   \   00000564   6008               ORI     R16, 0x08
   \   00000566   C009               RJMP    ??TIMER2_COMPA_interrupt_30
    891                               }
    892                               else 
    893                                 {
    894                                 cnt_rst_pap--;
   \                     ??TIMER2_COMPA_interrupt_29:
   \   00000568   ....               LDI     R30, LOW(cnt_rst_pap)
   \   0000056A   ....               LDI     R31, (cnt_rst_pap) >> 8
   \   0000056C   8100               LD      R16, Z
   \   0000056E   950A               DEC     R16
   \   00000570   8300               ST      Z, R16
    895                                 fl_pap.t0_pl=1; 
   \   00000572   ....               LDI     R30, LOW(fl_pap)
   \   00000574   ....               LDI     R31, (fl_pap) >> 8
   \   00000576   8100               LD      R16, Z
   \   00000578   6004               ORI     R16, 0x04
   \                     ??TIMER2_COMPA_interrupt_30:
   \   0000057A   8300               ST      Z, R16
    896                                 } 
    897                            } 
    898                 
    899                 }
    900           //////////////////////////////////////////
    901           
    902           ///ҐрщьхЁ ЁхёҐрЁҐр IPCP
    903              if(fl_ipcp.ipcp_tm_out_en==1)
   \                     ??TIMER2_COMPA_interrupt_28:
   \   0000057C   ....               LDI     R30, LOW(fl_ipcp)
   \   0000057E   ....               LDI     R31, (fl_ipcp) >> 8
   \   00000580   8100               LD      R16, Z
   \   00000582   FF01               SBRS    R16, 1
   \   00000584   C028               RJMP    ??TIMER2_COMPA_interrupt_31
    904                 {                 
    905                         cnt_ipcp_tm_out--;
   \   00000586   ....               LDI     R30, LOW(cnt_ipcp_tm_out)
   \   00000588   ....               LDI     R31, (cnt_ipcp_tm_out) >> 8
   \   0000058A   8100               LD      R16, Z
   \   0000058C   8111               LDD     R17, Z+1
   \   0000058E   5001               SUBI    R16, 1
   \   00000590   4010               SBCI    R17, 0
   \   00000592   8300               ST      Z, R16
   \   00000594   8311               STD     Z+1, R17
    906                         if(cnt_ipcp_tm_out==0)
   \   00000596   8100               LD      R16, Z
   \   00000598   8111               LDD     R17, Z+1
   \   0000059A   2B01               OR      R16, R17
   \   0000059C   F4E1               BRNE    ??TIMER2_COMPA_interrupt_31
    907                            {
    908                            cnt_ipcp_tm_out=VOL_IPCP_TM_OUT;
   \   0000059E   EB08               LDI     R16, 184
   \   000005A0   E01B               LDI     R17, 11
   \   000005A2   8300               ST      Z, R16
   \   000005A4   8311               STD     Z+1, R17
    909                            if(cnt_rst_ipcp==0)
   \   000005A6   9100....           LDS     R16, cnt_rst_ipcp
   \   000005AA   2300               TST     R16
   \   000005AC   F451               BRNE    ??TIMER2_COMPA_interrupt_32
    910                               {   
    911                                cnt_ipcp_tm_out=vol_cnt_rst_ipcp;
   \   000005AE   9100....           LDS     R16, vol_cnt_rst_ipcp
   \   000005B2   E010               LDI     R17, 0
   \   000005B4   8300               ST      Z, R16
   \   000005B6   8311               STD     Z+1, R17
    912                                fl_ipcp.t0_mi=1;
   \   000005B8   ....               LDI     R30, LOW(fl_ipcp)
   \   000005BA   ....               LDI     R31, (fl_ipcp) >> 8
   \   000005BC   8100               LD      R16, Z
   \   000005BE   6008               ORI     R16, 0x08
   \   000005C0   C009               RJMP    ??TIMER2_COMPA_interrupt_33
    913                               }
    914                               else 
    915                                 {  
    916                                 cnt_rst_ipcp--;
   \                     ??TIMER2_COMPA_interrupt_32:
   \   000005C2   ....               LDI     R30, LOW(cnt_rst_ipcp)
   \   000005C4   ....               LDI     R31, (cnt_rst_ipcp) >> 8
   \   000005C6   8100               LD      R16, Z
   \   000005C8   950A               DEC     R16
   \   000005CA   8300               ST      Z, R16
    917                                 fl_ipcp.t0_pl=1; 
   \   000005CC   ....               LDI     R30, LOW(fl_ipcp)
   \   000005CE   ....               LDI     R31, (fl_ipcp) >> 8
   \   000005D0   8100               LD      R16, Z
   \   000005D2   6004               ORI     R16, 0x04
   \                     ??TIMER2_COMPA_interrupt_33:
   \   000005D4   8300               ST      Z, R16
    918                                 } 
    919                            } 
    920                 
    921                 }
    922                          
    923                          
    924            }
   \                     ??TIMER2_COMPA_interrupt_31:
   \   000005D6   BE5B               OUT     0x3B, R5
   \   000005D8   BE4F               OUT     0x3F, R4
   \   000005DA   9109               LD      R16, Y+
   \   000005DC   9119               LD      R17, Y+
   \   000005DE   9129               LD      R18, Y+
   \   000005E0   9139               LD      R19, Y+
   \   000005E2   9149               LD      R20, Y+
   \   000005E4   9159               LD      R21, Y+
   \   000005E6   9169               LD      R22, Y+
   \   000005E8   9179               LD      R23, Y+
   \   000005EA   9009               LD      R0, Y+
   \   000005EC   9019               LD      R1, Y+
   \   000005EE   9029               LD      R2, Y+
   \   000005F0   9039               LD      R3, Y+
   \   000005F2   91E9               LD      R30, Y+
   \   000005F4   91F9               LD      R31, Y+
   \   000005F6   9189               LD      R24, Y+
   \   000005F8   9199               LD      R25, Y+
   \   000005FA   91A9               LD      R26, Y+
   \   000005FC   91B9               LD      R27, Y+
   \   000005FE   9049               LD      R4, Y+
   \   00000600   9059               LD      R5, Y+
   \   00000602   9518               RETI
    925          ///////////////////////////////////////////////////////////////////////////////////////////////////
    926          
    927          
    928          
    929          
    930          /////////////////////////////////////////////////////////////////////////////////////////////////////////
    931          #pragma vector=TIMER3_COMPA_vect 

   \                                 In segment CODE, align 2, keep-with-next
    932               __interrupt void TIMER3_COMPA_interrupt(void)
   \                     TIMER3_COMPA_interrupt:
    933              { 
   \   00000000   93BA               ST      -Y, R27
   \   00000002   93AA               ST      -Y, R26
   \   00000004   939A               ST      -Y, R25
   \   00000006   938A               ST      -Y, R24
   \   00000008   93FA               ST      -Y, R31
   \   0000000A   93EA               ST      -Y, R30
   \   0000000C   923A               ST      -Y, R3
   \   0000000E   922A               ST      -Y, R2
   \   00000010   921A               ST      -Y, R1
   \   00000012   920A               ST      -Y, R0
   \   00000014   937A               ST      -Y, R23
   \   00000016   936A               ST      -Y, R22
   \   00000018   935A               ST      -Y, R21
   \   0000001A   934A               ST      -Y, R20
   \   0000001C   933A               ST      -Y, R19
   \   0000001E   932A               ST      -Y, R18
   \   00000020   931A               ST      -Y, R17
   \   00000022   930A               ST      -Y, R16
   \   00000024   B78F               IN      R24, 0x3F
   \   00000026   B79B               IN      R25, 0x3B
    934           
    935                
    936                   fl_wdt.from_timer3=1;
   \   00000028   ....               LDI     R30, LOW(fl_wdt)
   \   0000002A   ....               LDI     R31, (fl_wdt) >> 8
   \   0000002C   8100               LD      R16, Z
   \   0000002E   6100               ORI     R16, 0x10
   \   00000030   8300               ST      Z, R16
    937                
    938              /*
    939              if((PINB & CTS_232)==CTS_232)
    940                              { 
    941                              cnt_term++;
    942                              if(cnt_term>=4)lock_it();
    943                              }
    944                              else cnt_term=0;
    945             */ 
    946              
    947              
    948              if(count_block_net!=0) count_block_net--;
   \   00000032   9100....           LDS     R16, count_block_net
   \   00000036   2300               TST     R16
   \   00000038   F029               BREQ    ??TIMER3_COMPA_interrupt_0
   \   0000003A   ....               LDI     R30, LOW(count_block_net)
   \   0000003C   ....               LDI     R31, (count_block_net) >> 8
   \   0000003E   8100               LD      R16, Z
   \   00000040   950A               DEC     R16
   \   00000042   8300               ST      Z, R16
    949              
    950             
    951                if(Appl_seq.cntr_cl==TRUE)
   \                     ??TIMER3_COMPA_interrupt_0:
   \   00000044   ....               LDI     R26, LOW(Appl_seq)
   \   00000046   ....               LDI     R27, (Appl_seq) >> 8
   \   00000048   01FD               MOVW    R31:R30, R27:R26
   \   0000004A   8904               LDD     R16, Z+20
   \   0000004C   3001               CPI     R16, 1
   \   0000004E   F481               BRNE    ??TIMER3_COMPA_interrupt_1
    952                {
    953                if(Appl_seq.cnt_cntr_cl!=0) 
   \   00000050   8906               LDD     R16, Z+22
   \   00000052   8917               LDD     R17, Z+23
   \   00000054   2B01               OR      R16, R17
   \   00000056   F061               BREQ    ??TIMER3_COMPA_interrupt_1
    954                   {
    955                   Appl_seq.cnt_cntr_cl--;
   \   00000058   8906               LDD     R16, Z+22
   \   0000005A   8917               LDD     R17, Z+23
   \   0000005C   5001               SUBI    R16, 1
   \   0000005E   4010               SBCI    R17, 0
   \   00000060   8B06               STD     Z+22, R16
   \   00000062   8B17               STD     Z+23, R17
    956                   if(Appl_seq.cnt_cntr_cl==0) Appl_seq.en_cntr_cl=TRUE;
   \   00000064   8906               LDD     R16, Z+22
   \   00000066   8917               LDD     R17, Z+23
   \   00000068   2B01               OR      R16, R17
   \   0000006A   F411               BRNE    ??TIMER3_COMPA_interrupt_1
   \   0000006C   E001               LDI     R16, 1
   \   0000006E   8B05               STD     Z+21, R16
    957                   } 
    958                }
    959                
    960                
    961                if(cnt_stm_tm1==0)goto next_tm00;  
   \                     ??TIMER3_COMPA_interrupt_1:
   \   00000070   9100....           LDS     R16, cnt_stm_tm1
   \   00000074   2300               TST     R16
   \   00000076   F061               BREQ    ??TIMER3_COMPA_interrupt_2
    962                   cnt_stm_tm1--;
   \   00000078   ....               LDI     R30, LOW(cnt_stm_tm1)
   \   0000007A   ....               LDI     R31, (cnt_stm_tm1) >> 8
   \   0000007C   8100               LD      R16, Z
   \   0000007E   950A               DEC     R16
   \   00000080   8300               ST      Z, R16
    963                   if(cnt_stm_tm1==0) event_modem=EVM_TM1;
   \   00000082   9100....           LDS     R16, cnt_stm_tm1
   \   00000086   2300               TST     R16
   \   00000088   F419               BRNE    ??TIMER3_COMPA_interrupt_2
   \   0000008A   E001               LDI     R16, 1
   \   0000008C   9300....           STS     event_modem, R16
    964           next_tm00:
    965             
    966              
    967              if(fl_rewrite.cnt_reset==0)goto next_tm01; 
   \                     ??TIMER3_COMPA_interrupt_2:
   \   00000090   ....               LDI     R30, LOW(fl_rewrite)
   \   00000092   ....               LDI     R31, (fl_rewrite) >> 8
   \   00000094   8101               LDD     R16, Z+1
   \   00000096   2300               TST     R16
   \   00000098   F041               BREQ    ??TIMER3_COMPA_interrupt_3
    968              fl_rewrite.cnt_reset--;
   \   0000009A   8101               LDD     R16, Z+1
   \   0000009C   950A               DEC     R16
   \   0000009E   8301               STD     Z+1, R16
    969              if(fl_rewrite.cnt_reset==0)
   \   000000A0   8101               LDD     R16, Z+1
   \   000000A2   2300               TST     R16
   \   000000A4   F411               BRNE    ??TIMER3_COMPA_interrupt_3
    970                 {
    971                  lock_it();   
   \   000000A6   ........           CALL    lock_it
    972                 }       
    973          next_tm01: 
    974            
    975            
    976                
    977             ///ҐрщьхЁ ъюэҐЁюы  IP
    978              if (Appl_seq.tm_vzat==0)goto next_tm0;
   \                     ??TIMER3_COMPA_interrupt_3:
   \   000000AA   01FD               MOVW    R31:R30, R27:R26
   \   000000AC   8900               LDD     R16, Z+16
   \   000000AE   8911               LDD     R17, Z+17
   \   000000B0   2B01               OR      R16, R17
   \   000000B2   F061               BREQ    ??TIMER3_COMPA_interrupt_4
    979              Appl_seq.tm_vzat--;
   \   000000B4   8900               LDD     R16, Z+16
   \   000000B6   8911               LDD     R17, Z+17
   \   000000B8   5001               SUBI    R16, 1
   \   000000BA   4010               SBCI    R17, 0
   \   000000BC   8B00               STD     Z+16, R16
   \   000000BE   8B11               STD     Z+17, R17
    980              if (Appl_seq.tm_vzat==0)Appl_seq.event=EV_TM_OUT;
   \   000000C0   8900               LDD     R16, Z+16
   \   000000C2   8911               LDD     R17, Z+17
   \   000000C4   2B01               OR      R16, R17
   \   000000C6   F411               BRNE    ??TIMER3_COMPA_interrupt_4
   \   000000C8   E002               LDI     R16, 2
   \   000000CA   8707               STD     Z+15, R16
    981          next_tm0:   
    982              
    983              
    984              
    985                  if(Appl_seq.cnt_waits==0)goto next_tm1;
   \                     ??TIMER3_COMPA_interrupt_4:
   \   000000CC   8501               LDD     R16, Z+9
   \   000000CE   8512               LDD     R17, Z+10
   \   000000D0   2B01               OR      R16, R17
   \   000000D2   F099               BREQ    ??TIMER3_COMPA_interrupt_5
    986                  Appl_seq.cnt_waits--;
   \   000000D4   8501               LDD     R16, Z+9
   \   000000D6   8512               LDD     R17, Z+10
   \   000000D8   5001               SUBI    R16, 1
   \   000000DA   4010               SBCI    R17, 0
   \   000000DC   8701               STD     Z+9, R16
   \   000000DE   8712               STD     Z+10, R17
    987                  if(Appl_seq.cnt_waits==0)
   \   000000E0   8501               LDD     R16, Z+9
   \   000000E2   8512               LDD     R17, Z+10
   \   000000E4   2B01               OR      R16, R17
   \   000000E6   F449               BRNE    ??TIMER3_COMPA_interrupt_5
    988                         { 
    989                            
    990                             //   Appl_seq.cnt_try++;
    991                                fl_appl_seq.kv_waits=0;
    992                                fl_appl_seq.en_povtor=1; 
   \   000000E8   9100....           LDS     R16, fl_appl_seq
   \   000000EC   7F0D               ANDI    R16, 0xFD
   \   000000EE   6004               ORI     R16, 0x04
   \   000000F0   9300....           STS     fl_appl_seq, R16
    993                                Appl_seq.l_data=0;
   \   000000F4   E000               LDI     R16, 0
   \   000000F6   8704               STD     Z+12, R16
   \   000000F8   8705               STD     Z+13, R16
    994                                
    995                                /*
    996                                if(Appl_seq.cnt_try>=2) 
    997                                 {
    998                                 Appl_seq.cnt_cntr_cl=0;
    999                                 Appl_seq.cntr_cl=TRUE;
   1000                                 Appl_seq.en_cntr_cl=TRUE;
   1001                                 Appl_seq.cnt_try=0;
   1002                                 fl_appl_seq.en_povtor=0;                      
   1003                                 }
   1004                                 */
   1005                                 
   1006                                                
   1007                         }    
   1008           next_tm1:   
   1009              
   1010              if(fl_ip.ip_tm_cntr_en==1)
   \                     ??TIMER3_COMPA_interrupt_5:
   \   000000FA   ....               LDI     R30, LOW(Control)
   \   000000FC   ....               LDI     R31, (Control) >> 8
   \   000000FE   ....               LDI     R26, LOW(fl_ip)
   \   00000100   ....               LDI     R27, (fl_ip) >> 8
   \   00000102   910C               LD      R16, X
   \   00000104   FF01               SBRS    R16, 1
   \   00000106   C028               RJMP    ??TIMER3_COMPA_interrupt_6
   1011                 {       
   1012                         
   1013                         if(Control.cnt_link==0) goto  next_tm2;
   \   00000108   8104               LDD     R16, Z+4
   \   0000010A   8115               LDD     R17, Z+5
   \   0000010C   2B01               OR      R16, R17
   \   0000010E   F121               BREQ    ??TIMER3_COMPA_interrupt_6
   1014                         
   1015                         Control.cnt_link--;
   \   00000110   8104               LDD     R16, Z+4
   \   00000112   8115               LDD     R17, Z+5
   \   00000114   5001               SUBI    R16, 1
   \   00000116   4010               SBCI    R17, 0
   \   00000118   8304               STD     Z+4, R16
   \   0000011A   8315               STD     Z+5, R17
   1016                         if(Control.cnt_link==0)
   \   0000011C   8104               LDD     R16, Z+4
   \   0000011E   8115               LDD     R17, Z+5
   \   00000120   2B01               OR      R16, R17
   \   00000122   F4D1               BRNE    ??TIMER3_COMPA_interrupt_6
   1017                         { 
   1018                         
   1019                         fl_appl_seq1.enable=1;
   \   00000124   ....               LDI     R26, LOW(fl_appl_seq1)
   \   00000126   ....               LDI     R27, (fl_appl_seq1) >> 8
   \   00000128   910C               LD      R16, X
   \   0000012A   6004               ORI     R16, 0x04
   \   0000012C   930C               ST      X, R16
   1020                         
   1021                         //Control.cnt_link=Control.vol_link;
   1022                         Control.link=TRUE; 
   \   0000012E   E001               LDI     R16, 1
   \   00000130   8302               STD     Z+2, R16
   1023                         if(Control.link_waits==TRUE)
   \   00000132   8101               LDD     R16, Z+1
   \   00000134   3001               CPI     R16, 1
   \   00000136   F471               BRNE    ??TIMER3_COMPA_interrupt_7
   1024                            {
   1025                           // if(Control.vol_try!=0)
   1026                            //   {
   1027                                Control.cnt_try++;
   \   00000138   8506               LDD     R16, Z+14
   \   0000013A   9503               INC     R16
   \   0000013C   8706               STD     Z+14, R16
   1028                                if(Control.cnt_try>=Control.vol_try)
   \   0000013E   8506               LDD     R16, Z+14
   \   00000140   8517               LDD     R17, Z+15
   \   00000142   1701               CP      R16, R17
   \   00000144   F038               BRCS    ??TIMER3_COMPA_interrupt_7
   1029                                 {   
   1030                                 Control.link=FALSE;   
   \   00000146   E000               LDI     R16, 0
   \   00000148   8302               STD     Z+2, R16
   1031                                 event_modem=EVM_MS_LMT;
   \   0000014A   E007               LDI     R16, 7
   \   0000014C   9300....           STS     event_modem, R16
   1032                                 Control.link_no=TRUE;//яЁшчэръ ёт чш эхҐ.
   \   00000150   E001               LDI     R16, 1
   \   00000152   8300               ST      Z, R16
   1033                                 }
   1034                              // }
   1035                            }
   1036                                        
   1037                          Control.link_waits=FALSE;
   \                     ??TIMER3_COMPA_interrupt_7:
   \   00000154   E000               LDI     R16, 0
   \   00000156   8301               STD     Z+1, R16
   1038                                       
   1039                         }    
   1040                 
   1041                 }
   1042                 
   1043           next_tm2:  
   1044             
   1045                 
   1046                 if(fl_ip.ip_tm_nat_en==1)   ///ҐрщьхЁ ъюэҐЁюы  NAT
   \                     ??TIMER3_COMPA_interrupt_6:
   \   00000158   ....               LDI     R26, LOW(fl_ip)
   \   0000015A   ....               LDI     R27, (fl_ip) >> 8
   \   0000015C   910C               LD      R16, X
   \   0000015E   FF02               SBRS    R16, 2
   \   00000160   C010               RJMP    ??TIMER3_COMPA_interrupt_8
   1047                 {       
   1048                         Control.cnt_nat--;
   \   00000162   8106               LDD     R16, Z+6
   \   00000164   8117               LDD     R17, Z+7
   \   00000166   5001               SUBI    R16, 1
   \   00000168   4010               SBCI    R17, 0
   \   0000016A   8306               STD     Z+6, R16
   \   0000016C   8317               STD     Z+7, R17
   1049                         if(Control.cnt_nat==0)
   \   0000016E   8106               LDD     R16, Z+6
   \   00000170   8117               LDD     R17, Z+7
   \   00000172   2B01               OR      R16, R17
   \   00000174   F431               BRNE    ??TIMER3_COMPA_interrupt_8
   1050                         { 
   1051                          Control.cnt_nat=Control.vol_nat;
   \   00000176   8502               LDD     R16, Z+10
   \   00000178   8513               LDD     R17, Z+11
   \   0000017A   8306               STD     Z+6, R16
   \   0000017C   8317               STD     Z+7, R17
   1052                          Control.nat=TRUE;
   \   0000017E   E001               LDI     R16, 1
   \   00000180   8303               STD     Z+3, R16
   1053                         }    
   1054                 
   1055                 }
   1056            
   1057             //!!!!!!!!!!!!!dobavka
   1058                 if(cnt_no_link==0) goto next_tm3;
   \                     ??TIMER3_COMPA_interrupt_8:
   \   00000182   ....               LDI     R30, LOW(cnt_no_link)
   \   00000184   ....               LDI     R31, (cnt_no_link) >> 8
   \   00000186   8100               LD      R16, Z
   \   00000188   8111               LDD     R17, Z+1
   \   0000018A   8122               LDD     R18, Z+2
   \   0000018C   8133               LDD     R19, Z+3
   \   0000018E   2B01               OR      R16, R17
   \   00000190   2B02               OR      R16, R18
   \   00000192   2B03               OR      R16, R19
   \   00000194   F0B9               BREQ    ??TIMER3_COMPA_interrupt_9
   1059                   cnt_no_link--;
   \   00000196   8100               LD      R16, Z
   \   00000198   8111               LDD     R17, Z+1
   \   0000019A   8122               LDD     R18, Z+2
   \   0000019C   8133               LDD     R19, Z+3
   \   0000019E   5001               SUBI    R16, 1
   \   000001A0   4010               SBCI    R17, 0
   \   000001A2   4020               SBCI    R18, 0
   \   000001A4   4030               SBCI    R19, 0
   \   000001A6   8300               ST      Z, R16
   \   000001A8   8311               STD     Z+1, R17
   \   000001AA   8322               STD     Z+2, R18
   \   000001AC   8333               STD     Z+3, R19
   1060                   if(cnt_no_link==0)Fl_ch_sim=1;
   \   000001AE   8100               LD      R16, Z
   \   000001B0   8111               LDD     R17, Z+1
   \   000001B2   8122               LDD     R18, Z+2
   \   000001B4   8133               LDD     R19, Z+3
   \   000001B6   2B01               OR      R16, R17
   \   000001B8   2B02               OR      R16, R18
   \   000001BA   2B03               OR      R16, R19
   \   000001BC   F419               BRNE    ??TIMER3_COMPA_interrupt_9
   \   000001BE   E001               LDI     R16, 1
   \   000001C0   9300....           STS     Fl_ch_sim, R16
   1061            next_tm3:     
   1062                 
   1063                  if(cnt_link_res==0) goto next_tm4;
   \                     ??TIMER3_COMPA_interrupt_9:
   \   000001C4   ....               LDI     R30, LOW(cnt_link_res)
   \   000001C6   ....               LDI     R31, (cnt_link_res) >> 8
   \   000001C8   8100               LD      R16, Z
   \   000001CA   8111               LDD     R17, Z+1
   \   000001CC   8122               LDD     R18, Z+2
   \   000001CE   8133               LDD     R19, Z+3
   \   000001D0   2B01               OR      R16, R17
   \   000001D2   2B02               OR      R16, R18
   \   000001D4   2B03               OR      R16, R19
   \   000001D6   F0B9               BREQ    ??TIMER3_COMPA_interrupt_10
   1064                  cnt_link_res--;
   \   000001D8   8100               LD      R16, Z
   \   000001DA   8111               LDD     R17, Z+1
   \   000001DC   8122               LDD     R18, Z+2
   \   000001DE   8133               LDD     R19, Z+3
   \   000001E0   5001               SUBI    R16, 1
   \   000001E2   4010               SBCI    R17, 0
   \   000001E4   4020               SBCI    R18, 0
   \   000001E6   4030               SBCI    R19, 0
   \   000001E8   8300               ST      Z, R16
   \   000001EA   8311               STD     Z+1, R17
   \   000001EC   8322               STD     Z+2, R18
   \   000001EE   8333               STD     Z+3, R19
   1065                  if(cnt_link_res==0)Fl_ch_sim=1;
   \   000001F0   8100               LD      R16, Z
   \   000001F2   8111               LDD     R17, Z+1
   \   000001F4   8122               LDD     R18, Z+2
   \   000001F6   8133               LDD     R19, Z+3
   \   000001F8   2B01               OR      R16, R17
   \   000001FA   2B02               OR      R16, R18
   \   000001FC   2B03               OR      R16, R19
   \   000001FE   F419               BRNE    ??TIMER3_COMPA_interrupt_10
   \   00000200   E001               LDI     R16, 1
   \   00000202   9300....           STS     Fl_ch_sim, R16
   1066              next_tm4:;        
   1067                    
   1068           //EEEEEEEEEEEEEE dobavka
   1069               
   1070                 
   1071           ////////////////////////////////////////// 
   1072               
   1073              }
   \                     ??TIMER3_COMPA_interrupt_10:
   \   00000206   BF9B               OUT     0x3B, R25
   \   00000208   BF8F               OUT     0x3F, R24
   \   0000020A   9109               LD      R16, Y+
   \   0000020C   9119               LD      R17, Y+
   \   0000020E   9129               LD      R18, Y+
   \   00000210   9139               LD      R19, Y+
   \   00000212   9149               LD      R20, Y+
   \   00000214   9159               LD      R21, Y+
   \   00000216   9169               LD      R22, Y+
   \   00000218   9179               LD      R23, Y+
   \   0000021A   9009               LD      R0, Y+
   \   0000021C   9019               LD      R1, Y+
   \   0000021E   9029               LD      R2, Y+
   \   00000220   9039               LD      R3, Y+
   \   00000222   91E9               LD      R30, Y+
   \   00000224   91F9               LD      R31, Y+
   \   00000226   9189               LD      R24, Y+
   \   00000228   9199               LD      R25, Y+
   \   0000022A   91A9               LD      R26, Y+
   \   0000022C   91B9               LD      R27, Y+
   \   0000022E   9518               RETI
   1074          
   1075          
   1076          
   1077          #pragma vector=USART0_RX_vect
   1078                     

   \                                 In segment CODE, align 2, keep-with-next
   1079                     __interrupt  void USART0_RX_interrupt(void)
   \                     USART0_RX_interrupt:
   1080                           
   1081                           
   1082                          {
   \   00000000   93BA               ST      -Y, R27
   \   00000002   93AA               ST      -Y, R26
   \   00000004   939A               ST      -Y, R25
   \   00000006   938A               ST      -Y, R24
   \   00000008   93FA               ST      -Y, R31
   \   0000000A   93EA               ST      -Y, R30
   \   0000000C   923A               ST      -Y, R3
   \   0000000E   922A               ST      -Y, R2
   \   00000010   921A               ST      -Y, R1
   \   00000012   920A               ST      -Y, R0
   \   00000014   937A               ST      -Y, R23
   \   00000016   936A               ST      -Y, R22
   \   00000018   935A               ST      -Y, R21
   \   0000001A   934A               ST      -Y, R20
   \   0000001C   933A               ST      -Y, R19
   \   0000001E   932A               ST      -Y, R18
   \   00000020   931A               ST      -Y, R17
   \   00000022   930A               ST      -Y, R16
   \   00000024   B78F               IN      R24, 0x3F
   \   00000026   B79B               IN      R25, 0x3B
   1083                          unsigned char data;                
   1084                          data=UDR0;
   \   00000028   910000C6           LDS     R16, 198
   1085                          if((Regim==MODEM_ONLY)||(Regim==MODEM_ONLY_R)){UDR2=data;return;} //dobavka             
   \   0000002C   9110....           LDS     R17, Regim
   \   00000030   3012               CPI     R17, 2
   \   00000032   F021               BREQ    ??USART0_RX_interrupt_0
   \   00000034   9110....           LDS     R17, Regim
   \   00000038   3013               CPI     R17, 3
   \   0000003A   F419               BRNE    ??USART0_RX_interrupt_1
   \                     ??USART0_RX_interrupt_0:
   \   0000003C   930000D6           STS     214, R16
   \   00000040   C02B               RJMP    ??USART0_RX_interrupt_2
   1086                          if(Regim==RG_DEBAG)UDR1=data; 
   \                     ??USART0_RX_interrupt_1:
   \   00000042   9110....           LDS     R17, Regim
   \   00000046   3011               CPI     R17, 1
   \   00000048   F411               BRNE    ??USART0_RX_interrupt_3
   \   0000004A   930000CE           STS     206, R16
   1087                        
   1088                          if(command_AT==TRUE)
   \                     ??USART0_RX_interrupt_3:
   \   0000004E   9110....           LDS     R17, command_AT
   \   00000052   3011               CPI     R17, 1
   \   00000054   F4C9               BRNE    ??USART0_RX_interrupt_4
   1089                              {
   1090                              S2_GR;
   \   00000056   9840               CBI     0x08, 0x00
   \   00000058   9A41               SBI     0x08, 0x01
   1091                              At_com.cnt_rx_out=At_com.vol_rx_out;
   \   0000005A   ....               LDI     R30, LOW(At_com)
   \   0000005C   ....               LDI     R31, (At_com) >> 8
   \   0000005E   01DF               MOVW    R27:R26, R31:R30
   \   00000060   96DD               ADIW    R27:R26, 61
   \   00000062   912D               LD      R18, X+
   \   00000064   913C               LD      R19, X
   \   00000066   AF23               STD     Z+59, R18
   \   00000068   AF34               STD     Z+60, R19
   1092                              At_com.cnt_tm_out=0;
   \   0000006A   E020               LDI     R18, 0
   \   0000006C   E030               LDI     R19, 0
   \   0000006E   AB27               STD     Z+55, R18
   \   00000070   AF20               STD     Z+56, R18
   1093                              if(At_com.cnt_rx < LN_BUF_AT)
   \   00000072   A521               LDD     R18, Z+41
   \   00000074   3228               CPI     R18, 40
   \   00000076   F480               BRCC    ??USART0_RX_interrupt_2
   1094                                    {
   1095                                     At_com.buf[At_com.cnt_rx]=data;
   \   00000078   01DF               MOVW    R27:R26, R31:R30
   \   0000007A   0FA2               ADD     R26, R18
   \   0000007C   1FB3               ADC     R27, R19
   \   0000007E   930C               ST      X, R16
   1096                                     At_com.cnt_rx++;
   \   00000080   A501               LDD     R16, Z+41
   \   00000082   9503               INC     R16
   \   00000084   A701               STD     Z+41, R16
   \   00000086   C008               RJMP    ??USART0_RX_interrupt_2
   1097                                     }
   1098                              return;
   1099                              }
   1100                         
   1101                          
   1102                            if(fl_rx_ppp.switcher==0)recive_buf1(data);else recive_buf2(data);
   \                     ??USART0_RX_interrupt_4:
   \   00000088   ....               LDI     R30, LOW(fl_rx_ppp)
   \   0000008A   ....               LDI     R31, (fl_rx_ppp) >> 8
   \   0000008C   8110               LD      R17, Z
   \   0000008E   FD12               SBRC    R17, 2
   \   00000090   C002               RJMP    ??USART0_RX_interrupt_5
   \   00000092   ....               RCALL   recive_buf1
   \   00000094   C001               RJMP    ??USART0_RX_interrupt_2
   \                     ??USART0_RX_interrupt_5:
   \   00000096   ....               RCALL   recive_buf2
   \                     ??USART0_RX_interrupt_2:
   \   00000098   BF9B               OUT     0x3B, R25
   \   0000009A   BF8F               OUT     0x3F, R24
   \   0000009C   9109               LD      R16, Y+
   \   0000009E   9119               LD      R17, Y+
   \   000000A0   9129               LD      R18, Y+
   \   000000A2   9139               LD      R19, Y+
   \   000000A4   9149               LD      R20, Y+
   \   000000A6   9159               LD      R21, Y+
   \   000000A8   9169               LD      R22, Y+
   \   000000AA   9179               LD      R23, Y+
   \   000000AC   9009               LD      R0, Y+
   \   000000AE   9019               LD      R1, Y+
   \   000000B0   9029               LD      R2, Y+
   \   000000B2   9039               LD      R3, Y+
   \   000000B4   91E9               LD      R30, Y+
   \   000000B6   91F9               LD      R31, Y+
   \   000000B8   9189               LD      R24, Y+
   \   000000BA   9199               LD      R25, Y+
   \   000000BC   91A9               LD      R26, Y+
   \   000000BE   91B9               LD      R27, Y+
   \   000000C0   9518               RETI
   1103            
   1104                           }
   1105           /////////////////////////////////////////////////////////////////////////////////////////////////////  
   1106              
   1107           //////////////////////////////////////////////////////////////////////////////////////////////////////////
   1108          
   1109          #pragma vector=USART0_TX_vect

   \                                 In segment CODE, align 2, keep-with-next
   1110               __interrupt void USART0_TX_interrupt(void) 
   \                     USART0_TX_interrupt:
   1111          
   1112          { 
   \   00000000   939A               ST      -Y, R25
   \   00000002   938A               ST      -Y, R24
   \   00000004   93FA               ST      -Y, R31
   \   00000006   93EA               ST      -Y, R30
   \   00000008   923A               ST      -Y, R3
   \   0000000A   922A               ST      -Y, R2
   \   0000000C   921A               ST      -Y, R1
   \   0000000E   920A               ST      -Y, R0
   \   00000010   937A               ST      -Y, R23
   \   00000012   936A               ST      -Y, R22
   \   00000014   935A               ST      -Y, R21
   \   00000016   934A               ST      -Y, R20
   \   00000018   933A               ST      -Y, R19
   \   0000001A   932A               ST      -Y, R18
   \   0000001C   931A               ST      -Y, R17
   \   0000001E   930A               ST      -Y, R16
   \   00000020   B78F               IN      R24, 0x3F
   \   00000022   B79B               IN      R25, 0x3B
   1113            
   1114            if(command_AT==TRUE)sending_at_pac(); 
   \   00000024   9100....           LDS     R16, command_AT
   \   00000028   3001               CPI     R16, 1
   \   0000002A   F419               BRNE    ??USART0_TX_interrupt_0
   \   0000002C   ........           CALL    sending_at_pac
   \   00000030   C00A               RJMP    ??USART0_TX_interrupt_1
   1115              
   1116            else 
   1117                  {
   1118                  
   1119                  if(fl_cts_232_ignor==TRUE){sending_ppp_pac();return;}
   \                     ??USART0_TX_interrupt_0:
   \   00000032   9100....           LDS     R16, fl_cts_232_ignor
   \   00000036   3001               CPI     R16, 1
   \   00000038   F411               BRNE    ??USART0_TX_interrupt_2
   \                     ??USART0_TX_interrupt_3:
   \   0000003A   ....               RCALL   sending_ppp_pac
   \   0000003C   C004               RJMP    ??USART0_TX_interrupt_1
   1120                  
   1121                  if(check_cts()==1) return;
   \                     ??USART0_TX_interrupt_2:
   \   0000003E   ........           CALL    check_cts
   \   00000042   3001               CPI     R16, 1
   \   00000044   F7D1               BRNE    ??USART0_TX_interrupt_3
   \                     ??USART0_TX_interrupt_1:
   \   00000046   BF9B               OUT     0x3B, R25
   \   00000048   BF8F               OUT     0x3F, R24
   \   0000004A   9109               LD      R16, Y+
   \   0000004C   9119               LD      R17, Y+
   \   0000004E   9129               LD      R18, Y+
   \   00000050   9139               LD      R19, Y+
   \   00000052   9149               LD      R20, Y+
   \   00000054   9159               LD      R21, Y+
   \   00000056   9169               LD      R22, Y+
   \   00000058   9179               LD      R23, Y+
   \   0000005A   9009               LD      R0, Y+
   \   0000005C   9019               LD      R1, Y+
   \   0000005E   9029               LD      R2, Y+
   \   00000060   9039               LD      R3, Y+
   \   00000062   91E9               LD      R30, Y+
   \   00000064   91F9               LD      R31, Y+
   \   00000066   9189               LD      R24, Y+
   \   00000068   9199               LD      R25, Y+
   \   0000006A   9518               RETI
   1122                  sending_ppp_pac();
   1123                  } 
   1124            }
   1125          
   1126          /////////////////////////////////////////////////////////////////////////////////////////////////////
   1127          /*
   1128          #pragma vector=USART0_UDRE_vect
   1129                     
   1130                     __interrupt  void USART0_UDRE_interrupt(void)
   1131                     {
   1132                       sending_ppp_proverka();
   1133                     }
   1134          
   1135          
   1136          */
   1137          /////////////////////////////////////////////////////////////////////////////////////////////////////
   1138          #pragma vector=USART1_RX_vect
   1139                     

   \                                 In segment CODE, align 2, keep-with-next
   1140                     __interrupt  void USART1_RX_interrupt(void)
   \                     USART1_RX_interrupt:
   1141                           
   1142                           
   1143                          {
   \   00000000   93BA               ST      -Y, R27
   \   00000002   93AA               ST      -Y, R26
   \   00000004   93FA               ST      -Y, R31
   \   00000006   93EA               ST      -Y, R30
   \   00000008   934A               ST      -Y, R20
   \   0000000A   933A               ST      -Y, R19
   \   0000000C   932A               ST      -Y, R18
   \   0000000E   931A               ST      -Y, R17
   \   00000010   930A               ST      -Y, R16
   \   00000012   B74F               IN      R20, 0x3F
   1144                          unsigned char data;
   1145                          
   1146                          data=UDR1;
   \   00000014   912000CE           LDS     R18, 206
   1147                          S4_GR;
   \   00000018   9844               CBI     0x08, 0x04
   \   0000001A   9A45               SBI     0x08, 0x05
   1148                          Rs485_2.cnt_tm_rx_out=Rs485_2.vol_tm_rx_out;
   \   0000001C   ....               LDI     R30, LOW(Rs485_1)
   \   0000001E   ....               LDI     R31, (Rs485_1) >> 8
   \   00000020   8D04               LDD     R16, Z+28
   \   00000022   8D15               LDD     R17, Z+29
   \   00000024   8F02               STD     Z+26, R16
   \   00000026   8F13               STD     Z+27, R17
   1149                          Rs485_2.cnt_tm_out=0;
   \   00000028   E000               LDI     R16, 0
   \   0000002A   8F06               STD     Z+30, R16
   \   0000002C   8F07               STD     Z+31, R16
   1150                          if(Rs485_2.cnt_bt_rx_tx < MAX_BUF_RS485_2)
   \   0000002E   8902               LDD     R16, Z+18
   \   00000030   8913               LDD     R17, Z+19
   \   00000032   3002               CPI     R16, 2
   \   00000034   E030               LDI     R19, 0
   \   00000036   0713               CPC     R17, R19
   \   00000038   F460               BRCC    ??USART1_RX_interrupt_0
   1151                                 {
   1152                                  Rs485_2_buf_rx_tx[Rs485_2.cnt_bt_rx_tx]=data;
   \   0000003A   01DF               MOVW    R27:R26, R31:R30
   \   0000003C   0FA0               ADD     R26, R16
   \   0000003E   1FB1               ADC     R27, R17
   \   00000040   96D8               ADIW    R27:R26, 56
   \   00000042   932C               ST      X, R18
   1153                                  Rs485_2.cnt_bt_rx_tx++;
   \   00000044   8902               LDD     R16, Z+18
   \   00000046   8913               LDD     R17, Z+19
   \   00000048   5F0F               SUBI    R16, 255
   \   0000004A   4F1F               SBCI    R17, 255
   \   0000004C   8B02               STD     Z+18, R16
   \   0000004E   8B13               STD     Z+19, R17
   \   00000050   C003               RJMP    ??USART1_RX_interrupt_1
   1154                                  }
   1155                                  else fl_485_2.over=1;
   \                     ??USART1_RX_interrupt_0:
   \   00000052   AD03               LDD     R16, Z+59
   \   00000054   6100               ORI     R16, 0x10
   \   00000056   AF03               STD     Z+59, R16
   1156                          }
   \                     ??USART1_RX_interrupt_1:
   \   00000058   BF4F               OUT     0x3F, R20
   \   0000005A   9109               LD      R16, Y+
   \   0000005C   9119               LD      R17, Y+
   \   0000005E   9129               LD      R18, Y+
   \   00000060   9139               LD      R19, Y+
   \   00000062   9149               LD      R20, Y+
   \   00000064   91E9               LD      R30, Y+
   \   00000066   91F9               LD      R31, Y+
   \   00000068   91A9               LD      R26, Y+
   \   0000006A   91B9               LD      R27, Y+
   \   0000006C   9518               RETI
   1157           /////////////////////////////////////////////////////////////////////////////////////////////////////
   1158           
   1159          
   1160          
   1161          
   1162          /////////////////////////////////////////////////////////////////////////////////////////////////////
   1163          
   1164          #pragma vector=USART1_UDRE_vect
   1165                     

   \                                 In segment CODE, align 2, keep-with-next
   1166                     __interrupt  void USART1_UDRE_interrupt(void)
   \                     USART1_UDRE_interrupt:
   1167          
   1168          {
   \   00000000   93BA               ST      -Y, R27
   \   00000002   93AA               ST      -Y, R26
   \   00000004   93FA               ST      -Y, R31
   \   00000006   93EA               ST      -Y, R30
   \   00000008   932A               ST      -Y, R18
   \   0000000A   931A               ST      -Y, R17
   \   0000000C   930A               ST      -Y, R16
   \   0000000E   B72F               IN      R18, 0x3F
   1169          
   1170           if(Rs485_2.cnt_bt_rx_tx==0) goto end_tx1;
   \   00000010   ....               LDI     R30, LOW(Rs485_1)
   \   00000012   ....               LDI     R31, (Rs485_1) >> 8
   \   00000014   8902               LDD     R16, Z+18
   \   00000016   8913               LDD     R17, Z+19
   \   00000018   2B01               OR      R16, R17
   \   0000001A   F519               BRNE    ??USART1_UDRE_interrupt_0
   1171                                                                 
   1172                          UDR1=*Rs485_2.p_data485++;
   1173                          Rs485_2.cnt_bt_rx_tx--; 
   1174                          return;
   1175          end_tx1:
   1176                         UCSR1B=UCSR1B & ~UDRIE;
   \   0000001C   910000C9           LDS     R16, 201
   \   00000020   7D0F               ANDI    R16, 0xDF
   \   00000022   930000C9           STS     201, R16
   1177                         Rs485_2.cnt_bt_rx_tx=0;
   \   00000026   E000               LDI     R16, 0
   \   00000028   8B02               STD     Z+18, R16
   \   0000002A   8B03               STD     Z+19, R16
   1178                         Rs485_2.cnt_tm_tx_out=Rs485_2.vol_tm_tx_out;
   \   0000002C   8D00               LDD     R16, Z+24
   \   0000002E   8D11               LDD     R17, Z+25
   \   00000030   8B04               STD     Z+20, R16
   \   00000032   8B15               STD     Z+21, R17
   1179                         if(Rs485_2.cnt_tm_tx_out==0)
   \   00000034   2B01               OR      R16, R17
   \   00000036   F461               BRNE    ??USART1_UDRE_interrupt_1
   1180                         {
   1181                          S4_OFF;
   \   00000038   9844               CBI     0x08, 0x04
   \   0000003A   9845               CBI     0x08, 0x05
   1182                          Rs485_2.cnt_tm_out=Rs485_2.vol_tm_out;
   \   0000003C   A100               LDD     R16, Z+32
   \   0000003E   A111               LDD     R17, Z+33
   \   00000040   8F06               STD     Z+30, R16
   \   00000042   8F17               STD     Z+31, R17
   1183                          CLR_RTS3;  // togle to receiv mode  
   \   00000044   985C               CBI     0x0B, 0x04
   1184                          UCSR1B =UCSR1B | RXEN | RXCIE; // togle to receiv mode ;
   \   00000046   910000C9           LDS     R16, 201
   \   0000004A   6900               ORI     R16, 0x90
   \   0000004C   930000C9           STS     201, R16
   \                     ??USART1_UDRE_interrupt_1:
   \   00000050   BF2F               OUT     0x3F, R18
   \   00000052   9109               LD      R16, Y+
   \   00000054   9119               LD      R17, Y+
   \   00000056   9129               LD      R18, Y+
   \   00000058   91E9               LD      R30, Y+
   \   0000005A   91F9               LD      R31, Y+
   \   0000005C   91A9               LD      R26, Y+
   \   0000005E   91B9               LD      R27, Y+
   \   00000060   9518               RETI
   1185                         }
   \                     ??USART1_UDRE_interrupt_0:
   \   00000062   A1A2               LDD     R26, Z+34
   \   00000064   A1B3               LDD     R27, Z+35
   \   00000066   910C               LD      R16, X
   \   00000068   930000CE           STS     206, R16
   \   0000006C   A102               LDD     R16, Z+34
   \   0000006E   A113               LDD     R17, Z+35
   \   00000070   5F0F               SUBI    R16, 255
   \   00000072   4F1F               SBCI    R17, 255
   \   00000074   A302               STD     Z+34, R16
   \   00000076   A313               STD     Z+35, R17
   \   00000078   8902               LDD     R16, Z+18
   \   0000007A   8913               LDD     R17, Z+19
   \   0000007C   5001               SUBI    R16, 1
   \   0000007E   4010               SBCI    R17, 0
   \   00000080   8B02               STD     Z+18, R16
   \   00000082   8B13               STD     Z+19, R17
   \   00000084   CFE5               RJMP    ??USART1_UDRE_interrupt_1
   1186                        
   1187          
   1188          }
   1189          ///////////////////////////////////////////////////////////////////////////////////////////////////////////////////
   1190          
   1191          
   1192          
   1193          
   1194          
   1195          
   1196          /////////////////////////////////////////////////////////////////////////////////////////////////////
   1197          #pragma vector=USART2_RX_vect
   1198                     

   \                                 In segment CODE, align 2, keep-with-next
   1199                     __interrupt  void USART2_RX_interrupt(void)
   \                     USART2_RX_interrupt:
   1200                           
   1201                           
   1202                          {
   \   00000000   93BA               ST      -Y, R27
   \   00000002   93AA               ST      -Y, R26
   \   00000004   93FA               ST      -Y, R31
   \   00000006   93EA               ST      -Y, R30
   \   00000008   934A               ST      -Y, R20
   \   0000000A   933A               ST      -Y, R19
   \   0000000C   932A               ST      -Y, R18
   \   0000000E   931A               ST      -Y, R17
   \   00000010   930A               ST      -Y, R16
   \   00000012   B74F               IN      R20, 0x3F
   1203                          unsigned char data;                
   1204                          data=UDR2;
   \   00000014   912000D6           LDS     R18, 214
   1205                            
   1206                          
   1207                           if (fl_at_mom_232==1)
   \   00000018   9100....           LDS     R16, fl_at_mom_232
   \   0000001C   3001               CPI     R16, 1
   \   0000001E   F4D1               BRNE    ??USART2_RX_interrupt_0
   1208                          {
   1209                            if(vol_tx_ppp>=VOL_TX_PPP)vol_tx_ppp=0;
   \   00000020   ....               LDI     R30, LOW(vol_tx_ppp)
   \   00000022   ....               LDI     R31, (vol_tx_ppp) >> 8
   \   00000024   8100               LD      R16, Z
   \   00000026   8111               LDD     R17, Z+1
   \   00000028   3C0A               CPI     R16, 202
   \   0000002A   E033               LDI     R19, 3
   \   0000002C   0713               CPC     R17, R19
   \   0000002E   F018               BRCS    ??USART2_RX_interrupt_1
   \   00000030   E000               LDI     R16, 0
   \   00000032   8300               ST      Z, R16
   \   00000034   8301               STD     Z+1, R16
   1210                            buf_tx_232[vol_tx_ppp]=data; 
   \                     ??USART2_RX_interrupt_1:
   \   00000036   8100               LD      R16, Z
   \   00000038   8111               LDD     R17, Z+1
   \   0000003A   01F8               MOVW    R31:R30, R17:R16
   \   0000003C   ....               SUBI    R30, LOW((-(buf_tx_232) & 0xFFFF))
   \   0000003E   ....               SBCI    R31, (-(buf_tx_232) & 0xFFFF) >> 8
   \   00000040   8320               ST      Z, R18
   1211                            vol_tx_ppp++; 
   \   00000042   ....               LDI     R30, LOW(vol_tx_ppp)
   \   00000044   ....               LDI     R31, (vol_tx_ppp) >> 8
   \   00000046   8100               LD      R16, Z
   \   00000048   8111               LDD     R17, Z+1
   \   0000004A   5F0F               SUBI    R16, 255
   \   0000004C   4F1F               SBCI    R17, 255
   \   0000004E   8300               ST      Z, R16
   \   00000050   8311               STD     Z+1, R17
   1212                            return; 
   \   00000052   C02B               RJMP    ??USART2_RX_interrupt_2
   1213                           } 
   1214                          
   1215                          
   1216                          if((Regim==MODEM_ONLY)||(Regim==MODEM_ONLY_R)){UDR0=data;return;}//dobavka  
   \                     ??USART2_RX_interrupt_0:
   \   00000054   9100....           LDS     R16, Regim
   \   00000058   3002               CPI     R16, 2
   \   0000005A   F021               BREQ    ??USART2_RX_interrupt_3
   \   0000005C   9100....           LDS     R16, Regim
   \   00000060   3003               CPI     R16, 3
   \   00000062   F419               BRNE    ??USART2_RX_interrupt_4
   \                     ??USART2_RX_interrupt_3:
   \   00000064   932000C6           STS     198, R18
   \   00000068   C020               RJMP    ??USART2_RX_interrupt_2
   1217                          S5_GR;
   \                     ??USART2_RX_interrupt_4:
   \   0000006A   9846               CBI     0x08, 0x06
   \   0000006C   9A47               SBI     0x08, 0x07
   1218                          Rs232_2.cnt_tm_rx_out=Rs232_2.vol_tm_rx_out;
   \   0000006E   ....               LDI     R30, LOW(Rs485_1)
   \   00000070   ....               LDI     R31, (Rs485_1) >> 8
   \   00000072   A506               LDD     R16, Z+46
   \   00000074   A517               LDD     R17, Z+47
   \   00000076   A704               STD     Z+44, R16
   \   00000078   A715               STD     Z+45, R17
   1219                          Rs232_2.cnt_tm_out=0;
   \   0000007A   E000               LDI     R16, 0
   \   0000007C   AB00               STD     Z+48, R16
   \   0000007E   AB01               STD     Z+49, R16
   1220                          if(Rs232_2.cnt_bt_rx_tx < MAX_BUF_RS232_2)
   \   00000080   A104               LDD     R16, Z+36
   \   00000082   A115               LDD     R17, Z+37
   \   00000084   3804               CPI     R16, 132
   \   00000086   E033               LDI     R19, 3
   \   00000088   0713               CPC     R17, R19
   \   0000008A   F458               BRCC    ??USART2_RX_interrupt_5
   1221                                 {
   1222                                  Rs232_2_buf_rx_tx[Rs232_2.cnt_bt_rx_tx]=data;
   \   0000008C   01D8               MOVW    R27:R26, R17:R16
   \   0000008E   ....               SUBI    R26, LOW((-(Rs232_2_buf_rx_tx) & 0xFFFF))
   \   00000090   ....               SBCI    R27, (-(Rs232_2_buf_rx_tx) & 0xFFFF) >> 8
   \   00000092   932C               ST      X, R18
   1223                                  Rs232_2.cnt_bt_rx_tx++;
   \   00000094   A104               LDD     R16, Z+36
   \   00000096   A115               LDD     R17, Z+37
   \   00000098   5F0F               SUBI    R16, 255
   \   0000009A   4F1F               SBCI    R17, 255
   \   0000009C   A304               STD     Z+36, R16
   \   0000009E   A315               STD     Z+37, R17
   \   000000A0   C004               RJMP    ??USART2_RX_interrupt_2
   1224                                  }
   1225                                  else fl_232_2.over=1;
   \                     ??USART2_RX_interrupt_5:
   \   000000A2   96FC               ADIW    R31:R30, 60
   \   000000A4   8100               LD      R16, Z
   \   000000A6   6100               ORI     R16, 0x10
   \   000000A8   8300               ST      Z, R16
   \                     ??USART2_RX_interrupt_2:
   \   000000AA   BF4F               OUT     0x3F, R20
   \   000000AC   9109               LD      R16, Y+
   \   000000AE   9119               LD      R17, Y+
   \   000000B0   9129               LD      R18, Y+
   \   000000B2   9139               LD      R19, Y+
   \   000000B4   9149               LD      R20, Y+
   \   000000B6   91E9               LD      R30, Y+
   \   000000B8   91F9               LD      R31, Y+
   \   000000BA   91A9               LD      R26, Y+
   \   000000BC   91B9               LD      R27, Y+
   \   000000BE   9518               RETI
   1226                          }
   1227           /////////////////////////////////////////////////////////////////////////////////////////////////////
   1228           
   1229          
   1230          
   1231          
   1232          /////////////////////////////////////////////////////////////////////////////////////////////////////
   1233          
   1234          #pragma vector=USART2_UDRE_vect
   1235                     

   \                                 In segment CODE, align 2, keep-with-next
   1236                     __interrupt  void USART2_UDRE_interrupt(void)
   \                     USART2_UDRE_interrupt:
   1237          
   1238          {
   \   00000000   93BA               ST      -Y, R27
   \   00000002   93AA               ST      -Y, R26
   \   00000004   93FA               ST      -Y, R31
   \   00000006   93EA               ST      -Y, R30
   \   00000008   932A               ST      -Y, R18
   \   0000000A   931A               ST      -Y, R17
   \   0000000C   930A               ST      -Y, R16
   \   0000000E   B72F               IN      R18, 0x3F
   1239          
   1240           if(Rs232_2.cnt_bt_rx_tx==0) goto end_tx;
   \   00000010   ....               LDI     R30, LOW(Rs485_1)
   \   00000012   ....               LDI     R31, (Rs485_1) >> 8
   \   00000014   A104               LDD     R16, Z+36
   \   00000016   A115               LDD     R17, Z+37
   \   00000018   2B01               OR      R16, R17
   \   0000001A   F539               BRNE    ??USART2_UDRE_interrupt_0
   1241                                                                 
   1242                          UDR2=*Rs232_2.p_data485++;
   1243                          Rs232_2.cnt_bt_rx_tx--; 
   1244                          return;
   1245          end_tx:
   1246                         UCSR2B=UCSR2B & ~UDRIE;
   \   0000001C   910000D1           LDS     R16, 209
   \   00000020   7D0F               ANDI    R16, 0xDF
   \   00000022   930000D1           STS     209, R16
   1247                         Rs232_2.cnt_bt_rx_tx=0;
   \   00000026   E000               LDI     R16, 0
   \   00000028   A304               STD     Z+36, R16
   \   0000002A   A305               STD     Z+37, R16
   1248                         Rs232_2.cnt_tm_tx_out=Rs232_2.vol_tm_tx_out;
   \   0000002C   A502               LDD     R16, Z+42
   \   0000002E   A513               LDD     R17, Z+43
   \   00000030   A306               STD     Z+38, R16
   \   00000032   A317               STD     Z+39, R17
   1249                         if(Rs232_2.cnt_tm_tx_out==0)
   \   00000034   2B01               OR      R16, R17
   \   00000036   F481               BRNE    ??USART2_UDRE_interrupt_1
   1250                         {
   1251                          S5_OFF;
   \   00000038   9846               CBI     0x08, 0x06
   \   0000003A   9847               CBI     0x08, 0x07
   1252                          Rs232_2.cnt_tm_out=Rs232_2.vol_tm_out;
   \   0000003C   A902               LDD     R16, Z+50
   \   0000003E   A913               LDD     R17, Z+51
   \   00000040   AB00               STD     Z+48, R16
   \   00000042   AB11               STD     Z+49, R17
   1253                          CLR_RTS2;  // togle to receiv mode  
   \   00000044   91000102           LDS     R16, 258
   \   00000048   6004               ORI     R16, 0x04
   \   0000004A   93000102           STS     258, R16
   1254                          UCSR2B =UCSR2B | RXEN | RXCIE; // togle to receiv mode ;
   \   0000004E   910000D1           LDS     R16, 209
   \   00000052   6900               ORI     R16, 0x90
   \   00000054   930000D1           STS     209, R16
   \                     ??USART2_UDRE_interrupt_1:
   \   00000058   BF2F               OUT     0x3F, R18
   \   0000005A   9109               LD      R16, Y+
   \   0000005C   9119               LD      R17, Y+
   \   0000005E   9129               LD      R18, Y+
   \   00000060   91E9               LD      R30, Y+
   \   00000062   91F9               LD      R31, Y+
   \   00000064   91A9               LD      R26, Y+
   \   00000066   91B9               LD      R27, Y+
   \   00000068   9518               RETI
   1255                         }
   \                     ??USART2_UDRE_interrupt_0:
   \   0000006A   A9A4               LDD     R26, Z+52
   \   0000006C   A9B5               LDD     R27, Z+53
   \   0000006E   910C               LD      R16, X
   \   00000070   930000D6           STS     214, R16
   \   00000074   A904               LDD     R16, Z+52
   \   00000076   A915               LDD     R17, Z+53
   \   00000078   5F0F               SUBI    R16, 255
   \   0000007A   4F1F               SBCI    R17, 255
   \   0000007C   AB04               STD     Z+52, R16
   \   0000007E   AB15               STD     Z+53, R17
   \   00000080   A104               LDD     R16, Z+36
   \   00000082   A115               LDD     R17, Z+37
   \   00000084   5001               SUBI    R16, 1
   \   00000086   4010               SBCI    R17, 0
   \   00000088   A304               STD     Z+36, R16
   \   0000008A   A315               STD     Z+37, R17
   \   0000008C   CFE5               RJMP    ??USART2_UDRE_interrupt_1
   1256                        
   1257          
   1258          }
   1259          ///////////////////////////////////////////////////////////////////////////////////////////////////////////////////
   1260          
   1261          
   1262          
   1263          
   1264          
   1265          /////////////////////////////////////////////////////////////////////////////////////////////////////
   1266          #pragma vector=USART3_RX_vect
   1267                     

   \                                 In segment CODE, align 2, keep-with-next
   1268                     __interrupt  void USART3_RX_interrupt(void)
   \                     USART3_RX_interrupt:
   1269                           
   1270                           
   1271                          {
   \   00000000   93BA               ST      -Y, R27
   \   00000002   93AA               ST      -Y, R26
   \   00000004   93FA               ST      -Y, R31
   \   00000006   93EA               ST      -Y, R30
   \   00000008   934A               ST      -Y, R20
   \   0000000A   933A               ST      -Y, R19
   \   0000000C   932A               ST      -Y, R18
   \   0000000E   931A               ST      -Y, R17
   \   00000010   930A               ST      -Y, R16
   \   00000012   B74F               IN      R20, 0x3F
   1272                          unsigned char data;
   1273                          
   1274                          data=UDR3;
   \   00000014   91200136           LDS     R18, 310
   1275                          S3_GR;
   \   00000018   9842               CBI     0x08, 0x02
   \   0000001A   9A43               SBI     0x08, 0x03
   1276                          Rs485_1.cnt_tm_rx_out=Rs485_1.vol_tm_rx_out;
   \   0000001C   ....               LDI     R30, LOW(Rs485_1)
   \   0000001E   ....               LDI     R31, (Rs485_1) >> 8
   \   00000020   8502               LDD     R16, Z+10
   \   00000022   8513               LDD     R17, Z+11
   \   00000024   8700               STD     Z+8, R16
   \   00000026   8711               STD     Z+9, R17
   1277                          Rs485_1.cnt_tm_out=0;
   \   00000028   E000               LDI     R16, 0
   \   0000002A   8704               STD     Z+12, R16
   \   0000002C   8705               STD     Z+13, R16
   1278                          if(Rs485_1.cnt_bt_rx_tx < MAX_BUF_RS485_1)
   \   0000002E   8100               LD      R16, Z
   \   00000030   8111               LDD     R17, Z+1
   \   00000032   3604               CPI     R16, 100
   \   00000034   E030               LDI     R19, 0
   \   00000036   0713               CPC     R17, R19
   \   00000038   F468               BRCC    ??USART3_RX_interrupt_0
   1279                                 {
   1280                                  Rs485_1_buf_rx_tx[Rs485_1.cnt_bt_rx_tx]=data;
   \   0000003A   8100               LD      R16, Z
   \   0000003C   8111               LDD     R17, Z+1
   \   0000003E   01D8               MOVW    R27:R26, R17:R16
   \   00000040   ....               SUBI    R26, LOW((-(Rs485_1_buf_rx_tx) & 0xFFFF))
   \   00000042   ....               SBCI    R27, (-(Rs485_1_buf_rx_tx) & 0xFFFF) >> 8
   \   00000044   932C               ST      X, R18
   1281                                  Rs485_1.cnt_bt_rx_tx++;
   \   00000046   8100               LD      R16, Z
   \   00000048   8111               LDD     R17, Z+1
   \   0000004A   5F0F               SUBI    R16, 255
   \   0000004C   4F1F               SBCI    R17, 255
   \   0000004E   8300               ST      Z, R16
   \   00000050   8311               STD     Z+1, R17
   \   00000052   C003               RJMP    ??USART3_RX_interrupt_1
   1282                                  }
   1283                                  else fl_485_1.over=1;
   \                     ??USART3_RX_interrupt_0:
   \   00000054   AD02               LDD     R16, Z+58
   \   00000056   6100               ORI     R16, 0x10
   \   00000058   AF02               STD     Z+58, R16
   1284                          }
   \                     ??USART3_RX_interrupt_1:
   \   0000005A   BF4F               OUT     0x3F, R20
   \   0000005C   9109               LD      R16, Y+
   \   0000005E   9119               LD      R17, Y+
   \   00000060   9129               LD      R18, Y+
   \   00000062   9139               LD      R19, Y+
   \   00000064   9149               LD      R20, Y+
   \   00000066   91E9               LD      R30, Y+
   \   00000068   91F9               LD      R31, Y+
   \   0000006A   91A9               LD      R26, Y+
   \   0000006C   91B9               LD      R27, Y+
   \   0000006E   9518               RETI
   1285           /////////////////////////////////////////////////////////////////////////////////////////////////////
   1286           
   1287          
   1288          
   1289          
   1290          /////////////////////////////////////////////////////////////////////////////////////////////////////
   1291          
   1292          #pragma vector=USART3_UDRE_vect
   1293                     

   \                                 In segment CODE, align 2, keep-with-next
   1294                     __interrupt  void USART3_UDRE_interrupt(void)
   \                     USART3_UDRE_interrupt:
   1295          
   1296          {
   \   00000000   93BA               ST      -Y, R27
   \   00000002   93AA               ST      -Y, R26
   \   00000004   93FA               ST      -Y, R31
   \   00000006   93EA               ST      -Y, R30
   \   00000008   932A               ST      -Y, R18
   \   0000000A   931A               ST      -Y, R17
   \   0000000C   930A               ST      -Y, R16
   \   0000000E   B72F               IN      R18, 0x3F
   1297          
   1298           if(Rs485_1.cnt_bt_rx_tx==0) goto end_tx2;
   \   00000010   ....               LDI     R30, LOW(Rs485_1)
   \   00000012   ....               LDI     R31, (Rs485_1) >> 8
   \   00000014   8100               LD      R16, Z
   \   00000016   8111               LDD     R17, Z+1
   \   00000018   2B01               OR      R16, R17
   \   0000001A   F539               BRNE    ??USART3_UDRE_interrupt_0
   1299                                                                 
   1300                          UDR3=*Rs485_1.p_data485++;
   1301                          Rs485_1.cnt_bt_rx_tx--; 
   1302                          return;
   1303          end_tx2:
   1304                         UCSR3B=UCSR3B & ~UDRIE;
   \   0000001C   91000131           LDS     R16, 305
   \   00000020   7D0F               ANDI    R16, 0xDF
   \   00000022   93000131           STS     305, R16
   1305                         Rs485_1.cnt_bt_rx_tx=0;
   \   00000026   E000               LDI     R16, 0
   \   00000028   8300               ST      Z, R16
   \   0000002A   8301               STD     Z+1, R16
   1306                         Rs485_1.cnt_tm_tx_out=Rs485_1.vol_tm_tx_out;
   \   0000002C   8106               LDD     R16, Z+6
   \   0000002E   8117               LDD     R17, Z+7
   \   00000030   8302               STD     Z+2, R16
   \   00000032   8313               STD     Z+3, R17
   1307                         if(Rs485_1.cnt_tm_tx_out==0)
   \   00000034   2B01               OR      R16, R17
   \   00000036   F481               BRNE    ??USART3_UDRE_interrupt_1
   1308                         {
   1309                          S3_OFF;
   \   00000038   9842               CBI     0x08, 0x02
   \   0000003A   9843               CBI     0x08, 0x03
   1310                          Rs485_1.cnt_tm_out=Rs485_1.vol_tm_out;
   \   0000003C   8506               LDD     R16, Z+14
   \   0000003E   8517               LDD     R17, Z+15
   \   00000040   8704               STD     Z+12, R16
   \   00000042   8715               STD     Z+13, R17
   1311                          CLR_RTS1;  // togle to receiv mode  
   \   00000044   91000105           LDS     R16, 261
   \   00000048   7F0B               ANDI    R16, 0xFB
   \   0000004A   93000105           STS     261, R16
   1312                          UCSR3B =UCSR3B | RXEN | RXCIE; // togle to receiv mode ;
   \   0000004E   91000131           LDS     R16, 305
   \   00000052   6900               ORI     R16, 0x90
   \   00000054   93000131           STS     305, R16
   \                     ??USART3_UDRE_interrupt_1:
   \   00000058   BF2F               OUT     0x3F, R18
   \   0000005A   9109               LD      R16, Y+
   \   0000005C   9119               LD      R17, Y+
   \   0000005E   9129               LD      R18, Y+
   \   00000060   91E9               LD      R30, Y+
   \   00000062   91F9               LD      R31, Y+
   \   00000064   91A9               LD      R26, Y+
   \   00000066   91B9               LD      R27, Y+
   \   00000068   9518               RETI
   1313                         }
   \                     ??USART3_UDRE_interrupt_0:
   \   0000006A   89A0               LDD     R26, Z+16
   \   0000006C   89B1               LDD     R27, Z+17
   \   0000006E   910C               LD      R16, X
   \   00000070   93000136           STS     310, R16
   \   00000074   8900               LDD     R16, Z+16
   \   00000076   8911               LDD     R17, Z+17
   \   00000078   5F0F               SUBI    R16, 255
   \   0000007A   4F1F               SBCI    R17, 255
   \   0000007C   8B00               STD     Z+16, R16
   \   0000007E   8B11               STD     Z+17, R17
   \   00000080   8100               LD      R16, Z
   \   00000082   8111               LDD     R17, Z+1
   \   00000084   5001               SUBI    R16, 1
   \   00000086   4010               SBCI    R17, 0
   \   00000088   8300               ST      Z, R16
   \   0000008A   8311               STD     Z+1, R17
   \   0000008C   CFE5               RJMP    ??USART3_UDRE_interrupt_1
   1314                        
   1315          
   1316          }
   1317          ///////////////////////////////////////////////////////////////////////////////////////////////////////////////////
   1318          
   1319          #pragma vector=ADC_vect

   \                                 In segment CODE, align 2, keep-with-next
   1320           __interrupt  void ADC_interrupt(void)
   \                     ADC_interrupt:
   1321           { 
   \   00000000   93FA               ST      -Y, R31
   \   00000002   93EA               ST      -Y, R30
   \   00000004   920A               ST      -Y, R0
   \   00000006   937A               ST      -Y, R23
   \   00000008   936A               ST      -Y, R22
   \   0000000A   935A               ST      -Y, R21
   \   0000000C   934A               ST      -Y, R20
   \   0000000E   933A               ST      -Y, R19
   \   00000010   932A               ST      -Y, R18
   \   00000012   931A               ST      -Y, R17
   \   00000014   930A               ST      -Y, R16
   \   00000016   B60F               IN      R0, 0x3F
   1322            // temperatura=ADC;
   1323          
   1324             fl_wdt.from_adc=1;
   \   00000018   ....               LDI     R30, LOW(fl_wdt)
   \   0000001A   ....               LDI     R31, (fl_wdt) >> 8
   \   0000001C   8100               LD      R16, Z
   \   0000001E   6400               ORI     R16, 0x40
   \   00000020   8300               ST      Z, R16
   1325             
   1326            //  __enable_interrupt();
   1327             
   1328             count_summa_temperatura++;
   \   00000022   ....               LDI     R30, LOW(count_summa_temperatura)
   \   00000024   ....               LDI     R31, (count_summa_temperatura) >> 8
   \   00000026   8100               LD      R16, Z
   \   00000028   8111               LDD     R17, Z+1
   \   0000002A   5F0F               SUBI    R16, 255
   \   0000002C   4F1F               SBCI    R17, 255
   \   0000002E   8300               ST      Z, R16
   \   00000030   8311               STD     Z+1, R17
   1329             summa_temperatura=summa_temperatura+ADC;
   \   00000032   91000078           LDS     R16, 120
   \   00000036   91100079           LDS     R17, 121
   \   0000003A   E020               LDI     R18, 0
   \   0000003C   E030               LDI     R19, 0
   \   0000003E   ....               LDI     R30, LOW(summa_temperatura)
   \   00000040   ....               LDI     R31, (summa_temperatura) >> 8
   \   00000042   8140               LD      R20, Z
   \   00000044   8151               LDD     R21, Z+1
   \   00000046   8162               LDD     R22, Z+2
   \   00000048   8173               LDD     R23, Z+3
   \   0000004A   0F40               ADD     R20, R16
   \   0000004C   1F51               ADC     R21, R17
   \   0000004E   1F62               ADC     R22, R18
   \   00000050   1F72               ADC     R23, R18
   \   00000052   8340               ST      Z, R20
   \   00000054   8351               STD     Z+1, R21
   \   00000056   8362               STD     Z+2, R22
   \   00000058   8373               STD     Z+3, R23
   1330             
   1331                 if(count_summa_temperatura>=1024)
   \   0000005A   ....               LDI     R30, LOW(count_summa_temperatura)
   \   0000005C   ....               LDI     R31, (count_summa_temperatura) >> 8
   \   0000005E   8100               LD      R16, Z
   \   00000060   8111               LDD     R17, Z+1
   \   00000062   3000               CPI     R16, 0
   \   00000064   E024               LDI     R18, 4
   \   00000066   0712               CPC     R17, R18
   \   00000068   F0A8               BRCS    ??ADC_interrupt_0
   1332                    {
   1333                    count_summa_temperatura=0;
   \   0000006A   8330               ST      Z, R19
   \   0000006C   8331               STD     Z+1, R19
   1334                    temperatura=summa_temperatura>>10;
   \   0000006E   ....               LDI     R30, LOW(summa_temperatura)
   \   00000070   ....               LDI     R31, (summa_temperatura) >> 8
   \   00000072   8100               LD      R16, Z
   \   00000074   8111               LDD     R17, Z+1
   \   00000076   8122               LDD     R18, Z+2
   \   00000078   8133               LDD     R19, Z+3
   \   0000007A   E04A               LDI     R20, 10
   \   0000007C   ........           CALL    ?UL_SHR_L03
   \   00000080   ....               LDI     R30, LOW(temperatura)
   \   00000082   ....               LDI     R31, (temperatura) >> 8
   \   00000084   8300               ST      Z, R16
   \   00000086   8311               STD     Z+1, R17
   1335                    summa_temperatura=0;
   \   00000088   ....               LDI     R30, LOW(summa_temperatura)
   \   0000008A   ....               LDI     R31, (summa_temperatura) >> 8
   \   0000008C   8330               ST      Z, R19
   \   0000008E   8331               STD     Z+1, R19
   \   00000090   8332               STD     Z+2, R19
   \   00000092   8333               STD     Z+3, R19
   1336                  }  
   1337                 
   1338                 ADCSRA=ADCSRA | 0x47;       
   \                     ??ADC_interrupt_0:
   \   00000094   9100007A           LDS     R16, 122
   \   00000098   6407               ORI     R16, 0x47
   \   0000009A   9300007A           STS     122, R16
   1339           }
   \   0000009E   BE0F               OUT     0x3F, R0
   \   000000A0   9109               LD      R16, Y+
   \   000000A2   9119               LD      R17, Y+
   \   000000A4   9129               LD      R18, Y+
   \   000000A6   9139               LD      R19, Y+
   \   000000A8   9149               LD      R20, Y+
   \   000000AA   9159               LD      R21, Y+
   \   000000AC   9169               LD      R22, Y+
   \   000000AE   9179               LD      R23, Y+
   \   000000B0   9009               LD      R0, Y+
   \   000000B2   91E9               LD      R30, Y+
   \   000000B4   91F9               LD      R31, Y+
   \   000000B6   9518               RETI

   \                                 In segment INTVEC, offset 0x34, root
   \                     `??TIMER2_COMPA_interrupt??INTVEC 52`:
   \   00000034   ........           JMP     TIMER2_COMPA_interrupt

   \                                 In segment INTVEC, offset 0x54, root
   \                     `??TIMER0_COMPA_interrupt??INTVEC 84`:
   \   00000054   ........           JMP     TIMER0_COMPA_interrupt

   \                                 In segment INTVEC, offset 0x64, root
   \                     `??USART0_RX_interrupt??INTVEC 100`:
   \   00000064   ........           JMP     USART0_RX_interrupt

   \                                 In segment INTVEC, offset 0x6c, root
   \                     `??USART0_TX_interrupt??INTVEC 108`:
   \   0000006C   ........           JMP     USART0_TX_interrupt

   \                                 In segment INTVEC, offset 0x74, root
   \                     `??ADC_interrupt??INTVEC 116`:
   \   00000074   ........           JMP     ADC_interrupt

   \                                 In segment INTVEC, offset 0x80, root
   \                     `??TIMER3_COMPA_interrupt??INTVEC 128`:
   \   00000080   ........           JMP     TIMER3_COMPA_interrupt

   \                                 In segment INTVEC, offset 0x90, root
   \                     `??USART1_RX_interrupt??INTVEC 144`:
   \   00000090   ........           JMP     USART1_RX_interrupt

   \                                 In segment INTVEC, offset 0x94, root
   \                     `??USART1_UDRE_interrupt??INTVEC 148`:
   \   00000094   ........           JMP     USART1_UDRE_interrupt

   \                                 In segment INTVEC, offset 0xcc, root
   \                     `??USART2_RX_interrupt??INTVEC 204`:
   \   000000CC   ........           JMP     USART2_RX_interrupt

   \                                 In segment INTVEC, offset 0xd0, root
   \                     `??USART2_UDRE_interrupt??INTVEC 208`:
   \   000000D0   ........           JMP     USART2_UDRE_interrupt

   \                                 In segment INTVEC, offset 0xd8, root
   \                     `??USART3_RX_interrupt??INTVEC 216`:
   \   000000D8   ........           JMP     USART3_RX_interrupt

   \                                 In segment INTVEC, offset 0xdc, root
   \                     `??USART3_UDRE_interrupt??INTVEC 220`:
   \   000000DC   ........           JMP     USART3_UDRE_interrupt
   1340          
   1341             
   1342          
   1343          

   Maximum stack usage in bytes:

     Function               CSTACK RSTACK
     --------               ------ ------
     ADC_interrupt             12      4
     TIMER0_COMPA_interrupt     6      2
     TIMER2_COMPA_interrupt    20      2
       -> sending_ppp_pac      20      2
       -> sending_ppp_pac      20      2
       -> fun_state_md         20      2
     TIMER3_COMPA_interrupt    18      2
       -> lock_it              18      2
     USART0_RX_interrupt       18      2
       -> recive_buf1          18      2
       -> recive_buf2          18      2
     USART0_TX_interrupt       16      2
       -> sending_at_pac       16      2
       -> sending_ppp_pac      16      2
       -> check_cts            16      2
     USART1_RX_interrupt       10      2
     USART1_UDRE_interrupt      8      2
     USART2_RX_interrupt       10      2
     USART2_UDRE_interrupt      8      2
     USART3_RX_interrupt       10      2
     USART3_UDRE_interrupt      8      2
     recive_buf1                0      2
     recive_buf2                0      2
     sending_ppp_pac            0      2
     sending_ppp_proverka       0      2


   Segment part sizes:

     Function/Label                 Bytes
     --------------                 -----
     _A_UDR3                           1
     _A_UCSR3B                         1
     _A_PORTJ                          1
     _A_PORTH                          1
     _A_UDR2                           1
     _A_UCSR2B                         1
     _A_UDR1                           1
     _A_UCSR1B                         1
     _A_UDR0                           1
     _A_UCSR0B                         1
     _A_ADCSRA                         1
     _A_ADC                            2
     _A_PING                           1
     _A_PINE                           1
     _A_PORTD                          1
     _A_PORTC                          1
     Rs485_1                          61
     Rs485_1_buf_rx_tx               100
     Rs232_2_buf_rx_tx               900
     fl_rx_ppp                         1
     struct_tcc1                       4
     sending_ppp_proverka             72
     sending_ppp_pac                 338
     recive_buf1                     288
     recive_buf2                     282
     TIMER0_COMPA_interrupt          140
     TIMER2_COMPA_interrupt         1540
     TIMER3_COMPA_interrupt          560
     USART0_RX_interrupt             194
     USART0_TX_interrupt             108
     USART1_RX_interrupt             110
     USART1_UDRE_interrupt           134
     USART2_RX_interrupt             192
     USART2_UDRE_interrupt           142
     USART3_RX_interrupt             112
     USART3_UDRE_interrupt           142
     ADC_interrupt                   184
     ??TIMER2_COMPA_interrupt??INTVEC 52
                                       4
     ??TIMER0_COMPA_interrupt??INTVEC 84
                                       4
     ??USART0_RX_interrupt??INTVEC 100
                                       4
     ??USART0_TX_interrupt??INTVEC 108
                                       4
     ??ADC_interrupt??INTVEC 116       4
     ??TIMER3_COMPA_interrupt??INTVEC 128
                                       4
     ??USART1_RX_interrupt??INTVEC 144
                                       4
     ??USART1_UDRE_interrupt??INTVEC 148
                                       4
     ??USART2_RX_interrupt??INTVEC 204
                                       4
     ??USART2_UDRE_interrupt??INTVEC 208
                                       4
     ??USART3_RX_interrupt??INTVEC 216
                                       4
     ??USART3_UDRE_interrupt??INTVEC 220
                                       4
      Others                           7

 
    17 bytes in segment ABSOLUTE
 4 538 bytes in segment CODE
     7 bytes in segment INITTAB
    48 bytes in segment INTVEC
 1 066 bytes in segment NEAR_Z
 
 4 538 bytes of CODE memory (+ 55 bytes shared)
 1 066 bytes of DATA memory (+ 17 bytes shared)

Errors: none
Warnings: 1
