//////////////////////////////////////////////////////////////////////////////
//                                                                           /
//                                                     24/Oct/2025  13:29:09 /
// IAR Atmel AVR C/C++ Compiler V4.12A/W32, Evaluation Version               /
// Copyright 1996-2005 IAR Systems. All rights reserved.                     /
//                                                                           /
//    Source file  =  E:\sim800Elam2560_bootnew_i2cerr_a7682e\interr4.c      /
//    Command line =  E:\sim800Elam2560_bootnew_i2cerr_a7682e\interr4.c      /
//                    --cpu=m2560 -ms -o E:\sim800Elam2560_bootnew_i2cerr_a7 /
//                    682e\Debug\Obj\ -lCN E:\sim800Elam2560_bootnew_i2cerr_ /
//                    a7682e\Debug\List\ -lA E:\sim800Elam2560_bootnew_i2cer /
//                    r_a7682e\Debug\List\ -y --initializers_in_flash -z9    /
//                    --no_inline --no_tbaa --cross_call_passes=1 --debug    /
//                    -e -I "E:\box\IAR Systems\Embedded Workbench 4.0       /
//                    Evaluation\avr\INC\" -I "E:\box\IAR Systems\Embedded   /
//                    Workbench 4.0 Evaluation\avr\INC\DLIB\" --eeprom_size  /
//                    4096 --dlib_config "E:\box\IAR Systems\Embedded        /
//                    Workbench 4.0 Evaluation\avr\LIB\DLIB\dlAVR-5s-ec-n.h" /
//    List file    =  E:\sim800Elam2560_bootnew_i2cerr_a7682e\Debug\List\int /
//                    err4.s90                                               /
//                                                                           /
//                                                                           /
//////////////////////////////////////////////////////////////////////////////

        NAME interr4

        RTMODEL "__64bit_doubles", "disabled"
        RTMODEL "__cpu", "5"
        RTMODEL "__cpu_name", "ATmega2560"
        RTMODEL "__enhanced_core", "enabled"
        RTMODEL "__has_elpm", "true"
        RTMODEL "__memory_model", "2"
        RTMODEL "__no_rampd", "enabled"
        RTMODEL "__rt_version", "3"

        RSEG CSTACK:DATA:NOROOT(0)
        RSEG RSTACK:DATA:NOROOT(0)

        EXTERN ?EPILOGUE_B4_L09
        EXTERN ?PROLOGUE4_L09
        EXTERN ?Register_R4_is_cg_reg
        EXTERN ?Register_R5_is_cg_reg
        EXTERN ?Register_R6_is_cg_reg
        EXTERN ?Register_R7_is_cg_reg
        EXTERN ?S_SHL_L02
        EXTERN ?need_segment_init

        PUBWEAK `?<Segment init: NEAR_Z>`
        PUBWEAK `??ADC_interrupt??INTVEC 116`
        PUBWEAK `??PCINT2_interrupt??INTVEC 44`
        PUBWEAK `??TIMER0_COMPA_interrupt??INTVEC 84`
        PUBWEAK `??TIMER2_COMPA_interrupt??INTVEC 52`
        PUBWEAK `??TIMER3_COMPA_interrupt??INTVEC 128`
        PUBWEAK `??USART0_RX_interrupt??INTVEC 100`
        PUBWEAK `??USART0_TX_interrupt??INTVEC 108`
        PUBWEAK `??USART1_RX_interrupt??INTVEC 144`
        PUBWEAK `??USART1_TX_interrupt??INTVEC 152`
        PUBWEAK `??USART2_RX_interrupt??INTVEC 204`
        PUBWEAK `??USART2_TX_interrupt??INTVEC 212`
        PUBWEAK `??USART3_RX_interrupt??INTVEC 216`
        PUBWEAK `??USART3_TX_interrupt??INTVEC 224`
?Subroutine41 EQU 0
        PUBLIC ADC_interrupt
        FUNCTION ADC_interrupt,0233H
        LOCFRAME CSTACK, 25, STACK
        LOCFRAME RSTACK, 3, STACK
        PUBLIC PCINT2_interrupt
        FUNCTION PCINT2_interrupt,0233H
        LOCFRAME CSTACK, 9, STACK
        LOCFRAME RSTACK, 3, STACK
        PUBLIC Rs232_2
        PUBLIC Rs232_2_buf_rx_tx
        PUBLIC Rs485_1
        PUBLIC Rs485_1_buf_rx_tx
        PUBLIC Rs485_2
        PUBLIC Rs485_2_buf_rx_tx
        PUBLIC TIMER0_COMPA_interrupt
        FUNCTION TIMER0_COMPA_interrupt,021233H
        LOCFRAME CSTACK, 19, STACK
        LOCFRAME RSTACK, 3, STACK
        PUBLIC TIMER2_COMPA_interrupt
        FUNCTION TIMER2_COMPA_interrupt,021233H
        LOCFRAME CSTACK, 19, STACK
        LOCFRAME RSTACK, 3, STACK
        PUBLIC TIMER3_COMPA_interrupt
        FUNCTION TIMER3_COMPA_interrupt,021233H
        LOCFRAME CSTACK, 21, STACK
        LOCFRAME RSTACK, 3, STACK
        PUBLIC USART0_RX_interrupt
        FUNCTION USART0_RX_interrupt,021233H
        LOCFRAME CSTACK, 17, STACK
        LOCFRAME RSTACK, 3, STACK
        PUBLIC USART0_TX_interrupt
        FUNCTION USART0_TX_interrupt,021233H
        LOCFRAME CSTACK, 17, STACK
        LOCFRAME RSTACK, 3, STACK
        PUBLIC USART1_RX_interrupt
        FUNCTION USART1_RX_interrupt,0233H
        LOCFRAME CSTACK, 11, STACK
        LOCFRAME RSTACK, 3, STACK
        PUBLIC USART1_TX_interrupt
        FUNCTION USART1_TX_interrupt,0233H
        LOCFRAME CSTACK, 9, STACK
        LOCFRAME RSTACK, 3, STACK
        PUBLIC USART2_RX_interrupt
        FUNCTION USART2_RX_interrupt,0233H
        LOCFRAME CSTACK, 11, STACK
        LOCFRAME RSTACK, 3, STACK
        PUBLIC USART2_TX_interrupt
        FUNCTION USART2_TX_interrupt,0233H
        LOCFRAME CSTACK, 9, STACK
        LOCFRAME RSTACK, 3, STACK
        PUBLIC USART3_RX_interrupt
        FUNCTION USART3_RX_interrupt,0233H
        LOCFRAME CSTACK, 11, STACK
        LOCFRAME RSTACK, 3, STACK
        PUBLIC USART3_TX_interrupt
        FUNCTION USART3_TX_interrupt,0233H
        LOCFRAME CSTACK, 9, STACK
        LOCFRAME RSTACK, 3, STACK
        PUBWEAK _A_ADC
        PUBWEAK _A_ADCSRA
        PUBWEAK _A_ADCSRB
        PUBWEAK _A_ADMUX
        PUBWEAK _A_EIFR
        PUBWEAK _A_EIMSK
        PUBWEAK _A_PCMSK2
        PUBWEAK _A_PINA
        PUBWEAK _A_PINE
        PUBWEAK _A_PING
        PUBWEAK _A_PINJ
        PUBWEAK _A_PINK
        PUBWEAK _A_PORTA
        PUBWEAK _A_PORTB
        PUBWEAK _A_PORTC
        PUBWEAK _A_PORTD
        PUBWEAK _A_PORTH
        PUBWEAK _A_PORTJ
        PUBWEAK _A_PORTK
        PUBWEAK _A_UCSR0B
        PUBWEAK _A_UCSR1B
        PUBWEAK _A_UCSR2B
        PUBWEAK _A_UCSR3B
        PUBWEAK _A_UDR0
        PUBWEAK _A_UDR1
        PUBWEAK _A_UDR2
        PUBWEAK _A_UDR3
        PUBWEAK __?EEARH
        PUBWEAK __?EEARL
        PUBWEAK __?EECR
        PUBWEAK __?EEDR
        PUBLIC begin_ts
        FUNCTION begin_ts,0203H
        LOCFRAME RSTACK, 3, STACK
        PUBLIC cnt_clr_wdt
        PUBLIC cnt_flag_out
        PUBLIC cnt_tu1
        PUBLIC cnt_tu2
        PUBLIC count_summa_adc
        PUBLIC dabl
        PUBLIC fl_232_2
        PUBLIC fl_485_1
        PUBLIC fl_485_2
        PUBLIC fl_rx_ppp
        PUBLIC flag_arhiv_prihod
        PUBLIC modbus_mem1
        PUBLIC opros_ts
        FUNCTION opros_ts,0203H
        LOCFRAME CSTACK, 4, STACK
        LOCFRAME RSTACK, 6, STACK
        PUBLIC point_Head
        PUBLIC recive_buf1
        FUNCTION recive_buf1,0203H
        LOCFRAME RSTACK, 3, STACK
        PUBLIC recive_buf2
        FUNCTION recive_buf2,0203H
        LOCFRAME RSTACK, 3, STACK
        PUBLIC send_232_2
        FUNCTION send_232_2,0203H
        LOCFRAME RSTACK, 3, STACK
        PUBLIC send_485_1
        FUNCTION send_485_1,0203H
        LOCFRAME RSTACK, 3, STACK
        PUBLIC send_485_2
        FUNCTION send_485_2,0203H
        LOCFRAME RSTACK, 3, STACK
        PUBLIC sending_ppp_pac
        FUNCTION sending_ppp_pac,0203H
        LOCFRAME RSTACK, 3, STACK
        PUBLIC sending_ppp_proverka
        FUNCTION sending_ppp_proverka,0203H
        LOCFRAME RSTACK, 3, STACK
        PUBLIC str_tc1
        PUBLIC str_tc15
        PUBLIC str_tc16
        PUBLIC str_tc2
        PUBLIC str_tc3
        PUBLIC str_tc4
        PUBLIC str_tc5
        PUBLIC str_tc6
        PUBLIC str_tc7
        PUBLIC str_tc8
        PUBLIC struct_tcc1
        PUBLIC struct_tcc2
        PUBLIC summa_adc
        
        CFI Names cfiNames0
        CFI StackFrame CFA_Y Y DATA
        CFI StackFrame CFA_SP SP DATA
        CFI VirtualResource ?RetPad:1, ?RetByte3:8, ?RetHigh:8, ?RetLow:8
        CFI VirtualResource ?Ret:25
        CFI Resource R0:8, R1:8, R2:8, R3:8, R4:8, R5:8, R6:8, R7:8, R8:8, R9:8
        CFI Resource R10:8, R11:8, R12:8, R13:8, R14:8, R15:8, R16:8, R17:8
        CFI Resource R18:8, R19:8, R20:8, R21:8, R22:8, R23:8, R24:8, R25:8
        CFI Resource R26:8, R27:8, R28:8, R29:8, R30:8, R31:8
        CFI Resource ?RetHighByteMask:8, SP:16, SPH:8, SPL:8, Y:16
        CFI ResourceParts ?Ret ?RetByte3, ?RetHigh, ?RetLow, ?RetPad
        CFI ResourceParts SP SPH, SPL
        CFI ResourceParts Y R29, R28
        CFI EndNames cfiNames0
        
        CFI Common cfiCommon0 Using cfiNames0
        CFI CodeAlign 1
        CFI DataAlign 1
        CFI ReturnAddress ?Ret CODE
        CFI CFA_Y Y+0
        CFI CFA_SP SP+3
        CFI ?RetPad 0
        CFI ?RetByte3 and(load(1, DATA, sub(CFA_SP, 2)), ?RetHighByteMask)
        CFI ?RetHigh Frame(CFA_SP, -1)
        CFI ?RetLow Frame(CFA_SP, 0)
        CFI ?Ret Concat
        CFI R0 Undefined
        CFI R1 Undefined
        CFI R2 Undefined
        CFI R3 Undefined
        CFI R4 SameValue
        CFI R5 SameValue
        CFI R6 SameValue
        CFI R7 SameValue
        CFI R8 SameValue
        CFI R9 SameValue
        CFI R10 SameValue
        CFI R11 SameValue
        CFI R12 SameValue
        CFI R13 SameValue
        CFI R14 SameValue
        CFI R15 SameValue
        CFI R16 Undefined
        CFI R17 Undefined
        CFI R18 Undefined
        CFI R19 Undefined
        CFI R20 Undefined
        CFI R21 Undefined
        CFI R22 Undefined
        CFI R23 Undefined
        CFI R24 SameValue
        CFI R25 SameValue
        CFI R26 SameValue
        CFI R27 SameValue
        CFI R28 Undefined
        CFI R29 Undefined
        CFI R30 Undefined
        CFI R31 Undefined
        CFI ?RetHighByteMask SameValue
        CFI SPH Undefined
        CFI SPL Undefined
        CFI EndCommon cfiCommon0
        
        
        CFI Common cfiCommon1 Using cfiNames0
        CFI CodeAlign 1
        CFI DataAlign 1
        CFI ReturnAddress ?Ret CODE
        CFI CFA_Y Notused
        CFI CFA_SP SP+3
        CFI ?RetPad 0
        CFI ?RetByte3 and(load(1, DATA, sub(CFA_SP, 2)), ?RetHighByteMask)
        CFI ?RetHigh Frame(CFA_SP, -1)
        CFI ?RetLow Frame(CFA_SP, 0)
        CFI ?Ret Concat
        CFI R0 SameValue
        CFI R1 SameValue
        CFI R2 SameValue
        CFI R3 SameValue
        CFI R4 SameValue
        CFI R5 SameValue
        CFI R6 SameValue
        CFI R7 SameValue
        CFI R8 SameValue
        CFI R9 SameValue
        CFI R10 SameValue
        CFI R11 SameValue
        CFI R12 SameValue
        CFI R13 SameValue
        CFI R14 SameValue
        CFI R15 SameValue
        CFI R16 SameValue
        CFI R17 SameValue
        CFI R18 SameValue
        CFI R19 SameValue
        CFI R20 SameValue
        CFI R21 SameValue
        CFI R22 SameValue
        CFI R23 SameValue
        CFI R24 SameValue
        CFI R25 SameValue
        CFI R26 SameValue
        CFI R27 SameValue
        CFI R28 Undefined
        CFI R29 Undefined
        CFI R30 SameValue
        CFI R31 SameValue
        CFI ?RetHighByteMask SameValue
        CFI SPH Undefined
        CFI SPL Undefined
        CFI Y SameValue
        CFI EndCommon cfiCommon1
        
        
        CFI Common cfiCommon2 Using cfiNames0
        CFI CodeAlign 1
        CFI DataAlign 1
        CFI ReturnAddress ?Ret CODE
        CFI CFA_Y Y+0
        CFI CFA_SP SP+3
        CFI ?RetPad 0
        CFI ?RetByte3 and(load(1, DATA, sub(CFA_SP, 2)), ?RetHighByteMask)
        CFI ?RetHigh Frame(CFA_SP, -1)
        CFI ?RetLow Frame(CFA_SP, 0)
        CFI ?Ret Concat
        CFI R0 SameValue
        CFI R1 SameValue
        CFI R2 SameValue
        CFI R3 SameValue
        CFI R4 SameValue
        CFI R5 SameValue
        CFI R6 SameValue
        CFI R7 SameValue
        CFI R8 SameValue
        CFI R9 SameValue
        CFI R10 SameValue
        CFI R11 SameValue
        CFI R12 SameValue
        CFI R13 SameValue
        CFI R14 SameValue
        CFI R15 SameValue
        CFI R16 SameValue
        CFI R17 SameValue
        CFI R18 SameValue
        CFI R19 SameValue
        CFI R20 SameValue
        CFI R21 SameValue
        CFI R22 SameValue
        CFI R23 SameValue
        CFI R24 SameValue
        CFI R25 SameValue
        CFI R26 SameValue
        CFI R27 SameValue
        CFI R28 Undefined
        CFI R29 Undefined
        CFI R30 SameValue
        CFI R31 SameValue
        CFI ?RetHighByteMask SameValue
        CFI SPH Undefined
        CFI SPL Undefined
        CFI EndCommon cfiCommon2
        
ADC_interrupt       SYMBOL "ADC_interrupt"
`??ADC_interrupt??INTVEC 116` SYMBOL "??INTVEC 116", ADC_interrupt
PCINT2_interrupt    SYMBOL "PCINT2_interrupt"
`??PCINT2_interrupt??INTVEC 44` SYMBOL "??INTVEC 44", PCINT2_interrupt
TIMER0_COMPA_interrupt SYMBOL "TIMER0_COMPA_interrupt"
`??TIMER0_COMPA_interrupt??INTVEC 84` SYMBOL "??INTVEC 84", TIMER0_COMPA_interrupt
TIMER2_COMPA_interrupt SYMBOL "TIMER2_COMPA_interrupt"
`??TIMER2_COMPA_interrupt??INTVEC 52` SYMBOL "??INTVEC 52", TIMER2_COMPA_interrupt
TIMER3_COMPA_interrupt SYMBOL "TIMER3_COMPA_interrupt"
`??TIMER3_COMPA_interrupt??INTVEC 128` SYMBOL "??INTVEC 128", TIMER3_COMPA_interrupt
USART0_RX_interrupt SYMBOL "USART0_RX_interrupt"
`??USART0_RX_interrupt??INTVEC 100` SYMBOL "??INTVEC 100", USART0_RX_interrupt
USART0_TX_interrupt SYMBOL "USART0_TX_interrupt"
`??USART0_TX_interrupt??INTVEC 108` SYMBOL "??INTVEC 108", USART0_TX_interrupt
USART1_RX_interrupt SYMBOL "USART1_RX_interrupt"
`??USART1_RX_interrupt??INTVEC 144` SYMBOL "??INTVEC 144", USART1_RX_interrupt
USART1_TX_interrupt SYMBOL "USART1_TX_interrupt"
`??USART1_TX_interrupt??INTVEC 152` SYMBOL "??INTVEC 152", USART1_TX_interrupt
USART2_RX_interrupt SYMBOL "USART2_RX_interrupt"
`??USART2_RX_interrupt??INTVEC 204` SYMBOL "??INTVEC 204", USART2_RX_interrupt
USART2_TX_interrupt SYMBOL "USART2_TX_interrupt"
`??USART2_TX_interrupt??INTVEC 212` SYMBOL "??INTVEC 212", USART2_TX_interrupt
USART3_RX_interrupt SYMBOL "USART3_RX_interrupt"
`??USART3_RX_interrupt??INTVEC 216` SYMBOL "??INTVEC 216", USART3_RX_interrupt
USART3_TX_interrupt SYMBOL "USART3_TX_interrupt"
`??USART3_TX_interrupt??INTVEC 224` SYMBOL "??INTVEC 224", USART3_TX_interrupt

        EXTERN fun_state_md
        FUNCTION fun_state_md,0202H
        EXTERN lock_it
        FUNCTION lock_it,0202H
        EXTERN func_crc_tii
        FUNCTION func_crc_tii,0202H
        EXTERN burst_ds_r
        FUNCTION burst_ds_r,0202H
        EXTERN crc_m1
        FUNCTION crc_m1,0202H
        EXTERN WrArrayToFlesh
        FUNCTION WrArrayToFlesh,0202H
        EXTERN sending_at_pac
        FUNCTION sending_at_pac,0202H
        EXTERN check_cts
        FUNCTION check_cts,0202H
        EXTERN Appl_seq
        EXTERN Appl_seq_buf
        EXTERN At_com
        EXTERN Buf1_rx_ppp
        EXTERN Buf2_rx_ppp
        EXTERN Control
        EXTERN Fl_ch_sim
        EXTERN Life
        EXTERN Regim
        EXTERN arr_tii_32
        EXTERN bit_registr1
        EXTERN buf_tx_232
        EXTERN cnt_cts_off
        EXTERN cnt_incom
        EXTERN cnt_ipcp_tm_out
        EXTERN cnt_key_off
        EXTERN cnt_lcp_tm_out
        EXTERN cnt_link_res
        EXTERN cnt_no_link
        EXTERN cnt_outcom
        EXTERN cnt_pap_tm_out
        EXTERN cnt_sec
        EXTERN cnt_snd
        EXTERN cnt_stm_tm1
        EXTERN cnt_stm_tm2
        EXTERN cnt_supervosor
        EXTERN command_AT
        EXTERN count_tx_ppp
        EXTERN crc_tii
        EXTERN event_modem
        EXTERN fl_appl_seq
        EXTERN fl_appl_seq1
        EXTERN fl_at_com
        EXTERN fl_at_mom_232
        EXTERN fl_cts_232
        EXTERN fl_cts_232_ignor
        EXTERN fl_ip
        EXTERN fl_ipcp
        EXTERN fl_lcp
        EXTERN fl_pap
        EXTERN fl_reg3
        EXTERN fl_rewrite
        EXTERN fl_wdt
        EXTERN glutch
        EXTERN glutch5
        EXTERN glutch6
        EXTERN ip_change
        EXTERN nomer_tab
        EXTERN podnos
        EXTERN prihod_uhod
        EXTERN sel_modul
        EXTERN simka
        EXTERN temperatura
        EXTERN term
        EXTERN tim_prihod_uhod
        EXTERN time_cnt_ch_time
        EXTERN timer_autovzat
        EXTERN timer_vhod
        EXTERN trevoga
        EXTERN vol_tx_ppp
        EXTERN window_prihod_uhod

// E:\sim800Elam2560_bootnew_i2cerr_a7682e\interr4.c
//    1 #include <iom2560.h> 

        ASEGN ABSOLUTE:DATA:NOROOT,0136H
// union <unnamed> volatile __ext_io _A_UDR3
_A_UDR3:
        DS 1

        ASEGN ABSOLUTE:DATA:NOROOT,0131H
// union <unnamed> volatile __ext_io _A_UCSR3B
_A_UCSR3B:
        DS 1

        ASEGN ABSOLUTE:DATA:NOROOT,0108H
// union <unnamed> volatile __ext_io _A_PORTK
_A_PORTK:
        DS 1

        ASEGN ABSOLUTE:DATA:NOROOT,0106H
// union <unnamed> volatile __ext_io _A_PINK
_A_PINK:
        DS 1

        ASEGN ABSOLUTE:DATA:NOROOT,0105H
// union <unnamed> volatile __ext_io _A_PORTJ
_A_PORTJ:
        DS 1

        ASEGN ABSOLUTE:DATA:NOROOT,0103H
// union <unnamed> volatile __ext_io _A_PINJ
_A_PINJ:
        DS 1

        ASEGN ABSOLUTE:DATA:NOROOT,0102H
// union <unnamed> volatile __ext_io _A_PORTH
_A_PORTH:
        DS 1

        ASEGN ABSOLUTE:DATA:NOROOT,0d6H
// union <unnamed> volatile __io _A_UDR2
_A_UDR2:
        DS 1

        ASEGN ABSOLUTE:DATA:NOROOT,0d1H
// union <unnamed> volatile __io _A_UCSR2B
_A_UCSR2B:
        DS 1

        ASEGN ABSOLUTE:DATA:NOROOT,0ceH
// union <unnamed> volatile __io _A_UDR1
_A_UDR1:
        DS 1

        ASEGN ABSOLUTE:DATA:NOROOT,0c9H
// union <unnamed> volatile __io _A_UCSR1B
_A_UCSR1B:
        DS 1

        ASEGN ABSOLUTE:DATA:NOROOT,0c6H
// union <unnamed> volatile __io _A_UDR0
_A_UDR0:
        DS 1

        ASEGN ABSOLUTE:DATA:NOROOT,0c1H
// union <unnamed> volatile __io _A_UCSR0B
_A_UCSR0B:
        DS 1

        ASEGN ABSOLUTE:DATA:NOROOT,07cH
// union <unnamed> volatile __io _A_ADMUX
_A_ADMUX:
        DS 1

        ASEGN ABSOLUTE:DATA:NOROOT,07bH
// union <unnamed> volatile __io _A_ADCSRB
_A_ADCSRB:
        DS 1

        ASEGN ABSOLUTE:DATA:NOROOT,07aH
// union <unnamed> volatile __io _A_ADCSRA
_A_ADCSRA:
        DS 1

        ASEGN ABSOLUTE:DATA:NOROOT,078H
// union <unnamed> volatile __io _A_ADC
_A_ADC:
        DS 2

        ASEGN ABSOLUTE:DATA:NOROOT,06dH
// union <unnamed> volatile __io _A_PCMSK2
_A_PCMSK2:
        DS 1

        ASEGN ABSOLUTE:DATA:NOROOT,03dH
// union <unnamed> volatile __io _A_EIMSK
_A_EIMSK:
        DS 1

        ASEGN ABSOLUTE:DATA:NOROOT,03cH
// union <unnamed> volatile __io _A_EIFR
_A_EIFR:
        DS 1

        ASEGN ABSOLUTE:DATA:NOROOT,032H
// union <unnamed> volatile __io _A_PING
_A_PING:
        DS 1

        ASEGN ABSOLUTE:DATA:NOROOT,02cH
// union <unnamed> volatile __io _A_PINE
_A_PINE:
        DS 1

        ASEGN ABSOLUTE:DATA:NOROOT,02bH
// union <unnamed> volatile __io _A_PORTD
_A_PORTD:
        DS 1

        ASEGN ABSOLUTE:DATA:NOROOT,028H
// union <unnamed> volatile __io _A_PORTC
_A_PORTC:
        DS 1

        ASEGN ABSOLUTE:DATA:NOROOT,025H
// union <unnamed> volatile __io _A_PORTB
_A_PORTB:
        DS 1

        ASEGN ABSOLUTE:DATA:NOROOT,022H
// union <unnamed> volatile __io _A_PORTA
_A_PORTA:
        DS 1

        ASEGN ABSOLUTE:DATA:NOROOT,020H
// union <unnamed> volatile __io _A_PINA
_A_PINA:
        DS 1
//    2 #include <inavr.h> 
//    3 #include "dfpin.h"
//    4 #include "dfproc.h"
//    5 #include "ozu_map.h"
//    6 #include "dfcnst.h"
//    7 #include "def_at.h"
//    8 #include "def_link.h"
//    9 #include "sec.h"
//   10 #include "map_ef.h"
//   11 #include "map_mbus.h"
//   12 #include "idterm1.h"
//   13 #include "at_com.h"
//   14 
//   15 
//   16 extern unsigned char trevoga;
//   17 
//   18 char dabl,flag_arhiv_prihod;
//   19 
//   20 extern int tim_prihod_uhod;
//   21 extern int glutch5,window_prihod_uhod;
//   22 extern unsigned char prihod_uhod;
//   23 extern unsigned char nomer_tab;
//   24 extern char podnos;
//   25 
//   26 extern unsigned int timer_vhod,timer_autovzat;
//   27 
//   28 extern unsigned int glutch6;
//   29 extern unsigned int glutch;
//   30 
//   31 extern unsigned char cnt_snd;
//   32 extern char bit_registr1;
//   33 extern unsigned char sel_modul;
//   34 extern unsigned int cnt_sec;
//   35 
//   36 extern unsigned int cnt_supervosor;
//   37 
//   38 extern unsigned char simka; //dobavka
//   39 
//   40 extern unsigned char layer_PPP;
//   41                                               
//   42 extern unsigned long int cnt_outcom,cnt_incom;
//   43 extern unsigned char time_cnt_ch_time;
//   44 
//   45 unsigned int crc_m1(unsigned char *ka,unsigned int num,unsigned int crc);
//   46 void WrArrayToFlesh(unsigned int adres_flesh,  unsigned char *adres_ozu, unsigned int num,unsigned char flag,unsigned char znach);
//   47 
//   48 void lock_it(void);
//   49 
//   50 void fun_state_md(void);
//   51 extern void tx_rs485_1(void);
//   52 extern void tx_rs485_2(void);
//   53 extern void tx_rs232_2(void);
//   54 extern void tx_rs232_time(void);
//   55 extern void test_fram(void);
//   56 extern unsigned long int burst_ds_r(void);
//   57 
//   58 unsigned char check_cts(void);
//   59 
//   60 extern unsigned int func_crc_tii(void);
//   61 extern __no_init unsigned int crc_tii;
//   62 extern __no_init unsigned int cnt_tii[8];
//   63 
//   64 extern char ip_change;
//   65 extern unsigned char Fl_ch_sim; ; //dobavka
//   66 extern unsigned long int cnt_no_link, cnt_link_res; //dobavka
//   67 
//   68 //extern unsigned char count_block_net;
//   69 
//   70 extern struct
//   71  {
//   72  unsigned char  clr_wdt     :1;
//   73  unsigned char  fl_out      :1;
//   74  unsigned char  from_timer0 :1;
//   75  unsigned char  fl_main     :1;
//   76  unsigned char  from_timer3 :1;
//   77  unsigned char  from_timer2 :1; 
//   78  unsigned char  from_adc :1;
//   79  }fl_wdt;
//   80 unsigned char cnt_clr_wdt, cnt_flag_out;
//   81 
//   82 extern unsigned char cnt_rst_lcp,vol_cnt_rst_lcp;
//   83 extern unsigned char cnt_rst_ipcp,vol_cnt_rst_ipcp;                       
//   84 extern unsigned char cnt_rst_pap,vol_cnt_rst_pap;  
//   85 extern unsigned int cnt_lcp_tm_out,cnt_ipcp_tm_out;
//   86 extern unsigned int cnt_pap_tm_out;
//   87 
//   88 extern struct
//   89 {
//   90 unsigned char over_buf :1;
//   91 unsigned char send_state :1;
//   92 unsigned char enable:1; 
//   93 }fl_appl_seq1; 
//   94 
//   95  extern struct
//   96   {
//   97   unsigned char  ip         :1;
//   98   unsigned char  udp        :1;
//   99   unsigned char  num_self   :1;
//  100   unsigned char cnt_reset;
//  101   }fl_rewrite;
//  102  
//  103 
//  104 
//  105 extern struct                   //ńňđóęňóđŕ, îďčńűâŕţůŕ˙ îáúĺęň ďĺđĺäŕ÷č ďî PPP 
//  106   {  
//  107   enum bool link_no ; //ńâ˙çč íĺň
//  108   enum bool link_waits; //îćčäŕíčĺ ęâčňęŕ íŕ ęîíňđîëü ńâ˙çč
//  109   enum bool link;      //ęîíňđîëü ńâ˙çč    
//  110   enum bool nat;      //ęîíňđîëü nat 
//  111   unsigned int cnt_link; // ń÷ĺň÷čę
//  112   unsigned int cnt_nat; // ń÷ĺň÷čę
//  113   unsigned int vol_link; // çíŕ÷ĺíčĺ  
//  114   unsigned int vol_nat; // //çíŕ÷ĺíčĺ 
//  115   unsigned int vol_waits; // çíŕ÷ĺíčĺ âđĺěĺíč ęâčňęŕ îćčäŕíč˙ ęîíňđîë˙ ńâ˙çč
//  116   unsigned char cnt_try; // ń÷ĺň÷čę ďîďűňîę ďîëó÷čňü ęâčňîę
//  117   unsigned char vol_try; // rjkbxtcndj ďîďűňîę ďîëó÷čňü ęâčňîę
//  118   unsigned int vol_nat_r; // ń÷ĺň÷čę
//  119   }Control;
//  120 
//  121 
//  122   //!!!!!!!!!!!!!!!!!!!!!!!!!!!!!ńňđóęňóđű ďđčëîćĺíč˙
//  123 extern  struct
//  124 {
//  125 unsigned char id;
//  126 unsigned int p_in;// óęŕçŕňĺëü ńâîáîäíîé ˙÷ĺéęč
//  127 unsigned int p_out;
//  128 unsigned int p_out_kv;
//  129 unsigned int crc;
//  130 unsigned int cnt_waits; // ń÷ĺň÷čę îćčäŕíč˙ ęâčňęŕ
//  131 unsigned char cnt_try; // ń÷ĺň÷čę ďîďűňîę ďîëó÷čňü ęâčňîę 
//  132 unsigned int l_data; // äëčíŕ ďîńűëŕĺěűő äŕííűő
//  133 unsigned char state;
//  134 unsigned char event;
//  135 unsigned int tm_vzat;
//  136 unsigned int vol_tm_vzat;
//  137 enum bool cntr_cl;
//  138 enum bool en_cntr_cl;
//  139 unsigned int cnt_cntr_cl;
//  140 unsigned int vol_cntr_cl;
//  141 }Appl_seq;
//  142 
//  143 //unsigned char Appl_seq_des;
//  144 
//  145 //unsigned char state_seq;
//  146 
//  147 extern unsigned char Appl_seq_buf[MAX_BUF_SEQ]; 
//  148 unsigned char point_Head;
//  149 
//  150 
//  151 
//  152 extern struct
//  153 {
//  154 unsigned char en_tx :1;
//  155 unsigned char kv_waits :1;
//  156 unsigned char en_povtor:1;
//  157 }fl_appl_seq;
//  158 
//  159 
//  160 extern struct
//  161  {
//  162   unsigned char time_485_1;
//  163   unsigned int client_485_1;
//  164   unsigned char start_485_1;
//  165   unsigned char time_485_2;
//  166   unsigned int client_485_2;
//  167   unsigned char start_485_2;
//  168   unsigned char time_232_2;
//  169   unsigned int client_232_2;
//  170   unsigned char start_232_2;
//  171  }Life; 
//  172 
//  173 
//  174 extern unsigned char proverka;
//  175 extern unsigned char fl_at_mom_232;
//  176 
//  177 extern enum t_event_modem event_modem;
//  178 
//  179 
//  180 extern unsigned char buf_tx_232[VOL_TX_PPP];
//  181 extern unsigned int count_tx_ppp,vol_tx_ppp;
//  182 
//  183 
//  184 extern unsigned char Regim;
//  185 extern unsigned char cnt_stm_tm1,cnt_stm_tm2;
//  186 extern unsigned int cnt_key_off;
//  187 
//  188 extern void sending_at_pac(void); 
//  189 
//  190 extern  struct
//  191 {
//  192 char buf[LN_BUF_AT];
//  193 unsigned char cnt_tx;
//  194 unsigned char cnt_rx;
//  195 unsigned char ln_buf;
//  196 unsigned char list_com[VOL_LIST];// ďĺđĺ÷ĺíü čńďîëí˙ĺěűő ęîěŕíä
//  197 unsigned char ln_list;//äëčíŕ ďĺđĺ÷í˙
//  198 unsigned char cnt_com;//ń÷ĺň÷čę ęîěŕíä
//  199 unsigned int cnt_tm_out; //ń÷ĺň÷čę âđĺěĺíč îćčäŕíč˙ îňâĺňŕ
//  200 unsigned int vol_tm_out; //ďđĺäĺë âđĺěĺíč îćčäŕíč˙ îňâĺňŕ
//  201 unsigned int cnt_rx_out; //ń÷ĺň÷čę ěĺćáŕéňîâűé ďđîěĺćóňîę
//  202 unsigned int vol_rx_out; //ďđĺäĺë ěĺćáŕéňîâîăî ďđîěĺćóňęŕ
//  203 }At_com;
//  204 
//  205 extern enum bool command_AT;
//  206 extern enum bool fl_cts_232_ignor;
//  207 extern unsigned int cnt_cts_off;
//  208 
//  209 extern struct
//  210  {
//  211  unsigned char on: 1;
//  212  } fl_cts_232;
//  213 
//  214 /*
//  215 extern struct
//  216 {
//  217 unsigned char ok :1;//ňđĺáóĺěűé îňâĺň
//  218 unsigned char err :1;//îřčáî÷íűé, íĺňđĺáóĺěűé îňâĺň
//  219 unsigned char tm_out :1;//îňńóňńňâčĺ îňâĺňŕ
//  220 unsigned char tx_en :1;//ďîńëŕňü ęîěěŕíäó
//  221 unsigned char rx_en :1;//ďđčíčěŕňü îňâĺňű
//  222 unsigned char rx_rec :1;//ďđčí˙ň îňâĺň
//  223 unsigned char greg_ereg :1;//ďŕęĺňíčę GPRS or LTE
//  224 //unsigned char tm_out_en:1;//đŕçđĺřĺíčĺ ŕíŕëčçŕ ďî ďđĺâűřĺíčţ âđĺěĺíč îćčäŕíč˙ îňâĺňŕ
//  225 }
//  226 fl_at_com;
//  227 */
//  228 
//  229 #pragma dataseg=MY_SEG

        RSEG MY_SEG:DATA:NOROOT(0)
//  230 __no_init unsigned char Rs485_1_buf_rx_tx[MAX_BUF_RS485_1];
Rs485_1_buf_rx_tx:
        DS 1020

        RSEG MY_SEG:DATA:NOROOT(0)
//  231 __no_init unsigned char Rs485_2_buf_rx_tx[MAX_BUF_RS485_2];
Rs485_2_buf_rx_tx:
        DS 1020

        RSEG MY_SEG:DATA:NOROOT(0)
//  232 __no_init unsigned char Rs232_2_buf_rx_tx[MAX_BUF_RS232_2];
Rs232_2_buf_rx_tx:
        DS 1024

        RSEG NEAR_Z:DATA:NOROOT(0)
        REQUIRE `?<Segment init: NEAR_Z>`
//  233 #pragma dataseg=default
//  234 
//  235 
//  236 struct                   //ńňđóęňóđŕ îďčńűâŕţůŕ˙ đŕáîňó ďîđňŕ "RS485_1" 
//  237   {
//  238   unsigned int  cnt_bt_rx_tx;       // ń÷ĺň÷čę áŕéňîâ íŕ ďđčĺě-ďĺđĺäŕ÷ó
//  239   unsigned int  cnt_tm_tx_out;    // ń÷ĺň÷čę âđĺěĺíč íŕ óäĺđćŕíčĺ rts ďîńëĺ ďĺđĺäŕ÷č
//  240   unsigned int  cnt_tm_pre_tx;    // ń÷ĺň÷čę âđĺěĺíč íŕ óäĺđćŕíčĺ rts ďĺđĺä ďĺđĺäŕ÷č
//  241   unsigned int  vol_tm_tx_out;    // ďđĺäĺë ń÷ĺň÷čę âđĺěĺíč íŕ óäĺđćŕíčĺ rts ďîńëĺ ďĺđĺäŕ÷č
//  242   unsigned int  cnt_tm_rx_out;   //  ń÷ĺň÷čę âđĺěĺíč íŕ îďđĺäĺëĺíčĺ ęîíöŕ ďđčĺěŕ
//  243   unsigned int  vol_tm_rx_out;   //  ďđĺäĺë âđĺěĺíč íŕ îďđĺäĺëĺíčĺ ęîíöŕ ďđčĺěŕ
//  244   unsigned int  cnt_tm_out;     // ń÷ĺň÷čę âđĺěĺíč íŕ ďđčĺě 
//  245   unsigned int  vol_tm_out;     // ďđĺäĺë ń÷ĺň÷čęŕ âđĺěĺíč íŕ ďđčĺě 
//  246   unsigned char *p_data485;   // óęŕçŕňĺëü íŕ áóôĺđ ďĺđĺäŕ÷č
//  247   }Rs485_1,Rs485_2,Rs232_2;
Rs485_1:
        DS 18
Rs485_2:
        DS 18
Rs232_2:
        DS 18
dabl:
        DS 1
flag_arhiv_prihod:
        DS 1
cnt_clr_wdt:
        DS 1
cnt_flag_out:
        DS 1
//  248   
//  249 struct
//  250  {
//  251  unsigned char busy : 1;
//  252  unsigned char rec : 1;
//  253  unsigned char tm_out : 1;
//  254  unsigned char tx : 1;
//  255  unsigned char over : 1;
//  256  unsigned char buffed : 1;
//  257  }fl_485_1,fl_485_2,fl_232_2;
fl_485_1:
        DS 1
fl_485_2:
        DS 1
fl_232_2:
        DS 1

        RSEG NEAR_Z:DATA:NOROOT(0)
        REQUIRE `?<Segment init: NEAR_Z>`
point_Head:
        DS 1
//  258 
//  259 
//  260 
//  261 extern  struct
//  262  {
//  263   unsigned char data[VOL_RX_PPP];//ńŕě áóôĺđ
//  264   unsigned int ln_data;  // äëčíŕ äŕííűő
//  265   enum bool rec; // ďŕęĺň ďđčí˙ň
//  266   enum bool busy;// áóôĺđ çŕí˙ň
//  267   enum bool check_busy;// ďđîâĺđęŕ çŕí˙ň ëč áóôĺđ
//  268  }Buf1_rx_ppp,Buf2_rx_ppp; // 
//  269 
//  270 
//  271  struct
//  272  {
//  273  unsigned char fl_7e : 1;//
//  274  unsigned char fl_7d : 1;//
//  275  unsigned char switcher : 1;//ďĺđĺęëţ÷ŕňĺëü áóôĺđîâ
//  276  } fl_rx_ppp;
fl_rx_ppp:
        DS 1
//  277 
//  278 ///!!!!!!!!!!!!!!!!!!!!!!!!!!!!!!!!!!!äë˙ ĐĐĐ
//  279 extern struct
//  280  {
//  281   unsigned char act_lcp_end :1;  
//  282   unsigned char lcp_tm_out_en :1;
//  283   unsigned char t0_pl:1;
//  284   unsigned char t0_mi:1;
//  285  }fl_lcp; 
//  286  
//  287 
//  288 extern struct
//  289  {
//  290   unsigned char act_ipcp_end :1;  
//  291   unsigned char ipcp_tm_out_en :1;
//  292   unsigned char t0_pl:1;
//  293   unsigned char t0_mi:1;
//  294  }fl_ipcp; 
//  295 
//  296 extern struct
//  297  {
//  298   unsigned char act_ip_end :1; 
//  299   unsigned char ip_tm_cntr_en :1; 
//  300   unsigned char ip_tm_nat_en :1;
//  301  }fl_ip;
//  302 
//  303 
//  304 
//  305   
//  306 extern struct
//  307  {
//  308   unsigned char act_pap_end :1;  
//  309   unsigned char pap_tm_out_en:1;
//  310   unsigned char t0_pl:1;
//  311   unsigned char t0_mi:1;  
//  312   unsigned char up: 1; 
//  313  }fl_pap; 
//  314 
//  315 extern struct
//  316  {
//  317   unsigned char add_byte :1; 
//  318  }fl_reg3;
//  319   //EEEEEEEEEEEEEEEEEEEEEEEEEEEEEEEEEEEEEEEEE 
//  320  
//  321 
//  322 extern unsigned long int summa_temperatura;         
//  323 extern unsigned int temperatura;
//  324 extern unsigned int count_summa_temperatura; 
//  325 

        RSEG NEAR_Z:DATA:NOROOT(0)
        REQUIRE `?<Segment init: NEAR_Z>`
//  326 unsigned int modbus_mem1[SEG1];
modbus_mem1:
        DS 74
//  327 extern unsigned long int arr_tii_32[16];
//  328 
//  329 
//  330 struct
//  331 {
//  332  
//  333   unsigned char tek_pin :1;
//  334   unsigned char old_pin :1;
//  335   unsigned char fl_ch_tc :1;
//  336   unsigned char real_tc;
//  337   unsigned int count_tc; 
//  338   unsigned char type;
//  339   unsigned char cnt_block_tc;

        RSEG NEAR_Z:DATA:NOROOT(0)
        REQUIRE `?<Segment init: NEAR_Z>`
//  340 }struct_tcc1,struct_tcc2;
struct_tcc1:
        DS 6
struct_tcc2:
        DS 6
//  341 
//  342 
//  343 unsigned long int summa_adc[4];         
//  344 unsigned char count_summa_adc[4];
//  345 
//  346 
//  347 ///11111111111111111111111111111 ôóíęöčč
//  348 
//  349 /*
//  350  struct struct_ts
//  351 {
//  352  
//  353   unsigned char tek_pin :1;
//  354   unsigned char old_pin :1;
//  355   unsigned char fl_ch_tc :1;
//  356 //  unsigned char real_tc:1;
//  357   unsigned char count_tc;
//  358 };
//  359 */
//  360 
//  361 struct struct_ts str_tc1,str_tc2,str_tc3,str_tc4,str_tc5,str_tc6,str_tc7,str_tc8,str_tc15,str_tc16;
str_tc1:
        DS 2
str_tc2:
        DS 2
str_tc3:
        DS 2
str_tc4:
        DS 2
str_tc5:
        DS 2
str_tc6:
        DS 2
str_tc7:
        DS 2
str_tc8:
        DS 2
str_tc15:
        DS 2
str_tc16:
        DS 2
//  362 ///11111111111111111111111111111 ôóíęöčč
//  363  
//  364 unsigned char cnt_tu1, cnt_tu2;
cnt_tu1:
        DS 1
cnt_tu2:
        DS 1

        RSEG NEAR_Z:DATA:NOROOT(0)
        REQUIRE `?<Segment init: NEAR_Z>`
summa_adc:
        DS 16
count_summa_adc:
        DS 4
//  365 
//  366 

        RSEG FARCODE:CODE:NOROOT(1)
//  367 void send_485_1(void)
send_485_1:
        CFI Block cfiBlock0 Using cfiCommon0
        CFI Function send_485_1
//  368 {
        MOVW	R19:R18, R27:R26
//  369 UCSR3B=UCSR3B & ~(RXCIE | RXEN);   
        LDS	R16, 305
        ANDI	R16, 0x6F
        STS	305, R16
//  370 UCSR3B=UCSR3B | TXCIE;  // enable transmit 485_1
        LDS	R16, 305
        ORI	R16, 0x40
        STS	305, R16
//  371 UDR3=*Rs485_1.p_data485++;
        LDI	R30, LOW(Rs485_1)
        LDI	R31, (Rs485_1) >> 8
        LDD	R26, Z+16
        LDD	R27, Z+17
        LD	R16, X
        STS	310, R16
        LDD	R16, Z+16
        LDD	R17, Z+17
        RCALL	?Subroutine1
??CrossCallReturnLabel_2:
        STD	Z+16, R16
        STD	Z+17, R17
//  372 Rs485_1.cnt_bt_rx_tx--; 
        RCALL	?Subroutine2
??CrossCallReturnLabel_8:
        ST	Z, R16
        STD	Z+1, R17
//  373 }
        RJMP	?Subroutine82
        CFI EndBlock cfiBlock0
//  374 

        RSEG FARCODE:CODE:NOROOT(1)
//  375 void send_485_2(void)
send_485_2:
        CFI Block cfiBlock1 Using cfiCommon0
        CFI Function send_485_2
//  376 {
        MOVW	R19:R18, R27:R26
//  377 UCSR1B=UCSR1B & ~(RXCIE | RXEN);   
        LDS	R16, 201
        ANDI	R16, 0x6F
        STS	201, R16
//  378 UCSR1B=UCSR1B | TXCIE;  // enable transmit 485_2
        LDS	R16, 201
        ORI	R16, 0x40
        STS	201, R16
//  379 UDR1=*Rs485_2.p_data485++;
        LDI	R30, LOW(Rs485_1)
        LDI	R31, (Rs485_1) >> 8
        LDD	R26, Z+34
        LDD	R27, Z+35
        LD	R16, X
        STS	206, R16
        LDD	R16, Z+34
        LDD	R17, Z+35
        RCALL	?Subroutine1
??CrossCallReturnLabel_3:
        STD	Z+34, R16
        STD	Z+35, R17
//  380 Rs485_2.cnt_bt_rx_tx--; 
        LDD	R16, Z+18
        LDD	R17, Z+19
        SUBI	R16, 1
        SBCI	R17, 0
        STD	Z+18, R16
        STD	Z+19, R17
//  381 }
        RJMP	?Subroutine82
        CFI EndBlock cfiBlock1
//  382 

        RSEG FARCODE:CODE:NOROOT(1)
//  383 void send_232_2(void)
send_232_2:
        CFI Block cfiBlock2 Using cfiCommon0
        CFI Function send_232_2
//  384 {
        MOVW	R19:R18, R27:R26
//  385 UCSR2B=UCSR2B & ~(RXCIE | RXEN);   
        LDS	R16, 209
        ANDI	R16, 0x6F
        STS	209, R16
//  386 UCSR2B=UCSR2B | TXCIE;  // enable transmit 485_2
        LDS	R16, 209
        ORI	R16, 0x40
        STS	209, R16
//  387 UDR2=*Rs232_2.p_data485++;
        LDI	R30, LOW(Rs485_1)
        LDI	R31, (Rs485_1) >> 8
        LDD	R26, Z+52
        LDD	R27, Z+53
        LD	R16, X
        STS	214, R16
        LDD	R16, Z+52
        LDD	R17, Z+53
        RCALL	?Subroutine1
??CrossCallReturnLabel_4:
        STD	Z+52, R16
        STD	Z+53, R17
//  388 Rs232_2.cnt_bt_rx_tx--; 
        LDD	R16, Z+36
        LDD	R17, Z+37
        SUBI	R16, 1
        SBCI	R17, 0
        STD	Z+36, R16
        STD	Z+37, R17
        CFI EndBlock cfiBlock2
//  389 }
        REQUIRE ?Subroutine82
        ;		// Fall through to label ?Subroutine82

        RSEG FARCODE:CODE:NOROOT(1)
?Subroutine82:
        CFI Block cfiBlock3 Using cfiCommon0
        CFI NoFunction
        MOVW	R27:R26, R19:R18
        RET
        CFI EndBlock cfiBlock3

        RSEG FARCODE:CODE:NOROOT(1)
?Subroutine1:
        CFI Block cfiCond4 Using cfiCommon0
        CFI NoFunction
        CFI Conditional ??CrossCallReturnLabel_2
        CFI CFA_SP SP+6
        CFI Block cfiCond5 Using cfiCommon0
        CFI (cfiCond5) NoFunction
        CFI (cfiCond5) Conditional ??CrossCallReturnLabel_3
        CFI (cfiCond5) CFA_SP SP+6
        CFI Block cfiCond6 Using cfiCommon0
        CFI (cfiCond6) NoFunction
        CFI (cfiCond6) Conditional ??CrossCallReturnLabel_4
        CFI (cfiCond6) CFA_SP SP+6
        CFI Block cfiCond7 Using cfiCommon0
        CFI (cfiCond7) NoFunction
        CFI (cfiCond7) Conditional ??CrossCallReturnLabel_5
        CFI (cfiCond7) R24 Frame(CFA_Y, -4)
        CFI (cfiCond7) R25 Frame(CFA_Y, -3)
        CFI (cfiCond7) R26 Frame(CFA_Y, -2)
        CFI (cfiCond7) R27 Frame(CFA_Y, -1)
        CFI (cfiCond7) CFA_SP SP+6
        CFI (cfiCond7) CFA_Y Y+4
        CFI Block cfiCond8 Using cfiCommon0
        CFI (cfiCond8) NoFunction
        CFI (cfiCond8) Conditional ??CrossCallReturnLabel_6
        CFI (cfiCond8) R24 Frame(CFA_Y, -4)
        CFI (cfiCond8) R25 Frame(CFA_Y, -3)
        CFI (cfiCond8) R26 Frame(CFA_Y, -2)
        CFI (cfiCond8) R27 Frame(CFA_Y, -1)
        CFI (cfiCond8) CFA_SP SP+6
        CFI (cfiCond8) CFA_Y Y+4
        CFI Block cfiCond9 Using cfiCommon0
        CFI (cfiCond9) NoFunction
        CFI (cfiCond9) Conditional ??CrossCallReturnLabel_7
        CFI (cfiCond9) CFA_SP SP+6
        CFI Block cfiPicker10 Using cfiCommon1
        CFI (cfiPicker10) NoFunction
        CFI (cfiPicker10) Picker
        SUBI	R16, 255
        SBCI	R17, 255
        RET
        CFI EndBlock cfiCond4
        CFI EndBlock cfiCond5
        CFI EndBlock cfiCond6
        CFI EndBlock cfiCond7
        CFI EndBlock cfiCond8
        CFI EndBlock cfiCond9
        CFI EndBlock cfiPicker10
//  390 
//  391 

        RSEG FARCODE:CODE:NOROOT(1)
//  392  void begin_ts(void)
begin_ts:
        CFI Block cfiBlock11 Using cfiCommon0
        CFI Function begin_ts
//  393   {
//  394   //  if(sel_modul!=1)return;
//  395     str_tc1.fl_ch_tc=1;
        LDI	R30, LOW(struct_tcc1)
        LDI	R31, (struct_tcc1) >> 8
        LDD	R16, Z+12
        ORI	R16, 0x04
        STD	Z+12, R16
//  396     str_tc1.count_tc=30;
        LDI	R16, 30
        STD	Z+13, R16
//  397     str_tc2.fl_ch_tc=1;
        LDD	R16, Z+14
        ORI	R16, 0x04
        STD	Z+14, R16
//  398     str_tc2.count_tc=30;
        LDI	R16, 30
        STD	Z+15, R16
//  399     str_tc3.fl_ch_tc=1;
        LDD	R16, Z+16
        ORI	R16, 0x04
        STD	Z+16, R16
//  400     str_tc3.count_tc=30;
        LDI	R16, 30
        STD	Z+17, R16
//  401     str_tc4.fl_ch_tc=1;
        LDD	R16, Z+18
        ORI	R16, 0x04
        STD	Z+18, R16
//  402     str_tc4.count_tc=30; 
        LDI	R16, 30
        STD	Z+19, R16
//  403     str_tc5.fl_ch_tc=1;
        LDD	R16, Z+20
        ORI	R16, 0x04
        STD	Z+20, R16
//  404     str_tc5.count_tc=30;
        LDI	R16, 30
        STD	Z+21, R16
//  405     
//  406     str_tc6.fl_ch_tc=1;
        LDD	R16, Z+22
        ORI	R16, 0x04
        STD	Z+22, R16
//  407     str_tc6.count_tc=30;
        LDI	R16, 30
        STD	Z+23, R16
//  408     
//  409     str_tc7.fl_ch_tc=1;
        LDD	R16, Z+24
        ORI	R16, 0x04
        STD	Z+24, R16
//  410     str_tc7.count_tc=30;
        LDI	R16, 30
        STD	Z+25, R16
//  411     
//  412     str_tc8.fl_ch_tc=1;
        LDD	R16, Z+26
        ORI	R16, 0x04
        STD	Z+26, R16
//  413     str_tc8.count_tc=30;
        LDI	R16, 30
        STD	Z+27, R16
//  414     
//  415      str_tc15.fl_ch_tc=1;
        LDD	R16, Z+28
        ORI	R16, 0x04
        STD	Z+28, R16
//  416      str_tc15.count_tc=30;
        LDI	R16, 30
        STD	Z+29, R16
//  417     
//  418      str_tc16.fl_ch_tc=1;
        LDD	R16, Z+30
        ORI	R16, 0x04
        STD	Z+30, R16
//  419      str_tc16.count_tc=30;
        LDI	R16, 30
        STD	Z+31, R16
//  420     
//  421     
//  422   }
        RET
        CFI EndBlock cfiBlock11
//  423 
//  424 
//  425 
//  426 //void opros_ts(unsigned char num, unsigned char port, unsigned char pin, struct struct_ts *ts, unsigned int *tii)

        RSEG FARCODE:CODE:NOROOT(1)
//  427 void opros_ts(unsigned char num, unsigned char port, unsigned char pin, struct struct_ts *ts)
opros_ts:
        CFI Block cfiBlock12 Using cfiCommon0
        CFI Function opros_ts
//  428 
//  429 {
        CALL	?PROLOGUE4_L09
        CFI R27 Frame(CFA_Y, -1)
        CFI R26 Frame(CFA_Y, -2)
        CFI R25 Frame(CFA_Y, -3)
        CFI R24 Frame(CFA_Y, -4)
        CFI CFA_Y Y+4
        MOV	R24, R16
        MOVW	R23:R22, R21:R20
//  430   if(port & pin)ts->tek_pin=0;else ts->tek_pin=1;
        AND	R18, R17
        MOVW	R31:R30, R21:R20
        LD	R16, Z
        BREQ	??opros_ts_0
        ANDI	R16, 0xFE
        RJMP	??opros_ts_1
??opros_ts_0:
        ORI	R16, 0x01
??opros_ts_1:
        ST	Z, R16
//  431    if(ts->fl_ch_tc==1)
        LD	R16, Z
        SBRS	R16, 2
        RJMP	??opros_ts_2
//  432      {
//  433        ts->count_tc--;
        LDD	R16, Z+1
        DEC	R16
        STD	Z+1, R16
//  434        if(ts->count_tc==0)
        BREQ	$+2+2
        RJMP	??opros_ts_3
//  435        {
//  436          ts->fl_ch_tc=0;
        LD	R16, Z
        ANDI	R16, 0xFB
        ST	Z, R16
//  437        //  ts->real_tc=0x01 & (~ts->tek_pin);
//  438         // *tii++;
//  439        //  modbus_mem1[num]=*tii;
//  440          modbus_mem1[AD_TII1+num]++;
        MOV	R18, R24
        LDI	R19, 0
        LDI	R30, LOW(modbus_mem1)
        LDI	R31, (modbus_mem1) >> 8
        MOVW	R17:R16, R19:R18
        LSL	R16
        ROL	R17
        MOVW	R27:R26, R31:R30
        ADD	R26, R16
        ADC	R27, R17
        LD	R16, X+
        LD	R17, X
        RCALL	?Subroutine1
??CrossCallReturnLabel_5:
        ST	X, R17
        ST	-X, R16
//  441          arr_tii_32[num]++;
        LSL	R18
        ROL	R19
        LSL	R18
        ROL	R19
        MOVW	R27:R26, R19:R18
        SUBI	R26, LOW((-(arr_tii_32) & 0xFFFF))
        SBCI	R27, (-(arr_tii_32) & 0xFFFF) >> 8
        LD	R16, X+
        LD	R17, X+
        LD	R18, X+
        LD	R19, X
        RCALL	?Subroutine1
??CrossCallReturnLabel_6:
        SBCI	R18, 255
        SBCI	R19, 255
        ST	X, R19
        ST	-X, R18
        ST	-X, R17
        ST	-X, R16
//  442          modbus_mem1[AD_TS]=(modbus_mem1[AD_TS] & (~(0x01<<num))) | (ts->tek_pin <<num);
        LDD	R18, Z+48
        LDD	R19, Z+49
        LDI	R16, 1
        RCALL	?Subroutine8
??CrossCallReturnLabel_19:
        MOVW	R1:R0, R17:R16
        COM	R0
        COM	R1
        AND	R0, R18
        AND	R1, R19
        MOVW	R27:R26, R23:R22
        LD	R16, X
        ANDI	R16, 0x01
        RCALL	?Subroutine8
??CrossCallReturnLabel_20:
        OR	R16, R0
        OR	R17, R1
        STD	Z+48, R16
        STD	Z+49, R17
//  443          if(num==2){if((ts->tek_pin)==0)trevoga=1;else trevoga=0;}
        CPI	R24, 2
        BRNE	??opros_ts_3
        MOVW	R31:R30, R23:R22
        LD	R17, Z
        ANDI	R17, 0x01
        LDI	R16, 1
        EOR	R16, R17
        STS	trevoga, R16
        RJMP	??opros_ts_3
//  444        }
//  445      } 
//  446      else
//  447      {
//  448        if(ts->tek_pin!=ts->old_pin)
??opros_ts_2:
        ANDI	R16, 0x01
        LD	R17, Z
        BST	R17, 1
        LDI	R17, 0
        BLD	R17, 0
        CP	R16, R17
        BREQ	??opros_ts_3
//  449        {
//  450        ts->fl_ch_tc=1;
        LD	R16, Z
        ORI	R16, 0x04
        ST	Z, R16
//  451        ts->count_tc=30;
        LDI	R16, 30
        STD	Z+1, R16
//  452        }
//  453      }
//  454     ts->old_pin=ts->tek_pin;
??opros_ts_3:
        MOVW	R31:R30, R23:R22
        LD	R16, Z
        ANDI	R16, 0x01
        BST	R16, 0
        LD	R16, Z
        BLD	R16, 1
        ST	Z, R16
//  455 }
        LDI	R30, 4
        JMP	?EPILOGUE_B4_L09
        CFI EndBlock cfiBlock12

        RSEG FARCODE:CODE:NOROOT(1)
?Subroutine8:
        CFI Block cfiCond13 Using cfiCommon0
        CFI NoFunction
        CFI Conditional ??CrossCallReturnLabel_19
        CFI R24 Frame(CFA_Y, -4)
        CFI R25 Frame(CFA_Y, -3)
        CFI R26 Frame(CFA_Y, -2)
        CFI R27 Frame(CFA_Y, -1)
        CFI CFA_SP SP+6
        CFI CFA_Y Y+4
        CFI Block cfiCond14 Using cfiCommon0
        CFI (cfiCond14) NoFunction
        CFI (cfiCond14) Conditional ??CrossCallReturnLabel_20
        CFI (cfiCond14) R24 Frame(CFA_Y, -4)
        CFI (cfiCond14) R25 Frame(CFA_Y, -3)
        CFI (cfiCond14) R26 Frame(CFA_Y, -2)
        CFI (cfiCond14) R27 Frame(CFA_Y, -1)
        CFI (cfiCond14) CFA_SP SP+6
        CFI (cfiCond14) CFA_Y Y+4
        CFI Block cfiPicker15 Using cfiCommon1
        CFI (cfiPicker15) NoFunction
        CFI (cfiPicker15) Picker
        LDI	R17, 0
        MOV	R20, R24
        JMP	?S_SHL_L02
        CFI EndBlock cfiCond13
        CFI EndBlock cfiCond14
        CFI EndBlock cfiPicker15
//  456 
//  457 
//  458 
//  459 

        RSEG FARCODE:CODE:NOROOT(1)
//  460 void sending_ppp_proverka(void)
sending_ppp_proverka:
        CFI Block cfiBlock16 Using cfiCommon0
        CFI Function sending_ppp_proverka
//  461 {   
        MOVW	R19:R18, R27:R26
//  462    if(count_tx_ppp>=20)
        LDI	R26, LOW(count_tx_ppp)
        LDI	R27, (count_tx_ppp) >> 8
        LD	R30, X+
        LD	R31, X
        SBIW	R31:R30, 20
        BRCS	??sending_ppp_proverka_0
//  463    {
//  464     // UCSR0B=UCSR0B & ~TXEN;!!!!
//  465     // UCSR0B=UCSR0B & ~TXCIE; !!!!
//  466      S2_OFF;
        CBI	0x08, 0x00
        CBI	0x08, 0x01
//  467      return;
        RJMP	??sending_ppp_proverka_1
//  468    }
//  469    
//  470    UDR0=buf_tx_232[count_tx_ppp]; if(Regim==RG_DEBAG) UDR3=buf_tx_232[count_tx_ppp];
??sending_ppp_proverka_0:
        RCALL	?Subroutine11
??CrossCallReturnLabel_23:
        MOVW	R31:R30, R17:R16
        SUBI	R30, LOW((-(buf_tx_232) & 0xFFFF))
        SBCI	R31, (-(buf_tx_232) & 0xFFFF) >> 8
        LD	R17, Z
        STS	198, R17
        RCALL	??Subroutine7_0
??CrossCallReturnLabel_18:
        BRNE	??sending_ppp_proverka_2
        STS	310, R17
//  471    count_tx_ppp++;
??sending_ppp_proverka_2:
        RCALL	?Subroutine11
??CrossCallReturnLabel_24:
        RCALL	?Subroutine1
??CrossCallReturnLabel_7:
        ST	Z, R16
        STD	Z+1, R17
//  472 }
??sending_ppp_proverka_1:
        RJMP	?Subroutine82
        CFI EndBlock cfiBlock16

        RSEG FARCODE:CODE:NOROOT(1)
?Subroutine11:
        CFI Block cfiCond17 Using cfiCommon0
        CFI NoFunction
        CFI Conditional ??CrossCallReturnLabel_23
        CFI CFA_SP SP+6
        CFI Block cfiCond18 Using cfiCommon0
        CFI (cfiCond18) NoFunction
        CFI (cfiCond18) Conditional ??CrossCallReturnLabel_24
        CFI (cfiCond18) CFA_SP SP+6
        CFI Block cfiPicker19 Using cfiCommon1
        CFI (cfiPicker19) NoFunction
        CFI (cfiPicker19) Picker
        LDI	R30, LOW(count_tx_ppp)
        LDI	R31, (count_tx_ppp) >> 8
        LD	R16, Z
        LDD	R17, Z+1
        RET
        CFI EndBlock cfiCond17
        CFI EndBlock cfiCond18
        CFI EndBlock cfiPicker19
//  473 
//  474 
//  475 

        RSEG FARCODE:CODE:NOROOT(1)
//  476   void sending_ppp_pac(void)
sending_ppp_pac:
        CFI Block cfiBlock20 Using cfiCommon0
        CFI Function sending_ppp_pac
//  477 {   
//  478   cnt_supervosor=0;
        LDI	R16, 0
        LDI	R30, LOW(cnt_supervosor)
        LDI	R31, (cnt_supervosor) >> 8
        ST	Z, R16
        STD	Z+1, R16
//  479   
//  480  if(count_tx_ppp>=(vol_tx_ppp-1))
        LDI	R30, LOW(vol_tx_ppp)
        LDI	R31, (vol_tx_ppp) >> 8
        RCALL	?Subroutine2
??CrossCallReturnLabel_9:
        LDI	R30, LOW(count_tx_ppp)
        LDI	R31, (count_tx_ppp) >> 8
        LD	R18, Z
        LDD	R19, Z+1
        CP	R18, R16
        CPC	R19, R17
        BRCS	??sending_ppp_pac_0
//  481      { 
//  482   
//  483      if (fl_lcp.act_lcp_end==0) fl_lcp.act_lcp_end=1;
        LDI	R30, LOW(fl_lcp)
        LDI	R31, (fl_lcp) >> 8
        LD	R16, Z
        SBRS	R16, 0
        RCALL	?Subroutine6
//  484      if (fl_pap.act_pap_end==0) fl_pap.act_pap_end=1;    
??CrossCallReturnLabel_10:
        LDI	R30, LOW(fl_pap)
        LDI	R31, (fl_pap) >> 8
        LD	R16, Z
        SBRS	R16, 0
        RCALL	?Subroutine6
//  485      if (fl_ipcp.act_ipcp_end==0) fl_ipcp.act_ipcp_end=1;  
??CrossCallReturnLabel_11:
        LDI	R30, LOW(fl_ipcp)
        LDI	R31, (fl_ipcp) >> 8
        LD	R16, Z
        SBRS	R16, 0
        RCALL	?Subroutine6
//  486      if (fl_ip.act_ip_end==0) fl_ip.act_ip_end=1; 
??CrossCallReturnLabel_12:
        LDI	R30, LOW(fl_ip)
        LDI	R31, (fl_ip) >> 8
        LD	R16, Z
        SBRS	R16, 0
        RCALL	?Subroutine6
//  487      fl_reg3.add_byte=0;   
??CrossCallReturnLabel_13:
        LDI	R30, LOW(fl_reg3)
        LDI	R31, (fl_reg3) >> 8
        LD	R16, Z
        ANDI	R16, 0xFE
        ST	Z, R16
//  488    //  UCSR0B=UCSR0B & ~TXEN;!!!!!!!
//  489    //  UCSR0B=UCSR0B & ~TXCIE; !!!!
//  490      S2_OFF;
        RJMP	?Subroutine80
//  491      return;
//  492      }   
//  493       
//  494        
//  495 if (fl_reg3.add_byte==1) 
??sending_ppp_pac_0:
        LDI	R30, LOW(fl_reg3)
        LDI	R31, (fl_reg3) >> 8
        LD	R18, Z
        SBRS	R18, 0
        RJMP	??sending_ppp_pac_1
//  496     {         
//  497       fl_reg3.add_byte=0;
        MOV	R16, R18
        ANDI	R16, 0xFE
        ST	Z, R16
//  498       if (buf_tx_232[count_tx_ppp]==0x7e){UDR0=0x5e;if(Regim==RG_DEBAG) UDR3=0x5e;return;}  
        LDS	R16, count_tx_ppp
        MOV	R17, R19
        MOVW	R31:R30, R17:R16
        RCALL	?Subroutine12
??CrossCallReturnLabel_169:
        BRNE	??sending_ppp_pac_2
        LDI	R16, 94
        RCALL	?Subroutine7
??CrossCallReturnLabel_15:
        BRNE	??sending_ppp_pac_3
        LDI	R16, 94
        RJMP	??sending_ppp_pac_4
//  499       if (buf_tx_232[count_tx_ppp]==0x7d){UDR0=0x5d;if(Regim==RG_DEBAG) UDR3=0x5d;return;} 
??sending_ppp_pac_2:
        CPI	R16, 125
        BRNE	??sending_ppp_pac_5
        LDI	R16, 93
        RCALL	?Subroutine7
??CrossCallReturnLabel_16:
        BRNE	??sending_ppp_pac_3
        LDI	R16, 93
??sending_ppp_pac_4:
        STS	310, R16
        RET
//  500       UDR0=buf_tx_232[count_tx_ppp]+0x20;if(Regim==RG_DEBAG) UDR3=buf_tx_232[count_tx_ppp]+0x20;
??sending_ppp_pac_5:
        SUBI	R16, 224
        RCALL	?Subroutine14
??CrossCallReturnLabel_27:
        BRNE	??sending_ppp_pac_3
        RJMP	??sending_ppp_pac_4
//  501       return;
//  502     }
//  503 
//  504                                                          
//  505   count_tx_ppp++;                
??sending_ppp_pac_1:
        LDI	R30, LOW(count_tx_ppp)
        LDI	R31, (count_tx_ppp) >> 8
        LD	R18, Z
        SUBI	R18, 255
        SBCI	R19, 255
        ST	Z, R18
        STD	Z+1, R19
//  506    
//  507   if(count_tx_ppp==(vol_tx_ppp-1))goto exit_tx;   
        CP	R18, R16
        CPC	R19, R17
        BREQ	??sending_ppp_pac_6
//  508   
//  509        
//  510        if ((buf_tx_232[count_tx_ppp]==0x7e)||(buf_tx_232[count_tx_ppp]==0x7d))
        MOVW	R31:R30, R19:R18
        RCALL	?Subroutine12
??CrossCallReturnLabel_170:
        BREQ	??sending_ppp_pac_7
        CPI	R16, 125
        BRNE	??sending_ppp_pac_8
//  511             {
//  512             fl_reg3.add_byte=1;
??sending_ppp_pac_7:
        LDI	R30, LOW(fl_reg3)
        LDI	R31, (fl_reg3) >> 8
        LD	R16, Z
        RCALL	?Subroutine6
//  513             UDR0=0x7d; 
??CrossCallReturnLabel_14:
        LDI	R16, 125
        RCALL	?Subroutine7
//  514             if(Regim==RG_DEBAG) UDR3=0x7d;
??CrossCallReturnLabel_17:
        BRNE	??sending_ppp_pac_3
        LDI	R16, 125
        RJMP	??sending_ppp_pac_4
//  515             return;
//  516             } 
//  517         
//  518        if ((buf_tx_232[count_tx_ppp]==17)||(buf_tx_232[count_tx_ppp]==19))
??sending_ppp_pac_8:
        CPI	R16, 17
        BREQ	??sending_ppp_pac_7
        CPI	R16, 19
        BREQ	??sending_ppp_pac_7
//  519             {
//  520             fl_reg3.add_byte=1;
//  521             UDR0=0x7d; 
//  522             if(Regim==RG_DEBAG) UDR3=0x7d;
//  523             return;
//  524             }     
//  525         
//  526        if ((buf_tx_232[count_tx_ppp]<0x20)&&(fl_ip.act_ip_end==1)) 
        CPI	R16, 32
        BRCC	??sending_ppp_pac_6
        LDS	R16, fl_ip
        SBRC	R16, 0
        RJMP	??sending_ppp_pac_7
//  527             {
//  528             fl_reg3.add_byte=1;
//  529             UDR0=0x7d; 
//  530             if(Regim==RG_DEBAG) UDR3=0x7d;
//  531             return;
//  532             }   
//  533        
//  534                   
//  535 exit_tx:  UDR0=buf_tx_232[count_tx_ppp]; if(Regim==RG_DEBAG) UDR3=buf_tx_232[count_tx_ppp];
??sending_ppp_pac_6:
        MOVW	R31:R30, R19:R18
        SUBI	R30, LOW((-(buf_tx_232) & 0xFFFF))
        SBCI	R31, (-(buf_tx_232) & 0xFFFF) >> 8
        LD	R16, Z
        RCALL	?Subroutine14
??CrossCallReturnLabel_28:
        BRNE	??sending_ppp_pac_3
        STS	310, R16
??sending_ppp_pac_3:
        RET
        CFI EndBlock cfiBlock20
//  536 } 

        RSEG FARCODE:CODE:NOROOT(1)
?Subroutine14:
        CFI Block cfiCond21 Using cfiCommon0
        CFI NoFunction
        CFI Conditional ??CrossCallReturnLabel_27
        CFI CFA_SP SP+6
        CFI Block cfiCond22 Using cfiCommon0
        CFI (cfiCond22) NoFunction
        CFI (cfiCond22) Conditional ??CrossCallReturnLabel_28
        CFI (cfiCond22) CFA_SP SP+6
        CFI Block cfiPicker23 Using cfiCommon1
        CFI (cfiPicker23) NoFunction
        CFI (cfiPicker23) Picker
        STS	198, R16
        LDS	R17, Regim
        CPI	R17, 1
        RET
        CFI EndBlock cfiCond21
        CFI EndBlock cfiCond22
        CFI EndBlock cfiPicker23

        RSEG FARCODE:CODE:NOROOT(1)
?Subroutine12:
        CFI Block cfiCond24 Using cfiCommon0
        CFI NoFunction
        CFI Conditional ??CrossCallReturnLabel_169
        CFI CFA_SP SP+6
        CFI Block cfiCond25 Using cfiCommon0
        CFI (cfiCond25) NoFunction
        CFI (cfiCond25) Conditional ??CrossCallReturnLabel_170
        CFI (cfiCond25) CFA_SP SP+6
        CFI Block cfiPicker26 Using cfiCommon1
        CFI (cfiPicker26) NoFunction
        CFI (cfiPicker26) Picker
        SUBI	R30, LOW((-(buf_tx_232) & 0xFFFF))
        SBCI	R31, (-(buf_tx_232) & 0xFFFF) >> 8
        LD	R16, Z
        CFI EndBlock cfiCond24
        CFI EndBlock cfiCond25
        CFI EndBlock cfiPicker26
        REQUIRE ?Subroutine83
        ;		// Fall through to label ?Subroutine83

        RSEG FARCODE:CODE:NOROOT(1)
?Subroutine83:
        CFI Block cfiCond27 Using cfiCommon0
        CFI NoFunction
        CFI Conditional ??CrossCallReturnLabel_169
        CFI CFA_SP SP+6
        CFI Block cfiCond28 Using cfiCommon0
        CFI (cfiCond28) NoFunction
        CFI (cfiCond28) Conditional ??CrossCallReturnLabel_170
        CFI (cfiCond28) CFA_SP SP+6
        CFI Block cfiCond29 Using cfiCommon0
        CFI (cfiCond29) NoFunction
        CFI (cfiCond29) Conditional ??CrossCallReturnLabel_167
        CFI (cfiCond29) CFA_SP SP+6
        CFI Block cfiCond30 Using cfiCommon0
        CFI (cfiCond30) NoFunction
        CFI (cfiCond30) Conditional ??CrossCallReturnLabel_168
        CFI (cfiCond30) CFA_SP SP+6
        CFI Block cfiPicker31 Using cfiCommon1
        CFI (cfiPicker31) NoFunction
        CFI (cfiPicker31) Picker
        CPI	R16, 126
        RET
        CFI EndBlock cfiCond27
        CFI EndBlock cfiCond28
        CFI EndBlock cfiCond29
        CFI EndBlock cfiCond30
        CFI EndBlock cfiPicker31

        RSEG FARCODE:CODE:NOROOT(1)
?Subroutine7:
        CFI Block cfiCond32 Using cfiCommon0
        CFI NoFunction
        CFI Conditional ??CrossCallReturnLabel_15
        CFI CFA_SP SP+6
        CFI Block cfiCond33 Using cfiCommon0
        CFI (cfiCond33) NoFunction
        CFI (cfiCond33) Conditional ??CrossCallReturnLabel_16
        CFI (cfiCond33) CFA_SP SP+6
        CFI Block cfiCond34 Using cfiCommon0
        CFI (cfiCond34) NoFunction
        CFI (cfiCond34) Conditional ??CrossCallReturnLabel_17
        CFI (cfiCond34) CFA_SP SP+6
        CFI Block cfiPicker35 Using cfiCommon1
        CFI (cfiPicker35) NoFunction
        CFI (cfiPicker35) Picker
        STS	198, R16
        CFI Block cfiCond36 Using cfiCommon0
        CFI (cfiCond36) NoFunction
        CFI (cfiCond36) Conditional ??CrossCallReturnLabel_18
        CFI (cfiCond36) CFA_SP SP+6
??Subroutine7_0:
        LDS	R16, Regim
        CPI	R16, 1
        RET
        CFI EndBlock cfiCond32
        CFI EndBlock cfiCond33
        CFI EndBlock cfiCond34
        CFI EndBlock cfiPicker35
        CFI EndBlock cfiCond36

        RSEG FARCODE:CODE:NOROOT(1)
?Subroutine6:
        CFI Block cfiCond37 Using cfiCommon0
        CFI NoFunction
        CFI Conditional ??CrossCallReturnLabel_10
        CFI CFA_SP SP+6
        CFI Block cfiCond38 Using cfiCommon0
        CFI (cfiCond38) NoFunction
        CFI (cfiCond38) Conditional ??CrossCallReturnLabel_11
        CFI (cfiCond38) CFA_SP SP+6
        CFI Block cfiCond39 Using cfiCommon0
        CFI (cfiCond39) NoFunction
        CFI (cfiCond39) Conditional ??CrossCallReturnLabel_12
        CFI (cfiCond39) CFA_SP SP+6
        CFI Block cfiCond40 Using cfiCommon0
        CFI (cfiCond40) NoFunction
        CFI (cfiCond40) Conditional ??CrossCallReturnLabel_13
        CFI (cfiCond40) CFA_SP SP+6
        CFI Block cfiCond41 Using cfiCommon0
        CFI (cfiCond41) NoFunction
        CFI (cfiCond41) Conditional ??CrossCallReturnLabel_14
        CFI (cfiCond41) CFA_SP SP+6
        CFI Block cfiPicker42 Using cfiCommon1
        CFI (cfiPicker42) NoFunction
        CFI (cfiPicker42) Picker
        ORI	R16, 0x01
        ST	Z, R16
        RET
        CFI EndBlock cfiCond37
        CFI EndBlock cfiCond38
        CFI EndBlock cfiCond39
        CFI EndBlock cfiCond40
        CFI EndBlock cfiCond41
        CFI EndBlock cfiPicker42

        RSEG FARCODE:CODE:NOROOT(1)
?Subroutine2:
        CFI Block cfiCond43 Using cfiCommon0
        CFI NoFunction
        CFI Conditional ??CrossCallReturnLabel_8
        CFI CFA_SP SP+6
        CFI Block cfiCond44 Using cfiCommon0
        CFI (cfiCond44) NoFunction
        CFI (cfiCond44) Conditional ??CrossCallReturnLabel_9
        CFI (cfiCond44) CFA_SP SP+6
        CFI Block cfiPicker45 Using cfiCommon1
        CFI (cfiPicker45) NoFunction
        CFI (cfiPicker45) Picker
        LD	R16, Z
        LDD	R17, Z+1
        SUBI	R16, 1
        SBCI	R17, 0
        RET
        CFI EndBlock cfiCond43
        CFI EndBlock cfiCond44
        CFI EndBlock cfiPicker45
//  537 
//  538  
//  539  

        RSEG FARCODE:CODE:NOROOT(1)
//  540  void recive_buf1(unsigned char temp)
recive_buf1:
        CFI Block cfiBlock46 Using cfiCommon0
        CFI Function recive_buf1
//  541   {
//  542   
//  543  // if(Regim==RG_DEBAG)UDR1=temp;  //!!!!!!!! poka
//  544     
//  545   if(fl_rx_ppp.fl_7e==1)
        RCALL	?Subroutine16
??CrossCallReturnLabel_31:
        LDD	R17, Z+1
        SBRS	R17, 0
        RJMP	??recive_buf1_0
//  546                   { 
//  547                    
//  548                    
//  549                     if(Buf1_rx_ppp.ln_data>=VOL_RX_PPP)// ďđîâĺđęŕ íŕ ďĺđĺďîëíĺíčĺ ďĺđâîăî áóôĺđŕ
        LDI	R30, LOW((Buf1_rx_ppp + 330))
        LDI	R31, HIGH((Buf1_rx_ppp + 330))
        RCALL	?Subroutine13
??CrossCallReturnLabel_25:
        BRCS	??recive_buf1_1
//  550                     {
//  551                        Buf1_rx_ppp.ln_data=0;
        RJMP	?Subroutine5
//  552                        fl_rx_ppp.fl_7e=0;
//  553                        fl_rx_ppp.fl_7d=0;
//  554                        S2_OFF;        
//  555                        
//  556                        //S3_GR;//!!!!proverka
//  557                        return;
//  558                     }
//  559   
//  560                      
//  561                     // //////////óęëŕäęŕ
//  562                     if(temp==0x7d)
??recive_buf1_1:
        CPI	R16, 125
        BRNE	??recive_buf1_2
//  563                        {  
//  564                          fl_rx_ppp.fl_7d=1;
        RCALL	?Subroutine15
??CrossCallReturnLabel_29:
        RJMP	??CrossCallReturnLabel_0
//  565                          return;
//  566                        }
//  567                         else
//  568                        {  
//  569                          if (fl_rx_ppp.fl_7d==1)
??recive_buf1_2:
        LDI	R30, LOW(Buf1_rx_ppp)
        LDI	R31, (Buf1_rx_ppp) >> 8
        RCALL	?Subroutine18
??CrossCallReturnLabel_35:
        SBRS	R17, 1
        RJMP	??recive_buf1_3
//  570                             {                 
//  571                               
//  572                               Buf1_rx_ppp.data[Buf1_rx_ppp.ln_data]=temp ^ 0x20;
        LDI	R17, 32
        EOR	R17, R16
        ST	Z, R17
//  573                               Buf1_rx_ppp.ln_data++;
        LDI	R30, LOW((Buf1_rx_ppp + 330))
        LDI	R31, HIGH((Buf1_rx_ppp + 330))
        RCALL	?Subroutine0
//  574                               fl_rx_ppp.fl_7d=0;
??CrossCallReturnLabel_0:
        RJMP	?Subroutine84
//  575                               /*
//  576                               if((temp>=0x20)&&(temp<0x40)){Buf1_rx_ppp.data[Buf1_rx_ppp.ln_data]=temp-0x20;Buf1_rx_ppp.ln_data++;fl_rx_ppp.fl_7d=0;return;}                                
//  577                               if(temp==0x5e){Buf1_rx_ppp.data[Buf1_rx_ppp.ln_data]=0x7e;Buf1_rx_ppp.ln_data++;fl_rx_ppp.fl_7d=0;return;}  
//  578                               if(temp==0x5d){Buf1_rx_ppp.data[Buf1_rx_ppp.ln_data]=0x7d;Buf1_rx_ppp.ln_data++;fl_rx_ppp.fl_7d=0;return;} 
//  579                               Buf1_rx_ppp.ln_data=0;
//  580                               fl_rx_ppp.fl_7e=0;
//  581                               fl_rx_ppp.fl_7d=0;             
//  582                               S3_RD;//!!!!proverka
//  583                               S2_OFF;
//  584                               */
//  585                               
//  586                               return;
//  587                              }  
//  588                             else
//  589                               {        
//  590                                    Buf1_rx_ppp.data[Buf1_rx_ppp.ln_data] =temp;
??recive_buf1_3:
        ST	Z, R16
//  591                                    Buf1_rx_ppp.ln_data++;                                                  
        LDI	R30, LOW((Buf1_rx_ppp + 330))
        LDI	R31, HIGH((Buf1_rx_ppp + 330))
        RCALL	?Subroutine10
//  592                         
//  593                                      if(temp==0x7e)         //íĺň ďĺđĺďîëíĺíč˙
??CrossCallReturnLabel_167:
        BRNE	??recive_buf1_4
//  594                                         {  
//  595                                          if(Buf1_rx_ppp.ln_data<=2) //ĺńëč ďîäđ˙ä äâŕ 0x7e 
        LDS	R30, (Buf1_rx_ppp + 330)
        MOV	R31, R19
        SBIW	R31:R30, 3
        BRCC	??recive_buf1_5
//  596                                              {
//  597                                               //  if(ppp_packet.rcvd==1)???????????????
//  598                                               /*
//  599                                               if((layer_PPP==LAYER_IP)&&(Buf1_rx_ppp.ln_data==2))
//  600                                               {
//  601                                                S4_RD;//proverka!!!!!
//  602                                                while(1)__watchdog_reset();//proverka!!!!!
//  603                                               }
//  604                                               */
//  605                                                
//  606                                               fl_rx_ppp.fl_7e=1;   
        RCALL	?Subroutine16
??CrossCallReturnLabel_32:
        LDD	R16, Z+1
        RJMP	?Subroutine3
//  607                                               Buf1_rx_ppp.data[0]=temp;  
//  608                                               Buf1_rx_ppp.ln_data=1; 
//  609                                               return;
//  610                                               }
//  611                                         
//  612                                                     
//  613                                          S2_OFF;
??recive_buf1_5:
        RCALL	?Subroutine9
//  614                                          fl_rx_ppp.fl_7e=0;
//  615                                          fl_rx_ppp.switcher=1;
??CrossCallReturnLabel_21:
        ANDI	R16, 0xFE
        STD	Z+1, R16
        ORI	R16, 0x04
        STD	Z+1, R16
//  616                                          Buf1_rx_ppp.rec=TRUE; 
        LDI	R16, 1
        STS	(Buf1_rx_ppp + 332), R16
//  617                                          Buf1_rx_ppp.busy=TRUE;
        STS	(Buf1_rx_ppp + 333), R16
//  618                                          if(Buf2_rx_ppp.busy==TRUE)
        LDS	R16, (Buf2_rx_ppp + 333)
        CPI	R16, 1
        BRNE	??recive_buf1_4
//  619                                           {
//  620                                         
//  621                                            Buf2_rx_ppp.check_busy=TRUE;
        LDI	R16, 1
        STS	(Buf2_rx_ppp + 334), R16
//  622                                            UCSR0B=UCSR0B & ~RXEN;
        RJMP	?Subroutine17
//  623                                            UCSR0B=UCSR0B & ~RXCIE; 
//  624                                           }
//  625                                          return;
//  626                                         }  
//  627                                }
//  628                   
//  629                         }
//  630                                     
//  631                     return;   
//  632                   }         //ę ďĺęĺň áĺăčí
//  633                   else
//  634                   {
//  635                    if(temp==0x7e)
??recive_buf1_0:
        CPI	R16, 126
        BRNE	??recive_buf1_4
//  636                           {
//  637                         //  if(ppp_packet.rcvd==1)???????????????                          
//  638                           fl_rx_ppp.fl_7e=1;   
        MOV	R16, R17
        RCALL	?Subroutine3
//  639                           Buf1_rx_ppp.data[0]=temp;  
//  640                           Buf1_rx_ppp.ln_data=1;
//  641                           S2_GR; 
??CrossCallReturnLabel_166:
        CBI	0x08, 0x00
        SBI	0x08, 0x01
??recive_buf1_4:
        RET
        CFI EndBlock cfiBlock46
//  642                           }
//  643                   }
//  644   }

        RSEG FARCODE:CODE:NOROOT(1)
?Subroutine84:
        CFI Block cfiBlock47 Using cfiCommon0
        CFI NoFunction
        STD	Z+1, R16
        RET
        CFI EndBlock cfiBlock47

        RSEG FARCODE:CODE:NOROOT(1)
?Subroutine3:
        CFI Block cfiCond48 Using cfiCommon0
        CFI NoFunction
        CFI Conditional ??CrossCallReturnLabel_166
        CFI CFA_SP SP+6
        CFI Block cfiBlock49 Using cfiCommon0
        CFI (cfiBlock49) NoFunction
        CFI Block cfiPicker50 Using cfiCommon1
        CFI (cfiPicker50) NoFunction
        CFI (cfiPicker50) Picker
        ORI	R16, 0x01
        STD	Z+1, R16
        LDI	R16, 126
        STS	Buf1_rx_ppp, R16
        LDI	R16, 1
        LDI	R17, 0
        LDI	R30, LOW((Buf1_rx_ppp + 330))
        LDI	R31, HIGH((Buf1_rx_ppp + 330))
        CFI EndBlock cfiCond48
        CFI EndBlock cfiBlock49
        CFI EndBlock cfiPicker50
        REQUIRE ?Subroutine81
        ;		// Fall through to label ?Subroutine81

        RSEG FARCODE:CODE:NOROOT(1)
?Subroutine81:
        CFI Block cfiCond51 Using cfiCommon0
        CFI NoFunction
        CFI Conditional ??CrossCallReturnLabel_166
        CFI CFA_SP SP+6
        CFI Block cfiCond52 Using cfiCommon0
        CFI (cfiCond52) NoFunction
        CFI (cfiCond52) Conditional ??CrossCallReturnLabel_165
        CFI (cfiCond52) CFA_SP SP+6
        CFI Block cfiBlock53 Using cfiCommon0
        CFI (cfiBlock53) NoFunction
        CFI Block cfiPicker54 Using cfiCommon1
        CFI (cfiPicker54) NoFunction
        CFI (cfiPicker54) Picker
        ST	Z, R16
        STD	Z+1, R17
        RET
        CFI EndBlock cfiCond51
        CFI EndBlock cfiCond52
        CFI EndBlock cfiBlock53
        CFI EndBlock cfiPicker54
//  645  
//  646 
//  647 
//  648 

        RSEG FARCODE:CODE:NOROOT(1)
//  649 void recive_buf2(unsigned char temp)
recive_buf2:
        CFI Block cfiBlock55 Using cfiCommon0
        CFI Function recive_buf2
//  650   {
//  651   
//  652  // if(Regim==RG_DEBAG)UDR1=temp;  //!!!!!!!! poka
//  653     
//  654   if(fl_rx_ppp.fl_7e==1)
        RCALL	?Subroutine16
??CrossCallReturnLabel_33:
        LDD	R17, Z+1
        SBRS	R17, 0
        RJMP	??recive_buf2_0
//  655                   { 
//  656                    
//  657                    
//  658                     if(Buf2_rx_ppp.ln_data>=VOL_RX_PPP)// ďđîâĺđęŕ íŕ ďĺđĺďîëíĺíčĺ ďĺđâîăî áóôĺđŕ
        LDI	R30, LOW((Buf2_rx_ppp + 330))
        LDI	R31, HIGH((Buf2_rx_ppp + 330))
        RCALL	?Subroutine13
??CrossCallReturnLabel_26:
        BRCS	??recive_buf2_1
//  659                     {
//  660                        Buf2_rx_ppp.ln_data=0;
        RJMP	?Subroutine5
//  661                        fl_rx_ppp.fl_7e=0;
//  662                        fl_rx_ppp.fl_7d=0;
//  663                        S2_OFF;
//  664                   //     S3_GR;//!!!!proverka
//  665                        return;
//  666                     }
//  667   
//  668                      
//  669                     // //////////óęëŕäęŕ
//  670                     if(temp==0x7d)
??recive_buf2_1:
        CPI	R16, 125
        BRNE	??recive_buf2_2
//  671                        {  
//  672                          fl_rx_ppp.fl_7d=1;
        RCALL	?Subroutine15
??CrossCallReturnLabel_30:
        RJMP	??CrossCallReturnLabel_1
//  673                          return;
//  674                        }
//  675                         else
//  676                        {  
//  677                          if (fl_rx_ppp.fl_7d==1)
??recive_buf2_2:
        LDI	R30, LOW(Buf2_rx_ppp)
        LDI	R31, (Buf2_rx_ppp) >> 8
        RCALL	?Subroutine18
??CrossCallReturnLabel_36:
        SBRS	R17, 1
        RJMP	??recive_buf2_3
//  678                             { 
//  679                               Buf2_rx_ppp.data[Buf2_rx_ppp.ln_data]=temp ^ 0x20;
        LDI	R17, 32
        EOR	R17, R16
        ST	Z, R17
//  680                               Buf2_rx_ppp.ln_data++;
        LDI	R30, LOW((Buf2_rx_ppp + 330))
        LDI	R31, HIGH((Buf2_rx_ppp + 330))
        RCALL	?Subroutine0
//  681                               fl_rx_ppp.fl_7d=0;
??CrossCallReturnLabel_1:
        RJMP	?Subroutine84
//  682                               
//  683                               /*                    
//  684                               if((temp>=0x20)&&(temp<0x40)){Buf2_rx_ppp.data[Buf2_rx_ppp.ln_data]=temp-0x20;Buf2_rx_ppp.ln_data++;fl_rx_ppp.fl_7d=0;return;}                                
//  685                               if(temp==0x5e){Buf2_rx_ppp.data[Buf2_rx_ppp.ln_data]=0x7e;Buf2_rx_ppp.ln_data++;fl_rx_ppp.fl_7d=0;return;}  
//  686                               if(temp==0x5d){Buf2_rx_ppp.data[Buf2_rx_ppp.ln_data]=0x7d;Buf2_rx_ppp.ln_data++;fl_rx_ppp.fl_7d=0;return;} 
//  687                               Buf2_rx_ppp.ln_data=0;
//  688                               fl_rx_ppp.fl_7e=0;
//  689                               fl_rx_ppp.fl_7d=0;
//  690                               S3_RD;//!!!!proverka
//  691                               S2_OFF;
//  692                               */
//  693                               return;
//  694                              }  
//  695                             else
//  696                               {        
//  697                                    Buf2_rx_ppp.data[Buf2_rx_ppp.ln_data]=temp;
??recive_buf2_3:
        ST	Z, R16
//  698                                    Buf2_rx_ppp.ln_data++;                                                  
        LDI	R30, LOW((Buf2_rx_ppp + 330))
        LDI	R31, HIGH((Buf2_rx_ppp + 330))
        RCALL	?Subroutine10
//  699                         
//  700                                      if(temp==0x7e)         //íĺň ďĺđĺďîëíĺíč˙
??CrossCallReturnLabel_168:
        BRNE	??recive_buf2_4
//  701                                         {  
//  702                                          if(Buf2_rx_ppp.ln_data<=2) //ĺńëč ďîäđ˙ä äâŕ 0x7e 
        LDS	R30, (Buf2_rx_ppp + 330)
        MOV	R31, R19
        SBIW	R31:R30, 3
        BRCC	??recive_buf2_5
//  703                                              {
//  704                                               /*
//  705                                                if((layer_PPP==LAYER_IP)&&(Buf2_rx_ppp.ln_data==2))
//  706                                               {
//  707                                                S5_RD;//proverka!!!!!
//  708                                                while(1)__watchdog_reset();//proverka!!!!!
//  709                                               }
//  710                                               */
//  711                                                
//  712                                                //  if(ppp_packet.rcvd==1)???????????????
//  713                                               fl_rx_ppp.fl_7e=1;   
        RCALL	?Subroutine16
??CrossCallReturnLabel_34:
        LDD	R16, Z+1
        RJMP	?Subroutine4
//  714                                               Buf2_rx_ppp.data[0]=temp;  
//  715                                               Buf2_rx_ppp.ln_data=1; 
//  716                                               return;
//  717                                               }
//  718   
//  719 
//  720                                          S2_OFF;
??recive_buf2_5:
        RCALL	?Subroutine9
//  721                                          fl_rx_ppp.fl_7e=0;
//  722                                          fl_rx_ppp.switcher=0;
??CrossCallReturnLabel_22:
        ANDI	R16, 0xFA
        STD	Z+1, R16
//  723                                          Buf2_rx_ppp.rec=TRUE; 
        LDI	R16, 1
        STS	(Buf2_rx_ppp + 332), R16
//  724                                          Buf2_rx_ppp.busy=TRUE;
        STS	(Buf2_rx_ppp + 333), R16
//  725                                          if(Buf1_rx_ppp.busy==TRUE)
        LDS	R16, (Buf1_rx_ppp + 333)
        CPI	R16, 1
        BRNE	??recive_buf2_4
//  726                                           {
//  727                                            
//  728                                            Buf1_rx_ppp.check_busy=TRUE;
        LDI	R16, 1
        STS	(Buf1_rx_ppp + 334), R16
//  729                                            UCSR0B=UCSR0B & ~RXEN;
        RJMP	?Subroutine17
//  730                                            UCSR0B=UCSR0B & ~RXCIE; 
//  731                                           }
//  732                                          return;
//  733                                         }  
//  734                                }
//  735                   
//  736                         }
//  737                                     
//  738                     return;   
//  739                   }         //ę ďĺęĺň áĺăčí
//  740                   else
//  741                   {
//  742                    if(temp==0x7e)
??recive_buf2_0:
        CPI	R16, 126
        BRNE	??recive_buf2_4
//  743                           {
//  744                         //  if(ppp_packet.rcvd==1)???????????????
//  745                           fl_rx_ppp.fl_7e=1;   
        MOV	R16, R17
        RCALL	?Subroutine4
//  746                           Buf2_rx_ppp.data[0]=temp;  
//  747                           Buf2_rx_ppp.ln_data=1; 
//  748                           S2_GR;
??CrossCallReturnLabel_165:
        CBI	0x08, 0x00
        SBI	0x08, 0x01
??recive_buf2_4:
        RET
        CFI EndBlock cfiBlock55
//  749                           }        
//  750                   }
//  751   } 

        RSEG FARCODE:CODE:NOROOT(1)
?Subroutine18:
        CFI Block cfiCond56 Using cfiCommon0
        CFI NoFunction
        CFI Conditional ??CrossCallReturnLabel_35
        CFI CFA_SP SP+6
        CFI Block cfiCond57 Using cfiCommon0
        CFI (cfiCond57) NoFunction
        CFI (cfiCond57) Conditional ??CrossCallReturnLabel_36
        CFI (cfiCond57) CFA_SP SP+6
        CFI Block cfiPicker58 Using cfiCommon1
        CFI (cfiPicker58) NoFunction
        CFI (cfiPicker58) Picker
        ADD	R30, R18
        ADC	R31, R19
        LDS	R17, (point_Head + 1)
        RET
        CFI EndBlock cfiCond56
        CFI EndBlock cfiCond57
        CFI EndBlock cfiPicker58

        RSEG FARCODE:CODE:NOROOT(1)
?Subroutine17:
        CFI Block cfiBlock59 Using cfiCommon0
        CFI NoFunction
        CFI Block cfiPicker60 Using cfiCommon1
        CFI (cfiPicker60) NoFunction
        CFI (cfiPicker60) Picker
        LDS	R16, 193
        ANDI	R16, 0xEF
        STS	193, R16
        LDS	R16, 193
        ANDI	R16, 0x7F
        STS	193, R16
        RET
        CFI EndBlock cfiBlock59
        CFI EndBlock cfiPicker60

        RSEG FARCODE:CODE:NOROOT(1)
?Subroutine16:
        CFI Block cfiCond61 Using cfiCommon0
        CFI NoFunction
        CFI Conditional ??CrossCallReturnLabel_31
        CFI CFA_SP SP+6
        CFI Block cfiCond62 Using cfiCommon0
        CFI (cfiCond62) NoFunction
        CFI (cfiCond62) Conditional ??CrossCallReturnLabel_32
        CFI (cfiCond62) CFA_SP SP+6
        CFI Block cfiCond63 Using cfiCommon0
        CFI (cfiCond63) NoFunction
        CFI (cfiCond63) Conditional ??CrossCallReturnLabel_33
        CFI (cfiCond63) CFA_SP SP+6
        CFI Block cfiCond64 Using cfiCommon0
        CFI (cfiCond64) NoFunction
        CFI (cfiCond64) Conditional ??CrossCallReturnLabel_34
        CFI (cfiCond64) CFA_SP SP+6
        CFI Block cfiPicker65 Using cfiCommon1
        CFI (cfiPicker65) NoFunction
        CFI (cfiPicker65) Picker
        LDI	R30, LOW(point_Head)
        LDI	R31, (point_Head) >> 8
        RET
        CFI EndBlock cfiCond61
        CFI EndBlock cfiCond62
        CFI EndBlock cfiCond63
        CFI EndBlock cfiCond64
        CFI EndBlock cfiPicker65

        RSEG FARCODE:CODE:NOROOT(1)
?Subroutine15:
        CFI Block cfiCond66 Using cfiCommon0
        CFI NoFunction
        CFI Conditional ??CrossCallReturnLabel_29
        CFI CFA_SP SP+6
        CFI Block cfiCond67 Using cfiCommon0
        CFI (cfiCond67) NoFunction
        CFI (cfiCond67) Conditional ??CrossCallReturnLabel_30
        CFI (cfiCond67) CFA_SP SP+6
        CFI Block cfiPicker68 Using cfiCommon1
        CFI (cfiPicker68) NoFunction
        CFI (cfiPicker68) Picker
        LDI	R30, LOW(point_Head)
        LDI	R31, (point_Head) >> 8
        LDD	R16, Z+1
        ORI	R16, 0x02
        RET
        CFI EndBlock cfiCond66
        CFI EndBlock cfiCond67
        CFI EndBlock cfiPicker68

        RSEG FARCODE:CODE:NOROOT(1)
?Subroutine13:
        CFI Block cfiCond69 Using cfiCommon0
        CFI NoFunction
        CFI Conditional ??CrossCallReturnLabel_25
        CFI CFA_SP SP+6
        CFI Block cfiCond70 Using cfiCommon0
        CFI (cfiCond70) NoFunction
        CFI (cfiCond70) Conditional ??CrossCallReturnLabel_26
        CFI (cfiCond70) CFA_SP SP+6
        CFI Block cfiPicker71 Using cfiCommon1
        CFI (cfiPicker71) NoFunction
        CFI (cfiPicker71) Picker
        LD	R18, Z
        LDD	R19, Z+1
        CPI	R18, 74
        LDI	R17, 1
        CPC	R19, R17
        RET
        CFI EndBlock cfiCond69
        CFI EndBlock cfiCond70
        CFI EndBlock cfiPicker71

        RSEG FARCODE:CODE:NOROOT(1)
?Subroutine10:
        CFI Block cfiCond72 Using cfiCommon0
        CFI NoFunction
        CFI Conditional ??CrossCallReturnLabel_167
        CFI CFA_SP SP+6
        CFI Block cfiCond73 Using cfiCommon0
        CFI (cfiCond73) NoFunction
        CFI (cfiCond73) Conditional ??CrossCallReturnLabel_168
        CFI (cfiCond73) CFA_SP SP+6
        CFI Block cfiPicker74 Using cfiCommon1
        CFI (cfiPicker74) NoFunction
        CFI (cfiPicker74) Picker
        LD	R18, Z
        LDD	R19, Z+1
        SUBI	R18, 255
        SBCI	R19, 255
        ST	Z, R18
        STD	Z+1, R19
        RJMP	?Subroutine83
        CFI EndBlock cfiCond72
        CFI EndBlock cfiCond73
        CFI EndBlock cfiPicker74

        RSEG FARCODE:CODE:NOROOT(1)
?Subroutine9:
        CFI Block cfiCond75 Using cfiCommon0
        CFI NoFunction
        CFI Conditional ??CrossCallReturnLabel_21
        CFI CFA_SP SP+6
        CFI Block cfiCond76 Using cfiCommon0
        CFI (cfiCond76) NoFunction
        CFI (cfiCond76) Conditional ??CrossCallReturnLabel_22
        CFI (cfiCond76) CFA_SP SP+6
        CFI Block cfiPicker77 Using cfiCommon1
        CFI (cfiPicker77) NoFunction
        CFI (cfiPicker77) Picker
        CBI	0x08, 0x00
        CBI	0x08, 0x01
        LDI	R30, LOW(point_Head)
        LDI	R31, (point_Head) >> 8
        LDD	R16, Z+1
        RET
        CFI EndBlock cfiCond75
        CFI EndBlock cfiCond76
        CFI EndBlock cfiPicker77

        RSEG FARCODE:CODE:NOROOT(1)
?Subroutine5:
        CFI Block cfiBlock78 Using cfiCommon0
        CFI NoFunction
        CFI Block cfiPicker79 Using cfiCommon1
        CFI (cfiPicker79) NoFunction
        CFI (cfiPicker79) Picker
        LDI	R16, 0
        ST	Z, R16
        STD	Z+1, R16
        LDI	R30, LOW(point_Head)
        LDI	R31, (point_Head) >> 8
        LDD	R16, Z+1
        ANDI	R16, 0xFC
        STD	Z+1, R16
        CFI EndBlock cfiBlock78
        CFI EndBlock cfiPicker79
        REQUIRE ?Subroutine80
        ;		// Fall through to label ?Subroutine80

        RSEG FARCODE:CODE:NOROOT(1)
?Subroutine80:
        CFI Block cfiBlock80 Using cfiCommon0
        CFI NoFunction
        CFI Block cfiPicker81 Using cfiCommon1
        CFI (cfiPicker81) NoFunction
        CFI (cfiPicker81) Picker
        CBI	0x08, 0x00
        CBI	0x08, 0x01
        RET
        CFI EndBlock cfiBlock80
        CFI EndBlock cfiPicker81

        RSEG FARCODE:CODE:NOROOT(1)
?Subroutine4:
        CFI Block cfiCond82 Using cfiCommon0
        CFI NoFunction
        CFI Conditional ??CrossCallReturnLabel_165
        CFI CFA_SP SP+6
        CFI Block cfiBlock83 Using cfiCommon0
        CFI (cfiBlock83) NoFunction
        CFI Block cfiPicker84 Using cfiCommon1
        CFI (cfiPicker84) NoFunction
        CFI (cfiPicker84) Picker
        ORI	R16, 0x01
        STD	Z+1, R16
        LDI	R16, 126
        STS	Buf2_rx_ppp, R16
        LDI	R16, 1
        LDI	R17, 0
        LDI	R30, LOW((Buf2_rx_ppp + 330))
        LDI	R31, HIGH((Buf2_rx_ppp + 330))
        RJMP	?Subroutine81
        CFI EndBlock cfiCond82
        CFI EndBlock cfiBlock83
        CFI EndBlock cfiPicker84

        RSEG FARCODE:CODE:NOROOT(1)
?Subroutine0:
        CFI Block cfiCond85 Using cfiCommon0
        CFI NoFunction
        CFI Conditional ??CrossCallReturnLabel_0
        CFI CFA_SP SP+6
        CFI Block cfiCond86 Using cfiCommon0
        CFI (cfiCond86) NoFunction
        CFI (cfiCond86) Conditional ??CrossCallReturnLabel_1
        CFI (cfiCond86) CFA_SP SP+6
        CFI Block cfiPicker87 Using cfiCommon1
        CFI (cfiPicker87) NoFunction
        CFI (cfiPicker87) Picker
        LD	R16, Z
        LDD	R17, Z+1
        SUBI	R16, 255
        SBCI	R17, 255
        ST	Z, R16
        STD	Z+1, R17
        LDI	R30, LOW(point_Head)
        LDI	R31, (point_Head) >> 8
        LDD	R16, Z+1
        ANDI	R16, 0xFD
        RET
        CFI EndBlock cfiCond85
        CFI EndBlock cfiCond86
        CFI EndBlock cfiPicker87
//  752  //EEEEEEEEEEEEEEEEEEEEEEEEEEEEEEEEEEEEEEEEEEEEEEEEEEEEEEEEEEEEEEE
//  753 
//  754 
//  755 
//  756 
//  757 
//  758 
//  759 //////////////////////////////////////////////////////////////////////////////////////////////
//  760 #pragma vector=TIMER0_COMPA_vect       

        RSEG CODE:CODE:NOROOT(1)
//  761      __interrupt void TIMER0_COMPA_interrupt(void)
TIMER0_COMPA_interrupt:
        CFI Block cfiBlock88 Using cfiCommon2
        CFI Function TIMER0_COMPA_interrupt
//  762  {
        FUNCALL TIMER0_COMPA_interrupt, opros_ts
        LOCFRAME CSTACK, 19, STACK
        LOCFRAME RSTACK, 3, STACK
        FUNCALL TIMER0_COMPA_interrupt, opros_ts
        LOCFRAME CSTACK, 19, STACK
        LOCFRAME RSTACK, 3, STACK
        FUNCALL TIMER0_COMPA_interrupt, opros_ts
        LOCFRAME CSTACK, 19, STACK
        LOCFRAME RSTACK, 3, STACK
        FUNCALL TIMER0_COMPA_interrupt, opros_ts
        LOCFRAME CSTACK, 19, STACK
        LOCFRAME RSTACK, 3, STACK
        FUNCALL TIMER0_COMPA_interrupt, opros_ts
        LOCFRAME CSTACK, 19, STACK
        LOCFRAME RSTACK, 3, STACK
        FUNCALL TIMER0_COMPA_interrupt, opros_ts
        LOCFRAME CSTACK, 19, STACK
        LOCFRAME RSTACK, 3, STACK
        FUNCALL TIMER0_COMPA_interrupt, opros_ts
        LOCFRAME CSTACK, 19, STACK
        LOCFRAME RSTACK, 3, STACK
        FUNCALL TIMER0_COMPA_interrupt, opros_ts
        LOCFRAME CSTACK, 19, STACK
        LOCFRAME RSTACK, 3, STACK
        FUNCALL TIMER0_COMPA_interrupt, opros_ts
        LOCFRAME CSTACK, 19, STACK
        LOCFRAME RSTACK, 3, STACK
        FUNCALL TIMER0_COMPA_interrupt, opros_ts
        LOCFRAME CSTACK, 19, STACK
        LOCFRAME RSTACK, 3, STACK
        FUNCALL TIMER0_COMPA_interrupt, opros_ts
        LOCFRAME CSTACK, 19, STACK
        LOCFRAME RSTACK, 3, STACK
        FUNCALL TIMER0_COMPA_interrupt, opros_ts
        LOCFRAME CSTACK, 19, STACK
        LOCFRAME RSTACK, 3, STACK
        FUNCALL TIMER0_COMPA_interrupt, opros_ts
        LOCFRAME CSTACK, 19, STACK
        LOCFRAME RSTACK, 3, STACK
        FUNCALL TIMER0_COMPA_interrupt, opros_ts
        LOCFRAME CSTACK, 19, STACK
        LOCFRAME RSTACK, 3, STACK
        RCALL	?Subroutine19
        CFI R16 Frame(CFA_Y, -19)
        CFI R17 Frame(CFA_Y, -18)
        CFI R18 Frame(CFA_Y, -17)
        CFI R19 Frame(CFA_Y, -16)
        CFI R20 Frame(CFA_Y, -15)
        CFI R21 Frame(CFA_Y, -14)
        CFI R22 Frame(CFA_Y, -13)
        CFI R23 Frame(CFA_Y, -12)
        CFI R0 Frame(CFA_Y, -11)
        CFI R1 Frame(CFA_Y, -10)
        CFI R2 Frame(CFA_Y, -9)
        CFI R3 Frame(CFA_Y, -8)
        CFI R30 Frame(CFA_Y, -7)
        CFI R31 Frame(CFA_Y, -6)
        CFI R24 Frame(CFA_Y, -5)
        CFI R25 Frame(CFA_Y, -4)
        CFI R26 Frame(CFA_Y, -3)
        CFI R27 Frame(CFA_Y, -2)
        CFI R4 Frame(CFA_Y, -1)
        CFI CFA_Y Y+19
??CrossCallReturnLabel_37:
        REQUIRE	?Register_R4_is_cg_reg
//  763    
//  764    
//  765    fl_wdt.from_timer0=1;
        RCALL	?Subroutine26
??CrossCallReturnLabel_53:
        ORI	R16, 0x04
        ST	Z, R16
//  766    
//  767    // __enable_interrupt();
//  768    
//  769    
//  770    if(PING & TCC1)struct_tcc1.tek_pin=1;else struct_tcc1.tek_pin=0;
        LDI	R26, LOW(struct_tcc1)
        LDI	R27, (struct_tcc1) >> 8
        LD	R16, X
        SBIS	0x12, 0x02
        RJMP	??TIMER0_COMPA_interrupt_0
        ORI	R16, 0x01
        RJMP	??TIMER0_COMPA_interrupt_1
??TIMER0_COMPA_interrupt_0:
        ANDI	R16, 0xFE
??TIMER0_COMPA_interrupt_1:
        ST	X, R16
//  771    
//  772    if(struct_tcc1.fl_ch_tc==1)
        LD	R16, X
        SBRS	R16, 2
        RJMP	??TIMER0_COMPA_interrupt_2
//  773      {
//  774        struct_tcc1.count_tc--;
        ADIW	R27:R26, 2
        RCALL	?Subroutine39
//  775        if(struct_tcc1.count_tc==0)
??CrossCallReturnLabel_87:
        SBIW	R27:R26, 3
        OR	R16, R17
        BRNE	??TIMER0_COMPA_interrupt_3
//  776        {
//  777          struct_tcc1.fl_ch_tc=0;
        RCALL	?Subroutine38
//  778          struct_tcc1.real_tc=0x01 & (~struct_tcc1.tek_pin);
??CrossCallReturnLabel_209:
        SBIW	R27:R26, 1
        RJMP	??TIMER0_COMPA_interrupt_3
//  779      //    modbus_mem1[AD_TS]=(modbus_mem1[AD_TS] & (~(0x01<<14))) | (struct_tcc1.real_tc <<14);       // 15 02 2016
//  780        }
//  781      } 
//  782      else
//  783      {
//  784        if(struct_tcc1.tek_pin!=struct_tcc1.old_pin)
??TIMER0_COMPA_interrupt_2:
        ANDI	R16, 0x01
        LD	R17, X
        RCALL	?Subroutine47
??CrossCallReturnLabel_110:
        BREQ	??TIMER0_COMPA_interrupt_3
//  785        {
//  786         struct_tcc1.fl_ch_tc=1;
        RCALL	?Subroutine42
//  787         struct_tcc1.count_tc=882;
??CrossCallReturnLabel_213:
        LDI	R16, 114
        LDI	R17, 3
        ADIW	R27:R26, 2
        ST	X+, R16
        ST	X, R17
        SBIW	R27:R26, 3
//  788        }
//  789      }
//  790     struct_tcc1.old_pin=struct_tcc1.tek_pin;
??TIMER0_COMPA_interrupt_3:
        RCALL	?Subroutine40
//  791    
//  792    
//  793    if(PINA & TCC2)struct_tcc2.tek_pin=1;else struct_tcc2.tek_pin=0;
??CrossCallReturnLabel_211:
        ADIW	R27:R26, 6
        LD	R16, X
        SBIS	0x00, 0x07
        RJMP	??TIMER0_COMPA_interrupt_4
        ORI	R16, 0x01
        RJMP	??TIMER0_COMPA_interrupt_5
??TIMER0_COMPA_interrupt_4:
        ANDI	R16, 0xFE
??TIMER0_COMPA_interrupt_5:
        ST	X, R16
        SBIW	R27:R26, 6
//  794    
//  795    if(struct_tcc2.fl_ch_tc==1)
        ADIW	R27:R26, 6
        LD	R16, X
        SBIW	R27:R26, 6
        SBRS	R16, 2
        RJMP	??TIMER0_COMPA_interrupt_6
//  796      {
//  797        struct_tcc2.count_tc--;
        ADIW	R27:R26, 8
        RCALL	?Subroutine39
//  798        if(struct_tcc2.count_tc==0)
??CrossCallReturnLabel_88:
        SBIW	R27:R26, 9
        OR	R16, R17
        BRNE	??TIMER0_COMPA_interrupt_7
//  799        {
//  800          struct_tcc2.fl_ch_tc=0;
        ADIW	R27:R26, 6
        RCALL	?Subroutine38
//  801          struct_tcc2.real_tc=0x01 & (~struct_tcc2.tek_pin);
??CrossCallReturnLabel_210:
        SBIW	R27:R26, 7
        RJMP	??TIMER0_COMPA_interrupt_7
//  802      //    modbus_mem1[AD_TS]=(modbus_mem1[AD_TS] & (~(0x01<<15))) | (struct_tcc2.real_tc <<15);  // 15 02 2016
//  803        }
//  804      } 
//  805      else
//  806      {
//  807        if(struct_tcc2.tek_pin!=struct_tcc2.old_pin)
??TIMER0_COMPA_interrupt_6:
        ANDI	R16, 0x01
        ADIW	R27:R26, 6
        LD	R17, X
        SBIW	R27:R26, 6
        RCALL	?Subroutine47
??CrossCallReturnLabel_111:
        BREQ	??TIMER0_COMPA_interrupt_7
//  808        {
//  809         struct_tcc2.fl_ch_tc=1;
        ADIW	R27:R26, 6
        RCALL	?Subroutine42
??CrossCallReturnLabel_214:
        ADIW	R27:R26, 2
//  810         struct_tcc2.count_tc=882;
        LDI	R16, 114
        LDI	R17, 3
        ST	X+, R16
        ST	X, R17
        SBIW	R27:R26, 9
//  811        }
//  812      }
//  813     struct_tcc2.old_pin=struct_tcc2.tek_pin;
??TIMER0_COMPA_interrupt_7:
        ADIW	R27:R26, 6
        RCALL	?Subroutine40
??CrossCallReturnLabel_212:
        SBIW	R27:R26, 6
//  814    
//  815    
//  816    
//  817       opros_ts(14,PING,TCC1,&str_tc15);
        MOVW	R21:R20, R27:R26
        SUBI	R20, 228
        SBCI	R21, 255
        LDI	R18, 4
        IN	R17, 0x12
        LDI	R16, 14
        RCALL	?Subroutine50
//  818       opros_ts(15,PINA,TCC2,&str_tc16);
??CrossCallReturnLabel_112:
        SUBI	R20, 226
        SBCI	R21, 255
        LDI	R18, 128
        IN	R17, 0x00
        LDI	R16, 15
        RCALL	?Subroutine51
//  819    
//  820     if(sel_modul==1)
??CrossCallReturnLabel_120:
        LDS	R16, sel_modul
        CPI	R16, 1
        MOVW	R21:R20, R27:R26
        BRNE	??TIMER0_COMPA_interrupt_8
//  821     {
//  822       opros_ts(0,PINA,IO3,&str_tc1);
        SUBI	R20, 244
        SBCI	R21, 255
        LDI	R18, 1
        IN	R17, 0x00
        LDI	R16, 0
        RCALL	?Subroutine50
//  823       opros_ts(1,PINJ,IO4,&str_tc2);
??CrossCallReturnLabel_113:
        SUBI	R20, 242
        RCALL	?Subroutine52
??CrossCallReturnLabel_121:
        RCALL	?Subroutine49
//  824       opros_ts(2,PINA,IO5,&str_tc3);
??CrossCallReturnLabel_207:
        LDI	R18, 4
        RCALL	?Subroutine48
//  825       opros_ts(3,PINK,IO6,&str_tc4);
??CrossCallReturnLabel_205:
        RCALL	?Subroutine56
??CrossCallReturnLabel_126:
        LDI	R16, 3
        RCALL	?Subroutine51
//  826       opros_ts(4,PINK,IO8,&str_tc5);
??CrossCallReturnLabel_119:
        ADIW	R27:R26, 20
        MOVW	R21:R20, R27:R26
        LDI	R18, 4
        RCALL	??Subroutine56_0
??CrossCallReturnLabel_127:
        LDI	R16, 4
        RJMP	??TIMER0_COMPA_interrupt_9
//  827       
//  828      
//  829 
//  830     }
//  831 
//  832       else
//  833       {
//  834        opros_ts(1,PINK,IO2,&str_tc2);
??TIMER0_COMPA_interrupt_8:
        SUBI	R20, 242
        SBCI	R21, 255
        LDI	R18, 64
        RCALL	??Subroutine56_0
??CrossCallReturnLabel_128:
        RCALL	?Subroutine49
//  835        opros_ts(2,PINA,IO3,&str_tc3);
??CrossCallReturnLabel_208:
        LDI	R18, 1
        RCALL	?Subroutine48
//  836        opros_ts(3,PINK,IO8,&str_tc4);
??CrossCallReturnLabel_206:
        LDI	R18, 4
        RCALL	??Subroutine56_0
??CrossCallReturnLabel_129:
        LDI	R16, 3
        RCALL	?Subroutine50
//  837        opros_ts(4,PINJ,IO4,&str_tc5); 
??CrossCallReturnLabel_114:
        SUBI	R20, 236
        RCALL	?Subroutine52
??CrossCallReturnLabel_122:
        LDI	R16, 4
        RCALL	?Subroutine50
//  838        opros_ts(5,PINA,IO5,&str_tc6);
??CrossCallReturnLabel_115:
        SUBI	R20, 234
        SBCI	R21, 255
        LDI	R18, 4
        IN	R17, 0x00
        LDI	R16, 5
        RCALL	?Subroutine50
//  839        opros_ts(6,PINK,IO6,&str_tc7);
??CrossCallReturnLabel_116:
        SUBI	R20, 232
        SBCI	R21, 255
        RCALL	?Subroutine56
??CrossCallReturnLabel_130:
        LDI	R16, 6
        RCALL	?Subroutine51
//  840        opros_ts(7,PINA,IO7,&str_tc8);
??CrossCallReturnLabel_118:
        ADIW	R27:R26, 26
        MOVW	R21:R20, R27:R26
        LDI	R18, 2
        IN	R17, 0x00
        LDI	R16, 7
??TIMER0_COMPA_interrupt_9:
        RCALL	?Subroutine51
        CFI EndBlock cfiBlock88
//  841       }
//  842  }
??CrossCallReturnLabel_117:
        REQUIRE ?Subroutine85
        ;		// Fall through to label ?Subroutine85

        RSEG CODE:CODE:NOROOT(1)
?Subroutine85:
        CFI Block cfiBlock89 Using cfiCommon2
        CFI NoFunction
        CFI CFA_Y Y+19
        CFI R0 Frame(CFA_Y, -11)
        CFI R1 Frame(CFA_Y, -10)
        CFI R2 Frame(CFA_Y, -9)
        CFI R3 Frame(CFA_Y, -8)
        CFI R4 Frame(CFA_Y, -1)
        CFI R16 Frame(CFA_Y, -19)
        CFI R17 Frame(CFA_Y, -18)
        CFI R18 Frame(CFA_Y, -17)
        CFI R19 Frame(CFA_Y, -16)
        CFI R20 Frame(CFA_Y, -15)
        CFI R21 Frame(CFA_Y, -14)
        CFI R22 Frame(CFA_Y, -13)
        CFI R23 Frame(CFA_Y, -12)
        CFI R24 Frame(CFA_Y, -5)
        CFI R25 Frame(CFA_Y, -4)
        CFI R26 Frame(CFA_Y, -3)
        CFI R27 Frame(CFA_Y, -2)
        CFI R30 Frame(CFA_Y, -7)
        CFI R31 Frame(CFA_Y, -6)
        RCALL	?Subroutine53
        CFI CFA_Y Y+0
        CFI R0 SameValue
        CFI R1 SameValue
        CFI R2 SameValue
        CFI R3 SameValue
        CFI R4 SameValue
        CFI R16 SameValue
        CFI R17 SameValue
        CFI R18 SameValue
        CFI R19 SameValue
        CFI R20 SameValue
        CFI R21 SameValue
        CFI R22 SameValue
        CFI R23 SameValue
        CFI R24 SameValue
        CFI R25 SameValue
        CFI R26 SameValue
        CFI R27 SameValue
        CFI R30 SameValue
        CFI R31 SameValue
??CrossCallReturnLabel_171:
        RETI
        CFI EndBlock cfiBlock89

        RSEG CODE:CODE:NOROOT(1)
?Subroutine56:
        CFI Block cfiCond90 Using cfiCommon2
        CFI NoFunction
        CFI Conditional ??CrossCallReturnLabel_126
        CFI R16 Frame(CFA_Y, -19)
        CFI R17 Frame(CFA_Y, -18)
        CFI R18 Frame(CFA_Y, -17)
        CFI R19 Frame(CFA_Y, -16)
        CFI R20 Frame(CFA_Y, -15)
        CFI R21 Frame(CFA_Y, -14)
        CFI R22 Frame(CFA_Y, -13)
        CFI R23 Frame(CFA_Y, -12)
        CFI R0 Frame(CFA_Y, -11)
        CFI R1 Frame(CFA_Y, -10)
        CFI R2 Frame(CFA_Y, -9)
        CFI R3 Frame(CFA_Y, -8)
        CFI R30 Frame(CFA_Y, -7)
        CFI R31 Frame(CFA_Y, -6)
        CFI R24 Frame(CFA_Y, -5)
        CFI R25 Frame(CFA_Y, -4)
        CFI R26 Frame(CFA_Y, -3)
        CFI R27 Frame(CFA_Y, -2)
        CFI R4 Frame(CFA_Y, -1)
        CFI CFA_SP SP+6
        CFI CFA_Y Y+19
        CFI Block cfiCond91 Using cfiCommon2
        CFI (cfiCond91) NoFunction
        CFI (cfiCond91) Conditional ??CrossCallReturnLabel_130
        CFI (cfiCond91) R16 Frame(CFA_Y, -19)
        CFI (cfiCond91) R17 Frame(CFA_Y, -18)
        CFI (cfiCond91) R18 Frame(CFA_Y, -17)
        CFI (cfiCond91) R19 Frame(CFA_Y, -16)
        CFI (cfiCond91) R20 Frame(CFA_Y, -15)
        CFI (cfiCond91) R21 Frame(CFA_Y, -14)
        CFI (cfiCond91) R22 Frame(CFA_Y, -13)
        CFI (cfiCond91) R23 Frame(CFA_Y, -12)
        CFI (cfiCond91) R0 Frame(CFA_Y, -11)
        CFI (cfiCond91) R1 Frame(CFA_Y, -10)
        CFI (cfiCond91) R2 Frame(CFA_Y, -9)
        CFI (cfiCond91) R3 Frame(CFA_Y, -8)
        CFI (cfiCond91) R30 Frame(CFA_Y, -7)
        CFI (cfiCond91) R31 Frame(CFA_Y, -6)
        CFI (cfiCond91) R24 Frame(CFA_Y, -5)
        CFI (cfiCond91) R25 Frame(CFA_Y, -4)
        CFI (cfiCond91) R26 Frame(CFA_Y, -3)
        CFI (cfiCond91) R27 Frame(CFA_Y, -2)
        CFI (cfiCond91) R4 Frame(CFA_Y, -1)
        CFI (cfiCond91) CFA_SP SP+6
        CFI (cfiCond91) CFA_Y Y+19
        CFI Block cfiPicker92 Using cfiCommon1
        CFI (cfiPicker92) NoFunction
        CFI (cfiPicker92) Picker
        LDI	R18, 16
        CFI Block cfiCond93 Using cfiCommon2
        CFI (cfiCond93) NoFunction
        CFI (cfiCond93) Conditional ??CrossCallReturnLabel_127
        CFI (cfiCond93) R16 Frame(CFA_Y, -19)
        CFI (cfiCond93) R17 Frame(CFA_Y, -18)
        CFI (cfiCond93) R18 Frame(CFA_Y, -17)
        CFI (cfiCond93) R19 Frame(CFA_Y, -16)
        CFI (cfiCond93) R20 Frame(CFA_Y, -15)
        CFI (cfiCond93) R21 Frame(CFA_Y, -14)
        CFI (cfiCond93) R22 Frame(CFA_Y, -13)
        CFI (cfiCond93) R23 Frame(CFA_Y, -12)
        CFI (cfiCond93) R0 Frame(CFA_Y, -11)
        CFI (cfiCond93) R1 Frame(CFA_Y, -10)
        CFI (cfiCond93) R2 Frame(CFA_Y, -9)
        CFI (cfiCond93) R3 Frame(CFA_Y, -8)
        CFI (cfiCond93) R30 Frame(CFA_Y, -7)
        CFI (cfiCond93) R31 Frame(CFA_Y, -6)
        CFI (cfiCond93) R24 Frame(CFA_Y, -5)
        CFI (cfiCond93) R25 Frame(CFA_Y, -4)
        CFI (cfiCond93) R26 Frame(CFA_Y, -3)
        CFI (cfiCond93) R27 Frame(CFA_Y, -2)
        CFI (cfiCond93) R4 Frame(CFA_Y, -1)
        CFI (cfiCond93) CFA_SP SP+6
        CFI (cfiCond93) CFA_Y Y+19
        CFI Block cfiCond94 Using cfiCommon2
        CFI (cfiCond94) NoFunction
        CFI (cfiCond94) Conditional ??CrossCallReturnLabel_128
        CFI (cfiCond94) R16 Frame(CFA_Y, -19)
        CFI (cfiCond94) R17 Frame(CFA_Y, -18)
        CFI (cfiCond94) R18 Frame(CFA_Y, -17)
        CFI (cfiCond94) R19 Frame(CFA_Y, -16)
        CFI (cfiCond94) R20 Frame(CFA_Y, -15)
        CFI (cfiCond94) R21 Frame(CFA_Y, -14)
        CFI (cfiCond94) R22 Frame(CFA_Y, -13)
        CFI (cfiCond94) R23 Frame(CFA_Y, -12)
        CFI (cfiCond94) R0 Frame(CFA_Y, -11)
        CFI (cfiCond94) R1 Frame(CFA_Y, -10)
        CFI (cfiCond94) R2 Frame(CFA_Y, -9)
        CFI (cfiCond94) R3 Frame(CFA_Y, -8)
        CFI (cfiCond94) R30 Frame(CFA_Y, -7)
        CFI (cfiCond94) R31 Frame(CFA_Y, -6)
        CFI (cfiCond94) R24 Frame(CFA_Y, -5)
        CFI (cfiCond94) R25 Frame(CFA_Y, -4)
        CFI (cfiCond94) R26 Frame(CFA_Y, -3)
        CFI (cfiCond94) R27 Frame(CFA_Y, -2)
        CFI (cfiCond94) R4 Frame(CFA_Y, -1)
        CFI (cfiCond94) CFA_SP SP+6
        CFI (cfiCond94) CFA_Y Y+19
        CFI Block cfiCond95 Using cfiCommon2
        CFI (cfiCond95) NoFunction
        CFI (cfiCond95) Conditional ??CrossCallReturnLabel_129
        CFI (cfiCond95) R16 Frame(CFA_Y, -19)
        CFI (cfiCond95) R17 Frame(CFA_Y, -18)
        CFI (cfiCond95) R18 Frame(CFA_Y, -17)
        CFI (cfiCond95) R19 Frame(CFA_Y, -16)
        CFI (cfiCond95) R20 Frame(CFA_Y, -15)
        CFI (cfiCond95) R21 Frame(CFA_Y, -14)
        CFI (cfiCond95) R22 Frame(CFA_Y, -13)
        CFI (cfiCond95) R23 Frame(CFA_Y, -12)
        CFI (cfiCond95) R0 Frame(CFA_Y, -11)
        CFI (cfiCond95) R1 Frame(CFA_Y, -10)
        CFI (cfiCond95) R2 Frame(CFA_Y, -9)
        CFI (cfiCond95) R3 Frame(CFA_Y, -8)
        CFI (cfiCond95) R30 Frame(CFA_Y, -7)
        CFI (cfiCond95) R31 Frame(CFA_Y, -6)
        CFI (cfiCond95) R24 Frame(CFA_Y, -5)
        CFI (cfiCond95) R25 Frame(CFA_Y, -4)
        CFI (cfiCond95) R26 Frame(CFA_Y, -3)
        CFI (cfiCond95) R27 Frame(CFA_Y, -2)
        CFI (cfiCond95) R4 Frame(CFA_Y, -1)
        CFI (cfiCond95) CFA_SP SP+6
        CFI (cfiCond95) CFA_Y Y+19
??Subroutine56_0:
        LDS	R17, 262
        RET
        CFI EndBlock cfiCond90
        CFI EndBlock cfiCond91
        CFI EndBlock cfiPicker92
        CFI EndBlock cfiCond93
        CFI EndBlock cfiCond94
        CFI EndBlock cfiCond95

        RSEG CODE:CODE:NOROOT(1)
?Subroutine52:
        CFI Block cfiCond96 Using cfiCommon2
        CFI NoFunction
        CFI Conditional ??CrossCallReturnLabel_121
        CFI R16 Frame(CFA_Y, -19)
        CFI R17 Frame(CFA_Y, -18)
        CFI R18 Frame(CFA_Y, -17)
        CFI R19 Frame(CFA_Y, -16)
        CFI R20 Frame(CFA_Y, -15)
        CFI R21 Frame(CFA_Y, -14)
        CFI R22 Frame(CFA_Y, -13)
        CFI R23 Frame(CFA_Y, -12)
        CFI R0 Frame(CFA_Y, -11)
        CFI R1 Frame(CFA_Y, -10)
        CFI R2 Frame(CFA_Y, -9)
        CFI R3 Frame(CFA_Y, -8)
        CFI R30 Frame(CFA_Y, -7)
        CFI R31 Frame(CFA_Y, -6)
        CFI R24 Frame(CFA_Y, -5)
        CFI R25 Frame(CFA_Y, -4)
        CFI R26 Frame(CFA_Y, -3)
        CFI R27 Frame(CFA_Y, -2)
        CFI R4 Frame(CFA_Y, -1)
        CFI CFA_SP SP+6
        CFI CFA_Y Y+19
        CFI Block cfiCond97 Using cfiCommon2
        CFI (cfiCond97) NoFunction
        CFI (cfiCond97) Conditional ??CrossCallReturnLabel_122
        CFI (cfiCond97) R16 Frame(CFA_Y, -19)
        CFI (cfiCond97) R17 Frame(CFA_Y, -18)
        CFI (cfiCond97) R18 Frame(CFA_Y, -17)
        CFI (cfiCond97) R19 Frame(CFA_Y, -16)
        CFI (cfiCond97) R20 Frame(CFA_Y, -15)
        CFI (cfiCond97) R21 Frame(CFA_Y, -14)
        CFI (cfiCond97) R22 Frame(CFA_Y, -13)
        CFI (cfiCond97) R23 Frame(CFA_Y, -12)
        CFI (cfiCond97) R0 Frame(CFA_Y, -11)
        CFI (cfiCond97) R1 Frame(CFA_Y, -10)
        CFI (cfiCond97) R2 Frame(CFA_Y, -9)
        CFI (cfiCond97) R3 Frame(CFA_Y, -8)
        CFI (cfiCond97) R30 Frame(CFA_Y, -7)
        CFI (cfiCond97) R31 Frame(CFA_Y, -6)
        CFI (cfiCond97) R24 Frame(CFA_Y, -5)
        CFI (cfiCond97) R25 Frame(CFA_Y, -4)
        CFI (cfiCond97) R26 Frame(CFA_Y, -3)
        CFI (cfiCond97) R27 Frame(CFA_Y, -2)
        CFI (cfiCond97) R4 Frame(CFA_Y, -1)
        CFI (cfiCond97) CFA_SP SP+6
        CFI (cfiCond97) CFA_Y Y+19
        CFI Block cfiPicker98 Using cfiCommon1
        CFI (cfiPicker98) NoFunction
        CFI (cfiPicker98) Picker
        SBCI	R21, 255
        LDI	R18, 128
        LDS	R17, 259
        RET
        CFI EndBlock cfiCond96
        CFI EndBlock cfiCond97
        CFI EndBlock cfiPicker98

        RSEG CODE:CODE:NOROOT(1)
?Subroutine51:
        CFI Block cfiCond99 Using cfiCommon2
        CFI NoFunction
        CFI Conditional ??CrossCallReturnLabel_120
        CFI R16 Frame(CFA_Y, -19)
        CFI R17 Frame(CFA_Y, -18)
        CFI R18 Frame(CFA_Y, -17)
        CFI R19 Frame(CFA_Y, -16)
        CFI R20 Frame(CFA_Y, -15)
        CFI R21 Frame(CFA_Y, -14)
        CFI R22 Frame(CFA_Y, -13)
        CFI R23 Frame(CFA_Y, -12)
        CFI R0 Frame(CFA_Y, -11)
        CFI R1 Frame(CFA_Y, -10)
        CFI R2 Frame(CFA_Y, -9)
        CFI R3 Frame(CFA_Y, -8)
        CFI R30 Frame(CFA_Y, -7)
        CFI R31 Frame(CFA_Y, -6)
        CFI R24 Frame(CFA_Y, -5)
        CFI R25 Frame(CFA_Y, -4)
        CFI R26 Frame(CFA_Y, -3)
        CFI R27 Frame(CFA_Y, -2)
        CFI R4 Frame(CFA_Y, -1)
        CFI CFA_SP SP+6
        CFI CFA_Y Y+19
        CFI Block cfiCond100 Using cfiCommon2
        CFI (cfiCond100) NoFunction
        CFI (cfiCond100) Conditional ??CrossCallReturnLabel_119
        CFI (cfiCond100) R16 Frame(CFA_Y, -19)
        CFI (cfiCond100) R17 Frame(CFA_Y, -18)
        CFI (cfiCond100) R18 Frame(CFA_Y, -17)
        CFI (cfiCond100) R19 Frame(CFA_Y, -16)
        CFI (cfiCond100) R20 Frame(CFA_Y, -15)
        CFI (cfiCond100) R21 Frame(CFA_Y, -14)
        CFI (cfiCond100) R22 Frame(CFA_Y, -13)
        CFI (cfiCond100) R23 Frame(CFA_Y, -12)
        CFI (cfiCond100) R0 Frame(CFA_Y, -11)
        CFI (cfiCond100) R1 Frame(CFA_Y, -10)
        CFI (cfiCond100) R2 Frame(CFA_Y, -9)
        CFI (cfiCond100) R3 Frame(CFA_Y, -8)
        CFI (cfiCond100) R30 Frame(CFA_Y, -7)
        CFI (cfiCond100) R31 Frame(CFA_Y, -6)
        CFI (cfiCond100) R24 Frame(CFA_Y, -5)
        CFI (cfiCond100) R25 Frame(CFA_Y, -4)
        CFI (cfiCond100) R26 Frame(CFA_Y, -3)
        CFI (cfiCond100) R27 Frame(CFA_Y, -2)
        CFI (cfiCond100) R4 Frame(CFA_Y, -1)
        CFI (cfiCond100) CFA_SP SP+6
        CFI (cfiCond100) CFA_Y Y+19
        CFI Block cfiCond101 Using cfiCommon2
        CFI (cfiCond101) NoFunction
        CFI (cfiCond101) Conditional ??CrossCallReturnLabel_118
        CFI (cfiCond101) R16 Frame(CFA_Y, -19)
        CFI (cfiCond101) R17 Frame(CFA_Y, -18)
        CFI (cfiCond101) R18 Frame(CFA_Y, -17)
        CFI (cfiCond101) R19 Frame(CFA_Y, -16)
        CFI (cfiCond101) R20 Frame(CFA_Y, -15)
        CFI (cfiCond101) R21 Frame(CFA_Y, -14)
        CFI (cfiCond101) R22 Frame(CFA_Y, -13)
        CFI (cfiCond101) R23 Frame(CFA_Y, -12)
        CFI (cfiCond101) R0 Frame(CFA_Y, -11)
        CFI (cfiCond101) R1 Frame(CFA_Y, -10)
        CFI (cfiCond101) R2 Frame(CFA_Y, -9)
        CFI (cfiCond101) R3 Frame(CFA_Y, -8)
        CFI (cfiCond101) R30 Frame(CFA_Y, -7)
        CFI (cfiCond101) R31 Frame(CFA_Y, -6)
        CFI (cfiCond101) R24 Frame(CFA_Y, -5)
        CFI (cfiCond101) R25 Frame(CFA_Y, -4)
        CFI (cfiCond101) R26 Frame(CFA_Y, -3)
        CFI (cfiCond101) R27 Frame(CFA_Y, -2)
        CFI (cfiCond101) R4 Frame(CFA_Y, -1)
        CFI (cfiCond101) CFA_SP SP+6
        CFI (cfiCond101) CFA_Y Y+19
        CFI Block cfiCond102 Using cfiCommon2
        CFI (cfiCond102) NoFunction
        CFI (cfiCond102) Conditional ??CrossCallReturnLabel_117
        CFI (cfiCond102) R16 Frame(CFA_Y, -19)
        CFI (cfiCond102) R17 Frame(CFA_Y, -18)
        CFI (cfiCond102) R18 Frame(CFA_Y, -17)
        CFI (cfiCond102) R19 Frame(CFA_Y, -16)
        CFI (cfiCond102) R20 Frame(CFA_Y, -15)
        CFI (cfiCond102) R21 Frame(CFA_Y, -14)
        CFI (cfiCond102) R22 Frame(CFA_Y, -13)
        CFI (cfiCond102) R23 Frame(CFA_Y, -12)
        CFI (cfiCond102) R0 Frame(CFA_Y, -11)
        CFI (cfiCond102) R1 Frame(CFA_Y, -10)
        CFI (cfiCond102) R2 Frame(CFA_Y, -9)
        CFI (cfiCond102) R3 Frame(CFA_Y, -8)
        CFI (cfiCond102) R30 Frame(CFA_Y, -7)
        CFI (cfiCond102) R31 Frame(CFA_Y, -6)
        CFI (cfiCond102) R24 Frame(CFA_Y, -5)
        CFI (cfiCond102) R25 Frame(CFA_Y, -4)
        CFI (cfiCond102) R26 Frame(CFA_Y, -3)
        CFI (cfiCond102) R27 Frame(CFA_Y, -2)
        CFI (cfiCond102) R4 Frame(CFA_Y, -1)
        CFI (cfiCond102) CFA_SP SP+6
        CFI (cfiCond102) CFA_Y Y+19
        CFI Block cfiPicker103 Using cfiCommon1
        CFI (cfiPicker103) NoFunction
        CFI (cfiPicker103) Picker
        JMP	opros_ts
        CFI EndBlock cfiCond99
        CFI EndBlock cfiCond100
        CFI EndBlock cfiCond101
        CFI EndBlock cfiCond102
        CFI EndBlock cfiPicker103

        RSEG CODE:CODE:NOROOT(1)
?Subroutine50:
        CFI Block cfiCond104 Using cfiCommon2
        CFI NoFunction
        CFI Conditional ??CrossCallReturnLabel_112
        CFI R16 Frame(CFA_Y, -19)
        CFI R17 Frame(CFA_Y, -18)
        CFI R18 Frame(CFA_Y, -17)
        CFI R19 Frame(CFA_Y, -16)
        CFI R20 Frame(CFA_Y, -15)
        CFI R21 Frame(CFA_Y, -14)
        CFI R22 Frame(CFA_Y, -13)
        CFI R23 Frame(CFA_Y, -12)
        CFI R0 Frame(CFA_Y, -11)
        CFI R1 Frame(CFA_Y, -10)
        CFI R2 Frame(CFA_Y, -9)
        CFI R3 Frame(CFA_Y, -8)
        CFI R30 Frame(CFA_Y, -7)
        CFI R31 Frame(CFA_Y, -6)
        CFI R24 Frame(CFA_Y, -5)
        CFI R25 Frame(CFA_Y, -4)
        CFI R26 Frame(CFA_Y, -3)
        CFI R27 Frame(CFA_Y, -2)
        CFI R4 Frame(CFA_Y, -1)
        CFI CFA_SP SP+6
        CFI CFA_Y Y+19
        CFI Block cfiCond105 Using cfiCommon2
        CFI (cfiCond105) NoFunction
        CFI (cfiCond105) Conditional ??CrossCallReturnLabel_113
        CFI (cfiCond105) R16 Frame(CFA_Y, -19)
        CFI (cfiCond105) R17 Frame(CFA_Y, -18)
        CFI (cfiCond105) R18 Frame(CFA_Y, -17)
        CFI (cfiCond105) R19 Frame(CFA_Y, -16)
        CFI (cfiCond105) R20 Frame(CFA_Y, -15)
        CFI (cfiCond105) R21 Frame(CFA_Y, -14)
        CFI (cfiCond105) R22 Frame(CFA_Y, -13)
        CFI (cfiCond105) R23 Frame(CFA_Y, -12)
        CFI (cfiCond105) R0 Frame(CFA_Y, -11)
        CFI (cfiCond105) R1 Frame(CFA_Y, -10)
        CFI (cfiCond105) R2 Frame(CFA_Y, -9)
        CFI (cfiCond105) R3 Frame(CFA_Y, -8)
        CFI (cfiCond105) R30 Frame(CFA_Y, -7)
        CFI (cfiCond105) R31 Frame(CFA_Y, -6)
        CFI (cfiCond105) R24 Frame(CFA_Y, -5)
        CFI (cfiCond105) R25 Frame(CFA_Y, -4)
        CFI (cfiCond105) R26 Frame(CFA_Y, -3)
        CFI (cfiCond105) R27 Frame(CFA_Y, -2)
        CFI (cfiCond105) R4 Frame(CFA_Y, -1)
        CFI (cfiCond105) CFA_SP SP+6
        CFI (cfiCond105) CFA_Y Y+19
        CFI Block cfiCond106 Using cfiCommon2
        CFI (cfiCond106) NoFunction
        CFI (cfiCond106) Conditional ??CrossCallReturnLabel_114
        CFI (cfiCond106) R16 Frame(CFA_Y, -19)
        CFI (cfiCond106) R17 Frame(CFA_Y, -18)
        CFI (cfiCond106) R18 Frame(CFA_Y, -17)
        CFI (cfiCond106) R19 Frame(CFA_Y, -16)
        CFI (cfiCond106) R20 Frame(CFA_Y, -15)
        CFI (cfiCond106) R21 Frame(CFA_Y, -14)
        CFI (cfiCond106) R22 Frame(CFA_Y, -13)
        CFI (cfiCond106) R23 Frame(CFA_Y, -12)
        CFI (cfiCond106) R0 Frame(CFA_Y, -11)
        CFI (cfiCond106) R1 Frame(CFA_Y, -10)
        CFI (cfiCond106) R2 Frame(CFA_Y, -9)
        CFI (cfiCond106) R3 Frame(CFA_Y, -8)
        CFI (cfiCond106) R30 Frame(CFA_Y, -7)
        CFI (cfiCond106) R31 Frame(CFA_Y, -6)
        CFI (cfiCond106) R24 Frame(CFA_Y, -5)
        CFI (cfiCond106) R25 Frame(CFA_Y, -4)
        CFI (cfiCond106) R26 Frame(CFA_Y, -3)
        CFI (cfiCond106) R27 Frame(CFA_Y, -2)
        CFI (cfiCond106) R4 Frame(CFA_Y, -1)
        CFI (cfiCond106) CFA_SP SP+6
        CFI (cfiCond106) CFA_Y Y+19
        CFI Block cfiCond107 Using cfiCommon2
        CFI (cfiCond107) NoFunction
        CFI (cfiCond107) Conditional ??CrossCallReturnLabel_115
        CFI (cfiCond107) R16 Frame(CFA_Y, -19)
        CFI (cfiCond107) R17 Frame(CFA_Y, -18)
        CFI (cfiCond107) R18 Frame(CFA_Y, -17)
        CFI (cfiCond107) R19 Frame(CFA_Y, -16)
        CFI (cfiCond107) R20 Frame(CFA_Y, -15)
        CFI (cfiCond107) R21 Frame(CFA_Y, -14)
        CFI (cfiCond107) R22 Frame(CFA_Y, -13)
        CFI (cfiCond107) R23 Frame(CFA_Y, -12)
        CFI (cfiCond107) R0 Frame(CFA_Y, -11)
        CFI (cfiCond107) R1 Frame(CFA_Y, -10)
        CFI (cfiCond107) R2 Frame(CFA_Y, -9)
        CFI (cfiCond107) R3 Frame(CFA_Y, -8)
        CFI (cfiCond107) R30 Frame(CFA_Y, -7)
        CFI (cfiCond107) R31 Frame(CFA_Y, -6)
        CFI (cfiCond107) R24 Frame(CFA_Y, -5)
        CFI (cfiCond107) R25 Frame(CFA_Y, -4)
        CFI (cfiCond107) R26 Frame(CFA_Y, -3)
        CFI (cfiCond107) R27 Frame(CFA_Y, -2)
        CFI (cfiCond107) R4 Frame(CFA_Y, -1)
        CFI (cfiCond107) CFA_SP SP+6
        CFI (cfiCond107) CFA_Y Y+19
        CFI Block cfiCond108 Using cfiCommon2
        CFI (cfiCond108) NoFunction
        CFI (cfiCond108) Conditional ??CrossCallReturnLabel_116
        CFI (cfiCond108) R16 Frame(CFA_Y, -19)
        CFI (cfiCond108) R17 Frame(CFA_Y, -18)
        CFI (cfiCond108) R18 Frame(CFA_Y, -17)
        CFI (cfiCond108) R19 Frame(CFA_Y, -16)
        CFI (cfiCond108) R20 Frame(CFA_Y, -15)
        CFI (cfiCond108) R21 Frame(CFA_Y, -14)
        CFI (cfiCond108) R22 Frame(CFA_Y, -13)
        CFI (cfiCond108) R23 Frame(CFA_Y, -12)
        CFI (cfiCond108) R0 Frame(CFA_Y, -11)
        CFI (cfiCond108) R1 Frame(CFA_Y, -10)
        CFI (cfiCond108) R2 Frame(CFA_Y, -9)
        CFI (cfiCond108) R3 Frame(CFA_Y, -8)
        CFI (cfiCond108) R30 Frame(CFA_Y, -7)
        CFI (cfiCond108) R31 Frame(CFA_Y, -6)
        CFI (cfiCond108) R24 Frame(CFA_Y, -5)
        CFI (cfiCond108) R25 Frame(CFA_Y, -4)
        CFI (cfiCond108) R26 Frame(CFA_Y, -3)
        CFI (cfiCond108) R27 Frame(CFA_Y, -2)
        CFI (cfiCond108) R4 Frame(CFA_Y, -1)
        CFI (cfiCond108) CFA_SP SP+6
        CFI (cfiCond108) CFA_Y Y+19
        CFI Block cfiPicker109 Using cfiCommon1
        CFI (cfiPicker109) NoFunction
        CFI (cfiPicker109) Picker
        CALL	opros_ts
        MOVW	R21:R20, R27:R26
        RET
        CFI EndBlock cfiCond104
        CFI EndBlock cfiCond105
        CFI EndBlock cfiCond106
        CFI EndBlock cfiCond107
        CFI EndBlock cfiCond108
        CFI EndBlock cfiPicker109

        RSEG CODE:CODE:NOROOT(1)
?Subroutine49:
        CFI Block cfiCond110 Using cfiCommon2
        CFI NoFunction
        CFI Conditional ??CrossCallReturnLabel_207
        CFI R16 Frame(CFA_Y, -19)
        CFI R17 Frame(CFA_Y, -18)
        CFI R18 Frame(CFA_Y, -17)
        CFI R19 Frame(CFA_Y, -16)
        CFI R20 Frame(CFA_Y, -15)
        CFI R21 Frame(CFA_Y, -14)
        CFI R22 Frame(CFA_Y, -13)
        CFI R23 Frame(CFA_Y, -12)
        CFI R0 Frame(CFA_Y, -11)
        CFI R1 Frame(CFA_Y, -10)
        CFI R2 Frame(CFA_Y, -9)
        CFI R3 Frame(CFA_Y, -8)
        CFI R30 Frame(CFA_Y, -7)
        CFI R31 Frame(CFA_Y, -6)
        CFI R24 Frame(CFA_Y, -5)
        CFI R25 Frame(CFA_Y, -4)
        CFI R26 Frame(CFA_Y, -3)
        CFI R27 Frame(CFA_Y, -2)
        CFI R4 Frame(CFA_Y, -1)
        CFI CFA_SP SP+6
        CFI CFA_Y Y+19
        CFI Block cfiCond111 Using cfiCommon2
        CFI (cfiCond111) NoFunction
        CFI (cfiCond111) Conditional ??CrossCallReturnLabel_208
        CFI (cfiCond111) R16 Frame(CFA_Y, -19)
        CFI (cfiCond111) R17 Frame(CFA_Y, -18)
        CFI (cfiCond111) R18 Frame(CFA_Y, -17)
        CFI (cfiCond111) R19 Frame(CFA_Y, -16)
        CFI (cfiCond111) R20 Frame(CFA_Y, -15)
        CFI (cfiCond111) R21 Frame(CFA_Y, -14)
        CFI (cfiCond111) R22 Frame(CFA_Y, -13)
        CFI (cfiCond111) R23 Frame(CFA_Y, -12)
        CFI (cfiCond111) R0 Frame(CFA_Y, -11)
        CFI (cfiCond111) R1 Frame(CFA_Y, -10)
        CFI (cfiCond111) R2 Frame(CFA_Y, -9)
        CFI (cfiCond111) R3 Frame(CFA_Y, -8)
        CFI (cfiCond111) R30 Frame(CFA_Y, -7)
        CFI (cfiCond111) R31 Frame(CFA_Y, -6)
        CFI (cfiCond111) R24 Frame(CFA_Y, -5)
        CFI (cfiCond111) R25 Frame(CFA_Y, -4)
        CFI (cfiCond111) R26 Frame(CFA_Y, -3)
        CFI (cfiCond111) R27 Frame(CFA_Y, -2)
        CFI (cfiCond111) R4 Frame(CFA_Y, -1)
        CFI (cfiCond111) CFA_SP SP+6
        CFI (cfiCond111) CFA_Y Y+19
        CFI Block cfiPicker112 Using cfiCommon1
        CFI (cfiPicker112) NoFunction
        CFI (cfiPicker112) Picker
        LDI	R16, 1
        CALL	opros_ts
        MOVW	R21:R20, R27:R26
        SUBI	R20, 240
        CFI EndBlock cfiCond110
        CFI EndBlock cfiCond111
        CFI EndBlock cfiPicker112
        REQUIRE ?Subroutine96
        ;		// Fall through to label ?Subroutine96

        RSEG CODE:CODE:NOROOT(1)
?Subroutine96:
        CFI Block cfiCond113 Using cfiCommon2
        CFI NoFunction
        CFI Conditional ??CrossCallReturnLabel_207
        CFI R16 Frame(CFA_Y, -19)
        CFI R17 Frame(CFA_Y, -18)
        CFI R18 Frame(CFA_Y, -17)
        CFI R19 Frame(CFA_Y, -16)
        CFI R20 Frame(CFA_Y, -15)
        CFI R21 Frame(CFA_Y, -14)
        CFI R22 Frame(CFA_Y, -13)
        CFI R23 Frame(CFA_Y, -12)
        CFI R0 Frame(CFA_Y, -11)
        CFI R1 Frame(CFA_Y, -10)
        CFI R2 Frame(CFA_Y, -9)
        CFI R3 Frame(CFA_Y, -8)
        CFI R30 Frame(CFA_Y, -7)
        CFI R31 Frame(CFA_Y, -6)
        CFI R24 Frame(CFA_Y, -5)
        CFI R25 Frame(CFA_Y, -4)
        CFI R26 Frame(CFA_Y, -3)
        CFI R27 Frame(CFA_Y, -2)
        CFI R4 Frame(CFA_Y, -1)
        CFI CFA_SP SP+6
        CFI CFA_Y Y+19
        CFI Block cfiCond114 Using cfiCommon2
        CFI (cfiCond114) NoFunction
        CFI (cfiCond114) Conditional ??CrossCallReturnLabel_208
        CFI (cfiCond114) R16 Frame(CFA_Y, -19)
        CFI (cfiCond114) R17 Frame(CFA_Y, -18)
        CFI (cfiCond114) R18 Frame(CFA_Y, -17)
        CFI (cfiCond114) R19 Frame(CFA_Y, -16)
        CFI (cfiCond114) R20 Frame(CFA_Y, -15)
        CFI (cfiCond114) R21 Frame(CFA_Y, -14)
        CFI (cfiCond114) R22 Frame(CFA_Y, -13)
        CFI (cfiCond114) R23 Frame(CFA_Y, -12)
        CFI (cfiCond114) R0 Frame(CFA_Y, -11)
        CFI (cfiCond114) R1 Frame(CFA_Y, -10)
        CFI (cfiCond114) R2 Frame(CFA_Y, -9)
        CFI (cfiCond114) R3 Frame(CFA_Y, -8)
        CFI (cfiCond114) R30 Frame(CFA_Y, -7)
        CFI (cfiCond114) R31 Frame(CFA_Y, -6)
        CFI (cfiCond114) R24 Frame(CFA_Y, -5)
        CFI (cfiCond114) R25 Frame(CFA_Y, -4)
        CFI (cfiCond114) R26 Frame(CFA_Y, -3)
        CFI (cfiCond114) R27 Frame(CFA_Y, -2)
        CFI (cfiCond114) R4 Frame(CFA_Y, -1)
        CFI (cfiCond114) CFA_SP SP+6
        CFI (cfiCond114) CFA_Y Y+19
        CFI Block cfiCond115 Using cfiCommon2
        CFI (cfiCond115) NoFunction
        CFI (cfiCond115) Conditional ??CrossCallReturnLabel_205
        CFI (cfiCond115) R16 Frame(CFA_Y, -19)
        CFI (cfiCond115) R17 Frame(CFA_Y, -18)
        CFI (cfiCond115) R18 Frame(CFA_Y, -17)
        CFI (cfiCond115) R19 Frame(CFA_Y, -16)
        CFI (cfiCond115) R20 Frame(CFA_Y, -15)
        CFI (cfiCond115) R21 Frame(CFA_Y, -14)
        CFI (cfiCond115) R22 Frame(CFA_Y, -13)
        CFI (cfiCond115) R23 Frame(CFA_Y, -12)
        CFI (cfiCond115) R0 Frame(CFA_Y, -11)
        CFI (cfiCond115) R1 Frame(CFA_Y, -10)
        CFI (cfiCond115) R2 Frame(CFA_Y, -9)
        CFI (cfiCond115) R3 Frame(CFA_Y, -8)
        CFI (cfiCond115) R30 Frame(CFA_Y, -7)
        CFI (cfiCond115) R31 Frame(CFA_Y, -6)
        CFI (cfiCond115) R24 Frame(CFA_Y, -5)
        CFI (cfiCond115) R25 Frame(CFA_Y, -4)
        CFI (cfiCond115) R26 Frame(CFA_Y, -3)
        CFI (cfiCond115) R27 Frame(CFA_Y, -2)
        CFI (cfiCond115) R4 Frame(CFA_Y, -1)
        CFI (cfiCond115) CFA_SP SP+6
        CFI (cfiCond115) CFA_Y Y+19
        CFI Block cfiCond116 Using cfiCommon2
        CFI (cfiCond116) NoFunction
        CFI (cfiCond116) Conditional ??CrossCallReturnLabel_206
        CFI (cfiCond116) R16 Frame(CFA_Y, -19)
        CFI (cfiCond116) R17 Frame(CFA_Y, -18)
        CFI (cfiCond116) R18 Frame(CFA_Y, -17)
        CFI (cfiCond116) R19 Frame(CFA_Y, -16)
        CFI (cfiCond116) R20 Frame(CFA_Y, -15)
        CFI (cfiCond116) R21 Frame(CFA_Y, -14)
        CFI (cfiCond116) R22 Frame(CFA_Y, -13)
        CFI (cfiCond116) R23 Frame(CFA_Y, -12)
        CFI (cfiCond116) R0 Frame(CFA_Y, -11)
        CFI (cfiCond116) R1 Frame(CFA_Y, -10)
        CFI (cfiCond116) R2 Frame(CFA_Y, -9)
        CFI (cfiCond116) R3 Frame(CFA_Y, -8)
        CFI (cfiCond116) R30 Frame(CFA_Y, -7)
        CFI (cfiCond116) R31 Frame(CFA_Y, -6)
        CFI (cfiCond116) R24 Frame(CFA_Y, -5)
        CFI (cfiCond116) R25 Frame(CFA_Y, -4)
        CFI (cfiCond116) R26 Frame(CFA_Y, -3)
        CFI (cfiCond116) R27 Frame(CFA_Y, -2)
        CFI (cfiCond116) R4 Frame(CFA_Y, -1)
        CFI (cfiCond116) CFA_SP SP+6
        CFI (cfiCond116) CFA_Y Y+19
        CFI Block cfiPicker117 Using cfiCommon1
        CFI (cfiPicker117) NoFunction
        CFI (cfiPicker117) Picker
        SBCI	R21, 255
        RET
        CFI EndBlock cfiCond113
        CFI EndBlock cfiCond114
        CFI EndBlock cfiCond115
        CFI EndBlock cfiCond116
        CFI EndBlock cfiPicker117

        RSEG CODE:CODE:NOROOT(1)
?Subroutine48:
        CFI Block cfiCond118 Using cfiCommon2
        CFI NoFunction
        CFI Conditional ??CrossCallReturnLabel_205
        CFI R16 Frame(CFA_Y, -19)
        CFI R17 Frame(CFA_Y, -18)
        CFI R18 Frame(CFA_Y, -17)
        CFI R19 Frame(CFA_Y, -16)
        CFI R20 Frame(CFA_Y, -15)
        CFI R21 Frame(CFA_Y, -14)
        CFI R22 Frame(CFA_Y, -13)
        CFI R23 Frame(CFA_Y, -12)
        CFI R0 Frame(CFA_Y, -11)
        CFI R1 Frame(CFA_Y, -10)
        CFI R2 Frame(CFA_Y, -9)
        CFI R3 Frame(CFA_Y, -8)
        CFI R30 Frame(CFA_Y, -7)
        CFI R31 Frame(CFA_Y, -6)
        CFI R24 Frame(CFA_Y, -5)
        CFI R25 Frame(CFA_Y, -4)
        CFI R26 Frame(CFA_Y, -3)
        CFI R27 Frame(CFA_Y, -2)
        CFI R4 Frame(CFA_Y, -1)
        CFI CFA_SP SP+6
        CFI CFA_Y Y+19
        CFI Block cfiCond119 Using cfiCommon2
        CFI (cfiCond119) NoFunction
        CFI (cfiCond119) Conditional ??CrossCallReturnLabel_206
        CFI (cfiCond119) R16 Frame(CFA_Y, -19)
        CFI (cfiCond119) R17 Frame(CFA_Y, -18)
        CFI (cfiCond119) R18 Frame(CFA_Y, -17)
        CFI (cfiCond119) R19 Frame(CFA_Y, -16)
        CFI (cfiCond119) R20 Frame(CFA_Y, -15)
        CFI (cfiCond119) R21 Frame(CFA_Y, -14)
        CFI (cfiCond119) R22 Frame(CFA_Y, -13)
        CFI (cfiCond119) R23 Frame(CFA_Y, -12)
        CFI (cfiCond119) R0 Frame(CFA_Y, -11)
        CFI (cfiCond119) R1 Frame(CFA_Y, -10)
        CFI (cfiCond119) R2 Frame(CFA_Y, -9)
        CFI (cfiCond119) R3 Frame(CFA_Y, -8)
        CFI (cfiCond119) R30 Frame(CFA_Y, -7)
        CFI (cfiCond119) R31 Frame(CFA_Y, -6)
        CFI (cfiCond119) R24 Frame(CFA_Y, -5)
        CFI (cfiCond119) R25 Frame(CFA_Y, -4)
        CFI (cfiCond119) R26 Frame(CFA_Y, -3)
        CFI (cfiCond119) R27 Frame(CFA_Y, -2)
        CFI (cfiCond119) R4 Frame(CFA_Y, -1)
        CFI (cfiCond119) CFA_SP SP+6
        CFI (cfiCond119) CFA_Y Y+19
        CFI Block cfiPicker120 Using cfiCommon1
        CFI (cfiPicker120) NoFunction
        CFI (cfiPicker120) Picker
        IN	R17, 0x00
        LDI	R16, 2
        CALL	opros_ts
        MOVW	R21:R20, R27:R26
        SUBI	R20, 238
        RJMP	?Subroutine96
        CFI EndBlock cfiCond118
        CFI EndBlock cfiCond119
        CFI EndBlock cfiPicker120

        RSEG CODE:CODE:NOROOT(1)
?Subroutine47:
        CFI Block cfiCond121 Using cfiCommon2
        CFI NoFunction
        CFI Conditional ??CrossCallReturnLabel_110
        CFI R16 Frame(CFA_Y, -19)
        CFI R17 Frame(CFA_Y, -18)
        CFI R18 Frame(CFA_Y, -17)
        CFI R19 Frame(CFA_Y, -16)
        CFI R20 Frame(CFA_Y, -15)
        CFI R21 Frame(CFA_Y, -14)
        CFI R22 Frame(CFA_Y, -13)
        CFI R23 Frame(CFA_Y, -12)
        CFI R0 Frame(CFA_Y, -11)
        CFI R1 Frame(CFA_Y, -10)
        CFI R2 Frame(CFA_Y, -9)
        CFI R3 Frame(CFA_Y, -8)
        CFI R30 Frame(CFA_Y, -7)
        CFI R31 Frame(CFA_Y, -6)
        CFI R24 Frame(CFA_Y, -5)
        CFI R25 Frame(CFA_Y, -4)
        CFI R26 Frame(CFA_Y, -3)
        CFI R27 Frame(CFA_Y, -2)
        CFI R4 Frame(CFA_Y, -1)
        CFI CFA_SP SP+6
        CFI CFA_Y Y+19
        CFI Block cfiCond122 Using cfiCommon2
        CFI (cfiCond122) NoFunction
        CFI (cfiCond122) Conditional ??CrossCallReturnLabel_111
        CFI (cfiCond122) R16 Frame(CFA_Y, -19)
        CFI (cfiCond122) R17 Frame(CFA_Y, -18)
        CFI (cfiCond122) R18 Frame(CFA_Y, -17)
        CFI (cfiCond122) R19 Frame(CFA_Y, -16)
        CFI (cfiCond122) R20 Frame(CFA_Y, -15)
        CFI (cfiCond122) R21 Frame(CFA_Y, -14)
        CFI (cfiCond122) R22 Frame(CFA_Y, -13)
        CFI (cfiCond122) R23 Frame(CFA_Y, -12)
        CFI (cfiCond122) R0 Frame(CFA_Y, -11)
        CFI (cfiCond122) R1 Frame(CFA_Y, -10)
        CFI (cfiCond122) R2 Frame(CFA_Y, -9)
        CFI (cfiCond122) R3 Frame(CFA_Y, -8)
        CFI (cfiCond122) R30 Frame(CFA_Y, -7)
        CFI (cfiCond122) R31 Frame(CFA_Y, -6)
        CFI (cfiCond122) R24 Frame(CFA_Y, -5)
        CFI (cfiCond122) R25 Frame(CFA_Y, -4)
        CFI (cfiCond122) R26 Frame(CFA_Y, -3)
        CFI (cfiCond122) R27 Frame(CFA_Y, -2)
        CFI (cfiCond122) R4 Frame(CFA_Y, -1)
        CFI (cfiCond122) CFA_SP SP+6
        CFI (cfiCond122) CFA_Y Y+19
        CFI Block cfiPicker123 Using cfiCommon1
        CFI (cfiPicker123) NoFunction
        CFI (cfiPicker123) Picker
        BST	R17, 1
        LDI	R17, 0
        BLD	R17, 0
        CP	R16, R17
        RET
        CFI EndBlock cfiCond121
        CFI EndBlock cfiCond122
        CFI EndBlock cfiPicker123

        RSEG CODE:CODE:NOROOT(1)
?Subroutine40:
        CFI Block cfiCond124 Using cfiCommon2
        CFI NoFunction
        CFI Conditional ??CrossCallReturnLabel_211
        CFI R16 Frame(CFA_Y, -19)
        CFI R17 Frame(CFA_Y, -18)
        CFI R18 Frame(CFA_Y, -17)
        CFI R19 Frame(CFA_Y, -16)
        CFI R20 Frame(CFA_Y, -15)
        CFI R21 Frame(CFA_Y, -14)
        CFI R22 Frame(CFA_Y, -13)
        CFI R23 Frame(CFA_Y, -12)
        CFI R0 Frame(CFA_Y, -11)
        CFI R1 Frame(CFA_Y, -10)
        CFI R2 Frame(CFA_Y, -9)
        CFI R3 Frame(CFA_Y, -8)
        CFI R30 Frame(CFA_Y, -7)
        CFI R31 Frame(CFA_Y, -6)
        CFI R24 Frame(CFA_Y, -5)
        CFI R25 Frame(CFA_Y, -4)
        CFI R26 Frame(CFA_Y, -3)
        CFI R27 Frame(CFA_Y, -2)
        CFI R4 Frame(CFA_Y, -1)
        CFI CFA_SP SP+6
        CFI CFA_Y Y+19
        CFI Block cfiCond125 Using cfiCommon2
        CFI (cfiCond125) NoFunction
        CFI (cfiCond125) Conditional ??CrossCallReturnLabel_212
        CFI (cfiCond125) R16 Frame(CFA_Y, -19)
        CFI (cfiCond125) R17 Frame(CFA_Y, -18)
        CFI (cfiCond125) R18 Frame(CFA_Y, -17)
        CFI (cfiCond125) R19 Frame(CFA_Y, -16)
        CFI (cfiCond125) R20 Frame(CFA_Y, -15)
        CFI (cfiCond125) R21 Frame(CFA_Y, -14)
        CFI (cfiCond125) R22 Frame(CFA_Y, -13)
        CFI (cfiCond125) R23 Frame(CFA_Y, -12)
        CFI (cfiCond125) R0 Frame(CFA_Y, -11)
        CFI (cfiCond125) R1 Frame(CFA_Y, -10)
        CFI (cfiCond125) R2 Frame(CFA_Y, -9)
        CFI (cfiCond125) R3 Frame(CFA_Y, -8)
        CFI (cfiCond125) R30 Frame(CFA_Y, -7)
        CFI (cfiCond125) R31 Frame(CFA_Y, -6)
        CFI (cfiCond125) R24 Frame(CFA_Y, -5)
        CFI (cfiCond125) R25 Frame(CFA_Y, -4)
        CFI (cfiCond125) R26 Frame(CFA_Y, -3)
        CFI (cfiCond125) R27 Frame(CFA_Y, -2)
        CFI (cfiCond125) R4 Frame(CFA_Y, -1)
        CFI (cfiCond125) CFA_SP SP+6
        CFI (cfiCond125) CFA_Y Y+19
        CFI Block cfiPicker126 Using cfiCommon1
        CFI (cfiPicker126) NoFunction
        CFI (cfiPicker126) Picker
        LD	R16, X
        ANDI	R16, 0x01
        BST	R16, 0
        LD	R16, X
        BLD	R16, 1
        CFI EndBlock cfiCond124
        CFI EndBlock cfiCond125
        CFI EndBlock cfiPicker126
        REQUIRE ?Subroutine97
        ;		// Fall through to label ?Subroutine97

        RSEG CODE:CODE:NOROOT(1)
?Subroutine97:
        CFI Block cfiCond127 Using cfiCommon2
        CFI NoFunction
        CFI Conditional ??CrossCallReturnLabel_211
        CFI R16 Frame(CFA_Y, -19)
        CFI R17 Frame(CFA_Y, -18)
        CFI R18 Frame(CFA_Y, -17)
        CFI R19 Frame(CFA_Y, -16)
        CFI R20 Frame(CFA_Y, -15)
        CFI R21 Frame(CFA_Y, -14)
        CFI R22 Frame(CFA_Y, -13)
        CFI R23 Frame(CFA_Y, -12)
        CFI R0 Frame(CFA_Y, -11)
        CFI R1 Frame(CFA_Y, -10)
        CFI R2 Frame(CFA_Y, -9)
        CFI R3 Frame(CFA_Y, -8)
        CFI R30 Frame(CFA_Y, -7)
        CFI R31 Frame(CFA_Y, -6)
        CFI R24 Frame(CFA_Y, -5)
        CFI R25 Frame(CFA_Y, -4)
        CFI R26 Frame(CFA_Y, -3)
        CFI R27 Frame(CFA_Y, -2)
        CFI R4 Frame(CFA_Y, -1)
        CFI CFA_SP SP+6
        CFI CFA_Y Y+19
        CFI Block cfiCond128 Using cfiCommon2
        CFI (cfiCond128) NoFunction
        CFI (cfiCond128) Conditional ??CrossCallReturnLabel_212
        CFI (cfiCond128) R16 Frame(CFA_Y, -19)
        CFI (cfiCond128) R17 Frame(CFA_Y, -18)
        CFI (cfiCond128) R18 Frame(CFA_Y, -17)
        CFI (cfiCond128) R19 Frame(CFA_Y, -16)
        CFI (cfiCond128) R20 Frame(CFA_Y, -15)
        CFI (cfiCond128) R21 Frame(CFA_Y, -14)
        CFI (cfiCond128) R22 Frame(CFA_Y, -13)
        CFI (cfiCond128) R23 Frame(CFA_Y, -12)
        CFI (cfiCond128) R0 Frame(CFA_Y, -11)
        CFI (cfiCond128) R1 Frame(CFA_Y, -10)
        CFI (cfiCond128) R2 Frame(CFA_Y, -9)
        CFI (cfiCond128) R3 Frame(CFA_Y, -8)
        CFI (cfiCond128) R30 Frame(CFA_Y, -7)
        CFI (cfiCond128) R31 Frame(CFA_Y, -6)
        CFI (cfiCond128) R24 Frame(CFA_Y, -5)
        CFI (cfiCond128) R25 Frame(CFA_Y, -4)
        CFI (cfiCond128) R26 Frame(CFA_Y, -3)
        CFI (cfiCond128) R27 Frame(CFA_Y, -2)
        CFI (cfiCond128) R4 Frame(CFA_Y, -1)
        CFI (cfiCond128) CFA_SP SP+6
        CFI (cfiCond128) CFA_Y Y+19
        CFI Block cfiCond129 Using cfiCommon2
        CFI (cfiCond129) NoFunction
        CFI (cfiCond129) Conditional ??CrossCallReturnLabel_209
        CFI (cfiCond129) R16 Frame(CFA_Y, -19)
        CFI (cfiCond129) R17 Frame(CFA_Y, -18)
        CFI (cfiCond129) R18 Frame(CFA_Y, -17)
        CFI (cfiCond129) R19 Frame(CFA_Y, -16)
        CFI (cfiCond129) R20 Frame(CFA_Y, -15)
        CFI (cfiCond129) R21 Frame(CFA_Y, -14)
        CFI (cfiCond129) R22 Frame(CFA_Y, -13)
        CFI (cfiCond129) R23 Frame(CFA_Y, -12)
        CFI (cfiCond129) R0 Frame(CFA_Y, -11)
        CFI (cfiCond129) R1 Frame(CFA_Y, -10)
        CFI (cfiCond129) R2 Frame(CFA_Y, -9)
        CFI (cfiCond129) R3 Frame(CFA_Y, -8)
        CFI (cfiCond129) R30 Frame(CFA_Y, -7)
        CFI (cfiCond129) R31 Frame(CFA_Y, -6)
        CFI (cfiCond129) R24 Frame(CFA_Y, -5)
        CFI (cfiCond129) R25 Frame(CFA_Y, -4)
        CFI (cfiCond129) R26 Frame(CFA_Y, -3)
        CFI (cfiCond129) R27 Frame(CFA_Y, -2)
        CFI (cfiCond129) R4 Frame(CFA_Y, -1)
        CFI (cfiCond129) CFA_SP SP+6
        CFI (cfiCond129) CFA_Y Y+19
        CFI Block cfiCond130 Using cfiCommon2
        CFI (cfiCond130) NoFunction
        CFI (cfiCond130) Conditional ??CrossCallReturnLabel_210
        CFI (cfiCond130) R16 Frame(CFA_Y, -19)
        CFI (cfiCond130) R17 Frame(CFA_Y, -18)
        CFI (cfiCond130) R18 Frame(CFA_Y, -17)
        CFI (cfiCond130) R19 Frame(CFA_Y, -16)
        CFI (cfiCond130) R20 Frame(CFA_Y, -15)
        CFI (cfiCond130) R21 Frame(CFA_Y, -14)
        CFI (cfiCond130) R22 Frame(CFA_Y, -13)
        CFI (cfiCond130) R23 Frame(CFA_Y, -12)
        CFI (cfiCond130) R0 Frame(CFA_Y, -11)
        CFI (cfiCond130) R1 Frame(CFA_Y, -10)
        CFI (cfiCond130) R2 Frame(CFA_Y, -9)
        CFI (cfiCond130) R3 Frame(CFA_Y, -8)
        CFI (cfiCond130) R30 Frame(CFA_Y, -7)
        CFI (cfiCond130) R31 Frame(CFA_Y, -6)
        CFI (cfiCond130) R24 Frame(CFA_Y, -5)
        CFI (cfiCond130) R25 Frame(CFA_Y, -4)
        CFI (cfiCond130) R26 Frame(CFA_Y, -3)
        CFI (cfiCond130) R27 Frame(CFA_Y, -2)
        CFI (cfiCond130) R4 Frame(CFA_Y, -1)
        CFI (cfiCond130) CFA_SP SP+6
        CFI (cfiCond130) CFA_Y Y+19
        CFI Block cfiCond131 Using cfiCommon2
        CFI (cfiCond131) NoFunction
        CFI (cfiCond131) Conditional ??CrossCallReturnLabel_213
        CFI (cfiCond131) R16 Frame(CFA_Y, -19)
        CFI (cfiCond131) R17 Frame(CFA_Y, -18)
        CFI (cfiCond131) R18 Frame(CFA_Y, -17)
        CFI (cfiCond131) R19 Frame(CFA_Y, -16)
        CFI (cfiCond131) R20 Frame(CFA_Y, -15)
        CFI (cfiCond131) R21 Frame(CFA_Y, -14)
        CFI (cfiCond131) R22 Frame(CFA_Y, -13)
        CFI (cfiCond131) R23 Frame(CFA_Y, -12)
        CFI (cfiCond131) R0 Frame(CFA_Y, -11)
        CFI (cfiCond131) R1 Frame(CFA_Y, -10)
        CFI (cfiCond131) R2 Frame(CFA_Y, -9)
        CFI (cfiCond131) R3 Frame(CFA_Y, -8)
        CFI (cfiCond131) R30 Frame(CFA_Y, -7)
        CFI (cfiCond131) R31 Frame(CFA_Y, -6)
        CFI (cfiCond131) R24 Frame(CFA_Y, -5)
        CFI (cfiCond131) R25 Frame(CFA_Y, -4)
        CFI (cfiCond131) R26 Frame(CFA_Y, -3)
        CFI (cfiCond131) R27 Frame(CFA_Y, -2)
        CFI (cfiCond131) R4 Frame(CFA_Y, -1)
        CFI (cfiCond131) CFA_SP SP+6
        CFI (cfiCond131) CFA_Y Y+19
        CFI Block cfiCond132 Using cfiCommon2
        CFI (cfiCond132) NoFunction
        CFI (cfiCond132) Conditional ??CrossCallReturnLabel_214
        CFI (cfiCond132) R16 Frame(CFA_Y, -19)
        CFI (cfiCond132) R17 Frame(CFA_Y, -18)
        CFI (cfiCond132) R18 Frame(CFA_Y, -17)
        CFI (cfiCond132) R19 Frame(CFA_Y, -16)
        CFI (cfiCond132) R20 Frame(CFA_Y, -15)
        CFI (cfiCond132) R21 Frame(CFA_Y, -14)
        CFI (cfiCond132) R22 Frame(CFA_Y, -13)
        CFI (cfiCond132) R23 Frame(CFA_Y, -12)
        CFI (cfiCond132) R0 Frame(CFA_Y, -11)
        CFI (cfiCond132) R1 Frame(CFA_Y, -10)
        CFI (cfiCond132) R2 Frame(CFA_Y, -9)
        CFI (cfiCond132) R3 Frame(CFA_Y, -8)
        CFI (cfiCond132) R30 Frame(CFA_Y, -7)
        CFI (cfiCond132) R31 Frame(CFA_Y, -6)
        CFI (cfiCond132) R24 Frame(CFA_Y, -5)
        CFI (cfiCond132) R25 Frame(CFA_Y, -4)
        CFI (cfiCond132) R26 Frame(CFA_Y, -3)
        CFI (cfiCond132) R27 Frame(CFA_Y, -2)
        CFI (cfiCond132) R4 Frame(CFA_Y, -1)
        CFI (cfiCond132) CFA_SP SP+6
        CFI (cfiCond132) CFA_Y Y+19
        CFI Block cfiCond133 Using cfiCommon2
        CFI (cfiCond133) NoFunction
        CFI (cfiCond133) Conditional ??CrossCallReturnLabel_215
        CFI (cfiCond133) R16 Frame(CFA_Y, -21)
        CFI (cfiCond133) R17 Frame(CFA_Y, -20)
        CFI (cfiCond133) R18 Frame(CFA_Y, -19)
        CFI (cfiCond133) R19 Frame(CFA_Y, -18)
        CFI (cfiCond133) R20 Frame(CFA_Y, -17)
        CFI (cfiCond133) R21 Frame(CFA_Y, -16)
        CFI (cfiCond133) R22 Frame(CFA_Y, -15)
        CFI (cfiCond133) R23 Frame(CFA_Y, -14)
        CFI (cfiCond133) R0 Frame(CFA_Y, -13)
        CFI (cfiCond133) R1 Frame(CFA_Y, -12)
        CFI (cfiCond133) R2 Frame(CFA_Y, -11)
        CFI (cfiCond133) R3 Frame(CFA_Y, -10)
        CFI (cfiCond133) R30 Frame(CFA_Y, -9)
        CFI (cfiCond133) R31 Frame(CFA_Y, -8)
        CFI (cfiCond133) R24 Frame(CFA_Y, -7)
        CFI (cfiCond133) R25 Frame(CFA_Y, -6)
        CFI (cfiCond133) R26 Frame(CFA_Y, -5)
        CFI (cfiCond133) R27 Frame(CFA_Y, -4)
        CFI (cfiCond133) R4 Frame(CFA_Y, -3)
        CFI (cfiCond133) R5 Frame(CFA_Y, -2)
        CFI (cfiCond133) R6 Frame(CFA_Y, -1)
        CFI (cfiCond133) CFA_SP SP+6
        CFI (cfiCond133) CFA_Y Y+21
        CFI Block cfiPicker134 Using cfiCommon1
        CFI (cfiPicker134) NoFunction
        CFI (cfiPicker134) Picker
        ST	X, R16
        RET
        CFI EndBlock cfiCond127
        CFI EndBlock cfiCond128
        CFI EndBlock cfiCond129
        CFI EndBlock cfiCond130
        CFI EndBlock cfiCond131
        CFI EndBlock cfiCond132
        CFI EndBlock cfiCond133
        CFI EndBlock cfiPicker134

        RSEG CODE:CODE:NOROOT(1)
?Subroutine39:
        CFI Block cfiCond135 Using cfiCommon2
        CFI NoFunction
        CFI Conditional ??CrossCallReturnLabel_87
        CFI R16 Frame(CFA_Y, -19)
        CFI R17 Frame(CFA_Y, -18)
        CFI R18 Frame(CFA_Y, -17)
        CFI R19 Frame(CFA_Y, -16)
        CFI R20 Frame(CFA_Y, -15)
        CFI R21 Frame(CFA_Y, -14)
        CFI R22 Frame(CFA_Y, -13)
        CFI R23 Frame(CFA_Y, -12)
        CFI R0 Frame(CFA_Y, -11)
        CFI R1 Frame(CFA_Y, -10)
        CFI R2 Frame(CFA_Y, -9)
        CFI R3 Frame(CFA_Y, -8)
        CFI R30 Frame(CFA_Y, -7)
        CFI R31 Frame(CFA_Y, -6)
        CFI R24 Frame(CFA_Y, -5)
        CFI R25 Frame(CFA_Y, -4)
        CFI R26 Frame(CFA_Y, -3)
        CFI R27 Frame(CFA_Y, -2)
        CFI R4 Frame(CFA_Y, -1)
        CFI CFA_SP SP+6
        CFI CFA_Y Y+19
        CFI Block cfiCond136 Using cfiCommon2
        CFI (cfiCond136) NoFunction
        CFI (cfiCond136) Conditional ??CrossCallReturnLabel_88
        CFI (cfiCond136) R16 Frame(CFA_Y, -19)
        CFI (cfiCond136) R17 Frame(CFA_Y, -18)
        CFI (cfiCond136) R18 Frame(CFA_Y, -17)
        CFI (cfiCond136) R19 Frame(CFA_Y, -16)
        CFI (cfiCond136) R20 Frame(CFA_Y, -15)
        CFI (cfiCond136) R21 Frame(CFA_Y, -14)
        CFI (cfiCond136) R22 Frame(CFA_Y, -13)
        CFI (cfiCond136) R23 Frame(CFA_Y, -12)
        CFI (cfiCond136) R0 Frame(CFA_Y, -11)
        CFI (cfiCond136) R1 Frame(CFA_Y, -10)
        CFI (cfiCond136) R2 Frame(CFA_Y, -9)
        CFI (cfiCond136) R3 Frame(CFA_Y, -8)
        CFI (cfiCond136) R30 Frame(CFA_Y, -7)
        CFI (cfiCond136) R31 Frame(CFA_Y, -6)
        CFI (cfiCond136) R24 Frame(CFA_Y, -5)
        CFI (cfiCond136) R25 Frame(CFA_Y, -4)
        CFI (cfiCond136) R26 Frame(CFA_Y, -3)
        CFI (cfiCond136) R27 Frame(CFA_Y, -2)
        CFI (cfiCond136) R4 Frame(CFA_Y, -1)
        CFI (cfiCond136) CFA_SP SP+6
        CFI (cfiCond136) CFA_Y Y+19
        CFI Block cfiPicker137 Using cfiCommon1
        CFI (cfiPicker137) NoFunction
        CFI (cfiPicker137) Picker
        LD	R16, X+
        LD	R17, X
        SUBI	R16, 1
        SBCI	R17, 0
        ST	X, R17
        ST	-X, R16
        ADIW	R27:R26, 1
        RET
        CFI EndBlock cfiCond135
        CFI EndBlock cfiCond136
        CFI EndBlock cfiPicker137

        RSEG CODE:CODE:NOROOT(1)
?Subroutine38:
        CFI Block cfiCond138 Using cfiCommon2
        CFI NoFunction
        CFI Conditional ??CrossCallReturnLabel_209
        CFI R16 Frame(CFA_Y, -19)
        CFI R17 Frame(CFA_Y, -18)
        CFI R18 Frame(CFA_Y, -17)
        CFI R19 Frame(CFA_Y, -16)
        CFI R20 Frame(CFA_Y, -15)
        CFI R21 Frame(CFA_Y, -14)
        CFI R22 Frame(CFA_Y, -13)
        CFI R23 Frame(CFA_Y, -12)
        CFI R0 Frame(CFA_Y, -11)
        CFI R1 Frame(CFA_Y, -10)
        CFI R2 Frame(CFA_Y, -9)
        CFI R3 Frame(CFA_Y, -8)
        CFI R30 Frame(CFA_Y, -7)
        CFI R31 Frame(CFA_Y, -6)
        CFI R24 Frame(CFA_Y, -5)
        CFI R25 Frame(CFA_Y, -4)
        CFI R26 Frame(CFA_Y, -3)
        CFI R27 Frame(CFA_Y, -2)
        CFI R4 Frame(CFA_Y, -1)
        CFI CFA_SP SP+6
        CFI CFA_Y Y+19
        CFI Block cfiCond139 Using cfiCommon2
        CFI (cfiCond139) NoFunction
        CFI (cfiCond139) Conditional ??CrossCallReturnLabel_210
        CFI (cfiCond139) R16 Frame(CFA_Y, -19)
        CFI (cfiCond139) R17 Frame(CFA_Y, -18)
        CFI (cfiCond139) R18 Frame(CFA_Y, -17)
        CFI (cfiCond139) R19 Frame(CFA_Y, -16)
        CFI (cfiCond139) R20 Frame(CFA_Y, -15)
        CFI (cfiCond139) R21 Frame(CFA_Y, -14)
        CFI (cfiCond139) R22 Frame(CFA_Y, -13)
        CFI (cfiCond139) R23 Frame(CFA_Y, -12)
        CFI (cfiCond139) R0 Frame(CFA_Y, -11)
        CFI (cfiCond139) R1 Frame(CFA_Y, -10)
        CFI (cfiCond139) R2 Frame(CFA_Y, -9)
        CFI (cfiCond139) R3 Frame(CFA_Y, -8)
        CFI (cfiCond139) R30 Frame(CFA_Y, -7)
        CFI (cfiCond139) R31 Frame(CFA_Y, -6)
        CFI (cfiCond139) R24 Frame(CFA_Y, -5)
        CFI (cfiCond139) R25 Frame(CFA_Y, -4)
        CFI (cfiCond139) R26 Frame(CFA_Y, -3)
        CFI (cfiCond139) R27 Frame(CFA_Y, -2)
        CFI (cfiCond139) R4 Frame(CFA_Y, -1)
        CFI (cfiCond139) CFA_SP SP+6
        CFI (cfiCond139) CFA_Y Y+19
        CFI Block cfiPicker140 Using cfiCommon1
        CFI (cfiPicker140) NoFunction
        CFI (cfiPicker140) Picker
        LD	R16, X
        ANDI	R16, 0xFB
        ST	X+, R16
        ANDI	R16, 0x01
        COM	R16
        ANDI	R16, 0x01
        RJMP	?Subroutine97
        CFI EndBlock cfiCond138
        CFI EndBlock cfiCond139
        CFI EndBlock cfiPicker140
//  843 //////////////////////////////////////////////1/16000000///////////////////////////////////////////////
//  844 
//  845 
//  846 
//  847 //////////////////////////////////////////////////////////////////////////////////////////
//  848 #pragma vector=TIMER2_COMPA_vect     //1 ěčëëčńĺęóíäŕ

        RSEG CODE:CODE:NOROOT(1)
//  849      __interrupt void TIMER2_COMPA_interrupt(void)
TIMER2_COMPA_interrupt:
        CFI Block cfiBlock141 Using cfiCommon2
        CFI Function TIMER2_COMPA_interrupt
//  850   {
        FUNCALL TIMER2_COMPA_interrupt, sending_ppp_pac
        LOCFRAME CSTACK, 19, STACK
        LOCFRAME RSTACK, 3, STACK
        FUNCALL TIMER2_COMPA_interrupt, sending_ppp_pac
        LOCFRAME CSTACK, 19, STACK
        LOCFRAME RSTACK, 3, STACK
        FUNCALL TIMER2_COMPA_interrupt, fun_state_md
        LOCFRAME CSTACK, 19, STACK
        LOCFRAME RSTACK, 3, STACK
        FUNCALL TIMER2_COMPA_interrupt, send_485_1
        LOCFRAME CSTACK, 19, STACK
        LOCFRAME RSTACK, 3, STACK
        FUNCALL TIMER2_COMPA_interrupt, send_485_2
        LOCFRAME CSTACK, 19, STACK
        LOCFRAME RSTACK, 3, STACK
        FUNCALL TIMER2_COMPA_interrupt, send_232_2
        LOCFRAME CSTACK, 19, STACK
        LOCFRAME RSTACK, 3, STACK
        RCALL	?Subroutine19
        CFI R16 Frame(CFA_Y, -19)
        CFI R17 Frame(CFA_Y, -18)
        CFI R18 Frame(CFA_Y, -17)
        CFI R19 Frame(CFA_Y, -16)
        CFI R20 Frame(CFA_Y, -15)
        CFI R21 Frame(CFA_Y, -14)
        CFI R22 Frame(CFA_Y, -13)
        CFI R23 Frame(CFA_Y, -12)
        CFI R0 Frame(CFA_Y, -11)
        CFI R1 Frame(CFA_Y, -10)
        CFI R2 Frame(CFA_Y, -9)
        CFI R3 Frame(CFA_Y, -8)
        CFI R30 Frame(CFA_Y, -7)
        CFI R31 Frame(CFA_Y, -6)
        CFI R24 Frame(CFA_Y, -5)
        CFI R25 Frame(CFA_Y, -4)
        CFI R26 Frame(CFA_Y, -3)
        CFI R27 Frame(CFA_Y, -2)
        CFI R4 Frame(CFA_Y, -1)
        CFI CFA_Y Y+19
??CrossCallReturnLabel_38:
        REQUIRE	?Register_R4_is_cg_reg
//  851   
//  852    unsigned char temp;
//  853     term.time_out_loop=0; 
        LDI	R16, 0
        LDI	R17, 0
        LDI	R30, LOW(term)
        LDI	R31, (term) >> 8
        RCALL	??Subroutine37_0
//  854     fl_wdt.from_timer2=1;
??CrossCallReturnLabel_80:
        RCALL	?Subroutine26
??CrossCallReturnLabel_54:
        ORI	R16, 0x20
        ST	Z, R16
//  855     
//  856     cnt_clr_wdt++;
        LDI	R26, LOW(Rs485_1)
        LDI	R27, (Rs485_1) >> 8
        MOVW	R31:R30, R27:R26
        LDD	R16, Z+56
        INC	R16
        STD	Z+56, R16
//  857   if (cnt_clr_wdt>=250)
        CPI	R16, 250
        BRCS	??TIMER2_COMPA_interrupt_0
//  858      {
//  859      cnt_clr_wdt=0;
        STD	Z+56, R17
//  860      fl_wdt.clr_wdt=1;
        RCALL	?Subroutine26
??CrossCallReturnLabel_55:
        ORI	R16, 0x01
        ST	Z, R16
//  861      cnt_flag_out++;
        MOVW	R31:R30, R27:R26
        LDD	R16, Z+57
        INC	R16
        STD	Z+57, R16
//  862      if (cnt_flag_out>=50)
        CPI	R16, 50
        BRCS	??TIMER2_COMPA_interrupt_0
//  863        {
//  864         cnt_flag_out=0;
        STD	Z+57, R17
//  865         fl_wdt.fl_out=1;
        RCALL	?Subroutine26
??CrossCallReturnLabel_56:
        ORI	R16, 0x02
        ST	Z, R16
//  866        } 
//  867       }
//  868     
//  869    
//  870     if(cnt_sec<DEF_CNT_SEC)cnt_sec++;
??TIMER2_COMPA_interrupt_0:
        LDI	R30, LOW(cnt_sec)
        LDI	R31, (cnt_sec) >> 8
        RCALL	?Subroutine35
??CrossCallReturnLabel_71:
        CPI	R16, 214
        LDI	R18, 3
        CPC	R17, R18
        BRCC	??CrossCallReturnLabel_175
        RCALL	?Subroutine63
??CrossCallReturnLabel_135:
        RCALL	?Subroutine90
//  871   
//  872   
//  873   
//  874     if(fl_cts_232.on==1)
??CrossCallReturnLabel_175:
        LDI	R30, LOW(fl_cts_232)
        LDI	R31, (fl_cts_232) >> 8
        LD	R16, Z
        SBRS	R16, 0
        RJMP	??TIMER2_COMPA_interrupt_1
//  875     {
//  876       if(fl_cts_232_ignor==TRUE)
        LDS	R16, fl_cts_232_ignor
        CPI	R16, 1
        BRNE	??CrossCallReturnLabel_146
//  877             {
//  878              fl_cts_232.on=0;
        RCALL	?Subroutine32
//  879              if(count_tx_ppp==0){S2_RD;UDR0=buf_tx_232[0];if(Regim==RG_DEBAG) UDR3=buf_tx_232[0];}
??CrossCallReturnLabel_216:
        BRNE	??TIMER2_COMPA_interrupt_2
        RCALL	?Subroutine62
??CrossCallReturnLabel_133:
        BRNE	??CrossCallReturnLabel_146
        RCALL	?Subroutine66
??CrossCallReturnLabel_142:
        RJMP	??CrossCallReturnLabel_146
//  880                 else sending_ppp_pac();
??TIMER2_COMPA_interrupt_2:
        RCALL	?Subroutine67
//  881         ///     return;!!!!!!!!!!!!!!!!!!!!!!!!!!!!!!!!!!!!!!!!!!
//  882              }
//  883       
//  884      // if ((PINE & CTS0)==0)  
//  885       if (PINE & CTS0)  
??CrossCallReturnLabel_146:
        SBIS	0x0C, 0x04
        RJMP	??TIMER2_COMPA_interrupt_3
//  886       {
//  887         cnt_cts_off=0;
        LDI	R16, 0
        LDI	R30, LOW(cnt_cts_off)
        LDI	R31, (cnt_cts_off) >> 8
        RCALL	??Subroutine37_0
//  888         fl_cts_232.on=0; 
??CrossCallReturnLabel_81:
        LDI	R30, LOW(fl_cts_232)
        LDI	R31, (fl_cts_232) >> 8
        RCALL	?Subroutine32
//  889         if(count_tx_ppp==0){S2_RD;UDR0=buf_tx_232[0];if(Regim==RG_DEBAG) UDR3=buf_tx_232[0];}
??CrossCallReturnLabel_217:
        BRNE	??TIMER2_COMPA_interrupt_4
        RCALL	?Subroutine62
??CrossCallReturnLabel_134:
        BRNE	??TIMER2_COMPA_interrupt_1
        RCALL	?Subroutine66
??CrossCallReturnLabel_143:
        RJMP	??TIMER2_COMPA_interrupt_1
//  890            else sending_ppp_pac(); 
??TIMER2_COMPA_interrupt_4:
        RCALL	?Subroutine67
??CrossCallReturnLabel_145:
        RJMP	??TIMER2_COMPA_interrupt_1
//  891        } 
//  892        else
//  893         {
//  894         cnt_cts_off++;
??TIMER2_COMPA_interrupt_3:
        LDI	R30, LOW(cnt_cts_off)
        LDI	R31, (cnt_cts_off) >> 8
        RCALL	?Subroutine29
//  895         if(cnt_cts_off>=10000)
??CrossCallReturnLabel_180:
        CPI	R16, 16
        SBCI	R17, 39
        BRCS	??TIMER2_COMPA_interrupt_1
//  896            {
//  897            cnt_cts_off=0;
        RCALL	?Subroutine37
//  898            event_modem=EVM_CTS_ERR;
??CrossCallReturnLabel_82:
        LDI	R16, 9
        STS	event_modem, R16
//  899            }
//  900         }
//  901     }
//  902   
//  903   
//  904    fun_state_md(); 
??TIMER2_COMPA_interrupt_1:
        CALL	fun_state_md
//  905  
//  906   
//  907   if(Buf1_rx_ppp.check_busy==TRUE)
        LDS	R16, (Buf1_rx_ppp + 334)
        CPI	R16, 1
        BRNE	??CrossCallReturnLabel_201
//  908      {
//  909       if(Buf1_rx_ppp.busy==FALSE)
        LDS	R16, (Buf1_rx_ppp + 333)
        TST	R16
        BRNE	??CrossCallReturnLabel_201
//  910       {
//  911       Buf1_rx_ppp.check_busy=FALSE;
        LDI	R16, 0
        STS	(Buf1_rx_ppp + 334), R16
//  912       temp=UDR0; 
        RCALL	?Subroutine64
//  913       UCSR0B=UCSR0B | RXEN;
//  914       UCSR0B=UCSR0B | RXCIE; 
//  915       }    
//  916      }  
//  917   
//  918   if(Buf2_rx_ppp.check_busy==TRUE)
??CrossCallReturnLabel_201:
        LDS	R16, (Buf2_rx_ppp + 334)
        CPI	R16, 1
        BRNE	??CrossCallReturnLabel_202
//  919      {
//  920       if(Buf2_rx_ppp.busy==FALSE)
        LDS	R16, (Buf2_rx_ppp + 333)
        TST	R16
        BRNE	??CrossCallReturnLabel_202
//  921       {
//  922       Buf2_rx_ppp.check_busy=FALSE;
        LDI	R16, 0
        STS	(Buf2_rx_ppp + 334), R16
//  923       temp=UDR0; 
        RCALL	?Subroutine64
//  924       UCSR0B=UCSR0B | RXEN;
//  925       UCSR0B=UCSR0B | RXCIE; 
//  926       }    
//  927      }   
//  928     
//  929    if (cnt_key_off==0)goto  next_step00;
??CrossCallReturnLabel_202:
        LDI	R30, LOW(cnt_key_off)
        LDI	R31, (cnt_key_off) >> 8
        RCALL	??Subroutine32_0
??CrossCallReturnLabel_230:
        BREQ	??TIMER2_COMPA_interrupt_5
//  930        cnt_key_off--;
        RCALL	?Subroutine27
//  931        if (cnt_key_off==0) CLR_PWRK;
??CrossCallReturnLabel_220:
        BRNE	??TIMER2_COMPA_interrupt_5
        CBI	0x05, 0x04
//  932   
//  933   next_step00:
//  934              
//  935              
//  936      if (At_com.cnt_tm_out==0)goto next_step0; 
??TIMER2_COMPA_interrupt_5:
        LDI	R30, LOW((At_com + 61))
        LDI	R31, HIGH((At_com + 61))
        RCALL	??Subroutine32_0
??CrossCallReturnLabel_231:
        BREQ	??TIMER2_COMPA_interrupt_6
//  937    {
//  938    At_com.cnt_tm_out--;
        RCALL	?Subroutine27
//  939    if(At_com.cnt_tm_out==0)
??CrossCallReturnLabel_221:
        BRNE	??TIMER2_COMPA_interrupt_6
//  940      {
//  941      UCSR0B=UCSR0B & ~RXEN;
        RCALL	?Subroutine65
//  942      UCSR0B=UCSR0B & ~RXCIE; 
//  943      At_com.cnt_rx_out=0;
??CrossCallReturnLabel_203:
        LDI	R16, 0
        LDI	R30, LOW((At_com + 65))
        LDI	R31, HIGH((At_com + 65))
        RCALL	??Subroutine37_0
//  944      fl_at_com.tm_out=1;
//  945      fl_at_com.rx_rec=0;
//  946      fl_at_com.rx_en=0;
//  947      fl_at_com.err=0;
//  948      fl_at_com.ok=0;
??CrossCallReturnLabel_83:
        LDI	R30, LOW(fl_at_com)
        LDI	R31, (fl_at_com) >> 8
        LD	R16, Z
        ANDI	R16, 0xCC
        ST	Z, R16
        ORI	R16, 0x04
        ST	Z, R16
//  949      }
//  950    }
//  951 
//  952 
//  953    
//  954    
//  955 next_step0:  
//  956 
//  957   if(At_com.cnt_rx_out==0)goto next_step1;
??TIMER2_COMPA_interrupt_6:
        LDI	R30, LOW((At_com + 65))
        LDI	R31, HIGH((At_com + 65))
        RCALL	??Subroutine32_0
??CrossCallReturnLabel_232:
        BREQ	??TIMER2_COMPA_interrupt_7
//  958     At_com.cnt_rx_out--;
        RCALL	?Subroutine27
//  959     if(At_com.cnt_rx_out==0)
??CrossCallReturnLabel_222:
        BRNE	??TIMER2_COMPA_interrupt_7
//  960     {
//  961      UCSR0B=UCSR0B & ~RXEN;
        RCALL	?Subroutine65
//  962      UCSR0B=UCSR0B & ~RXCIE;
//  963      fl_at_com.rx_rec=1; 
??CrossCallReturnLabel_204:
        LDI	R30, LOW(fl_at_com)
        LDI	R31, (fl_at_com) >> 8
        LD	R16, Z
        ORI	R16, 0x20
        ST	Z, R16
//  964      S2_OFF;
        CBI	0x08, 0x00
        CBI	0x08, 0x01
//  965     } //ń÷ĺň÷čę ěĺćáŕéňîâűé ďđîěĺćóňîę
//  966 next_step1:
//  967    
//  968     
//  969     
//  970   //!!!!!!!!!!!!!!!!!!!!!!!!!!!!!!!!!!!!!!!!!!!!!!!!!!!!!!!!!!!!!!!!!!!!!!!!!!!!!11
//  971     //îáđŕáîňęŕ ďî ďîđňó RS-485 ą1
//  972     if(Rs485_1.cnt_tm_pre_tx==0) goto  nxt_step2;
??TIMER2_COMPA_interrupt_7:
        MOVW	R31:R30, R27:R26
        LDD	R16, Z+4
        LDD	R17, Z+5
        OR	R16, R17
        BREQ	??TIMER2_COMPA_interrupt_8
//  973     Rs485_1.cnt_tm_pre_tx--;
        RCALL	?Subroutine44
//  974     //if(Rs485_1.cnt_tm_pre_tx==0) UCSR3B=UCSR3B | UDRIE;  // enable transmit 485_1 
//  975     if(Rs485_1.cnt_tm_pre_tx==0) send_485_1();  // enable transmit 485_1
??CrossCallReturnLabel_89:
        OR	R16, R17
        BRNE	??TIMER2_COMPA_interrupt_8
        CALL	send_485_1
//  976     
//  977   nxt_step2:
//  978                        
//  979                 if(Rs485_1.cnt_tm_out==0) goto nxt_step3;
??TIMER2_COMPA_interrupt_8:
        MOVW	R31:R30, R27:R26
        LDD	R16, Z+12
        LDD	R17, Z+13
        OR	R16, R17
        BREQ	??TIMER2_COMPA_interrupt_9
//  980                 Rs485_1.cnt_tm_out--;
        LDD	R16, Z+12
        RCALL	?Subroutine45
??CrossCallReturnLabel_91:
        STD	Z+12, R16
        STD	Z+13, R17
//  981                 if(Rs485_1.cnt_tm_out==0){
        OR	R16, R17
        BRNE	??TIMER2_COMPA_interrupt_9
//  982                                           S3_OFF;
        CBI	0x08, 0x04
        CBI	0x08, 0x05
//  983                                           UCSR3B =UCSR3B & ~(RXEN | RXCIE);
        RCALL	?Subroutine69
//  984                                           Rs485_1.cnt_bt_rx_tx=0;
??CrossCallReturnLabel_197:
        LDI	R16, 0
        ST	X+, R16
        ST	X, R16
        SBIW	R27:R26, 1
//  985                                           Rs485_1.cnt_tm_rx_out=0;
        STD	Z+8, R16
        STD	Z+9, R16
//  986                                           fl_485_1.rec=0;
//  987                                           fl_485_1.tm_out=1;
        LDD	R16, Z+58
        RCALL	?Subroutine71
??CrossCallReturnLabel_149:
        STD	Z+58, R16
//  988                                          }                              
//  989  nxt_step3:      
//  990           
//  991  
//  992                  if(Rs485_1.cnt_tm_rx_out==0) goto nxt_step4;
??TIMER2_COMPA_interrupt_9:
        LDD	R16, Z+8
        LDD	R17, Z+9
        OR	R16, R17
        BREQ	??CrossCallReturnLabel_198
//  993                     Rs485_1.cnt_tm_rx_out--;
        LDD	R16, Z+8
        RCALL	?Subroutine45
??CrossCallReturnLabel_92:
        STD	Z+8, R16
        STD	Z+9, R17
//  994                    if(Rs485_1.cnt_tm_rx_out==0)
        OR	R16, R17
        BRNE	??CrossCallReturnLabel_198
//  995                    {
//  996                      S3_OFF;
        CBI	0x08, 0x04
        CBI	0x08, 0x05
//  997                      fl_485_1.rec=1;
        LDD	R16, Z+58
        ORI	R16, 0x02
        STD	Z+58, R16
//  998                      Rs485_1.cnt_tm_out=0;
        RCALL	?Subroutine55
//  999                      fl_485_1.tm_out=0;  
??CrossCallReturnLabel_123:
        LDD	R16, Z+58
        ANDI	R16, 0xFB
        STD	Z+58, R16
// 1000                      UCSR3B =UCSR3B & ~(RXEN | RXCIE);
        RCALL	?Subroutine69
// 1001                     } 
// 1002  nxt_step4:                  
// 1003                 if(Rs485_1.cnt_tm_tx_out==0) goto lable_tm21;
??CrossCallReturnLabel_198:
        LDD	R16, Z+2
        LDD	R17, Z+3
        OR	R16, R17
        BREQ	??CrossCallReturnLabel_199
// 1004                 Rs485_1.cnt_tm_tx_out--;
        LDD	R16, Z+2
        RCALL	?Subroutine45
??CrossCallReturnLabel_93:
        STD	Z+2, R16
        STD	Z+3, R17
// 1005                 if(Rs485_1.cnt_tm_tx_out==1) {CLR_RTS1;} /*togle to receiv mode*/ 
        CPI	R16, 1
        SBCI	R17, 0
        BRNE	??CrossCallReturnLabel_107
        RCALL	?Subroutine46
// 1006                 if(Rs485_1.cnt_tm_tx_out==0){CLR_RTS1;S3_OFF;Rs485_1.cnt_tm_out=Rs485_1.vol_tm_out;UCSR3B =UCSR3B | RXEN | RXCIE;} // togle to receiv mode ;
??CrossCallReturnLabel_107:
        LDD	R16, Z+2
        LDD	R17, Z+3
        OR	R16, R17
        BRNE	??CrossCallReturnLabel_199
        RCALL	?Subroutine46
??CrossCallReturnLabel_108:
        RCALL	?Subroutine68
??CrossCallReturnLabel_147:
        RCALL	?Subroutine70
// 1007                 
// 1008  //EEEEEEEEEEEEEEEEEEEEEEEEEEEEEEEEEEEEEEEEEEEEEEEEEEEEEEEEEEEEEEEEEEEEEEEEEEEEEEEEEEEEEEEEEEEEEEEEEEEEEEEEEEEEEEEE                
// 1009  
// 1010   
// 1011                 
// 1012                 
// 1013   lable_tm21:               
// 1014  //!!!!!!!!!!!!!!!!!!!!!!!!!!!!!!!!!!!!!!!!!!!!!!!!!!!!!!!!!!!!!!!!!!!!!!!!!!!!!11
// 1015     //îáđŕáîňęŕ ďî ďîđňó RS-485 ą2
// 1016     if(Rs485_2.cnt_tm_pre_tx==0) goto  next_step2;
??CrossCallReturnLabel_199:
        LDD	R16, Z+22
        LDD	R17, Z+23
        OR	R16, R17
        BREQ	??TIMER2_COMPA_interrupt_10
// 1017     Rs485_2.cnt_tm_pre_tx--;
        RCALL	?Subroutine43
// 1018    // if(Rs485_2.cnt_tm_pre_tx==0) UCSR1B=UCSR1B | UDRIE;  // enable transmit 485_1 
// 1019      if(Rs485_2.cnt_tm_pre_tx==0) send_485_2();  // enable transmit 485_2
??CrossCallReturnLabel_218:
        BRNE	??TIMER2_COMPA_interrupt_10
        CALL	send_485_2
// 1020 
// 1021     
// 1022   next_step2:
// 1023                        
// 1024                 if(Rs485_2.cnt_tm_out==0) goto next_step3;
??TIMER2_COMPA_interrupt_10:
        MOVW	R31:R30, R27:R26
        LDD	R16, Z+30
        LDD	R17, Z+31
        OR	R16, R17
        BREQ	??TIMER2_COMPA_interrupt_11
// 1025                 Rs485_2.cnt_tm_out--;
        LDD	R16, Z+30
        RCALL	?Subroutine45
??CrossCallReturnLabel_94:
        STD	Z+30, R16
        STD	Z+31, R17
// 1026                 if(Rs485_2.cnt_tm_out==0){
        OR	R16, R17
        BRNE	??TIMER2_COMPA_interrupt_11
// 1027                                           S4_OFF;
        CBI	0x08, 0x02
        CBI	0x08, 0x03
// 1028                                           UCSR1B =UCSR1B & ~(RXEN | RXCIE);
        RCALL	?Subroutine74
// 1029                                           Rs485_2.cnt_bt_rx_tx=0;
??CrossCallReturnLabel_193:
        LDI	R16, 0
        STD	Z+18, R16
        STD	Z+19, R16
// 1030                                           Rs485_2.cnt_tm_rx_out=0;
        STD	Z+26, R16
        STD	Z+27, R16
// 1031                                           fl_485_2.rec=0;
// 1032                                           fl_485_2.tm_out=1;
        LDD	R16, Z+59
        RCALL	?Subroutine71
??CrossCallReturnLabel_150:
        STD	Z+59, R16
// 1033                                          }                              
// 1034  next_step3:      
// 1035           
// 1036  
// 1037                  if(Rs485_2.cnt_tm_rx_out==0) goto next_step4;
??TIMER2_COMPA_interrupt_11:
        LDD	R16, Z+26
        LDD	R17, Z+27
        OR	R16, R17
        BREQ	??CrossCallReturnLabel_194
// 1038                     Rs485_2.cnt_tm_rx_out--;
        LDD	R16, Z+26
        RCALL	?Subroutine45
??CrossCallReturnLabel_95:
        STD	Z+26, R16
        STD	Z+27, R17
// 1039                    if(Rs485_2.cnt_tm_rx_out==0)
        OR	R16, R17
        BRNE	??CrossCallReturnLabel_194
// 1040                    {
// 1041                      S4_OFF;
        CBI	0x08, 0x02
        CBI	0x08, 0x03
// 1042                      fl_485_2.rec=1;
        LDD	R16, Z+59
        ORI	R16, 0x02
        STD	Z+59, R16
// 1043                      Rs485_2.cnt_tm_out=0;
        LDI	R16, 0
        STD	Z+30, R16
        STD	Z+31, R16
// 1044                      fl_485_2.tm_out=0;  
        LDD	R16, Z+59
        ANDI	R16, 0xFB
        STD	Z+59, R16
// 1045                      UCSR1B =UCSR1B & ~(RXEN | RXCIE);
        RCALL	?Subroutine74
// 1046                     } 
// 1047  next_step4:                  
// 1048                 if(Rs485_2.cnt_tm_tx_out==0) goto lable_tm22;
??CrossCallReturnLabel_194:
        LDD	R16, Z+20
        LDD	R17, Z+21
        OR	R16, R17
        BREQ	??CrossCallReturnLabel_195
// 1049                 Rs485_2.cnt_tm_tx_out--;
        LDD	R16, Z+20
        RCALL	?Subroutine45
??CrossCallReturnLabel_96:
        STD	Z+20, R16
        STD	Z+21, R17
// 1050                 if(Rs485_2.cnt_tm_tx_out==1) {CLR_RTS3; } /*togle to receiv mode*/ 
        CPI	R16, 1
        SBCI	R17, 0
        BRNE	??TIMER2_COMPA_interrupt_12
        CBI	0x0B, 0x04
// 1051                 if(Rs485_2.cnt_tm_tx_out==0){CLR_RTS3;S4_OFF;Rs485_2.cnt_tm_out=Rs485_2.vol_tm_out;UCSR1B =UCSR1B | RXEN | RXCIE;} // togle to receiv mode ;
??TIMER2_COMPA_interrupt_12:
        LDD	R16, Z+20
        LDD	R17, Z+21
        OR	R16, R17
        BRNE	??CrossCallReturnLabel_195
        CBI	0x0B, 0x04
        RCALL	?Subroutine72
??CrossCallReturnLabel_153:
        RCALL	?Subroutine75
// 1052                 
// 1053  //EEEEEEEEEEEEEEEEEEEEEEEEEEEEEEEEEEEEEEEEEEEEEEEEEEEEEEEEEEEEEEEEEEEEEEEEEEEEEEEEEEEEEEEEEEEEEEEEEEEEEEEEEEEEEEEE              
// 1054                 
// 1055  
// 1056    lable_tm22:               
// 1057  //!!!!!!!!!!!!!!!!!!!!!!!!!!!!!!!!!!!!!!!!!!!!!!!!!!!!!!!!!!!!!!!!!!!!!!!!!!!!!11
// 1058     //îáđŕáîňęŕ ďî ďîđňó RS-232 ą2
// 1059     if(Rs232_2.cnt_tm_pre_tx==0) goto  nt_step2;
??CrossCallReturnLabel_195:
        LDD	R16, Z+40
        LDD	R17, Z+41
        OR	R16, R17
        BREQ	??TIMER2_COMPA_interrupt_13
// 1060     Rs232_2.cnt_tm_pre_tx--;
        LDD	R16, Z+40
        RCALL	?Subroutine45
??CrossCallReturnLabel_97:
        STD	Z+40, R16
        STD	Z+41, R17
// 1061   //  if(Rs232_2.cnt_tm_pre_tx==0) UCSR2B=UCSR2B | UDRIE;  // enable transmit 232_1 
// 1062     if(Rs232_2.cnt_tm_pre_tx==0) send_232_2();  // enable transmit 232_1 
        OR	R16, R17
        BRNE	??TIMER2_COMPA_interrupt_13
        CALL	send_232_2
// 1063   nt_step2:
// 1064                        
// 1065                 if(Rs232_2.cnt_tm_out==0) goto nt_step3;
??TIMER2_COMPA_interrupt_13:
        MOVW	R31:R30, R27:R26
        LDD	R16, Z+48
        LDD	R17, Z+49
        OR	R16, R17
        BREQ	??TIMER2_COMPA_interrupt_14
// 1066                 Rs232_2.cnt_tm_out--;
        LDD	R16, Z+48
        RCALL	?Subroutine45
??CrossCallReturnLabel_98:
        STD	Z+48, R16
        STD	Z+49, R17
// 1067                 if(Rs232_2.cnt_tm_out==0){
        OR	R16, R17
        BRNE	??TIMER2_COMPA_interrupt_14
// 1068                                        
// 1069                                           S5_OFF;
        CBI	0x08, 0x06
        CBI	0x08, 0x07
// 1070                                           UCSR2B =UCSR2B & ~(RXEN | RXCIE);
        RCALL	?Subroutine76
// 1071                                           Rs232_2.cnt_bt_rx_tx=0;
??CrossCallReturnLabel_189:
        LDI	R16, 0
        STD	Z+36, R16
        STD	Z+37, R16
// 1072                                           Rs232_2.cnt_tm_rx_out=0;
        STD	Z+44, R16
        STD	Z+45, R16
// 1073                                           fl_232_2.rec=0;
// 1074                                           fl_232_2.tm_out=1;
        LDD	R16, Z+60
        RCALL	?Subroutine71
??CrossCallReturnLabel_151:
        STD	Z+60, R16
// 1075                                          }                              
// 1076  nt_step3:      
// 1077           
// 1078  
// 1079                  if(Rs232_2.cnt_tm_rx_out==0) goto nt_step4;
??TIMER2_COMPA_interrupt_14:
        LDD	R16, Z+44
        LDD	R17, Z+45
        OR	R16, R17
        BREQ	??CrossCallReturnLabel_190
// 1080                     Rs232_2.cnt_tm_rx_out--;
        LDD	R16, Z+44
        RCALL	?Subroutine45
??CrossCallReturnLabel_99:
        STD	Z+44, R16
        STD	Z+45, R17
// 1081                    if(Rs232_2.cnt_tm_rx_out==0)
        OR	R16, R17
        BRNE	??CrossCallReturnLabel_190
// 1082                    {
// 1083                      S5_OFF;
        CBI	0x08, 0x06
        CBI	0x08, 0x07
// 1084                      fl_232_2.rec=1;
        LDD	R16, Z+60
        ORI	R16, 0x02
        STD	Z+60, R16
// 1085                      Rs232_2.cnt_tm_out=0;
        LDI	R16, 0
        STD	Z+48, R16
        STD	Z+49, R16
// 1086                      fl_232_2.tm_out=0;  
        LDD	R16, Z+60
        ANDI	R16, 0xFB
        STD	Z+60, R16
// 1087                      UCSR2B =UCSR2B & ~(RXEN | RXCIE);
        RCALL	?Subroutine76
// 1088                     } 
// 1089  nt_step4:                  
// 1090                 if(Rs232_2.cnt_tm_tx_out==0) goto lable_tm23;
??CrossCallReturnLabel_190:
        LDD	R16, Z+38
        LDD	R17, Z+39
        OR	R16, R17
        BREQ	??CrossCallReturnLabel_191
// 1091                 Rs232_2.cnt_tm_tx_out--;
        LDD	R16, Z+38
        RCALL	?Subroutine45
??CrossCallReturnLabel_100:
        STD	Z+38, R16
        STD	Z+39, R17
// 1092                 if(Rs232_2.cnt_tm_tx_out==1) {CLR_RTS2;} /*togle to receiv mode*/ 
        CPI	R16, 1
        SBCI	R17, 0
        BRNE	??CrossCallReturnLabel_77
        RCALL	?Subroutine36
// 1093                 if(Rs232_2.cnt_tm_tx_out==0){CLR_RTS2;S5_OFF;Rs232_2.cnt_tm_out=Rs232_2.vol_tm_out;UCSR2B =UCSR2B | RXEN | RXCIE;} // togle to receiv mode ;
??CrossCallReturnLabel_77:
        LDD	R16, Z+38
        LDD	R17, Z+39
        OR	R16, R17
        BRNE	??CrossCallReturnLabel_191
        RCALL	?Subroutine36
??CrossCallReturnLabel_78:
        RCALL	?Subroutine73
??CrossCallReturnLabel_155:
        RCALL	?Subroutine77
// 1094                 
// 1095  //EEEEEEEEEEEEEEEEEEEEEEEEEEEEEEEEEEEEEEEEEEEEEEEEEEEEEEEEEEEEEEEEEEEEEEEEEEEEEEEEEEEEEEEEEEEEEEEEEEEEEEEEEEEEEEEE                   
// 1096                 
// 1097   lable_tm23:
// 1098       ///ňŕéěĺđ đĺńňŕđňŕ LCP
// 1099     if(fl_lcp.lcp_tm_out_en==1)
??CrossCallReturnLabel_191:
        LDS	R16, fl_lcp
        SBRS	R16, 1
        RJMP	??CrossCallReturnLabel_65
// 1100        {                 
// 1101             if(cnt_lcp_tm_out==0)goto lable_tm24;  
        LDI	R30, LOW(cnt_lcp_tm_out)
        LDI	R31, (cnt_lcp_tm_out) >> 8
        RCALL	??Subroutine32_0
??CrossCallReturnLabel_233:
        BREQ	??CrossCallReturnLabel_65
// 1102             cnt_lcp_tm_out--;
        RCALL	?Subroutine27
// 1103             if(cnt_lcp_tm_out==0)fl_lcp.t0_pl=1;
??CrossCallReturnLabel_223:
        BRNE	??CrossCallReturnLabel_65
        LDI	R30, LOW(fl_lcp)
        LDI	R31, (fl_lcp) >> 8
        RCALL	?Subroutine33
// 1104             /*
// 1105                cnt_lcp_tm_out--;
// 1106                if(cnt_lcp_tm_out==0)
// 1107                   {
// 1108                   cnt_lcp_tm_out=VOL_LCP_TM_OUT;
// 1109                   if(cnt_rst_lcp==0)
// 1110                      {   
// 1111                       cnt_lcp_tm_out=vol_cnt_rst_lcp;
// 1112                       fl_lcp.t0_mi=1;
// 1113                      }
// 1114                      else 
// 1115                        {
// 1116                        cnt_rst_lcp--;
// 1117                        fl_lcp.t0_pl=1;       
// 1118                        } 
// 1119                   } 
// 1120             */
// 1121          
// 1122        }
// 1123   lable_tm24:;
// 1124  //////////////////////////////////////////
// 1125  
// 1126  ///ňŕéěĺđ đĺńňŕđňŕ PAP
// 1127     if(fl_pap.pap_tm_out_en==1)
??CrossCallReturnLabel_65:
        LDS	R16, fl_pap
        SBRS	R16, 1
        RJMP	??CrossCallReturnLabel_66
// 1128        {        
// 1129                if(cnt_pap_tm_out==0)goto lable_tm25;
        LDI	R30, LOW(cnt_pap_tm_out)
        LDI	R31, (cnt_pap_tm_out) >> 8
        RCALL	??Subroutine32_0
??CrossCallReturnLabel_234:
        BREQ	??CrossCallReturnLabel_66
// 1130                cnt_pap_tm_out--;
        RCALL	?Subroutine27
// 1131                if(cnt_pap_tm_out==0)fl_pap.t0_pl=1; 
??CrossCallReturnLabel_224:
        BRNE	??CrossCallReturnLabel_66
        LDI	R30, LOW(fl_pap)
        LDI	R31, (fl_pap) >> 8
        RCALL	?Subroutine33
// 1132          /*      
// 1133                  if(cnt_pap_tm_out==0)
// 1134                   {
// 1135                   cnt_pap_tm_out=VOL_PAP_TM_OUT;
// 1136                   if(cnt_rst_pap==0)
// 1137                      {   
// 1138                       cnt_pap_tm_out=vol_cnt_rst_pap;
// 1139                       fl_pap.t0_mi=1;
// 1140                      }
// 1141                      else 
// 1142                        {
// 1143                        cnt_rst_pap--;
// 1144                        fl_pap.t0_pl=1; 
// 1145                        } 
// 1146                   } 
// 1147        */
// 1148                  
// 1149        }
// 1150   lable_tm25: ;
// 1151  //////////////////////////////////////////
// 1152  
// 1153  ///ňŕéěĺđ đĺńňŕđňŕ IPCP
// 1154     if(fl_ipcp.ipcp_tm_out_en==1)
??CrossCallReturnLabel_66:
        LDS	R16, fl_ipcp
        SBRS	R16, 1
        RJMP	??CrossCallReturnLabel_67
// 1155        {                 
// 1156                
// 1157                if(cnt_ipcp_tm_out==0)goto lable_tm26;
        LDI	R30, LOW(cnt_ipcp_tm_out)
        LDI	R31, (cnt_ipcp_tm_out) >> 8
        RCALL	??Subroutine32_0
??CrossCallReturnLabel_235:
        BREQ	??CrossCallReturnLabel_67
// 1158                cnt_ipcp_tm_out--;
        RCALL	?Subroutine27
// 1159                if(cnt_ipcp_tm_out==0)fl_ipcp.t0_pl=1; 
??CrossCallReturnLabel_225:
        BRNE	??CrossCallReturnLabel_67
        LDI	R30, LOW(fl_ipcp)
        LDI	R31, (fl_ipcp) >> 8
        RCALL	?Subroutine33
// 1160               /* 
// 1161                cnt_ipcp_tm_out--;
// 1162                if(cnt_ipcp_tm_out==0)
// 1163                   {
// 1164                   cnt_ipcp_tm_out=VOL_IPCP_TM_OUT;
// 1165                   if(cnt_rst_ipcp==0)
// 1166                      {   
// 1167                       cnt_ipcp_tm_out=vol_cnt_rst_ipcp;
// 1168                       fl_ipcp.t0_mi=1;
// 1169                      }
// 1170                      else 
// 1171                        {  
// 1172                        cnt_rst_ipcp--;
// 1173                        fl_ipcp.t0_pl=1; 
// 1174                        } 
// 1175                   } */
// 1176        
// 1177        }
// 1178                 
// 1179   lable_tm26:
// 1180 
// 1181 
// 1182 
// 1183 //if (timer_vhod!=0)timer_vhod--;
// 1184 //if (timer_autovzat!=0)timer_autovzat--;
// 1185 
// 1186 
// 1187              if(tim_prihod_uhod==0) goto erty78;
??CrossCallReturnLabel_67:
        LDI	R30, LOW(tim_prihod_uhod)
        LDI	R31, (tim_prihod_uhod) >> 8
        RCALL	??Subroutine32_0
??CrossCallReturnLabel_236:
        BREQ	??TIMER2_COMPA_interrupt_15
// 1188              tim_prihod_uhod--;
        RCALL	?Subroutine27
// 1189              if(tim_prihod_uhod==0) 
??CrossCallReturnLabel_226:
        BRNE	??TIMER2_COMPA_interrupt_15
// 1190                  {
// 1191                   prihod_uhod=0;
        LDI	R16, 0
        STS	prihod_uhod, R16
// 1192                  if(nomer_tab !=254) bit_registr1=bit_registr1 | TABLETKA;   // ďîńëĺ ďđčâĺňńňâč˙ ňîëüęî çŕďóńęŕňü îőđŕííűé ďđîöĺńń
        LDS	R16, nomer_tab
        CPI	R16, 254
        BREQ	??TIMER2_COMPA_interrupt_16
        LDI	R30, LOW(bit_registr1)
        LDI	R31, (bit_registr1) >> 8
        LD	R16, Z
        ORI	R16, 0x08
        ST	Z, R16
// 1193                 // timer_samovzatia=0; //????
// 1194                  //flag_sam_sam=0; //????
// 1195                 // if( sost==4) dabl=0;
// 1196                //  TIFR=TIFR | 0x20;//????
// 1197                //  TIMSK=TIMSK | 0x20;   //????// ICR enable
// 1198                  TCH_O_ZERO;
??TIMER2_COMPA_interrupt_16:
        LDS	R16, 264
        ANDI	R16, 0xBF
        STS	264, R16
// 1199                  EIFR=EIFR   | 0x02;  
        SBI	0x1C, 0x01
// 1200                  EIMSK=EIMSK | 0x02;   // INT1 enable
        SBI	0x1D, 0x01
// 1201                  flag_arhiv_prihod=dabl;
        MOVW	R31:R30, R27:R26
        LDD	R16, Z+54
        STD	Z+55, R16
// 1202                 }
// 1203 
// 1204 erty78: 
// 1205              if(window_prihod_uhod==0) goto erty79;
??TIMER2_COMPA_interrupt_15:
        LDI	R30, LOW(window_prihod_uhod)
        LDI	R31, (window_prihod_uhod) >> 8
        RCALL	??Subroutine32_0
??CrossCallReturnLabel_237:
        BREQ	??TIMER2_COMPA_interrupt_17
// 1206              window_prihod_uhod--;
        RCALL	?Subroutine27
// 1207            //  if (window_prihod_uhod < 6000) PORTB=PORTB ^ 0x08;
// 1208             if(window_prihod_uhod==0) 
??CrossCallReturnLabel_227:
        BRNE	??TIMER2_COMPA_interrupt_17
// 1209                {
// 1210                 tim_prihod_uhod=3400;
        LDI	R16, 72
        LDI	R17, 13
        LDI	R30, LOW(tim_prihod_uhod)
        LDI	R31, (tim_prihod_uhod) >> 8
        RCALL	?Subroutine90
// 1211                 //TIMSK=TIMSK &~0x20;    //????// çŕďđĺňčňü ęëţ÷ íŕ ýňî âđĺě˙
// 1212                 EIMSK=EIMSK & ~ 0x02;    // disable myself
??CrossCallReturnLabel_176:
        CBI	0x1D, 0x01
// 1213                 if (podnos==1) {prihod_uhod=1;dabl=1;}    // ýňî ďđčőîä
        LDS	R16, podnos
        CPI	R16, 1
        BRNE	??TIMER2_COMPA_interrupt_18
        LDI	R16, 1
        RJMP	??TIMER2_COMPA_interrupt_19
// 1214                 if (podnos>1) {prihod_uhod=2; dabl=2;}    // ýňî óőîä
??TIMER2_COMPA_interrupt_18:
        CPI	R16, 2
        BRCS	??TIMER2_COMPA_interrupt_20
        LDI	R16, 2
??TIMER2_COMPA_interrupt_19:
        STS	prihod_uhod, R16
        MOVW	R31:R30, R27:R26
        STD	Z+54, R16
// 1215                podnos=0;
??TIMER2_COMPA_interrupt_20:
        LDI	R16, 0
        STS	podnos, R16
// 1216                }
// 1217     
// 1218     
// 1219 erty79: 
// 1220   
// 1221    if (glutch5 == 0 ) goto t_345;
??TIMER2_COMPA_interrupt_17:
        LDI	R30, LOW(glutch5)
        LDI	R31, (glutch5) >> 8
        RCALL	??Subroutine32_0
??CrossCallReturnLabel_238:
        BREQ	??TIMER2_COMPA_interrupt_21
// 1222                              glutch5--;
        RCALL	?Subroutine27
// 1223                     if(glutch5==0) prihod_uhod=4;               //  đĺćčě îćčäŕíč˙ äâîéíîăî íŕćŕňč˙
??CrossCallReturnLabel_228:
        BRNE	??TIMER2_COMPA_interrupt_21
        LDI	R16, 4
        STS	prihod_uhod, R16
// 1224                     
// 1225              t_345: ;      
// 1226     
// 1227  glutch++;  
??TIMER2_COMPA_interrupt_21:
        LDI	R30, LOW(glutch)
        LDI	R31, (glutch) >> 8
        RCALL	?Subroutine29
// 1228  if (glutch >4000) glutch=0;
??CrossCallReturnLabel_181:
        CPI	R16, 161
        SBCI	R17, 15
        BRCS	??CrossCallReturnLabel_84
        RCALL	?Subroutine37
// 1229     
// 1230 if (glutch6!=0)
??CrossCallReturnLabel_84:
        LDI	R30, LOW(glutch6)
        LDI	R31, (glutch6) >> 8
        RCALL	??Subroutine32_0
??CrossCallReturnLabel_239:
        BREQ	??TIMER2_COMPA_interrupt_22
// 1231  {
// 1232    glutch6--;
        RCALL	?Subroutine27
// 1233    if(glutch6==0) bit_registr1=bit_registr1 & ~BLOCK_TABLETKA; 
??CrossCallReturnLabel_229:
        BRNE	??TIMER2_COMPA_interrupt_22
        LDI	R30, LOW(bit_registr1)
        LDI	R31, (bit_registr1) >> 8
        LD	R16, Z
        ANDI	R16, 0xEF
        ST	Z, R16
// 1234  }
// 1235 
// 1236        }
??TIMER2_COMPA_interrupt_22:
        RJMP	?Subroutine85
        CFI EndBlock cfiBlock141

        RSEG CODE:CODE:NOROOT(1)
?Subroutine76:
        CFI Block cfiCond142 Using cfiCommon2
        CFI NoFunction
        CFI Conditional ??CrossCallReturnLabel_189
        CFI R16 Frame(CFA_Y, -19)
        CFI R17 Frame(CFA_Y, -18)
        CFI R18 Frame(CFA_Y, -17)
        CFI R19 Frame(CFA_Y, -16)
        CFI R20 Frame(CFA_Y, -15)
        CFI R21 Frame(CFA_Y, -14)
        CFI R22 Frame(CFA_Y, -13)
        CFI R23 Frame(CFA_Y, -12)
        CFI R0 Frame(CFA_Y, -11)
        CFI R1 Frame(CFA_Y, -10)
        CFI R2 Frame(CFA_Y, -9)
        CFI R3 Frame(CFA_Y, -8)
        CFI R30 Frame(CFA_Y, -7)
        CFI R31 Frame(CFA_Y, -6)
        CFI R24 Frame(CFA_Y, -5)
        CFI R25 Frame(CFA_Y, -4)
        CFI R26 Frame(CFA_Y, -3)
        CFI R27 Frame(CFA_Y, -2)
        CFI R4 Frame(CFA_Y, -1)
        CFI CFA_SP SP+6
        CFI CFA_Y Y+19
        CFI Block cfiCond143 Using cfiCommon2
        CFI (cfiCond143) NoFunction
        CFI (cfiCond143) Conditional ??CrossCallReturnLabel_190
        CFI (cfiCond143) R16 Frame(CFA_Y, -19)
        CFI (cfiCond143) R17 Frame(CFA_Y, -18)
        CFI (cfiCond143) R18 Frame(CFA_Y, -17)
        CFI (cfiCond143) R19 Frame(CFA_Y, -16)
        CFI (cfiCond143) R20 Frame(CFA_Y, -15)
        CFI (cfiCond143) R21 Frame(CFA_Y, -14)
        CFI (cfiCond143) R22 Frame(CFA_Y, -13)
        CFI (cfiCond143) R23 Frame(CFA_Y, -12)
        CFI (cfiCond143) R0 Frame(CFA_Y, -11)
        CFI (cfiCond143) R1 Frame(CFA_Y, -10)
        CFI (cfiCond143) R2 Frame(CFA_Y, -9)
        CFI (cfiCond143) R3 Frame(CFA_Y, -8)
        CFI (cfiCond143) R30 Frame(CFA_Y, -7)
        CFI (cfiCond143) R31 Frame(CFA_Y, -6)
        CFI (cfiCond143) R24 Frame(CFA_Y, -5)
        CFI (cfiCond143) R25 Frame(CFA_Y, -4)
        CFI (cfiCond143) R26 Frame(CFA_Y, -3)
        CFI (cfiCond143) R27 Frame(CFA_Y, -2)
        CFI (cfiCond143) R4 Frame(CFA_Y, -1)
        CFI (cfiCond143) CFA_SP SP+6
        CFI (cfiCond143) CFA_Y Y+19
        CFI Block cfiPicker144 Using cfiCommon1
        CFI (cfiPicker144) NoFunction
        CFI (cfiPicker144) Picker
        LDS	R16, 209
        ANDI	R16, 0x6F
        CFI EndBlock cfiCond142
        CFI EndBlock cfiCond143
        CFI EndBlock cfiPicker144
        REQUIRE ?Subroutine92
        ;		// Fall through to label ?Subroutine92

        RSEG CODE:CODE:NOROOT(1)
?Subroutine92:
        CFI Block cfiCond145 Using cfiCommon2
        CFI NoFunction
        CFI Conditional ??CrossCallReturnLabel_189
        CFI R16 Frame(CFA_Y, -19)
        CFI R17 Frame(CFA_Y, -18)
        CFI R18 Frame(CFA_Y, -17)
        CFI R19 Frame(CFA_Y, -16)
        CFI R20 Frame(CFA_Y, -15)
        CFI R21 Frame(CFA_Y, -14)
        CFI R22 Frame(CFA_Y, -13)
        CFI R23 Frame(CFA_Y, -12)
        CFI R0 Frame(CFA_Y, -11)
        CFI R1 Frame(CFA_Y, -10)
        CFI R2 Frame(CFA_Y, -9)
        CFI R3 Frame(CFA_Y, -8)
        CFI R30 Frame(CFA_Y, -7)
        CFI R31 Frame(CFA_Y, -6)
        CFI R24 Frame(CFA_Y, -5)
        CFI R25 Frame(CFA_Y, -4)
        CFI R26 Frame(CFA_Y, -3)
        CFI R27 Frame(CFA_Y, -2)
        CFI R4 Frame(CFA_Y, -1)
        CFI CFA_SP SP+6
        CFI CFA_Y Y+19
        CFI Block cfiCond146 Using cfiCommon2
        CFI (cfiCond146) NoFunction
        CFI (cfiCond146) Conditional ??CrossCallReturnLabel_190
        CFI (cfiCond146) R16 Frame(CFA_Y, -19)
        CFI (cfiCond146) R17 Frame(CFA_Y, -18)
        CFI (cfiCond146) R18 Frame(CFA_Y, -17)
        CFI (cfiCond146) R19 Frame(CFA_Y, -16)
        CFI (cfiCond146) R20 Frame(CFA_Y, -15)
        CFI (cfiCond146) R21 Frame(CFA_Y, -14)
        CFI (cfiCond146) R22 Frame(CFA_Y, -13)
        CFI (cfiCond146) R23 Frame(CFA_Y, -12)
        CFI (cfiCond146) R0 Frame(CFA_Y, -11)
        CFI (cfiCond146) R1 Frame(CFA_Y, -10)
        CFI (cfiCond146) R2 Frame(CFA_Y, -9)
        CFI (cfiCond146) R3 Frame(CFA_Y, -8)
        CFI (cfiCond146) R30 Frame(CFA_Y, -7)
        CFI (cfiCond146) R31 Frame(CFA_Y, -6)
        CFI (cfiCond146) R24 Frame(CFA_Y, -5)
        CFI (cfiCond146) R25 Frame(CFA_Y, -4)
        CFI (cfiCond146) R26 Frame(CFA_Y, -3)
        CFI (cfiCond146) R27 Frame(CFA_Y, -2)
        CFI (cfiCond146) R4 Frame(CFA_Y, -1)
        CFI (cfiCond146) CFA_SP SP+6
        CFI (cfiCond146) CFA_Y Y+19
        CFI Block cfiCond147 Using cfiCommon2
        CFI (cfiCond147) NoFunction
        CFI (cfiCond147) Conditional ??CrossCallReturnLabel_191
        CFI (cfiCond147) R16 Frame(CFA_Y, -19)
        CFI (cfiCond147) R17 Frame(CFA_Y, -18)
        CFI (cfiCond147) R18 Frame(CFA_Y, -17)
        CFI (cfiCond147) R19 Frame(CFA_Y, -16)
        CFI (cfiCond147) R20 Frame(CFA_Y, -15)
        CFI (cfiCond147) R21 Frame(CFA_Y, -14)
        CFI (cfiCond147) R22 Frame(CFA_Y, -13)
        CFI (cfiCond147) R23 Frame(CFA_Y, -12)
        CFI (cfiCond147) R0 Frame(CFA_Y, -11)
        CFI (cfiCond147) R1 Frame(CFA_Y, -10)
        CFI (cfiCond147) R2 Frame(CFA_Y, -9)
        CFI (cfiCond147) R3 Frame(CFA_Y, -8)
        CFI (cfiCond147) R30 Frame(CFA_Y, -7)
        CFI (cfiCond147) R31 Frame(CFA_Y, -6)
        CFI (cfiCond147) R24 Frame(CFA_Y, -5)
        CFI (cfiCond147) R25 Frame(CFA_Y, -4)
        CFI (cfiCond147) R26 Frame(CFA_Y, -3)
        CFI (cfiCond147) R27 Frame(CFA_Y, -2)
        CFI (cfiCond147) R4 Frame(CFA_Y, -1)
        CFI (cfiCond147) CFA_SP SP+6
        CFI (cfiCond147) CFA_Y Y+19
        CFI Block cfiCond148 Using cfiCommon2
        CFI (cfiCond148) NoFunction
        CFI (cfiCond148) Conditional ??CrossCallReturnLabel_192
        CFI (cfiCond148) R16 Frame(CFA_Y, -7)
        CFI (cfiCond148) R17 Frame(CFA_Y, -6)
        CFI (cfiCond148) R18 Frame(CFA_Y, -5)
        CFI (cfiCond148) R30 Frame(CFA_Y, -4)
        CFI (cfiCond148) R31 Frame(CFA_Y, -3)
        CFI (cfiCond148) R26 Frame(CFA_Y, -2)
        CFI (cfiCond148) R27 Frame(CFA_Y, -1)
        CFI (cfiCond148) CFA_SP SP+6
        CFI (cfiCond148) CFA_Y Y+7
        CFI Block cfiPicker149 Using cfiCommon1
        CFI (cfiPicker149) NoFunction
        CFI (cfiPicker149) Picker
        STS	209, R16
        RET
        CFI EndBlock cfiCond145
        CFI EndBlock cfiCond146
        CFI EndBlock cfiCond147
        CFI EndBlock cfiCond148
        CFI EndBlock cfiPicker149

        RSEG CODE:CODE:NOROOT(1)
?Subroutine74:
        CFI Block cfiCond150 Using cfiCommon2
        CFI NoFunction
        CFI Conditional ??CrossCallReturnLabel_193
        CFI R16 Frame(CFA_Y, -19)
        CFI R17 Frame(CFA_Y, -18)
        CFI R18 Frame(CFA_Y, -17)
        CFI R19 Frame(CFA_Y, -16)
        CFI R20 Frame(CFA_Y, -15)
        CFI R21 Frame(CFA_Y, -14)
        CFI R22 Frame(CFA_Y, -13)
        CFI R23 Frame(CFA_Y, -12)
        CFI R0 Frame(CFA_Y, -11)
        CFI R1 Frame(CFA_Y, -10)
        CFI R2 Frame(CFA_Y, -9)
        CFI R3 Frame(CFA_Y, -8)
        CFI R30 Frame(CFA_Y, -7)
        CFI R31 Frame(CFA_Y, -6)
        CFI R24 Frame(CFA_Y, -5)
        CFI R25 Frame(CFA_Y, -4)
        CFI R26 Frame(CFA_Y, -3)
        CFI R27 Frame(CFA_Y, -2)
        CFI R4 Frame(CFA_Y, -1)
        CFI CFA_SP SP+6
        CFI CFA_Y Y+19
        CFI Block cfiCond151 Using cfiCommon2
        CFI (cfiCond151) NoFunction
        CFI (cfiCond151) Conditional ??CrossCallReturnLabel_194
        CFI (cfiCond151) R16 Frame(CFA_Y, -19)
        CFI (cfiCond151) R17 Frame(CFA_Y, -18)
        CFI (cfiCond151) R18 Frame(CFA_Y, -17)
        CFI (cfiCond151) R19 Frame(CFA_Y, -16)
        CFI (cfiCond151) R20 Frame(CFA_Y, -15)
        CFI (cfiCond151) R21 Frame(CFA_Y, -14)
        CFI (cfiCond151) R22 Frame(CFA_Y, -13)
        CFI (cfiCond151) R23 Frame(CFA_Y, -12)
        CFI (cfiCond151) R0 Frame(CFA_Y, -11)
        CFI (cfiCond151) R1 Frame(CFA_Y, -10)
        CFI (cfiCond151) R2 Frame(CFA_Y, -9)
        CFI (cfiCond151) R3 Frame(CFA_Y, -8)
        CFI (cfiCond151) R30 Frame(CFA_Y, -7)
        CFI (cfiCond151) R31 Frame(CFA_Y, -6)
        CFI (cfiCond151) R24 Frame(CFA_Y, -5)
        CFI (cfiCond151) R25 Frame(CFA_Y, -4)
        CFI (cfiCond151) R26 Frame(CFA_Y, -3)
        CFI (cfiCond151) R27 Frame(CFA_Y, -2)
        CFI (cfiCond151) R4 Frame(CFA_Y, -1)
        CFI (cfiCond151) CFA_SP SP+6
        CFI (cfiCond151) CFA_Y Y+19
        CFI Block cfiPicker152 Using cfiCommon1
        CFI (cfiPicker152) NoFunction
        CFI (cfiPicker152) Picker
        LDS	R16, 201
        ANDI	R16, 0x6F
        CFI EndBlock cfiCond150
        CFI EndBlock cfiCond151
        CFI EndBlock cfiPicker152
        REQUIRE ?Subroutine93
        ;		// Fall through to label ?Subroutine93

        RSEG CODE:CODE:NOROOT(1)
?Subroutine93:
        CFI Block cfiCond153 Using cfiCommon2
        CFI NoFunction
        CFI Conditional ??CrossCallReturnLabel_193
        CFI R16 Frame(CFA_Y, -19)
        CFI R17 Frame(CFA_Y, -18)
        CFI R18 Frame(CFA_Y, -17)
        CFI R19 Frame(CFA_Y, -16)
        CFI R20 Frame(CFA_Y, -15)
        CFI R21 Frame(CFA_Y, -14)
        CFI R22 Frame(CFA_Y, -13)
        CFI R23 Frame(CFA_Y, -12)
        CFI R0 Frame(CFA_Y, -11)
        CFI R1 Frame(CFA_Y, -10)
        CFI R2 Frame(CFA_Y, -9)
        CFI R3 Frame(CFA_Y, -8)
        CFI R30 Frame(CFA_Y, -7)
        CFI R31 Frame(CFA_Y, -6)
        CFI R24 Frame(CFA_Y, -5)
        CFI R25 Frame(CFA_Y, -4)
        CFI R26 Frame(CFA_Y, -3)
        CFI R27 Frame(CFA_Y, -2)
        CFI R4 Frame(CFA_Y, -1)
        CFI CFA_SP SP+6
        CFI CFA_Y Y+19
        CFI Block cfiCond154 Using cfiCommon2
        CFI (cfiCond154) NoFunction
        CFI (cfiCond154) Conditional ??CrossCallReturnLabel_194
        CFI (cfiCond154) R16 Frame(CFA_Y, -19)
        CFI (cfiCond154) R17 Frame(CFA_Y, -18)
        CFI (cfiCond154) R18 Frame(CFA_Y, -17)
        CFI (cfiCond154) R19 Frame(CFA_Y, -16)
        CFI (cfiCond154) R20 Frame(CFA_Y, -15)
        CFI (cfiCond154) R21 Frame(CFA_Y, -14)
        CFI (cfiCond154) R22 Frame(CFA_Y, -13)
        CFI (cfiCond154) R23 Frame(CFA_Y, -12)
        CFI (cfiCond154) R0 Frame(CFA_Y, -11)
        CFI (cfiCond154) R1 Frame(CFA_Y, -10)
        CFI (cfiCond154) R2 Frame(CFA_Y, -9)
        CFI (cfiCond154) R3 Frame(CFA_Y, -8)
        CFI (cfiCond154) R30 Frame(CFA_Y, -7)
        CFI (cfiCond154) R31 Frame(CFA_Y, -6)
        CFI (cfiCond154) R24 Frame(CFA_Y, -5)
        CFI (cfiCond154) R25 Frame(CFA_Y, -4)
        CFI (cfiCond154) R26 Frame(CFA_Y, -3)
        CFI (cfiCond154) R27 Frame(CFA_Y, -2)
        CFI (cfiCond154) R4 Frame(CFA_Y, -1)
        CFI (cfiCond154) CFA_SP SP+6
        CFI (cfiCond154) CFA_Y Y+19
        CFI Block cfiCond155 Using cfiCommon2
        CFI (cfiCond155) NoFunction
        CFI (cfiCond155) Conditional ??CrossCallReturnLabel_195
        CFI (cfiCond155) R16 Frame(CFA_Y, -19)
        CFI (cfiCond155) R17 Frame(CFA_Y, -18)
        CFI (cfiCond155) R18 Frame(CFA_Y, -17)
        CFI (cfiCond155) R19 Frame(CFA_Y, -16)
        CFI (cfiCond155) R20 Frame(CFA_Y, -15)
        CFI (cfiCond155) R21 Frame(CFA_Y, -14)
        CFI (cfiCond155) R22 Frame(CFA_Y, -13)
        CFI (cfiCond155) R23 Frame(CFA_Y, -12)
        CFI (cfiCond155) R0 Frame(CFA_Y, -11)
        CFI (cfiCond155) R1 Frame(CFA_Y, -10)
        CFI (cfiCond155) R2 Frame(CFA_Y, -9)
        CFI (cfiCond155) R3 Frame(CFA_Y, -8)
        CFI (cfiCond155) R30 Frame(CFA_Y, -7)
        CFI (cfiCond155) R31 Frame(CFA_Y, -6)
        CFI (cfiCond155) R24 Frame(CFA_Y, -5)
        CFI (cfiCond155) R25 Frame(CFA_Y, -4)
        CFI (cfiCond155) R26 Frame(CFA_Y, -3)
        CFI (cfiCond155) R27 Frame(CFA_Y, -2)
        CFI (cfiCond155) R4 Frame(CFA_Y, -1)
        CFI (cfiCond155) CFA_SP SP+6
        CFI (cfiCond155) CFA_Y Y+19
        CFI Block cfiCond156 Using cfiCommon2
        CFI (cfiCond156) NoFunction
        CFI (cfiCond156) Conditional ??CrossCallReturnLabel_196
        CFI (cfiCond156) R16 Frame(CFA_Y, -7)
        CFI (cfiCond156) R17 Frame(CFA_Y, -6)
        CFI (cfiCond156) R18 Frame(CFA_Y, -5)
        CFI (cfiCond156) R30 Frame(CFA_Y, -4)
        CFI (cfiCond156) R31 Frame(CFA_Y, -3)
        CFI (cfiCond156) R26 Frame(CFA_Y, -2)
        CFI (cfiCond156) R27 Frame(CFA_Y, -1)
        CFI (cfiCond156) CFA_SP SP+6
        CFI (cfiCond156) CFA_Y Y+7
        CFI Block cfiPicker157 Using cfiCommon1
        CFI (cfiPicker157) NoFunction
        CFI (cfiPicker157) Picker
        STS	201, R16
        RET
        CFI EndBlock cfiCond153
        CFI EndBlock cfiCond154
        CFI EndBlock cfiCond155
        CFI EndBlock cfiCond156
        CFI EndBlock cfiPicker157

        RSEG CODE:CODE:NOROOT(1)
?Subroutine69:
        CFI Block cfiCond158 Using cfiCommon2
        CFI NoFunction
        CFI Conditional ??CrossCallReturnLabel_197
        CFI R16 Frame(CFA_Y, -19)
        CFI R17 Frame(CFA_Y, -18)
        CFI R18 Frame(CFA_Y, -17)
        CFI R19 Frame(CFA_Y, -16)
        CFI R20 Frame(CFA_Y, -15)
        CFI R21 Frame(CFA_Y, -14)
        CFI R22 Frame(CFA_Y, -13)
        CFI R23 Frame(CFA_Y, -12)
        CFI R0 Frame(CFA_Y, -11)
        CFI R1 Frame(CFA_Y, -10)
        CFI R2 Frame(CFA_Y, -9)
        CFI R3 Frame(CFA_Y, -8)
        CFI R30 Frame(CFA_Y, -7)
        CFI R31 Frame(CFA_Y, -6)
        CFI R24 Frame(CFA_Y, -5)
        CFI R25 Frame(CFA_Y, -4)
        CFI R26 Frame(CFA_Y, -3)
        CFI R27 Frame(CFA_Y, -2)
        CFI R4 Frame(CFA_Y, -1)
        CFI CFA_SP SP+6
        CFI CFA_Y Y+19
        CFI Block cfiCond159 Using cfiCommon2
        CFI (cfiCond159) NoFunction
        CFI (cfiCond159) Conditional ??CrossCallReturnLabel_198
        CFI (cfiCond159) R16 Frame(CFA_Y, -19)
        CFI (cfiCond159) R17 Frame(CFA_Y, -18)
        CFI (cfiCond159) R18 Frame(CFA_Y, -17)
        CFI (cfiCond159) R19 Frame(CFA_Y, -16)
        CFI (cfiCond159) R20 Frame(CFA_Y, -15)
        CFI (cfiCond159) R21 Frame(CFA_Y, -14)
        CFI (cfiCond159) R22 Frame(CFA_Y, -13)
        CFI (cfiCond159) R23 Frame(CFA_Y, -12)
        CFI (cfiCond159) R0 Frame(CFA_Y, -11)
        CFI (cfiCond159) R1 Frame(CFA_Y, -10)
        CFI (cfiCond159) R2 Frame(CFA_Y, -9)
        CFI (cfiCond159) R3 Frame(CFA_Y, -8)
        CFI (cfiCond159) R30 Frame(CFA_Y, -7)
        CFI (cfiCond159) R31 Frame(CFA_Y, -6)
        CFI (cfiCond159) R24 Frame(CFA_Y, -5)
        CFI (cfiCond159) R25 Frame(CFA_Y, -4)
        CFI (cfiCond159) R26 Frame(CFA_Y, -3)
        CFI (cfiCond159) R27 Frame(CFA_Y, -2)
        CFI (cfiCond159) R4 Frame(CFA_Y, -1)
        CFI (cfiCond159) CFA_SP SP+6
        CFI (cfiCond159) CFA_Y Y+19
        CFI Block cfiPicker160 Using cfiCommon1
        CFI (cfiPicker160) NoFunction
        CFI (cfiPicker160) Picker
        LDS	R16, 305
        ANDI	R16, 0x6F
        CFI EndBlock cfiCond158
        CFI EndBlock cfiCond159
        CFI EndBlock cfiPicker160
        REQUIRE ?Subroutine94
        ;		// Fall through to label ?Subroutine94

        RSEG CODE:CODE:NOROOT(1)
?Subroutine94:
        CFI Block cfiCond161 Using cfiCommon2
        CFI NoFunction
        CFI Conditional ??CrossCallReturnLabel_197
        CFI R16 Frame(CFA_Y, -19)
        CFI R17 Frame(CFA_Y, -18)
        CFI R18 Frame(CFA_Y, -17)
        CFI R19 Frame(CFA_Y, -16)
        CFI R20 Frame(CFA_Y, -15)
        CFI R21 Frame(CFA_Y, -14)
        CFI R22 Frame(CFA_Y, -13)
        CFI R23 Frame(CFA_Y, -12)
        CFI R0 Frame(CFA_Y, -11)
        CFI R1 Frame(CFA_Y, -10)
        CFI R2 Frame(CFA_Y, -9)
        CFI R3 Frame(CFA_Y, -8)
        CFI R30 Frame(CFA_Y, -7)
        CFI R31 Frame(CFA_Y, -6)
        CFI R24 Frame(CFA_Y, -5)
        CFI R25 Frame(CFA_Y, -4)
        CFI R26 Frame(CFA_Y, -3)
        CFI R27 Frame(CFA_Y, -2)
        CFI R4 Frame(CFA_Y, -1)
        CFI CFA_SP SP+6
        CFI CFA_Y Y+19
        CFI Block cfiCond162 Using cfiCommon2
        CFI (cfiCond162) NoFunction
        CFI (cfiCond162) Conditional ??CrossCallReturnLabel_198
        CFI (cfiCond162) R16 Frame(CFA_Y, -19)
        CFI (cfiCond162) R17 Frame(CFA_Y, -18)
        CFI (cfiCond162) R18 Frame(CFA_Y, -17)
        CFI (cfiCond162) R19 Frame(CFA_Y, -16)
        CFI (cfiCond162) R20 Frame(CFA_Y, -15)
        CFI (cfiCond162) R21 Frame(CFA_Y, -14)
        CFI (cfiCond162) R22 Frame(CFA_Y, -13)
        CFI (cfiCond162) R23 Frame(CFA_Y, -12)
        CFI (cfiCond162) R0 Frame(CFA_Y, -11)
        CFI (cfiCond162) R1 Frame(CFA_Y, -10)
        CFI (cfiCond162) R2 Frame(CFA_Y, -9)
        CFI (cfiCond162) R3 Frame(CFA_Y, -8)
        CFI (cfiCond162) R30 Frame(CFA_Y, -7)
        CFI (cfiCond162) R31 Frame(CFA_Y, -6)
        CFI (cfiCond162) R24 Frame(CFA_Y, -5)
        CFI (cfiCond162) R25 Frame(CFA_Y, -4)
        CFI (cfiCond162) R26 Frame(CFA_Y, -3)
        CFI (cfiCond162) R27 Frame(CFA_Y, -2)
        CFI (cfiCond162) R4 Frame(CFA_Y, -1)
        CFI (cfiCond162) CFA_SP SP+6
        CFI (cfiCond162) CFA_Y Y+19
        CFI Block cfiCond163 Using cfiCommon2
        CFI (cfiCond163) NoFunction
        CFI (cfiCond163) Conditional ??CrossCallReturnLabel_199
        CFI (cfiCond163) R16 Frame(CFA_Y, -19)
        CFI (cfiCond163) R17 Frame(CFA_Y, -18)
        CFI (cfiCond163) R18 Frame(CFA_Y, -17)
        CFI (cfiCond163) R19 Frame(CFA_Y, -16)
        CFI (cfiCond163) R20 Frame(CFA_Y, -15)
        CFI (cfiCond163) R21 Frame(CFA_Y, -14)
        CFI (cfiCond163) R22 Frame(CFA_Y, -13)
        CFI (cfiCond163) R23 Frame(CFA_Y, -12)
        CFI (cfiCond163) R0 Frame(CFA_Y, -11)
        CFI (cfiCond163) R1 Frame(CFA_Y, -10)
        CFI (cfiCond163) R2 Frame(CFA_Y, -9)
        CFI (cfiCond163) R3 Frame(CFA_Y, -8)
        CFI (cfiCond163) R30 Frame(CFA_Y, -7)
        CFI (cfiCond163) R31 Frame(CFA_Y, -6)
        CFI (cfiCond163) R24 Frame(CFA_Y, -5)
        CFI (cfiCond163) R25 Frame(CFA_Y, -4)
        CFI (cfiCond163) R26 Frame(CFA_Y, -3)
        CFI (cfiCond163) R27 Frame(CFA_Y, -2)
        CFI (cfiCond163) R4 Frame(CFA_Y, -1)
        CFI (cfiCond163) CFA_SP SP+6
        CFI (cfiCond163) CFA_Y Y+19
        CFI Block cfiCond164 Using cfiCommon2
        CFI (cfiCond164) NoFunction
        CFI (cfiCond164) Conditional ??CrossCallReturnLabel_200
        CFI (cfiCond164) R16 Frame(CFA_Y, -7)
        CFI (cfiCond164) R17 Frame(CFA_Y, -6)
        CFI (cfiCond164) R18 Frame(CFA_Y, -5)
        CFI (cfiCond164) R30 Frame(CFA_Y, -4)
        CFI (cfiCond164) R31 Frame(CFA_Y, -3)
        CFI (cfiCond164) R26 Frame(CFA_Y, -2)
        CFI (cfiCond164) R27 Frame(CFA_Y, -1)
        CFI (cfiCond164) CFA_SP SP+6
        CFI (cfiCond164) CFA_Y Y+7
        CFI Block cfiPicker165 Using cfiCommon1
        CFI (cfiPicker165) NoFunction
        CFI (cfiPicker165) Picker
        STS	305, R16
        RET
        CFI EndBlock cfiCond161
        CFI EndBlock cfiCond162
        CFI EndBlock cfiCond163
        CFI EndBlock cfiCond164
        CFI EndBlock cfiPicker165

        RSEG CODE:CODE:NOROOT(1)
?Subroutine66:
        CFI Block cfiCond166 Using cfiCommon2
        CFI NoFunction
        CFI Conditional ??CrossCallReturnLabel_142
        CFI R16 Frame(CFA_Y, -19)
        CFI R17 Frame(CFA_Y, -18)
        CFI R18 Frame(CFA_Y, -17)
        CFI R19 Frame(CFA_Y, -16)
        CFI R20 Frame(CFA_Y, -15)
        CFI R21 Frame(CFA_Y, -14)
        CFI R22 Frame(CFA_Y, -13)
        CFI R23 Frame(CFA_Y, -12)
        CFI R0 Frame(CFA_Y, -11)
        CFI R1 Frame(CFA_Y, -10)
        CFI R2 Frame(CFA_Y, -9)
        CFI R3 Frame(CFA_Y, -8)
        CFI R30 Frame(CFA_Y, -7)
        CFI R31 Frame(CFA_Y, -6)
        CFI R24 Frame(CFA_Y, -5)
        CFI R25 Frame(CFA_Y, -4)
        CFI R26 Frame(CFA_Y, -3)
        CFI R27 Frame(CFA_Y, -2)
        CFI R4 Frame(CFA_Y, -1)
        CFI CFA_SP SP+6
        CFI CFA_Y Y+19
        CFI Block cfiCond167 Using cfiCommon2
        CFI (cfiCond167) NoFunction
        CFI (cfiCond167) Conditional ??CrossCallReturnLabel_143
        CFI (cfiCond167) R16 Frame(CFA_Y, -19)
        CFI (cfiCond167) R17 Frame(CFA_Y, -18)
        CFI (cfiCond167) R18 Frame(CFA_Y, -17)
        CFI (cfiCond167) R19 Frame(CFA_Y, -16)
        CFI (cfiCond167) R20 Frame(CFA_Y, -15)
        CFI (cfiCond167) R21 Frame(CFA_Y, -14)
        CFI (cfiCond167) R22 Frame(CFA_Y, -13)
        CFI (cfiCond167) R23 Frame(CFA_Y, -12)
        CFI (cfiCond167) R0 Frame(CFA_Y, -11)
        CFI (cfiCond167) R1 Frame(CFA_Y, -10)
        CFI (cfiCond167) R2 Frame(CFA_Y, -9)
        CFI (cfiCond167) R3 Frame(CFA_Y, -8)
        CFI (cfiCond167) R30 Frame(CFA_Y, -7)
        CFI (cfiCond167) R31 Frame(CFA_Y, -6)
        CFI (cfiCond167) R24 Frame(CFA_Y, -5)
        CFI (cfiCond167) R25 Frame(CFA_Y, -4)
        CFI (cfiCond167) R26 Frame(CFA_Y, -3)
        CFI (cfiCond167) R27 Frame(CFA_Y, -2)
        CFI (cfiCond167) R4 Frame(CFA_Y, -1)
        CFI (cfiCond167) CFA_SP SP+6
        CFI (cfiCond167) CFA_Y Y+19
        CFI Block cfiPicker168 Using cfiCommon1
        CFI (cfiPicker168) NoFunction
        CFI (cfiPicker168) Picker
        LDS	R16, buf_tx_232
        STS	310, R16
        RET
        CFI EndBlock cfiCond166
        CFI EndBlock cfiCond167
        CFI EndBlock cfiPicker168

        RSEG CODE:CODE:NOROOT(1)
?Subroutine65:
        CFI Block cfiCond169 Using cfiCommon2
        CFI NoFunction
        CFI Conditional ??CrossCallReturnLabel_203
        CFI R16 Frame(CFA_Y, -19)
        CFI R17 Frame(CFA_Y, -18)
        CFI R18 Frame(CFA_Y, -17)
        CFI R19 Frame(CFA_Y, -16)
        CFI R20 Frame(CFA_Y, -15)
        CFI R21 Frame(CFA_Y, -14)
        CFI R22 Frame(CFA_Y, -13)
        CFI R23 Frame(CFA_Y, -12)
        CFI R0 Frame(CFA_Y, -11)
        CFI R1 Frame(CFA_Y, -10)
        CFI R2 Frame(CFA_Y, -9)
        CFI R3 Frame(CFA_Y, -8)
        CFI R30 Frame(CFA_Y, -7)
        CFI R31 Frame(CFA_Y, -6)
        CFI R24 Frame(CFA_Y, -5)
        CFI R25 Frame(CFA_Y, -4)
        CFI R26 Frame(CFA_Y, -3)
        CFI R27 Frame(CFA_Y, -2)
        CFI R4 Frame(CFA_Y, -1)
        CFI CFA_SP SP+6
        CFI CFA_Y Y+19
        CFI Block cfiCond170 Using cfiCommon2
        CFI (cfiCond170) NoFunction
        CFI (cfiCond170) Conditional ??CrossCallReturnLabel_204
        CFI (cfiCond170) R16 Frame(CFA_Y, -19)
        CFI (cfiCond170) R17 Frame(CFA_Y, -18)
        CFI (cfiCond170) R18 Frame(CFA_Y, -17)
        CFI (cfiCond170) R19 Frame(CFA_Y, -16)
        CFI (cfiCond170) R20 Frame(CFA_Y, -15)
        CFI (cfiCond170) R21 Frame(CFA_Y, -14)
        CFI (cfiCond170) R22 Frame(CFA_Y, -13)
        CFI (cfiCond170) R23 Frame(CFA_Y, -12)
        CFI (cfiCond170) R0 Frame(CFA_Y, -11)
        CFI (cfiCond170) R1 Frame(CFA_Y, -10)
        CFI (cfiCond170) R2 Frame(CFA_Y, -9)
        CFI (cfiCond170) R3 Frame(CFA_Y, -8)
        CFI (cfiCond170) R30 Frame(CFA_Y, -7)
        CFI (cfiCond170) R31 Frame(CFA_Y, -6)
        CFI (cfiCond170) R24 Frame(CFA_Y, -5)
        CFI (cfiCond170) R25 Frame(CFA_Y, -4)
        CFI (cfiCond170) R26 Frame(CFA_Y, -3)
        CFI (cfiCond170) R27 Frame(CFA_Y, -2)
        CFI (cfiCond170) R4 Frame(CFA_Y, -1)
        CFI (cfiCond170) CFA_SP SP+6
        CFI (cfiCond170) CFA_Y Y+19
        CFI Block cfiPicker171 Using cfiCommon1
        CFI (cfiPicker171) NoFunction
        CFI (cfiPicker171) Picker
        LDS	R16, 193
        ANDI	R16, 0xEF
        STS	193, R16
        LDS	R16, 193
        ANDI	R16, 0x7F
        CFI EndBlock cfiCond169
        CFI EndBlock cfiCond170
        CFI EndBlock cfiPicker171
        REQUIRE ?Subroutine95
        ;		// Fall through to label ?Subroutine95

        RSEG CODE:CODE:NOROOT(1)
?Subroutine95:
        CFI Block cfiCond172 Using cfiCommon2
        CFI NoFunction
        CFI Conditional ??CrossCallReturnLabel_203
        CFI R16 Frame(CFA_Y, -19)
        CFI R17 Frame(CFA_Y, -18)
        CFI R18 Frame(CFA_Y, -17)
        CFI R19 Frame(CFA_Y, -16)
        CFI R20 Frame(CFA_Y, -15)
        CFI R21 Frame(CFA_Y, -14)
        CFI R22 Frame(CFA_Y, -13)
        CFI R23 Frame(CFA_Y, -12)
        CFI R0 Frame(CFA_Y, -11)
        CFI R1 Frame(CFA_Y, -10)
        CFI R2 Frame(CFA_Y, -9)
        CFI R3 Frame(CFA_Y, -8)
        CFI R30 Frame(CFA_Y, -7)
        CFI R31 Frame(CFA_Y, -6)
        CFI R24 Frame(CFA_Y, -5)
        CFI R25 Frame(CFA_Y, -4)
        CFI R26 Frame(CFA_Y, -3)
        CFI R27 Frame(CFA_Y, -2)
        CFI R4 Frame(CFA_Y, -1)
        CFI CFA_SP SP+6
        CFI CFA_Y Y+19
        CFI Block cfiCond173 Using cfiCommon2
        CFI (cfiCond173) NoFunction
        CFI (cfiCond173) Conditional ??CrossCallReturnLabel_204
        CFI (cfiCond173) R16 Frame(CFA_Y, -19)
        CFI (cfiCond173) R17 Frame(CFA_Y, -18)
        CFI (cfiCond173) R18 Frame(CFA_Y, -17)
        CFI (cfiCond173) R19 Frame(CFA_Y, -16)
        CFI (cfiCond173) R20 Frame(CFA_Y, -15)
        CFI (cfiCond173) R21 Frame(CFA_Y, -14)
        CFI (cfiCond173) R22 Frame(CFA_Y, -13)
        CFI (cfiCond173) R23 Frame(CFA_Y, -12)
        CFI (cfiCond173) R0 Frame(CFA_Y, -11)
        CFI (cfiCond173) R1 Frame(CFA_Y, -10)
        CFI (cfiCond173) R2 Frame(CFA_Y, -9)
        CFI (cfiCond173) R3 Frame(CFA_Y, -8)
        CFI (cfiCond173) R30 Frame(CFA_Y, -7)
        CFI (cfiCond173) R31 Frame(CFA_Y, -6)
        CFI (cfiCond173) R24 Frame(CFA_Y, -5)
        CFI (cfiCond173) R25 Frame(CFA_Y, -4)
        CFI (cfiCond173) R26 Frame(CFA_Y, -3)
        CFI (cfiCond173) R27 Frame(CFA_Y, -2)
        CFI (cfiCond173) R4 Frame(CFA_Y, -1)
        CFI (cfiCond173) CFA_SP SP+6
        CFI (cfiCond173) CFA_Y Y+19
        CFI Block cfiCond174 Using cfiCommon2
        CFI (cfiCond174) NoFunction
        CFI (cfiCond174) Conditional ??CrossCallReturnLabel_201
        CFI (cfiCond174) R16 Frame(CFA_Y, -19)
        CFI (cfiCond174) R17 Frame(CFA_Y, -18)
        CFI (cfiCond174) R18 Frame(CFA_Y, -17)
        CFI (cfiCond174) R19 Frame(CFA_Y, -16)
        CFI (cfiCond174) R20 Frame(CFA_Y, -15)
        CFI (cfiCond174) R21 Frame(CFA_Y, -14)
        CFI (cfiCond174) R22 Frame(CFA_Y, -13)
        CFI (cfiCond174) R23 Frame(CFA_Y, -12)
        CFI (cfiCond174) R0 Frame(CFA_Y, -11)
        CFI (cfiCond174) R1 Frame(CFA_Y, -10)
        CFI (cfiCond174) R2 Frame(CFA_Y, -9)
        CFI (cfiCond174) R3 Frame(CFA_Y, -8)
        CFI (cfiCond174) R30 Frame(CFA_Y, -7)
        CFI (cfiCond174) R31 Frame(CFA_Y, -6)
        CFI (cfiCond174) R24 Frame(CFA_Y, -5)
        CFI (cfiCond174) R25 Frame(CFA_Y, -4)
        CFI (cfiCond174) R26 Frame(CFA_Y, -3)
        CFI (cfiCond174) R27 Frame(CFA_Y, -2)
        CFI (cfiCond174) R4 Frame(CFA_Y, -1)
        CFI (cfiCond174) CFA_SP SP+6
        CFI (cfiCond174) CFA_Y Y+19
        CFI Block cfiCond175 Using cfiCommon2
        CFI (cfiCond175) NoFunction
        CFI (cfiCond175) Conditional ??CrossCallReturnLabel_202
        CFI (cfiCond175) R16 Frame(CFA_Y, -19)
        CFI (cfiCond175) R17 Frame(CFA_Y, -18)
        CFI (cfiCond175) R18 Frame(CFA_Y, -17)
        CFI (cfiCond175) R19 Frame(CFA_Y, -16)
        CFI (cfiCond175) R20 Frame(CFA_Y, -15)
        CFI (cfiCond175) R21 Frame(CFA_Y, -14)
        CFI (cfiCond175) R22 Frame(CFA_Y, -13)
        CFI (cfiCond175) R23 Frame(CFA_Y, -12)
        CFI (cfiCond175) R0 Frame(CFA_Y, -11)
        CFI (cfiCond175) R1 Frame(CFA_Y, -10)
        CFI (cfiCond175) R2 Frame(CFA_Y, -9)
        CFI (cfiCond175) R3 Frame(CFA_Y, -8)
        CFI (cfiCond175) R30 Frame(CFA_Y, -7)
        CFI (cfiCond175) R31 Frame(CFA_Y, -6)
        CFI (cfiCond175) R24 Frame(CFA_Y, -5)
        CFI (cfiCond175) R25 Frame(CFA_Y, -4)
        CFI (cfiCond175) R26 Frame(CFA_Y, -3)
        CFI (cfiCond175) R27 Frame(CFA_Y, -2)
        CFI (cfiCond175) R4 Frame(CFA_Y, -1)
        CFI (cfiCond175) CFA_SP SP+6
        CFI (cfiCond175) CFA_Y Y+19
        CFI Block cfiPicker176 Using cfiCommon1
        CFI (cfiPicker176) NoFunction
        CFI (cfiPicker176) Picker
        STS	193, R16
        RET
        CFI EndBlock cfiCond172
        CFI EndBlock cfiCond173
        CFI EndBlock cfiCond174
        CFI EndBlock cfiCond175
        CFI EndBlock cfiPicker176

        RSEG CODE:CODE:NOROOT(1)
?Subroutine64:
        CFI Block cfiCond177 Using cfiCommon2
        CFI NoFunction
        CFI Conditional ??CrossCallReturnLabel_201
        CFI R16 Frame(CFA_Y, -19)
        CFI R17 Frame(CFA_Y, -18)
        CFI R18 Frame(CFA_Y, -17)
        CFI R19 Frame(CFA_Y, -16)
        CFI R20 Frame(CFA_Y, -15)
        CFI R21 Frame(CFA_Y, -14)
        CFI R22 Frame(CFA_Y, -13)
        CFI R23 Frame(CFA_Y, -12)
        CFI R0 Frame(CFA_Y, -11)
        CFI R1 Frame(CFA_Y, -10)
        CFI R2 Frame(CFA_Y, -9)
        CFI R3 Frame(CFA_Y, -8)
        CFI R30 Frame(CFA_Y, -7)
        CFI R31 Frame(CFA_Y, -6)
        CFI R24 Frame(CFA_Y, -5)
        CFI R25 Frame(CFA_Y, -4)
        CFI R26 Frame(CFA_Y, -3)
        CFI R27 Frame(CFA_Y, -2)
        CFI R4 Frame(CFA_Y, -1)
        CFI CFA_SP SP+6
        CFI CFA_Y Y+19
        CFI Block cfiCond178 Using cfiCommon2
        CFI (cfiCond178) NoFunction
        CFI (cfiCond178) Conditional ??CrossCallReturnLabel_202
        CFI (cfiCond178) R16 Frame(CFA_Y, -19)
        CFI (cfiCond178) R17 Frame(CFA_Y, -18)
        CFI (cfiCond178) R18 Frame(CFA_Y, -17)
        CFI (cfiCond178) R19 Frame(CFA_Y, -16)
        CFI (cfiCond178) R20 Frame(CFA_Y, -15)
        CFI (cfiCond178) R21 Frame(CFA_Y, -14)
        CFI (cfiCond178) R22 Frame(CFA_Y, -13)
        CFI (cfiCond178) R23 Frame(CFA_Y, -12)
        CFI (cfiCond178) R0 Frame(CFA_Y, -11)
        CFI (cfiCond178) R1 Frame(CFA_Y, -10)
        CFI (cfiCond178) R2 Frame(CFA_Y, -9)
        CFI (cfiCond178) R3 Frame(CFA_Y, -8)
        CFI (cfiCond178) R30 Frame(CFA_Y, -7)
        CFI (cfiCond178) R31 Frame(CFA_Y, -6)
        CFI (cfiCond178) R24 Frame(CFA_Y, -5)
        CFI (cfiCond178) R25 Frame(CFA_Y, -4)
        CFI (cfiCond178) R26 Frame(CFA_Y, -3)
        CFI (cfiCond178) R27 Frame(CFA_Y, -2)
        CFI (cfiCond178) R4 Frame(CFA_Y, -1)
        CFI (cfiCond178) CFA_SP SP+6
        CFI (cfiCond178) CFA_Y Y+19
        CFI Block cfiPicker179 Using cfiCommon1
        CFI (cfiPicker179) NoFunction
        CFI (cfiPicker179) Picker
        LDS	R16, 198
        LDS	R16, 193
        ORI	R16, 0x10
        STS	193, R16
        LDS	R16, 193
        ORI	R16, 0x80
        RJMP	?Subroutine95
        CFI EndBlock cfiCond177
        CFI EndBlock cfiCond178
        CFI EndBlock cfiPicker179

        RSEG CODE:CODE:NOROOT(1)
?Subroutine62:
        CFI Block cfiCond180 Using cfiCommon2
        CFI NoFunction
        CFI Conditional ??CrossCallReturnLabel_133
        CFI R16 Frame(CFA_Y, -19)
        CFI R17 Frame(CFA_Y, -18)
        CFI R18 Frame(CFA_Y, -17)
        CFI R19 Frame(CFA_Y, -16)
        CFI R20 Frame(CFA_Y, -15)
        CFI R21 Frame(CFA_Y, -14)
        CFI R22 Frame(CFA_Y, -13)
        CFI R23 Frame(CFA_Y, -12)
        CFI R0 Frame(CFA_Y, -11)
        CFI R1 Frame(CFA_Y, -10)
        CFI R2 Frame(CFA_Y, -9)
        CFI R3 Frame(CFA_Y, -8)
        CFI R30 Frame(CFA_Y, -7)
        CFI R31 Frame(CFA_Y, -6)
        CFI R24 Frame(CFA_Y, -5)
        CFI R25 Frame(CFA_Y, -4)
        CFI R26 Frame(CFA_Y, -3)
        CFI R27 Frame(CFA_Y, -2)
        CFI R4 Frame(CFA_Y, -1)
        CFI CFA_SP SP+6
        CFI CFA_Y Y+19
        CFI Block cfiCond181 Using cfiCommon2
        CFI (cfiCond181) NoFunction
        CFI (cfiCond181) Conditional ??CrossCallReturnLabel_134
        CFI (cfiCond181) R16 Frame(CFA_Y, -19)
        CFI (cfiCond181) R17 Frame(CFA_Y, -18)
        CFI (cfiCond181) R18 Frame(CFA_Y, -17)
        CFI (cfiCond181) R19 Frame(CFA_Y, -16)
        CFI (cfiCond181) R20 Frame(CFA_Y, -15)
        CFI (cfiCond181) R21 Frame(CFA_Y, -14)
        CFI (cfiCond181) R22 Frame(CFA_Y, -13)
        CFI (cfiCond181) R23 Frame(CFA_Y, -12)
        CFI (cfiCond181) R0 Frame(CFA_Y, -11)
        CFI (cfiCond181) R1 Frame(CFA_Y, -10)
        CFI (cfiCond181) R2 Frame(CFA_Y, -9)
        CFI (cfiCond181) R3 Frame(CFA_Y, -8)
        CFI (cfiCond181) R30 Frame(CFA_Y, -7)
        CFI (cfiCond181) R31 Frame(CFA_Y, -6)
        CFI (cfiCond181) R24 Frame(CFA_Y, -5)
        CFI (cfiCond181) R25 Frame(CFA_Y, -4)
        CFI (cfiCond181) R26 Frame(CFA_Y, -3)
        CFI (cfiCond181) R27 Frame(CFA_Y, -2)
        CFI (cfiCond181) R4 Frame(CFA_Y, -1)
        CFI (cfiCond181) CFA_SP SP+6
        CFI (cfiCond181) CFA_Y Y+19
        CFI Block cfiPicker182 Using cfiCommon1
        CFI (cfiPicker182) NoFunction
        CFI (cfiPicker182) Picker
        SBI	0x08, 0x00
        CBI	0x08, 0x01
        LDS	R16, buf_tx_232
        STS	198, R16
        LDS	R16, Regim
        CPI	R16, 1
        RET
        CFI EndBlock cfiCond180
        CFI EndBlock cfiCond181
        CFI EndBlock cfiPicker182

        RSEG CODE:CODE:NOROOT(1)
?Subroutine53:
        CFI Block cfiCond183 Using cfiCommon2
        CFI NoFunction
        CFI Conditional ??CrossCallReturnLabel_171
        CFI R16 Frame(CFA_Y, -19)
        CFI R17 Frame(CFA_Y, -18)
        CFI R18 Frame(CFA_Y, -17)
        CFI R19 Frame(CFA_Y, -16)
        CFI R20 Frame(CFA_Y, -15)
        CFI R21 Frame(CFA_Y, -14)
        CFI R22 Frame(CFA_Y, -13)
        CFI R23 Frame(CFA_Y, -12)
        CFI R0 Frame(CFA_Y, -11)
        CFI R1 Frame(CFA_Y, -10)
        CFI R2 Frame(CFA_Y, -9)
        CFI R3 Frame(CFA_Y, -8)
        CFI R30 Frame(CFA_Y, -7)
        CFI R31 Frame(CFA_Y, -6)
        CFI R24 Frame(CFA_Y, -5)
        CFI R25 Frame(CFA_Y, -4)
        CFI R26 Frame(CFA_Y, -3)
        CFI R27 Frame(CFA_Y, -2)
        CFI R4 Frame(CFA_Y, -1)
        CFI CFA_SP SP+6
        CFI CFA_Y Y+19
        CFI Block cfiCond184 Using cfiCommon2
        CFI (cfiCond184) NoFunction
        CFI (cfiCond184) Conditional ??CrossCallReturnLabel_171
        CFI (cfiCond184) R16 Frame(CFA_Y, -19)
        CFI (cfiCond184) R17 Frame(CFA_Y, -18)
        CFI (cfiCond184) R18 Frame(CFA_Y, -17)
        CFI (cfiCond184) R19 Frame(CFA_Y, -16)
        CFI (cfiCond184) R20 Frame(CFA_Y, -15)
        CFI (cfiCond184) R21 Frame(CFA_Y, -14)
        CFI (cfiCond184) R22 Frame(CFA_Y, -13)
        CFI (cfiCond184) R23 Frame(CFA_Y, -12)
        CFI (cfiCond184) R0 Frame(CFA_Y, -11)
        CFI (cfiCond184) R1 Frame(CFA_Y, -10)
        CFI (cfiCond184) R2 Frame(CFA_Y, -9)
        CFI (cfiCond184) R3 Frame(CFA_Y, -8)
        CFI (cfiCond184) R30 Frame(CFA_Y, -7)
        CFI (cfiCond184) R31 Frame(CFA_Y, -6)
        CFI (cfiCond184) R24 Frame(CFA_Y, -5)
        CFI (cfiCond184) R25 Frame(CFA_Y, -4)
        CFI (cfiCond184) R26 Frame(CFA_Y, -3)
        CFI (cfiCond184) R27 Frame(CFA_Y, -2)
        CFI (cfiCond184) R4 Frame(CFA_Y, -1)
        CFI (cfiCond184) CFA_SP SP+6
        CFI (cfiCond184) CFA_Y Y+19
        CFI Block cfiPicker185 Using cfiCommon1
        CFI (cfiPicker185) NoFunction
        CFI (cfiPicker185) Picker
        OUT	0x3C, R4
        OUT	0x3B, R25
        OUT	0x3F, R24
        LD	R16, Y+
        CFI (cfiCond183) R16 SameValue
        CFI (cfiCond183) CFA_Y Y+18
        CFI (cfiCond184) R16 SameValue
        CFI (cfiCond184) CFA_Y Y+18
        LD	R17, Y+
        CFI (cfiCond183) R17 SameValue
        CFI (cfiCond183) CFA_Y Y+17
        CFI (cfiCond184) R17 SameValue
        CFI (cfiCond184) CFA_Y Y+17
        LD	R18, Y+
        CFI (cfiCond183) R18 SameValue
        CFI (cfiCond183) CFA_Y Y+16
        CFI (cfiCond184) R18 SameValue
        CFI (cfiCond184) CFA_Y Y+16
        LD	R19, Y+
        CFI (cfiCond183) R19 SameValue
        CFI (cfiCond183) CFA_Y Y+15
        CFI (cfiCond184) R19 SameValue
        CFI (cfiCond184) CFA_Y Y+15
        LD	R20, Y+
        CFI (cfiCond183) R20 SameValue
        CFI (cfiCond183) CFA_Y Y+14
        CFI (cfiCond184) R20 SameValue
        CFI (cfiCond184) CFA_Y Y+14
        LD	R21, Y+
        CFI (cfiCond183) R21 SameValue
        CFI (cfiCond183) CFA_Y Y+13
        CFI (cfiCond184) R21 SameValue
        CFI (cfiCond184) CFA_Y Y+13
        LD	R22, Y+
        CFI (cfiCond183) R22 SameValue
        CFI (cfiCond183) CFA_Y Y+12
        CFI (cfiCond184) R22 SameValue
        CFI (cfiCond184) CFA_Y Y+12
        LD	R23, Y+
        CFI (cfiCond183) R23 SameValue
        CFI (cfiCond183) CFA_Y Y+11
        CFI (cfiCond184) R23 SameValue
        CFI (cfiCond184) CFA_Y Y+11
        LD	R0, Y+
        CFI (cfiCond183) R0 SameValue
        CFI (cfiCond183) CFA_Y Y+10
        CFI (cfiCond184) R0 SameValue
        CFI (cfiCond184) CFA_Y Y+10
        LD	R1, Y+
        CFI (cfiCond183) R1 SameValue
        CFI (cfiCond183) CFA_Y Y+9
        CFI (cfiCond184) R1 SameValue
        CFI (cfiCond184) CFA_Y Y+9
        LD	R2, Y+
        CFI (cfiCond183) R2 SameValue
        CFI (cfiCond183) CFA_Y Y+8
        CFI (cfiCond184) R2 SameValue
        CFI (cfiCond184) CFA_Y Y+8
        LD	R3, Y+
        CFI (cfiCond183) R3 SameValue
        CFI (cfiCond183) CFA_Y Y+7
        CFI (cfiCond184) R3 SameValue
        CFI (cfiCond184) CFA_Y Y+7
        LD	R30, Y+
        CFI (cfiCond183) R30 SameValue
        CFI (cfiCond183) CFA_Y Y+6
        CFI (cfiCond184) R30 SameValue
        CFI (cfiCond184) CFA_Y Y+6
        LD	R31, Y+
        CFI (cfiCond183) R31 SameValue
        CFI (cfiCond183) CFA_Y Y+5
        CFI (cfiCond184) R31 SameValue
        CFI (cfiCond184) CFA_Y Y+5
        LD	R24, Y+
        CFI (cfiCond183) R24 SameValue
        CFI (cfiCond183) CFA_Y Y+4
        CFI (cfiCond184) R24 SameValue
        CFI (cfiCond184) CFA_Y Y+4
        LD	R25, Y+
        CFI (cfiCond183) R25 SameValue
        CFI (cfiCond183) CFA_Y Y+3
        CFI (cfiCond184) R25 SameValue
        CFI (cfiCond184) CFA_Y Y+3
        LD	R26, Y+
        CFI (cfiCond183) R26 SameValue
        CFI (cfiCond183) CFA_Y Y+2
        CFI (cfiCond184) R26 SameValue
        CFI (cfiCond184) CFA_Y Y+2
        LD	R27, Y+
        CFI (cfiCond183) R27 SameValue
        CFI (cfiCond183) CFA_Y Y+1
        CFI (cfiCond184) R27 SameValue
        CFI (cfiCond184) CFA_Y Y+1
        LD	R4, Y+
        CFI (cfiCond183) R4 SameValue
        CFI (cfiCond183) CFA_Y Y+0
        CFI (cfiCond184) R4 SameValue
        CFI (cfiCond184) CFA_Y Y+0
        RET
        CFI EndBlock cfiCond183
        CFI EndBlock cfiCond184
        CFI EndBlock cfiPicker185

        RSEG CODE:CODE:NOROOT(1)
?Subroutine27:
        CFI Block cfiCond186 Using cfiCommon2
        CFI NoFunction
        CFI Conditional ??CrossCallReturnLabel_220
        CFI R16 Frame(CFA_Y, -19)
        CFI R17 Frame(CFA_Y, -18)
        CFI R18 Frame(CFA_Y, -17)
        CFI R19 Frame(CFA_Y, -16)
        CFI R20 Frame(CFA_Y, -15)
        CFI R21 Frame(CFA_Y, -14)
        CFI R22 Frame(CFA_Y, -13)
        CFI R23 Frame(CFA_Y, -12)
        CFI R0 Frame(CFA_Y, -11)
        CFI R1 Frame(CFA_Y, -10)
        CFI R2 Frame(CFA_Y, -9)
        CFI R3 Frame(CFA_Y, -8)
        CFI R30 Frame(CFA_Y, -7)
        CFI R31 Frame(CFA_Y, -6)
        CFI R24 Frame(CFA_Y, -5)
        CFI R25 Frame(CFA_Y, -4)
        CFI R26 Frame(CFA_Y, -3)
        CFI R27 Frame(CFA_Y, -2)
        CFI R4 Frame(CFA_Y, -1)
        CFI CFA_SP SP+6
        CFI CFA_Y Y+19
        CFI Block cfiCond187 Using cfiCommon2
        CFI (cfiCond187) NoFunction
        CFI (cfiCond187) Conditional ??CrossCallReturnLabel_221
        CFI (cfiCond187) R16 Frame(CFA_Y, -19)
        CFI (cfiCond187) R17 Frame(CFA_Y, -18)
        CFI (cfiCond187) R18 Frame(CFA_Y, -17)
        CFI (cfiCond187) R19 Frame(CFA_Y, -16)
        CFI (cfiCond187) R20 Frame(CFA_Y, -15)
        CFI (cfiCond187) R21 Frame(CFA_Y, -14)
        CFI (cfiCond187) R22 Frame(CFA_Y, -13)
        CFI (cfiCond187) R23 Frame(CFA_Y, -12)
        CFI (cfiCond187) R0 Frame(CFA_Y, -11)
        CFI (cfiCond187) R1 Frame(CFA_Y, -10)
        CFI (cfiCond187) R2 Frame(CFA_Y, -9)
        CFI (cfiCond187) R3 Frame(CFA_Y, -8)
        CFI (cfiCond187) R30 Frame(CFA_Y, -7)
        CFI (cfiCond187) R31 Frame(CFA_Y, -6)
        CFI (cfiCond187) R24 Frame(CFA_Y, -5)
        CFI (cfiCond187) R25 Frame(CFA_Y, -4)
        CFI (cfiCond187) R26 Frame(CFA_Y, -3)
        CFI (cfiCond187) R27 Frame(CFA_Y, -2)
        CFI (cfiCond187) R4 Frame(CFA_Y, -1)
        CFI (cfiCond187) CFA_SP SP+6
        CFI (cfiCond187) CFA_Y Y+19
        CFI Block cfiCond188 Using cfiCommon2
        CFI (cfiCond188) NoFunction
        CFI (cfiCond188) Conditional ??CrossCallReturnLabel_222
        CFI (cfiCond188) R16 Frame(CFA_Y, -19)
        CFI (cfiCond188) R17 Frame(CFA_Y, -18)
        CFI (cfiCond188) R18 Frame(CFA_Y, -17)
        CFI (cfiCond188) R19 Frame(CFA_Y, -16)
        CFI (cfiCond188) R20 Frame(CFA_Y, -15)
        CFI (cfiCond188) R21 Frame(CFA_Y, -14)
        CFI (cfiCond188) R22 Frame(CFA_Y, -13)
        CFI (cfiCond188) R23 Frame(CFA_Y, -12)
        CFI (cfiCond188) R0 Frame(CFA_Y, -11)
        CFI (cfiCond188) R1 Frame(CFA_Y, -10)
        CFI (cfiCond188) R2 Frame(CFA_Y, -9)
        CFI (cfiCond188) R3 Frame(CFA_Y, -8)
        CFI (cfiCond188) R30 Frame(CFA_Y, -7)
        CFI (cfiCond188) R31 Frame(CFA_Y, -6)
        CFI (cfiCond188) R24 Frame(CFA_Y, -5)
        CFI (cfiCond188) R25 Frame(CFA_Y, -4)
        CFI (cfiCond188) R26 Frame(CFA_Y, -3)
        CFI (cfiCond188) R27 Frame(CFA_Y, -2)
        CFI (cfiCond188) R4 Frame(CFA_Y, -1)
        CFI (cfiCond188) CFA_SP SP+6
        CFI (cfiCond188) CFA_Y Y+19
        CFI Block cfiCond189 Using cfiCommon2
        CFI (cfiCond189) NoFunction
        CFI (cfiCond189) Conditional ??CrossCallReturnLabel_223
        CFI (cfiCond189) R16 Frame(CFA_Y, -19)
        CFI (cfiCond189) R17 Frame(CFA_Y, -18)
        CFI (cfiCond189) R18 Frame(CFA_Y, -17)
        CFI (cfiCond189) R19 Frame(CFA_Y, -16)
        CFI (cfiCond189) R20 Frame(CFA_Y, -15)
        CFI (cfiCond189) R21 Frame(CFA_Y, -14)
        CFI (cfiCond189) R22 Frame(CFA_Y, -13)
        CFI (cfiCond189) R23 Frame(CFA_Y, -12)
        CFI (cfiCond189) R0 Frame(CFA_Y, -11)
        CFI (cfiCond189) R1 Frame(CFA_Y, -10)
        CFI (cfiCond189) R2 Frame(CFA_Y, -9)
        CFI (cfiCond189) R3 Frame(CFA_Y, -8)
        CFI (cfiCond189) R30 Frame(CFA_Y, -7)
        CFI (cfiCond189) R31 Frame(CFA_Y, -6)
        CFI (cfiCond189) R24 Frame(CFA_Y, -5)
        CFI (cfiCond189) R25 Frame(CFA_Y, -4)
        CFI (cfiCond189) R26 Frame(CFA_Y, -3)
        CFI (cfiCond189) R27 Frame(CFA_Y, -2)
        CFI (cfiCond189) R4 Frame(CFA_Y, -1)
        CFI (cfiCond189) CFA_SP SP+6
        CFI (cfiCond189) CFA_Y Y+19
        CFI Block cfiCond190 Using cfiCommon2
        CFI (cfiCond190) NoFunction
        CFI (cfiCond190) Conditional ??CrossCallReturnLabel_224
        CFI (cfiCond190) R16 Frame(CFA_Y, -19)
        CFI (cfiCond190) R17 Frame(CFA_Y, -18)
        CFI (cfiCond190) R18 Frame(CFA_Y, -17)
        CFI (cfiCond190) R19 Frame(CFA_Y, -16)
        CFI (cfiCond190) R20 Frame(CFA_Y, -15)
        CFI (cfiCond190) R21 Frame(CFA_Y, -14)
        CFI (cfiCond190) R22 Frame(CFA_Y, -13)
        CFI (cfiCond190) R23 Frame(CFA_Y, -12)
        CFI (cfiCond190) R0 Frame(CFA_Y, -11)
        CFI (cfiCond190) R1 Frame(CFA_Y, -10)
        CFI (cfiCond190) R2 Frame(CFA_Y, -9)
        CFI (cfiCond190) R3 Frame(CFA_Y, -8)
        CFI (cfiCond190) R30 Frame(CFA_Y, -7)
        CFI (cfiCond190) R31 Frame(CFA_Y, -6)
        CFI (cfiCond190) R24 Frame(CFA_Y, -5)
        CFI (cfiCond190) R25 Frame(CFA_Y, -4)
        CFI (cfiCond190) R26 Frame(CFA_Y, -3)
        CFI (cfiCond190) R27 Frame(CFA_Y, -2)
        CFI (cfiCond190) R4 Frame(CFA_Y, -1)
        CFI (cfiCond190) CFA_SP SP+6
        CFI (cfiCond190) CFA_Y Y+19
        CFI Block cfiCond191 Using cfiCommon2
        CFI (cfiCond191) NoFunction
        CFI (cfiCond191) Conditional ??CrossCallReturnLabel_225
        CFI (cfiCond191) R16 Frame(CFA_Y, -19)
        CFI (cfiCond191) R17 Frame(CFA_Y, -18)
        CFI (cfiCond191) R18 Frame(CFA_Y, -17)
        CFI (cfiCond191) R19 Frame(CFA_Y, -16)
        CFI (cfiCond191) R20 Frame(CFA_Y, -15)
        CFI (cfiCond191) R21 Frame(CFA_Y, -14)
        CFI (cfiCond191) R22 Frame(CFA_Y, -13)
        CFI (cfiCond191) R23 Frame(CFA_Y, -12)
        CFI (cfiCond191) R0 Frame(CFA_Y, -11)
        CFI (cfiCond191) R1 Frame(CFA_Y, -10)
        CFI (cfiCond191) R2 Frame(CFA_Y, -9)
        CFI (cfiCond191) R3 Frame(CFA_Y, -8)
        CFI (cfiCond191) R30 Frame(CFA_Y, -7)
        CFI (cfiCond191) R31 Frame(CFA_Y, -6)
        CFI (cfiCond191) R24 Frame(CFA_Y, -5)
        CFI (cfiCond191) R25 Frame(CFA_Y, -4)
        CFI (cfiCond191) R26 Frame(CFA_Y, -3)
        CFI (cfiCond191) R27 Frame(CFA_Y, -2)
        CFI (cfiCond191) R4 Frame(CFA_Y, -1)
        CFI (cfiCond191) CFA_SP SP+6
        CFI (cfiCond191) CFA_Y Y+19
        CFI Block cfiCond192 Using cfiCommon2
        CFI (cfiCond192) NoFunction
        CFI (cfiCond192) Conditional ??CrossCallReturnLabel_226
        CFI (cfiCond192) R16 Frame(CFA_Y, -19)
        CFI (cfiCond192) R17 Frame(CFA_Y, -18)
        CFI (cfiCond192) R18 Frame(CFA_Y, -17)
        CFI (cfiCond192) R19 Frame(CFA_Y, -16)
        CFI (cfiCond192) R20 Frame(CFA_Y, -15)
        CFI (cfiCond192) R21 Frame(CFA_Y, -14)
        CFI (cfiCond192) R22 Frame(CFA_Y, -13)
        CFI (cfiCond192) R23 Frame(CFA_Y, -12)
        CFI (cfiCond192) R0 Frame(CFA_Y, -11)
        CFI (cfiCond192) R1 Frame(CFA_Y, -10)
        CFI (cfiCond192) R2 Frame(CFA_Y, -9)
        CFI (cfiCond192) R3 Frame(CFA_Y, -8)
        CFI (cfiCond192) R30 Frame(CFA_Y, -7)
        CFI (cfiCond192) R31 Frame(CFA_Y, -6)
        CFI (cfiCond192) R24 Frame(CFA_Y, -5)
        CFI (cfiCond192) R25 Frame(CFA_Y, -4)
        CFI (cfiCond192) R26 Frame(CFA_Y, -3)
        CFI (cfiCond192) R27 Frame(CFA_Y, -2)
        CFI (cfiCond192) R4 Frame(CFA_Y, -1)
        CFI (cfiCond192) CFA_SP SP+6
        CFI (cfiCond192) CFA_Y Y+19
        CFI Block cfiCond193 Using cfiCommon2
        CFI (cfiCond193) NoFunction
        CFI (cfiCond193) Conditional ??CrossCallReturnLabel_227
        CFI (cfiCond193) R16 Frame(CFA_Y, -19)
        CFI (cfiCond193) R17 Frame(CFA_Y, -18)
        CFI (cfiCond193) R18 Frame(CFA_Y, -17)
        CFI (cfiCond193) R19 Frame(CFA_Y, -16)
        CFI (cfiCond193) R20 Frame(CFA_Y, -15)
        CFI (cfiCond193) R21 Frame(CFA_Y, -14)
        CFI (cfiCond193) R22 Frame(CFA_Y, -13)
        CFI (cfiCond193) R23 Frame(CFA_Y, -12)
        CFI (cfiCond193) R0 Frame(CFA_Y, -11)
        CFI (cfiCond193) R1 Frame(CFA_Y, -10)
        CFI (cfiCond193) R2 Frame(CFA_Y, -9)
        CFI (cfiCond193) R3 Frame(CFA_Y, -8)
        CFI (cfiCond193) R30 Frame(CFA_Y, -7)
        CFI (cfiCond193) R31 Frame(CFA_Y, -6)
        CFI (cfiCond193) R24 Frame(CFA_Y, -5)
        CFI (cfiCond193) R25 Frame(CFA_Y, -4)
        CFI (cfiCond193) R26 Frame(CFA_Y, -3)
        CFI (cfiCond193) R27 Frame(CFA_Y, -2)
        CFI (cfiCond193) R4 Frame(CFA_Y, -1)
        CFI (cfiCond193) CFA_SP SP+6
        CFI (cfiCond193) CFA_Y Y+19
        CFI Block cfiCond194 Using cfiCommon2
        CFI (cfiCond194) NoFunction
        CFI (cfiCond194) Conditional ??CrossCallReturnLabel_228
        CFI (cfiCond194) R16 Frame(CFA_Y, -19)
        CFI (cfiCond194) R17 Frame(CFA_Y, -18)
        CFI (cfiCond194) R18 Frame(CFA_Y, -17)
        CFI (cfiCond194) R19 Frame(CFA_Y, -16)
        CFI (cfiCond194) R20 Frame(CFA_Y, -15)
        CFI (cfiCond194) R21 Frame(CFA_Y, -14)
        CFI (cfiCond194) R22 Frame(CFA_Y, -13)
        CFI (cfiCond194) R23 Frame(CFA_Y, -12)
        CFI (cfiCond194) R0 Frame(CFA_Y, -11)
        CFI (cfiCond194) R1 Frame(CFA_Y, -10)
        CFI (cfiCond194) R2 Frame(CFA_Y, -9)
        CFI (cfiCond194) R3 Frame(CFA_Y, -8)
        CFI (cfiCond194) R30 Frame(CFA_Y, -7)
        CFI (cfiCond194) R31 Frame(CFA_Y, -6)
        CFI (cfiCond194) R24 Frame(CFA_Y, -5)
        CFI (cfiCond194) R25 Frame(CFA_Y, -4)
        CFI (cfiCond194) R26 Frame(CFA_Y, -3)
        CFI (cfiCond194) R27 Frame(CFA_Y, -2)
        CFI (cfiCond194) R4 Frame(CFA_Y, -1)
        CFI (cfiCond194) CFA_SP SP+6
        CFI (cfiCond194) CFA_Y Y+19
        CFI Block cfiCond195 Using cfiCommon2
        CFI (cfiCond195) NoFunction
        CFI (cfiCond195) Conditional ??CrossCallReturnLabel_229
        CFI (cfiCond195) R16 Frame(CFA_Y, -19)
        CFI (cfiCond195) R17 Frame(CFA_Y, -18)
        CFI (cfiCond195) R18 Frame(CFA_Y, -17)
        CFI (cfiCond195) R19 Frame(CFA_Y, -16)
        CFI (cfiCond195) R20 Frame(CFA_Y, -15)
        CFI (cfiCond195) R21 Frame(CFA_Y, -14)
        CFI (cfiCond195) R22 Frame(CFA_Y, -13)
        CFI (cfiCond195) R23 Frame(CFA_Y, -12)
        CFI (cfiCond195) R0 Frame(CFA_Y, -11)
        CFI (cfiCond195) R1 Frame(CFA_Y, -10)
        CFI (cfiCond195) R2 Frame(CFA_Y, -9)
        CFI (cfiCond195) R3 Frame(CFA_Y, -8)
        CFI (cfiCond195) R30 Frame(CFA_Y, -7)
        CFI (cfiCond195) R31 Frame(CFA_Y, -6)
        CFI (cfiCond195) R24 Frame(CFA_Y, -5)
        CFI (cfiCond195) R25 Frame(CFA_Y, -4)
        CFI (cfiCond195) R26 Frame(CFA_Y, -3)
        CFI (cfiCond195) R27 Frame(CFA_Y, -2)
        CFI (cfiCond195) R4 Frame(CFA_Y, -1)
        CFI (cfiCond195) CFA_SP SP+6
        CFI (cfiCond195) CFA_Y Y+19
        CFI Block cfiPicker196 Using cfiCommon1
        CFI (cfiPicker196) NoFunction
        CFI (cfiPicker196) Picker
        LD	R16, Z
        SUBI	R16, 1
        SBCI	R17, 0
        ST	Z, R16
        STD	Z+1, R17
        CFI EndBlock cfiCond186
        CFI EndBlock cfiCond187
        CFI EndBlock cfiCond188
        CFI EndBlock cfiCond189
        CFI EndBlock cfiCond190
        CFI EndBlock cfiCond191
        CFI EndBlock cfiCond192
        CFI EndBlock cfiCond193
        CFI EndBlock cfiCond194
        CFI EndBlock cfiCond195
        CFI EndBlock cfiPicker196
        REQUIRE ?Subroutine98
        ;		// Fall through to label ?Subroutine98

        RSEG CODE:CODE:NOROOT(1)
?Subroutine98:
        CFI Block cfiCond197 Using cfiCommon2
        CFI NoFunction
        CFI Conditional ??CrossCallReturnLabel_220
        CFI R16 Frame(CFA_Y, -19)
        CFI R17 Frame(CFA_Y, -18)
        CFI R18 Frame(CFA_Y, -17)
        CFI R19 Frame(CFA_Y, -16)
        CFI R20 Frame(CFA_Y, -15)
        CFI R21 Frame(CFA_Y, -14)
        CFI R22 Frame(CFA_Y, -13)
        CFI R23 Frame(CFA_Y, -12)
        CFI R0 Frame(CFA_Y, -11)
        CFI R1 Frame(CFA_Y, -10)
        CFI R2 Frame(CFA_Y, -9)
        CFI R3 Frame(CFA_Y, -8)
        CFI R30 Frame(CFA_Y, -7)
        CFI R31 Frame(CFA_Y, -6)
        CFI R24 Frame(CFA_Y, -5)
        CFI R25 Frame(CFA_Y, -4)
        CFI R26 Frame(CFA_Y, -3)
        CFI R27 Frame(CFA_Y, -2)
        CFI R4 Frame(CFA_Y, -1)
        CFI CFA_SP SP+6
        CFI CFA_Y Y+19
        CFI Block cfiCond198 Using cfiCommon2
        CFI (cfiCond198) NoFunction
        CFI (cfiCond198) Conditional ??CrossCallReturnLabel_221
        CFI (cfiCond198) R16 Frame(CFA_Y, -19)
        CFI (cfiCond198) R17 Frame(CFA_Y, -18)
        CFI (cfiCond198) R18 Frame(CFA_Y, -17)
        CFI (cfiCond198) R19 Frame(CFA_Y, -16)
        CFI (cfiCond198) R20 Frame(CFA_Y, -15)
        CFI (cfiCond198) R21 Frame(CFA_Y, -14)
        CFI (cfiCond198) R22 Frame(CFA_Y, -13)
        CFI (cfiCond198) R23 Frame(CFA_Y, -12)
        CFI (cfiCond198) R0 Frame(CFA_Y, -11)
        CFI (cfiCond198) R1 Frame(CFA_Y, -10)
        CFI (cfiCond198) R2 Frame(CFA_Y, -9)
        CFI (cfiCond198) R3 Frame(CFA_Y, -8)
        CFI (cfiCond198) R30 Frame(CFA_Y, -7)
        CFI (cfiCond198) R31 Frame(CFA_Y, -6)
        CFI (cfiCond198) R24 Frame(CFA_Y, -5)
        CFI (cfiCond198) R25 Frame(CFA_Y, -4)
        CFI (cfiCond198) R26 Frame(CFA_Y, -3)
        CFI (cfiCond198) R27 Frame(CFA_Y, -2)
        CFI (cfiCond198) R4 Frame(CFA_Y, -1)
        CFI (cfiCond198) CFA_SP SP+6
        CFI (cfiCond198) CFA_Y Y+19
        CFI Block cfiCond199 Using cfiCommon2
        CFI (cfiCond199) NoFunction
        CFI (cfiCond199) Conditional ??CrossCallReturnLabel_222
        CFI (cfiCond199) R16 Frame(CFA_Y, -19)
        CFI (cfiCond199) R17 Frame(CFA_Y, -18)
        CFI (cfiCond199) R18 Frame(CFA_Y, -17)
        CFI (cfiCond199) R19 Frame(CFA_Y, -16)
        CFI (cfiCond199) R20 Frame(CFA_Y, -15)
        CFI (cfiCond199) R21 Frame(CFA_Y, -14)
        CFI (cfiCond199) R22 Frame(CFA_Y, -13)
        CFI (cfiCond199) R23 Frame(CFA_Y, -12)
        CFI (cfiCond199) R0 Frame(CFA_Y, -11)
        CFI (cfiCond199) R1 Frame(CFA_Y, -10)
        CFI (cfiCond199) R2 Frame(CFA_Y, -9)
        CFI (cfiCond199) R3 Frame(CFA_Y, -8)
        CFI (cfiCond199) R30 Frame(CFA_Y, -7)
        CFI (cfiCond199) R31 Frame(CFA_Y, -6)
        CFI (cfiCond199) R24 Frame(CFA_Y, -5)
        CFI (cfiCond199) R25 Frame(CFA_Y, -4)
        CFI (cfiCond199) R26 Frame(CFA_Y, -3)
        CFI (cfiCond199) R27 Frame(CFA_Y, -2)
        CFI (cfiCond199) R4 Frame(CFA_Y, -1)
        CFI (cfiCond199) CFA_SP SP+6
        CFI (cfiCond199) CFA_Y Y+19
        CFI Block cfiCond200 Using cfiCommon2
        CFI (cfiCond200) NoFunction
        CFI (cfiCond200) Conditional ??CrossCallReturnLabel_223
        CFI (cfiCond200) R16 Frame(CFA_Y, -19)
        CFI (cfiCond200) R17 Frame(CFA_Y, -18)
        CFI (cfiCond200) R18 Frame(CFA_Y, -17)
        CFI (cfiCond200) R19 Frame(CFA_Y, -16)
        CFI (cfiCond200) R20 Frame(CFA_Y, -15)
        CFI (cfiCond200) R21 Frame(CFA_Y, -14)
        CFI (cfiCond200) R22 Frame(CFA_Y, -13)
        CFI (cfiCond200) R23 Frame(CFA_Y, -12)
        CFI (cfiCond200) R0 Frame(CFA_Y, -11)
        CFI (cfiCond200) R1 Frame(CFA_Y, -10)
        CFI (cfiCond200) R2 Frame(CFA_Y, -9)
        CFI (cfiCond200) R3 Frame(CFA_Y, -8)
        CFI (cfiCond200) R30 Frame(CFA_Y, -7)
        CFI (cfiCond200) R31 Frame(CFA_Y, -6)
        CFI (cfiCond200) R24 Frame(CFA_Y, -5)
        CFI (cfiCond200) R25 Frame(CFA_Y, -4)
        CFI (cfiCond200) R26 Frame(CFA_Y, -3)
        CFI (cfiCond200) R27 Frame(CFA_Y, -2)
        CFI (cfiCond200) R4 Frame(CFA_Y, -1)
        CFI (cfiCond200) CFA_SP SP+6
        CFI (cfiCond200) CFA_Y Y+19
        CFI Block cfiCond201 Using cfiCommon2
        CFI (cfiCond201) NoFunction
        CFI (cfiCond201) Conditional ??CrossCallReturnLabel_224
        CFI (cfiCond201) R16 Frame(CFA_Y, -19)
        CFI (cfiCond201) R17 Frame(CFA_Y, -18)
        CFI (cfiCond201) R18 Frame(CFA_Y, -17)
        CFI (cfiCond201) R19 Frame(CFA_Y, -16)
        CFI (cfiCond201) R20 Frame(CFA_Y, -15)
        CFI (cfiCond201) R21 Frame(CFA_Y, -14)
        CFI (cfiCond201) R22 Frame(CFA_Y, -13)
        CFI (cfiCond201) R23 Frame(CFA_Y, -12)
        CFI (cfiCond201) R0 Frame(CFA_Y, -11)
        CFI (cfiCond201) R1 Frame(CFA_Y, -10)
        CFI (cfiCond201) R2 Frame(CFA_Y, -9)
        CFI (cfiCond201) R3 Frame(CFA_Y, -8)
        CFI (cfiCond201) R30 Frame(CFA_Y, -7)
        CFI (cfiCond201) R31 Frame(CFA_Y, -6)
        CFI (cfiCond201) R24 Frame(CFA_Y, -5)
        CFI (cfiCond201) R25 Frame(CFA_Y, -4)
        CFI (cfiCond201) R26 Frame(CFA_Y, -3)
        CFI (cfiCond201) R27 Frame(CFA_Y, -2)
        CFI (cfiCond201) R4 Frame(CFA_Y, -1)
        CFI (cfiCond201) CFA_SP SP+6
        CFI (cfiCond201) CFA_Y Y+19
        CFI Block cfiCond202 Using cfiCommon2
        CFI (cfiCond202) NoFunction
        CFI (cfiCond202) Conditional ??CrossCallReturnLabel_225
        CFI (cfiCond202) R16 Frame(CFA_Y, -19)
        CFI (cfiCond202) R17 Frame(CFA_Y, -18)
        CFI (cfiCond202) R18 Frame(CFA_Y, -17)
        CFI (cfiCond202) R19 Frame(CFA_Y, -16)
        CFI (cfiCond202) R20 Frame(CFA_Y, -15)
        CFI (cfiCond202) R21 Frame(CFA_Y, -14)
        CFI (cfiCond202) R22 Frame(CFA_Y, -13)
        CFI (cfiCond202) R23 Frame(CFA_Y, -12)
        CFI (cfiCond202) R0 Frame(CFA_Y, -11)
        CFI (cfiCond202) R1 Frame(CFA_Y, -10)
        CFI (cfiCond202) R2 Frame(CFA_Y, -9)
        CFI (cfiCond202) R3 Frame(CFA_Y, -8)
        CFI (cfiCond202) R30 Frame(CFA_Y, -7)
        CFI (cfiCond202) R31 Frame(CFA_Y, -6)
        CFI (cfiCond202) R24 Frame(CFA_Y, -5)
        CFI (cfiCond202) R25 Frame(CFA_Y, -4)
        CFI (cfiCond202) R26 Frame(CFA_Y, -3)
        CFI (cfiCond202) R27 Frame(CFA_Y, -2)
        CFI (cfiCond202) R4 Frame(CFA_Y, -1)
        CFI (cfiCond202) CFA_SP SP+6
        CFI (cfiCond202) CFA_Y Y+19
        CFI Block cfiCond203 Using cfiCommon2
        CFI (cfiCond203) NoFunction
        CFI (cfiCond203) Conditional ??CrossCallReturnLabel_226
        CFI (cfiCond203) R16 Frame(CFA_Y, -19)
        CFI (cfiCond203) R17 Frame(CFA_Y, -18)
        CFI (cfiCond203) R18 Frame(CFA_Y, -17)
        CFI (cfiCond203) R19 Frame(CFA_Y, -16)
        CFI (cfiCond203) R20 Frame(CFA_Y, -15)
        CFI (cfiCond203) R21 Frame(CFA_Y, -14)
        CFI (cfiCond203) R22 Frame(CFA_Y, -13)
        CFI (cfiCond203) R23 Frame(CFA_Y, -12)
        CFI (cfiCond203) R0 Frame(CFA_Y, -11)
        CFI (cfiCond203) R1 Frame(CFA_Y, -10)
        CFI (cfiCond203) R2 Frame(CFA_Y, -9)
        CFI (cfiCond203) R3 Frame(CFA_Y, -8)
        CFI (cfiCond203) R30 Frame(CFA_Y, -7)
        CFI (cfiCond203) R31 Frame(CFA_Y, -6)
        CFI (cfiCond203) R24 Frame(CFA_Y, -5)
        CFI (cfiCond203) R25 Frame(CFA_Y, -4)
        CFI (cfiCond203) R26 Frame(CFA_Y, -3)
        CFI (cfiCond203) R27 Frame(CFA_Y, -2)
        CFI (cfiCond203) R4 Frame(CFA_Y, -1)
        CFI (cfiCond203) CFA_SP SP+6
        CFI (cfiCond203) CFA_Y Y+19
        CFI Block cfiCond204 Using cfiCommon2
        CFI (cfiCond204) NoFunction
        CFI (cfiCond204) Conditional ??CrossCallReturnLabel_227
        CFI (cfiCond204) R16 Frame(CFA_Y, -19)
        CFI (cfiCond204) R17 Frame(CFA_Y, -18)
        CFI (cfiCond204) R18 Frame(CFA_Y, -17)
        CFI (cfiCond204) R19 Frame(CFA_Y, -16)
        CFI (cfiCond204) R20 Frame(CFA_Y, -15)
        CFI (cfiCond204) R21 Frame(CFA_Y, -14)
        CFI (cfiCond204) R22 Frame(CFA_Y, -13)
        CFI (cfiCond204) R23 Frame(CFA_Y, -12)
        CFI (cfiCond204) R0 Frame(CFA_Y, -11)
        CFI (cfiCond204) R1 Frame(CFA_Y, -10)
        CFI (cfiCond204) R2 Frame(CFA_Y, -9)
        CFI (cfiCond204) R3 Frame(CFA_Y, -8)
        CFI (cfiCond204) R30 Frame(CFA_Y, -7)
        CFI (cfiCond204) R31 Frame(CFA_Y, -6)
        CFI (cfiCond204) R24 Frame(CFA_Y, -5)
        CFI (cfiCond204) R25 Frame(CFA_Y, -4)
        CFI (cfiCond204) R26 Frame(CFA_Y, -3)
        CFI (cfiCond204) R27 Frame(CFA_Y, -2)
        CFI (cfiCond204) R4 Frame(CFA_Y, -1)
        CFI (cfiCond204) CFA_SP SP+6
        CFI (cfiCond204) CFA_Y Y+19
        CFI Block cfiCond205 Using cfiCommon2
        CFI (cfiCond205) NoFunction
        CFI (cfiCond205) Conditional ??CrossCallReturnLabel_228
        CFI (cfiCond205) R16 Frame(CFA_Y, -19)
        CFI (cfiCond205) R17 Frame(CFA_Y, -18)
        CFI (cfiCond205) R18 Frame(CFA_Y, -17)
        CFI (cfiCond205) R19 Frame(CFA_Y, -16)
        CFI (cfiCond205) R20 Frame(CFA_Y, -15)
        CFI (cfiCond205) R21 Frame(CFA_Y, -14)
        CFI (cfiCond205) R22 Frame(CFA_Y, -13)
        CFI (cfiCond205) R23 Frame(CFA_Y, -12)
        CFI (cfiCond205) R0 Frame(CFA_Y, -11)
        CFI (cfiCond205) R1 Frame(CFA_Y, -10)
        CFI (cfiCond205) R2 Frame(CFA_Y, -9)
        CFI (cfiCond205) R3 Frame(CFA_Y, -8)
        CFI (cfiCond205) R30 Frame(CFA_Y, -7)
        CFI (cfiCond205) R31 Frame(CFA_Y, -6)
        CFI (cfiCond205) R24 Frame(CFA_Y, -5)
        CFI (cfiCond205) R25 Frame(CFA_Y, -4)
        CFI (cfiCond205) R26 Frame(CFA_Y, -3)
        CFI (cfiCond205) R27 Frame(CFA_Y, -2)
        CFI (cfiCond205) R4 Frame(CFA_Y, -1)
        CFI (cfiCond205) CFA_SP SP+6
        CFI (cfiCond205) CFA_Y Y+19
        CFI Block cfiCond206 Using cfiCommon2
        CFI (cfiCond206) NoFunction
        CFI (cfiCond206) Conditional ??CrossCallReturnLabel_229
        CFI (cfiCond206) R16 Frame(CFA_Y, -19)
        CFI (cfiCond206) R17 Frame(CFA_Y, -18)
        CFI (cfiCond206) R18 Frame(CFA_Y, -17)
        CFI (cfiCond206) R19 Frame(CFA_Y, -16)
        CFI (cfiCond206) R20 Frame(CFA_Y, -15)
        CFI (cfiCond206) R21 Frame(CFA_Y, -14)
        CFI (cfiCond206) R22 Frame(CFA_Y, -13)
        CFI (cfiCond206) R23 Frame(CFA_Y, -12)
        CFI (cfiCond206) R0 Frame(CFA_Y, -11)
        CFI (cfiCond206) R1 Frame(CFA_Y, -10)
        CFI (cfiCond206) R2 Frame(CFA_Y, -9)
        CFI (cfiCond206) R3 Frame(CFA_Y, -8)
        CFI (cfiCond206) R30 Frame(CFA_Y, -7)
        CFI (cfiCond206) R31 Frame(CFA_Y, -6)
        CFI (cfiCond206) R24 Frame(CFA_Y, -5)
        CFI (cfiCond206) R25 Frame(CFA_Y, -4)
        CFI (cfiCond206) R26 Frame(CFA_Y, -3)
        CFI (cfiCond206) R27 Frame(CFA_Y, -2)
        CFI (cfiCond206) R4 Frame(CFA_Y, -1)
        CFI (cfiCond206) CFA_SP SP+6
        CFI (cfiCond206) CFA_Y Y+19
        CFI Block cfiCond207 Using cfiCommon2
        CFI (cfiCond207) NoFunction
        CFI (cfiCond207) Conditional ??CrossCallReturnLabel_218
        CFI (cfiCond207) R16 Frame(CFA_Y, -19)
        CFI (cfiCond207) R17 Frame(CFA_Y, -18)
        CFI (cfiCond207) R18 Frame(CFA_Y, -17)
        CFI (cfiCond207) R19 Frame(CFA_Y, -16)
        CFI (cfiCond207) R20 Frame(CFA_Y, -15)
        CFI (cfiCond207) R21 Frame(CFA_Y, -14)
        CFI (cfiCond207) R22 Frame(CFA_Y, -13)
        CFI (cfiCond207) R23 Frame(CFA_Y, -12)
        CFI (cfiCond207) R0 Frame(CFA_Y, -11)
        CFI (cfiCond207) R1 Frame(CFA_Y, -10)
        CFI (cfiCond207) R2 Frame(CFA_Y, -9)
        CFI (cfiCond207) R3 Frame(CFA_Y, -8)
        CFI (cfiCond207) R30 Frame(CFA_Y, -7)
        CFI (cfiCond207) R31 Frame(CFA_Y, -6)
        CFI (cfiCond207) R24 Frame(CFA_Y, -5)
        CFI (cfiCond207) R25 Frame(CFA_Y, -4)
        CFI (cfiCond207) R26 Frame(CFA_Y, -3)
        CFI (cfiCond207) R27 Frame(CFA_Y, -2)
        CFI (cfiCond207) R4 Frame(CFA_Y, -1)
        CFI (cfiCond207) CFA_SP SP+6
        CFI (cfiCond207) CFA_Y Y+19
        CFI Block cfiCond208 Using cfiCommon2
        CFI (cfiCond208) NoFunction
        CFI (cfiCond208) Conditional ??CrossCallReturnLabel_219
        CFI (cfiCond208) R16 Frame(CFA_Y, -21)
        CFI (cfiCond208) R17 Frame(CFA_Y, -20)
        CFI (cfiCond208) R18 Frame(CFA_Y, -19)
        CFI (cfiCond208) R19 Frame(CFA_Y, -18)
        CFI (cfiCond208) R20 Frame(CFA_Y, -17)
        CFI (cfiCond208) R21 Frame(CFA_Y, -16)
        CFI (cfiCond208) R22 Frame(CFA_Y, -15)
        CFI (cfiCond208) R23 Frame(CFA_Y, -14)
        CFI (cfiCond208) R0 Frame(CFA_Y, -13)
        CFI (cfiCond208) R1 Frame(CFA_Y, -12)
        CFI (cfiCond208) R2 Frame(CFA_Y, -11)
        CFI (cfiCond208) R3 Frame(CFA_Y, -10)
        CFI (cfiCond208) R30 Frame(CFA_Y, -9)
        CFI (cfiCond208) R31 Frame(CFA_Y, -8)
        CFI (cfiCond208) R24 Frame(CFA_Y, -7)
        CFI (cfiCond208) R25 Frame(CFA_Y, -6)
        CFI (cfiCond208) R26 Frame(CFA_Y, -5)
        CFI (cfiCond208) R27 Frame(CFA_Y, -4)
        CFI (cfiCond208) R4 Frame(CFA_Y, -3)
        CFI (cfiCond208) R5 Frame(CFA_Y, -2)
        CFI (cfiCond208) R6 Frame(CFA_Y, -1)
        CFI (cfiCond208) CFA_SP SP+6
        CFI (cfiCond208) CFA_Y Y+21
        CFI Block cfiCond209 Using cfiCommon2
        CFI (cfiCond209) NoFunction
        CFI (cfiCond209) Conditional ??CrossCallReturnLabel_216
        CFI (cfiCond209) R16 Frame(CFA_Y, -19)
        CFI (cfiCond209) R17 Frame(CFA_Y, -18)
        CFI (cfiCond209) R18 Frame(CFA_Y, -17)
        CFI (cfiCond209) R19 Frame(CFA_Y, -16)
        CFI (cfiCond209) R20 Frame(CFA_Y, -15)
        CFI (cfiCond209) R21 Frame(CFA_Y, -14)
        CFI (cfiCond209) R22 Frame(CFA_Y, -13)
        CFI (cfiCond209) R23 Frame(CFA_Y, -12)
        CFI (cfiCond209) R0 Frame(CFA_Y, -11)
        CFI (cfiCond209) R1 Frame(CFA_Y, -10)
        CFI (cfiCond209) R2 Frame(CFA_Y, -9)
        CFI (cfiCond209) R3 Frame(CFA_Y, -8)
        CFI (cfiCond209) R30 Frame(CFA_Y, -7)
        CFI (cfiCond209) R31 Frame(CFA_Y, -6)
        CFI (cfiCond209) R24 Frame(CFA_Y, -5)
        CFI (cfiCond209) R25 Frame(CFA_Y, -4)
        CFI (cfiCond209) R26 Frame(CFA_Y, -3)
        CFI (cfiCond209) R27 Frame(CFA_Y, -2)
        CFI (cfiCond209) R4 Frame(CFA_Y, -1)
        CFI (cfiCond209) CFA_SP SP+6
        CFI (cfiCond209) CFA_Y Y+19
        CFI Block cfiCond210 Using cfiCommon2
        CFI (cfiCond210) NoFunction
        CFI (cfiCond210) Conditional ??CrossCallReturnLabel_217
        CFI (cfiCond210) R16 Frame(CFA_Y, -19)
        CFI (cfiCond210) R17 Frame(CFA_Y, -18)
        CFI (cfiCond210) R18 Frame(CFA_Y, -17)
        CFI (cfiCond210) R19 Frame(CFA_Y, -16)
        CFI (cfiCond210) R20 Frame(CFA_Y, -15)
        CFI (cfiCond210) R21 Frame(CFA_Y, -14)
        CFI (cfiCond210) R22 Frame(CFA_Y, -13)
        CFI (cfiCond210) R23 Frame(CFA_Y, -12)
        CFI (cfiCond210) R0 Frame(CFA_Y, -11)
        CFI (cfiCond210) R1 Frame(CFA_Y, -10)
        CFI (cfiCond210) R2 Frame(CFA_Y, -9)
        CFI (cfiCond210) R3 Frame(CFA_Y, -8)
        CFI (cfiCond210) R30 Frame(CFA_Y, -7)
        CFI (cfiCond210) R31 Frame(CFA_Y, -6)
        CFI (cfiCond210) R24 Frame(CFA_Y, -5)
        CFI (cfiCond210) R25 Frame(CFA_Y, -4)
        CFI (cfiCond210) R26 Frame(CFA_Y, -3)
        CFI (cfiCond210) R27 Frame(CFA_Y, -2)
        CFI (cfiCond210) R4 Frame(CFA_Y, -1)
        CFI (cfiCond210) CFA_SP SP+6
        CFI (cfiCond210) CFA_Y Y+19
        CFI Block cfiCond211 Using cfiCommon2
        CFI (cfiCond211) NoFunction
        CFI (cfiCond211) Conditional ??CrossCallReturnLabel_230
        CFI (cfiCond211) R16 Frame(CFA_Y, -19)
        CFI (cfiCond211) R17 Frame(CFA_Y, -18)
        CFI (cfiCond211) R18 Frame(CFA_Y, -17)
        CFI (cfiCond211) R19 Frame(CFA_Y, -16)
        CFI (cfiCond211) R20 Frame(CFA_Y, -15)
        CFI (cfiCond211) R21 Frame(CFA_Y, -14)
        CFI (cfiCond211) R22 Frame(CFA_Y, -13)
        CFI (cfiCond211) R23 Frame(CFA_Y, -12)
        CFI (cfiCond211) R0 Frame(CFA_Y, -11)
        CFI (cfiCond211) R1 Frame(CFA_Y, -10)
        CFI (cfiCond211) R2 Frame(CFA_Y, -9)
        CFI (cfiCond211) R3 Frame(CFA_Y, -8)
        CFI (cfiCond211) R30 Frame(CFA_Y, -7)
        CFI (cfiCond211) R31 Frame(CFA_Y, -6)
        CFI (cfiCond211) R24 Frame(CFA_Y, -5)
        CFI (cfiCond211) R25 Frame(CFA_Y, -4)
        CFI (cfiCond211) R26 Frame(CFA_Y, -3)
        CFI (cfiCond211) R27 Frame(CFA_Y, -2)
        CFI (cfiCond211) R4 Frame(CFA_Y, -1)
        CFI (cfiCond211) CFA_SP SP+6
        CFI (cfiCond211) CFA_Y Y+19
        CFI Block cfiCond212 Using cfiCommon2
        CFI (cfiCond212) NoFunction
        CFI (cfiCond212) Conditional ??CrossCallReturnLabel_231
        CFI (cfiCond212) R16 Frame(CFA_Y, -19)
        CFI (cfiCond212) R17 Frame(CFA_Y, -18)
        CFI (cfiCond212) R18 Frame(CFA_Y, -17)
        CFI (cfiCond212) R19 Frame(CFA_Y, -16)
        CFI (cfiCond212) R20 Frame(CFA_Y, -15)
        CFI (cfiCond212) R21 Frame(CFA_Y, -14)
        CFI (cfiCond212) R22 Frame(CFA_Y, -13)
        CFI (cfiCond212) R23 Frame(CFA_Y, -12)
        CFI (cfiCond212) R0 Frame(CFA_Y, -11)
        CFI (cfiCond212) R1 Frame(CFA_Y, -10)
        CFI (cfiCond212) R2 Frame(CFA_Y, -9)
        CFI (cfiCond212) R3 Frame(CFA_Y, -8)
        CFI (cfiCond212) R30 Frame(CFA_Y, -7)
        CFI (cfiCond212) R31 Frame(CFA_Y, -6)
        CFI (cfiCond212) R24 Frame(CFA_Y, -5)
        CFI (cfiCond212) R25 Frame(CFA_Y, -4)
        CFI (cfiCond212) R26 Frame(CFA_Y, -3)
        CFI (cfiCond212) R27 Frame(CFA_Y, -2)
        CFI (cfiCond212) R4 Frame(CFA_Y, -1)
        CFI (cfiCond212) CFA_SP SP+6
        CFI (cfiCond212) CFA_Y Y+19
        CFI Block cfiCond213 Using cfiCommon2
        CFI (cfiCond213) NoFunction
        CFI (cfiCond213) Conditional ??CrossCallReturnLabel_232
        CFI (cfiCond213) R16 Frame(CFA_Y, -19)
        CFI (cfiCond213) R17 Frame(CFA_Y, -18)
        CFI (cfiCond213) R18 Frame(CFA_Y, -17)
        CFI (cfiCond213) R19 Frame(CFA_Y, -16)
        CFI (cfiCond213) R20 Frame(CFA_Y, -15)
        CFI (cfiCond213) R21 Frame(CFA_Y, -14)
        CFI (cfiCond213) R22 Frame(CFA_Y, -13)
        CFI (cfiCond213) R23 Frame(CFA_Y, -12)
        CFI (cfiCond213) R0 Frame(CFA_Y, -11)
        CFI (cfiCond213) R1 Frame(CFA_Y, -10)
        CFI (cfiCond213) R2 Frame(CFA_Y, -9)
        CFI (cfiCond213) R3 Frame(CFA_Y, -8)
        CFI (cfiCond213) R30 Frame(CFA_Y, -7)
        CFI (cfiCond213) R31 Frame(CFA_Y, -6)
        CFI (cfiCond213) R24 Frame(CFA_Y, -5)
        CFI (cfiCond213) R25 Frame(CFA_Y, -4)
        CFI (cfiCond213) R26 Frame(CFA_Y, -3)
        CFI (cfiCond213) R27 Frame(CFA_Y, -2)
        CFI (cfiCond213) R4 Frame(CFA_Y, -1)
        CFI (cfiCond213) CFA_SP SP+6
        CFI (cfiCond213) CFA_Y Y+19
        CFI Block cfiCond214 Using cfiCommon2
        CFI (cfiCond214) NoFunction
        CFI (cfiCond214) Conditional ??CrossCallReturnLabel_233
        CFI (cfiCond214) R16 Frame(CFA_Y, -19)
        CFI (cfiCond214) R17 Frame(CFA_Y, -18)
        CFI (cfiCond214) R18 Frame(CFA_Y, -17)
        CFI (cfiCond214) R19 Frame(CFA_Y, -16)
        CFI (cfiCond214) R20 Frame(CFA_Y, -15)
        CFI (cfiCond214) R21 Frame(CFA_Y, -14)
        CFI (cfiCond214) R22 Frame(CFA_Y, -13)
        CFI (cfiCond214) R23 Frame(CFA_Y, -12)
        CFI (cfiCond214) R0 Frame(CFA_Y, -11)
        CFI (cfiCond214) R1 Frame(CFA_Y, -10)
        CFI (cfiCond214) R2 Frame(CFA_Y, -9)
        CFI (cfiCond214) R3 Frame(CFA_Y, -8)
        CFI (cfiCond214) R30 Frame(CFA_Y, -7)
        CFI (cfiCond214) R31 Frame(CFA_Y, -6)
        CFI (cfiCond214) R24 Frame(CFA_Y, -5)
        CFI (cfiCond214) R25 Frame(CFA_Y, -4)
        CFI (cfiCond214) R26 Frame(CFA_Y, -3)
        CFI (cfiCond214) R27 Frame(CFA_Y, -2)
        CFI (cfiCond214) R4 Frame(CFA_Y, -1)
        CFI (cfiCond214) CFA_SP SP+6
        CFI (cfiCond214) CFA_Y Y+19
        CFI Block cfiCond215 Using cfiCommon2
        CFI (cfiCond215) NoFunction
        CFI (cfiCond215) Conditional ??CrossCallReturnLabel_234
        CFI (cfiCond215) R16 Frame(CFA_Y, -19)
        CFI (cfiCond215) R17 Frame(CFA_Y, -18)
        CFI (cfiCond215) R18 Frame(CFA_Y, -17)
        CFI (cfiCond215) R19 Frame(CFA_Y, -16)
        CFI (cfiCond215) R20 Frame(CFA_Y, -15)
        CFI (cfiCond215) R21 Frame(CFA_Y, -14)
        CFI (cfiCond215) R22 Frame(CFA_Y, -13)
        CFI (cfiCond215) R23 Frame(CFA_Y, -12)
        CFI (cfiCond215) R0 Frame(CFA_Y, -11)
        CFI (cfiCond215) R1 Frame(CFA_Y, -10)
        CFI (cfiCond215) R2 Frame(CFA_Y, -9)
        CFI (cfiCond215) R3 Frame(CFA_Y, -8)
        CFI (cfiCond215) R30 Frame(CFA_Y, -7)
        CFI (cfiCond215) R31 Frame(CFA_Y, -6)
        CFI (cfiCond215) R24 Frame(CFA_Y, -5)
        CFI (cfiCond215) R25 Frame(CFA_Y, -4)
        CFI (cfiCond215) R26 Frame(CFA_Y, -3)
        CFI (cfiCond215) R27 Frame(CFA_Y, -2)
        CFI (cfiCond215) R4 Frame(CFA_Y, -1)
        CFI (cfiCond215) CFA_SP SP+6
        CFI (cfiCond215) CFA_Y Y+19
        CFI Block cfiCond216 Using cfiCommon2
        CFI (cfiCond216) NoFunction
        CFI (cfiCond216) Conditional ??CrossCallReturnLabel_235
        CFI (cfiCond216) R16 Frame(CFA_Y, -19)
        CFI (cfiCond216) R17 Frame(CFA_Y, -18)
        CFI (cfiCond216) R18 Frame(CFA_Y, -17)
        CFI (cfiCond216) R19 Frame(CFA_Y, -16)
        CFI (cfiCond216) R20 Frame(CFA_Y, -15)
        CFI (cfiCond216) R21 Frame(CFA_Y, -14)
        CFI (cfiCond216) R22 Frame(CFA_Y, -13)
        CFI (cfiCond216) R23 Frame(CFA_Y, -12)
        CFI (cfiCond216) R0 Frame(CFA_Y, -11)
        CFI (cfiCond216) R1 Frame(CFA_Y, -10)
        CFI (cfiCond216) R2 Frame(CFA_Y, -9)
        CFI (cfiCond216) R3 Frame(CFA_Y, -8)
        CFI (cfiCond216) R30 Frame(CFA_Y, -7)
        CFI (cfiCond216) R31 Frame(CFA_Y, -6)
        CFI (cfiCond216) R24 Frame(CFA_Y, -5)
        CFI (cfiCond216) R25 Frame(CFA_Y, -4)
        CFI (cfiCond216) R26 Frame(CFA_Y, -3)
        CFI (cfiCond216) R27 Frame(CFA_Y, -2)
        CFI (cfiCond216) R4 Frame(CFA_Y, -1)
        CFI (cfiCond216) CFA_SP SP+6
        CFI (cfiCond216) CFA_Y Y+19
        CFI Block cfiCond217 Using cfiCommon2
        CFI (cfiCond217) NoFunction
        CFI (cfiCond217) Conditional ??CrossCallReturnLabel_236
        CFI (cfiCond217) R16 Frame(CFA_Y, -19)
        CFI (cfiCond217) R17 Frame(CFA_Y, -18)
        CFI (cfiCond217) R18 Frame(CFA_Y, -17)
        CFI (cfiCond217) R19 Frame(CFA_Y, -16)
        CFI (cfiCond217) R20 Frame(CFA_Y, -15)
        CFI (cfiCond217) R21 Frame(CFA_Y, -14)
        CFI (cfiCond217) R22 Frame(CFA_Y, -13)
        CFI (cfiCond217) R23 Frame(CFA_Y, -12)
        CFI (cfiCond217) R0 Frame(CFA_Y, -11)
        CFI (cfiCond217) R1 Frame(CFA_Y, -10)
        CFI (cfiCond217) R2 Frame(CFA_Y, -9)
        CFI (cfiCond217) R3 Frame(CFA_Y, -8)
        CFI (cfiCond217) R30 Frame(CFA_Y, -7)
        CFI (cfiCond217) R31 Frame(CFA_Y, -6)
        CFI (cfiCond217) R24 Frame(CFA_Y, -5)
        CFI (cfiCond217) R25 Frame(CFA_Y, -4)
        CFI (cfiCond217) R26 Frame(CFA_Y, -3)
        CFI (cfiCond217) R27 Frame(CFA_Y, -2)
        CFI (cfiCond217) R4 Frame(CFA_Y, -1)
        CFI (cfiCond217) CFA_SP SP+6
        CFI (cfiCond217) CFA_Y Y+19
        CFI Block cfiCond218 Using cfiCommon2
        CFI (cfiCond218) NoFunction
        CFI (cfiCond218) Conditional ??CrossCallReturnLabel_237
        CFI (cfiCond218) R16 Frame(CFA_Y, -19)
        CFI (cfiCond218) R17 Frame(CFA_Y, -18)
        CFI (cfiCond218) R18 Frame(CFA_Y, -17)
        CFI (cfiCond218) R19 Frame(CFA_Y, -16)
        CFI (cfiCond218) R20 Frame(CFA_Y, -15)
        CFI (cfiCond218) R21 Frame(CFA_Y, -14)
        CFI (cfiCond218) R22 Frame(CFA_Y, -13)
        CFI (cfiCond218) R23 Frame(CFA_Y, -12)
        CFI (cfiCond218) R0 Frame(CFA_Y, -11)
        CFI (cfiCond218) R1 Frame(CFA_Y, -10)
        CFI (cfiCond218) R2 Frame(CFA_Y, -9)
        CFI (cfiCond218) R3 Frame(CFA_Y, -8)
        CFI (cfiCond218) R30 Frame(CFA_Y, -7)
        CFI (cfiCond218) R31 Frame(CFA_Y, -6)
        CFI (cfiCond218) R24 Frame(CFA_Y, -5)
        CFI (cfiCond218) R25 Frame(CFA_Y, -4)
        CFI (cfiCond218) R26 Frame(CFA_Y, -3)
        CFI (cfiCond218) R27 Frame(CFA_Y, -2)
        CFI (cfiCond218) R4 Frame(CFA_Y, -1)
        CFI (cfiCond218) CFA_SP SP+6
        CFI (cfiCond218) CFA_Y Y+19
        CFI Block cfiCond219 Using cfiCommon2
        CFI (cfiCond219) NoFunction
        CFI (cfiCond219) Conditional ??CrossCallReturnLabel_238
        CFI (cfiCond219) R16 Frame(CFA_Y, -19)
        CFI (cfiCond219) R17 Frame(CFA_Y, -18)
        CFI (cfiCond219) R18 Frame(CFA_Y, -17)
        CFI (cfiCond219) R19 Frame(CFA_Y, -16)
        CFI (cfiCond219) R20 Frame(CFA_Y, -15)
        CFI (cfiCond219) R21 Frame(CFA_Y, -14)
        CFI (cfiCond219) R22 Frame(CFA_Y, -13)
        CFI (cfiCond219) R23 Frame(CFA_Y, -12)
        CFI (cfiCond219) R0 Frame(CFA_Y, -11)
        CFI (cfiCond219) R1 Frame(CFA_Y, -10)
        CFI (cfiCond219) R2 Frame(CFA_Y, -9)
        CFI (cfiCond219) R3 Frame(CFA_Y, -8)
        CFI (cfiCond219) R30 Frame(CFA_Y, -7)
        CFI (cfiCond219) R31 Frame(CFA_Y, -6)
        CFI (cfiCond219) R24 Frame(CFA_Y, -5)
        CFI (cfiCond219) R25 Frame(CFA_Y, -4)
        CFI (cfiCond219) R26 Frame(CFA_Y, -3)
        CFI (cfiCond219) R27 Frame(CFA_Y, -2)
        CFI (cfiCond219) R4 Frame(CFA_Y, -1)
        CFI (cfiCond219) CFA_SP SP+6
        CFI (cfiCond219) CFA_Y Y+19
        CFI Block cfiCond220 Using cfiCommon2
        CFI (cfiCond220) NoFunction
        CFI (cfiCond220) Conditional ??CrossCallReturnLabel_239
        CFI (cfiCond220) R16 Frame(CFA_Y, -19)
        CFI (cfiCond220) R17 Frame(CFA_Y, -18)
        CFI (cfiCond220) R18 Frame(CFA_Y, -17)
        CFI (cfiCond220) R19 Frame(CFA_Y, -16)
        CFI (cfiCond220) R20 Frame(CFA_Y, -15)
        CFI (cfiCond220) R21 Frame(CFA_Y, -14)
        CFI (cfiCond220) R22 Frame(CFA_Y, -13)
        CFI (cfiCond220) R23 Frame(CFA_Y, -12)
        CFI (cfiCond220) R0 Frame(CFA_Y, -11)
        CFI (cfiCond220) R1 Frame(CFA_Y, -10)
        CFI (cfiCond220) R2 Frame(CFA_Y, -9)
        CFI (cfiCond220) R3 Frame(CFA_Y, -8)
        CFI (cfiCond220) R30 Frame(CFA_Y, -7)
        CFI (cfiCond220) R31 Frame(CFA_Y, -6)
        CFI (cfiCond220) R24 Frame(CFA_Y, -5)
        CFI (cfiCond220) R25 Frame(CFA_Y, -4)
        CFI (cfiCond220) R26 Frame(CFA_Y, -3)
        CFI (cfiCond220) R27 Frame(CFA_Y, -2)
        CFI (cfiCond220) R4 Frame(CFA_Y, -1)
        CFI (cfiCond220) CFA_SP SP+6
        CFI (cfiCond220) CFA_Y Y+19
        CFI Block cfiCond221 Using cfiCommon2
        CFI (cfiCond221) NoFunction
        CFI (cfiCond221) Conditional ??CrossCallReturnLabel_240
        CFI (cfiCond221) R16 Frame(CFA_Y, -7)
        CFI (cfiCond221) R17 Frame(CFA_Y, -6)
        CFI (cfiCond221) R18 Frame(CFA_Y, -5)
        CFI (cfiCond221) R30 Frame(CFA_Y, -4)
        CFI (cfiCond221) R31 Frame(CFA_Y, -3)
        CFI (cfiCond221) R26 Frame(CFA_Y, -2)
        CFI (cfiCond221) R27 Frame(CFA_Y, -1)
        CFI (cfiCond221) CFA_SP SP+6
        CFI (cfiCond221) CFA_Y Y+7
        CFI Block cfiPicker222 Using cfiCommon1
        CFI (cfiPicker222) NoFunction
        CFI (cfiPicker222) Picker
        OR	R16, R17
        RET
        CFI EndBlock cfiCond197
        CFI EndBlock cfiCond198
        CFI EndBlock cfiCond199
        CFI EndBlock cfiCond200
        CFI EndBlock cfiCond201
        CFI EndBlock cfiCond202
        CFI EndBlock cfiCond203
        CFI EndBlock cfiCond204
        CFI EndBlock cfiCond205
        CFI EndBlock cfiCond206
        CFI EndBlock cfiCond207
        CFI EndBlock cfiCond208
        CFI EndBlock cfiCond209
        CFI EndBlock cfiCond210
        CFI EndBlock cfiCond211
        CFI EndBlock cfiCond212
        CFI EndBlock cfiCond213
        CFI EndBlock cfiCond214
        CFI EndBlock cfiCond215
        CFI EndBlock cfiCond216
        CFI EndBlock cfiCond217
        CFI EndBlock cfiCond218
        CFI EndBlock cfiCond219
        CFI EndBlock cfiCond220
        CFI EndBlock cfiCond221
        CFI EndBlock cfiPicker222

        RSEG CODE:CODE:NOROOT(1)
?Subroutine19:
        CFI Block cfiCond223 Using cfiCommon2
        CFI NoFunction
        CFI Conditional ??CrossCallReturnLabel_37
        CFI CFA_SP SP+6
        CFI Block cfiCond224 Using cfiCommon2
        CFI (cfiCond224) NoFunction
        CFI (cfiCond224) Conditional ??CrossCallReturnLabel_38
        CFI (cfiCond224) CFA_SP SP+6
        CFI Block cfiPicker225 Using cfiCommon1
        CFI (cfiPicker225) NoFunction
        CFI (cfiPicker225) Picker
        ST	-Y, R4
        CFI (cfiCond223) R4 Frame(CFA_Y, -1)
        CFI (cfiCond223) CFA_Y Y+1
        CFI (cfiCond224) R4 Frame(CFA_Y, -1)
        CFI (cfiCond224) CFA_Y Y+1
        CFI (cfiPicker225) R4 Frame(CFA_Y, -1)
        ST	-Y, R27
        CFI (cfiCond223) R27 Frame(CFA_Y, -2)
        CFI (cfiCond223) CFA_Y Y+2
        CFI (cfiCond224) R27 Frame(CFA_Y, -2)
        CFI (cfiCond224) CFA_Y Y+2
        CFI (cfiPicker225) R27 Frame(CFA_Y, -2)
        ST	-Y, R26
        CFI (cfiCond223) R26 Frame(CFA_Y, -3)
        CFI (cfiCond223) CFA_Y Y+3
        CFI (cfiCond224) R26 Frame(CFA_Y, -3)
        CFI (cfiCond224) CFA_Y Y+3
        CFI (cfiPicker225) R26 Frame(CFA_Y, -3)
        ST	-Y, R25
        CFI (cfiCond223) R25 Frame(CFA_Y, -4)
        CFI (cfiCond223) CFA_Y Y+4
        CFI (cfiCond224) R25 Frame(CFA_Y, -4)
        CFI (cfiCond224) CFA_Y Y+4
        CFI (cfiPicker225) R25 Frame(CFA_Y, -4)
        ST	-Y, R24
        CFI (cfiCond223) R24 Frame(CFA_Y, -5)
        CFI (cfiCond223) CFA_Y Y+5
        CFI (cfiCond224) R24 Frame(CFA_Y, -5)
        CFI (cfiCond224) CFA_Y Y+5
        CFI (cfiPicker225) R24 Frame(CFA_Y, -5)
        ST	-Y, R31
        CFI (cfiCond223) R31 Frame(CFA_Y, -6)
        CFI (cfiCond223) CFA_Y Y+6
        CFI (cfiCond224) R31 Frame(CFA_Y, -6)
        CFI (cfiCond224) CFA_Y Y+6
        CFI (cfiPicker225) R31 Frame(CFA_Y, -6)
        ST	-Y, R30
        CFI (cfiCond223) R30 Frame(CFA_Y, -7)
        CFI (cfiCond223) CFA_Y Y+7
        CFI (cfiCond224) R30 Frame(CFA_Y, -7)
        CFI (cfiCond224) CFA_Y Y+7
        CFI (cfiPicker225) R30 Frame(CFA_Y, -7)
        ST	-Y, R3
        CFI (cfiCond223) R3 Frame(CFA_Y, -8)
        CFI (cfiCond223) CFA_Y Y+8
        CFI (cfiCond224) R3 Frame(CFA_Y, -8)
        CFI (cfiCond224) CFA_Y Y+8
        CFI (cfiPicker225) R3 Frame(CFA_Y, -8)
        ST	-Y, R2
        CFI (cfiCond223) R2 Frame(CFA_Y, -9)
        CFI (cfiCond223) CFA_Y Y+9
        CFI (cfiCond224) R2 Frame(CFA_Y, -9)
        CFI (cfiCond224) CFA_Y Y+9
        CFI (cfiPicker225) R2 Frame(CFA_Y, -9)
        ST	-Y, R1
        CFI (cfiCond223) R1 Frame(CFA_Y, -10)
        CFI (cfiCond223) CFA_Y Y+10
        CFI (cfiCond224) R1 Frame(CFA_Y, -10)
        CFI (cfiCond224) CFA_Y Y+10
        CFI (cfiPicker225) R1 Frame(CFA_Y, -10)
        ST	-Y, R0
        CFI (cfiCond223) R0 Frame(CFA_Y, -11)
        CFI (cfiCond223) CFA_Y Y+11
        CFI (cfiCond224) R0 Frame(CFA_Y, -11)
        CFI (cfiCond224) CFA_Y Y+11
        CFI (cfiPicker225) R0 Frame(CFA_Y, -11)
        ST	-Y, R23
        CFI (cfiCond223) R23 Frame(CFA_Y, -12)
        CFI (cfiCond223) CFA_Y Y+12
        CFI (cfiCond224) R23 Frame(CFA_Y, -12)
        CFI (cfiCond224) CFA_Y Y+12
        CFI (cfiPicker225) R23 Frame(CFA_Y, -12)
        ST	-Y, R22
        CFI (cfiCond223) R22 Frame(CFA_Y, -13)
        CFI (cfiCond223) CFA_Y Y+13
        CFI (cfiCond224) R22 Frame(CFA_Y, -13)
        CFI (cfiCond224) CFA_Y Y+13
        CFI (cfiPicker225) R22 Frame(CFA_Y, -13)
        ST	-Y, R21
        CFI (cfiCond223) R21 Frame(CFA_Y, -14)
        CFI (cfiCond223) CFA_Y Y+14
        CFI (cfiCond224) R21 Frame(CFA_Y, -14)
        CFI (cfiCond224) CFA_Y Y+14
        CFI (cfiPicker225) R21 Frame(CFA_Y, -14)
        ST	-Y, R20
        CFI (cfiCond223) R20 Frame(CFA_Y, -15)
        CFI (cfiCond223) CFA_Y Y+15
        CFI (cfiCond224) R20 Frame(CFA_Y, -15)
        CFI (cfiCond224) CFA_Y Y+15
        CFI (cfiPicker225) R20 Frame(CFA_Y, -15)
        ST	-Y, R19
        CFI (cfiCond223) R19 Frame(CFA_Y, -16)
        CFI (cfiCond223) CFA_Y Y+16
        CFI (cfiCond224) R19 Frame(CFA_Y, -16)
        CFI (cfiCond224) CFA_Y Y+16
        CFI (cfiPicker225) R19 Frame(CFA_Y, -16)
        ST	-Y, R18
        CFI (cfiCond223) R18 Frame(CFA_Y, -17)
        CFI (cfiCond223) CFA_Y Y+17
        CFI (cfiCond224) R18 Frame(CFA_Y, -17)
        CFI (cfiCond224) CFA_Y Y+17
        CFI (cfiPicker225) R18 Frame(CFA_Y, -17)
        ST	-Y, R17
        CFI (cfiCond223) R17 Frame(CFA_Y, -18)
        CFI (cfiCond223) CFA_Y Y+18
        CFI (cfiCond224) R17 Frame(CFA_Y, -18)
        CFI (cfiCond224) CFA_Y Y+18
        CFI (cfiPicker225) R17 Frame(CFA_Y, -18)
        ST	-Y, R16
        CFI (cfiCond223) R16 Frame(CFA_Y, -19)
        CFI (cfiCond223) CFA_Y Y+19
        CFI (cfiCond224) R16 Frame(CFA_Y, -19)
        CFI (cfiCond224) CFA_Y Y+19
        CFI (cfiPicker225) R16 Frame(CFA_Y, -19)
        IN	R24, 0x3F
        IN	R25, 0x3B
        IN	R4, 0x3C
        RET
        CFI EndBlock cfiCond223
        CFI EndBlock cfiCond224
        CFI EndBlock cfiPicker225
// 1237  
// 1238 ///////////////////////////////////////////////////////////////////////////////////////////////////
// 1239 
// 1240 
// 1241 
// 1242 
// 1243 /////////////////////////////////////////////////////////////////////////////////////////////////////////
// 1244 #pragma vector=TIMER3_COMPA_vect 

        RSEG CODE:CODE:NOROOT(1)
// 1245      __interrupt void TIMER3_COMPA_interrupt(void)
TIMER3_COMPA_interrupt:
        CFI Block cfiBlock226 Using cfiCommon2
        CFI Function TIMER3_COMPA_interrupt
// 1246     { 
        FUNCALL TIMER3_COMPA_interrupt, lock_it
        LOCFRAME CSTACK, 21, STACK
        LOCFRAME RSTACK, 3, STACK
        FUNCALL TIMER3_COMPA_interrupt, func_crc_tii
        LOCFRAME CSTACK, 21, STACK
        LOCFRAME RSTACK, 3, STACK
        FUNCALL TIMER3_COMPA_interrupt, burst_ds_r
        LOCFRAME CSTACK, 21, STACK
        LOCFRAME RSTACK, 3, STACK
        FUNCALL TIMER3_COMPA_interrupt, crc_m1
        LOCFRAME CSTACK, 21, STACK
        LOCFRAME RSTACK, 3, STACK
        FUNCALL TIMER3_COMPA_interrupt, WrArrayToFlesh
        LOCFRAME CSTACK, 21, STACK
        LOCFRAME RSTACK, 3, STACK
        FUNCALL TIMER3_COMPA_interrupt, lock_it
        LOCFRAME CSTACK, 21, STACK
        LOCFRAME RSTACK, 3, STACK
        RCALL	?Subroutine25
        CFI R26 Frame(CFA_Y, -5)
        CFI R27 Frame(CFA_Y, -4)
        CFI R4 Frame(CFA_Y, -3)
        CFI R5 Frame(CFA_Y, -2)
        CFI R6 Frame(CFA_Y, -1)
        CFI CFA_Y Y+5
??CrossCallReturnLabel_49:
        ST	-Y, R25
        CFI R25 Frame(CFA_Y, -6)
        CFI CFA_Y Y+6
        ST	-Y, R24
        CFI R24 Frame(CFA_Y, -7)
        CFI CFA_Y Y+7
        RCALL	?Subroutine21
        CFI R16 Frame(CFA_Y, -21)
        CFI R17 Frame(CFA_Y, -20)
        CFI R18 Frame(CFA_Y, -19)
        CFI R19 Frame(CFA_Y, -18)
        CFI R20 Frame(CFA_Y, -17)
        CFI R21 Frame(CFA_Y, -16)
        CFI R22 Frame(CFA_Y, -15)
        CFI R23 Frame(CFA_Y, -14)
        CFI R0 Frame(CFA_Y, -13)
        CFI R1 Frame(CFA_Y, -12)
        CFI R2 Frame(CFA_Y, -11)
        CFI R3 Frame(CFA_Y, -10)
        CFI R30 Frame(CFA_Y, -9)
        CFI R31 Frame(CFA_Y, -8)
        CFI CFA_Y Y+21
??CrossCallReturnLabel_41:
        IN	R4, 0x3F
        IN	R5, 0x3B
        IN	R6, 0x3C
        REQUIRE	?Register_R4_is_cg_reg
        REQUIRE	?Register_R5_is_cg_reg
        REQUIRE	?Register_R6_is_cg_reg
// 1247  
// 1248       
// 1249          fl_wdt.from_timer3=1;
        RCALL	?Subroutine26
??CrossCallReturnLabel_57:
        ORI	R16, 0x10
        ST	Z, R16
// 1250          
// 1251          if(cnt_snd<OVER_SND)cnt_snd++;
        LDS	R16, cnt_snd
        CPI	R16, 30
        BRCC	??TIMER3_COMPA_interrupt_0
        LDI	R30, LOW(cnt_snd)
        LDI	R31, (cnt_snd) >> 8
        INC	R16
        ST	Z, R16
// 1252          
// 1253          
// 1254 if (timer_vhod!=0)timer_vhod--;
??TIMER3_COMPA_interrupt_0:
        LDI	R30, LOW(timer_vhod)
        LDI	R31, (timer_vhod) >> 8
        RCALL	?Subroutine31
// 1255 if (timer_autovzat!=0)timer_autovzat--;
??CrossCallReturnLabel_63:
        LDI	R30, LOW(timer_autovzat)
        LDI	R31, (timer_autovzat) >> 8
        RCALL	?Subroutine31
// 1256          
// 1257          
// 1258           if(cnt_tu1!=0)
??CrossCallReturnLabel_64:
        LDI	R30, LOW(struct_tcc1)
        LDI	R31, (struct_tcc1) >> 8
        LDD	R16, Z+32
        TST	R16
        BREQ	??TIMER3_COMPA_interrupt_1
// 1259       {
// 1260         cnt_tu1--;
        DEC	R16
        STD	Z+32, R16
// 1261         if(cnt_tu1==0) {TU1_OFF;}
        BRNE	??TIMER3_COMPA_interrupt_1
        CBI	0x02, 0x04
// 1262       }
// 1263          
// 1264       if(cnt_tu2!=0)
??TIMER3_COMPA_interrupt_1:
        LDD	R16, Z+33
        TST	R16
        BREQ	??TIMER3_COMPA_interrupt_2
// 1265       {
// 1266         cnt_tu2--;
        DEC	R16
        STD	Z+33, R16
// 1267         if(cnt_tu2==0) {TU2_OFF;}
        BRNE	??TIMER3_COMPA_interrupt_2
        CBI	0x02, 0x03
// 1268       }
// 1269          
// 1270          
// 1271          
// 1272          if(time_cnt_ch_time!=0) time_cnt_ch_time--;
??TIMER3_COMPA_interrupt_2:
        LDS	R16, time_cnt_ch_time
        TST	R16
        BREQ	??TIMER3_COMPA_interrupt_3
        DEC	R16
        STS	time_cnt_ch_time, R16
// 1273          
// 1274          cnt_supervosor++;
??TIMER3_COMPA_interrupt_3:
        LDI	R26, LOW(cnt_supervosor)
        LDI	R27, (cnt_supervosor) >> 8
        LD	R16, X+
        LD	R17, X
        RCALL	?Subroutine63
??CrossCallReturnLabel_136:
        ST	X, R17
        ST	-X, R16
// 1275       
// 1276     /*
// 1277     if((PINB & CTS_232)==CTS_232)
// 1278                     { 
// 1279                     cnt_term++;
// 1280                     if(cnt_term>=4)lock_it();
// 1281                     }
// 1282                     else cnt_term=0;
// 1283    */ 
// 1284     
// 1285     
// 1286     //if(count_block_net!=0) count_block_net--;
// 1287      
// 1288              
// 1289          
// 1290          
// 1291       if(struct_tcc1.cnt_block_tc!=0) struct_tcc1.cnt_block_tc--;     
        LDD	R16, Z+5
        TST	R16
        BREQ	??TIMER3_COMPA_interrupt_4
        DEC	R16
        STD	Z+5, R16
// 1292       if(struct_tcc2.cnt_block_tc!=0) struct_tcc2.cnt_block_tc--; 
??TIMER3_COMPA_interrupt_4:
        LDD	R16, Z+11
        TST	R16
        BREQ	??TIMER3_COMPA_interrupt_5
        DEC	R16
        STD	Z+11, R16
// 1293    
// 1294       if(Appl_seq.cntr_cl==TRUE)
??TIMER3_COMPA_interrupt_5:
        LDI	R26, LOW(Appl_seq)
        LDI	R27, (Appl_seq) >> 8
        MOVW	R31:R30, R27:R26
        LDD	R16, Z+20
        CPI	R16, 1
        BRNE	??TIMER3_COMPA_interrupt_6
// 1295       {
// 1296       if(Appl_seq.cnt_cntr_cl!=0) 
        LDD	R16, Z+22
        LDD	R17, Z+23
        OR	R16, R17
        BREQ	??TIMER3_COMPA_interrupt_6
// 1297          {
// 1298          Appl_seq.cnt_cntr_cl--;
        RCALL	?Subroutine43
// 1299          if(Appl_seq.cnt_cntr_cl==0) Appl_seq.en_cntr_cl=TRUE;
??CrossCallReturnLabel_219:
        BRNE	??TIMER3_COMPA_interrupt_6
        LDI	R16, 1
        STD	Z+21, R16
// 1300          } 
// 1301       }
// 1302       
// 1303       
// 1304       if(cnt_stm_tm1==0)goto next_tm00;  
??TIMER3_COMPA_interrupt_6:
        LDS	R16, cnt_stm_tm1
        TST	R16
        BREQ	??TIMER3_COMPA_interrupt_7
// 1305          cnt_stm_tm1--;
        LDI	R30, LOW(cnt_stm_tm1)
        LDI	R31, (cnt_stm_tm1) >> 8
        DEC	R16
        ST	Z, R16
// 1306          if(cnt_stm_tm1==0) event_modem=EVM_TM1;
        BRNE	??TIMER3_COMPA_interrupt_7
        LDI	R16, 1
        STS	event_modem, R16
// 1307  next_tm00:
// 1308    
// 1309    
// 1310    if(cnt_stm_tm2==0)goto next_tm001;  
??TIMER3_COMPA_interrupt_7:
        LDS	R16, cnt_stm_tm2
        TST	R16
        BREQ	??TIMER3_COMPA_interrupt_8
// 1311          cnt_stm_tm2--;
        LDI	R30, LOW(cnt_stm_tm2)
        LDI	R31, (cnt_stm_tm2) >> 8
        DEC	R16
        ST	Z, R16
// 1312          if(cnt_stm_tm2==0) lock_it();
        BRNE	??TIMER3_COMPA_interrupt_8
        CALL	lock_it
// 1313          
// 1314 
// 1315    
// 1316 next_tm001:   
// 1317     
// 1318     if(fl_rewrite.cnt_reset==0)goto next_tm01; 
??TIMER3_COMPA_interrupt_8:
        LDI	R30, LOW(fl_rewrite)
        LDI	R31, (fl_rewrite) >> 8
        LDD	R16, Z+1
        TST	R16
        BREQ	??TIMER3_COMPA_interrupt_9
// 1319     fl_rewrite.cnt_reset--;
        DEC	R16
        STD	Z+1, R16
// 1320     if(fl_rewrite.cnt_reset==0)
        BRNE	??TIMER3_COMPA_interrupt_9
// 1321        {
// 1322         
// 1323          __disable_interrupt();
        CLI
// 1324          
// 1325          crc_tii=func_crc_tii();
        CALL	func_crc_tii
        LDI	R30, LOW(crc_tii)
        LDI	R31, (crc_tii) >> 8
        RCALL	?Subroutine90
// 1326 
// 1327         *(unsigned long int*)&buf_tx_232[0]=burst_ds_r();
??CrossCallReturnLabel_177:
        LDI	R24, LOW(buf_tx_232)
        LDI	R25, (buf_tx_232) >> 8
        CALL	burst_ds_r
        MOVW	R31:R30, R25:R24
        RCALL	?Subroutine90
??CrossCallReturnLabel_178:
        STD	Z+2, R18
        STD	Z+3, R19
// 1328         *(unsigned long int*)&buf_tx_232[4]=cnt_outcom;
        LDI	R30, LOW(cnt_outcom)
        LDI	R31, (cnt_outcom) >> 8
        RCALL	?Subroutine34
??CrossCallReturnLabel_69:
        STD	Z+4, R16
        STD	Z+5, R17
        STD	Z+6, R18
        STD	Z+7, R19
// 1329         *(unsigned long int*)&buf_tx_232[8]=cnt_incom;
        LDI	R30, LOW(cnt_incom)
        LDI	R31, (cnt_incom) >> 8
        RCALL	?Subroutine34
??CrossCallReturnLabel_70:
        STD	Z+8, R16
        STD	Z+9, R17
        STD	Z+10, R18
        STD	Z+11, R19
// 1330         *(unsigned int*)&buf_tx_232[L_TRAF-2]=crc_m1(&buf_tx_232[0],L_TRAF-2,0xffff);
        LDI	R20, 255
        LDI	R21, 255
        LDI	R18, 12
        LDI	R19, 0
        MOVW	R17:R16, R25:R24
        CALL	crc_m1
        MOVW	R31:R30, R25:R24
        STD	Z+12, R16
        STD	Z+13, R17
// 1331         WrArrayToFlesh(A_TRAF, &buf_tx_232[0],L_TRAF,0,0); 
        LDI	R23, 0
        LDI	R22, 0
        LDI	R20, 14
        LDI	R21, 0
        MOVW	R19:R18, R25:R24
        LDI	R16, 254
        LDI	R17, 116
        CALL	WrArrayToFlesh
// 1332         lock_it();   
        CALL	lock_it
// 1333        }       
// 1334 next_tm01: 
// 1335   
// 1336   
// 1337       
// 1338    ///ňŕéěĺđ ęîíňđîë˙ IP
// 1339     if (Appl_seq.tm_vzat==0)goto next_tm0;
??TIMER3_COMPA_interrupt_9:
        MOVW	R31:R30, R27:R26
        LDD	R16, Z+16
        LDD	R17, Z+17
        OR	R16, R17
        BREQ	??TIMER3_COMPA_interrupt_10
// 1340     Appl_seq.tm_vzat--;
        LDD	R16, Z+16
        RCALL	?Subroutine45
??CrossCallReturnLabel_101:
        STD	Z+16, R16
        STD	Z+17, R17
// 1341     if (Appl_seq.tm_vzat==0)Appl_seq.event=EV_TM_OUT;
        OR	R16, R17
        BRNE	??TIMER3_COMPA_interrupt_10
        LDI	R16, 2
        STD	Z+15, R16
// 1342 next_tm0:   
// 1343     
// 1344     
// 1345     
// 1346         if(Appl_seq.cnt_waits==0)goto next_tm1;
??TIMER3_COMPA_interrupt_10:
        LDD	R16, Z+9
        LDD	R17, Z+10
        OR	R16, R17
        BREQ	??CrossCallReturnLabel_124
// 1347         Appl_seq.cnt_waits--;
        LDD	R16, Z+9
        RCALL	?Subroutine45
??CrossCallReturnLabel_102:
        STD	Z+9, R16
        STD	Z+10, R17
// 1348         if(Appl_seq.cnt_waits==0)
        OR	R16, R17
        BRNE	??CrossCallReturnLabel_124
// 1349                { 
// 1350                   
// 1351                    //   Appl_seq.cnt_try++;
// 1352                       fl_appl_seq.kv_waits=0;
// 1353                       fl_appl_seq.en_povtor=1; 
        LDS	R16, fl_appl_seq
        RCALL	?Subroutine71
??CrossCallReturnLabel_152:
        STS	fl_appl_seq, R16
// 1354                       Appl_seq.l_data=0;
        RCALL	?Subroutine55
// 1355                       
// 1356                       /*
// 1357                       if(Appl_seq.cnt_try>=2) 
// 1358                        {
// 1359                        Appl_seq.cnt_cntr_cl=0;
// 1360                        Appl_seq.cntr_cl=TRUE;
// 1361                        Appl_seq.en_cntr_cl=TRUE;
// 1362                        Appl_seq.cnt_try=0;
// 1363                        fl_appl_seq.en_povtor=0;                      
// 1364                        }
// 1365                        */
// 1366                        
// 1367                                       
// 1368                }    
// 1369  next_tm1:   
// 1370     
// 1371     if(fl_ip.ip_tm_cntr_en==1)
??CrossCallReturnLabel_124:
        LDI	R30, LOW(Control)
        LDI	R31, (Control) >> 8
        LDS	R16, fl_ip
        SBRS	R16, 1
        RJMP	??TIMER3_COMPA_interrupt_11
// 1372        {       
// 1373                
// 1374                if(Control.cnt_link==0) goto  next_tm2;
        LDD	R16, Z+4
        LDD	R17, Z+5
        OR	R16, R17
        BREQ	??TIMER3_COMPA_interrupt_11
// 1375                
// 1376                Control.cnt_link--;
        RCALL	?Subroutine44
// 1377                if ( ip_change==1) { ip_change=0; Control.cnt_link=0;}   // ĺńëč ďîěĺí˙ëń˙ IP ňóň ćĺ ďîńëŕňü ęîíňđîëü ęŕíŕëŕ !!!
??CrossCallReturnLabel_90:
        LDS	R16, ip_change
        CPI	R16, 1
        BRNE	??TIMER3_COMPA_interrupt_12
        LDI	R16, 0
        STS	ip_change, R16
        STD	Z+4, R16
        STD	Z+5, R16
        RJMP	??TIMER3_COMPA_interrupt_13
// 1378                if(Control.cnt_link==0)
??TIMER3_COMPA_interrupt_12:
        LDD	R16, Z+4
        OR	R16, R17
        BRNE	??TIMER3_COMPA_interrupt_11
// 1379                { 
// 1380                
// 1381                fl_appl_seq1.enable=1;
??TIMER3_COMPA_interrupt_13:
        LDI	R26, LOW(fl_appl_seq1)
        LDI	R27, (fl_appl_seq1) >> 8
        RCALL	?Subroutine42
// 1382                
// 1383                //Control.cnt_link=Control.vol_link;
// 1384                Control.link=TRUE; 
??CrossCallReturnLabel_215:
        LDI	R16, 1
        STD	Z+2, R16
// 1385                if(Control.link_waits==TRUE)
        LDD	R16, Z+1
        CPI	R16, 1
        BRNE	??TIMER3_COMPA_interrupt_14
// 1386                   {
// 1387                  // if(Control.vol_try!=0)
// 1388                   //   {
// 1389                       Control.cnt_try++;
        LDD	R16, Z+14
        INC	R16
        STD	Z+14, R16
// 1390                       if(Control.cnt_try>=Control.vol_try)
        LDD	R17, Z+15
        CP	R16, R17
        BRCS	??TIMER3_COMPA_interrupt_14
// 1391                        {   
// 1392                        Control.link=FALSE;   
        LDI	R16, 0
        STD	Z+2, R16
// 1393                        event_modem=EVM_MS_LMT;
        LDI	R16, 7
        STS	event_modem, R16
// 1394                        Control.link_no=TRUE;//ďđčçíŕę ńâ˙çč íĺň.
        LDI	R16, 1
        ST	Z, R16
// 1395                        }
// 1396                     // }
// 1397                   }
// 1398                               
// 1399                 Control.link_waits=FALSE;
??TIMER3_COMPA_interrupt_14:
        LDI	R16, 0
        STD	Z+1, R16
// 1400                              
// 1401                }    
// 1402        
// 1403        }
// 1404        
// 1405  next_tm2:  
// 1406    
// 1407        
// 1408        if(fl_ip.ip_tm_nat_en==1)   ///ňŕéěĺđ ęîíňđîë˙ NAT
??TIMER3_COMPA_interrupt_11:
        LDS	R16, fl_ip
        SBRS	R16, 2
        RJMP	??TIMER3_COMPA_interrupt_15
// 1409        {       
// 1410                Control.cnt_nat--;
        LDD	R16, Z+6
        LDD	R17, Z+7
        RCALL	?Subroutine45
??CrossCallReturnLabel_103:
        STD	Z+6, R16
        STD	Z+7, R17
// 1411                if(Control.cnt_nat==0)
        OR	R16, R17
        BRNE	??TIMER3_COMPA_interrupt_15
// 1412                { 
// 1413                 if(simka==SIM_RES)Control.cnt_nat=Control.vol_nat_r;else Control.cnt_nat=Control.vol_nat;
        LDS	R16, simka
        CPI	R16, 1
        BRNE	??TIMER3_COMPA_interrupt_16
        LDD	R16, Z+16
        LDD	R17, Z+17
        RJMP	??TIMER3_COMPA_interrupt_17
??TIMER3_COMPA_interrupt_16:
        LDD	R16, Z+10
        LDD	R17, Z+11
??TIMER3_COMPA_interrupt_17:
        STD	Z+6, R16
        STD	Z+7, R17
// 1414                 Control.nat=TRUE;
        LDI	R16, 1
        STD	Z+3, R16
// 1415                }    
// 1416        
// 1417        }
// 1418   
// 1419    //!!!!!!!!!!!!!dobavka
// 1420        if(cnt_no_link==0) goto next_tm3;
??TIMER3_COMPA_interrupt_15:
        LDI	R30, LOW(cnt_no_link)
        LDI	R31, (cnt_no_link) >> 8
        RCALL	?Subroutine28
// 1421          cnt_no_link--;
// 1422          if(cnt_no_link==0)Fl_ch_sim=1;
// 1423   next_tm3:     
// 1424        
// 1425         if(cnt_link_res==0) goto next_tm4;
??CrossCallReturnLabel_59:
        LDI	R30, LOW(cnt_link_res)
        LDI	R31, (cnt_link_res) >> 8
        RCALL	?Subroutine28
// 1426         cnt_link_res--;
// 1427         if(cnt_link_res==0)Fl_ch_sim=1;
// 1428     next_tm4:        
// 1429           
// 1430  //EEEEEEEEEEEEEE dobavka
// 1431  
// 1432     if (Life.time_485_1==0)goto next_tm5;
??CrossCallReturnLabel_60:
        LDI	R30, LOW(Life)
        LDI	R31, (Life) >> 8
        LD	R16, Z
        TST	R16
        BREQ	??TIMER3_COMPA_interrupt_18
// 1433         Life.time_485_1--;
        DEC	R16
        ST	Z, R16
// 1434     if (Life.time_485_1==0)Life.start_485_1=0;    
        BRNE	??TIMER3_COMPA_interrupt_18
        LDI	R16, 0
        STD	Z+3, R16
// 1435     next_tm5:
// 1436       
// 1437     if (Life.time_485_2==0)goto next_tm6;
??TIMER3_COMPA_interrupt_18:
        LDD	R16, Z+4
        TST	R16
        BREQ	??TIMER3_COMPA_interrupt_19
// 1438         Life.time_485_2--;
        DEC	R16
        STD	Z+4, R16
// 1439     if (Life.time_485_2==0)Life.start_485_2=0;    
        BRNE	??TIMER3_COMPA_interrupt_19
        LDI	R16, 0
        STD	Z+7, R16
// 1440        
// 1441     next_tm6:
// 1442       
// 1443     if (Life.time_232_2==0)goto next_tm7;
??TIMER3_COMPA_interrupt_19:
        LDD	R16, Z+8
        TST	R16
        BREQ	??TIMER3_COMPA_interrupt_20
// 1444         Life.time_232_2--;
        DEC	R16
        STD	Z+8, R16
// 1445     if (Life.time_232_2==0)Life.start_232_2=0;
        TST	R16
        BRNE	??TIMER3_COMPA_interrupt_20
        LDI	R16, 0
        STD	Z+11, R16
// 1446     next_tm7:;
// 1447  ////////////////////////////////////////// 
// 1448      
// 1449     }
??TIMER3_COMPA_interrupt_20:
        OUT	0x3C, R6
        OUT	0x3B, R5
        OUT	0x3F, R4
        RCALL	?Subroutine57
        CFI R0 SameValue
        CFI R1 SameValue
        CFI R16 SameValue
        CFI R17 SameValue
        CFI R18 SameValue
        CFI R19 SameValue
        CFI R2 SameValue
        CFI R20 SameValue
        CFI R21 SameValue
        CFI R22 SameValue
        CFI R23 SameValue
        CFI R3 SameValue
        CFI R30 SameValue
        CFI R31 SameValue
        CFI CFA_Y Y+7
??CrossCallReturnLabel_185:
        LD	R24, Y+
        CFI R24 SameValue
        CFI CFA_Y Y+6
        LD	R25, Y+
        CFI R25 SameValue
        CFI CFA_Y Y+5
        RCALL	?Subroutine61
        CFI R26 SameValue
        CFI R27 SameValue
        CFI R4 SameValue
        CFI R5 SameValue
        CFI R6 SameValue
        CFI CFA_Y Y+0
??CrossCallReturnLabel_131:
        RETI
        CFI EndBlock cfiBlock226

        RSEG CODE:CODE:NOROOT(1)
?Subroutine71:
        CFI Block cfiCond227 Using cfiCommon2
        CFI NoFunction
        CFI Conditional ??CrossCallReturnLabel_149
        CFI R16 Frame(CFA_Y, -19)
        CFI R17 Frame(CFA_Y, -18)
        CFI R18 Frame(CFA_Y, -17)
        CFI R19 Frame(CFA_Y, -16)
        CFI R20 Frame(CFA_Y, -15)
        CFI R21 Frame(CFA_Y, -14)
        CFI R22 Frame(CFA_Y, -13)
        CFI R23 Frame(CFA_Y, -12)
        CFI R0 Frame(CFA_Y, -11)
        CFI R1 Frame(CFA_Y, -10)
        CFI R2 Frame(CFA_Y, -9)
        CFI R3 Frame(CFA_Y, -8)
        CFI R30 Frame(CFA_Y, -7)
        CFI R31 Frame(CFA_Y, -6)
        CFI R24 Frame(CFA_Y, -5)
        CFI R25 Frame(CFA_Y, -4)
        CFI R26 Frame(CFA_Y, -3)
        CFI R27 Frame(CFA_Y, -2)
        CFI R4 Frame(CFA_Y, -1)
        CFI CFA_SP SP+6
        CFI CFA_Y Y+19
        CFI Block cfiCond228 Using cfiCommon2
        CFI (cfiCond228) NoFunction
        CFI (cfiCond228) Conditional ??CrossCallReturnLabel_150
        CFI (cfiCond228) R16 Frame(CFA_Y, -19)
        CFI (cfiCond228) R17 Frame(CFA_Y, -18)
        CFI (cfiCond228) R18 Frame(CFA_Y, -17)
        CFI (cfiCond228) R19 Frame(CFA_Y, -16)
        CFI (cfiCond228) R20 Frame(CFA_Y, -15)
        CFI (cfiCond228) R21 Frame(CFA_Y, -14)
        CFI (cfiCond228) R22 Frame(CFA_Y, -13)
        CFI (cfiCond228) R23 Frame(CFA_Y, -12)
        CFI (cfiCond228) R0 Frame(CFA_Y, -11)
        CFI (cfiCond228) R1 Frame(CFA_Y, -10)
        CFI (cfiCond228) R2 Frame(CFA_Y, -9)
        CFI (cfiCond228) R3 Frame(CFA_Y, -8)
        CFI (cfiCond228) R30 Frame(CFA_Y, -7)
        CFI (cfiCond228) R31 Frame(CFA_Y, -6)
        CFI (cfiCond228) R24 Frame(CFA_Y, -5)
        CFI (cfiCond228) R25 Frame(CFA_Y, -4)
        CFI (cfiCond228) R26 Frame(CFA_Y, -3)
        CFI (cfiCond228) R27 Frame(CFA_Y, -2)
        CFI (cfiCond228) R4 Frame(CFA_Y, -1)
        CFI (cfiCond228) CFA_SP SP+6
        CFI (cfiCond228) CFA_Y Y+19
        CFI Block cfiCond229 Using cfiCommon2
        CFI (cfiCond229) NoFunction
        CFI (cfiCond229) Conditional ??CrossCallReturnLabel_151
        CFI (cfiCond229) R16 Frame(CFA_Y, -19)
        CFI (cfiCond229) R17 Frame(CFA_Y, -18)
        CFI (cfiCond229) R18 Frame(CFA_Y, -17)
        CFI (cfiCond229) R19 Frame(CFA_Y, -16)
        CFI (cfiCond229) R20 Frame(CFA_Y, -15)
        CFI (cfiCond229) R21 Frame(CFA_Y, -14)
        CFI (cfiCond229) R22 Frame(CFA_Y, -13)
        CFI (cfiCond229) R23 Frame(CFA_Y, -12)
        CFI (cfiCond229) R0 Frame(CFA_Y, -11)
        CFI (cfiCond229) R1 Frame(CFA_Y, -10)
        CFI (cfiCond229) R2 Frame(CFA_Y, -9)
        CFI (cfiCond229) R3 Frame(CFA_Y, -8)
        CFI (cfiCond229) R30 Frame(CFA_Y, -7)
        CFI (cfiCond229) R31 Frame(CFA_Y, -6)
        CFI (cfiCond229) R24 Frame(CFA_Y, -5)
        CFI (cfiCond229) R25 Frame(CFA_Y, -4)
        CFI (cfiCond229) R26 Frame(CFA_Y, -3)
        CFI (cfiCond229) R27 Frame(CFA_Y, -2)
        CFI (cfiCond229) R4 Frame(CFA_Y, -1)
        CFI (cfiCond229) CFA_SP SP+6
        CFI (cfiCond229) CFA_Y Y+19
        CFI Block cfiCond230 Using cfiCommon2
        CFI (cfiCond230) NoFunction
        CFI (cfiCond230) Conditional ??CrossCallReturnLabel_152
        CFI (cfiCond230) R16 Frame(CFA_Y, -21)
        CFI (cfiCond230) R17 Frame(CFA_Y, -20)
        CFI (cfiCond230) R18 Frame(CFA_Y, -19)
        CFI (cfiCond230) R19 Frame(CFA_Y, -18)
        CFI (cfiCond230) R20 Frame(CFA_Y, -17)
        CFI (cfiCond230) R21 Frame(CFA_Y, -16)
        CFI (cfiCond230) R22 Frame(CFA_Y, -15)
        CFI (cfiCond230) R23 Frame(CFA_Y, -14)
        CFI (cfiCond230) R0 Frame(CFA_Y, -13)
        CFI (cfiCond230) R1 Frame(CFA_Y, -12)
        CFI (cfiCond230) R2 Frame(CFA_Y, -11)
        CFI (cfiCond230) R3 Frame(CFA_Y, -10)
        CFI (cfiCond230) R30 Frame(CFA_Y, -9)
        CFI (cfiCond230) R31 Frame(CFA_Y, -8)
        CFI (cfiCond230) R24 Frame(CFA_Y, -7)
        CFI (cfiCond230) R25 Frame(CFA_Y, -6)
        CFI (cfiCond230) R26 Frame(CFA_Y, -5)
        CFI (cfiCond230) R27 Frame(CFA_Y, -4)
        CFI (cfiCond230) R4 Frame(CFA_Y, -3)
        CFI (cfiCond230) R5 Frame(CFA_Y, -2)
        CFI (cfiCond230) R6 Frame(CFA_Y, -1)
        CFI (cfiCond230) CFA_SP SP+6
        CFI (cfiCond230) CFA_Y Y+21
        CFI Block cfiPicker231 Using cfiCommon1
        CFI (cfiPicker231) NoFunction
        CFI (cfiPicker231) Picker
        ANDI	R16, 0xFD
        ORI	R16, 0x04
        RET
        CFI EndBlock cfiCond227
        CFI EndBlock cfiCond228
        CFI EndBlock cfiCond229
        CFI EndBlock cfiCond230
        CFI EndBlock cfiPicker231

        RSEG CODE:CODE:NOROOT(1)
?Subroutine55:
        CFI Block cfiCond232 Using cfiCommon2
        CFI NoFunction
        CFI Conditional ??CrossCallReturnLabel_123
        CFI R16 Frame(CFA_Y, -19)
        CFI R17 Frame(CFA_Y, -18)
        CFI R18 Frame(CFA_Y, -17)
        CFI R19 Frame(CFA_Y, -16)
        CFI R20 Frame(CFA_Y, -15)
        CFI R21 Frame(CFA_Y, -14)
        CFI R22 Frame(CFA_Y, -13)
        CFI R23 Frame(CFA_Y, -12)
        CFI R0 Frame(CFA_Y, -11)
        CFI R1 Frame(CFA_Y, -10)
        CFI R2 Frame(CFA_Y, -9)
        CFI R3 Frame(CFA_Y, -8)
        CFI R30 Frame(CFA_Y, -7)
        CFI R31 Frame(CFA_Y, -6)
        CFI R24 Frame(CFA_Y, -5)
        CFI R25 Frame(CFA_Y, -4)
        CFI R26 Frame(CFA_Y, -3)
        CFI R27 Frame(CFA_Y, -2)
        CFI R4 Frame(CFA_Y, -1)
        CFI CFA_SP SP+6
        CFI CFA_Y Y+19
        CFI Block cfiCond233 Using cfiCommon2
        CFI (cfiCond233) NoFunction
        CFI (cfiCond233) Conditional ??CrossCallReturnLabel_124
        CFI (cfiCond233) R16 Frame(CFA_Y, -21)
        CFI (cfiCond233) R17 Frame(CFA_Y, -20)
        CFI (cfiCond233) R18 Frame(CFA_Y, -19)
        CFI (cfiCond233) R19 Frame(CFA_Y, -18)
        CFI (cfiCond233) R20 Frame(CFA_Y, -17)
        CFI (cfiCond233) R21 Frame(CFA_Y, -16)
        CFI (cfiCond233) R22 Frame(CFA_Y, -15)
        CFI (cfiCond233) R23 Frame(CFA_Y, -14)
        CFI (cfiCond233) R0 Frame(CFA_Y, -13)
        CFI (cfiCond233) R1 Frame(CFA_Y, -12)
        CFI (cfiCond233) R2 Frame(CFA_Y, -11)
        CFI (cfiCond233) R3 Frame(CFA_Y, -10)
        CFI (cfiCond233) R30 Frame(CFA_Y, -9)
        CFI (cfiCond233) R31 Frame(CFA_Y, -8)
        CFI (cfiCond233) R24 Frame(CFA_Y, -7)
        CFI (cfiCond233) R25 Frame(CFA_Y, -6)
        CFI (cfiCond233) R26 Frame(CFA_Y, -5)
        CFI (cfiCond233) R27 Frame(CFA_Y, -4)
        CFI (cfiCond233) R4 Frame(CFA_Y, -3)
        CFI (cfiCond233) R5 Frame(CFA_Y, -2)
        CFI (cfiCond233) R6 Frame(CFA_Y, -1)
        CFI (cfiCond233) CFA_SP SP+6
        CFI (cfiCond233) CFA_Y Y+21
        CFI Block cfiCond234 Using cfiCommon2
        CFI (cfiCond234) NoFunction
        CFI (cfiCond234) Conditional ??CrossCallReturnLabel_125
        CFI (cfiCond234) R16 Frame(CFA_Y, -8)
        CFI (cfiCond234) R17 Frame(CFA_Y, -7)
        CFI (cfiCond234) R18 Frame(CFA_Y, -6)
        CFI (cfiCond234) R19 Frame(CFA_Y, -5)
        CFI (cfiCond234) R30 Frame(CFA_Y, -4)
        CFI (cfiCond234) R31 Frame(CFA_Y, -3)
        CFI (cfiCond234) R26 Frame(CFA_Y, -2)
        CFI (cfiCond234) R27 Frame(CFA_Y, -1)
        CFI (cfiCond234) CFA_SP SP+6
        CFI (cfiCond234) CFA_Y Y+8
        CFI Block cfiPicker235 Using cfiCommon1
        CFI (cfiPicker235) NoFunction
        CFI (cfiPicker235) Picker
        LDI	R16, 0
        STD	Z+12, R16
        STD	Z+13, R16
        RET
        CFI EndBlock cfiCond232
        CFI EndBlock cfiCond233
        CFI EndBlock cfiCond234
        CFI EndBlock cfiPicker235

        RSEG CODE:CODE:NOROOT(1)
?Subroutine44:
        CFI Block cfiCond236 Using cfiCommon2
        CFI NoFunction
        CFI Conditional ??CrossCallReturnLabel_89
        CFI R16 Frame(CFA_Y, -19)
        CFI R17 Frame(CFA_Y, -18)
        CFI R18 Frame(CFA_Y, -17)
        CFI R19 Frame(CFA_Y, -16)
        CFI R20 Frame(CFA_Y, -15)
        CFI R21 Frame(CFA_Y, -14)
        CFI R22 Frame(CFA_Y, -13)
        CFI R23 Frame(CFA_Y, -12)
        CFI R0 Frame(CFA_Y, -11)
        CFI R1 Frame(CFA_Y, -10)
        CFI R2 Frame(CFA_Y, -9)
        CFI R3 Frame(CFA_Y, -8)
        CFI R30 Frame(CFA_Y, -7)
        CFI R31 Frame(CFA_Y, -6)
        CFI R24 Frame(CFA_Y, -5)
        CFI R25 Frame(CFA_Y, -4)
        CFI R26 Frame(CFA_Y, -3)
        CFI R27 Frame(CFA_Y, -2)
        CFI R4 Frame(CFA_Y, -1)
        CFI CFA_SP SP+6
        CFI CFA_Y Y+19
        CFI Block cfiCond237 Using cfiCommon2
        CFI (cfiCond237) NoFunction
        CFI (cfiCond237) Conditional ??CrossCallReturnLabel_90
        CFI (cfiCond237) R16 Frame(CFA_Y, -21)
        CFI (cfiCond237) R17 Frame(CFA_Y, -20)
        CFI (cfiCond237) R18 Frame(CFA_Y, -19)
        CFI (cfiCond237) R19 Frame(CFA_Y, -18)
        CFI (cfiCond237) R20 Frame(CFA_Y, -17)
        CFI (cfiCond237) R21 Frame(CFA_Y, -16)
        CFI (cfiCond237) R22 Frame(CFA_Y, -15)
        CFI (cfiCond237) R23 Frame(CFA_Y, -14)
        CFI (cfiCond237) R0 Frame(CFA_Y, -13)
        CFI (cfiCond237) R1 Frame(CFA_Y, -12)
        CFI (cfiCond237) R2 Frame(CFA_Y, -11)
        CFI (cfiCond237) R3 Frame(CFA_Y, -10)
        CFI (cfiCond237) R30 Frame(CFA_Y, -9)
        CFI (cfiCond237) R31 Frame(CFA_Y, -8)
        CFI (cfiCond237) R24 Frame(CFA_Y, -7)
        CFI (cfiCond237) R25 Frame(CFA_Y, -6)
        CFI (cfiCond237) R26 Frame(CFA_Y, -5)
        CFI (cfiCond237) R27 Frame(CFA_Y, -4)
        CFI (cfiCond237) R4 Frame(CFA_Y, -3)
        CFI (cfiCond237) R5 Frame(CFA_Y, -2)
        CFI (cfiCond237) R6 Frame(CFA_Y, -1)
        CFI (cfiCond237) CFA_SP SP+6
        CFI (cfiCond237) CFA_Y Y+21
        CFI Block cfiPicker238 Using cfiCommon1
        CFI (cfiPicker238) NoFunction
        CFI (cfiPicker238) Picker
        LDD	R16, Z+4
        SUBI	R16, 1
        SBCI	R17, 0
        STD	Z+4, R16
        STD	Z+5, R17
        RET
        CFI EndBlock cfiCond236
        CFI EndBlock cfiCond237
        CFI EndBlock cfiPicker238

        RSEG CODE:CODE:NOROOT(1)
?Subroutine43:
        CFI Block cfiCond239 Using cfiCommon2
        CFI NoFunction
        CFI Conditional ??CrossCallReturnLabel_218
        CFI R16 Frame(CFA_Y, -19)
        CFI R17 Frame(CFA_Y, -18)
        CFI R18 Frame(CFA_Y, -17)
        CFI R19 Frame(CFA_Y, -16)
        CFI R20 Frame(CFA_Y, -15)
        CFI R21 Frame(CFA_Y, -14)
        CFI R22 Frame(CFA_Y, -13)
        CFI R23 Frame(CFA_Y, -12)
        CFI R0 Frame(CFA_Y, -11)
        CFI R1 Frame(CFA_Y, -10)
        CFI R2 Frame(CFA_Y, -9)
        CFI R3 Frame(CFA_Y, -8)
        CFI R30 Frame(CFA_Y, -7)
        CFI R31 Frame(CFA_Y, -6)
        CFI R24 Frame(CFA_Y, -5)
        CFI R25 Frame(CFA_Y, -4)
        CFI R26 Frame(CFA_Y, -3)
        CFI R27 Frame(CFA_Y, -2)
        CFI R4 Frame(CFA_Y, -1)
        CFI CFA_SP SP+6
        CFI CFA_Y Y+19
        CFI Block cfiCond240 Using cfiCommon2
        CFI (cfiCond240) NoFunction
        CFI (cfiCond240) Conditional ??CrossCallReturnLabel_219
        CFI (cfiCond240) R16 Frame(CFA_Y, -21)
        CFI (cfiCond240) R17 Frame(CFA_Y, -20)
        CFI (cfiCond240) R18 Frame(CFA_Y, -19)
        CFI (cfiCond240) R19 Frame(CFA_Y, -18)
        CFI (cfiCond240) R20 Frame(CFA_Y, -17)
        CFI (cfiCond240) R21 Frame(CFA_Y, -16)
        CFI (cfiCond240) R22 Frame(CFA_Y, -15)
        CFI (cfiCond240) R23 Frame(CFA_Y, -14)
        CFI (cfiCond240) R0 Frame(CFA_Y, -13)
        CFI (cfiCond240) R1 Frame(CFA_Y, -12)
        CFI (cfiCond240) R2 Frame(CFA_Y, -11)
        CFI (cfiCond240) R3 Frame(CFA_Y, -10)
        CFI (cfiCond240) R30 Frame(CFA_Y, -9)
        CFI (cfiCond240) R31 Frame(CFA_Y, -8)
        CFI (cfiCond240) R24 Frame(CFA_Y, -7)
        CFI (cfiCond240) R25 Frame(CFA_Y, -6)
        CFI (cfiCond240) R26 Frame(CFA_Y, -5)
        CFI (cfiCond240) R27 Frame(CFA_Y, -4)
        CFI (cfiCond240) R4 Frame(CFA_Y, -3)
        CFI (cfiCond240) R5 Frame(CFA_Y, -2)
        CFI (cfiCond240) R6 Frame(CFA_Y, -1)
        CFI (cfiCond240) CFA_SP SP+6
        CFI (cfiCond240) CFA_Y Y+21
        CFI Block cfiPicker241 Using cfiCommon1
        CFI (cfiPicker241) NoFunction
        CFI (cfiPicker241) Picker
        LDD	R16, Z+22
        SUBI	R16, 1
        SBCI	R17, 0
        STD	Z+22, R16
        STD	Z+23, R17
        RJMP	?Subroutine98
        CFI EndBlock cfiCond239
        CFI EndBlock cfiCond240
        CFI EndBlock cfiPicker241

        RSEG CODE:CODE:NOROOT(1)
?Subroutine42:
        CFI Block cfiCond242 Using cfiCommon2
        CFI NoFunction
        CFI Conditional ??CrossCallReturnLabel_213
        CFI R16 Frame(CFA_Y, -19)
        CFI R17 Frame(CFA_Y, -18)
        CFI R18 Frame(CFA_Y, -17)
        CFI R19 Frame(CFA_Y, -16)
        CFI R20 Frame(CFA_Y, -15)
        CFI R21 Frame(CFA_Y, -14)
        CFI R22 Frame(CFA_Y, -13)
        CFI R23 Frame(CFA_Y, -12)
        CFI R0 Frame(CFA_Y, -11)
        CFI R1 Frame(CFA_Y, -10)
        CFI R2 Frame(CFA_Y, -9)
        CFI R3 Frame(CFA_Y, -8)
        CFI R30 Frame(CFA_Y, -7)
        CFI R31 Frame(CFA_Y, -6)
        CFI R24 Frame(CFA_Y, -5)
        CFI R25 Frame(CFA_Y, -4)
        CFI R26 Frame(CFA_Y, -3)
        CFI R27 Frame(CFA_Y, -2)
        CFI R4 Frame(CFA_Y, -1)
        CFI CFA_SP SP+6
        CFI CFA_Y Y+19
        CFI Block cfiCond243 Using cfiCommon2
        CFI (cfiCond243) NoFunction
        CFI (cfiCond243) Conditional ??CrossCallReturnLabel_214
        CFI (cfiCond243) R16 Frame(CFA_Y, -19)
        CFI (cfiCond243) R17 Frame(CFA_Y, -18)
        CFI (cfiCond243) R18 Frame(CFA_Y, -17)
        CFI (cfiCond243) R19 Frame(CFA_Y, -16)
        CFI (cfiCond243) R20 Frame(CFA_Y, -15)
        CFI (cfiCond243) R21 Frame(CFA_Y, -14)
        CFI (cfiCond243) R22 Frame(CFA_Y, -13)
        CFI (cfiCond243) R23 Frame(CFA_Y, -12)
        CFI (cfiCond243) R0 Frame(CFA_Y, -11)
        CFI (cfiCond243) R1 Frame(CFA_Y, -10)
        CFI (cfiCond243) R2 Frame(CFA_Y, -9)
        CFI (cfiCond243) R3 Frame(CFA_Y, -8)
        CFI (cfiCond243) R30 Frame(CFA_Y, -7)
        CFI (cfiCond243) R31 Frame(CFA_Y, -6)
        CFI (cfiCond243) R24 Frame(CFA_Y, -5)
        CFI (cfiCond243) R25 Frame(CFA_Y, -4)
        CFI (cfiCond243) R26 Frame(CFA_Y, -3)
        CFI (cfiCond243) R27 Frame(CFA_Y, -2)
        CFI (cfiCond243) R4 Frame(CFA_Y, -1)
        CFI (cfiCond243) CFA_SP SP+6
        CFI (cfiCond243) CFA_Y Y+19
        CFI Block cfiCond244 Using cfiCommon2
        CFI (cfiCond244) NoFunction
        CFI (cfiCond244) Conditional ??CrossCallReturnLabel_215
        CFI (cfiCond244) R16 Frame(CFA_Y, -21)
        CFI (cfiCond244) R17 Frame(CFA_Y, -20)
        CFI (cfiCond244) R18 Frame(CFA_Y, -19)
        CFI (cfiCond244) R19 Frame(CFA_Y, -18)
        CFI (cfiCond244) R20 Frame(CFA_Y, -17)
        CFI (cfiCond244) R21 Frame(CFA_Y, -16)
        CFI (cfiCond244) R22 Frame(CFA_Y, -15)
        CFI (cfiCond244) R23 Frame(CFA_Y, -14)
        CFI (cfiCond244) R0 Frame(CFA_Y, -13)
        CFI (cfiCond244) R1 Frame(CFA_Y, -12)
        CFI (cfiCond244) R2 Frame(CFA_Y, -11)
        CFI (cfiCond244) R3 Frame(CFA_Y, -10)
        CFI (cfiCond244) R30 Frame(CFA_Y, -9)
        CFI (cfiCond244) R31 Frame(CFA_Y, -8)
        CFI (cfiCond244) R24 Frame(CFA_Y, -7)
        CFI (cfiCond244) R25 Frame(CFA_Y, -6)
        CFI (cfiCond244) R26 Frame(CFA_Y, -5)
        CFI (cfiCond244) R27 Frame(CFA_Y, -4)
        CFI (cfiCond244) R4 Frame(CFA_Y, -3)
        CFI (cfiCond244) R5 Frame(CFA_Y, -2)
        CFI (cfiCond244) R6 Frame(CFA_Y, -1)
        CFI (cfiCond244) CFA_SP SP+6
        CFI (cfiCond244) CFA_Y Y+21
        CFI Block cfiPicker245 Using cfiCommon1
        CFI (cfiPicker245) NoFunction
        CFI (cfiPicker245) Picker
        LD	R16, X
        ORI	R16, 0x04
        RJMP	?Subroutine97
        CFI EndBlock cfiCond242
        CFI EndBlock cfiCond243
        CFI EndBlock cfiCond244
        CFI EndBlock cfiPicker245

        RSEG CODE:CODE:NOROOT(1)
?Subroutine90:
        CFI Block cfiCond246 Using cfiCommon2
        CFI NoFunction
        CFI Conditional ??CrossCallReturnLabel_175
        CFI R16 Frame(CFA_Y, -19)
        CFI R17 Frame(CFA_Y, -18)
        CFI R18 Frame(CFA_Y, -17)
        CFI R19 Frame(CFA_Y, -16)
        CFI R20 Frame(CFA_Y, -15)
        CFI R21 Frame(CFA_Y, -14)
        CFI R22 Frame(CFA_Y, -13)
        CFI R23 Frame(CFA_Y, -12)
        CFI R0 Frame(CFA_Y, -11)
        CFI R1 Frame(CFA_Y, -10)
        CFI R2 Frame(CFA_Y, -9)
        CFI R3 Frame(CFA_Y, -8)
        CFI R30 Frame(CFA_Y, -7)
        CFI R31 Frame(CFA_Y, -6)
        CFI R24 Frame(CFA_Y, -5)
        CFI R25 Frame(CFA_Y, -4)
        CFI R26 Frame(CFA_Y, -3)
        CFI R27 Frame(CFA_Y, -2)
        CFI R4 Frame(CFA_Y, -1)
        CFI CFA_SP SP+6
        CFI CFA_Y Y+19
        CFI Block cfiCond247 Using cfiCommon2
        CFI (cfiCond247) NoFunction
        CFI (cfiCond247) Conditional ??CrossCallReturnLabel_176
        CFI (cfiCond247) R16 Frame(CFA_Y, -19)
        CFI (cfiCond247) R17 Frame(CFA_Y, -18)
        CFI (cfiCond247) R18 Frame(CFA_Y, -17)
        CFI (cfiCond247) R19 Frame(CFA_Y, -16)
        CFI (cfiCond247) R20 Frame(CFA_Y, -15)
        CFI (cfiCond247) R21 Frame(CFA_Y, -14)
        CFI (cfiCond247) R22 Frame(CFA_Y, -13)
        CFI (cfiCond247) R23 Frame(CFA_Y, -12)
        CFI (cfiCond247) R0 Frame(CFA_Y, -11)
        CFI (cfiCond247) R1 Frame(CFA_Y, -10)
        CFI (cfiCond247) R2 Frame(CFA_Y, -9)
        CFI (cfiCond247) R3 Frame(CFA_Y, -8)
        CFI (cfiCond247) R30 Frame(CFA_Y, -7)
        CFI (cfiCond247) R31 Frame(CFA_Y, -6)
        CFI (cfiCond247) R24 Frame(CFA_Y, -5)
        CFI (cfiCond247) R25 Frame(CFA_Y, -4)
        CFI (cfiCond247) R26 Frame(CFA_Y, -3)
        CFI (cfiCond247) R27 Frame(CFA_Y, -2)
        CFI (cfiCond247) R4 Frame(CFA_Y, -1)
        CFI (cfiCond247) CFA_SP SP+6
        CFI (cfiCond247) CFA_Y Y+19
        CFI Block cfiCond248 Using cfiCommon2
        CFI (cfiCond248) NoFunction
        CFI (cfiCond248) Conditional ??CrossCallReturnLabel_177
        CFI (cfiCond248) R16 Frame(CFA_Y, -21)
        CFI (cfiCond248) R17 Frame(CFA_Y, -20)
        CFI (cfiCond248) R18 Frame(CFA_Y, -19)
        CFI (cfiCond248) R19 Frame(CFA_Y, -18)
        CFI (cfiCond248) R20 Frame(CFA_Y, -17)
        CFI (cfiCond248) R21 Frame(CFA_Y, -16)
        CFI (cfiCond248) R22 Frame(CFA_Y, -15)
        CFI (cfiCond248) R23 Frame(CFA_Y, -14)
        CFI (cfiCond248) R0 Frame(CFA_Y, -13)
        CFI (cfiCond248) R1 Frame(CFA_Y, -12)
        CFI (cfiCond248) R2 Frame(CFA_Y, -11)
        CFI (cfiCond248) R3 Frame(CFA_Y, -10)
        CFI (cfiCond248) R30 Frame(CFA_Y, -9)
        CFI (cfiCond248) R31 Frame(CFA_Y, -8)
        CFI (cfiCond248) R24 Frame(CFA_Y, -7)
        CFI (cfiCond248) R25 Frame(CFA_Y, -6)
        CFI (cfiCond248) R26 Frame(CFA_Y, -5)
        CFI (cfiCond248) R27 Frame(CFA_Y, -4)
        CFI (cfiCond248) R4 Frame(CFA_Y, -3)
        CFI (cfiCond248) R5 Frame(CFA_Y, -2)
        CFI (cfiCond248) R6 Frame(CFA_Y, -1)
        CFI (cfiCond248) CFA_SP SP+6
        CFI (cfiCond248) CFA_Y Y+21
        CFI Block cfiCond249 Using cfiCommon2
        CFI (cfiCond249) NoFunction
        CFI (cfiCond249) Conditional ??CrossCallReturnLabel_178
        CFI (cfiCond249) R16 Frame(CFA_Y, -21)
        CFI (cfiCond249) R17 Frame(CFA_Y, -20)
        CFI (cfiCond249) R18 Frame(CFA_Y, -19)
        CFI (cfiCond249) R19 Frame(CFA_Y, -18)
        CFI (cfiCond249) R20 Frame(CFA_Y, -17)
        CFI (cfiCond249) R21 Frame(CFA_Y, -16)
        CFI (cfiCond249) R22 Frame(CFA_Y, -15)
        CFI (cfiCond249) R23 Frame(CFA_Y, -14)
        CFI (cfiCond249) R0 Frame(CFA_Y, -13)
        CFI (cfiCond249) R1 Frame(CFA_Y, -12)
        CFI (cfiCond249) R2 Frame(CFA_Y, -11)
        CFI (cfiCond249) R3 Frame(CFA_Y, -10)
        CFI (cfiCond249) R30 Frame(CFA_Y, -9)
        CFI (cfiCond249) R31 Frame(CFA_Y, -8)
        CFI (cfiCond249) R24 Frame(CFA_Y, -7)
        CFI (cfiCond249) R25 Frame(CFA_Y, -6)
        CFI (cfiCond249) R26 Frame(CFA_Y, -5)
        CFI (cfiCond249) R27 Frame(CFA_Y, -4)
        CFI (cfiCond249) R4 Frame(CFA_Y, -3)
        CFI (cfiCond249) R5 Frame(CFA_Y, -2)
        CFI (cfiCond249) R6 Frame(CFA_Y, -1)
        CFI (cfiCond249) CFA_SP SP+6
        CFI (cfiCond249) CFA_Y Y+21
        CFI Block cfiCond250 Using cfiCommon2
        CFI (cfiCond250) NoFunction
        CFI (cfiCond250) Conditional ??CrossCallReturnLabel_179
        CFI (cfiCond250) R16 Frame(CFA_Y, -7)
        CFI (cfiCond250) R17 Frame(CFA_Y, -6)
        CFI (cfiCond250) R18 Frame(CFA_Y, -5)
        CFI (cfiCond250) R30 Frame(CFA_Y, -4)
        CFI (cfiCond250) R31 Frame(CFA_Y, -3)
        CFI (cfiCond250) R26 Frame(CFA_Y, -2)
        CFI (cfiCond250) R27 Frame(CFA_Y, -1)
        CFI (cfiCond250) CFA_SP SP+6
        CFI (cfiCond250) CFA_Y Y+7
        CFI Block cfiCond251 Using cfiCommon2
        CFI (cfiCond251) NoFunction
        CFI (cfiCond251) Conditional ??CrossCallReturnLabel_180
        CFI (cfiCond251) R16 Frame(CFA_Y, -19)
        CFI (cfiCond251) R17 Frame(CFA_Y, -18)
        CFI (cfiCond251) R18 Frame(CFA_Y, -17)
        CFI (cfiCond251) R19 Frame(CFA_Y, -16)
        CFI (cfiCond251) R20 Frame(CFA_Y, -15)
        CFI (cfiCond251) R21 Frame(CFA_Y, -14)
        CFI (cfiCond251) R22 Frame(CFA_Y, -13)
        CFI (cfiCond251) R23 Frame(CFA_Y, -12)
        CFI (cfiCond251) R0 Frame(CFA_Y, -11)
        CFI (cfiCond251) R1 Frame(CFA_Y, -10)
        CFI (cfiCond251) R2 Frame(CFA_Y, -9)
        CFI (cfiCond251) R3 Frame(CFA_Y, -8)
        CFI (cfiCond251) R30 Frame(CFA_Y, -7)
        CFI (cfiCond251) R31 Frame(CFA_Y, -6)
        CFI (cfiCond251) R24 Frame(CFA_Y, -5)
        CFI (cfiCond251) R25 Frame(CFA_Y, -4)
        CFI (cfiCond251) R26 Frame(CFA_Y, -3)
        CFI (cfiCond251) R27 Frame(CFA_Y, -2)
        CFI (cfiCond251) R4 Frame(CFA_Y, -1)
        CFI (cfiCond251) CFA_SP SP+6
        CFI (cfiCond251) CFA_Y Y+19
        CFI Block cfiCond252 Using cfiCommon2
        CFI (cfiCond252) NoFunction
        CFI (cfiCond252) Conditional ??CrossCallReturnLabel_181
        CFI (cfiCond252) R16 Frame(CFA_Y, -19)
        CFI (cfiCond252) R17 Frame(CFA_Y, -18)
        CFI (cfiCond252) R18 Frame(CFA_Y, -17)
        CFI (cfiCond252) R19 Frame(CFA_Y, -16)
        CFI (cfiCond252) R20 Frame(CFA_Y, -15)
        CFI (cfiCond252) R21 Frame(CFA_Y, -14)
        CFI (cfiCond252) R22 Frame(CFA_Y, -13)
        CFI (cfiCond252) R23 Frame(CFA_Y, -12)
        CFI (cfiCond252) R0 Frame(CFA_Y, -11)
        CFI (cfiCond252) R1 Frame(CFA_Y, -10)
        CFI (cfiCond252) R2 Frame(CFA_Y, -9)
        CFI (cfiCond252) R3 Frame(CFA_Y, -8)
        CFI (cfiCond252) R30 Frame(CFA_Y, -7)
        CFI (cfiCond252) R31 Frame(CFA_Y, -6)
        CFI (cfiCond252) R24 Frame(CFA_Y, -5)
        CFI (cfiCond252) R25 Frame(CFA_Y, -4)
        CFI (cfiCond252) R26 Frame(CFA_Y, -3)
        CFI (cfiCond252) R27 Frame(CFA_Y, -2)
        CFI (cfiCond252) R4 Frame(CFA_Y, -1)
        CFI (cfiCond252) CFA_SP SP+6
        CFI (cfiCond252) CFA_Y Y+19
        CFI Block cfiCond253 Using cfiCommon2
        CFI (cfiCond253) NoFunction
        CFI (cfiCond253) Conditional ??CrossCallReturnLabel_182
        CFI (cfiCond253) R16 Frame(CFA_Y, -8)
        CFI (cfiCond253) R17 Frame(CFA_Y, -7)
        CFI (cfiCond253) R18 Frame(CFA_Y, -6)
        CFI (cfiCond253) R19 Frame(CFA_Y, -5)
        CFI (cfiCond253) R30 Frame(CFA_Y, -4)
        CFI (cfiCond253) R31 Frame(CFA_Y, -3)
        CFI (cfiCond253) R26 Frame(CFA_Y, -2)
        CFI (cfiCond253) R27 Frame(CFA_Y, -1)
        CFI (cfiCond253) CFA_SP SP+6
        CFI (cfiCond253) CFA_Y Y+8
        CFI Block cfiCond254 Using cfiCommon2
        CFI (cfiCond254) NoFunction
        CFI (cfiCond254) Conditional ??CrossCallReturnLabel_183
        CFI (cfiCond254) R16 Frame(CFA_Y, -8)
        CFI (cfiCond254) R17 Frame(CFA_Y, -7)
        CFI (cfiCond254) R18 Frame(CFA_Y, -6)
        CFI (cfiCond254) R19 Frame(CFA_Y, -5)
        CFI (cfiCond254) R30 Frame(CFA_Y, -4)
        CFI (cfiCond254) R31 Frame(CFA_Y, -3)
        CFI (cfiCond254) R26 Frame(CFA_Y, -2)
        CFI (cfiCond254) R27 Frame(CFA_Y, -1)
        CFI (cfiCond254) CFA_SP SP+6
        CFI (cfiCond254) CFA_Y Y+8
        CFI Block cfiCond255 Using cfiCommon2
        CFI (cfiCond255) NoFunction
        CFI (cfiCond255) Conditional ??CrossCallReturnLabel_184
        CFI (cfiCond255) R16 Frame(CFA_Y, -7)
        CFI (cfiCond255) R17 Frame(CFA_Y, -6)
        CFI (cfiCond255) R18 Frame(CFA_Y, -5)
        CFI (cfiCond255) R19 Frame(CFA_Y, -4)
        CFI (cfiCond255) R20 Frame(CFA_Y, -3)
        CFI (cfiCond255) R30 Frame(CFA_Y, -2)
        CFI (cfiCond255) R31 Frame(CFA_Y, -1)
        CFI (cfiCond255) CFA_SP SP+6
        CFI (cfiCond255) CFA_Y Y+7
        CFI Block cfiPicker256 Using cfiCommon1
        CFI (cfiPicker256) NoFunction
        CFI (cfiPicker256) Picker
        ST	Z, R16
        STD	Z+1, R17
        RET
        CFI EndBlock cfiCond246
        CFI EndBlock cfiCond247
        CFI EndBlock cfiCond248
        CFI EndBlock cfiCond249
        CFI EndBlock cfiCond250
        CFI EndBlock cfiCond251
        CFI EndBlock cfiCond252
        CFI EndBlock cfiCond253
        CFI EndBlock cfiCond254
        CFI EndBlock cfiCond255
        CFI EndBlock cfiPicker256

        RSEG CODE:CODE:NOROOT(1)
?Subroutine34:
        CFI Block cfiCond257 Using cfiCommon2
        CFI NoFunction
        CFI Conditional ??CrossCallReturnLabel_69
        CFI R16 Frame(CFA_Y, -21)
        CFI R17 Frame(CFA_Y, -20)
        CFI R18 Frame(CFA_Y, -19)
        CFI R19 Frame(CFA_Y, -18)
        CFI R20 Frame(CFA_Y, -17)
        CFI R21 Frame(CFA_Y, -16)
        CFI R22 Frame(CFA_Y, -15)
        CFI R23 Frame(CFA_Y, -14)
        CFI R0 Frame(CFA_Y, -13)
        CFI R1 Frame(CFA_Y, -12)
        CFI R2 Frame(CFA_Y, -11)
        CFI R3 Frame(CFA_Y, -10)
        CFI R30 Frame(CFA_Y, -9)
        CFI R31 Frame(CFA_Y, -8)
        CFI R24 Frame(CFA_Y, -7)
        CFI R25 Frame(CFA_Y, -6)
        CFI R26 Frame(CFA_Y, -5)
        CFI R27 Frame(CFA_Y, -4)
        CFI R4 Frame(CFA_Y, -3)
        CFI R5 Frame(CFA_Y, -2)
        CFI R6 Frame(CFA_Y, -1)
        CFI CFA_SP SP+6
        CFI CFA_Y Y+21
        CFI Block cfiCond258 Using cfiCommon2
        CFI (cfiCond258) NoFunction
        CFI (cfiCond258) Conditional ??CrossCallReturnLabel_70
        CFI (cfiCond258) R16 Frame(CFA_Y, -21)
        CFI (cfiCond258) R17 Frame(CFA_Y, -20)
        CFI (cfiCond258) R18 Frame(CFA_Y, -19)
        CFI (cfiCond258) R19 Frame(CFA_Y, -18)
        CFI (cfiCond258) R20 Frame(CFA_Y, -17)
        CFI (cfiCond258) R21 Frame(CFA_Y, -16)
        CFI (cfiCond258) R22 Frame(CFA_Y, -15)
        CFI (cfiCond258) R23 Frame(CFA_Y, -14)
        CFI (cfiCond258) R0 Frame(CFA_Y, -13)
        CFI (cfiCond258) R1 Frame(CFA_Y, -12)
        CFI (cfiCond258) R2 Frame(CFA_Y, -11)
        CFI (cfiCond258) R3 Frame(CFA_Y, -10)
        CFI (cfiCond258) R30 Frame(CFA_Y, -9)
        CFI (cfiCond258) R31 Frame(CFA_Y, -8)
        CFI (cfiCond258) R24 Frame(CFA_Y, -7)
        CFI (cfiCond258) R25 Frame(CFA_Y, -6)
        CFI (cfiCond258) R26 Frame(CFA_Y, -5)
        CFI (cfiCond258) R27 Frame(CFA_Y, -4)
        CFI (cfiCond258) R4 Frame(CFA_Y, -3)
        CFI (cfiCond258) R5 Frame(CFA_Y, -2)
        CFI (cfiCond258) R6 Frame(CFA_Y, -1)
        CFI (cfiCond258) CFA_SP SP+6
        CFI (cfiCond258) CFA_Y Y+21
        CFI Block cfiPicker259 Using cfiCommon1
        CFI (cfiPicker259) NoFunction
        CFI (cfiPicker259) Picker
        LD	R16, Z
        LDD	R17, Z+1
        LDD	R18, Z+2
        LDD	R19, Z+3
        MOVW	R31:R30, R25:R24
        RET
        CFI EndBlock cfiCond257
        CFI EndBlock cfiCond258
        CFI EndBlock cfiPicker259

        RSEG CODE:CODE:NOROOT(1)
?Subroutine31:
        CFI Block cfiCond260 Using cfiCommon2
        CFI NoFunction
        CFI Conditional ??CrossCallReturnLabel_63
        CFI R16 Frame(CFA_Y, -21)
        CFI R17 Frame(CFA_Y, -20)
        CFI R18 Frame(CFA_Y, -19)
        CFI R19 Frame(CFA_Y, -18)
        CFI R20 Frame(CFA_Y, -17)
        CFI R21 Frame(CFA_Y, -16)
        CFI R22 Frame(CFA_Y, -15)
        CFI R23 Frame(CFA_Y, -14)
        CFI R0 Frame(CFA_Y, -13)
        CFI R1 Frame(CFA_Y, -12)
        CFI R2 Frame(CFA_Y, -11)
        CFI R3 Frame(CFA_Y, -10)
        CFI R30 Frame(CFA_Y, -9)
        CFI R31 Frame(CFA_Y, -8)
        CFI R24 Frame(CFA_Y, -7)
        CFI R25 Frame(CFA_Y, -6)
        CFI R26 Frame(CFA_Y, -5)
        CFI R27 Frame(CFA_Y, -4)
        CFI R4 Frame(CFA_Y, -3)
        CFI R5 Frame(CFA_Y, -2)
        CFI R6 Frame(CFA_Y, -1)
        CFI CFA_SP SP+6
        CFI CFA_Y Y+21
        CFI Block cfiCond261 Using cfiCommon2
        CFI (cfiCond261) NoFunction
        CFI (cfiCond261) Conditional ??CrossCallReturnLabel_64
        CFI (cfiCond261) R16 Frame(CFA_Y, -21)
        CFI (cfiCond261) R17 Frame(CFA_Y, -20)
        CFI (cfiCond261) R18 Frame(CFA_Y, -19)
        CFI (cfiCond261) R19 Frame(CFA_Y, -18)
        CFI (cfiCond261) R20 Frame(CFA_Y, -17)
        CFI (cfiCond261) R21 Frame(CFA_Y, -16)
        CFI (cfiCond261) R22 Frame(CFA_Y, -15)
        CFI (cfiCond261) R23 Frame(CFA_Y, -14)
        CFI (cfiCond261) R0 Frame(CFA_Y, -13)
        CFI (cfiCond261) R1 Frame(CFA_Y, -12)
        CFI (cfiCond261) R2 Frame(CFA_Y, -11)
        CFI (cfiCond261) R3 Frame(CFA_Y, -10)
        CFI (cfiCond261) R30 Frame(CFA_Y, -9)
        CFI (cfiCond261) R31 Frame(CFA_Y, -8)
        CFI (cfiCond261) R24 Frame(CFA_Y, -7)
        CFI (cfiCond261) R25 Frame(CFA_Y, -6)
        CFI (cfiCond261) R26 Frame(CFA_Y, -5)
        CFI (cfiCond261) R27 Frame(CFA_Y, -4)
        CFI (cfiCond261) R4 Frame(CFA_Y, -3)
        CFI (cfiCond261) R5 Frame(CFA_Y, -2)
        CFI (cfiCond261) R6 Frame(CFA_Y, -1)
        CFI (cfiCond261) CFA_SP SP+6
        CFI (cfiCond261) CFA_Y Y+21
        CFI Block cfiPicker262 Using cfiCommon1
        CFI (cfiPicker262) NoFunction
        CFI (cfiPicker262) Picker
        LD	R16, Z
        LDD	R17, Z+1
        OR	R16, R17
        BREQ	??Subroutine31_0
        LD	R16, Z
        SUBI	R16, 1
        SBCI	R17, 0
        ST	Z, R16
        STD	Z+1, R17
??Subroutine31_0:
        RET
        CFI EndBlock cfiCond260
        CFI EndBlock cfiCond261
        CFI EndBlock cfiPicker262

        RSEG CODE:CODE:NOROOT(1)
?Subroutine28:
        CFI Block cfiCond263 Using cfiCommon2
        CFI NoFunction
        CFI Conditional ??CrossCallReturnLabel_59
        CFI R16 Frame(CFA_Y, -21)
        CFI R17 Frame(CFA_Y, -20)
        CFI R18 Frame(CFA_Y, -19)
        CFI R19 Frame(CFA_Y, -18)
        CFI R20 Frame(CFA_Y, -17)
        CFI R21 Frame(CFA_Y, -16)
        CFI R22 Frame(CFA_Y, -15)
        CFI R23 Frame(CFA_Y, -14)
        CFI R0 Frame(CFA_Y, -13)
        CFI R1 Frame(CFA_Y, -12)
        CFI R2 Frame(CFA_Y, -11)
        CFI R3 Frame(CFA_Y, -10)
        CFI R30 Frame(CFA_Y, -9)
        CFI R31 Frame(CFA_Y, -8)
        CFI R24 Frame(CFA_Y, -7)
        CFI R25 Frame(CFA_Y, -6)
        CFI R26 Frame(CFA_Y, -5)
        CFI R27 Frame(CFA_Y, -4)
        CFI R4 Frame(CFA_Y, -3)
        CFI R5 Frame(CFA_Y, -2)
        CFI R6 Frame(CFA_Y, -1)
        CFI CFA_SP SP+6
        CFI CFA_Y Y+21
        CFI Block cfiCond264 Using cfiCommon2
        CFI (cfiCond264) NoFunction
        CFI (cfiCond264) Conditional ??CrossCallReturnLabel_60
        CFI (cfiCond264) R16 Frame(CFA_Y, -21)
        CFI (cfiCond264) R17 Frame(CFA_Y, -20)
        CFI (cfiCond264) R18 Frame(CFA_Y, -19)
        CFI (cfiCond264) R19 Frame(CFA_Y, -18)
        CFI (cfiCond264) R20 Frame(CFA_Y, -17)
        CFI (cfiCond264) R21 Frame(CFA_Y, -16)
        CFI (cfiCond264) R22 Frame(CFA_Y, -15)
        CFI (cfiCond264) R23 Frame(CFA_Y, -14)
        CFI (cfiCond264) R0 Frame(CFA_Y, -13)
        CFI (cfiCond264) R1 Frame(CFA_Y, -12)
        CFI (cfiCond264) R2 Frame(CFA_Y, -11)
        CFI (cfiCond264) R3 Frame(CFA_Y, -10)
        CFI (cfiCond264) R30 Frame(CFA_Y, -9)
        CFI (cfiCond264) R31 Frame(CFA_Y, -8)
        CFI (cfiCond264) R24 Frame(CFA_Y, -7)
        CFI (cfiCond264) R25 Frame(CFA_Y, -6)
        CFI (cfiCond264) R26 Frame(CFA_Y, -5)
        CFI (cfiCond264) R27 Frame(CFA_Y, -4)
        CFI (cfiCond264) R4 Frame(CFA_Y, -3)
        CFI (cfiCond264) R5 Frame(CFA_Y, -2)
        CFI (cfiCond264) R6 Frame(CFA_Y, -1)
        CFI (cfiCond264) CFA_SP SP+6
        CFI (cfiCond264) CFA_Y Y+21
        CFI Block cfiPicker265 Using cfiCommon1
        CFI (cfiPicker265) NoFunction
        CFI (cfiPicker265) Picker
        LD	R16, Z
        LDD	R17, Z+1
        LDD	R18, Z+2
        LDD	R19, Z+3
        OR	R16, R17
        OR	R16, R18
        OR	R16, R19
        BREQ	??Subroutine28_0
        LD	R16, Z
        SUBI	R16, 1
        SBCI	R17, 0
        SBCI	R18, 0
        SBCI	R19, 0
        ST	Z, R16
        STD	Z+1, R17
        STD	Z+2, R18
        STD	Z+3, R19
        OR	R16, R17
        OR	R16, R18
        OR	R16, R19
        BRNE	??Subroutine28_0
        LDI	R16, 1
        STS	Fl_ch_sim, R16
??Subroutine28_0:
        RET
        CFI EndBlock cfiCond263
        CFI EndBlock cfiCond264
        CFI EndBlock cfiPicker265

        RSEG CODE:CODE:NOROOT(1)
?Subroutine26:
        CFI Block cfiCond266 Using cfiCommon2
        CFI NoFunction
        CFI Conditional ??CrossCallReturnLabel_53
        CFI R16 Frame(CFA_Y, -19)
        CFI R17 Frame(CFA_Y, -18)
        CFI R18 Frame(CFA_Y, -17)
        CFI R19 Frame(CFA_Y, -16)
        CFI R20 Frame(CFA_Y, -15)
        CFI R21 Frame(CFA_Y, -14)
        CFI R22 Frame(CFA_Y, -13)
        CFI R23 Frame(CFA_Y, -12)
        CFI R0 Frame(CFA_Y, -11)
        CFI R1 Frame(CFA_Y, -10)
        CFI R2 Frame(CFA_Y, -9)
        CFI R3 Frame(CFA_Y, -8)
        CFI R30 Frame(CFA_Y, -7)
        CFI R31 Frame(CFA_Y, -6)
        CFI R24 Frame(CFA_Y, -5)
        CFI R25 Frame(CFA_Y, -4)
        CFI R26 Frame(CFA_Y, -3)
        CFI R27 Frame(CFA_Y, -2)
        CFI R4 Frame(CFA_Y, -1)
        CFI CFA_SP SP+6
        CFI CFA_Y Y+19
        CFI Block cfiCond267 Using cfiCommon2
        CFI (cfiCond267) NoFunction
        CFI (cfiCond267) Conditional ??CrossCallReturnLabel_54
        CFI (cfiCond267) R16 Frame(CFA_Y, -19)
        CFI (cfiCond267) R17 Frame(CFA_Y, -18)
        CFI (cfiCond267) R18 Frame(CFA_Y, -17)
        CFI (cfiCond267) R19 Frame(CFA_Y, -16)
        CFI (cfiCond267) R20 Frame(CFA_Y, -15)
        CFI (cfiCond267) R21 Frame(CFA_Y, -14)
        CFI (cfiCond267) R22 Frame(CFA_Y, -13)
        CFI (cfiCond267) R23 Frame(CFA_Y, -12)
        CFI (cfiCond267) R0 Frame(CFA_Y, -11)
        CFI (cfiCond267) R1 Frame(CFA_Y, -10)
        CFI (cfiCond267) R2 Frame(CFA_Y, -9)
        CFI (cfiCond267) R3 Frame(CFA_Y, -8)
        CFI (cfiCond267) R30 Frame(CFA_Y, -7)
        CFI (cfiCond267) R31 Frame(CFA_Y, -6)
        CFI (cfiCond267) R24 Frame(CFA_Y, -5)
        CFI (cfiCond267) R25 Frame(CFA_Y, -4)
        CFI (cfiCond267) R26 Frame(CFA_Y, -3)
        CFI (cfiCond267) R27 Frame(CFA_Y, -2)
        CFI (cfiCond267) R4 Frame(CFA_Y, -1)
        CFI (cfiCond267) CFA_SP SP+6
        CFI (cfiCond267) CFA_Y Y+19
        CFI Block cfiCond268 Using cfiCommon2
        CFI (cfiCond268) NoFunction
        CFI (cfiCond268) Conditional ??CrossCallReturnLabel_55
        CFI (cfiCond268) R16 Frame(CFA_Y, -19)
        CFI (cfiCond268) R17 Frame(CFA_Y, -18)
        CFI (cfiCond268) R18 Frame(CFA_Y, -17)
        CFI (cfiCond268) R19 Frame(CFA_Y, -16)
        CFI (cfiCond268) R20 Frame(CFA_Y, -15)
        CFI (cfiCond268) R21 Frame(CFA_Y, -14)
        CFI (cfiCond268) R22 Frame(CFA_Y, -13)
        CFI (cfiCond268) R23 Frame(CFA_Y, -12)
        CFI (cfiCond268) R0 Frame(CFA_Y, -11)
        CFI (cfiCond268) R1 Frame(CFA_Y, -10)
        CFI (cfiCond268) R2 Frame(CFA_Y, -9)
        CFI (cfiCond268) R3 Frame(CFA_Y, -8)
        CFI (cfiCond268) R30 Frame(CFA_Y, -7)
        CFI (cfiCond268) R31 Frame(CFA_Y, -6)
        CFI (cfiCond268) R24 Frame(CFA_Y, -5)
        CFI (cfiCond268) R25 Frame(CFA_Y, -4)
        CFI (cfiCond268) R26 Frame(CFA_Y, -3)
        CFI (cfiCond268) R27 Frame(CFA_Y, -2)
        CFI (cfiCond268) R4 Frame(CFA_Y, -1)
        CFI (cfiCond268) CFA_SP SP+6
        CFI (cfiCond268) CFA_Y Y+19
        CFI Block cfiCond269 Using cfiCommon2
        CFI (cfiCond269) NoFunction
        CFI (cfiCond269) Conditional ??CrossCallReturnLabel_56
        CFI (cfiCond269) R16 Frame(CFA_Y, -19)
        CFI (cfiCond269) R17 Frame(CFA_Y, -18)
        CFI (cfiCond269) R18 Frame(CFA_Y, -17)
        CFI (cfiCond269) R19 Frame(CFA_Y, -16)
        CFI (cfiCond269) R20 Frame(CFA_Y, -15)
        CFI (cfiCond269) R21 Frame(CFA_Y, -14)
        CFI (cfiCond269) R22 Frame(CFA_Y, -13)
        CFI (cfiCond269) R23 Frame(CFA_Y, -12)
        CFI (cfiCond269) R0 Frame(CFA_Y, -11)
        CFI (cfiCond269) R1 Frame(CFA_Y, -10)
        CFI (cfiCond269) R2 Frame(CFA_Y, -9)
        CFI (cfiCond269) R3 Frame(CFA_Y, -8)
        CFI (cfiCond269) R30 Frame(CFA_Y, -7)
        CFI (cfiCond269) R31 Frame(CFA_Y, -6)
        CFI (cfiCond269) R24 Frame(CFA_Y, -5)
        CFI (cfiCond269) R25 Frame(CFA_Y, -4)
        CFI (cfiCond269) R26 Frame(CFA_Y, -3)
        CFI (cfiCond269) R27 Frame(CFA_Y, -2)
        CFI (cfiCond269) R4 Frame(CFA_Y, -1)
        CFI (cfiCond269) CFA_SP SP+6
        CFI (cfiCond269) CFA_Y Y+19
        CFI Block cfiCond270 Using cfiCommon2
        CFI (cfiCond270) NoFunction
        CFI (cfiCond270) Conditional ??CrossCallReturnLabel_57
        CFI (cfiCond270) R16 Frame(CFA_Y, -21)
        CFI (cfiCond270) R17 Frame(CFA_Y, -20)
        CFI (cfiCond270) R18 Frame(CFA_Y, -19)
        CFI (cfiCond270) R19 Frame(CFA_Y, -18)
        CFI (cfiCond270) R20 Frame(CFA_Y, -17)
        CFI (cfiCond270) R21 Frame(CFA_Y, -16)
        CFI (cfiCond270) R22 Frame(CFA_Y, -15)
        CFI (cfiCond270) R23 Frame(CFA_Y, -14)
        CFI (cfiCond270) R0 Frame(CFA_Y, -13)
        CFI (cfiCond270) R1 Frame(CFA_Y, -12)
        CFI (cfiCond270) R2 Frame(CFA_Y, -11)
        CFI (cfiCond270) R3 Frame(CFA_Y, -10)
        CFI (cfiCond270) R30 Frame(CFA_Y, -9)
        CFI (cfiCond270) R31 Frame(CFA_Y, -8)
        CFI (cfiCond270) R24 Frame(CFA_Y, -7)
        CFI (cfiCond270) R25 Frame(CFA_Y, -6)
        CFI (cfiCond270) R26 Frame(CFA_Y, -5)
        CFI (cfiCond270) R27 Frame(CFA_Y, -4)
        CFI (cfiCond270) R4 Frame(CFA_Y, -3)
        CFI (cfiCond270) R5 Frame(CFA_Y, -2)
        CFI (cfiCond270) R6 Frame(CFA_Y, -1)
        CFI (cfiCond270) CFA_SP SP+6
        CFI (cfiCond270) CFA_Y Y+21
        CFI Block cfiCond271 Using cfiCommon2
        CFI (cfiCond271) NoFunction
        CFI (cfiCond271) Conditional ??CrossCallReturnLabel_58
        CFI (cfiCond271) R16 Frame(CFA_Y, -20)
        CFI (cfiCond271) R17 Frame(CFA_Y, -19)
        CFI (cfiCond271) R18 Frame(CFA_Y, -18)
        CFI (cfiCond271) R19 Frame(CFA_Y, -17)
        CFI (cfiCond271) R20 Frame(CFA_Y, -16)
        CFI (cfiCond271) R21 Frame(CFA_Y, -15)
        CFI (cfiCond271) R22 Frame(CFA_Y, -14)
        CFI (cfiCond271) R23 Frame(CFA_Y, -13)
        CFI (cfiCond271) R0 Frame(CFA_Y, -12)
        CFI (cfiCond271) R1 Frame(CFA_Y, -11)
        CFI (cfiCond271) R2 Frame(CFA_Y, -10)
        CFI (cfiCond271) R3 Frame(CFA_Y, -9)
        CFI (cfiCond271) R30 Frame(CFA_Y, -8)
        CFI (cfiCond271) R31 Frame(CFA_Y, -7)
        CFI (cfiCond271) R26 Frame(CFA_Y, -6)
        CFI (cfiCond271) R27 Frame(CFA_Y, -5)
        CFI (cfiCond271) R4 Frame(CFA_Y, -4)
        CFI (cfiCond271) R5 Frame(CFA_Y, -3)
        CFI (cfiCond271) R6 Frame(CFA_Y, -2)
        CFI (cfiCond271) R7 Frame(CFA_Y, -1)
        CFI (cfiCond271) CFA_SP SP+6
        CFI (cfiCond271) CFA_Y Y+20
        CFI Block cfiPicker272 Using cfiCommon1
        CFI (cfiPicker272) NoFunction
        CFI (cfiPicker272) Picker
        LDI	R30, LOW(fl_wdt)
        LDI	R31, (fl_wdt) >> 8
        LD	R16, Z
        RET
        CFI EndBlock cfiCond266
        CFI EndBlock cfiCond267
        CFI EndBlock cfiCond268
        CFI EndBlock cfiCond269
        CFI EndBlock cfiCond270
        CFI EndBlock cfiCond271
        CFI EndBlock cfiPicker272

        RSEG CODE:CODE:NOROOT(1)
?Subroutine25:
        CFI Block cfiCond273 Using cfiCommon2
        CFI NoFunction
        CFI Conditional ??CrossCallReturnLabel_49
        CFI CFA_SP SP+6
        CFI Block cfiCond274 Using cfiCommon2
        CFI (cfiCond274) NoFunction
        CFI (cfiCond274) Conditional ??CrossCallReturnLabel_52
        CFI (cfiCond274) R7 Frame(CFA_Y, -1)
        CFI (cfiCond274) CFA_SP SP+6
        CFI (cfiCond274) CFA_Y Y+1
        CFI Block cfiPicker275 Using cfiCommon1
        CFI (cfiPicker275) NoFunction
        CFI (cfiPicker275) Picker
        ST	-Y, R6
        CFI (cfiCond273) R6 Frame(CFA_Y, -1)
        CFI (cfiCond273) CFA_Y Y+1
        CFI (cfiCond274) R6 Frame(CFA_Y, -2)
        CFI (cfiCond274) CFA_Y Y+2
        CFI (cfiPicker275) R6 Frame(CFA_Y, -1)
        ST	-Y, R5
        CFI (cfiCond273) R5 Frame(CFA_Y, -2)
        CFI (cfiCond273) CFA_Y Y+2
        CFI (cfiCond274) R5 Frame(CFA_Y, -3)
        CFI (cfiCond274) CFA_Y Y+3
        CFI (cfiPicker275) R5 Frame(CFA_Y, -2)
        ST	-Y, R4
        CFI (cfiCond273) R4 Frame(CFA_Y, -3)
        CFI (cfiCond273) CFA_Y Y+3
        CFI (cfiCond274) R4 Frame(CFA_Y, -4)
        CFI (cfiCond274) CFA_Y Y+4
        CFI (cfiPicker275) R4 Frame(CFA_Y, -3)
        CFI Block cfiCond276 Using cfiCommon2
        CFI (cfiCond276) NoFunction
        CFI (cfiCond276) Conditional ??CrossCallReturnLabel_50
        CFI (cfiCond276) CFA_SP SP+6
        CFI Block cfiCond277 Using cfiCommon2
        CFI (cfiCond277) NoFunction
        CFI (cfiCond277) Conditional ??CrossCallReturnLabel_51
        CFI (cfiCond277) CFA_SP SP+6
??Subroutine25_0:
        ST	-Y, R27
        CFI (cfiCond273) R27 Frame(CFA_Y, -4)
        CFI (cfiCond273) CFA_Y Y+4
        CFI (cfiCond274) R27 Frame(CFA_Y, -5)
        CFI (cfiCond274) CFA_Y Y+5
        CFI (cfiPicker275) R27 Frame(CFA_Y, -4)
        CFI (cfiCond276) R27 Frame(CFA_Y, -1)
        CFI (cfiCond276) CFA_Y Y+1
        CFI (cfiCond277) R27 Frame(CFA_Y, -1)
        CFI (cfiCond277) CFA_Y Y+1
        ST	-Y, R26
        CFI (cfiCond273) R26 Frame(CFA_Y, -5)
        CFI (cfiCond273) CFA_Y Y+5
        CFI (cfiCond274) R26 Frame(CFA_Y, -6)
        CFI (cfiCond274) CFA_Y Y+6
        CFI (cfiPicker275) R26 Frame(CFA_Y, -5)
        CFI (cfiCond276) R26 Frame(CFA_Y, -2)
        CFI (cfiCond276) CFA_Y Y+2
        CFI (cfiCond277) R26 Frame(CFA_Y, -2)
        CFI (cfiCond277) CFA_Y Y+2
        RET
        CFI EndBlock cfiCond273
        CFI EndBlock cfiCond274
        CFI EndBlock cfiPicker275
        CFI EndBlock cfiCond276
        CFI EndBlock cfiCond277
// 1450 
// 1451 
// 1452 
// 1453 #pragma vector=USART0_RX_vect
// 1454            

        RSEG CODE:CODE:NOROOT(1)
// 1455            __interrupt  void USART0_RX_interrupt(void)
USART0_RX_interrupt:
        CFI Block cfiBlock278 Using cfiCommon2
        CFI Function USART0_RX_interrupt
// 1456                  
// 1457                  
// 1458                 {
        FUNCALL USART0_RX_interrupt, recive_buf1
        LOCFRAME CSTACK, 17, STACK
        LOCFRAME RSTACK, 3, STACK
        FUNCALL USART0_RX_interrupt, recive_buf2
        LOCFRAME CSTACK, 17, STACK
        LOCFRAME RSTACK, 3, STACK
        RCALL	?Subroutine20
        CFI R16 Frame(CFA_Y, -17)
        CFI R17 Frame(CFA_Y, -16)
        CFI R18 Frame(CFA_Y, -15)
        CFI R19 Frame(CFA_Y, -14)
        CFI R20 Frame(CFA_Y, -13)
        CFI R21 Frame(CFA_Y, -12)
        CFI R22 Frame(CFA_Y, -11)
        CFI R23 Frame(CFA_Y, -10)
        CFI R0 Frame(CFA_Y, -9)
        CFI R1 Frame(CFA_Y, -8)
        CFI R2 Frame(CFA_Y, -7)
        CFI R3 Frame(CFA_Y, -6)
        CFI R30 Frame(CFA_Y, -5)
        CFI R31 Frame(CFA_Y, -4)
        CFI R24 Frame(CFA_Y, -3)
        CFI R25 Frame(CFA_Y, -2)
        CFI R26 Frame(CFA_Y, -1)
        CFI CFA_Y Y+17
// 1459                 unsigned char data;                
// 1460                 data=UDR0;
??CrossCallReturnLabel_39:
        LDS	R16, 198
// 1461                 if((Regim==MODEM_ONLY)||(Regim==MODEM_ONLY_R)){UDR2=data;return;} //dobavka             
        LDS	R17, Regim
        CPI	R17, 2
        BREQ	??USART0_RX_interrupt_0
        CPI	R17, 3
        BRNE	??USART0_RX_interrupt_1
??USART0_RX_interrupt_0:
        STS	214, R16
        RJMP	??USART0_RX_interrupt_2
// 1462                 if(Regim==RG_DEBAG)UDR1=data; 
??USART0_RX_interrupt_1:
        CPI	R17, 1
        BRNE	??USART0_RX_interrupt_3
        STS	206, R16
// 1463                 //* â ňĺđěčíŕëüíîě đĺćčěĺ çŕďîëí˙ĺě ěŕńńčâ
// 1464                 if (fl_at_mom_232==1) {
??USART0_RX_interrupt_3:
        LDS	R17, fl_at_mom_232
        CPI	R17, 1
        BRNE	??USART0_RX_interrupt_4
// 1465                                       
// 1466                                        Appl_seq_buf[point_Head]=data; 
        LDS	R18, point_Head
        LDI	R19, 0
        MOVW	R31:R30, R19:R18
        SUBI	R30, LOW((-(Appl_seq_buf) & 0xFFFF))
        SBCI	R31, (-(Appl_seq_buf) & 0xFFFF) >> 8
        ST	Z, R16
// 1467                                        point_Head++;
// 1468                                        point_Head=point_Head & 0x3f;
        LDS	R16, point_Head
        INC	R16
        ANDI	R16, 0x3F
        STS	point_Head, R16
// 1469                                        return;
        RJMP	??USART0_RX_interrupt_2
// 1470                 }
// 1471                 
// 1472                 
// 1473                 
// 1474                 
// 1475                 //*
// 1476               
// 1477                 if(command_AT==TRUE)
??USART0_RX_interrupt_4:
        LDS	R17, command_AT
        CPI	R17, 1
        BRNE	??USART0_RX_interrupt_5
// 1478                     {
// 1479                     if(fl_at_com.rx_en==0)return;  //dobavka 08.11.2007
        LDS	R17, fl_at_com
        SBRS	R17, 4
        RJMP	??USART0_RX_interrupt_2
// 1480                     
// 1481                     S2_GR;
        CBI	0x08, 0x00
        SBI	0x08, 0x01
// 1482                     At_com.cnt_rx_out=At_com.vol_rx_out;
        LDI	R30, LOW((At_com + 67))
        LDI	R31, HIGH((At_com + 67))
        LD	R18, Z
        LDD	R19, Z+1
        LDI	R30, LOW((At_com + 65))
        LDI	R31, HIGH((At_com + 65))
        ST	Z, R18
        STD	Z+1, R19
// 1483                     At_com.cnt_tm_out=0;
        LDI	R18, 0
        LDI	R19, 0
        LDI	R30, LOW((At_com + 61))
        LDI	R31, HIGH((At_com + 61))
        ST	Z, R18
        STD	Z+1, R18
// 1484                     if(At_com.cnt_rx < LN_BUF_AT)
        LDS	R18, (At_com + 41)
        CPI	R18, 40
        BRCC	??USART0_RX_interrupt_2
// 1485                           {
// 1486                            At_com.buf[At_com.cnt_rx]=data;
        MOVW	R31:R30, R19:R18
        SUBI	R30, LOW((-(At_com) & 0xFFFF))
        SBCI	R31, (-(At_com) & 0xFFFF) >> 8
        ST	Z, R16
// 1487                            At_com.cnt_rx++;
        LDI	R30, LOW(At_com)
        LDI	R31, (At_com) >> 8
        LDD	R16, Z+41
        INC	R16
        STD	Z+41, R16
        RJMP	??USART0_RX_interrupt_2
// 1488                            }
// 1489                     return;
// 1490                     }
// 1491                
// 1492                   cnt_incom++;
??USART0_RX_interrupt_5:
        LDI	R30, LOW(cnt_incom)
        LDI	R31, (cnt_incom) >> 8
        LD	R20, Z
        LDD	R21, Z+1
        LDD	R22, Z+2
        LDD	R23, Z+3
        SUBI	R20, 255
        SBCI	R21, 255
        SBCI	R22, 255
        SBCI	R23, 255
        ST	Z, R20
        STD	Z+1, R21
        STD	Z+2, R22
        STD	Z+3, R23
// 1493                   if(fl_rx_ppp.switcher==0)recive_buf1(data);else recive_buf2(data);
        LDS	R17, (point_Head + 1)
        SBRC	R17, 2
        RJMP	??USART0_RX_interrupt_6
        CALL	recive_buf1
        RJMP	??USART0_RX_interrupt_2
??USART0_RX_interrupt_6:
        CALL	recive_buf2
        CFI EndBlock cfiBlock278
??USART0_RX_interrupt_2:
        REQUIRE ?Subroutine86
        ;		// Fall through to label ?Subroutine86
// 1494   
// 1495                  }

        RSEG CODE:CODE:NOROOT(1)
?Subroutine86:
        CFI Block cfiBlock279 Using cfiCommon2
        CFI NoFunction
        CFI CFA_Y Y+17
        CFI R0 Frame(CFA_Y, -9)
        CFI R1 Frame(CFA_Y, -8)
        CFI R2 Frame(CFA_Y, -7)
        CFI R3 Frame(CFA_Y, -6)
        CFI R16 Frame(CFA_Y, -17)
        CFI R17 Frame(CFA_Y, -16)
        CFI R18 Frame(CFA_Y, -15)
        CFI R19 Frame(CFA_Y, -14)
        CFI R20 Frame(CFA_Y, -13)
        CFI R21 Frame(CFA_Y, -12)
        CFI R22 Frame(CFA_Y, -11)
        CFI R23 Frame(CFA_Y, -10)
        CFI R24 Frame(CFA_Y, -3)
        CFI R25 Frame(CFA_Y, -2)
        CFI R26 Frame(CFA_Y, -1)
        CFI R30 Frame(CFA_Y, -5)
        CFI R31 Frame(CFA_Y, -4)
        RCALL	?Subroutine54
        CFI CFA_Y Y+0
        CFI R0 SameValue
        CFI R1 SameValue
        CFI R2 SameValue
        CFI R3 SameValue
        CFI R16 SameValue
        CFI R17 SameValue
        CFI R18 SameValue
        CFI R19 SameValue
        CFI R20 SameValue
        CFI R21 SameValue
        CFI R22 SameValue
        CFI R23 SameValue
        CFI R24 SameValue
        CFI R25 SameValue
        CFI R26 SameValue
        CFI R30 SameValue
        CFI R31 SameValue
??CrossCallReturnLabel_172:
        RETI
        CFI EndBlock cfiBlock279
// 1496  /////////////////////////////////////////////////////////////////////////////////////////////////////  
// 1497     
// 1498  //////////////////////////////////////////////////////////////////////////////////////////////////////////
// 1499 
// 1500 #pragma vector=USART0_TX_vect

        RSEG CODE:CODE:NOROOT(1)
// 1501      __interrupt void USART0_TX_interrupt(void) 
USART0_TX_interrupt:
        CFI Block cfiBlock280 Using cfiCommon2
        CFI Function USART0_TX_interrupt
// 1502 
// 1503 { 
        FUNCALL USART0_TX_interrupt, sending_at_pac
        LOCFRAME CSTACK, 17, STACK
        LOCFRAME RSTACK, 3, STACK
        FUNCALL USART0_TX_interrupt, sending_ppp_pac
        LOCFRAME CSTACK, 17, STACK
        LOCFRAME RSTACK, 3, STACK
        FUNCALL USART0_TX_interrupt, check_cts
        LOCFRAME CSTACK, 17, STACK
        LOCFRAME RSTACK, 3, STACK
        RCALL	?Subroutine20
        CFI R16 Frame(CFA_Y, -17)
        CFI R17 Frame(CFA_Y, -16)
        CFI R18 Frame(CFA_Y, -15)
        CFI R19 Frame(CFA_Y, -14)
        CFI R20 Frame(CFA_Y, -13)
        CFI R21 Frame(CFA_Y, -12)
        CFI R22 Frame(CFA_Y, -11)
        CFI R23 Frame(CFA_Y, -10)
        CFI R0 Frame(CFA_Y, -9)
        CFI R1 Frame(CFA_Y, -8)
        CFI R2 Frame(CFA_Y, -7)
        CFI R3 Frame(CFA_Y, -6)
        CFI R30 Frame(CFA_Y, -5)
        CFI R31 Frame(CFA_Y, -4)
        CFI R24 Frame(CFA_Y, -3)
        CFI R25 Frame(CFA_Y, -2)
        CFI R26 Frame(CFA_Y, -1)
        CFI CFA_Y Y+17
// 1504   
// 1505   if(command_AT==TRUE)sending_at_pac(); 
??CrossCallReturnLabel_40:
        LDS	R16, command_AT
        CPI	R16, 1
        BRNE	??USART0_TX_interrupt_0
        CALL	sending_at_pac
        RJMP	??USART0_TX_interrupt_1
// 1506     
// 1507   else 
// 1508         {
// 1509         
// 1510         if(fl_cts_232_ignor==TRUE){sending_ppp_pac();return;}
??USART0_TX_interrupt_0:
        LDS	R16, fl_cts_232_ignor
        CPI	R16, 1
        BRNE	??USART0_TX_interrupt_2
??USART0_TX_interrupt_3:
        RCALL	?Subroutine67
??CrossCallReturnLabel_144:
        RJMP	??USART0_TX_interrupt_1
// 1511         
// 1512         cnt_outcom++;
??USART0_TX_interrupt_2:
        LDI	R30, LOW(cnt_outcom)
        LDI	R31, (cnt_outcom) >> 8
        RCALL	?Subroutine30
// 1513         
// 1514         if(check_cts()==1) return;
??CrossCallReturnLabel_61:
        CALL	check_cts
        CPI	R16, 1
        BRNE	??USART0_TX_interrupt_3
??USART0_TX_interrupt_1:
        RJMP	?Subroutine86
        CFI EndBlock cfiBlock280
// 1515         sending_ppp_pac();
// 1516         } 
// 1517   }

        RSEG CODE:CODE:NOROOT(1)
?Subroutine67:
        CFI Block cfiCond281 Using cfiCommon2
        CFI NoFunction
        CFI Conditional ??CrossCallReturnLabel_146
        CFI R16 Frame(CFA_Y, -19)
        CFI R17 Frame(CFA_Y, -18)
        CFI R18 Frame(CFA_Y, -17)
        CFI R19 Frame(CFA_Y, -16)
        CFI R20 Frame(CFA_Y, -15)
        CFI R21 Frame(CFA_Y, -14)
        CFI R22 Frame(CFA_Y, -13)
        CFI R23 Frame(CFA_Y, -12)
        CFI R0 Frame(CFA_Y, -11)
        CFI R1 Frame(CFA_Y, -10)
        CFI R2 Frame(CFA_Y, -9)
        CFI R3 Frame(CFA_Y, -8)
        CFI R30 Frame(CFA_Y, -7)
        CFI R31 Frame(CFA_Y, -6)
        CFI R24 Frame(CFA_Y, -5)
        CFI R25 Frame(CFA_Y, -4)
        CFI R26 Frame(CFA_Y, -3)
        CFI R27 Frame(CFA_Y, -2)
        CFI R4 Frame(CFA_Y, -1)
        CFI CFA_SP SP+6
        CFI CFA_Y Y+19
        CFI Block cfiCond282 Using cfiCommon2
        CFI (cfiCond282) NoFunction
        CFI (cfiCond282) Conditional ??CrossCallReturnLabel_145
        CFI (cfiCond282) R16 Frame(CFA_Y, -19)
        CFI (cfiCond282) R17 Frame(CFA_Y, -18)
        CFI (cfiCond282) R18 Frame(CFA_Y, -17)
        CFI (cfiCond282) R19 Frame(CFA_Y, -16)
        CFI (cfiCond282) R20 Frame(CFA_Y, -15)
        CFI (cfiCond282) R21 Frame(CFA_Y, -14)
        CFI (cfiCond282) R22 Frame(CFA_Y, -13)
        CFI (cfiCond282) R23 Frame(CFA_Y, -12)
        CFI (cfiCond282) R0 Frame(CFA_Y, -11)
        CFI (cfiCond282) R1 Frame(CFA_Y, -10)
        CFI (cfiCond282) R2 Frame(CFA_Y, -9)
        CFI (cfiCond282) R3 Frame(CFA_Y, -8)
        CFI (cfiCond282) R30 Frame(CFA_Y, -7)
        CFI (cfiCond282) R31 Frame(CFA_Y, -6)
        CFI (cfiCond282) R24 Frame(CFA_Y, -5)
        CFI (cfiCond282) R25 Frame(CFA_Y, -4)
        CFI (cfiCond282) R26 Frame(CFA_Y, -3)
        CFI (cfiCond282) R27 Frame(CFA_Y, -2)
        CFI (cfiCond282) R4 Frame(CFA_Y, -1)
        CFI (cfiCond282) CFA_SP SP+6
        CFI (cfiCond282) CFA_Y Y+19
        CFI Block cfiCond283 Using cfiCommon2
        CFI (cfiCond283) NoFunction
        CFI (cfiCond283) Conditional ??CrossCallReturnLabel_144
        CFI (cfiCond283) R16 Frame(CFA_Y, -17)
        CFI (cfiCond283) R17 Frame(CFA_Y, -16)
        CFI (cfiCond283) R18 Frame(CFA_Y, -15)
        CFI (cfiCond283) R19 Frame(CFA_Y, -14)
        CFI (cfiCond283) R20 Frame(CFA_Y, -13)
        CFI (cfiCond283) R21 Frame(CFA_Y, -12)
        CFI (cfiCond283) R22 Frame(CFA_Y, -11)
        CFI (cfiCond283) R23 Frame(CFA_Y, -10)
        CFI (cfiCond283) R0 Frame(CFA_Y, -9)
        CFI (cfiCond283) R1 Frame(CFA_Y, -8)
        CFI (cfiCond283) R2 Frame(CFA_Y, -7)
        CFI (cfiCond283) R3 Frame(CFA_Y, -6)
        CFI (cfiCond283) R30 Frame(CFA_Y, -5)
        CFI (cfiCond283) R31 Frame(CFA_Y, -4)
        CFI (cfiCond283) R24 Frame(CFA_Y, -3)
        CFI (cfiCond283) R25 Frame(CFA_Y, -2)
        CFI (cfiCond283) R26 Frame(CFA_Y, -1)
        CFI (cfiCond283) CFA_SP SP+6
        CFI (cfiCond283) CFA_Y Y+17
        CFI Block cfiPicker284 Using cfiCommon1
        CFI (cfiPicker284) NoFunction
        CFI (cfiPicker284) Picker
        JMP	sending_ppp_pac
        CFI EndBlock cfiCond281
        CFI EndBlock cfiCond282
        CFI EndBlock cfiCond283
        CFI EndBlock cfiPicker284

        RSEG CODE:CODE:NOROOT(1)
?Subroutine54:
        CFI Block cfiCond285 Using cfiCommon2
        CFI NoFunction
        CFI Conditional ??CrossCallReturnLabel_172
        CFI R16 Frame(CFA_Y, -17)
        CFI R17 Frame(CFA_Y, -16)
        CFI R18 Frame(CFA_Y, -15)
        CFI R19 Frame(CFA_Y, -14)
        CFI R20 Frame(CFA_Y, -13)
        CFI R21 Frame(CFA_Y, -12)
        CFI R22 Frame(CFA_Y, -11)
        CFI R23 Frame(CFA_Y, -10)
        CFI R0 Frame(CFA_Y, -9)
        CFI R1 Frame(CFA_Y, -8)
        CFI R2 Frame(CFA_Y, -7)
        CFI R3 Frame(CFA_Y, -6)
        CFI R30 Frame(CFA_Y, -5)
        CFI R31 Frame(CFA_Y, -4)
        CFI R24 Frame(CFA_Y, -3)
        CFI R25 Frame(CFA_Y, -2)
        CFI R26 Frame(CFA_Y, -1)
        CFI CFA_SP SP+6
        CFI CFA_Y Y+17
        CFI Block cfiCond286 Using cfiCommon2
        CFI (cfiCond286) NoFunction
        CFI (cfiCond286) Conditional ??CrossCallReturnLabel_172
        CFI (cfiCond286) R16 Frame(CFA_Y, -17)
        CFI (cfiCond286) R17 Frame(CFA_Y, -16)
        CFI (cfiCond286) R18 Frame(CFA_Y, -15)
        CFI (cfiCond286) R19 Frame(CFA_Y, -14)
        CFI (cfiCond286) R20 Frame(CFA_Y, -13)
        CFI (cfiCond286) R21 Frame(CFA_Y, -12)
        CFI (cfiCond286) R22 Frame(CFA_Y, -11)
        CFI (cfiCond286) R23 Frame(CFA_Y, -10)
        CFI (cfiCond286) R0 Frame(CFA_Y, -9)
        CFI (cfiCond286) R1 Frame(CFA_Y, -8)
        CFI (cfiCond286) R2 Frame(CFA_Y, -7)
        CFI (cfiCond286) R3 Frame(CFA_Y, -6)
        CFI (cfiCond286) R30 Frame(CFA_Y, -5)
        CFI (cfiCond286) R31 Frame(CFA_Y, -4)
        CFI (cfiCond286) R24 Frame(CFA_Y, -3)
        CFI (cfiCond286) R25 Frame(CFA_Y, -2)
        CFI (cfiCond286) R26 Frame(CFA_Y, -1)
        CFI (cfiCond286) CFA_SP SP+6
        CFI (cfiCond286) CFA_Y Y+17
        CFI Block cfiPicker287 Using cfiCommon1
        CFI (cfiPicker287) NoFunction
        CFI (cfiPicker287) Picker
        OUT	0x3C, R26
        OUT	0x3B, R25
        OUT	0x3F, R24
        LD	R16, Y+
        CFI (cfiCond285) R16 SameValue
        CFI (cfiCond285) CFA_Y Y+16
        CFI (cfiCond286) R16 SameValue
        CFI (cfiCond286) CFA_Y Y+16
        LD	R17, Y+
        CFI (cfiCond285) R17 SameValue
        CFI (cfiCond285) CFA_Y Y+15
        CFI (cfiCond286) R17 SameValue
        CFI (cfiCond286) CFA_Y Y+15
        LD	R18, Y+
        CFI (cfiCond285) R18 SameValue
        CFI (cfiCond285) CFA_Y Y+14
        CFI (cfiCond286) R18 SameValue
        CFI (cfiCond286) CFA_Y Y+14
        LD	R19, Y+
        CFI (cfiCond285) R19 SameValue
        CFI (cfiCond285) CFA_Y Y+13
        CFI (cfiCond286) R19 SameValue
        CFI (cfiCond286) CFA_Y Y+13
        LD	R20, Y+
        CFI (cfiCond285) R20 SameValue
        CFI (cfiCond285) CFA_Y Y+12
        CFI (cfiCond286) R20 SameValue
        CFI (cfiCond286) CFA_Y Y+12
        LD	R21, Y+
        CFI (cfiCond285) R21 SameValue
        CFI (cfiCond285) CFA_Y Y+11
        CFI (cfiCond286) R21 SameValue
        CFI (cfiCond286) CFA_Y Y+11
        LD	R22, Y+
        CFI (cfiCond285) R22 SameValue
        CFI (cfiCond285) CFA_Y Y+10
        CFI (cfiCond286) R22 SameValue
        CFI (cfiCond286) CFA_Y Y+10
        LD	R23, Y+
        CFI (cfiCond285) R23 SameValue
        CFI (cfiCond285) CFA_Y Y+9
        CFI (cfiCond286) R23 SameValue
        CFI (cfiCond286) CFA_Y Y+9
        LD	R0, Y+
        CFI (cfiCond285) R0 SameValue
        CFI (cfiCond285) CFA_Y Y+8
        CFI (cfiCond286) R0 SameValue
        CFI (cfiCond286) CFA_Y Y+8
        LD	R1, Y+
        CFI (cfiCond285) R1 SameValue
        CFI (cfiCond285) CFA_Y Y+7
        CFI (cfiCond286) R1 SameValue
        CFI (cfiCond286) CFA_Y Y+7
        LD	R2, Y+
        CFI (cfiCond285) R2 SameValue
        CFI (cfiCond285) CFA_Y Y+6
        CFI (cfiCond286) R2 SameValue
        CFI (cfiCond286) CFA_Y Y+6
        LD	R3, Y+
        CFI (cfiCond285) R3 SameValue
        CFI (cfiCond285) CFA_Y Y+5
        CFI (cfiCond286) R3 SameValue
        CFI (cfiCond286) CFA_Y Y+5
        LD	R30, Y+
        CFI (cfiCond285) R30 SameValue
        CFI (cfiCond285) CFA_Y Y+4
        CFI (cfiCond286) R30 SameValue
        CFI (cfiCond286) CFA_Y Y+4
        LD	R31, Y+
        CFI (cfiCond285) R31 SameValue
        CFI (cfiCond285) CFA_Y Y+3
        CFI (cfiCond286) R31 SameValue
        CFI (cfiCond286) CFA_Y Y+3
        LD	R24, Y+
        CFI (cfiCond285) R24 SameValue
        CFI (cfiCond285) CFA_Y Y+2
        CFI (cfiCond286) R24 SameValue
        CFI (cfiCond286) CFA_Y Y+2
        LD	R25, Y+
        CFI (cfiCond285) R25 SameValue
        CFI (cfiCond285) CFA_Y Y+1
        CFI (cfiCond286) R25 SameValue
        CFI (cfiCond286) CFA_Y Y+1
        LD	R26, Y+
        CFI (cfiCond285) R26 SameValue
        CFI (cfiCond285) CFA_Y Y+0
        CFI (cfiCond286) R26 SameValue
        CFI (cfiCond286) CFA_Y Y+0
        RET
        CFI EndBlock cfiCond285
        CFI EndBlock cfiCond286
        CFI EndBlock cfiPicker287

        RSEG CODE:CODE:NOROOT(1)
?Subroutine20:
        CFI Block cfiCond288 Using cfiCommon2
        CFI NoFunction
        CFI Conditional ??CrossCallReturnLabel_39
        CFI CFA_SP SP+6
        CFI Block cfiCond289 Using cfiCommon2
        CFI (cfiCond289) NoFunction
        CFI (cfiCond289) Conditional ??CrossCallReturnLabel_40
        CFI (cfiCond289) CFA_SP SP+6
        CFI Block cfiPicker290 Using cfiCommon1
        CFI (cfiPicker290) NoFunction
        CFI (cfiPicker290) Picker
        ST	-Y, R26
        CFI (cfiCond288) R26 Frame(CFA_Y, -1)
        CFI (cfiCond288) CFA_Y Y+1
        CFI (cfiCond289) R26 Frame(CFA_Y, -1)
        CFI (cfiCond289) CFA_Y Y+1
        CFI (cfiPicker290) R26 Frame(CFA_Y, -1)
        ST	-Y, R25
        CFI (cfiCond288) R25 Frame(CFA_Y, -2)
        CFI (cfiCond288) CFA_Y Y+2
        CFI (cfiCond289) R25 Frame(CFA_Y, -2)
        CFI (cfiCond289) CFA_Y Y+2
        CFI (cfiPicker290) R25 Frame(CFA_Y, -2)
        ST	-Y, R24
        CFI (cfiCond288) R24 Frame(CFA_Y, -3)
        CFI (cfiCond288) CFA_Y Y+3
        CFI (cfiCond289) R24 Frame(CFA_Y, -3)
        CFI (cfiCond289) CFA_Y Y+3
        CFI (cfiPicker290) R24 Frame(CFA_Y, -3)
        ST	-Y, R31
        CFI (cfiCond288) R31 Frame(CFA_Y, -4)
        CFI (cfiCond288) CFA_Y Y+4
        CFI (cfiCond289) R31 Frame(CFA_Y, -4)
        CFI (cfiCond289) CFA_Y Y+4
        CFI (cfiPicker290) R31 Frame(CFA_Y, -4)
        ST	-Y, R30
        CFI (cfiCond288) R30 Frame(CFA_Y, -5)
        CFI (cfiCond288) CFA_Y Y+5
        CFI (cfiCond289) R30 Frame(CFA_Y, -5)
        CFI (cfiCond289) CFA_Y Y+5
        CFI (cfiPicker290) R30 Frame(CFA_Y, -5)
        ST	-Y, R3
        CFI (cfiCond288) R3 Frame(CFA_Y, -6)
        CFI (cfiCond288) CFA_Y Y+6
        CFI (cfiCond289) R3 Frame(CFA_Y, -6)
        CFI (cfiCond289) CFA_Y Y+6
        CFI (cfiPicker290) R3 Frame(CFA_Y, -6)
        ST	-Y, R2
        CFI (cfiCond288) R2 Frame(CFA_Y, -7)
        CFI (cfiCond288) CFA_Y Y+7
        CFI (cfiCond289) R2 Frame(CFA_Y, -7)
        CFI (cfiCond289) CFA_Y Y+7
        CFI (cfiPicker290) R2 Frame(CFA_Y, -7)
        ST	-Y, R1
        CFI (cfiCond288) R1 Frame(CFA_Y, -8)
        CFI (cfiCond288) CFA_Y Y+8
        CFI (cfiCond289) R1 Frame(CFA_Y, -8)
        CFI (cfiCond289) CFA_Y Y+8
        CFI (cfiPicker290) R1 Frame(CFA_Y, -8)
        ST	-Y, R0
        CFI (cfiCond288) R0 Frame(CFA_Y, -9)
        CFI (cfiCond288) CFA_Y Y+9
        CFI (cfiCond289) R0 Frame(CFA_Y, -9)
        CFI (cfiCond289) CFA_Y Y+9
        CFI (cfiPicker290) R0 Frame(CFA_Y, -9)
        ST	-Y, R23
        CFI (cfiCond288) R23 Frame(CFA_Y, -10)
        CFI (cfiCond288) CFA_Y Y+10
        CFI (cfiCond289) R23 Frame(CFA_Y, -10)
        CFI (cfiCond289) CFA_Y Y+10
        CFI (cfiPicker290) R23 Frame(CFA_Y, -10)
        ST	-Y, R22
        CFI (cfiCond288) R22 Frame(CFA_Y, -11)
        CFI (cfiCond288) CFA_Y Y+11
        CFI (cfiCond289) R22 Frame(CFA_Y, -11)
        CFI (cfiCond289) CFA_Y Y+11
        CFI (cfiPicker290) R22 Frame(CFA_Y, -11)
        ST	-Y, R21
        CFI (cfiCond288) R21 Frame(CFA_Y, -12)
        CFI (cfiCond288) CFA_Y Y+12
        CFI (cfiCond289) R21 Frame(CFA_Y, -12)
        CFI (cfiCond289) CFA_Y Y+12
        CFI (cfiPicker290) R21 Frame(CFA_Y, -12)
        ST	-Y, R20
        CFI (cfiCond288) R20 Frame(CFA_Y, -13)
        CFI (cfiCond288) CFA_Y Y+13
        CFI (cfiCond289) R20 Frame(CFA_Y, -13)
        CFI (cfiCond289) CFA_Y Y+13
        CFI (cfiPicker290) R20 Frame(CFA_Y, -13)
        ST	-Y, R19
        CFI (cfiCond288) R19 Frame(CFA_Y, -14)
        CFI (cfiCond288) CFA_Y Y+14
        CFI (cfiCond289) R19 Frame(CFA_Y, -14)
        CFI (cfiCond289) CFA_Y Y+14
        CFI (cfiPicker290) R19 Frame(CFA_Y, -14)
        ST	-Y, R18
        CFI (cfiCond288) R18 Frame(CFA_Y, -15)
        CFI (cfiCond288) CFA_Y Y+15
        CFI (cfiCond289) R18 Frame(CFA_Y, -15)
        CFI (cfiCond289) CFA_Y Y+15
        CFI (cfiPicker290) R18 Frame(CFA_Y, -15)
        ST	-Y, R17
        CFI (cfiCond288) R17 Frame(CFA_Y, -16)
        CFI (cfiCond288) CFA_Y Y+16
        CFI (cfiCond289) R17 Frame(CFA_Y, -16)
        CFI (cfiCond289) CFA_Y Y+16
        CFI (cfiPicker290) R17 Frame(CFA_Y, -16)
        ST	-Y, R16
        CFI (cfiCond288) R16 Frame(CFA_Y, -17)
        CFI (cfiCond288) CFA_Y Y+17
        CFI (cfiCond289) R16 Frame(CFA_Y, -17)
        CFI (cfiCond289) CFA_Y Y+17
        CFI (cfiPicker290) R16 Frame(CFA_Y, -17)
        IN	R24, 0x3F
        IN	R25, 0x3B
        IN	R26, 0x3C
        RET
        CFI EndBlock cfiCond288
        CFI EndBlock cfiCond289
        CFI EndBlock cfiPicker290
// 1518 
// 1519 /////////////////////////////////////////////////////////////////////////////////////////////////////
// 1520 /*
// 1521 #pragma vector=USART0_UDRE_vect
// 1522            
// 1523            __interrupt  void USART0_UDRE_interrupt(void)
// 1524            {
// 1525              sending_ppp_proverka();
// 1526            }
// 1527 
// 1528 
// 1529 */
// 1530 /////////////////////////////////////////////////////////////////////////////////////////////////////
// 1531 #pragma vector=USART1_RX_vect
// 1532            

        RSEG CODE:CODE:NOROOT(1)
// 1533            __interrupt  void USART1_RX_interrupt(void)
USART1_RX_interrupt:
        CFI Block cfiBlock291 Using cfiCommon2
        CFI Function USART1_RX_interrupt
// 1534                  
// 1535                  
// 1536                 {
        RCALL	??Subroutine25_0
        CFI R26 Frame(CFA_Y, -2)
        CFI R27 Frame(CFA_Y, -1)
        CFI CFA_Y Y+2
??CrossCallReturnLabel_50:
        RCALL	?Subroutine24
        CFI R16 Frame(CFA_Y, -9)
        CFI R17 Frame(CFA_Y, -8)
        CFI R18 Frame(CFA_Y, -7)
        CFI R19 Frame(CFA_Y, -6)
        CFI R20 Frame(CFA_Y, -5)
        CFI R30 Frame(CFA_Y, -4)
        CFI R31 Frame(CFA_Y, -3)
        CFI CFA_Y Y+9
// 1537                 unsigned char data;
// 1538                 
// 1539                 data=UDR1;
??CrossCallReturnLabel_47:
        LDS	R18, 206
// 1540                 S4_GR;
        CBI	0x08, 0x02
        SBI	0x08, 0x03
// 1541                 Rs485_2.cnt_tm_rx_out=Rs485_2.vol_tm_rx_out;
        LDI	R30, LOW(Rs485_1)
        LDI	R31, (Rs485_1) >> 8
        LDD	R16, Z+28
        LDD	R17, Z+29
        STD	Z+26, R16
        STD	Z+27, R17
// 1542                 Rs485_2.cnt_tm_out=0;
        LDI	R16, 0
        STD	Z+30, R16
        STD	Z+31, R16
// 1543                 if(Rs485_2.cnt_bt_rx_tx < MAX_BUF_RS485_2)
        RCALL	?Subroutine78
??CrossCallReturnLabel_157:
        CPI	R16, 252
        LDI	R19, 3
        CPC	R17, R19
        BRCC	??USART1_RX_interrupt_0
// 1544                        {
// 1545                         Rs485_2_buf_rx_tx[Rs485_2.cnt_bt_rx_tx]=data;
        MOVW	R27:R26, R17:R16
        SUBI	R26, LOW((-(Rs485_2_buf_rx_tx) & 0xFFFF))
        SBCI	R27, (-(Rs485_2_buf_rx_tx) & 0xFFFF) >> 8
        ST	X, R18
// 1546                         Rs485_2.cnt_bt_rx_tx++;
        RCALL	?Subroutine78
??CrossCallReturnLabel_158:
        RCALL	?Subroutine63
??CrossCallReturnLabel_137:
        STD	Z+18, R16
        STD	Z+19, R17
        RJMP	??USART1_RX_interrupt_1
// 1547                         }
// 1548                         else fl_485_2.over=1;
??USART1_RX_interrupt_0:
        LDD	R16, Z+59
        ORI	R16, 0x10
        STD	Z+59, R16
// 1549                 }
??USART1_RX_interrupt_1:
        RCALL	?Subroutine60
        CFI R16 SameValue
        CFI R17 SameValue
        CFI R18 SameValue
        CFI R19 SameValue
        CFI R20 SameValue
        CFI R30 SameValue
        CFI R31 SameValue
        CFI CFA_Y Y+2
??CrossCallReturnLabel_187:
        LD	R26, Y+
        CFI R26 SameValue
        CFI CFA_Y Y+1
        LD	R27, Y+
        CFI R27 SameValue
        CFI CFA_Y Y+0
        RETI
        CFI EndBlock cfiBlock291
// 1550  /////////////////////////////////////////////////////////////////////////////////////////////////////
// 1551  
// 1552 
// 1553 
// 1554 
// 1555 /////////////////////////////////////////////////////////////////////////////////////////////////////
// 1556 
// 1557 #pragma vector=USART1_TX_vect
// 1558            

        RSEG CODE:CODE:NOROOT(1)
// 1559            __interrupt  void USART1_TX_interrupt(void)
USART1_TX_interrupt:
        CFI Block cfiBlock292 Using cfiCommon2
        CFI Function USART1_TX_interrupt
// 1560 
// 1561 {
        RCALL	?Subroutine22
        CFI R16 Frame(CFA_Y, -7)
        CFI R17 Frame(CFA_Y, -6)
        CFI R18 Frame(CFA_Y, -5)
        CFI R30 Frame(CFA_Y, -4)
        CFI R31 Frame(CFA_Y, -3)
        CFI R26 Frame(CFA_Y, -2)
        CFI R27 Frame(CFA_Y, -1)
        CFI CFA_Y Y+7
// 1562 
// 1563  if(Rs485_2.cnt_bt_rx_tx==0) goto end_tx1;
??CrossCallReturnLabel_43:
        RCALL	?Subroutine78
??CrossCallReturnLabel_159:
        OR	R16, R17
        BRNE	??USART1_TX_interrupt_0
// 1564                                                        
// 1565                 UDR1=*Rs485_2.p_data485++;
// 1566                 Rs485_2.cnt_bt_rx_tx--; 
// 1567                 return;
// 1568 end_tx1:
// 1569                UCSR1B=UCSR1B & ~TXCIE;
        LDS	R16, 201
        ANDI	R16, 0xBF
        STS	201, R16
// 1570                Rs485_2.cnt_bt_rx_tx=0;
        LDI	R16, 0
        STD	Z+18, R16
        STD	Z+19, R16
// 1571                Rs485_2.cnt_tm_tx_out=Rs485_2.vol_tm_tx_out;
        LDD	R16, Z+24
        LDD	R17, Z+25
        STD	Z+20, R16
        STD	Z+21, R17
// 1572                if(Rs485_2.cnt_tm_tx_out==0)
        OR	R16, R17
        BRNE	??CrossCallReturnLabel_196
// 1573                {
// 1574                 S4_OFF;
        RCALL	?Subroutine72
// 1575                 Rs485_2.cnt_tm_out=Rs485_2.vol_tm_out;
// 1576                 CLR_RTS3;  // togle to receiv mode  
??CrossCallReturnLabel_154:
        CBI	0x0B, 0x04
// 1577                 UCSR1B =UCSR1B | RXEN | RXCIE; // togle to receiv mode ;
        RCALL	?Subroutine75
??CrossCallReturnLabel_196:
        RJMP	?Subroutine87
// 1578                }
??USART1_TX_interrupt_0:
        LDD	R26, Z+34
        LDD	R27, Z+35
        LD	R16, X
        STS	206, R16
        LDD	R16, Z+34
        LDD	R17, Z+35
        RCALL	?Subroutine63
??CrossCallReturnLabel_138:
        STD	Z+34, R16
        STD	Z+35, R17
        RCALL	?Subroutine78
??CrossCallReturnLabel_160:
        RCALL	?Subroutine45
??CrossCallReturnLabel_104:
        STD	Z+18, R16
        STD	Z+19, R17
        RJMP	??CrossCallReturnLabel_196
        CFI EndBlock cfiBlock292
// 1579               
// 1580 
// 1581 }

        RSEG CODE:CODE:NOROOT(1)
?Subroutine87:
        CFI Block cfiBlock293 Using cfiCommon2
        CFI NoFunction
        CFI CFA_Y Y+7
        CFI R16 Frame(CFA_Y, -7)
        CFI R17 Frame(CFA_Y, -6)
        CFI R18 Frame(CFA_Y, -5)
        CFI R26 Frame(CFA_Y, -2)
        CFI R27 Frame(CFA_Y, -1)
        CFI R30 Frame(CFA_Y, -4)
        CFI R31 Frame(CFA_Y, -3)
        RCALL	?Subroutine58
        CFI CFA_Y Y+0
        CFI R16 SameValue
        CFI R17 SameValue
        CFI R18 SameValue
        CFI R26 SameValue
        CFI R27 SameValue
        CFI R30 SameValue
        CFI R31 SameValue
??CrossCallReturnLabel_173:
        RETI
        CFI EndBlock cfiBlock293

        RSEG CODE:CODE:NOROOT(1)
?Subroutine78:
        CFI Block cfiCond294 Using cfiCommon2
        CFI NoFunction
        CFI Conditional ??CrossCallReturnLabel_157
        CFI R16 Frame(CFA_Y, -9)
        CFI R17 Frame(CFA_Y, -8)
        CFI R18 Frame(CFA_Y, -7)
        CFI R19 Frame(CFA_Y, -6)
        CFI R20 Frame(CFA_Y, -5)
        CFI R30 Frame(CFA_Y, -4)
        CFI R31 Frame(CFA_Y, -3)
        CFI R26 Frame(CFA_Y, -2)
        CFI R27 Frame(CFA_Y, -1)
        CFI CFA_SP SP+6
        CFI CFA_Y Y+9
        CFI Block cfiCond295 Using cfiCommon2
        CFI (cfiCond295) NoFunction
        CFI (cfiCond295) Conditional ??CrossCallReturnLabel_158
        CFI (cfiCond295) R16 Frame(CFA_Y, -9)
        CFI (cfiCond295) R17 Frame(CFA_Y, -8)
        CFI (cfiCond295) R18 Frame(CFA_Y, -7)
        CFI (cfiCond295) R19 Frame(CFA_Y, -6)
        CFI (cfiCond295) R20 Frame(CFA_Y, -5)
        CFI (cfiCond295) R30 Frame(CFA_Y, -4)
        CFI (cfiCond295) R31 Frame(CFA_Y, -3)
        CFI (cfiCond295) R26 Frame(CFA_Y, -2)
        CFI (cfiCond295) R27 Frame(CFA_Y, -1)
        CFI (cfiCond295) CFA_SP SP+6
        CFI (cfiCond295) CFA_Y Y+9
        CFI Block cfiCond296 Using cfiCommon2
        CFI (cfiCond296) NoFunction
        CFI (cfiCond296) Conditional ??CrossCallReturnLabel_159
        CFI (cfiCond296) R16 Frame(CFA_Y, -7)
        CFI (cfiCond296) R17 Frame(CFA_Y, -6)
        CFI (cfiCond296) R18 Frame(CFA_Y, -5)
        CFI (cfiCond296) R30 Frame(CFA_Y, -4)
        CFI (cfiCond296) R31 Frame(CFA_Y, -3)
        CFI (cfiCond296) R26 Frame(CFA_Y, -2)
        CFI (cfiCond296) R27 Frame(CFA_Y, -1)
        CFI (cfiCond296) CFA_SP SP+6
        CFI (cfiCond296) CFA_Y Y+7
        CFI Block cfiCond297 Using cfiCommon2
        CFI (cfiCond297) NoFunction
        CFI (cfiCond297) Conditional ??CrossCallReturnLabel_160
        CFI (cfiCond297) R16 Frame(CFA_Y, -7)
        CFI (cfiCond297) R17 Frame(CFA_Y, -6)
        CFI (cfiCond297) R18 Frame(CFA_Y, -5)
        CFI (cfiCond297) R30 Frame(CFA_Y, -4)
        CFI (cfiCond297) R31 Frame(CFA_Y, -3)
        CFI (cfiCond297) R26 Frame(CFA_Y, -2)
        CFI (cfiCond297) R27 Frame(CFA_Y, -1)
        CFI (cfiCond297) CFA_SP SP+6
        CFI (cfiCond297) CFA_Y Y+7
        CFI Block cfiPicker298 Using cfiCommon1
        CFI (cfiPicker298) NoFunction
        CFI (cfiPicker298) Picker
        LDD	R16, Z+18
        LDD	R17, Z+19
        RET
        CFI EndBlock cfiCond294
        CFI EndBlock cfiCond295
        CFI EndBlock cfiCond296
        CFI EndBlock cfiCond297
        CFI EndBlock cfiPicker298

        RSEG CODE:CODE:NOROOT(1)
?Subroutine75:
        CFI Block cfiCond299 Using cfiCommon2
        CFI NoFunction
        CFI Conditional ??CrossCallReturnLabel_195
        CFI R16 Frame(CFA_Y, -19)
        CFI R17 Frame(CFA_Y, -18)
        CFI R18 Frame(CFA_Y, -17)
        CFI R19 Frame(CFA_Y, -16)
        CFI R20 Frame(CFA_Y, -15)
        CFI R21 Frame(CFA_Y, -14)
        CFI R22 Frame(CFA_Y, -13)
        CFI R23 Frame(CFA_Y, -12)
        CFI R0 Frame(CFA_Y, -11)
        CFI R1 Frame(CFA_Y, -10)
        CFI R2 Frame(CFA_Y, -9)
        CFI R3 Frame(CFA_Y, -8)
        CFI R30 Frame(CFA_Y, -7)
        CFI R31 Frame(CFA_Y, -6)
        CFI R24 Frame(CFA_Y, -5)
        CFI R25 Frame(CFA_Y, -4)
        CFI R26 Frame(CFA_Y, -3)
        CFI R27 Frame(CFA_Y, -2)
        CFI R4 Frame(CFA_Y, -1)
        CFI CFA_SP SP+6
        CFI CFA_Y Y+19
        CFI Block cfiCond300 Using cfiCommon2
        CFI (cfiCond300) NoFunction
        CFI (cfiCond300) Conditional ??CrossCallReturnLabel_196
        CFI (cfiCond300) R16 Frame(CFA_Y, -7)
        CFI (cfiCond300) R17 Frame(CFA_Y, -6)
        CFI (cfiCond300) R18 Frame(CFA_Y, -5)
        CFI (cfiCond300) R30 Frame(CFA_Y, -4)
        CFI (cfiCond300) R31 Frame(CFA_Y, -3)
        CFI (cfiCond300) R26 Frame(CFA_Y, -2)
        CFI (cfiCond300) R27 Frame(CFA_Y, -1)
        CFI (cfiCond300) CFA_SP SP+6
        CFI (cfiCond300) CFA_Y Y+7
        CFI Block cfiPicker301 Using cfiCommon1
        CFI (cfiPicker301) NoFunction
        CFI (cfiPicker301) Picker
        LDS	R16, 201
        ORI	R16, 0x90
        RJMP	?Subroutine93
        CFI EndBlock cfiCond299
        CFI EndBlock cfiCond300
        CFI EndBlock cfiPicker301

        RSEG CODE:CODE:NOROOT(1)
?Subroutine72:
        CFI Block cfiCond302 Using cfiCommon2
        CFI NoFunction
        CFI Conditional ??CrossCallReturnLabel_153
        CFI R16 Frame(CFA_Y, -19)
        CFI R17 Frame(CFA_Y, -18)
        CFI R18 Frame(CFA_Y, -17)
        CFI R19 Frame(CFA_Y, -16)
        CFI R20 Frame(CFA_Y, -15)
        CFI R21 Frame(CFA_Y, -14)
        CFI R22 Frame(CFA_Y, -13)
        CFI R23 Frame(CFA_Y, -12)
        CFI R0 Frame(CFA_Y, -11)
        CFI R1 Frame(CFA_Y, -10)
        CFI R2 Frame(CFA_Y, -9)
        CFI R3 Frame(CFA_Y, -8)
        CFI R30 Frame(CFA_Y, -7)
        CFI R31 Frame(CFA_Y, -6)
        CFI R24 Frame(CFA_Y, -5)
        CFI R25 Frame(CFA_Y, -4)
        CFI R26 Frame(CFA_Y, -3)
        CFI R27 Frame(CFA_Y, -2)
        CFI R4 Frame(CFA_Y, -1)
        CFI CFA_SP SP+6
        CFI CFA_Y Y+19
        CFI Block cfiCond303 Using cfiCommon2
        CFI (cfiCond303) NoFunction
        CFI (cfiCond303) Conditional ??CrossCallReturnLabel_154
        CFI (cfiCond303) R16 Frame(CFA_Y, -7)
        CFI (cfiCond303) R17 Frame(CFA_Y, -6)
        CFI (cfiCond303) R18 Frame(CFA_Y, -5)
        CFI (cfiCond303) R30 Frame(CFA_Y, -4)
        CFI (cfiCond303) R31 Frame(CFA_Y, -3)
        CFI (cfiCond303) R26 Frame(CFA_Y, -2)
        CFI (cfiCond303) R27 Frame(CFA_Y, -1)
        CFI (cfiCond303) CFA_SP SP+6
        CFI (cfiCond303) CFA_Y Y+7
        CFI Block cfiPicker304 Using cfiCommon1
        CFI (cfiPicker304) NoFunction
        CFI (cfiPicker304) Picker
        CBI	0x08, 0x02
        CBI	0x08, 0x03
        LDD	R16, Z+32
        LDD	R17, Z+33
        STD	Z+30, R16
        STD	Z+31, R17
        RET
        CFI EndBlock cfiCond302
        CFI EndBlock cfiCond303
        CFI EndBlock cfiPicker304

        RSEG CODE:CODE:NOROOT(1)
?Subroutine63:
        CFI Block cfiCond305 Using cfiCommon2
        CFI NoFunction
        CFI Conditional ??CrossCallReturnLabel_135
        CFI R16 Frame(CFA_Y, -19)
        CFI R17 Frame(CFA_Y, -18)
        CFI R18 Frame(CFA_Y, -17)
        CFI R19 Frame(CFA_Y, -16)
        CFI R20 Frame(CFA_Y, -15)
        CFI R21 Frame(CFA_Y, -14)
        CFI R22 Frame(CFA_Y, -13)
        CFI R23 Frame(CFA_Y, -12)
        CFI R0 Frame(CFA_Y, -11)
        CFI R1 Frame(CFA_Y, -10)
        CFI R2 Frame(CFA_Y, -9)
        CFI R3 Frame(CFA_Y, -8)
        CFI R30 Frame(CFA_Y, -7)
        CFI R31 Frame(CFA_Y, -6)
        CFI R24 Frame(CFA_Y, -5)
        CFI R25 Frame(CFA_Y, -4)
        CFI R26 Frame(CFA_Y, -3)
        CFI R27 Frame(CFA_Y, -2)
        CFI R4 Frame(CFA_Y, -1)
        CFI CFA_SP SP+6
        CFI CFA_Y Y+19
        CFI Block cfiCond306 Using cfiCommon2
        CFI (cfiCond306) NoFunction
        CFI (cfiCond306) Conditional ??CrossCallReturnLabel_136
        CFI (cfiCond306) R16 Frame(CFA_Y, -21)
        CFI (cfiCond306) R17 Frame(CFA_Y, -20)
        CFI (cfiCond306) R18 Frame(CFA_Y, -19)
        CFI (cfiCond306) R19 Frame(CFA_Y, -18)
        CFI (cfiCond306) R20 Frame(CFA_Y, -17)
        CFI (cfiCond306) R21 Frame(CFA_Y, -16)
        CFI (cfiCond306) R22 Frame(CFA_Y, -15)
        CFI (cfiCond306) R23 Frame(CFA_Y, -14)
        CFI (cfiCond306) R0 Frame(CFA_Y, -13)
        CFI (cfiCond306) R1 Frame(CFA_Y, -12)
        CFI (cfiCond306) R2 Frame(CFA_Y, -11)
        CFI (cfiCond306) R3 Frame(CFA_Y, -10)
        CFI (cfiCond306) R30 Frame(CFA_Y, -9)
        CFI (cfiCond306) R31 Frame(CFA_Y, -8)
        CFI (cfiCond306) R24 Frame(CFA_Y, -7)
        CFI (cfiCond306) R25 Frame(CFA_Y, -6)
        CFI (cfiCond306) R26 Frame(CFA_Y, -5)
        CFI (cfiCond306) R27 Frame(CFA_Y, -4)
        CFI (cfiCond306) R4 Frame(CFA_Y, -3)
        CFI (cfiCond306) R5 Frame(CFA_Y, -2)
        CFI (cfiCond306) R6 Frame(CFA_Y, -1)
        CFI (cfiCond306) CFA_SP SP+6
        CFI (cfiCond306) CFA_Y Y+21
        CFI Block cfiCond307 Using cfiCommon2
        CFI (cfiCond307) NoFunction
        CFI (cfiCond307) Conditional ??CrossCallReturnLabel_137
        CFI (cfiCond307) R16 Frame(CFA_Y, -9)
        CFI (cfiCond307) R17 Frame(CFA_Y, -8)
        CFI (cfiCond307) R18 Frame(CFA_Y, -7)
        CFI (cfiCond307) R19 Frame(CFA_Y, -6)
        CFI (cfiCond307) R20 Frame(CFA_Y, -5)
        CFI (cfiCond307) R30 Frame(CFA_Y, -4)
        CFI (cfiCond307) R31 Frame(CFA_Y, -3)
        CFI (cfiCond307) R26 Frame(CFA_Y, -2)
        CFI (cfiCond307) R27 Frame(CFA_Y, -1)
        CFI (cfiCond307) CFA_SP SP+6
        CFI (cfiCond307) CFA_Y Y+9
        CFI Block cfiCond308 Using cfiCommon2
        CFI (cfiCond308) NoFunction
        CFI (cfiCond308) Conditional ??CrossCallReturnLabel_138
        CFI (cfiCond308) R16 Frame(CFA_Y, -7)
        CFI (cfiCond308) R17 Frame(CFA_Y, -6)
        CFI (cfiCond308) R18 Frame(CFA_Y, -5)
        CFI (cfiCond308) R30 Frame(CFA_Y, -4)
        CFI (cfiCond308) R31 Frame(CFA_Y, -3)
        CFI (cfiCond308) R26 Frame(CFA_Y, -2)
        CFI (cfiCond308) R27 Frame(CFA_Y, -1)
        CFI (cfiCond308) CFA_SP SP+6
        CFI (cfiCond308) CFA_Y Y+7
        CFI Block cfiCond309 Using cfiCommon2
        CFI (cfiCond309) NoFunction
        CFI (cfiCond309) Conditional ??CrossCallReturnLabel_139
        CFI (cfiCond309) R16 Frame(CFA_Y, -8)
        CFI (cfiCond309) R17 Frame(CFA_Y, -7)
        CFI (cfiCond309) R18 Frame(CFA_Y, -6)
        CFI (cfiCond309) R19 Frame(CFA_Y, -5)
        CFI (cfiCond309) R30 Frame(CFA_Y, -4)
        CFI (cfiCond309) R31 Frame(CFA_Y, -3)
        CFI (cfiCond309) R26 Frame(CFA_Y, -2)
        CFI (cfiCond309) R27 Frame(CFA_Y, -1)
        CFI (cfiCond309) CFA_SP SP+6
        CFI (cfiCond309) CFA_Y Y+8
        CFI Block cfiCond310 Using cfiCommon2
        CFI (cfiCond310) NoFunction
        CFI (cfiCond310) Conditional ??CrossCallReturnLabel_140
        CFI (cfiCond310) R16 Frame(CFA_Y, -7)
        CFI (cfiCond310) R17 Frame(CFA_Y, -6)
        CFI (cfiCond310) R18 Frame(CFA_Y, -5)
        CFI (cfiCond310) R30 Frame(CFA_Y, -4)
        CFI (cfiCond310) R31 Frame(CFA_Y, -3)
        CFI (cfiCond310) R26 Frame(CFA_Y, -2)
        CFI (cfiCond310) R27 Frame(CFA_Y, -1)
        CFI (cfiCond310) CFA_SP SP+6
        CFI (cfiCond310) CFA_Y Y+7
        CFI Block cfiCond311 Using cfiCommon2
        CFI (cfiCond311) NoFunction
        CFI (cfiCond311) Conditional ??CrossCallReturnLabel_141
        CFI (cfiCond311) R16 Frame(CFA_Y, -7)
        CFI (cfiCond311) R17 Frame(CFA_Y, -6)
        CFI (cfiCond311) R18 Frame(CFA_Y, -5)
        CFI (cfiCond311) R30 Frame(CFA_Y, -4)
        CFI (cfiCond311) R31 Frame(CFA_Y, -3)
        CFI (cfiCond311) R26 Frame(CFA_Y, -2)
        CFI (cfiCond311) R27 Frame(CFA_Y, -1)
        CFI (cfiCond311) CFA_SP SP+6
        CFI (cfiCond311) CFA_Y Y+7
        CFI Block cfiPicker312 Using cfiCommon1
        CFI (cfiPicker312) NoFunction
        CFI (cfiPicker312) Picker
        SUBI	R16, 255
        SBCI	R17, 255
        RET
        CFI EndBlock cfiCond305
        CFI EndBlock cfiCond306
        CFI EndBlock cfiCond307
        CFI EndBlock cfiCond308
        CFI EndBlock cfiCond309
        CFI EndBlock cfiCond310
        CFI EndBlock cfiCond311
        CFI EndBlock cfiPicker312

        RSEG CODE:CODE:NOROOT(1)
?Subroutine45:
        CFI Block cfiCond313 Using cfiCommon2
        CFI NoFunction
        CFI Conditional ??CrossCallReturnLabel_91
        CFI R16 Frame(CFA_Y, -19)
        CFI R17 Frame(CFA_Y, -18)
        CFI R18 Frame(CFA_Y, -17)
        CFI R19 Frame(CFA_Y, -16)
        CFI R20 Frame(CFA_Y, -15)
        CFI R21 Frame(CFA_Y, -14)
        CFI R22 Frame(CFA_Y, -13)
        CFI R23 Frame(CFA_Y, -12)
        CFI R0 Frame(CFA_Y, -11)
        CFI R1 Frame(CFA_Y, -10)
        CFI R2 Frame(CFA_Y, -9)
        CFI R3 Frame(CFA_Y, -8)
        CFI R30 Frame(CFA_Y, -7)
        CFI R31 Frame(CFA_Y, -6)
        CFI R24 Frame(CFA_Y, -5)
        CFI R25 Frame(CFA_Y, -4)
        CFI R26 Frame(CFA_Y, -3)
        CFI R27 Frame(CFA_Y, -2)
        CFI R4 Frame(CFA_Y, -1)
        CFI CFA_SP SP+6
        CFI CFA_Y Y+19
        CFI Block cfiCond314 Using cfiCommon2
        CFI (cfiCond314) NoFunction
        CFI (cfiCond314) Conditional ??CrossCallReturnLabel_92
        CFI (cfiCond314) R16 Frame(CFA_Y, -19)
        CFI (cfiCond314) R17 Frame(CFA_Y, -18)
        CFI (cfiCond314) R18 Frame(CFA_Y, -17)
        CFI (cfiCond314) R19 Frame(CFA_Y, -16)
        CFI (cfiCond314) R20 Frame(CFA_Y, -15)
        CFI (cfiCond314) R21 Frame(CFA_Y, -14)
        CFI (cfiCond314) R22 Frame(CFA_Y, -13)
        CFI (cfiCond314) R23 Frame(CFA_Y, -12)
        CFI (cfiCond314) R0 Frame(CFA_Y, -11)
        CFI (cfiCond314) R1 Frame(CFA_Y, -10)
        CFI (cfiCond314) R2 Frame(CFA_Y, -9)
        CFI (cfiCond314) R3 Frame(CFA_Y, -8)
        CFI (cfiCond314) R30 Frame(CFA_Y, -7)
        CFI (cfiCond314) R31 Frame(CFA_Y, -6)
        CFI (cfiCond314) R24 Frame(CFA_Y, -5)
        CFI (cfiCond314) R25 Frame(CFA_Y, -4)
        CFI (cfiCond314) R26 Frame(CFA_Y, -3)
        CFI (cfiCond314) R27 Frame(CFA_Y, -2)
        CFI (cfiCond314) R4 Frame(CFA_Y, -1)
        CFI (cfiCond314) CFA_SP SP+6
        CFI (cfiCond314) CFA_Y Y+19
        CFI Block cfiCond315 Using cfiCommon2
        CFI (cfiCond315) NoFunction
        CFI (cfiCond315) Conditional ??CrossCallReturnLabel_93
        CFI (cfiCond315) R16 Frame(CFA_Y, -19)
        CFI (cfiCond315) R17 Frame(CFA_Y, -18)
        CFI (cfiCond315) R18 Frame(CFA_Y, -17)
        CFI (cfiCond315) R19 Frame(CFA_Y, -16)
        CFI (cfiCond315) R20 Frame(CFA_Y, -15)
        CFI (cfiCond315) R21 Frame(CFA_Y, -14)
        CFI (cfiCond315) R22 Frame(CFA_Y, -13)
        CFI (cfiCond315) R23 Frame(CFA_Y, -12)
        CFI (cfiCond315) R0 Frame(CFA_Y, -11)
        CFI (cfiCond315) R1 Frame(CFA_Y, -10)
        CFI (cfiCond315) R2 Frame(CFA_Y, -9)
        CFI (cfiCond315) R3 Frame(CFA_Y, -8)
        CFI (cfiCond315) R30 Frame(CFA_Y, -7)
        CFI (cfiCond315) R31 Frame(CFA_Y, -6)
        CFI (cfiCond315) R24 Frame(CFA_Y, -5)
        CFI (cfiCond315) R25 Frame(CFA_Y, -4)
        CFI (cfiCond315) R26 Frame(CFA_Y, -3)
        CFI (cfiCond315) R27 Frame(CFA_Y, -2)
        CFI (cfiCond315) R4 Frame(CFA_Y, -1)
        CFI (cfiCond315) CFA_SP SP+6
        CFI (cfiCond315) CFA_Y Y+19
        CFI Block cfiCond316 Using cfiCommon2
        CFI (cfiCond316) NoFunction
        CFI (cfiCond316) Conditional ??CrossCallReturnLabel_94
        CFI (cfiCond316) R16 Frame(CFA_Y, -19)
        CFI (cfiCond316) R17 Frame(CFA_Y, -18)
        CFI (cfiCond316) R18 Frame(CFA_Y, -17)
        CFI (cfiCond316) R19 Frame(CFA_Y, -16)
        CFI (cfiCond316) R20 Frame(CFA_Y, -15)
        CFI (cfiCond316) R21 Frame(CFA_Y, -14)
        CFI (cfiCond316) R22 Frame(CFA_Y, -13)
        CFI (cfiCond316) R23 Frame(CFA_Y, -12)
        CFI (cfiCond316) R0 Frame(CFA_Y, -11)
        CFI (cfiCond316) R1 Frame(CFA_Y, -10)
        CFI (cfiCond316) R2 Frame(CFA_Y, -9)
        CFI (cfiCond316) R3 Frame(CFA_Y, -8)
        CFI (cfiCond316) R30 Frame(CFA_Y, -7)
        CFI (cfiCond316) R31 Frame(CFA_Y, -6)
        CFI (cfiCond316) R24 Frame(CFA_Y, -5)
        CFI (cfiCond316) R25 Frame(CFA_Y, -4)
        CFI (cfiCond316) R26 Frame(CFA_Y, -3)
        CFI (cfiCond316) R27 Frame(CFA_Y, -2)
        CFI (cfiCond316) R4 Frame(CFA_Y, -1)
        CFI (cfiCond316) CFA_SP SP+6
        CFI (cfiCond316) CFA_Y Y+19
        CFI Block cfiCond317 Using cfiCommon2
        CFI (cfiCond317) NoFunction
        CFI (cfiCond317) Conditional ??CrossCallReturnLabel_95
        CFI (cfiCond317) R16 Frame(CFA_Y, -19)
        CFI (cfiCond317) R17 Frame(CFA_Y, -18)
        CFI (cfiCond317) R18 Frame(CFA_Y, -17)
        CFI (cfiCond317) R19 Frame(CFA_Y, -16)
        CFI (cfiCond317) R20 Frame(CFA_Y, -15)
        CFI (cfiCond317) R21 Frame(CFA_Y, -14)
        CFI (cfiCond317) R22 Frame(CFA_Y, -13)
        CFI (cfiCond317) R23 Frame(CFA_Y, -12)
        CFI (cfiCond317) R0 Frame(CFA_Y, -11)
        CFI (cfiCond317) R1 Frame(CFA_Y, -10)
        CFI (cfiCond317) R2 Frame(CFA_Y, -9)
        CFI (cfiCond317) R3 Frame(CFA_Y, -8)
        CFI (cfiCond317) R30 Frame(CFA_Y, -7)
        CFI (cfiCond317) R31 Frame(CFA_Y, -6)
        CFI (cfiCond317) R24 Frame(CFA_Y, -5)
        CFI (cfiCond317) R25 Frame(CFA_Y, -4)
        CFI (cfiCond317) R26 Frame(CFA_Y, -3)
        CFI (cfiCond317) R27 Frame(CFA_Y, -2)
        CFI (cfiCond317) R4 Frame(CFA_Y, -1)
        CFI (cfiCond317) CFA_SP SP+6
        CFI (cfiCond317) CFA_Y Y+19
        CFI Block cfiCond318 Using cfiCommon2
        CFI (cfiCond318) NoFunction
        CFI (cfiCond318) Conditional ??CrossCallReturnLabel_96
        CFI (cfiCond318) R16 Frame(CFA_Y, -19)
        CFI (cfiCond318) R17 Frame(CFA_Y, -18)
        CFI (cfiCond318) R18 Frame(CFA_Y, -17)
        CFI (cfiCond318) R19 Frame(CFA_Y, -16)
        CFI (cfiCond318) R20 Frame(CFA_Y, -15)
        CFI (cfiCond318) R21 Frame(CFA_Y, -14)
        CFI (cfiCond318) R22 Frame(CFA_Y, -13)
        CFI (cfiCond318) R23 Frame(CFA_Y, -12)
        CFI (cfiCond318) R0 Frame(CFA_Y, -11)
        CFI (cfiCond318) R1 Frame(CFA_Y, -10)
        CFI (cfiCond318) R2 Frame(CFA_Y, -9)
        CFI (cfiCond318) R3 Frame(CFA_Y, -8)
        CFI (cfiCond318) R30 Frame(CFA_Y, -7)
        CFI (cfiCond318) R31 Frame(CFA_Y, -6)
        CFI (cfiCond318) R24 Frame(CFA_Y, -5)
        CFI (cfiCond318) R25 Frame(CFA_Y, -4)
        CFI (cfiCond318) R26 Frame(CFA_Y, -3)
        CFI (cfiCond318) R27 Frame(CFA_Y, -2)
        CFI (cfiCond318) R4 Frame(CFA_Y, -1)
        CFI (cfiCond318) CFA_SP SP+6
        CFI (cfiCond318) CFA_Y Y+19
        CFI Block cfiCond319 Using cfiCommon2
        CFI (cfiCond319) NoFunction
        CFI (cfiCond319) Conditional ??CrossCallReturnLabel_97
        CFI (cfiCond319) R16 Frame(CFA_Y, -19)
        CFI (cfiCond319) R17 Frame(CFA_Y, -18)
        CFI (cfiCond319) R18 Frame(CFA_Y, -17)
        CFI (cfiCond319) R19 Frame(CFA_Y, -16)
        CFI (cfiCond319) R20 Frame(CFA_Y, -15)
        CFI (cfiCond319) R21 Frame(CFA_Y, -14)
        CFI (cfiCond319) R22 Frame(CFA_Y, -13)
        CFI (cfiCond319) R23 Frame(CFA_Y, -12)
        CFI (cfiCond319) R0 Frame(CFA_Y, -11)
        CFI (cfiCond319) R1 Frame(CFA_Y, -10)
        CFI (cfiCond319) R2 Frame(CFA_Y, -9)
        CFI (cfiCond319) R3 Frame(CFA_Y, -8)
        CFI (cfiCond319) R30 Frame(CFA_Y, -7)
        CFI (cfiCond319) R31 Frame(CFA_Y, -6)
        CFI (cfiCond319) R24 Frame(CFA_Y, -5)
        CFI (cfiCond319) R25 Frame(CFA_Y, -4)
        CFI (cfiCond319) R26 Frame(CFA_Y, -3)
        CFI (cfiCond319) R27 Frame(CFA_Y, -2)
        CFI (cfiCond319) R4 Frame(CFA_Y, -1)
        CFI (cfiCond319) CFA_SP SP+6
        CFI (cfiCond319) CFA_Y Y+19
        CFI Block cfiCond320 Using cfiCommon2
        CFI (cfiCond320) NoFunction
        CFI (cfiCond320) Conditional ??CrossCallReturnLabel_98
        CFI (cfiCond320) R16 Frame(CFA_Y, -19)
        CFI (cfiCond320) R17 Frame(CFA_Y, -18)
        CFI (cfiCond320) R18 Frame(CFA_Y, -17)
        CFI (cfiCond320) R19 Frame(CFA_Y, -16)
        CFI (cfiCond320) R20 Frame(CFA_Y, -15)
        CFI (cfiCond320) R21 Frame(CFA_Y, -14)
        CFI (cfiCond320) R22 Frame(CFA_Y, -13)
        CFI (cfiCond320) R23 Frame(CFA_Y, -12)
        CFI (cfiCond320) R0 Frame(CFA_Y, -11)
        CFI (cfiCond320) R1 Frame(CFA_Y, -10)
        CFI (cfiCond320) R2 Frame(CFA_Y, -9)
        CFI (cfiCond320) R3 Frame(CFA_Y, -8)
        CFI (cfiCond320) R30 Frame(CFA_Y, -7)
        CFI (cfiCond320) R31 Frame(CFA_Y, -6)
        CFI (cfiCond320) R24 Frame(CFA_Y, -5)
        CFI (cfiCond320) R25 Frame(CFA_Y, -4)
        CFI (cfiCond320) R26 Frame(CFA_Y, -3)
        CFI (cfiCond320) R27 Frame(CFA_Y, -2)
        CFI (cfiCond320) R4 Frame(CFA_Y, -1)
        CFI (cfiCond320) CFA_SP SP+6
        CFI (cfiCond320) CFA_Y Y+19
        CFI Block cfiCond321 Using cfiCommon2
        CFI (cfiCond321) NoFunction
        CFI (cfiCond321) Conditional ??CrossCallReturnLabel_99
        CFI (cfiCond321) R16 Frame(CFA_Y, -19)
        CFI (cfiCond321) R17 Frame(CFA_Y, -18)
        CFI (cfiCond321) R18 Frame(CFA_Y, -17)
        CFI (cfiCond321) R19 Frame(CFA_Y, -16)
        CFI (cfiCond321) R20 Frame(CFA_Y, -15)
        CFI (cfiCond321) R21 Frame(CFA_Y, -14)
        CFI (cfiCond321) R22 Frame(CFA_Y, -13)
        CFI (cfiCond321) R23 Frame(CFA_Y, -12)
        CFI (cfiCond321) R0 Frame(CFA_Y, -11)
        CFI (cfiCond321) R1 Frame(CFA_Y, -10)
        CFI (cfiCond321) R2 Frame(CFA_Y, -9)
        CFI (cfiCond321) R3 Frame(CFA_Y, -8)
        CFI (cfiCond321) R30 Frame(CFA_Y, -7)
        CFI (cfiCond321) R31 Frame(CFA_Y, -6)
        CFI (cfiCond321) R24 Frame(CFA_Y, -5)
        CFI (cfiCond321) R25 Frame(CFA_Y, -4)
        CFI (cfiCond321) R26 Frame(CFA_Y, -3)
        CFI (cfiCond321) R27 Frame(CFA_Y, -2)
        CFI (cfiCond321) R4 Frame(CFA_Y, -1)
        CFI (cfiCond321) CFA_SP SP+6
        CFI (cfiCond321) CFA_Y Y+19
        CFI Block cfiCond322 Using cfiCommon2
        CFI (cfiCond322) NoFunction
        CFI (cfiCond322) Conditional ??CrossCallReturnLabel_100
        CFI (cfiCond322) R16 Frame(CFA_Y, -19)
        CFI (cfiCond322) R17 Frame(CFA_Y, -18)
        CFI (cfiCond322) R18 Frame(CFA_Y, -17)
        CFI (cfiCond322) R19 Frame(CFA_Y, -16)
        CFI (cfiCond322) R20 Frame(CFA_Y, -15)
        CFI (cfiCond322) R21 Frame(CFA_Y, -14)
        CFI (cfiCond322) R22 Frame(CFA_Y, -13)
        CFI (cfiCond322) R23 Frame(CFA_Y, -12)
        CFI (cfiCond322) R0 Frame(CFA_Y, -11)
        CFI (cfiCond322) R1 Frame(CFA_Y, -10)
        CFI (cfiCond322) R2 Frame(CFA_Y, -9)
        CFI (cfiCond322) R3 Frame(CFA_Y, -8)
        CFI (cfiCond322) R30 Frame(CFA_Y, -7)
        CFI (cfiCond322) R31 Frame(CFA_Y, -6)
        CFI (cfiCond322) R24 Frame(CFA_Y, -5)
        CFI (cfiCond322) R25 Frame(CFA_Y, -4)
        CFI (cfiCond322) R26 Frame(CFA_Y, -3)
        CFI (cfiCond322) R27 Frame(CFA_Y, -2)
        CFI (cfiCond322) R4 Frame(CFA_Y, -1)
        CFI (cfiCond322) CFA_SP SP+6
        CFI (cfiCond322) CFA_Y Y+19
        CFI Block cfiCond323 Using cfiCommon2
        CFI (cfiCond323) NoFunction
        CFI (cfiCond323) Conditional ??CrossCallReturnLabel_101
        CFI (cfiCond323) R16 Frame(CFA_Y, -21)
        CFI (cfiCond323) R17 Frame(CFA_Y, -20)
        CFI (cfiCond323) R18 Frame(CFA_Y, -19)
        CFI (cfiCond323) R19 Frame(CFA_Y, -18)
        CFI (cfiCond323) R20 Frame(CFA_Y, -17)
        CFI (cfiCond323) R21 Frame(CFA_Y, -16)
        CFI (cfiCond323) R22 Frame(CFA_Y, -15)
        CFI (cfiCond323) R23 Frame(CFA_Y, -14)
        CFI (cfiCond323) R0 Frame(CFA_Y, -13)
        CFI (cfiCond323) R1 Frame(CFA_Y, -12)
        CFI (cfiCond323) R2 Frame(CFA_Y, -11)
        CFI (cfiCond323) R3 Frame(CFA_Y, -10)
        CFI (cfiCond323) R30 Frame(CFA_Y, -9)
        CFI (cfiCond323) R31 Frame(CFA_Y, -8)
        CFI (cfiCond323) R24 Frame(CFA_Y, -7)
        CFI (cfiCond323) R25 Frame(CFA_Y, -6)
        CFI (cfiCond323) R26 Frame(CFA_Y, -5)
        CFI (cfiCond323) R27 Frame(CFA_Y, -4)
        CFI (cfiCond323) R4 Frame(CFA_Y, -3)
        CFI (cfiCond323) R5 Frame(CFA_Y, -2)
        CFI (cfiCond323) R6 Frame(CFA_Y, -1)
        CFI (cfiCond323) CFA_SP SP+6
        CFI (cfiCond323) CFA_Y Y+21
        CFI Block cfiCond324 Using cfiCommon2
        CFI (cfiCond324) NoFunction
        CFI (cfiCond324) Conditional ??CrossCallReturnLabel_102
        CFI (cfiCond324) R16 Frame(CFA_Y, -21)
        CFI (cfiCond324) R17 Frame(CFA_Y, -20)
        CFI (cfiCond324) R18 Frame(CFA_Y, -19)
        CFI (cfiCond324) R19 Frame(CFA_Y, -18)
        CFI (cfiCond324) R20 Frame(CFA_Y, -17)
        CFI (cfiCond324) R21 Frame(CFA_Y, -16)
        CFI (cfiCond324) R22 Frame(CFA_Y, -15)
        CFI (cfiCond324) R23 Frame(CFA_Y, -14)
        CFI (cfiCond324) R0 Frame(CFA_Y, -13)
        CFI (cfiCond324) R1 Frame(CFA_Y, -12)
        CFI (cfiCond324) R2 Frame(CFA_Y, -11)
        CFI (cfiCond324) R3 Frame(CFA_Y, -10)
        CFI (cfiCond324) R30 Frame(CFA_Y, -9)
        CFI (cfiCond324) R31 Frame(CFA_Y, -8)
        CFI (cfiCond324) R24 Frame(CFA_Y, -7)
        CFI (cfiCond324) R25 Frame(CFA_Y, -6)
        CFI (cfiCond324) R26 Frame(CFA_Y, -5)
        CFI (cfiCond324) R27 Frame(CFA_Y, -4)
        CFI (cfiCond324) R4 Frame(CFA_Y, -3)
        CFI (cfiCond324) R5 Frame(CFA_Y, -2)
        CFI (cfiCond324) R6 Frame(CFA_Y, -1)
        CFI (cfiCond324) CFA_SP SP+6
        CFI (cfiCond324) CFA_Y Y+21
        CFI Block cfiCond325 Using cfiCommon2
        CFI (cfiCond325) NoFunction
        CFI (cfiCond325) Conditional ??CrossCallReturnLabel_103
        CFI (cfiCond325) R16 Frame(CFA_Y, -21)
        CFI (cfiCond325) R17 Frame(CFA_Y, -20)
        CFI (cfiCond325) R18 Frame(CFA_Y, -19)
        CFI (cfiCond325) R19 Frame(CFA_Y, -18)
        CFI (cfiCond325) R20 Frame(CFA_Y, -17)
        CFI (cfiCond325) R21 Frame(CFA_Y, -16)
        CFI (cfiCond325) R22 Frame(CFA_Y, -15)
        CFI (cfiCond325) R23 Frame(CFA_Y, -14)
        CFI (cfiCond325) R0 Frame(CFA_Y, -13)
        CFI (cfiCond325) R1 Frame(CFA_Y, -12)
        CFI (cfiCond325) R2 Frame(CFA_Y, -11)
        CFI (cfiCond325) R3 Frame(CFA_Y, -10)
        CFI (cfiCond325) R30 Frame(CFA_Y, -9)
        CFI (cfiCond325) R31 Frame(CFA_Y, -8)
        CFI (cfiCond325) R24 Frame(CFA_Y, -7)
        CFI (cfiCond325) R25 Frame(CFA_Y, -6)
        CFI (cfiCond325) R26 Frame(CFA_Y, -5)
        CFI (cfiCond325) R27 Frame(CFA_Y, -4)
        CFI (cfiCond325) R4 Frame(CFA_Y, -3)
        CFI (cfiCond325) R5 Frame(CFA_Y, -2)
        CFI (cfiCond325) R6 Frame(CFA_Y, -1)
        CFI (cfiCond325) CFA_SP SP+6
        CFI (cfiCond325) CFA_Y Y+21
        CFI Block cfiCond326 Using cfiCommon2
        CFI (cfiCond326) NoFunction
        CFI (cfiCond326) Conditional ??CrossCallReturnLabel_104
        CFI (cfiCond326) R16 Frame(CFA_Y, -7)
        CFI (cfiCond326) R17 Frame(CFA_Y, -6)
        CFI (cfiCond326) R18 Frame(CFA_Y, -5)
        CFI (cfiCond326) R30 Frame(CFA_Y, -4)
        CFI (cfiCond326) R31 Frame(CFA_Y, -3)
        CFI (cfiCond326) R26 Frame(CFA_Y, -2)
        CFI (cfiCond326) R27 Frame(CFA_Y, -1)
        CFI (cfiCond326) CFA_SP SP+6
        CFI (cfiCond326) CFA_Y Y+7
        CFI Block cfiCond327 Using cfiCommon2
        CFI (cfiCond327) NoFunction
        CFI (cfiCond327) Conditional ??CrossCallReturnLabel_105
        CFI (cfiCond327) R16 Frame(CFA_Y, -7)
        CFI (cfiCond327) R17 Frame(CFA_Y, -6)
        CFI (cfiCond327) R18 Frame(CFA_Y, -5)
        CFI (cfiCond327) R30 Frame(CFA_Y, -4)
        CFI (cfiCond327) R31 Frame(CFA_Y, -3)
        CFI (cfiCond327) R26 Frame(CFA_Y, -2)
        CFI (cfiCond327) R27 Frame(CFA_Y, -1)
        CFI (cfiCond327) CFA_SP SP+6
        CFI (cfiCond327) CFA_Y Y+7
        CFI Block cfiCond328 Using cfiCommon2
        CFI (cfiCond328) NoFunction
        CFI (cfiCond328) Conditional ??CrossCallReturnLabel_106
        CFI (cfiCond328) R16 Frame(CFA_Y, -7)
        CFI (cfiCond328) R17 Frame(CFA_Y, -6)
        CFI (cfiCond328) R18 Frame(CFA_Y, -5)
        CFI (cfiCond328) R30 Frame(CFA_Y, -4)
        CFI (cfiCond328) R31 Frame(CFA_Y, -3)
        CFI (cfiCond328) R26 Frame(CFA_Y, -2)
        CFI (cfiCond328) R27 Frame(CFA_Y, -1)
        CFI (cfiCond328) CFA_SP SP+6
        CFI (cfiCond328) CFA_Y Y+7
        CFI Block cfiPicker329 Using cfiCommon1
        CFI (cfiPicker329) NoFunction
        CFI (cfiPicker329) Picker
        SUBI	R16, 1
        SBCI	R17, 0
        RET
        CFI EndBlock cfiCond313
        CFI EndBlock cfiCond314
        CFI EndBlock cfiCond315
        CFI EndBlock cfiCond316
        CFI EndBlock cfiCond317
        CFI EndBlock cfiCond318
        CFI EndBlock cfiCond319
        CFI EndBlock cfiCond320
        CFI EndBlock cfiCond321
        CFI EndBlock cfiCond322
        CFI EndBlock cfiCond323
        CFI EndBlock cfiCond324
        CFI EndBlock cfiCond325
        CFI EndBlock cfiCond326
        CFI EndBlock cfiCond327
        CFI EndBlock cfiCond328
        CFI EndBlock cfiPicker329
// 1582 ///////////////////////////////////////////////////////////////////////////////////////////////////////////////////
// 1583 
// 1584 
// 1585 
// 1586 
// 1587 
// 1588 
// 1589 /////////////////////////////////////////////////////////////////////////////////////////////////////
// 1590 #pragma vector=USART2_RX_vect
// 1591            

        RSEG CODE:CODE:NOROOT(1)
// 1592            __interrupt  void USART2_RX_interrupt(void)
USART2_RX_interrupt:
        CFI Block cfiBlock330 Using cfiCommon2
        CFI Function USART2_RX_interrupt
// 1593                  
// 1594                  
// 1595                 {
        RCALL	?Subroutine23
        CFI R16 Frame(CFA_Y, -8)
        CFI R17 Frame(CFA_Y, -7)
        CFI R18 Frame(CFA_Y, -6)
        CFI R19 Frame(CFA_Y, -5)
        CFI R30 Frame(CFA_Y, -4)
        CFI R31 Frame(CFA_Y, -3)
        CFI R26 Frame(CFA_Y, -2)
        CFI R27 Frame(CFA_Y, -1)
        CFI CFA_Y Y+8
// 1596                 unsigned char data;                
// 1597                 data=UDR2;
??CrossCallReturnLabel_45:
        LDS	R18, 214
// 1598                   
// 1599                 if((Regim==MODEM_ONLY)||(Regim==MODEM_ONLY_R)){UDR0=data;return;}//dobavka 
        LDS	R16, Regim
        CPI	R16, 2
        BREQ	??USART2_RX_interrupt_0
        CPI	R16, 3
        BRNE	??USART2_RX_interrupt_1
??USART2_RX_interrupt_0:
        STS	198, R18
        RJMP	??USART2_RX_interrupt_2
// 1600                  if (fl_at_mom_232==1)
??USART2_RX_interrupt_1:
        LDS	R16, fl_at_mom_232
        CPI	R16, 1
        BRNE	??USART2_RX_interrupt_3
// 1601                 {
// 1602                   if(vol_tx_ppp>=VOL_TX_PPP)vol_tx_ppp=0;
        LDI	R30, LOW(vol_tx_ppp)
        LDI	R31, (vol_tx_ppp) >> 8
        RCALL	?Subroutine35
??CrossCallReturnLabel_72:
        CPI	R16, 76
        SBCI	R17, 4
        BRCS	??CrossCallReturnLabel_85
        RCALL	?Subroutine37
// 1603                   buf_tx_232[vol_tx_ppp]=data; 
??CrossCallReturnLabel_85:
        RCALL	?Subroutine35
??CrossCallReturnLabel_73:
        MOVW	R31:R30, R17:R16
        SUBI	R30, LOW((-(buf_tx_232) & 0xFFFF))
        SBCI	R31, (-(buf_tx_232) & 0xFFFF) >> 8
        ST	Z, R18
// 1604                   vol_tx_ppp++; 
        LDI	R30, LOW(vol_tx_ppp)
        LDI	R31, (vol_tx_ppp) >> 8
        RCALL	?Subroutine29
// 1605                   return; 
??CrossCallReturnLabel_182:
        RJMP	??USART2_RX_interrupt_2
// 1606                  } 
// 1607                 
// 1608                 
// 1609                  
// 1610                 S5_GR;
??USART2_RX_interrupt_3:
        CBI	0x08, 0x06
        SBI	0x08, 0x07
// 1611                 Rs232_2.cnt_tm_rx_out=Rs232_2.vol_tm_rx_out;
        LDI	R30, LOW(Rs485_1)
        LDI	R31, (Rs485_1) >> 8
        LDD	R16, Z+46
        LDD	R17, Z+47
        STD	Z+44, R16
        STD	Z+45, R17
// 1612                 Rs232_2.cnt_tm_out=0;
        LDI	R16, 0
        STD	Z+48, R16
        STD	Z+49, R16
// 1613                 if(Rs232_2.cnt_bt_rx_tx < MAX_BUF_RS232_2)
        RCALL	?Subroutine79
??CrossCallReturnLabel_161:
        CPI	R17, 4
        BRCC	??USART2_RX_interrupt_4
// 1614                        {
// 1615                         Rs232_2_buf_rx_tx[Rs232_2.cnt_bt_rx_tx]=data;
        MOVW	R27:R26, R17:R16
        SUBI	R26, LOW((-(Rs232_2_buf_rx_tx) & 0xFFFF))
        SBCI	R27, (-(Rs232_2_buf_rx_tx) & 0xFFFF) >> 8
        ST	X, R18
// 1616                         Rs232_2.cnt_bt_rx_tx++;
        RCALL	?Subroutine79
??CrossCallReturnLabel_162:
        RCALL	?Subroutine63
??CrossCallReturnLabel_139:
        STD	Z+36, R16
        STD	Z+37, R17
        RJMP	??USART2_RX_interrupt_2
// 1617                         }
// 1618                         else fl_232_2.over=1;
??USART2_RX_interrupt_4:
        ADIW	R31:R30, 60
        LD	R16, Z
        ORI	R16, 0x10
        ST	Z, R16
        CFI EndBlock cfiBlock330
??USART2_RX_interrupt_2:
        REQUIRE ?Subroutine88
        ;		// Fall through to label ?Subroutine88
// 1619                 }

        RSEG CODE:CODE:NOROOT(1)
?Subroutine88:
        CFI Block cfiBlock331 Using cfiCommon2
        CFI NoFunction
        CFI CFA_Y Y+8
        CFI R16 Frame(CFA_Y, -8)
        CFI R17 Frame(CFA_Y, -7)
        CFI R18 Frame(CFA_Y, -6)
        CFI R19 Frame(CFA_Y, -5)
        CFI R26 Frame(CFA_Y, -2)
        CFI R27 Frame(CFA_Y, -1)
        CFI R30 Frame(CFA_Y, -4)
        CFI R31 Frame(CFA_Y, -3)
        RCALL	?Subroutine59
        CFI CFA_Y Y+0
        CFI R16 SameValue
        CFI R17 SameValue
        CFI R18 SameValue
        CFI R19 SameValue
        CFI R26 SameValue
        CFI R27 SameValue
        CFI R30 SameValue
        CFI R31 SameValue
??CrossCallReturnLabel_174:
        RETI
        CFI EndBlock cfiBlock331

        RSEG CODE:CODE:NOROOT(1)
?Subroutine37:
        CFI Block cfiCond332 Using cfiCommon2
        CFI NoFunction
        CFI Conditional ??CrossCallReturnLabel_82
        CFI R16 Frame(CFA_Y, -19)
        CFI R17 Frame(CFA_Y, -18)
        CFI R18 Frame(CFA_Y, -17)
        CFI R19 Frame(CFA_Y, -16)
        CFI R20 Frame(CFA_Y, -15)
        CFI R21 Frame(CFA_Y, -14)
        CFI R22 Frame(CFA_Y, -13)
        CFI R23 Frame(CFA_Y, -12)
        CFI R0 Frame(CFA_Y, -11)
        CFI R1 Frame(CFA_Y, -10)
        CFI R2 Frame(CFA_Y, -9)
        CFI R3 Frame(CFA_Y, -8)
        CFI R30 Frame(CFA_Y, -7)
        CFI R31 Frame(CFA_Y, -6)
        CFI R24 Frame(CFA_Y, -5)
        CFI R25 Frame(CFA_Y, -4)
        CFI R26 Frame(CFA_Y, -3)
        CFI R27 Frame(CFA_Y, -2)
        CFI R4 Frame(CFA_Y, -1)
        CFI CFA_SP SP+6
        CFI CFA_Y Y+19
        CFI Block cfiCond333 Using cfiCommon2
        CFI (cfiCond333) NoFunction
        CFI (cfiCond333) Conditional ??CrossCallReturnLabel_84
        CFI (cfiCond333) R16 Frame(CFA_Y, -19)
        CFI (cfiCond333) R17 Frame(CFA_Y, -18)
        CFI (cfiCond333) R18 Frame(CFA_Y, -17)
        CFI (cfiCond333) R19 Frame(CFA_Y, -16)
        CFI (cfiCond333) R20 Frame(CFA_Y, -15)
        CFI (cfiCond333) R21 Frame(CFA_Y, -14)
        CFI (cfiCond333) R22 Frame(CFA_Y, -13)
        CFI (cfiCond333) R23 Frame(CFA_Y, -12)
        CFI (cfiCond333) R0 Frame(CFA_Y, -11)
        CFI (cfiCond333) R1 Frame(CFA_Y, -10)
        CFI (cfiCond333) R2 Frame(CFA_Y, -9)
        CFI (cfiCond333) R3 Frame(CFA_Y, -8)
        CFI (cfiCond333) R30 Frame(CFA_Y, -7)
        CFI (cfiCond333) R31 Frame(CFA_Y, -6)
        CFI (cfiCond333) R24 Frame(CFA_Y, -5)
        CFI (cfiCond333) R25 Frame(CFA_Y, -4)
        CFI (cfiCond333) R26 Frame(CFA_Y, -3)
        CFI (cfiCond333) R27 Frame(CFA_Y, -2)
        CFI (cfiCond333) R4 Frame(CFA_Y, -1)
        CFI (cfiCond333) CFA_SP SP+6
        CFI (cfiCond333) CFA_Y Y+19
        CFI Block cfiCond334 Using cfiCommon2
        CFI (cfiCond334) NoFunction
        CFI (cfiCond334) Conditional ??CrossCallReturnLabel_85
        CFI (cfiCond334) R16 Frame(CFA_Y, -8)
        CFI (cfiCond334) R17 Frame(CFA_Y, -7)
        CFI (cfiCond334) R18 Frame(CFA_Y, -6)
        CFI (cfiCond334) R19 Frame(CFA_Y, -5)
        CFI (cfiCond334) R30 Frame(CFA_Y, -4)
        CFI (cfiCond334) R31 Frame(CFA_Y, -3)
        CFI (cfiCond334) R26 Frame(CFA_Y, -2)
        CFI (cfiCond334) R27 Frame(CFA_Y, -1)
        CFI (cfiCond334) CFA_SP SP+6
        CFI (cfiCond334) CFA_Y Y+8
        CFI Block cfiCond335 Using cfiCommon2
        CFI (cfiCond335) NoFunction
        CFI (cfiCond335) Conditional ??CrossCallReturnLabel_86
        CFI (cfiCond335) R16 Frame(CFA_Y, -7)
        CFI (cfiCond335) R17 Frame(CFA_Y, -6)
        CFI (cfiCond335) R18 Frame(CFA_Y, -5)
        CFI (cfiCond335) R30 Frame(CFA_Y, -4)
        CFI (cfiCond335) R31 Frame(CFA_Y, -3)
        CFI (cfiCond335) R26 Frame(CFA_Y, -2)
        CFI (cfiCond335) R27 Frame(CFA_Y, -1)
        CFI (cfiCond335) CFA_SP SP+6
        CFI (cfiCond335) CFA_Y Y+7
        CFI Block cfiPicker336 Using cfiCommon1
        CFI (cfiPicker336) NoFunction
        CFI (cfiPicker336) Picker
        LDI	R16, 0
        CFI Block cfiCond337 Using cfiCommon2
        CFI (cfiCond337) NoFunction
        CFI (cfiCond337) Conditional ??CrossCallReturnLabel_80
        CFI (cfiCond337) R16 Frame(CFA_Y, -19)
        CFI (cfiCond337) R17 Frame(CFA_Y, -18)
        CFI (cfiCond337) R18 Frame(CFA_Y, -17)
        CFI (cfiCond337) R19 Frame(CFA_Y, -16)
        CFI (cfiCond337) R20 Frame(CFA_Y, -15)
        CFI (cfiCond337) R21 Frame(CFA_Y, -14)
        CFI (cfiCond337) R22 Frame(CFA_Y, -13)
        CFI (cfiCond337) R23 Frame(CFA_Y, -12)
        CFI (cfiCond337) R0 Frame(CFA_Y, -11)
        CFI (cfiCond337) R1 Frame(CFA_Y, -10)
        CFI (cfiCond337) R2 Frame(CFA_Y, -9)
        CFI (cfiCond337) R3 Frame(CFA_Y, -8)
        CFI (cfiCond337) R30 Frame(CFA_Y, -7)
        CFI (cfiCond337) R31 Frame(CFA_Y, -6)
        CFI (cfiCond337) R24 Frame(CFA_Y, -5)
        CFI (cfiCond337) R25 Frame(CFA_Y, -4)
        CFI (cfiCond337) R26 Frame(CFA_Y, -3)
        CFI (cfiCond337) R27 Frame(CFA_Y, -2)
        CFI (cfiCond337) R4 Frame(CFA_Y, -1)
        CFI (cfiCond337) CFA_SP SP+6
        CFI (cfiCond337) CFA_Y Y+19
        CFI Block cfiCond338 Using cfiCommon2
        CFI (cfiCond338) NoFunction
        CFI (cfiCond338) Conditional ??CrossCallReturnLabel_81
        CFI (cfiCond338) R16 Frame(CFA_Y, -19)
        CFI (cfiCond338) R17 Frame(CFA_Y, -18)
        CFI (cfiCond338) R18 Frame(CFA_Y, -17)
        CFI (cfiCond338) R19 Frame(CFA_Y, -16)
        CFI (cfiCond338) R20 Frame(CFA_Y, -15)
        CFI (cfiCond338) R21 Frame(CFA_Y, -14)
        CFI (cfiCond338) R22 Frame(CFA_Y, -13)
        CFI (cfiCond338) R23 Frame(CFA_Y, -12)
        CFI (cfiCond338) R0 Frame(CFA_Y, -11)
        CFI (cfiCond338) R1 Frame(CFA_Y, -10)
        CFI (cfiCond338) R2 Frame(CFA_Y, -9)
        CFI (cfiCond338) R3 Frame(CFA_Y, -8)
        CFI (cfiCond338) R30 Frame(CFA_Y, -7)
        CFI (cfiCond338) R31 Frame(CFA_Y, -6)
        CFI (cfiCond338) R24 Frame(CFA_Y, -5)
        CFI (cfiCond338) R25 Frame(CFA_Y, -4)
        CFI (cfiCond338) R26 Frame(CFA_Y, -3)
        CFI (cfiCond338) R27 Frame(CFA_Y, -2)
        CFI (cfiCond338) R4 Frame(CFA_Y, -1)
        CFI (cfiCond338) CFA_SP SP+6
        CFI (cfiCond338) CFA_Y Y+19
        CFI Block cfiCond339 Using cfiCommon2
        CFI (cfiCond339) NoFunction
        CFI (cfiCond339) Conditional ??CrossCallReturnLabel_83
        CFI (cfiCond339) R16 Frame(CFA_Y, -19)
        CFI (cfiCond339) R17 Frame(CFA_Y, -18)
        CFI (cfiCond339) R18 Frame(CFA_Y, -17)
        CFI (cfiCond339) R19 Frame(CFA_Y, -16)
        CFI (cfiCond339) R20 Frame(CFA_Y, -15)
        CFI (cfiCond339) R21 Frame(CFA_Y, -14)
        CFI (cfiCond339) R22 Frame(CFA_Y, -13)
        CFI (cfiCond339) R23 Frame(CFA_Y, -12)
        CFI (cfiCond339) R0 Frame(CFA_Y, -11)
        CFI (cfiCond339) R1 Frame(CFA_Y, -10)
        CFI (cfiCond339) R2 Frame(CFA_Y, -9)
        CFI (cfiCond339) R3 Frame(CFA_Y, -8)
        CFI (cfiCond339) R30 Frame(CFA_Y, -7)
        CFI (cfiCond339) R31 Frame(CFA_Y, -6)
        CFI (cfiCond339) R24 Frame(CFA_Y, -5)
        CFI (cfiCond339) R25 Frame(CFA_Y, -4)
        CFI (cfiCond339) R26 Frame(CFA_Y, -3)
        CFI (cfiCond339) R27 Frame(CFA_Y, -2)
        CFI (cfiCond339) R4 Frame(CFA_Y, -1)
        CFI (cfiCond339) CFA_SP SP+6
        CFI (cfiCond339) CFA_Y Y+19
??Subroutine37_0:
        ST	Z, R16
        STD	Z+1, R16
        RET
        CFI EndBlock cfiCond332
        CFI EndBlock cfiCond333
        CFI EndBlock cfiCond334
        CFI EndBlock cfiCond335
        CFI EndBlock cfiPicker336
        CFI EndBlock cfiCond337
        CFI EndBlock cfiCond338
        CFI EndBlock cfiCond339
// 1620  /////////////////////////////////////////////////////////////////////////////////////////////////////
// 1621  
// 1622 
// 1623 
// 1624 
// 1625 /////////////////////////////////////////////////////////////////////////////////////////////////////
// 1626 
// 1627 #pragma vector=USART2_TX_vect
// 1628            

        RSEG CODE:CODE:NOROOT(1)
// 1629            __interrupt  void USART2_TX_interrupt(void)
USART2_TX_interrupt:
        CFI Block cfiBlock340 Using cfiCommon2
        CFI Function USART2_TX_interrupt
// 1630 
// 1631 {
        RCALL	?Subroutine22
        CFI R16 Frame(CFA_Y, -7)
        CFI R17 Frame(CFA_Y, -6)
        CFI R18 Frame(CFA_Y, -5)
        CFI R30 Frame(CFA_Y, -4)
        CFI R31 Frame(CFA_Y, -3)
        CFI R26 Frame(CFA_Y, -2)
        CFI R27 Frame(CFA_Y, -1)
        CFI CFA_Y Y+7
// 1632 
// 1633  if(Rs232_2.cnt_bt_rx_tx==0) goto end_tx;
??CrossCallReturnLabel_44:
        RCALL	?Subroutine79
??CrossCallReturnLabel_163:
        OR	R16, R17
        BRNE	??USART2_TX_interrupt_0
// 1634                                                        
// 1635                 UDR2=*Rs232_2.p_data485++;
// 1636                 Rs232_2.cnt_bt_rx_tx--; 
// 1637                 return;
// 1638 end_tx:
// 1639                UCSR2B=UCSR2B & ~TXCIE;
        LDS	R16, 209
        ANDI	R16, 0xBF
        STS	209, R16
// 1640                Rs232_2.cnt_bt_rx_tx=0;
        LDI	R16, 0
        STD	Z+36, R16
        STD	Z+37, R16
// 1641                Rs232_2.cnt_tm_tx_out=Rs232_2.vol_tm_tx_out;
        LDD	R16, Z+42
        LDD	R17, Z+43
        STD	Z+38, R16
        STD	Z+39, R17
// 1642                if(Rs232_2.cnt_tm_tx_out==0)
        OR	R16, R17
        BRNE	??CrossCallReturnLabel_192
// 1643                {
// 1644                 S5_OFF;
        RCALL	?Subroutine73
// 1645                 Rs232_2.cnt_tm_out=Rs232_2.vol_tm_out;
// 1646                 CLR_RTS2;  // togle to receiv mode  
??CrossCallReturnLabel_156:
        RCALL	?Subroutine36
// 1647                 UCSR2B =UCSR2B | RXEN | RXCIE; // togle to receiv mode ;
??CrossCallReturnLabel_79:
        RCALL	?Subroutine77
??CrossCallReturnLabel_192:
        RJMP	?Subroutine87
// 1648                }
??USART2_TX_interrupt_0:
        LDD	R26, Z+52
        LDD	R27, Z+53
        LD	R16, X
        STS	214, R16
        LDD	R16, Z+52
        LDD	R17, Z+53
        RCALL	?Subroutine63
??CrossCallReturnLabel_140:
        STD	Z+52, R16
        STD	Z+53, R17
        RCALL	?Subroutine79
??CrossCallReturnLabel_164:
        RCALL	?Subroutine45
??CrossCallReturnLabel_105:
        STD	Z+36, R16
        STD	Z+37, R17
        RJMP	??CrossCallReturnLabel_192
        CFI EndBlock cfiBlock340
// 1649               
// 1650 
// 1651 }

        RSEG CODE:CODE:NOROOT(1)
?Subroutine79:
        CFI Block cfiCond341 Using cfiCommon2
        CFI NoFunction
        CFI Conditional ??CrossCallReturnLabel_161
        CFI R16 Frame(CFA_Y, -8)
        CFI R17 Frame(CFA_Y, -7)
        CFI R18 Frame(CFA_Y, -6)
        CFI R19 Frame(CFA_Y, -5)
        CFI R30 Frame(CFA_Y, -4)
        CFI R31 Frame(CFA_Y, -3)
        CFI R26 Frame(CFA_Y, -2)
        CFI R27 Frame(CFA_Y, -1)
        CFI CFA_SP SP+6
        CFI CFA_Y Y+8
        CFI Block cfiCond342 Using cfiCommon2
        CFI (cfiCond342) NoFunction
        CFI (cfiCond342) Conditional ??CrossCallReturnLabel_162
        CFI (cfiCond342) R16 Frame(CFA_Y, -8)
        CFI (cfiCond342) R17 Frame(CFA_Y, -7)
        CFI (cfiCond342) R18 Frame(CFA_Y, -6)
        CFI (cfiCond342) R19 Frame(CFA_Y, -5)
        CFI (cfiCond342) R30 Frame(CFA_Y, -4)
        CFI (cfiCond342) R31 Frame(CFA_Y, -3)
        CFI (cfiCond342) R26 Frame(CFA_Y, -2)
        CFI (cfiCond342) R27 Frame(CFA_Y, -1)
        CFI (cfiCond342) CFA_SP SP+6
        CFI (cfiCond342) CFA_Y Y+8
        CFI Block cfiCond343 Using cfiCommon2
        CFI (cfiCond343) NoFunction
        CFI (cfiCond343) Conditional ??CrossCallReturnLabel_163
        CFI (cfiCond343) R16 Frame(CFA_Y, -7)
        CFI (cfiCond343) R17 Frame(CFA_Y, -6)
        CFI (cfiCond343) R18 Frame(CFA_Y, -5)
        CFI (cfiCond343) R30 Frame(CFA_Y, -4)
        CFI (cfiCond343) R31 Frame(CFA_Y, -3)
        CFI (cfiCond343) R26 Frame(CFA_Y, -2)
        CFI (cfiCond343) R27 Frame(CFA_Y, -1)
        CFI (cfiCond343) CFA_SP SP+6
        CFI (cfiCond343) CFA_Y Y+7
        CFI Block cfiCond344 Using cfiCommon2
        CFI (cfiCond344) NoFunction
        CFI (cfiCond344) Conditional ??CrossCallReturnLabel_164
        CFI (cfiCond344) R16 Frame(CFA_Y, -7)
        CFI (cfiCond344) R17 Frame(CFA_Y, -6)
        CFI (cfiCond344) R18 Frame(CFA_Y, -5)
        CFI (cfiCond344) R30 Frame(CFA_Y, -4)
        CFI (cfiCond344) R31 Frame(CFA_Y, -3)
        CFI (cfiCond344) R26 Frame(CFA_Y, -2)
        CFI (cfiCond344) R27 Frame(CFA_Y, -1)
        CFI (cfiCond344) CFA_SP SP+6
        CFI (cfiCond344) CFA_Y Y+7
        CFI Block cfiPicker345 Using cfiCommon1
        CFI (cfiPicker345) NoFunction
        CFI (cfiPicker345) Picker
        LDD	R16, Z+36
        LDD	R17, Z+37
        RET
        CFI EndBlock cfiCond341
        CFI EndBlock cfiCond342
        CFI EndBlock cfiCond343
        CFI EndBlock cfiCond344
        CFI EndBlock cfiPicker345

        RSEG CODE:CODE:NOROOT(1)
?Subroutine77:
        CFI Block cfiCond346 Using cfiCommon2
        CFI NoFunction
        CFI Conditional ??CrossCallReturnLabel_191
        CFI R16 Frame(CFA_Y, -19)
        CFI R17 Frame(CFA_Y, -18)
        CFI R18 Frame(CFA_Y, -17)
        CFI R19 Frame(CFA_Y, -16)
        CFI R20 Frame(CFA_Y, -15)
        CFI R21 Frame(CFA_Y, -14)
        CFI R22 Frame(CFA_Y, -13)
        CFI R23 Frame(CFA_Y, -12)
        CFI R0 Frame(CFA_Y, -11)
        CFI R1 Frame(CFA_Y, -10)
        CFI R2 Frame(CFA_Y, -9)
        CFI R3 Frame(CFA_Y, -8)
        CFI R30 Frame(CFA_Y, -7)
        CFI R31 Frame(CFA_Y, -6)
        CFI R24 Frame(CFA_Y, -5)
        CFI R25 Frame(CFA_Y, -4)
        CFI R26 Frame(CFA_Y, -3)
        CFI R27 Frame(CFA_Y, -2)
        CFI R4 Frame(CFA_Y, -1)
        CFI CFA_SP SP+6
        CFI CFA_Y Y+19
        CFI Block cfiCond347 Using cfiCommon2
        CFI (cfiCond347) NoFunction
        CFI (cfiCond347) Conditional ??CrossCallReturnLabel_192
        CFI (cfiCond347) R16 Frame(CFA_Y, -7)
        CFI (cfiCond347) R17 Frame(CFA_Y, -6)
        CFI (cfiCond347) R18 Frame(CFA_Y, -5)
        CFI (cfiCond347) R30 Frame(CFA_Y, -4)
        CFI (cfiCond347) R31 Frame(CFA_Y, -3)
        CFI (cfiCond347) R26 Frame(CFA_Y, -2)
        CFI (cfiCond347) R27 Frame(CFA_Y, -1)
        CFI (cfiCond347) CFA_SP SP+6
        CFI (cfiCond347) CFA_Y Y+7
        CFI Block cfiPicker348 Using cfiCommon1
        CFI (cfiPicker348) NoFunction
        CFI (cfiPicker348) Picker
        LDS	R16, 209
        ORI	R16, 0x90
        RJMP	?Subroutine92
        CFI EndBlock cfiCond346
        CFI EndBlock cfiCond347
        CFI EndBlock cfiPicker348

        RSEG CODE:CODE:NOROOT(1)
?Subroutine73:
        CFI Block cfiCond349 Using cfiCommon2
        CFI NoFunction
        CFI Conditional ??CrossCallReturnLabel_155
        CFI R16 Frame(CFA_Y, -19)
        CFI R17 Frame(CFA_Y, -18)
        CFI R18 Frame(CFA_Y, -17)
        CFI R19 Frame(CFA_Y, -16)
        CFI R20 Frame(CFA_Y, -15)
        CFI R21 Frame(CFA_Y, -14)
        CFI R22 Frame(CFA_Y, -13)
        CFI R23 Frame(CFA_Y, -12)
        CFI R0 Frame(CFA_Y, -11)
        CFI R1 Frame(CFA_Y, -10)
        CFI R2 Frame(CFA_Y, -9)
        CFI R3 Frame(CFA_Y, -8)
        CFI R30 Frame(CFA_Y, -7)
        CFI R31 Frame(CFA_Y, -6)
        CFI R24 Frame(CFA_Y, -5)
        CFI R25 Frame(CFA_Y, -4)
        CFI R26 Frame(CFA_Y, -3)
        CFI R27 Frame(CFA_Y, -2)
        CFI R4 Frame(CFA_Y, -1)
        CFI CFA_SP SP+6
        CFI CFA_Y Y+19
        CFI Block cfiCond350 Using cfiCommon2
        CFI (cfiCond350) NoFunction
        CFI (cfiCond350) Conditional ??CrossCallReturnLabel_156
        CFI (cfiCond350) R16 Frame(CFA_Y, -7)
        CFI (cfiCond350) R17 Frame(CFA_Y, -6)
        CFI (cfiCond350) R18 Frame(CFA_Y, -5)
        CFI (cfiCond350) R30 Frame(CFA_Y, -4)
        CFI (cfiCond350) R31 Frame(CFA_Y, -3)
        CFI (cfiCond350) R26 Frame(CFA_Y, -2)
        CFI (cfiCond350) R27 Frame(CFA_Y, -1)
        CFI (cfiCond350) CFA_SP SP+6
        CFI (cfiCond350) CFA_Y Y+7
        CFI Block cfiPicker351 Using cfiCommon1
        CFI (cfiPicker351) NoFunction
        CFI (cfiPicker351) Picker
        CBI	0x08, 0x06
        CBI	0x08, 0x07
        LDD	R16, Z+50
        LDD	R17, Z+51
        STD	Z+48, R16
        STD	Z+49, R17
        RET
        CFI EndBlock cfiCond349
        CFI EndBlock cfiCond350
        CFI EndBlock cfiPicker351

        RSEG CODE:CODE:NOROOT(1)
?Subroutine58:
        CFI Block cfiCond352 Using cfiCommon2
        CFI NoFunction
        CFI Conditional ??CrossCallReturnLabel_173
        CFI R16 Frame(CFA_Y, -7)
        CFI R17 Frame(CFA_Y, -6)
        CFI R18 Frame(CFA_Y, -5)
        CFI R30 Frame(CFA_Y, -4)
        CFI R31 Frame(CFA_Y, -3)
        CFI R26 Frame(CFA_Y, -2)
        CFI R27 Frame(CFA_Y, -1)
        CFI CFA_SP SP+6
        CFI CFA_Y Y+7
        CFI Block cfiCond353 Using cfiCommon2
        CFI (cfiCond353) NoFunction
        CFI (cfiCond353) Conditional ??CrossCallReturnLabel_173
        CFI (cfiCond353) R16 Frame(CFA_Y, -7)
        CFI (cfiCond353) R17 Frame(CFA_Y, -6)
        CFI (cfiCond353) R18 Frame(CFA_Y, -5)
        CFI (cfiCond353) R30 Frame(CFA_Y, -4)
        CFI (cfiCond353) R31 Frame(CFA_Y, -3)
        CFI (cfiCond353) R26 Frame(CFA_Y, -2)
        CFI (cfiCond353) R27 Frame(CFA_Y, -1)
        CFI (cfiCond353) CFA_SP SP+6
        CFI (cfiCond353) CFA_Y Y+7
        CFI Block cfiCond354 Using cfiCommon2
        CFI (cfiCond354) NoFunction
        CFI (cfiCond354) Conditional ??CrossCallReturnLabel_173
        CFI (cfiCond354) R16 Frame(CFA_Y, -7)
        CFI (cfiCond354) R17 Frame(CFA_Y, -6)
        CFI (cfiCond354) R18 Frame(CFA_Y, -5)
        CFI (cfiCond354) R30 Frame(CFA_Y, -4)
        CFI (cfiCond354) R31 Frame(CFA_Y, -3)
        CFI (cfiCond354) R26 Frame(CFA_Y, -2)
        CFI (cfiCond354) R27 Frame(CFA_Y, -1)
        CFI (cfiCond354) CFA_SP SP+6
        CFI (cfiCond354) CFA_Y Y+7
        CFI Block cfiPicker355 Using cfiCommon1
        CFI (cfiPicker355) NoFunction
        CFI (cfiPicker355) Picker
        OUT	0x3F, R18
        LD	R16, Y+
        CFI (cfiCond352) R16 SameValue
        CFI (cfiCond352) CFA_Y Y+6
        CFI (cfiCond353) R16 SameValue
        CFI (cfiCond353) CFA_Y Y+6
        CFI (cfiCond354) R16 SameValue
        CFI (cfiCond354) CFA_Y Y+6
        LD	R17, Y+
        CFI (cfiCond352) R17 SameValue
        CFI (cfiCond352) CFA_Y Y+5
        CFI (cfiCond353) R17 SameValue
        CFI (cfiCond353) CFA_Y Y+5
        CFI (cfiCond354) R17 SameValue
        CFI (cfiCond354) CFA_Y Y+5
        LD	R18, Y+
        CFI EndBlock cfiCond352
        CFI EndBlock cfiCond353
        CFI EndBlock cfiCond354
        CFI EndBlock cfiPicker355
        REQUIRE ?Subroutine89
        ;		// Fall through to label ?Subroutine89

        RSEG CODE:CODE:NOROOT(1)
?Subroutine89:
        CFI Block cfiCond356 Using cfiCommon2
        CFI NoFunction
        CFI Conditional ??CrossCallReturnLabel_173
        CFI R30 Frame(CFA_Y, -4)
        CFI R31 Frame(CFA_Y, -3)
        CFI R26 Frame(CFA_Y, -2)
        CFI R27 Frame(CFA_Y, -1)
        CFI CFA_SP SP+6
        CFI CFA_Y Y+4
        CFI Block cfiCond357 Using cfiCommon2
        CFI (cfiCond357) NoFunction
        CFI (cfiCond357) Conditional ??CrossCallReturnLabel_173
        CFI (cfiCond357) R30 Frame(CFA_Y, -4)
        CFI (cfiCond357) R31 Frame(CFA_Y, -3)
        CFI (cfiCond357) R26 Frame(CFA_Y, -2)
        CFI (cfiCond357) R27 Frame(CFA_Y, -1)
        CFI (cfiCond357) CFA_SP SP+6
        CFI (cfiCond357) CFA_Y Y+4
        CFI Block cfiCond358 Using cfiCommon2
        CFI (cfiCond358) NoFunction
        CFI (cfiCond358) Conditional ??CrossCallReturnLabel_173
        CFI (cfiCond358) R30 Frame(CFA_Y, -4)
        CFI (cfiCond358) R31 Frame(CFA_Y, -3)
        CFI (cfiCond358) R26 Frame(CFA_Y, -2)
        CFI (cfiCond358) R27 Frame(CFA_Y, -1)
        CFI (cfiCond358) CFA_SP SP+6
        CFI (cfiCond358) CFA_Y Y+4
        CFI Block cfiCond359 Using cfiCommon2
        CFI (cfiCond359) NoFunction
        CFI (cfiCond359) Conditional ??CrossCallReturnLabel_174
        CFI (cfiCond359) R30 Frame(CFA_Y, -4)
        CFI (cfiCond359) R31 Frame(CFA_Y, -3)
        CFI (cfiCond359) R26 Frame(CFA_Y, -2)
        CFI (cfiCond359) R27 Frame(CFA_Y, -1)
        CFI (cfiCond359) CFA_SP SP+6
        CFI (cfiCond359) CFA_Y Y+4
        CFI Block cfiCond360 Using cfiCommon2
        CFI (cfiCond360) NoFunction
        CFI (cfiCond360) Conditional ??CrossCallReturnLabel_174
        CFI (cfiCond360) R30 Frame(CFA_Y, -4)
        CFI (cfiCond360) R31 Frame(CFA_Y, -3)
        CFI (cfiCond360) R26 Frame(CFA_Y, -2)
        CFI (cfiCond360) R27 Frame(CFA_Y, -1)
        CFI (cfiCond360) CFA_SP SP+6
        CFI (cfiCond360) CFA_Y Y+4
        CFI Block cfiPicker361 Using cfiCommon1
        CFI (cfiPicker361) NoFunction
        CFI (cfiPicker361) Picker
        LD	R30, Y+
        CFI (cfiCond356) R30 SameValue
        CFI (cfiCond356) CFA_Y Y+3
        CFI (cfiCond357) R30 SameValue
        CFI (cfiCond357) CFA_Y Y+3
        CFI (cfiCond358) R30 SameValue
        CFI (cfiCond358) CFA_Y Y+3
        CFI (cfiCond359) R30 SameValue
        CFI (cfiCond359) CFA_Y Y+3
        CFI (cfiCond360) R30 SameValue
        CFI (cfiCond360) CFA_Y Y+3
        LD	R31, Y+
        CFI (cfiCond356) R31 SameValue
        CFI (cfiCond356) CFA_Y Y+2
        CFI (cfiCond357) R31 SameValue
        CFI (cfiCond357) CFA_Y Y+2
        CFI (cfiCond358) R31 SameValue
        CFI (cfiCond358) CFA_Y Y+2
        CFI (cfiCond359) R31 SameValue
        CFI (cfiCond359) CFA_Y Y+2
        CFI (cfiCond360) R31 SameValue
        CFI (cfiCond360) CFA_Y Y+2
        LD	R26, Y+
        CFI (cfiCond356) R26 SameValue
        CFI (cfiCond356) CFA_Y Y+1
        CFI (cfiCond357) R26 SameValue
        CFI (cfiCond357) CFA_Y Y+1
        CFI (cfiCond358) R26 SameValue
        CFI (cfiCond358) CFA_Y Y+1
        CFI (cfiCond359) R26 SameValue
        CFI (cfiCond359) CFA_Y Y+1
        CFI (cfiCond360) R26 SameValue
        CFI (cfiCond360) CFA_Y Y+1
        LD	R27, Y+
        CFI (cfiCond356) R27 SameValue
        CFI (cfiCond356) CFA_Y Y+0
        CFI (cfiCond357) R27 SameValue
        CFI (cfiCond357) CFA_Y Y+0
        CFI (cfiCond358) R27 SameValue
        CFI (cfiCond358) CFA_Y Y+0
        CFI (cfiCond359) R27 SameValue
        CFI (cfiCond359) CFA_Y Y+0
        CFI (cfiCond360) R27 SameValue
        CFI (cfiCond360) CFA_Y Y+0
        RET
        CFI EndBlock cfiCond356
        CFI EndBlock cfiCond357
        CFI EndBlock cfiCond358
        CFI EndBlock cfiCond359
        CFI EndBlock cfiCond360
        CFI EndBlock cfiPicker361

        RSEG CODE:CODE:NOROOT(1)
?Subroutine36:
        CFI Block cfiCond362 Using cfiCommon2
        CFI NoFunction
        CFI Conditional ??CrossCallReturnLabel_77
        CFI R16 Frame(CFA_Y, -19)
        CFI R17 Frame(CFA_Y, -18)
        CFI R18 Frame(CFA_Y, -17)
        CFI R19 Frame(CFA_Y, -16)
        CFI R20 Frame(CFA_Y, -15)
        CFI R21 Frame(CFA_Y, -14)
        CFI R22 Frame(CFA_Y, -13)
        CFI R23 Frame(CFA_Y, -12)
        CFI R0 Frame(CFA_Y, -11)
        CFI R1 Frame(CFA_Y, -10)
        CFI R2 Frame(CFA_Y, -9)
        CFI R3 Frame(CFA_Y, -8)
        CFI R30 Frame(CFA_Y, -7)
        CFI R31 Frame(CFA_Y, -6)
        CFI R24 Frame(CFA_Y, -5)
        CFI R25 Frame(CFA_Y, -4)
        CFI R26 Frame(CFA_Y, -3)
        CFI R27 Frame(CFA_Y, -2)
        CFI R4 Frame(CFA_Y, -1)
        CFI CFA_SP SP+6
        CFI CFA_Y Y+19
        CFI Block cfiCond363 Using cfiCommon2
        CFI (cfiCond363) NoFunction
        CFI (cfiCond363) Conditional ??CrossCallReturnLabel_78
        CFI (cfiCond363) R16 Frame(CFA_Y, -19)
        CFI (cfiCond363) R17 Frame(CFA_Y, -18)
        CFI (cfiCond363) R18 Frame(CFA_Y, -17)
        CFI (cfiCond363) R19 Frame(CFA_Y, -16)
        CFI (cfiCond363) R20 Frame(CFA_Y, -15)
        CFI (cfiCond363) R21 Frame(CFA_Y, -14)
        CFI (cfiCond363) R22 Frame(CFA_Y, -13)
        CFI (cfiCond363) R23 Frame(CFA_Y, -12)
        CFI (cfiCond363) R0 Frame(CFA_Y, -11)
        CFI (cfiCond363) R1 Frame(CFA_Y, -10)
        CFI (cfiCond363) R2 Frame(CFA_Y, -9)
        CFI (cfiCond363) R3 Frame(CFA_Y, -8)
        CFI (cfiCond363) R30 Frame(CFA_Y, -7)
        CFI (cfiCond363) R31 Frame(CFA_Y, -6)
        CFI (cfiCond363) R24 Frame(CFA_Y, -5)
        CFI (cfiCond363) R25 Frame(CFA_Y, -4)
        CFI (cfiCond363) R26 Frame(CFA_Y, -3)
        CFI (cfiCond363) R27 Frame(CFA_Y, -2)
        CFI (cfiCond363) R4 Frame(CFA_Y, -1)
        CFI (cfiCond363) CFA_SP SP+6
        CFI (cfiCond363) CFA_Y Y+19
        CFI Block cfiCond364 Using cfiCommon2
        CFI (cfiCond364) NoFunction
        CFI (cfiCond364) Conditional ??CrossCallReturnLabel_79
        CFI (cfiCond364) R16 Frame(CFA_Y, -7)
        CFI (cfiCond364) R17 Frame(CFA_Y, -6)
        CFI (cfiCond364) R18 Frame(CFA_Y, -5)
        CFI (cfiCond364) R30 Frame(CFA_Y, -4)
        CFI (cfiCond364) R31 Frame(CFA_Y, -3)
        CFI (cfiCond364) R26 Frame(CFA_Y, -2)
        CFI (cfiCond364) R27 Frame(CFA_Y, -1)
        CFI (cfiCond364) CFA_SP SP+6
        CFI (cfiCond364) CFA_Y Y+7
        CFI Block cfiPicker365 Using cfiCommon1
        CFI (cfiPicker365) NoFunction
        CFI (cfiPicker365) Picker
        LDS	R16, 258
        ORI	R16, 0x04
        STS	258, R16
        RET
        CFI EndBlock cfiCond362
        CFI EndBlock cfiCond363
        CFI EndBlock cfiCond364
        CFI EndBlock cfiPicker365

        RSEG CODE:CODE:NOROOT(1)
?Subroutine22:
        CFI Block cfiCond366 Using cfiCommon2
        CFI NoFunction
        CFI Conditional ??CrossCallReturnLabel_43
        CFI CFA_SP SP+6
        CFI Block cfiCond367 Using cfiCommon2
        CFI (cfiCond367) NoFunction
        CFI (cfiCond367) Conditional ??CrossCallReturnLabel_44
        CFI (cfiCond367) CFA_SP SP+6
        CFI Block cfiPicker368 Using cfiCommon1
        CFI (cfiPicker368) NoFunction
        CFI (cfiPicker368) Picker
        ST	-Y, R27
        CFI (cfiCond366) R27 Frame(CFA_Y, -1)
        CFI (cfiCond366) CFA_Y Y+1
        CFI (cfiCond367) R27 Frame(CFA_Y, -1)
        CFI (cfiCond367) CFA_Y Y+1
        CFI (cfiPicker368) R27 Frame(CFA_Y, -1)
        ST	-Y, R26
        CFI (cfiCond366) R26 Frame(CFA_Y, -2)
        CFI (cfiCond366) CFA_Y Y+2
        CFI (cfiCond367) R26 Frame(CFA_Y, -2)
        CFI (cfiCond367) CFA_Y Y+2
        CFI (cfiPicker368) R26 Frame(CFA_Y, -2)
        ST	-Y, R31
        CFI (cfiCond366) R31 Frame(CFA_Y, -3)
        CFI (cfiCond366) CFA_Y Y+3
        CFI (cfiCond367) R31 Frame(CFA_Y, -3)
        CFI (cfiCond367) CFA_Y Y+3
        CFI (cfiPicker368) R31 Frame(CFA_Y, -3)
        ST	-Y, R30
        CFI (cfiCond366) R30 Frame(CFA_Y, -4)
        CFI (cfiCond366) CFA_Y Y+4
        CFI (cfiCond367) R30 Frame(CFA_Y, -4)
        CFI (cfiCond367) CFA_Y Y+4
        CFI (cfiPicker368) R30 Frame(CFA_Y, -4)
        ST	-Y, R18
        CFI (cfiCond366) R18 Frame(CFA_Y, -5)
        CFI (cfiCond366) CFA_Y Y+5
        CFI (cfiCond367) R18 Frame(CFA_Y, -5)
        CFI (cfiCond367) CFA_Y Y+5
        CFI (cfiPicker368) R18 Frame(CFA_Y, -5)
        ST	-Y, R17
        CFI (cfiCond366) R17 Frame(CFA_Y, -6)
        CFI (cfiCond366) CFA_Y Y+6
        CFI (cfiCond367) R17 Frame(CFA_Y, -6)
        CFI (cfiCond367) CFA_Y Y+6
        CFI (cfiPicker368) R17 Frame(CFA_Y, -6)
        ST	-Y, R16
        CFI (cfiCond366) R16 Frame(CFA_Y, -7)
        CFI (cfiCond366) CFA_Y Y+7
        CFI (cfiCond367) R16 Frame(CFA_Y, -7)
        CFI (cfiCond367) CFA_Y Y+7
        CFI (cfiPicker368) R16 Frame(CFA_Y, -7)
        IN	R18, 0x3F
        LDI	R30, LOW(Rs485_1)
        LDI	R31, (Rs485_1) >> 8
        RET
        CFI EndBlock cfiCond366
        CFI EndBlock cfiCond367
        CFI EndBlock cfiPicker368
// 1652 ///////////////////////////////////////////////////////////////////////////////////////////////////////////////////
// 1653 
// 1654 
// 1655 
// 1656 
// 1657 
// 1658 /////////////////////////////////////////////////////////////////////////////////////////////////////
// 1659 #pragma vector=USART3_RX_vect
// 1660            

        RSEG CODE:CODE:NOROOT(1)
// 1661            __interrupt  void USART3_RX_interrupt(void)
USART3_RX_interrupt:
        CFI Block cfiBlock369 Using cfiCommon2
        CFI Function USART3_RX_interrupt
// 1662                  
// 1663                  
// 1664                 {
        RCALL	?Subroutine23
        CFI R16 Frame(CFA_Y, -8)
        CFI R17 Frame(CFA_Y, -7)
        CFI R18 Frame(CFA_Y, -6)
        CFI R19 Frame(CFA_Y, -5)
        CFI R30 Frame(CFA_Y, -4)
        CFI R31 Frame(CFA_Y, -3)
        CFI R26 Frame(CFA_Y, -2)
        CFI R27 Frame(CFA_Y, -1)
        CFI CFA_Y Y+8
// 1665                 unsigned char data;
// 1666                 
// 1667                 data=UDR3;
??CrossCallReturnLabel_46:
        LDS	R18, 310
// 1668                 S3_GR;
        CBI	0x08, 0x04
        SBI	0x08, 0x05
// 1669                 Rs485_1.cnt_tm_rx_out=Rs485_1.vol_tm_rx_out;
        LDI	R30, LOW(Rs485_1)
        LDI	R31, (Rs485_1) >> 8
        LDD	R16, Z+10
        LDD	R17, Z+11
        STD	Z+8, R16
        STD	Z+9, R17
// 1670                 Rs485_1.cnt_tm_out=0;
        RCALL	?Subroutine55
// 1671                 if(Rs485_1.cnt_bt_rx_tx < MAX_BUF_RS485_1)
??CrossCallReturnLabel_125:
        RCALL	?Subroutine35
??CrossCallReturnLabel_74:
        CPI	R16, 252
        SBCI	R17, 3
        BRCC	??USART3_RX_interrupt_0
// 1672                        {
// 1673                         Rs485_1_buf_rx_tx[Rs485_1.cnt_bt_rx_tx]=data;
        RCALL	?Subroutine35
??CrossCallReturnLabel_75:
        MOVW	R27:R26, R17:R16
        SUBI	R26, LOW((-(Rs485_1_buf_rx_tx) & 0xFFFF))
        SBCI	R27, (-(Rs485_1_buf_rx_tx) & 0xFFFF) >> 8
        ST	X, R18
// 1674                         Rs485_1.cnt_bt_rx_tx++;
        RCALL	?Subroutine29
??CrossCallReturnLabel_183:
        RJMP	??USART3_RX_interrupt_1
// 1675                         }
// 1676                         else fl_485_1.over=1;
??USART3_RX_interrupt_0:
        LDD	R16, Z+58
        ORI	R16, 0x10
        STD	Z+58, R16
// 1677                 }
??USART3_RX_interrupt_1:
        RJMP	?Subroutine88
        CFI EndBlock cfiBlock369

        RSEG CODE:CODE:NOROOT(1)
?Subroutine59:
        CFI Block cfiCond370 Using cfiCommon2
        CFI NoFunction
        CFI Conditional ??CrossCallReturnLabel_174
        CFI R16 Frame(CFA_Y, -8)
        CFI R17 Frame(CFA_Y, -7)
        CFI R18 Frame(CFA_Y, -6)
        CFI R19 Frame(CFA_Y, -5)
        CFI R30 Frame(CFA_Y, -4)
        CFI R31 Frame(CFA_Y, -3)
        CFI R26 Frame(CFA_Y, -2)
        CFI R27 Frame(CFA_Y, -1)
        CFI CFA_SP SP+6
        CFI CFA_Y Y+8
        CFI Block cfiCond371 Using cfiCommon2
        CFI (cfiCond371) NoFunction
        CFI (cfiCond371) Conditional ??CrossCallReturnLabel_174
        CFI (cfiCond371) R16 Frame(CFA_Y, -8)
        CFI (cfiCond371) R17 Frame(CFA_Y, -7)
        CFI (cfiCond371) R18 Frame(CFA_Y, -6)
        CFI (cfiCond371) R19 Frame(CFA_Y, -5)
        CFI (cfiCond371) R30 Frame(CFA_Y, -4)
        CFI (cfiCond371) R31 Frame(CFA_Y, -3)
        CFI (cfiCond371) R26 Frame(CFA_Y, -2)
        CFI (cfiCond371) R27 Frame(CFA_Y, -1)
        CFI (cfiCond371) CFA_SP SP+6
        CFI (cfiCond371) CFA_Y Y+8
        CFI Block cfiPicker372 Using cfiCommon1
        CFI (cfiPicker372) NoFunction
        CFI (cfiPicker372) Picker
        OUT	0x3F, R19
        LD	R16, Y+
        CFI (cfiCond370) R16 SameValue
        CFI (cfiCond370) CFA_Y Y+7
        CFI (cfiCond371) R16 SameValue
        CFI (cfiCond371) CFA_Y Y+7
        LD	R17, Y+
        CFI (cfiCond370) R17 SameValue
        CFI (cfiCond370) CFA_Y Y+6
        CFI (cfiCond371) R17 SameValue
        CFI (cfiCond371) CFA_Y Y+6
        LD	R18, Y+
        CFI (cfiCond370) R18 SameValue
        CFI (cfiCond370) CFA_Y Y+5
        CFI (cfiCond371) R18 SameValue
        CFI (cfiCond371) CFA_Y Y+5
        LD	R19, Y+
        CFI (cfiCond370) R19 SameValue
        CFI (cfiCond370) CFA_Y Y+4
        CFI (cfiCond371) R19 SameValue
        CFI (cfiCond371) CFA_Y Y+4
        RJMP	?Subroutine89
        CFI EndBlock cfiCond370
        CFI EndBlock cfiCond371
        CFI EndBlock cfiPicker372

        RSEG CODE:CODE:NOROOT(1)
?Subroutine35:
        CFI Block cfiCond373 Using cfiCommon2
        CFI NoFunction
        CFI Conditional ??CrossCallReturnLabel_71
        CFI R16 Frame(CFA_Y, -19)
        CFI R17 Frame(CFA_Y, -18)
        CFI R18 Frame(CFA_Y, -17)
        CFI R19 Frame(CFA_Y, -16)
        CFI R20 Frame(CFA_Y, -15)
        CFI R21 Frame(CFA_Y, -14)
        CFI R22 Frame(CFA_Y, -13)
        CFI R23 Frame(CFA_Y, -12)
        CFI R0 Frame(CFA_Y, -11)
        CFI R1 Frame(CFA_Y, -10)
        CFI R2 Frame(CFA_Y, -9)
        CFI R3 Frame(CFA_Y, -8)
        CFI R30 Frame(CFA_Y, -7)
        CFI R31 Frame(CFA_Y, -6)
        CFI R24 Frame(CFA_Y, -5)
        CFI R25 Frame(CFA_Y, -4)
        CFI R26 Frame(CFA_Y, -3)
        CFI R27 Frame(CFA_Y, -2)
        CFI R4 Frame(CFA_Y, -1)
        CFI CFA_SP SP+6
        CFI CFA_Y Y+19
        CFI Block cfiCond374 Using cfiCommon2
        CFI (cfiCond374) NoFunction
        CFI (cfiCond374) Conditional ??CrossCallReturnLabel_72
        CFI (cfiCond374) R16 Frame(CFA_Y, -8)
        CFI (cfiCond374) R17 Frame(CFA_Y, -7)
        CFI (cfiCond374) R18 Frame(CFA_Y, -6)
        CFI (cfiCond374) R19 Frame(CFA_Y, -5)
        CFI (cfiCond374) R30 Frame(CFA_Y, -4)
        CFI (cfiCond374) R31 Frame(CFA_Y, -3)
        CFI (cfiCond374) R26 Frame(CFA_Y, -2)
        CFI (cfiCond374) R27 Frame(CFA_Y, -1)
        CFI (cfiCond374) CFA_SP SP+6
        CFI (cfiCond374) CFA_Y Y+8
        CFI Block cfiCond375 Using cfiCommon2
        CFI (cfiCond375) NoFunction
        CFI (cfiCond375) Conditional ??CrossCallReturnLabel_73
        CFI (cfiCond375) R16 Frame(CFA_Y, -8)
        CFI (cfiCond375) R17 Frame(CFA_Y, -7)
        CFI (cfiCond375) R18 Frame(CFA_Y, -6)
        CFI (cfiCond375) R19 Frame(CFA_Y, -5)
        CFI (cfiCond375) R30 Frame(CFA_Y, -4)
        CFI (cfiCond375) R31 Frame(CFA_Y, -3)
        CFI (cfiCond375) R26 Frame(CFA_Y, -2)
        CFI (cfiCond375) R27 Frame(CFA_Y, -1)
        CFI (cfiCond375) CFA_SP SP+6
        CFI (cfiCond375) CFA_Y Y+8
        CFI Block cfiCond376 Using cfiCommon2
        CFI (cfiCond376) NoFunction
        CFI (cfiCond376) Conditional ??CrossCallReturnLabel_74
        CFI (cfiCond376) R16 Frame(CFA_Y, -8)
        CFI (cfiCond376) R17 Frame(CFA_Y, -7)
        CFI (cfiCond376) R18 Frame(CFA_Y, -6)
        CFI (cfiCond376) R19 Frame(CFA_Y, -5)
        CFI (cfiCond376) R30 Frame(CFA_Y, -4)
        CFI (cfiCond376) R31 Frame(CFA_Y, -3)
        CFI (cfiCond376) R26 Frame(CFA_Y, -2)
        CFI (cfiCond376) R27 Frame(CFA_Y, -1)
        CFI (cfiCond376) CFA_SP SP+6
        CFI (cfiCond376) CFA_Y Y+8
        CFI Block cfiCond377 Using cfiCommon2
        CFI (cfiCond377) NoFunction
        CFI (cfiCond377) Conditional ??CrossCallReturnLabel_75
        CFI (cfiCond377) R16 Frame(CFA_Y, -8)
        CFI (cfiCond377) R17 Frame(CFA_Y, -7)
        CFI (cfiCond377) R18 Frame(CFA_Y, -6)
        CFI (cfiCond377) R19 Frame(CFA_Y, -5)
        CFI (cfiCond377) R30 Frame(CFA_Y, -4)
        CFI (cfiCond377) R31 Frame(CFA_Y, -3)
        CFI (cfiCond377) R26 Frame(CFA_Y, -2)
        CFI (cfiCond377) R27 Frame(CFA_Y, -1)
        CFI (cfiCond377) CFA_SP SP+6
        CFI (cfiCond377) CFA_Y Y+8
        CFI Block cfiCond378 Using cfiCommon2
        CFI (cfiCond378) NoFunction
        CFI (cfiCond378) Conditional ??CrossCallReturnLabel_76
        CFI (cfiCond378) R16 Frame(CFA_Y, -7)
        CFI (cfiCond378) R17 Frame(CFA_Y, -6)
        CFI (cfiCond378) R18 Frame(CFA_Y, -5)
        CFI (cfiCond378) R30 Frame(CFA_Y, -4)
        CFI (cfiCond378) R31 Frame(CFA_Y, -3)
        CFI (cfiCond378) R26 Frame(CFA_Y, -2)
        CFI (cfiCond378) R27 Frame(CFA_Y, -1)
        CFI (cfiCond378) CFA_SP SP+6
        CFI (cfiCond378) CFA_Y Y+7
        CFI Block cfiPicker379 Using cfiCommon1
        CFI (cfiPicker379) NoFunction
        CFI (cfiPicker379) Picker
        LD	R16, Z
        LDD	R17, Z+1
        RET
        CFI EndBlock cfiCond373
        CFI EndBlock cfiCond374
        CFI EndBlock cfiCond375
        CFI EndBlock cfiCond376
        CFI EndBlock cfiCond377
        CFI EndBlock cfiCond378
        CFI EndBlock cfiPicker379

        RSEG CODE:CODE:NOROOT(1)
?Subroutine29:
        CFI Block cfiCond380 Using cfiCommon2
        CFI NoFunction
        CFI Conditional ??CrossCallReturnLabel_180
        CFI R16 Frame(CFA_Y, -19)
        CFI R17 Frame(CFA_Y, -18)
        CFI R18 Frame(CFA_Y, -17)
        CFI R19 Frame(CFA_Y, -16)
        CFI R20 Frame(CFA_Y, -15)
        CFI R21 Frame(CFA_Y, -14)
        CFI R22 Frame(CFA_Y, -13)
        CFI R23 Frame(CFA_Y, -12)
        CFI R0 Frame(CFA_Y, -11)
        CFI R1 Frame(CFA_Y, -10)
        CFI R2 Frame(CFA_Y, -9)
        CFI R3 Frame(CFA_Y, -8)
        CFI R30 Frame(CFA_Y, -7)
        CFI R31 Frame(CFA_Y, -6)
        CFI R24 Frame(CFA_Y, -5)
        CFI R25 Frame(CFA_Y, -4)
        CFI R26 Frame(CFA_Y, -3)
        CFI R27 Frame(CFA_Y, -2)
        CFI R4 Frame(CFA_Y, -1)
        CFI CFA_SP SP+6
        CFI CFA_Y Y+19
        CFI Block cfiCond381 Using cfiCommon2
        CFI (cfiCond381) NoFunction
        CFI (cfiCond381) Conditional ??CrossCallReturnLabel_181
        CFI (cfiCond381) R16 Frame(CFA_Y, -19)
        CFI (cfiCond381) R17 Frame(CFA_Y, -18)
        CFI (cfiCond381) R18 Frame(CFA_Y, -17)
        CFI (cfiCond381) R19 Frame(CFA_Y, -16)
        CFI (cfiCond381) R20 Frame(CFA_Y, -15)
        CFI (cfiCond381) R21 Frame(CFA_Y, -14)
        CFI (cfiCond381) R22 Frame(CFA_Y, -13)
        CFI (cfiCond381) R23 Frame(CFA_Y, -12)
        CFI (cfiCond381) R0 Frame(CFA_Y, -11)
        CFI (cfiCond381) R1 Frame(CFA_Y, -10)
        CFI (cfiCond381) R2 Frame(CFA_Y, -9)
        CFI (cfiCond381) R3 Frame(CFA_Y, -8)
        CFI (cfiCond381) R30 Frame(CFA_Y, -7)
        CFI (cfiCond381) R31 Frame(CFA_Y, -6)
        CFI (cfiCond381) R24 Frame(CFA_Y, -5)
        CFI (cfiCond381) R25 Frame(CFA_Y, -4)
        CFI (cfiCond381) R26 Frame(CFA_Y, -3)
        CFI (cfiCond381) R27 Frame(CFA_Y, -2)
        CFI (cfiCond381) R4 Frame(CFA_Y, -1)
        CFI (cfiCond381) CFA_SP SP+6
        CFI (cfiCond381) CFA_Y Y+19
        CFI Block cfiCond382 Using cfiCommon2
        CFI (cfiCond382) NoFunction
        CFI (cfiCond382) Conditional ??CrossCallReturnLabel_182
        CFI (cfiCond382) R16 Frame(CFA_Y, -8)
        CFI (cfiCond382) R17 Frame(CFA_Y, -7)
        CFI (cfiCond382) R18 Frame(CFA_Y, -6)
        CFI (cfiCond382) R19 Frame(CFA_Y, -5)
        CFI (cfiCond382) R30 Frame(CFA_Y, -4)
        CFI (cfiCond382) R31 Frame(CFA_Y, -3)
        CFI (cfiCond382) R26 Frame(CFA_Y, -2)
        CFI (cfiCond382) R27 Frame(CFA_Y, -1)
        CFI (cfiCond382) CFA_SP SP+6
        CFI (cfiCond382) CFA_Y Y+8
        CFI Block cfiCond383 Using cfiCommon2
        CFI (cfiCond383) NoFunction
        CFI (cfiCond383) Conditional ??CrossCallReturnLabel_183
        CFI (cfiCond383) R16 Frame(CFA_Y, -8)
        CFI (cfiCond383) R17 Frame(CFA_Y, -7)
        CFI (cfiCond383) R18 Frame(CFA_Y, -6)
        CFI (cfiCond383) R19 Frame(CFA_Y, -5)
        CFI (cfiCond383) R30 Frame(CFA_Y, -4)
        CFI (cfiCond383) R31 Frame(CFA_Y, -3)
        CFI (cfiCond383) R26 Frame(CFA_Y, -2)
        CFI (cfiCond383) R27 Frame(CFA_Y, -1)
        CFI (cfiCond383) CFA_SP SP+6
        CFI (cfiCond383) CFA_Y Y+8
        CFI Block cfiCond384 Using cfiCommon2
        CFI (cfiCond384) NoFunction
        CFI (cfiCond384) Conditional ??CrossCallReturnLabel_184
        CFI (cfiCond384) R16 Frame(CFA_Y, -7)
        CFI (cfiCond384) R17 Frame(CFA_Y, -6)
        CFI (cfiCond384) R18 Frame(CFA_Y, -5)
        CFI (cfiCond384) R19 Frame(CFA_Y, -4)
        CFI (cfiCond384) R20 Frame(CFA_Y, -3)
        CFI (cfiCond384) R30 Frame(CFA_Y, -2)
        CFI (cfiCond384) R31 Frame(CFA_Y, -1)
        CFI (cfiCond384) CFA_SP SP+6
        CFI (cfiCond384) CFA_Y Y+7
        CFI Block cfiPicker385 Using cfiCommon1
        CFI (cfiPicker385) NoFunction
        CFI (cfiPicker385) Picker
        LD	R16, Z
        LDD	R17, Z+1
        SUBI	R16, 255
        SBCI	R17, 255
        RJMP	?Subroutine90
        CFI EndBlock cfiCond380
        CFI EndBlock cfiCond381
        CFI EndBlock cfiCond382
        CFI EndBlock cfiCond383
        CFI EndBlock cfiCond384
        CFI EndBlock cfiPicker385

        RSEG CODE:CODE:NOROOT(1)
?Subroutine23:
        CFI Block cfiCond386 Using cfiCommon2
        CFI NoFunction
        CFI Conditional ??CrossCallReturnLabel_45
        CFI CFA_SP SP+6
        CFI Block cfiCond387 Using cfiCommon2
        CFI (cfiCond387) NoFunction
        CFI (cfiCond387) Conditional ??CrossCallReturnLabel_46
        CFI (cfiCond387) CFA_SP SP+6
        CFI Block cfiPicker388 Using cfiCommon1
        CFI (cfiPicker388) NoFunction
        CFI (cfiPicker388) Picker
        ST	-Y, R27
        CFI (cfiCond386) R27 Frame(CFA_Y, -1)
        CFI (cfiCond386) CFA_Y Y+1
        CFI (cfiCond387) R27 Frame(CFA_Y, -1)
        CFI (cfiCond387) CFA_Y Y+1
        CFI (cfiPicker388) R27 Frame(CFA_Y, -1)
        ST	-Y, R26
        CFI (cfiCond386) R26 Frame(CFA_Y, -2)
        CFI (cfiCond386) CFA_Y Y+2
        CFI (cfiCond387) R26 Frame(CFA_Y, -2)
        CFI (cfiCond387) CFA_Y Y+2
        CFI (cfiPicker388) R26 Frame(CFA_Y, -2)
        ST	-Y, R31
        CFI (cfiCond386) R31 Frame(CFA_Y, -3)
        CFI (cfiCond386) CFA_Y Y+3
        CFI (cfiCond387) R31 Frame(CFA_Y, -3)
        CFI (cfiCond387) CFA_Y Y+3
        CFI (cfiPicker388) R31 Frame(CFA_Y, -3)
        ST	-Y, R30
        CFI (cfiCond386) R30 Frame(CFA_Y, -4)
        CFI (cfiCond386) CFA_Y Y+4
        CFI (cfiCond387) R30 Frame(CFA_Y, -4)
        CFI (cfiCond387) CFA_Y Y+4
        CFI (cfiPicker388) R30 Frame(CFA_Y, -4)
        ST	-Y, R19
        CFI (cfiCond386) R19 Frame(CFA_Y, -5)
        CFI (cfiCond386) CFA_Y Y+5
        CFI (cfiCond387) R19 Frame(CFA_Y, -5)
        CFI (cfiCond387) CFA_Y Y+5
        CFI (cfiPicker388) R19 Frame(CFA_Y, -5)
        ST	-Y, R18
        CFI (cfiCond386) R18 Frame(CFA_Y, -6)
        CFI (cfiCond386) CFA_Y Y+6
        CFI (cfiCond387) R18 Frame(CFA_Y, -6)
        CFI (cfiCond387) CFA_Y Y+6
        CFI (cfiPicker388) R18 Frame(CFA_Y, -6)
        ST	-Y, R17
        CFI (cfiCond386) R17 Frame(CFA_Y, -7)
        CFI (cfiCond386) CFA_Y Y+7
        CFI (cfiCond387) R17 Frame(CFA_Y, -7)
        CFI (cfiCond387) CFA_Y Y+7
        CFI (cfiPicker388) R17 Frame(CFA_Y, -7)
        ST	-Y, R16
        CFI (cfiCond386) R16 Frame(CFA_Y, -8)
        CFI (cfiCond386) CFA_Y Y+8
        CFI (cfiCond387) R16 Frame(CFA_Y, -8)
        CFI (cfiCond387) CFA_Y Y+8
        CFI (cfiPicker388) R16 Frame(CFA_Y, -8)
        IN	R19, 0x3F
        RET
        CFI EndBlock cfiCond386
        CFI EndBlock cfiCond387
        CFI EndBlock cfiPicker388
// 1678  /////////////////////////////////////////////////////////////////////////////////////////////////////
// 1679  
// 1680 
// 1681 
// 1682 
// 1683 /////////////////////////////////////////////////////////////////////////////////////////////////////
// 1684 
// 1685 #pragma vector=USART3_TX_vect
// 1686            

        RSEG CODE:CODE:NOROOT(1)
// 1687            __interrupt  void USART3_TX_interrupt(void)
USART3_TX_interrupt:
        CFI Block cfiBlock389 Using cfiCommon2
        CFI Function USART3_TX_interrupt
// 1688 
// 1689 {
        RCALL	??Subroutine25_0
        CFI R26 Frame(CFA_Y, -2)
        CFI R27 Frame(CFA_Y, -1)
        CFI CFA_Y Y+2
??CrossCallReturnLabel_51:
        ST	-Y, R31
        CFI R31 Frame(CFA_Y, -3)
        CFI CFA_Y Y+3
        ST	-Y, R30
        CFI R30 Frame(CFA_Y, -4)
        CFI CFA_Y Y+4
        ST	-Y, R18
        CFI R18 Frame(CFA_Y, -5)
        CFI CFA_Y Y+5
        ST	-Y, R17
        CFI R17 Frame(CFA_Y, -6)
        CFI CFA_Y Y+6
        ST	-Y, R16
        CFI R16 Frame(CFA_Y, -7)
        CFI CFA_Y Y+7
        IN	R18, 0x3F
// 1690 
// 1691  if(Rs485_1.cnt_bt_rx_tx==0) goto end_tx2;
        LDI	R30, LOW(Rs485_1)
        LDI	R31, (Rs485_1) >> 8
        RCALL	??Subroutine32_0
??CrossCallReturnLabel_240:
        BRNE	??USART3_TX_interrupt_0
// 1692                                                        
// 1693                 UDR3=*Rs485_1.p_data485++;
// 1694                 Rs485_1.cnt_bt_rx_tx--; 
// 1695                 return;
// 1696 end_tx2:
// 1697                UCSR3B=UCSR3B & ~TXCIE;
        LDS	R16, 305
        ANDI	R16, 0xBF
        STS	305, R16
// 1698                Rs485_1.cnt_bt_rx_tx=0;
        RCALL	?Subroutine37
// 1699                Rs485_1.cnt_tm_tx_out=Rs485_1.vol_tm_tx_out;
??CrossCallReturnLabel_86:
        LDD	R16, Z+6
        LDD	R17, Z+7
        STD	Z+2, R16
        STD	Z+3, R17
// 1700                if(Rs485_1.cnt_tm_tx_out==0)
        OR	R16, R17
        BRNE	??CrossCallReturnLabel_200
// 1701                {
// 1702                 S3_OFF;
        RCALL	?Subroutine68
// 1703                 Rs485_1.cnt_tm_out=Rs485_1.vol_tm_out;
// 1704                 CLR_RTS1;  // togle to receiv mode  
??CrossCallReturnLabel_148:
        RCALL	?Subroutine46
// 1705                 UCSR3B =UCSR3B | RXEN | RXCIE; // togle to receiv mode ;
??CrossCallReturnLabel_109:
        RCALL	?Subroutine70
??CrossCallReturnLabel_200:
        RJMP	?Subroutine87
// 1706                }
??USART3_TX_interrupt_0:
        LDD	R26, Z+16
        LDD	R27, Z+17
        LD	R16, X
        STS	310, R16
        LDD	R16, Z+16
        LDD	R17, Z+17
        RCALL	?Subroutine63
??CrossCallReturnLabel_141:
        STD	Z+16, R16
        STD	Z+17, R17
        RCALL	?Subroutine35
??CrossCallReturnLabel_76:
        RCALL	?Subroutine45
??CrossCallReturnLabel_106:
        RCALL	?Subroutine90
??CrossCallReturnLabel_179:
        RJMP	??CrossCallReturnLabel_200
        CFI EndBlock cfiBlock389
// 1707               
// 1708 
// 1709 }

        RSEG CODE:CODE:NOROOT(1)
?Subroutine70:
        CFI Block cfiCond390 Using cfiCommon2
        CFI NoFunction
        CFI Conditional ??CrossCallReturnLabel_199
        CFI R16 Frame(CFA_Y, -19)
        CFI R17 Frame(CFA_Y, -18)
        CFI R18 Frame(CFA_Y, -17)
        CFI R19 Frame(CFA_Y, -16)
        CFI R20 Frame(CFA_Y, -15)
        CFI R21 Frame(CFA_Y, -14)
        CFI R22 Frame(CFA_Y, -13)
        CFI R23 Frame(CFA_Y, -12)
        CFI R0 Frame(CFA_Y, -11)
        CFI R1 Frame(CFA_Y, -10)
        CFI R2 Frame(CFA_Y, -9)
        CFI R3 Frame(CFA_Y, -8)
        CFI R30 Frame(CFA_Y, -7)
        CFI R31 Frame(CFA_Y, -6)
        CFI R24 Frame(CFA_Y, -5)
        CFI R25 Frame(CFA_Y, -4)
        CFI R26 Frame(CFA_Y, -3)
        CFI R27 Frame(CFA_Y, -2)
        CFI R4 Frame(CFA_Y, -1)
        CFI CFA_SP SP+6
        CFI CFA_Y Y+19
        CFI Block cfiCond391 Using cfiCommon2
        CFI (cfiCond391) NoFunction
        CFI (cfiCond391) Conditional ??CrossCallReturnLabel_200
        CFI (cfiCond391) R16 Frame(CFA_Y, -7)
        CFI (cfiCond391) R17 Frame(CFA_Y, -6)
        CFI (cfiCond391) R18 Frame(CFA_Y, -5)
        CFI (cfiCond391) R30 Frame(CFA_Y, -4)
        CFI (cfiCond391) R31 Frame(CFA_Y, -3)
        CFI (cfiCond391) R26 Frame(CFA_Y, -2)
        CFI (cfiCond391) R27 Frame(CFA_Y, -1)
        CFI (cfiCond391) CFA_SP SP+6
        CFI (cfiCond391) CFA_Y Y+7
        CFI Block cfiPicker392 Using cfiCommon1
        CFI (cfiPicker392) NoFunction
        CFI (cfiPicker392) Picker
        LDS	R16, 305
        ORI	R16, 0x90
        RJMP	?Subroutine94
        CFI EndBlock cfiCond390
        CFI EndBlock cfiCond391
        CFI EndBlock cfiPicker392

        RSEG CODE:CODE:NOROOT(1)
?Subroutine68:
        CFI Block cfiCond393 Using cfiCommon2
        CFI NoFunction
        CFI Conditional ??CrossCallReturnLabel_147
        CFI R16 Frame(CFA_Y, -19)
        CFI R17 Frame(CFA_Y, -18)
        CFI R18 Frame(CFA_Y, -17)
        CFI R19 Frame(CFA_Y, -16)
        CFI R20 Frame(CFA_Y, -15)
        CFI R21 Frame(CFA_Y, -14)
        CFI R22 Frame(CFA_Y, -13)
        CFI R23 Frame(CFA_Y, -12)
        CFI R0 Frame(CFA_Y, -11)
        CFI R1 Frame(CFA_Y, -10)
        CFI R2 Frame(CFA_Y, -9)
        CFI R3 Frame(CFA_Y, -8)
        CFI R30 Frame(CFA_Y, -7)
        CFI R31 Frame(CFA_Y, -6)
        CFI R24 Frame(CFA_Y, -5)
        CFI R25 Frame(CFA_Y, -4)
        CFI R26 Frame(CFA_Y, -3)
        CFI R27 Frame(CFA_Y, -2)
        CFI R4 Frame(CFA_Y, -1)
        CFI CFA_SP SP+6
        CFI CFA_Y Y+19
        CFI Block cfiCond394 Using cfiCommon2
        CFI (cfiCond394) NoFunction
        CFI (cfiCond394) Conditional ??CrossCallReturnLabel_148
        CFI (cfiCond394) R16 Frame(CFA_Y, -7)
        CFI (cfiCond394) R17 Frame(CFA_Y, -6)
        CFI (cfiCond394) R18 Frame(CFA_Y, -5)
        CFI (cfiCond394) R30 Frame(CFA_Y, -4)
        CFI (cfiCond394) R31 Frame(CFA_Y, -3)
        CFI (cfiCond394) R26 Frame(CFA_Y, -2)
        CFI (cfiCond394) R27 Frame(CFA_Y, -1)
        CFI (cfiCond394) CFA_SP SP+6
        CFI (cfiCond394) CFA_Y Y+7
        CFI Block cfiPicker395 Using cfiCommon1
        CFI (cfiPicker395) NoFunction
        CFI (cfiPicker395) Picker
        CBI	0x08, 0x04
        CBI	0x08, 0x05
        LDD	R16, Z+14
        LDD	R17, Z+15
        STD	Z+12, R16
        STD	Z+13, R17
        RET
        CFI EndBlock cfiCond393
        CFI EndBlock cfiCond394
        CFI EndBlock cfiPicker395

        RSEG CODE:CODE:NOROOT(1)
?Subroutine46:
        CFI Block cfiCond396 Using cfiCommon2
        CFI NoFunction
        CFI Conditional ??CrossCallReturnLabel_107
        CFI R16 Frame(CFA_Y, -19)
        CFI R17 Frame(CFA_Y, -18)
        CFI R18 Frame(CFA_Y, -17)
        CFI R19 Frame(CFA_Y, -16)
        CFI R20 Frame(CFA_Y, -15)
        CFI R21 Frame(CFA_Y, -14)
        CFI R22 Frame(CFA_Y, -13)
        CFI R23 Frame(CFA_Y, -12)
        CFI R0 Frame(CFA_Y, -11)
        CFI R1 Frame(CFA_Y, -10)
        CFI R2 Frame(CFA_Y, -9)
        CFI R3 Frame(CFA_Y, -8)
        CFI R30 Frame(CFA_Y, -7)
        CFI R31 Frame(CFA_Y, -6)
        CFI R24 Frame(CFA_Y, -5)
        CFI R25 Frame(CFA_Y, -4)
        CFI R26 Frame(CFA_Y, -3)
        CFI R27 Frame(CFA_Y, -2)
        CFI R4 Frame(CFA_Y, -1)
        CFI CFA_SP SP+6
        CFI CFA_Y Y+19
        CFI Block cfiCond397 Using cfiCommon2
        CFI (cfiCond397) NoFunction
        CFI (cfiCond397) Conditional ??CrossCallReturnLabel_108
        CFI (cfiCond397) R16 Frame(CFA_Y, -19)
        CFI (cfiCond397) R17 Frame(CFA_Y, -18)
        CFI (cfiCond397) R18 Frame(CFA_Y, -17)
        CFI (cfiCond397) R19 Frame(CFA_Y, -16)
        CFI (cfiCond397) R20 Frame(CFA_Y, -15)
        CFI (cfiCond397) R21 Frame(CFA_Y, -14)
        CFI (cfiCond397) R22 Frame(CFA_Y, -13)
        CFI (cfiCond397) R23 Frame(CFA_Y, -12)
        CFI (cfiCond397) R0 Frame(CFA_Y, -11)
        CFI (cfiCond397) R1 Frame(CFA_Y, -10)
        CFI (cfiCond397) R2 Frame(CFA_Y, -9)
        CFI (cfiCond397) R3 Frame(CFA_Y, -8)
        CFI (cfiCond397) R30 Frame(CFA_Y, -7)
        CFI (cfiCond397) R31 Frame(CFA_Y, -6)
        CFI (cfiCond397) R24 Frame(CFA_Y, -5)
        CFI (cfiCond397) R25 Frame(CFA_Y, -4)
        CFI (cfiCond397) R26 Frame(CFA_Y, -3)
        CFI (cfiCond397) R27 Frame(CFA_Y, -2)
        CFI (cfiCond397) R4 Frame(CFA_Y, -1)
        CFI (cfiCond397) CFA_SP SP+6
        CFI (cfiCond397) CFA_Y Y+19
        CFI Block cfiCond398 Using cfiCommon2
        CFI (cfiCond398) NoFunction
        CFI (cfiCond398) Conditional ??CrossCallReturnLabel_109
        CFI (cfiCond398) R16 Frame(CFA_Y, -7)
        CFI (cfiCond398) R17 Frame(CFA_Y, -6)
        CFI (cfiCond398) R18 Frame(CFA_Y, -5)
        CFI (cfiCond398) R30 Frame(CFA_Y, -4)
        CFI (cfiCond398) R31 Frame(CFA_Y, -3)
        CFI (cfiCond398) R26 Frame(CFA_Y, -2)
        CFI (cfiCond398) R27 Frame(CFA_Y, -1)
        CFI (cfiCond398) CFA_SP SP+6
        CFI (cfiCond398) CFA_Y Y+7
        CFI Block cfiPicker399 Using cfiCommon1
        CFI (cfiPicker399) NoFunction
        CFI (cfiPicker399) Picker
        LDS	R16, 261
        ANDI	R16, 0xFB
        STS	261, R16
        RET
        CFI EndBlock cfiCond396
        CFI EndBlock cfiCond397
        CFI EndBlock cfiCond398
        CFI EndBlock cfiPicker399

        RSEG CODE:CODE:NOROOT(1)
?Subroutine32:
        CFI Block cfiCond400 Using cfiCommon2
        CFI NoFunction
        CFI Conditional ??CrossCallReturnLabel_216
        CFI R16 Frame(CFA_Y, -19)
        CFI R17 Frame(CFA_Y, -18)
        CFI R18 Frame(CFA_Y, -17)
        CFI R19 Frame(CFA_Y, -16)
        CFI R20 Frame(CFA_Y, -15)
        CFI R21 Frame(CFA_Y, -14)
        CFI R22 Frame(CFA_Y, -13)
        CFI R23 Frame(CFA_Y, -12)
        CFI R0 Frame(CFA_Y, -11)
        CFI R1 Frame(CFA_Y, -10)
        CFI R2 Frame(CFA_Y, -9)
        CFI R3 Frame(CFA_Y, -8)
        CFI R30 Frame(CFA_Y, -7)
        CFI R31 Frame(CFA_Y, -6)
        CFI R24 Frame(CFA_Y, -5)
        CFI R25 Frame(CFA_Y, -4)
        CFI R26 Frame(CFA_Y, -3)
        CFI R27 Frame(CFA_Y, -2)
        CFI R4 Frame(CFA_Y, -1)
        CFI CFA_SP SP+6
        CFI CFA_Y Y+19
        CFI Block cfiCond401 Using cfiCommon2
        CFI (cfiCond401) NoFunction
        CFI (cfiCond401) Conditional ??CrossCallReturnLabel_217
        CFI (cfiCond401) R16 Frame(CFA_Y, -19)
        CFI (cfiCond401) R17 Frame(CFA_Y, -18)
        CFI (cfiCond401) R18 Frame(CFA_Y, -17)
        CFI (cfiCond401) R19 Frame(CFA_Y, -16)
        CFI (cfiCond401) R20 Frame(CFA_Y, -15)
        CFI (cfiCond401) R21 Frame(CFA_Y, -14)
        CFI (cfiCond401) R22 Frame(CFA_Y, -13)
        CFI (cfiCond401) R23 Frame(CFA_Y, -12)
        CFI (cfiCond401) R0 Frame(CFA_Y, -11)
        CFI (cfiCond401) R1 Frame(CFA_Y, -10)
        CFI (cfiCond401) R2 Frame(CFA_Y, -9)
        CFI (cfiCond401) R3 Frame(CFA_Y, -8)
        CFI (cfiCond401) R30 Frame(CFA_Y, -7)
        CFI (cfiCond401) R31 Frame(CFA_Y, -6)
        CFI (cfiCond401) R24 Frame(CFA_Y, -5)
        CFI (cfiCond401) R25 Frame(CFA_Y, -4)
        CFI (cfiCond401) R26 Frame(CFA_Y, -3)
        CFI (cfiCond401) R27 Frame(CFA_Y, -2)
        CFI (cfiCond401) R4 Frame(CFA_Y, -1)
        CFI (cfiCond401) CFA_SP SP+6
        CFI (cfiCond401) CFA_Y Y+19
        CFI Block cfiPicker402 Using cfiCommon1
        CFI (cfiPicker402) NoFunction
        CFI (cfiPicker402) Picker
        LD	R16, Z
        ANDI	R16, 0xFE
        ST	Z, R16
        LDI	R30, LOW(count_tx_ppp)
        LDI	R31, (count_tx_ppp) >> 8
        CFI Block cfiCond403 Using cfiCommon2
        CFI (cfiCond403) NoFunction
        CFI (cfiCond403) Conditional ??CrossCallReturnLabel_230
        CFI (cfiCond403) R16 Frame(CFA_Y, -19)
        CFI (cfiCond403) R17 Frame(CFA_Y, -18)
        CFI (cfiCond403) R18 Frame(CFA_Y, -17)
        CFI (cfiCond403) R19 Frame(CFA_Y, -16)
        CFI (cfiCond403) R20 Frame(CFA_Y, -15)
        CFI (cfiCond403) R21 Frame(CFA_Y, -14)
        CFI (cfiCond403) R22 Frame(CFA_Y, -13)
        CFI (cfiCond403) R23 Frame(CFA_Y, -12)
        CFI (cfiCond403) R0 Frame(CFA_Y, -11)
        CFI (cfiCond403) R1 Frame(CFA_Y, -10)
        CFI (cfiCond403) R2 Frame(CFA_Y, -9)
        CFI (cfiCond403) R3 Frame(CFA_Y, -8)
        CFI (cfiCond403) R30 Frame(CFA_Y, -7)
        CFI (cfiCond403) R31 Frame(CFA_Y, -6)
        CFI (cfiCond403) R24 Frame(CFA_Y, -5)
        CFI (cfiCond403) R25 Frame(CFA_Y, -4)
        CFI (cfiCond403) R26 Frame(CFA_Y, -3)
        CFI (cfiCond403) R27 Frame(CFA_Y, -2)
        CFI (cfiCond403) R4 Frame(CFA_Y, -1)
        CFI (cfiCond403) CFA_SP SP+6
        CFI (cfiCond403) CFA_Y Y+19
        CFI Block cfiCond404 Using cfiCommon2
        CFI (cfiCond404) NoFunction
        CFI (cfiCond404) Conditional ??CrossCallReturnLabel_231
        CFI (cfiCond404) R16 Frame(CFA_Y, -19)
        CFI (cfiCond404) R17 Frame(CFA_Y, -18)
        CFI (cfiCond404) R18 Frame(CFA_Y, -17)
        CFI (cfiCond404) R19 Frame(CFA_Y, -16)
        CFI (cfiCond404) R20 Frame(CFA_Y, -15)
        CFI (cfiCond404) R21 Frame(CFA_Y, -14)
        CFI (cfiCond404) R22 Frame(CFA_Y, -13)
        CFI (cfiCond404) R23 Frame(CFA_Y, -12)
        CFI (cfiCond404) R0 Frame(CFA_Y, -11)
        CFI (cfiCond404) R1 Frame(CFA_Y, -10)
        CFI (cfiCond404) R2 Frame(CFA_Y, -9)
        CFI (cfiCond404) R3 Frame(CFA_Y, -8)
        CFI (cfiCond404) R30 Frame(CFA_Y, -7)
        CFI (cfiCond404) R31 Frame(CFA_Y, -6)
        CFI (cfiCond404) R24 Frame(CFA_Y, -5)
        CFI (cfiCond404) R25 Frame(CFA_Y, -4)
        CFI (cfiCond404) R26 Frame(CFA_Y, -3)
        CFI (cfiCond404) R27 Frame(CFA_Y, -2)
        CFI (cfiCond404) R4 Frame(CFA_Y, -1)
        CFI (cfiCond404) CFA_SP SP+6
        CFI (cfiCond404) CFA_Y Y+19
        CFI Block cfiCond405 Using cfiCommon2
        CFI (cfiCond405) NoFunction
        CFI (cfiCond405) Conditional ??CrossCallReturnLabel_232
        CFI (cfiCond405) R16 Frame(CFA_Y, -19)
        CFI (cfiCond405) R17 Frame(CFA_Y, -18)
        CFI (cfiCond405) R18 Frame(CFA_Y, -17)
        CFI (cfiCond405) R19 Frame(CFA_Y, -16)
        CFI (cfiCond405) R20 Frame(CFA_Y, -15)
        CFI (cfiCond405) R21 Frame(CFA_Y, -14)
        CFI (cfiCond405) R22 Frame(CFA_Y, -13)
        CFI (cfiCond405) R23 Frame(CFA_Y, -12)
        CFI (cfiCond405) R0 Frame(CFA_Y, -11)
        CFI (cfiCond405) R1 Frame(CFA_Y, -10)
        CFI (cfiCond405) R2 Frame(CFA_Y, -9)
        CFI (cfiCond405) R3 Frame(CFA_Y, -8)
        CFI (cfiCond405) R30 Frame(CFA_Y, -7)
        CFI (cfiCond405) R31 Frame(CFA_Y, -6)
        CFI (cfiCond405) R24 Frame(CFA_Y, -5)
        CFI (cfiCond405) R25 Frame(CFA_Y, -4)
        CFI (cfiCond405) R26 Frame(CFA_Y, -3)
        CFI (cfiCond405) R27 Frame(CFA_Y, -2)
        CFI (cfiCond405) R4 Frame(CFA_Y, -1)
        CFI (cfiCond405) CFA_SP SP+6
        CFI (cfiCond405) CFA_Y Y+19
        CFI Block cfiCond406 Using cfiCommon2
        CFI (cfiCond406) NoFunction
        CFI (cfiCond406) Conditional ??CrossCallReturnLabel_233
        CFI (cfiCond406) R16 Frame(CFA_Y, -19)
        CFI (cfiCond406) R17 Frame(CFA_Y, -18)
        CFI (cfiCond406) R18 Frame(CFA_Y, -17)
        CFI (cfiCond406) R19 Frame(CFA_Y, -16)
        CFI (cfiCond406) R20 Frame(CFA_Y, -15)
        CFI (cfiCond406) R21 Frame(CFA_Y, -14)
        CFI (cfiCond406) R22 Frame(CFA_Y, -13)
        CFI (cfiCond406) R23 Frame(CFA_Y, -12)
        CFI (cfiCond406) R0 Frame(CFA_Y, -11)
        CFI (cfiCond406) R1 Frame(CFA_Y, -10)
        CFI (cfiCond406) R2 Frame(CFA_Y, -9)
        CFI (cfiCond406) R3 Frame(CFA_Y, -8)
        CFI (cfiCond406) R30 Frame(CFA_Y, -7)
        CFI (cfiCond406) R31 Frame(CFA_Y, -6)
        CFI (cfiCond406) R24 Frame(CFA_Y, -5)
        CFI (cfiCond406) R25 Frame(CFA_Y, -4)
        CFI (cfiCond406) R26 Frame(CFA_Y, -3)
        CFI (cfiCond406) R27 Frame(CFA_Y, -2)
        CFI (cfiCond406) R4 Frame(CFA_Y, -1)
        CFI (cfiCond406) CFA_SP SP+6
        CFI (cfiCond406) CFA_Y Y+19
        CFI Block cfiCond407 Using cfiCommon2
        CFI (cfiCond407) NoFunction
        CFI (cfiCond407) Conditional ??CrossCallReturnLabel_234
        CFI (cfiCond407) R16 Frame(CFA_Y, -19)
        CFI (cfiCond407) R17 Frame(CFA_Y, -18)
        CFI (cfiCond407) R18 Frame(CFA_Y, -17)
        CFI (cfiCond407) R19 Frame(CFA_Y, -16)
        CFI (cfiCond407) R20 Frame(CFA_Y, -15)
        CFI (cfiCond407) R21 Frame(CFA_Y, -14)
        CFI (cfiCond407) R22 Frame(CFA_Y, -13)
        CFI (cfiCond407) R23 Frame(CFA_Y, -12)
        CFI (cfiCond407) R0 Frame(CFA_Y, -11)
        CFI (cfiCond407) R1 Frame(CFA_Y, -10)
        CFI (cfiCond407) R2 Frame(CFA_Y, -9)
        CFI (cfiCond407) R3 Frame(CFA_Y, -8)
        CFI (cfiCond407) R30 Frame(CFA_Y, -7)
        CFI (cfiCond407) R31 Frame(CFA_Y, -6)
        CFI (cfiCond407) R24 Frame(CFA_Y, -5)
        CFI (cfiCond407) R25 Frame(CFA_Y, -4)
        CFI (cfiCond407) R26 Frame(CFA_Y, -3)
        CFI (cfiCond407) R27 Frame(CFA_Y, -2)
        CFI (cfiCond407) R4 Frame(CFA_Y, -1)
        CFI (cfiCond407) CFA_SP SP+6
        CFI (cfiCond407) CFA_Y Y+19
        CFI Block cfiCond408 Using cfiCommon2
        CFI (cfiCond408) NoFunction
        CFI (cfiCond408) Conditional ??CrossCallReturnLabel_235
        CFI (cfiCond408) R16 Frame(CFA_Y, -19)
        CFI (cfiCond408) R17 Frame(CFA_Y, -18)
        CFI (cfiCond408) R18 Frame(CFA_Y, -17)
        CFI (cfiCond408) R19 Frame(CFA_Y, -16)
        CFI (cfiCond408) R20 Frame(CFA_Y, -15)
        CFI (cfiCond408) R21 Frame(CFA_Y, -14)
        CFI (cfiCond408) R22 Frame(CFA_Y, -13)
        CFI (cfiCond408) R23 Frame(CFA_Y, -12)
        CFI (cfiCond408) R0 Frame(CFA_Y, -11)
        CFI (cfiCond408) R1 Frame(CFA_Y, -10)
        CFI (cfiCond408) R2 Frame(CFA_Y, -9)
        CFI (cfiCond408) R3 Frame(CFA_Y, -8)
        CFI (cfiCond408) R30 Frame(CFA_Y, -7)
        CFI (cfiCond408) R31 Frame(CFA_Y, -6)
        CFI (cfiCond408) R24 Frame(CFA_Y, -5)
        CFI (cfiCond408) R25 Frame(CFA_Y, -4)
        CFI (cfiCond408) R26 Frame(CFA_Y, -3)
        CFI (cfiCond408) R27 Frame(CFA_Y, -2)
        CFI (cfiCond408) R4 Frame(CFA_Y, -1)
        CFI (cfiCond408) CFA_SP SP+6
        CFI (cfiCond408) CFA_Y Y+19
        CFI Block cfiCond409 Using cfiCommon2
        CFI (cfiCond409) NoFunction
        CFI (cfiCond409) Conditional ??CrossCallReturnLabel_236
        CFI (cfiCond409) R16 Frame(CFA_Y, -19)
        CFI (cfiCond409) R17 Frame(CFA_Y, -18)
        CFI (cfiCond409) R18 Frame(CFA_Y, -17)
        CFI (cfiCond409) R19 Frame(CFA_Y, -16)
        CFI (cfiCond409) R20 Frame(CFA_Y, -15)
        CFI (cfiCond409) R21 Frame(CFA_Y, -14)
        CFI (cfiCond409) R22 Frame(CFA_Y, -13)
        CFI (cfiCond409) R23 Frame(CFA_Y, -12)
        CFI (cfiCond409) R0 Frame(CFA_Y, -11)
        CFI (cfiCond409) R1 Frame(CFA_Y, -10)
        CFI (cfiCond409) R2 Frame(CFA_Y, -9)
        CFI (cfiCond409) R3 Frame(CFA_Y, -8)
        CFI (cfiCond409) R30 Frame(CFA_Y, -7)
        CFI (cfiCond409) R31 Frame(CFA_Y, -6)
        CFI (cfiCond409) R24 Frame(CFA_Y, -5)
        CFI (cfiCond409) R25 Frame(CFA_Y, -4)
        CFI (cfiCond409) R26 Frame(CFA_Y, -3)
        CFI (cfiCond409) R27 Frame(CFA_Y, -2)
        CFI (cfiCond409) R4 Frame(CFA_Y, -1)
        CFI (cfiCond409) CFA_SP SP+6
        CFI (cfiCond409) CFA_Y Y+19
        CFI Block cfiCond410 Using cfiCommon2
        CFI (cfiCond410) NoFunction
        CFI (cfiCond410) Conditional ??CrossCallReturnLabel_237
        CFI (cfiCond410) R16 Frame(CFA_Y, -19)
        CFI (cfiCond410) R17 Frame(CFA_Y, -18)
        CFI (cfiCond410) R18 Frame(CFA_Y, -17)
        CFI (cfiCond410) R19 Frame(CFA_Y, -16)
        CFI (cfiCond410) R20 Frame(CFA_Y, -15)
        CFI (cfiCond410) R21 Frame(CFA_Y, -14)
        CFI (cfiCond410) R22 Frame(CFA_Y, -13)
        CFI (cfiCond410) R23 Frame(CFA_Y, -12)
        CFI (cfiCond410) R0 Frame(CFA_Y, -11)
        CFI (cfiCond410) R1 Frame(CFA_Y, -10)
        CFI (cfiCond410) R2 Frame(CFA_Y, -9)
        CFI (cfiCond410) R3 Frame(CFA_Y, -8)
        CFI (cfiCond410) R30 Frame(CFA_Y, -7)
        CFI (cfiCond410) R31 Frame(CFA_Y, -6)
        CFI (cfiCond410) R24 Frame(CFA_Y, -5)
        CFI (cfiCond410) R25 Frame(CFA_Y, -4)
        CFI (cfiCond410) R26 Frame(CFA_Y, -3)
        CFI (cfiCond410) R27 Frame(CFA_Y, -2)
        CFI (cfiCond410) R4 Frame(CFA_Y, -1)
        CFI (cfiCond410) CFA_SP SP+6
        CFI (cfiCond410) CFA_Y Y+19
        CFI Block cfiCond411 Using cfiCommon2
        CFI (cfiCond411) NoFunction
        CFI (cfiCond411) Conditional ??CrossCallReturnLabel_238
        CFI (cfiCond411) R16 Frame(CFA_Y, -19)
        CFI (cfiCond411) R17 Frame(CFA_Y, -18)
        CFI (cfiCond411) R18 Frame(CFA_Y, -17)
        CFI (cfiCond411) R19 Frame(CFA_Y, -16)
        CFI (cfiCond411) R20 Frame(CFA_Y, -15)
        CFI (cfiCond411) R21 Frame(CFA_Y, -14)
        CFI (cfiCond411) R22 Frame(CFA_Y, -13)
        CFI (cfiCond411) R23 Frame(CFA_Y, -12)
        CFI (cfiCond411) R0 Frame(CFA_Y, -11)
        CFI (cfiCond411) R1 Frame(CFA_Y, -10)
        CFI (cfiCond411) R2 Frame(CFA_Y, -9)
        CFI (cfiCond411) R3 Frame(CFA_Y, -8)
        CFI (cfiCond411) R30 Frame(CFA_Y, -7)
        CFI (cfiCond411) R31 Frame(CFA_Y, -6)
        CFI (cfiCond411) R24 Frame(CFA_Y, -5)
        CFI (cfiCond411) R25 Frame(CFA_Y, -4)
        CFI (cfiCond411) R26 Frame(CFA_Y, -3)
        CFI (cfiCond411) R27 Frame(CFA_Y, -2)
        CFI (cfiCond411) R4 Frame(CFA_Y, -1)
        CFI (cfiCond411) CFA_SP SP+6
        CFI (cfiCond411) CFA_Y Y+19
        CFI Block cfiCond412 Using cfiCommon2
        CFI (cfiCond412) NoFunction
        CFI (cfiCond412) Conditional ??CrossCallReturnLabel_239
        CFI (cfiCond412) R16 Frame(CFA_Y, -19)
        CFI (cfiCond412) R17 Frame(CFA_Y, -18)
        CFI (cfiCond412) R18 Frame(CFA_Y, -17)
        CFI (cfiCond412) R19 Frame(CFA_Y, -16)
        CFI (cfiCond412) R20 Frame(CFA_Y, -15)
        CFI (cfiCond412) R21 Frame(CFA_Y, -14)
        CFI (cfiCond412) R22 Frame(CFA_Y, -13)
        CFI (cfiCond412) R23 Frame(CFA_Y, -12)
        CFI (cfiCond412) R0 Frame(CFA_Y, -11)
        CFI (cfiCond412) R1 Frame(CFA_Y, -10)
        CFI (cfiCond412) R2 Frame(CFA_Y, -9)
        CFI (cfiCond412) R3 Frame(CFA_Y, -8)
        CFI (cfiCond412) R30 Frame(CFA_Y, -7)
        CFI (cfiCond412) R31 Frame(CFA_Y, -6)
        CFI (cfiCond412) R24 Frame(CFA_Y, -5)
        CFI (cfiCond412) R25 Frame(CFA_Y, -4)
        CFI (cfiCond412) R26 Frame(CFA_Y, -3)
        CFI (cfiCond412) R27 Frame(CFA_Y, -2)
        CFI (cfiCond412) R4 Frame(CFA_Y, -1)
        CFI (cfiCond412) CFA_SP SP+6
        CFI (cfiCond412) CFA_Y Y+19
        CFI Block cfiCond413 Using cfiCommon2
        CFI (cfiCond413) NoFunction
        CFI (cfiCond413) Conditional ??CrossCallReturnLabel_240
        CFI (cfiCond413) R16 Frame(CFA_Y, -7)
        CFI (cfiCond413) R17 Frame(CFA_Y, -6)
        CFI (cfiCond413) R18 Frame(CFA_Y, -5)
        CFI (cfiCond413) R30 Frame(CFA_Y, -4)
        CFI (cfiCond413) R31 Frame(CFA_Y, -3)
        CFI (cfiCond413) R26 Frame(CFA_Y, -2)
        CFI (cfiCond413) R27 Frame(CFA_Y, -1)
        CFI (cfiCond413) CFA_SP SP+6
        CFI (cfiCond413) CFA_Y Y+7
??Subroutine32_0:
        LD	R16, Z
        LDD	R17, Z+1
        RJMP	?Subroutine98
        CFI EndBlock cfiCond400
        CFI EndBlock cfiCond401
        CFI EndBlock cfiPicker402
        CFI EndBlock cfiCond403
        CFI EndBlock cfiCond404
        CFI EndBlock cfiCond405
        CFI EndBlock cfiCond406
        CFI EndBlock cfiCond407
        CFI EndBlock cfiCond408
        CFI EndBlock cfiCond409
        CFI EndBlock cfiCond410
        CFI EndBlock cfiCond411
        CFI EndBlock cfiCond412
        CFI EndBlock cfiCond413
// 1710 ///////////////////////////////////////////////////////////////////////////////////////////////////////////////////
// 1711 /*
// 1712 #pragma vector=ADC_vect
// 1713  __interrupt  void ADC_interrupt(void)
// 1714  { 
// 1715   // temperatura=ADC;
// 1716 
// 1717    fl_wdt.from_adc=1;
// 1718    
// 1719   //  __enable_interrupt();
// 1720    
// 1721    count_summa_temperatura++;
// 1722    summa_temperatura=summa_temperatura+ADC;
// 1723    
// 1724        if(count_summa_temperatura>=1024)
// 1725           {
// 1726           count_summa_temperatura=0;
// 1727           temperatura=summa_temperatura>>10;
// 1728           summa_temperatura=0;
// 1729         }  
// 1730        
// 1731        ADCSRA=ADCSRA | 0x47;       
// 1732  }
// 1733 
// 1734 */
// 1735 
// 1736 
// 1737 #pragma vector=ADC_vect

        RSEG CODE:CODE:NOROOT(1)
// 1738  __interrupt  void ADC_interrupt(void)
ADC_interrupt:
        CFI Block cfiBlock414 Using cfiCommon2
        CFI Function ADC_interrupt
// 1739  { 
        ST	-Y, R7
        CFI R7 Frame(CFA_Y, -1)
        CFI CFA_Y Y+1
        RCALL	?Subroutine25
        CFI R26 Frame(CFA_Y, -6)
        CFI R27 Frame(CFA_Y, -5)
        CFI R4 Frame(CFA_Y, -4)
        CFI R5 Frame(CFA_Y, -3)
        CFI R6 Frame(CFA_Y, -2)
        CFI CFA_Y Y+6
??CrossCallReturnLabel_52:
        RCALL	?Subroutine21
        CFI R16 Frame(CFA_Y, -20)
        CFI R17 Frame(CFA_Y, -19)
        CFI R18 Frame(CFA_Y, -18)
        CFI R19 Frame(CFA_Y, -17)
        CFI R20 Frame(CFA_Y, -16)
        CFI R21 Frame(CFA_Y, -15)
        CFI R22 Frame(CFA_Y, -14)
        CFI R23 Frame(CFA_Y, -13)
        CFI R0 Frame(CFA_Y, -12)
        CFI R1 Frame(CFA_Y, -11)
        CFI R2 Frame(CFA_Y, -10)
        CFI R3 Frame(CFA_Y, -9)
        CFI R30 Frame(CFA_Y, -8)
        CFI R31 Frame(CFA_Y, -7)
        CFI CFA_Y Y+20
??CrossCallReturnLabel_42:
        IN	R3, 0x3F
        REQUIRE	?Register_R4_is_cg_reg
        REQUIRE	?Register_R5_is_cg_reg
        REQUIRE	?Register_R6_is_cg_reg
        REQUIRE	?Register_R7_is_cg_reg
// 1740  char i;
// 1741 //ňđč çŕěĺđŕ ęŕćäűé çŕěĺđ ďî ęŕíŕëó ÷ĺđĺç 115 ěńĺę
// 1742 // 1/11059200 *13*128*256*3=115 msec
// 1743  
// 1744    fl_wdt.from_adc=1;   
        RCALL	?Subroutine26
??CrossCallReturnLabel_58:
        ORI	R16, 0x40
        ST	Z, R16
// 1745     
// 1746    i = ADMUX;
        LDS	R16, 124
// 1747    i = i & 0x07; 
        ANDI	R16, 0x07
// 1748    count_summa_adc[i]++;
        MOV	R22, R16
        LDI	R23, 0
        LDI	R26, LOW(summa_adc)
        LDI	R27, (summa_adc) >> 8
        MOVW	R19:R18, R27:R26
        ADD	R18, R16
        ADC	R19, R23
        MOVW	R31:R30, R19:R18
        LDD	R17, Z+16
        INC	R17
        STD	Z+16, R17
// 1749    summa_adc[i]=summa_adc[i]+ADC;
        LSL	R22
        LSL	R22
        MOVW	R21:R20, R27:R26
        ADD	R20, R22
        ADC	R21, R23
        LDS	R0, 120
        LDS	R1, 121
        MOVW	R31:R30, R21:R20
        LD	R4, Z
        LDD	R5, Z+1
        LDD	R6, Z+2
        LDD	R7, Z+3
        ADD	R4, R0
        ADC	R5, R1
        ADC	R6, R23
        ADC	R7, R23
        ST	Z, R4
        STD	Z+1, R5
        STD	Z+2, R6
        STD	Z+3, R7
// 1750    
// 1751    if(count_summa_adc[i]==0)
        MOVW	R31:R30, R19:R18
        LDD	R17, Z+16
        TST	R17
        BRNE	??ADC_interrupt_0
// 1752       {
// 1753         if(i==0) {modbus_mem1[AD_TEMP]=summa_adc[0]>>8;temperatura=modbus_mem1[AD_TEMP];}
        LDI	R18, LOW(modbus_mem1)
        LDI	R19, (modbus_mem1) >> 8
        TST	R16
        BRNE	??ADC_interrupt_1
        ADIW	R27:R26, 1
        LD	R1, X+
        LD	R2, X+
        MOVW	R31:R30, R19:R18
        STD	Z+38, R1
        STD	Z+39, R2
        LDI	R30, LOW(temperatura)
        LDI	R31, (temperatura) >> 8
        ST	Z, R1
        STD	Z+1, R2
        RJMP	??ADC_interrupt_2
// 1754         else
// 1755             if(i==1) modbus_mem1[AD_TIT1]=summa_adc[1]>>8; 
??ADC_interrupt_1:
        CPI	R16, 1
        MOVW	R31:R30, R27:R26
        BRNE	??ADC_interrupt_3
        LDD	R0, Z+5
        LDD	R1, Z+6
        MOVW	R31:R30, R19:R18
        STD	Z+32, R0
        STD	Z+33, R1
        RJMP	??ADC_interrupt_2
// 1756                      else modbus_mem1[AD_TIT1+1]=summa_adc[3]>>8;
??ADC_interrupt_3:
        LDD	R0, Z+13
        LDD	R1, Z+14
        MOVW	R31:R30, R19:R18
        STD	Z+34, R0
        STD	Z+35, R1
// 1757       
// 1758        summa_adc[i]=0;
??ADC_interrupt_2:
        MOVW	R31:R30, R21:R20
        ST	Z, R23
        STD	Z+1, R23
        STD	Z+2, R23
        STD	Z+3, R23
// 1759       }
// 1760    
// 1761    if ( i<3 )
??ADC_interrupt_0:
        CPI	R16, 3
        BRCC	??ADC_interrupt_4
// 1762       {
// 1763       
// 1764       i++;
        INC	R16
// 1765       if(i==2)i=3;
        CPI	R16, 2
        BRNE	??ADC_interrupt_5
        LDI	R16, 3
// 1766       
// 1767       ADCSRB=0x08;
??ADC_interrupt_5:
        LDI	R17, 8
        STS	123, R17
// 1768       ADMUX =(ADMUX & (~0x07)) | i;
        LDS	R17, 124
        ANDI	R17, 0xF8
        OR	R17, R16
        STS	124, R17
// 1769       ADCSRA =ADCSRA | 0x47;
        RJMP	??ADC_interrupt_6
// 1770       }
// 1771     else 
// 1772           {
// 1773           ADCSRB=0;       
??ADC_interrupt_4:
        STS	123, R23
// 1774           ADMUX=0x40;  
        LDI	R16, 64
        STS	124, R16
// 1775           ADCSRA =ADCSRA | 0x47;
??ADC_interrupt_6:
        LDS	R16, 122
        ORI	R16, 0x47
        STS	122, R16
// 1776           }
// 1777        
// 1778  }
        OUT	0x3F, R3
        RCALL	?Subroutine57
        CFI R0 SameValue
        CFI R1 SameValue
        CFI R16 SameValue
        CFI R17 SameValue
        CFI R18 SameValue
        CFI R19 SameValue
        CFI R2 SameValue
        CFI R20 SameValue
        CFI R21 SameValue
        CFI R22 SameValue
        CFI R23 SameValue
        CFI R3 SameValue
        CFI R30 SameValue
        CFI R31 SameValue
        CFI CFA_Y Y+6
??CrossCallReturnLabel_186:
        RCALL	?Subroutine61
        CFI R26 SameValue
        CFI R27 SameValue
        CFI R4 SameValue
        CFI R5 SameValue
        CFI R6 SameValue
        CFI CFA_Y Y+1
??CrossCallReturnLabel_132:
        LD	R7, Y+
        CFI R7 SameValue
        CFI CFA_Y Y+0
        RETI
        CFI EndBlock cfiBlock414

        RSEG CODE:CODE:NOROOT(1)
?Subroutine61:
        CFI Block cfiCond415 Using cfiCommon2
        CFI NoFunction
        CFI Conditional ??CrossCallReturnLabel_131
        CFI R26 Frame(CFA_Y, -5)
        CFI R27 Frame(CFA_Y, -4)
        CFI R4 Frame(CFA_Y, -3)
        CFI R5 Frame(CFA_Y, -2)
        CFI R6 Frame(CFA_Y, -1)
        CFI CFA_SP SP+6
        CFI CFA_Y Y+5
        CFI Block cfiCond416 Using cfiCommon2
        CFI (cfiCond416) NoFunction
        CFI (cfiCond416) Conditional ??CrossCallReturnLabel_132
        CFI (cfiCond416) R26 Frame(CFA_Y, -6)
        CFI (cfiCond416) R27 Frame(CFA_Y, -5)
        CFI (cfiCond416) R4 Frame(CFA_Y, -4)
        CFI (cfiCond416) R5 Frame(CFA_Y, -3)
        CFI (cfiCond416) R6 Frame(CFA_Y, -2)
        CFI (cfiCond416) R7 Frame(CFA_Y, -1)
        CFI (cfiCond416) CFA_SP SP+6
        CFI (cfiCond416) CFA_Y Y+6
        CFI Block cfiPicker417 Using cfiCommon1
        CFI (cfiPicker417) NoFunction
        CFI (cfiPicker417) Picker
        LD	R26, Y+
        CFI (cfiCond415) R26 SameValue
        CFI (cfiCond415) CFA_Y Y+4
        CFI (cfiCond416) R26 SameValue
        CFI (cfiCond416) CFA_Y Y+5
        LD	R27, Y+
        CFI (cfiCond415) R27 SameValue
        CFI (cfiCond415) CFA_Y Y+3
        CFI (cfiCond416) R27 SameValue
        CFI (cfiCond416) CFA_Y Y+4
        LD	R4, Y+
        CFI (cfiCond415) R4 SameValue
        CFI (cfiCond415) CFA_Y Y+2
        CFI (cfiCond416) R4 SameValue
        CFI (cfiCond416) CFA_Y Y+3
        LD	R5, Y+
        CFI (cfiCond415) R5 SameValue
        CFI (cfiCond415) CFA_Y Y+1
        CFI (cfiCond416) R5 SameValue
        CFI (cfiCond416) CFA_Y Y+2
        LD	R6, Y+
        CFI (cfiCond415) R6 SameValue
        CFI (cfiCond415) CFA_Y Y+0
        CFI (cfiCond416) R6 SameValue
        CFI (cfiCond416) CFA_Y Y+1
        RET
        CFI EndBlock cfiCond415
        CFI EndBlock cfiCond416
        CFI EndBlock cfiPicker417

        RSEG CODE:CODE:NOROOT(1)
?Subroutine57:
        CFI Block cfiCond418 Using cfiCommon2
        CFI NoFunction
        CFI Conditional ??CrossCallReturnLabel_185
        CFI R16 Frame(CFA_Y, -21)
        CFI R17 Frame(CFA_Y, -20)
        CFI R18 Frame(CFA_Y, -19)
        CFI R19 Frame(CFA_Y, -18)
        CFI R20 Frame(CFA_Y, -17)
        CFI R21 Frame(CFA_Y, -16)
        CFI R22 Frame(CFA_Y, -15)
        CFI R23 Frame(CFA_Y, -14)
        CFI R0 Frame(CFA_Y, -13)
        CFI R1 Frame(CFA_Y, -12)
        CFI R2 Frame(CFA_Y, -11)
        CFI R3 Frame(CFA_Y, -10)
        CFI R30 Frame(CFA_Y, -9)
        CFI R31 Frame(CFA_Y, -8)
        CFI R24 Frame(CFA_Y, -7)
        CFI R25 Frame(CFA_Y, -6)
        CFI R26 Frame(CFA_Y, -5)
        CFI R27 Frame(CFA_Y, -4)
        CFI R4 Frame(CFA_Y, -3)
        CFI R5 Frame(CFA_Y, -2)
        CFI R6 Frame(CFA_Y, -1)
        CFI CFA_SP SP+6
        CFI CFA_Y Y+21
        CFI Block cfiCond419 Using cfiCommon2
        CFI (cfiCond419) NoFunction
        CFI (cfiCond419) Conditional ??CrossCallReturnLabel_186
        CFI (cfiCond419) R16 Frame(CFA_Y, -20)
        CFI (cfiCond419) R17 Frame(CFA_Y, -19)
        CFI (cfiCond419) R18 Frame(CFA_Y, -18)
        CFI (cfiCond419) R19 Frame(CFA_Y, -17)
        CFI (cfiCond419) R20 Frame(CFA_Y, -16)
        CFI (cfiCond419) R21 Frame(CFA_Y, -15)
        CFI (cfiCond419) R22 Frame(CFA_Y, -14)
        CFI (cfiCond419) R23 Frame(CFA_Y, -13)
        CFI (cfiCond419) R0 Frame(CFA_Y, -12)
        CFI (cfiCond419) R1 Frame(CFA_Y, -11)
        CFI (cfiCond419) R2 Frame(CFA_Y, -10)
        CFI (cfiCond419) R3 Frame(CFA_Y, -9)
        CFI (cfiCond419) R30 Frame(CFA_Y, -8)
        CFI (cfiCond419) R31 Frame(CFA_Y, -7)
        CFI (cfiCond419) R26 Frame(CFA_Y, -6)
        CFI (cfiCond419) R27 Frame(CFA_Y, -5)
        CFI (cfiCond419) R4 Frame(CFA_Y, -4)
        CFI (cfiCond419) R5 Frame(CFA_Y, -3)
        CFI (cfiCond419) R6 Frame(CFA_Y, -2)
        CFI (cfiCond419) R7 Frame(CFA_Y, -1)
        CFI (cfiCond419) CFA_SP SP+6
        CFI (cfiCond419) CFA_Y Y+20
        CFI Block cfiPicker420 Using cfiCommon1
        CFI (cfiPicker420) NoFunction
        CFI (cfiPicker420) Picker
        LD	R16, Y+
        CFI (cfiCond418) R16 SameValue
        CFI (cfiCond418) CFA_Y Y+20
        CFI (cfiCond419) R16 SameValue
        CFI (cfiCond419) CFA_Y Y+19
        LD	R17, Y+
        CFI (cfiCond418) R17 SameValue
        CFI (cfiCond418) CFA_Y Y+19
        CFI (cfiCond419) R17 SameValue
        CFI (cfiCond419) CFA_Y Y+18
        LD	R18, Y+
        CFI (cfiCond418) R18 SameValue
        CFI (cfiCond418) CFA_Y Y+18
        CFI (cfiCond419) R18 SameValue
        CFI (cfiCond419) CFA_Y Y+17
        LD	R19, Y+
        CFI (cfiCond418) R19 SameValue
        CFI (cfiCond418) CFA_Y Y+17
        CFI (cfiCond419) R19 SameValue
        CFI (cfiCond419) CFA_Y Y+16
        LD	R20, Y+
        CFI (cfiCond418) R20 SameValue
        CFI (cfiCond418) CFA_Y Y+16
        CFI (cfiCond419) R20 SameValue
        CFI (cfiCond419) CFA_Y Y+15
        LD	R21, Y+
        CFI (cfiCond418) R21 SameValue
        CFI (cfiCond418) CFA_Y Y+15
        CFI (cfiCond419) R21 SameValue
        CFI (cfiCond419) CFA_Y Y+14
        LD	R22, Y+
        CFI (cfiCond418) R22 SameValue
        CFI (cfiCond418) CFA_Y Y+14
        CFI (cfiCond419) R22 SameValue
        CFI (cfiCond419) CFA_Y Y+13
        LD	R23, Y+
        CFI (cfiCond418) R23 SameValue
        CFI (cfiCond418) CFA_Y Y+13
        CFI (cfiCond419) R23 SameValue
        CFI (cfiCond419) CFA_Y Y+12
        LD	R0, Y+
        CFI (cfiCond418) R0 SameValue
        CFI (cfiCond418) CFA_Y Y+12
        CFI (cfiCond419) R0 SameValue
        CFI (cfiCond419) CFA_Y Y+11
        LD	R1, Y+
        CFI (cfiCond418) R1 SameValue
        CFI (cfiCond418) CFA_Y Y+11
        CFI (cfiCond419) R1 SameValue
        CFI (cfiCond419) CFA_Y Y+10
        LD	R2, Y+
        CFI (cfiCond418) R2 SameValue
        CFI (cfiCond418) CFA_Y Y+10
        CFI (cfiCond419) R2 SameValue
        CFI (cfiCond419) CFA_Y Y+9
        LD	R3, Y+
        CFI EndBlock cfiCond418
        CFI EndBlock cfiCond419
        CFI EndBlock cfiPicker420
        REQUIRE ?Subroutine91
        ;		// Fall through to label ?Subroutine91

        RSEG CODE:CODE:NOROOT(1)
?Subroutine91:
        CFI Block cfiCond421 Using cfiCommon2
        CFI NoFunction
        CFI Conditional ??CrossCallReturnLabel_185
        CFI R30 Frame(CFA_Y, -9)
        CFI R31 Frame(CFA_Y, -8)
        CFI R24 Frame(CFA_Y, -7)
        CFI R25 Frame(CFA_Y, -6)
        CFI R26 Frame(CFA_Y, -5)
        CFI R27 Frame(CFA_Y, -4)
        CFI R4 Frame(CFA_Y, -3)
        CFI R5 Frame(CFA_Y, -2)
        CFI R6 Frame(CFA_Y, -1)
        CFI CFA_SP SP+6
        CFI CFA_Y Y+9
        CFI Block cfiCond422 Using cfiCommon2
        CFI (cfiCond422) NoFunction
        CFI (cfiCond422) Conditional ??CrossCallReturnLabel_186
        CFI (cfiCond422) R30 Frame(CFA_Y, -8)
        CFI (cfiCond422) R31 Frame(CFA_Y, -7)
        CFI (cfiCond422) R26 Frame(CFA_Y, -6)
        CFI (cfiCond422) R27 Frame(CFA_Y, -5)
        CFI (cfiCond422) R4 Frame(CFA_Y, -4)
        CFI (cfiCond422) R5 Frame(CFA_Y, -3)
        CFI (cfiCond422) R6 Frame(CFA_Y, -2)
        CFI (cfiCond422) R7 Frame(CFA_Y, -1)
        CFI (cfiCond422) CFA_SP SP+6
        CFI (cfiCond422) CFA_Y Y+8
        CFI Block cfiCond423 Using cfiCommon2
        CFI (cfiCond423) NoFunction
        CFI (cfiCond423) Conditional ??CrossCallReturnLabel_187
        CFI (cfiCond423) R30 Frame(CFA_Y, -4)
        CFI (cfiCond423) R31 Frame(CFA_Y, -3)
        CFI (cfiCond423) R26 Frame(CFA_Y, -2)
        CFI (cfiCond423) R27 Frame(CFA_Y, -1)
        CFI (cfiCond423) CFA_SP SP+6
        CFI (cfiCond423) CFA_Y Y+4
        CFI Block cfiCond424 Using cfiCommon2
        CFI (cfiCond424) NoFunction
        CFI (cfiCond424) Conditional ??CrossCallReturnLabel_188
        CFI (cfiCond424) R30 Frame(CFA_Y, -2)
        CFI (cfiCond424) R31 Frame(CFA_Y, -1)
        CFI (cfiCond424) CFA_SP SP+6
        CFI (cfiCond424) CFA_Y Y+2
        CFI Block cfiPicker425 Using cfiCommon1
        CFI (cfiPicker425) NoFunction
        CFI (cfiPicker425) Picker
        LD	R30, Y+
        CFI (cfiCond421) R30 SameValue
        CFI (cfiCond421) CFA_Y Y+8
        CFI (cfiCond422) R30 SameValue
        CFI (cfiCond422) CFA_Y Y+7
        CFI (cfiCond423) R30 SameValue
        CFI (cfiCond423) CFA_Y Y+3
        CFI (cfiCond424) R30 SameValue
        CFI (cfiCond424) CFA_Y Y+1
        LD	R31, Y+
        CFI (cfiCond421) R31 SameValue
        CFI (cfiCond421) CFA_Y Y+7
        CFI (cfiCond422) R31 SameValue
        CFI (cfiCond422) CFA_Y Y+6
        CFI (cfiCond423) R31 SameValue
        CFI (cfiCond423) CFA_Y Y+2
        CFI (cfiCond424) R31 SameValue
        CFI (cfiCond424) CFA_Y Y+0
        RET
        CFI EndBlock cfiCond421
        CFI EndBlock cfiCond422
        CFI EndBlock cfiCond423
        CFI EndBlock cfiCond424
        CFI EndBlock cfiPicker425

        RSEG CODE:CODE:NOROOT(1)
?Subroutine21:
        CFI Block cfiCond426 Using cfiCommon2
        CFI NoFunction
        CFI Conditional ??CrossCallReturnLabel_41
        CFI R24 Frame(CFA_Y, -7)
        CFI R25 Frame(CFA_Y, -6)
        CFI R26 Frame(CFA_Y, -5)
        CFI R27 Frame(CFA_Y, -4)
        CFI R4 Frame(CFA_Y, -3)
        CFI R5 Frame(CFA_Y, -2)
        CFI R6 Frame(CFA_Y, -1)
        CFI CFA_SP SP+6
        CFI CFA_Y Y+7
        CFI Block cfiCond427 Using cfiCommon2
        CFI (cfiCond427) NoFunction
        CFI (cfiCond427) Conditional ??CrossCallReturnLabel_42
        CFI (cfiCond427) R26 Frame(CFA_Y, -6)
        CFI (cfiCond427) R27 Frame(CFA_Y, -5)
        CFI (cfiCond427) R4 Frame(CFA_Y, -4)
        CFI (cfiCond427) R5 Frame(CFA_Y, -3)
        CFI (cfiCond427) R6 Frame(CFA_Y, -2)
        CFI (cfiCond427) R7 Frame(CFA_Y, -1)
        CFI (cfiCond427) CFA_SP SP+6
        CFI (cfiCond427) CFA_Y Y+6
        CFI Block cfiPicker428 Using cfiCommon1
        CFI (cfiPicker428) NoFunction
        CFI (cfiPicker428) Picker
        ST	-Y, R31
        CFI (cfiCond426) R31 Frame(CFA_Y, -8)
        CFI (cfiCond426) CFA_Y Y+8
        CFI (cfiCond427) R31 Frame(CFA_Y, -7)
        CFI (cfiCond427) CFA_Y Y+7
        CFI (cfiPicker428) R31 Frame(CFA_Y, -8)
        ST	-Y, R30
        CFI (cfiCond426) R30 Frame(CFA_Y, -9)
        CFI (cfiCond426) CFA_Y Y+9
        CFI (cfiCond427) R30 Frame(CFA_Y, -8)
        CFI (cfiCond427) CFA_Y Y+8
        CFI (cfiPicker428) R30 Frame(CFA_Y, -9)
        ST	-Y, R3
        CFI (cfiCond426) R3 Frame(CFA_Y, -10)
        CFI (cfiCond426) CFA_Y Y+10
        CFI (cfiCond427) R3 Frame(CFA_Y, -9)
        CFI (cfiCond427) CFA_Y Y+9
        CFI (cfiPicker428) R3 Frame(CFA_Y, -10)
        ST	-Y, R2
        CFI (cfiCond426) R2 Frame(CFA_Y, -11)
        CFI (cfiCond426) CFA_Y Y+11
        CFI (cfiCond427) R2 Frame(CFA_Y, -10)
        CFI (cfiCond427) CFA_Y Y+10
        CFI (cfiPicker428) R2 Frame(CFA_Y, -11)
        ST	-Y, R1
        CFI (cfiCond426) R1 Frame(CFA_Y, -12)
        CFI (cfiCond426) CFA_Y Y+12
        CFI (cfiCond427) R1 Frame(CFA_Y, -11)
        CFI (cfiCond427) CFA_Y Y+11
        CFI (cfiPicker428) R1 Frame(CFA_Y, -12)
        ST	-Y, R0
        CFI (cfiCond426) R0 Frame(CFA_Y, -13)
        CFI (cfiCond426) CFA_Y Y+13
        CFI (cfiCond427) R0 Frame(CFA_Y, -12)
        CFI (cfiCond427) CFA_Y Y+12
        CFI (cfiPicker428) R0 Frame(CFA_Y, -13)
        ST	-Y, R23
        CFI (cfiCond426) R23 Frame(CFA_Y, -14)
        CFI (cfiCond426) CFA_Y Y+14
        CFI (cfiCond427) R23 Frame(CFA_Y, -13)
        CFI (cfiCond427) CFA_Y Y+13
        CFI (cfiPicker428) R23 Frame(CFA_Y, -14)
        ST	-Y, R22
        CFI (cfiCond426) R22 Frame(CFA_Y, -15)
        CFI (cfiCond426) CFA_Y Y+15
        CFI (cfiCond427) R22 Frame(CFA_Y, -14)
        CFI (cfiCond427) CFA_Y Y+14
        CFI (cfiPicker428) R22 Frame(CFA_Y, -15)
        ST	-Y, R21
        CFI (cfiCond426) R21 Frame(CFA_Y, -16)
        CFI (cfiCond426) CFA_Y Y+16
        CFI (cfiCond427) R21 Frame(CFA_Y, -15)
        CFI (cfiCond427) CFA_Y Y+15
        CFI (cfiPicker428) R21 Frame(CFA_Y, -16)
        ST	-Y, R20
        CFI (cfiCond426) R20 Frame(CFA_Y, -17)
        CFI (cfiCond426) CFA_Y Y+17
        CFI (cfiCond427) R20 Frame(CFA_Y, -16)
        CFI (cfiCond427) CFA_Y Y+16
        CFI (cfiPicker428) R20 Frame(CFA_Y, -17)
        ST	-Y, R19
        CFI (cfiCond426) R19 Frame(CFA_Y, -18)
        CFI (cfiCond426) CFA_Y Y+18
        CFI (cfiCond427) R19 Frame(CFA_Y, -17)
        CFI (cfiCond427) CFA_Y Y+17
        CFI (cfiPicker428) R19 Frame(CFA_Y, -18)
        ST	-Y, R18
        CFI (cfiCond426) R18 Frame(CFA_Y, -19)
        CFI (cfiCond426) CFA_Y Y+19
        CFI (cfiCond427) R18 Frame(CFA_Y, -18)
        CFI (cfiCond427) CFA_Y Y+18
        CFI (cfiPicker428) R18 Frame(CFA_Y, -19)
        ST	-Y, R17
        CFI (cfiCond426) R17 Frame(CFA_Y, -20)
        CFI (cfiCond426) CFA_Y Y+20
        CFI (cfiCond427) R17 Frame(CFA_Y, -19)
        CFI (cfiCond427) CFA_Y Y+19
        CFI (cfiPicker428) R17 Frame(CFA_Y, -20)
        ST	-Y, R16
        CFI (cfiCond426) R16 Frame(CFA_Y, -21)
        CFI (cfiCond426) CFA_Y Y+21
        CFI (cfiCond427) R16 Frame(CFA_Y, -20)
        CFI (cfiCond427) CFA_Y Y+20
        CFI (cfiPicker428) R16 Frame(CFA_Y, -21)
        RET
        CFI EndBlock cfiCond426
        CFI EndBlock cfiCond427
        CFI EndBlock cfiPicker428
// 1779 
// 1780 
// 1781 
// 1782 
// 1783 
// 1784 
// 1785 
// 1786 
// 1787 
// 1788 
// 1789 
// 1790 
// 1791 
// 1792 
// 1793 
// 1794 
// 1795 
// 1796 
// 1797 #pragma vector=PCINT2_vect

        RSEG CODE:CODE:NOROOT(1)
// 1798  __interrupt  void PCINT2_interrupt(void)
PCINT2_interrupt:
        CFI Block cfiBlock429 Using cfiCommon2
        CFI Function PCINT2_interrupt
// 1799  {   
        RCALL	?Subroutine24
        CFI R16 Frame(CFA_Y, -7)
        CFI R17 Frame(CFA_Y, -6)
        CFI R18 Frame(CFA_Y, -5)
        CFI R19 Frame(CFA_Y, -4)
        CFI R20 Frame(CFA_Y, -3)
        CFI R30 Frame(CFA_Y, -2)
        CFI R31 Frame(CFA_Y, -1)
        CFI CFA_Y Y+7
// 1800   
// 1801    if(sel_modul!=1)
??CrossCallReturnLabel_48:
        LDS	R16, sel_modul
        CPI	R16, 1
        LDS	R16, 262
        BREQ	??PCINT2_interrupt_0
// 1802    {
// 1803    if(PINK & IO1) modbus_mem1[AD_TS]=modbus_mem1[AD_TS] & (~0x01);  
        LDI	R30, LOW(modbus_mem1)
        LDI	R31, (modbus_mem1) >> 8
        SBRS	R16, 7
        RJMP	??PCINT2_interrupt_1
        LDD	R16, Z+48
        ANDI	R16, 0xFE
        STD	Z+48, R16
        RJMP	??PCINT2_interrupt_2
// 1804     else 
// 1805     {
// 1806      modbus_mem1[AD_TS]=modbus_mem1[AD_TS] | 0x01;  
??PCINT2_interrupt_1:
        LDD	R16, Z+48
        ORI	R16, 0x01
        STD	Z+48, R16
// 1807     // cnt_tii[0]++;
// 1808     // modbus_mem1[0]=cnt_tii[0];
// 1809      modbus_mem1[AD_TII1]++;
        RCALL	?Subroutine29
// 1810      arr_tii_32[0]++;
??CrossCallReturnLabel_184:
        LDI	R30, LOW(arr_tii_32)
        LDI	R31, (arr_tii_32) >> 8
        RCALL	?Subroutine30
??CrossCallReturnLabel_62:
        RJMP	??PCINT2_interrupt_2
// 1811     }
// 1812    }
// 1813    else
// 1814    {
// 1815      if((PINK & TCH_I)!=0)return;
??PCINT2_interrupt_0:
        SBRC	R16, 7
        RJMP	??PCINT2_interrupt_2
// 1816      bit_registr1=bit_registr1 | DS_DETECT;
        LDI	R30, LOW(bit_registr1)
        LDI	R31, (bit_registr1) >> 8
        RCALL	?Subroutine33
// 1817     // EIMSK=EIMSK & ~ 0x02;    // disable myself
// 1818      PCMSK2=PCMSK2 & ~0x80;
??CrossCallReturnLabel_68:
        LDS	R16, 109
        ANDI	R16, 0x7F
        STS	109, R16
??PCINT2_interrupt_2:
        RCALL	?Subroutine60
        CFI R16 SameValue
        CFI R17 SameValue
        CFI R18 SameValue
        CFI R19 SameValue
        CFI R20 SameValue
        CFI R30 SameValue
        CFI R31 SameValue
        CFI CFA_Y Y+0
??CrossCallReturnLabel_188:
        RETI
        CFI EndBlock cfiBlock429
// 1819    }
// 1820     
// 1821  }

        RSEG CODE:CODE:NOROOT(1)
?Subroutine60:
        CFI Block cfiCond430 Using cfiCommon2
        CFI NoFunction
        CFI Conditional ??CrossCallReturnLabel_187
        CFI R16 Frame(CFA_Y, -9)
        CFI R17 Frame(CFA_Y, -8)
        CFI R18 Frame(CFA_Y, -7)
        CFI R19 Frame(CFA_Y, -6)
        CFI R20 Frame(CFA_Y, -5)
        CFI R30 Frame(CFA_Y, -4)
        CFI R31 Frame(CFA_Y, -3)
        CFI R26 Frame(CFA_Y, -2)
        CFI R27 Frame(CFA_Y, -1)
        CFI CFA_SP SP+6
        CFI CFA_Y Y+9
        CFI Block cfiCond431 Using cfiCommon2
        CFI (cfiCond431) NoFunction
        CFI (cfiCond431) Conditional ??CrossCallReturnLabel_188
        CFI (cfiCond431) R16 Frame(CFA_Y, -7)
        CFI (cfiCond431) R17 Frame(CFA_Y, -6)
        CFI (cfiCond431) R18 Frame(CFA_Y, -5)
        CFI (cfiCond431) R19 Frame(CFA_Y, -4)
        CFI (cfiCond431) R20 Frame(CFA_Y, -3)
        CFI (cfiCond431) R30 Frame(CFA_Y, -2)
        CFI (cfiCond431) R31 Frame(CFA_Y, -1)
        CFI (cfiCond431) CFA_SP SP+6
        CFI (cfiCond431) CFA_Y Y+7
        CFI Block cfiPicker432 Using cfiCommon1
        CFI (cfiPicker432) NoFunction
        CFI (cfiPicker432) Picker
        OUT	0x3F, R20
        LD	R16, Y+
        CFI (cfiCond430) R16 SameValue
        CFI (cfiCond430) CFA_Y Y+8
        CFI (cfiCond431) R16 SameValue
        CFI (cfiCond431) CFA_Y Y+6
        LD	R17, Y+
        CFI (cfiCond430) R17 SameValue
        CFI (cfiCond430) CFA_Y Y+7
        CFI (cfiCond431) R17 SameValue
        CFI (cfiCond431) CFA_Y Y+5
        LD	R18, Y+
        CFI (cfiCond430) R18 SameValue
        CFI (cfiCond430) CFA_Y Y+6
        CFI (cfiCond431) R18 SameValue
        CFI (cfiCond431) CFA_Y Y+4
        LD	R19, Y+
        CFI (cfiCond430) R19 SameValue
        CFI (cfiCond430) CFA_Y Y+5
        CFI (cfiCond431) R19 SameValue
        CFI (cfiCond431) CFA_Y Y+3
        LD	R20, Y+
        CFI (cfiCond430) R20 SameValue
        CFI (cfiCond430) CFA_Y Y+4
        CFI (cfiCond431) R20 SameValue
        CFI (cfiCond431) CFA_Y Y+2
        RJMP	?Subroutine91
        CFI EndBlock cfiCond430
        CFI EndBlock cfiCond431
        CFI EndBlock cfiPicker432

        RSEG CODE:CODE:NOROOT(1)
?Subroutine33:
        CFI Block cfiCond433 Using cfiCommon2
        CFI NoFunction
        CFI Conditional ??CrossCallReturnLabel_65
        CFI R16 Frame(CFA_Y, -19)
        CFI R17 Frame(CFA_Y, -18)
        CFI R18 Frame(CFA_Y, -17)
        CFI R19 Frame(CFA_Y, -16)
        CFI R20 Frame(CFA_Y, -15)
        CFI R21 Frame(CFA_Y, -14)
        CFI R22 Frame(CFA_Y, -13)
        CFI R23 Frame(CFA_Y, -12)
        CFI R0 Frame(CFA_Y, -11)
        CFI R1 Frame(CFA_Y, -10)
        CFI R2 Frame(CFA_Y, -9)
        CFI R3 Frame(CFA_Y, -8)
        CFI R30 Frame(CFA_Y, -7)
        CFI R31 Frame(CFA_Y, -6)
        CFI R24 Frame(CFA_Y, -5)
        CFI R25 Frame(CFA_Y, -4)
        CFI R26 Frame(CFA_Y, -3)
        CFI R27 Frame(CFA_Y, -2)
        CFI R4 Frame(CFA_Y, -1)
        CFI CFA_SP SP+6
        CFI CFA_Y Y+19
        CFI Block cfiCond434 Using cfiCommon2
        CFI (cfiCond434) NoFunction
        CFI (cfiCond434) Conditional ??CrossCallReturnLabel_66
        CFI (cfiCond434) R16 Frame(CFA_Y, -19)
        CFI (cfiCond434) R17 Frame(CFA_Y, -18)
        CFI (cfiCond434) R18 Frame(CFA_Y, -17)
        CFI (cfiCond434) R19 Frame(CFA_Y, -16)
        CFI (cfiCond434) R20 Frame(CFA_Y, -15)
        CFI (cfiCond434) R21 Frame(CFA_Y, -14)
        CFI (cfiCond434) R22 Frame(CFA_Y, -13)
        CFI (cfiCond434) R23 Frame(CFA_Y, -12)
        CFI (cfiCond434) R0 Frame(CFA_Y, -11)
        CFI (cfiCond434) R1 Frame(CFA_Y, -10)
        CFI (cfiCond434) R2 Frame(CFA_Y, -9)
        CFI (cfiCond434) R3 Frame(CFA_Y, -8)
        CFI (cfiCond434) R30 Frame(CFA_Y, -7)
        CFI (cfiCond434) R31 Frame(CFA_Y, -6)
        CFI (cfiCond434) R24 Frame(CFA_Y, -5)
        CFI (cfiCond434) R25 Frame(CFA_Y, -4)
        CFI (cfiCond434) R26 Frame(CFA_Y, -3)
        CFI (cfiCond434) R27 Frame(CFA_Y, -2)
        CFI (cfiCond434) R4 Frame(CFA_Y, -1)
        CFI (cfiCond434) CFA_SP SP+6
        CFI (cfiCond434) CFA_Y Y+19
        CFI Block cfiCond435 Using cfiCommon2
        CFI (cfiCond435) NoFunction
        CFI (cfiCond435) Conditional ??CrossCallReturnLabel_67
        CFI (cfiCond435) R16 Frame(CFA_Y, -19)
        CFI (cfiCond435) R17 Frame(CFA_Y, -18)
        CFI (cfiCond435) R18 Frame(CFA_Y, -17)
        CFI (cfiCond435) R19 Frame(CFA_Y, -16)
        CFI (cfiCond435) R20 Frame(CFA_Y, -15)
        CFI (cfiCond435) R21 Frame(CFA_Y, -14)
        CFI (cfiCond435) R22 Frame(CFA_Y, -13)
        CFI (cfiCond435) R23 Frame(CFA_Y, -12)
        CFI (cfiCond435) R0 Frame(CFA_Y, -11)
        CFI (cfiCond435) R1 Frame(CFA_Y, -10)
        CFI (cfiCond435) R2 Frame(CFA_Y, -9)
        CFI (cfiCond435) R3 Frame(CFA_Y, -8)
        CFI (cfiCond435) R30 Frame(CFA_Y, -7)
        CFI (cfiCond435) R31 Frame(CFA_Y, -6)
        CFI (cfiCond435) R24 Frame(CFA_Y, -5)
        CFI (cfiCond435) R25 Frame(CFA_Y, -4)
        CFI (cfiCond435) R26 Frame(CFA_Y, -3)
        CFI (cfiCond435) R27 Frame(CFA_Y, -2)
        CFI (cfiCond435) R4 Frame(CFA_Y, -1)
        CFI (cfiCond435) CFA_SP SP+6
        CFI (cfiCond435) CFA_Y Y+19
        CFI Block cfiCond436 Using cfiCommon2
        CFI (cfiCond436) NoFunction
        CFI (cfiCond436) Conditional ??CrossCallReturnLabel_68
        CFI (cfiCond436) R16 Frame(CFA_Y, -7)
        CFI (cfiCond436) R17 Frame(CFA_Y, -6)
        CFI (cfiCond436) R18 Frame(CFA_Y, -5)
        CFI (cfiCond436) R19 Frame(CFA_Y, -4)
        CFI (cfiCond436) R20 Frame(CFA_Y, -3)
        CFI (cfiCond436) R30 Frame(CFA_Y, -2)
        CFI (cfiCond436) R31 Frame(CFA_Y, -1)
        CFI (cfiCond436) CFA_SP SP+6
        CFI (cfiCond436) CFA_Y Y+7
        CFI Block cfiPicker437 Using cfiCommon1
        CFI (cfiPicker437) NoFunction
        CFI (cfiPicker437) Picker
        LD	R16, Z
        ORI	R16, 0x04
        ST	Z, R16
        RET
        CFI EndBlock cfiCond433
        CFI EndBlock cfiCond434
        CFI EndBlock cfiCond435
        CFI EndBlock cfiCond436
        CFI EndBlock cfiPicker437

        RSEG CODE:CODE:NOROOT(1)
?Subroutine30:
        CFI Block cfiCond438 Using cfiCommon2
        CFI NoFunction
        CFI Conditional ??CrossCallReturnLabel_61
        CFI R16 Frame(CFA_Y, -17)
        CFI R17 Frame(CFA_Y, -16)
        CFI R18 Frame(CFA_Y, -15)
        CFI R19 Frame(CFA_Y, -14)
        CFI R20 Frame(CFA_Y, -13)
        CFI R21 Frame(CFA_Y, -12)
        CFI R22 Frame(CFA_Y, -11)
        CFI R23 Frame(CFA_Y, -10)
        CFI R0 Frame(CFA_Y, -9)
        CFI R1 Frame(CFA_Y, -8)
        CFI R2 Frame(CFA_Y, -7)
        CFI R3 Frame(CFA_Y, -6)
        CFI R30 Frame(CFA_Y, -5)
        CFI R31 Frame(CFA_Y, -4)
        CFI R24 Frame(CFA_Y, -3)
        CFI R25 Frame(CFA_Y, -2)
        CFI R26 Frame(CFA_Y, -1)
        CFI CFA_SP SP+6
        CFI CFA_Y Y+17
        CFI Block cfiCond439 Using cfiCommon2
        CFI (cfiCond439) NoFunction
        CFI (cfiCond439) Conditional ??CrossCallReturnLabel_62
        CFI (cfiCond439) R16 Frame(CFA_Y, -7)
        CFI (cfiCond439) R17 Frame(CFA_Y, -6)
        CFI (cfiCond439) R18 Frame(CFA_Y, -5)
        CFI (cfiCond439) R19 Frame(CFA_Y, -4)
        CFI (cfiCond439) R20 Frame(CFA_Y, -3)
        CFI (cfiCond439) R30 Frame(CFA_Y, -2)
        CFI (cfiCond439) R31 Frame(CFA_Y, -1)
        CFI (cfiCond439) CFA_SP SP+6
        CFI (cfiCond439) CFA_Y Y+7
        CFI Block cfiPicker440 Using cfiCommon1
        CFI (cfiPicker440) NoFunction
        CFI (cfiPicker440) Picker
        LD	R16, Z
        LDD	R17, Z+1
        LDD	R18, Z+2
        LDD	R19, Z+3
        SUBI	R16, 255
        SBCI	R17, 255
        SBCI	R18, 255
        SBCI	R19, 255
        ST	Z, R16
        STD	Z+1, R17
        STD	Z+2, R18
        STD	Z+3, R19
        RET
        CFI EndBlock cfiCond438
        CFI EndBlock cfiCond439
        CFI EndBlock cfiPicker440

        RSEG CODE:CODE:NOROOT(1)
?Subroutine24:
        CFI Block cfiCond441 Using cfiCommon2
        CFI NoFunction
        CFI Conditional ??CrossCallReturnLabel_47
        CFI R26 Frame(CFA_Y, -2)
        CFI R27 Frame(CFA_Y, -1)
        CFI CFA_SP SP+6
        CFI CFA_Y Y+2
        CFI Block cfiCond442 Using cfiCommon2
        CFI (cfiCond442) NoFunction
        CFI (cfiCond442) Conditional ??CrossCallReturnLabel_48
        CFI (cfiCond442) CFA_SP SP+6
        CFI Block cfiPicker443 Using cfiCommon1
        CFI (cfiPicker443) NoFunction
        CFI (cfiPicker443) Picker
        ST	-Y, R31
        CFI (cfiCond441) R31 Frame(CFA_Y, -3)
        CFI (cfiCond441) CFA_Y Y+3
        CFI (cfiCond442) R31 Frame(CFA_Y, -1)
        CFI (cfiCond442) CFA_Y Y+1
        CFI (cfiPicker443) R31 Frame(CFA_Y, -3)
        ST	-Y, R30
        CFI (cfiCond441) R30 Frame(CFA_Y, -4)
        CFI (cfiCond441) CFA_Y Y+4
        CFI (cfiCond442) R30 Frame(CFA_Y, -2)
        CFI (cfiCond442) CFA_Y Y+2
        CFI (cfiPicker443) R30 Frame(CFA_Y, -4)
        ST	-Y, R20
        CFI (cfiCond441) R20 Frame(CFA_Y, -5)
        CFI (cfiCond441) CFA_Y Y+5
        CFI (cfiCond442) R20 Frame(CFA_Y, -3)
        CFI (cfiCond442) CFA_Y Y+3
        CFI (cfiPicker443) R20 Frame(CFA_Y, -5)
        ST	-Y, R19
        CFI (cfiCond441) R19 Frame(CFA_Y, -6)
        CFI (cfiCond441) CFA_Y Y+6
        CFI (cfiCond442) R19 Frame(CFA_Y, -4)
        CFI (cfiCond442) CFA_Y Y+4
        CFI (cfiPicker443) R19 Frame(CFA_Y, -6)
        ST	-Y, R18
        CFI (cfiCond441) R18 Frame(CFA_Y, -7)
        CFI (cfiCond441) CFA_Y Y+7
        CFI (cfiCond442) R18 Frame(CFA_Y, -5)
        CFI (cfiCond442) CFA_Y Y+5
        CFI (cfiPicker443) R18 Frame(CFA_Y, -7)
        ST	-Y, R17
        CFI (cfiCond441) R17 Frame(CFA_Y, -8)
        CFI (cfiCond441) CFA_Y Y+8
        CFI (cfiCond442) R17 Frame(CFA_Y, -6)
        CFI (cfiCond442) CFA_Y Y+6
        CFI (cfiPicker443) R17 Frame(CFA_Y, -8)
        ST	-Y, R16
        CFI (cfiCond441) R16 Frame(CFA_Y, -9)
        CFI (cfiCond441) CFA_Y Y+9
        CFI (cfiCond442) R16 Frame(CFA_Y, -7)
        CFI (cfiCond442) CFA_Y Y+7
        CFI (cfiPicker443) R16 Frame(CFA_Y, -9)
        IN	R20, 0x3F
        RET
        CFI EndBlock cfiCond441
        CFI EndBlock cfiCond442
        CFI EndBlock cfiPicker443

        ASEGN ABSOLUTE:DATA:NOROOT,01fH
__?EECR:

        ASEGN ABSOLUTE:DATA:NOROOT,020H
__?EEDR:

        ASEGN ABSOLUTE:DATA:NOROOT,021H
__?EEARL:

        ASEGN ABSOLUTE:DATA:NOROOT,022H
__?EEARH:

        COMMON INTVEC:CODE:ROOT(1)
        ORG 44
`??PCINT2_interrupt??INTVEC 44`:
        JMP	PCINT2_interrupt

        COMMON INTVEC:CODE:ROOT(1)
        ORG 52
`??TIMER2_COMPA_interrupt??INTVEC 52`:
        JMP	TIMER2_COMPA_interrupt

        COMMON INTVEC:CODE:ROOT(1)
        ORG 84
`??TIMER0_COMPA_interrupt??INTVEC 84`:
        JMP	TIMER0_COMPA_interrupt

        COMMON INTVEC:CODE:ROOT(1)
        ORG 100
`??USART0_RX_interrupt??INTVEC 100`:
        JMP	USART0_RX_interrupt

        COMMON INTVEC:CODE:ROOT(1)
        ORG 108
`??USART0_TX_interrupt??INTVEC 108`:
        JMP	USART0_TX_interrupt

        COMMON INTVEC:CODE:ROOT(1)
        ORG 116
`??ADC_interrupt??INTVEC 116`:
        JMP	ADC_interrupt

        COMMON INTVEC:CODE:ROOT(1)
        ORG 128
`??TIMER3_COMPA_interrupt??INTVEC 128`:
        JMP	TIMER3_COMPA_interrupt

        COMMON INTVEC:CODE:ROOT(1)
        ORG 144
`??USART1_RX_interrupt??INTVEC 144`:
        JMP	USART1_RX_interrupt

        COMMON INTVEC:CODE:ROOT(1)
        ORG 152
`??USART1_TX_interrupt??INTVEC 152`:
        JMP	USART1_TX_interrupt

        COMMON INTVEC:CODE:ROOT(1)
        ORG 204
`??USART2_RX_interrupt??INTVEC 204`:
        JMP	USART2_RX_interrupt

        COMMON INTVEC:CODE:ROOT(1)
        ORG 212
`??USART2_TX_interrupt??INTVEC 212`:
        JMP	USART2_TX_interrupt

        COMMON INTVEC:CODE:ROOT(1)
        ORG 216
`??USART3_RX_interrupt??INTVEC 216`:
        JMP	USART3_RX_interrupt

        COMMON INTVEC:CODE:ROOT(1)
        ORG 224
`??USART3_TX_interrupt??INTVEC 224`:
        JMP	USART3_TX_interrupt

        RSEG INITTAB:CODE:NOROOT(0)
`?<Segment init: NEAR_Z>`:
        DW	SFE(NEAR_Z) - SFB(NEAR_Z)
        DW	SFB(NEAR_Z)
        DP	0
        REQUIRE ?need_segment_init

        END
// 1822 
// 1823 
// 1824    
// 1825 
// 1826 
// 
//    28 bytes in segment ABSOLUTE
// 3 816 bytes in segment CODE
// 1 276 bytes in segment FARCODE
//     7 bytes in segment INITTAB
//    52 bytes in segment INTVEC
// 3 064 bytes in segment MY_SEG
//   191 bytes in segment NEAR_Z
// 
// 5 092 bytes of CODE memory (+ 59 bytes shared)
// 3 255 bytes of DATA memory (+ 28 bytes shared)
//
//Errors: none
//Warnings: 1
