##############################################################################
#                                                                            #
#                                                      24/Oct/2025  13:29:10 #
# IAR Atmel AVR C/C++ Compiler V4.12A/W32, Evaluation Version                #
# Copyright 1996-2005 IAR Systems. All rights reserved.                      #
#                                                                            #
#    Source file  =  E:\sim800Elam2560_bootnew_i2cerr_a7682e\interr4.c       #
#    Command line =  E:\sim800Elam2560_bootnew_i2cerr_a7682e\interr4.c       #
#                    --cpu=m2560 -ms -o E:\sim800Elam2560_bootnew_i2cerr_a76 #
#                    82e\Debug\Obj\ -lCN E:\sim800Elam2560_bootnew_i2cerr_a7 #
#                    682e\Debug\List\ -lA E:\sim800Elam2560_bootnew_i2cerr_a #
#                    7682e\Debug\List\ -y --initializers_in_flash -z9        #
#                    --no_inline --no_tbaa --cross_call_passes=1 --debug -e  #
#                    -I "E:\box\IAR Systems\Embedded Workbench 4.0           #
#                    Evaluation\avr\INC\" -I "E:\box\IAR Systems\Embedded    #
#                    Workbench 4.0 Evaluation\avr\INC\DLIB\" --eeprom_size   #
#                    4096 --dlib_config "E:\box\IAR Systems\Embedded         #
#                    Workbench 4.0 Evaluation\avr\LIB\DLIB\dlAVR-5s-ec-n.h"  #
#    List file    =  E:\sim800Elam2560_bootnew_i2cerr_a7682e\Debug\List\inte #
#                    rr4.lst                                                 #
#    Object file  =  E:\sim800Elam2560_bootnew_i2cerr_a7682e\Debug\Obj\inter #
#                    r4.r90                                                  #
#                                                                            #
#                                                                            #
##############################################################################

E:\sim800Elam2560_bootnew_i2cerr_a7682e\interr4.c
      1          #include <iom2560.h> 

   \                                 In segment ABSOLUTE, at 0x136
   \   union <unnamed> volatile __ext_io _A_UDR3
   \                     _A_UDR3:
   \   00000000                      DS 1

   \                                 In segment ABSOLUTE, at 0x131
   \   union <unnamed> volatile __ext_io _A_UCSR3B
   \                     _A_UCSR3B:
   \   00000000                      DS 1

   \                                 In segment ABSOLUTE, at 0x108
   \   union <unnamed> volatile __ext_io _A_PORTK
   \                     _A_PORTK:
   \   00000000                      DS 1

   \                                 In segment ABSOLUTE, at 0x106
   \   union <unnamed> volatile __ext_io _A_PINK
   \                     _A_PINK:
   \   00000000                      DS 1

   \                                 In segment ABSOLUTE, at 0x105
   \   union <unnamed> volatile __ext_io _A_PORTJ
   \                     _A_PORTJ:
   \   00000000                      DS 1

   \                                 In segment ABSOLUTE, at 0x103
   \   union <unnamed> volatile __ext_io _A_PINJ
   \                     _A_PINJ:
   \   00000000                      DS 1

   \                                 In segment ABSOLUTE, at 0x102
   \   union <unnamed> volatile __ext_io _A_PORTH
   \                     _A_PORTH:
   \   00000000                      DS 1

   \                                 In segment ABSOLUTE, at 0xd6
   \   union <unnamed> volatile __io _A_UDR2
   \                     _A_UDR2:
   \   00000000                      DS 1

   \                                 In segment ABSOLUTE, at 0xd1
   \   union <unnamed> volatile __io _A_UCSR2B
   \                     _A_UCSR2B:
   \   00000000                      DS 1

   \                                 In segment ABSOLUTE, at 0xce
   \   union <unnamed> volatile __io _A_UDR1
   \                     _A_UDR1:
   \   00000000                      DS 1

   \                                 In segment ABSOLUTE, at 0xc9
   \   union <unnamed> volatile __io _A_UCSR1B
   \                     _A_UCSR1B:
   \   00000000                      DS 1

   \                                 In segment ABSOLUTE, at 0xc6
   \   union <unnamed> volatile __io _A_UDR0
   \                     _A_UDR0:
   \   00000000                      DS 1

   \                                 In segment ABSOLUTE, at 0xc1
   \   union <unnamed> volatile __io _A_UCSR0B
   \                     _A_UCSR0B:
   \   00000000                      DS 1

   \                                 In segment ABSOLUTE, at 0x7c
   \   union <unnamed> volatile __io _A_ADMUX
   \                     _A_ADMUX:
   \   00000000                      DS 1

   \                                 In segment ABSOLUTE, at 0x7b
   \   union <unnamed> volatile __io _A_ADCSRB
   \                     _A_ADCSRB:
   \   00000000                      DS 1

   \                                 In segment ABSOLUTE, at 0x7a
   \   union <unnamed> volatile __io _A_ADCSRA
   \                     _A_ADCSRA:
   \   00000000                      DS 1

   \                                 In segment ABSOLUTE, at 0x78
   \   union <unnamed> volatile __io _A_ADC
   \                     _A_ADC:
   \   00000000                      DS 2

   \                                 In segment ABSOLUTE, at 0x6d
   \   union <unnamed> volatile __io _A_PCMSK2
   \                     _A_PCMSK2:
   \   00000000                      DS 1

   \                                 In segment ABSOLUTE, at 0x3d
   \   union <unnamed> volatile __io _A_EIMSK
   \                     _A_EIMSK:
   \   00000000                      DS 1

   \                                 In segment ABSOLUTE, at 0x3c
   \   union <unnamed> volatile __io _A_EIFR
   \                     _A_EIFR:
   \   00000000                      DS 1

   \                                 In segment ABSOLUTE, at 0x32
   \   union <unnamed> volatile __io _A_PING
   \                     _A_PING:
   \   00000000                      DS 1

   \                                 In segment ABSOLUTE, at 0x2c
   \   union <unnamed> volatile __io _A_PINE
   \                     _A_PINE:
   \   00000000                      DS 1

   \                                 In segment ABSOLUTE, at 0x2b
   \   union <unnamed> volatile __io _A_PORTD
   \                     _A_PORTD:
   \   00000000                      DS 1

   \                                 In segment ABSOLUTE, at 0x28
   \   union <unnamed> volatile __io _A_PORTC
   \                     _A_PORTC:
   \   00000000                      DS 1

   \                                 In segment ABSOLUTE, at 0x25
   \   union <unnamed> volatile __io _A_PORTB
   \                     _A_PORTB:
   \   00000000                      DS 1

   \                                 In segment ABSOLUTE, at 0x22
   \   union <unnamed> volatile __io _A_PORTA
   \                     _A_PORTA:
   \   00000000                      DS 1

   \                                 In segment ABSOLUTE, at 0x20
   \   union <unnamed> volatile __io _A_PINA
   \                     _A_PINA:
   \   00000000                      DS 1
      2          #include <inavr.h> 
      3          #include "dfpin.h"
      4          #include "dfproc.h"
      5          #include "ozu_map.h"
      6          #include "dfcnst.h"
      7          #include "def_at.h"
      8          #include "def_link.h"
      9          #include "sec.h"
     10          #include "map_ef.h"
     11          #include "map_mbus.h"
     12          #include "idterm1.h"
     13          #include "at_com.h"
     14          
     15          
     16          extern unsigned char trevoga;
     17          
     18          char dabl,flag_arhiv_prihod;
     19          
     20          extern int tim_prihod_uhod;
     21          extern int glutch5,window_prihod_uhod;
     22          extern unsigned char prihod_uhod;
     23          extern unsigned char nomer_tab;
     24          extern char podnos;
     25          
     26          extern unsigned int timer_vhod,timer_autovzat;
     27          
     28          extern unsigned int glutch6;
     29          extern unsigned int glutch;
     30          
     31          extern unsigned char cnt_snd;
     32          extern char bit_registr1;
     33          extern unsigned char sel_modul;
     34          extern unsigned int cnt_sec;
     35          
     36          extern unsigned int cnt_supervosor;
     37          
     38          extern unsigned char simka; //dobavka
     39          
     40          extern unsigned char layer_PPP;
     41                                                        
     42          extern unsigned long int cnt_outcom,cnt_incom;
     43          extern unsigned char time_cnt_ch_time;
     44          
     45          unsigned int crc_m1(unsigned char *ka,unsigned int num,unsigned int crc);
     46          void WrArrayToFlesh(unsigned int adres_flesh,  unsigned char *adres_ozu, unsigned int num,unsigned char flag,unsigned char znach);
     47          
     48          void lock_it(void);
     49          
     50          void fun_state_md(void);
     51          extern void tx_rs485_1(void);
     52          extern void tx_rs485_2(void);
     53          extern void tx_rs232_2(void);
     54          extern void tx_rs232_time(void);
     55          extern void test_fram(void);
     56          extern unsigned long int burst_ds_r(void);
     57          
     58          unsigned char check_cts(void);
     59          
     60          extern unsigned int func_crc_tii(void);
     61          extern __no_init unsigned int crc_tii;
     62          extern __no_init unsigned int cnt_tii[8];
     63          
     64          extern char ip_change;
     65          extern unsigned char Fl_ch_sim; ; //dobavka
     66          extern unsigned long int cnt_no_link, cnt_link_res; //dobavka
     67          
     68          //extern unsigned char count_block_net;
     69          
     70          extern struct
     71           {
     72           unsigned char  clr_wdt     :1;
     73           unsigned char  fl_out      :1;
     74           unsigned char  from_timer0 :1;
     75           unsigned char  fl_main     :1;
     76           unsigned char  from_timer3 :1;
     77           unsigned char  from_timer2 :1; 
     78           unsigned char  from_adc :1;
     79           }fl_wdt;
     80          unsigned char cnt_clr_wdt, cnt_flag_out;
     81          
     82          extern unsigned char cnt_rst_lcp,vol_cnt_rst_lcp;
     83          extern unsigned char cnt_rst_ipcp,vol_cnt_rst_ipcp;                       
     84          extern unsigned char cnt_rst_pap,vol_cnt_rst_pap;  
     85          extern unsigned int cnt_lcp_tm_out,cnt_ipcp_tm_out;
     86          extern unsigned int cnt_pap_tm_out;
     87          
     88          extern struct
     89          {
     90          unsigned char over_buf :1;
     91          unsigned char send_state :1;
     92          unsigned char enable:1; 
     93          }fl_appl_seq1; 
     94          
     95           extern struct
     96            {
     97            unsigned char  ip         :1;
     98            unsigned char  udp        :1;
     99            unsigned char  num_self   :1;
    100            unsigned char cnt_reset;
    101            }fl_rewrite;
    102           
    103          
    104          
    105          extern struct                   //ńňđóęňóđŕ, îďčńűâŕţůŕ˙ îáúĺęň ďĺđĺäŕ÷č ďî PPP 
    106            {  
    107            enum bool link_no ; //ńâ˙çč íĺň
    108            enum bool link_waits; //îćčäŕíčĺ ęâčňęŕ íŕ ęîíňđîëü ńâ˙çč
    109            enum bool link;      //ęîíňđîëü ńâ˙çč    
    110            enum bool nat;      //ęîíňđîëü nat 
    111            unsigned int cnt_link; // ń÷ĺň÷čę
    112            unsigned int cnt_nat; // ń÷ĺň÷čę
    113            unsigned int vol_link; // çíŕ÷ĺíčĺ  
    114            unsigned int vol_nat; // //çíŕ÷ĺíčĺ 
    115            unsigned int vol_waits; // çíŕ÷ĺíčĺ âđĺěĺíč ęâčňęŕ îćčäŕíč˙ ęîíňđîë˙ ńâ˙çč
    116            unsigned char cnt_try; // ń÷ĺň÷čę ďîďűňîę ďîëó÷čňü ęâčňîę
    117            unsigned char vol_try; // rjkbxtcndj ďîďűňîę ďîëó÷čňü ęâčňîę
    118            unsigned int vol_nat_r; // ń÷ĺň÷čę
    119            }Control;
    120          
    121          
    122            //!!!!!!!!!!!!!!!!!!!!!!!!!!!!!ńňđóęňóđű ďđčëîćĺíč˙
    123          extern  struct
    124          {
    125          unsigned char id;
    126          unsigned int p_in;// óęŕçŕňĺëü ńâîáîäíîé ˙÷ĺéęč
    127          unsigned int p_out;
    128          unsigned int p_out_kv;
    129          unsigned int crc;
    130          unsigned int cnt_waits; // ń÷ĺň÷čę îćčäŕíč˙ ęâčňęŕ
    131          unsigned char cnt_try; // ń÷ĺň÷čę ďîďűňîę ďîëó÷čňü ęâčňîę 
    132          unsigned int l_data; // äëčíŕ ďîńűëŕĺěűő äŕííűő
    133          unsigned char state;
    134          unsigned char event;
    135          unsigned int tm_vzat;
    136          unsigned int vol_tm_vzat;
    137          enum bool cntr_cl;
    138          enum bool en_cntr_cl;
    139          unsigned int cnt_cntr_cl;
    140          unsigned int vol_cntr_cl;
    141          }Appl_seq;
    142          
    143          //unsigned char Appl_seq_des;
    144          
    145          //unsigned char state_seq;
    146          
    147          extern unsigned char Appl_seq_buf[MAX_BUF_SEQ]; 
    148          unsigned char point_Head;
    149          
    150          
    151          
    152          extern struct
    153          {
    154          unsigned char en_tx :1;
    155          unsigned char kv_waits :1;
    156          unsigned char en_povtor:1;
    157          }fl_appl_seq;
    158          
    159          
    160          extern struct
    161           {
    162            unsigned char time_485_1;
    163            unsigned int client_485_1;
    164            unsigned char start_485_1;
    165            unsigned char time_485_2;
    166            unsigned int client_485_2;
    167            unsigned char start_485_2;
    168            unsigned char time_232_2;
    169            unsigned int client_232_2;
    170            unsigned char start_232_2;
    171           }Life; 
    172          
    173          
    174          extern unsigned char proverka;
    175          extern unsigned char fl_at_mom_232;
    176          
    177          extern enum t_event_modem event_modem;
    178          
    179          
    180          extern unsigned char buf_tx_232[VOL_TX_PPP];
    181          extern unsigned int count_tx_ppp,vol_tx_ppp;
    182          
    183          
    184          extern unsigned char Regim;
    185          extern unsigned char cnt_stm_tm1,cnt_stm_tm2;
    186          extern unsigned int cnt_key_off;
    187          
    188          extern void sending_at_pac(void); 
    189          
    190          extern  struct
    191          {
    192          char buf[LN_BUF_AT];
    193          unsigned char cnt_tx;
    194          unsigned char cnt_rx;
    195          unsigned char ln_buf;
    196          unsigned char list_com[VOL_LIST];// ďĺđĺ÷ĺíü čńďîëí˙ĺěűő ęîěŕíä
    197          unsigned char ln_list;//äëčíŕ ďĺđĺ÷í˙
    198          unsigned char cnt_com;//ń÷ĺň÷čę ęîěŕíä
    199          unsigned int cnt_tm_out; //ń÷ĺň÷čę âđĺěĺíč îćčäŕíč˙ îňâĺňŕ
    200          unsigned int vol_tm_out; //ďđĺäĺë âđĺěĺíč îćčäŕíč˙ îňâĺňŕ
    201          unsigned int cnt_rx_out; //ń÷ĺň÷čę ěĺćáŕéňîâűé ďđîěĺćóňîę
    202          unsigned int vol_rx_out; //ďđĺäĺë ěĺćáŕéňîâîăî ďđîěĺćóňęŕ
    203          }At_com;
    204          
    205          extern enum bool command_AT;
    206          extern enum bool fl_cts_232_ignor;
    207          extern unsigned int cnt_cts_off;
    208          
    209          extern struct
    210           {
    211           unsigned char on: 1;
    212           } fl_cts_232;
    213          
    214          /*
    215          extern struct
    216          {
    217          unsigned char ok :1;//ňđĺáóĺěűé îňâĺň
    218          unsigned char err :1;//îřčáî÷íűé, íĺňđĺáóĺěűé îňâĺň
    219          unsigned char tm_out :1;//îňńóňńňâčĺ îňâĺňŕ
    220          unsigned char tx_en :1;//ďîńëŕňü ęîěěŕíäó
    221          unsigned char rx_en :1;//ďđčíčěŕňü îňâĺňű
    222          unsigned char rx_rec :1;//ďđčí˙ň îňâĺň
    223          unsigned char greg_ereg :1;//ďŕęĺňíčę GPRS or LTE
    224          //unsigned char tm_out_en:1;//đŕçđĺřĺíčĺ ŕíŕëčçŕ ďî ďđĺâűřĺíčţ âđĺěĺíč îćčäŕíč˙ îňâĺňŕ
    225          }
    226          fl_at_com;
    227          */
    228          
    229          #pragma dataseg=MY_SEG

   \                                 In segment MY_SEG, align 1, keep-with-next
    230          __no_init unsigned char Rs485_1_buf_rx_tx[MAX_BUF_RS485_1];
   \                     Rs485_1_buf_rx_tx:
   \   00000000                      DS 1020

   \                                 In segment MY_SEG, align 1, keep-with-next
    231          __no_init unsigned char Rs485_2_buf_rx_tx[MAX_BUF_RS485_2];
   \                     Rs485_2_buf_rx_tx:
   \   00000000                      DS 1020

   \                                 In segment MY_SEG, align 1, keep-with-next
    232          __no_init unsigned char Rs232_2_buf_rx_tx[MAX_BUF_RS232_2];
   \                     Rs232_2_buf_rx_tx:
   \   00000000                      DS 1024

   \                                 In segment NEAR_Z, align 1, keep-with-next
   \   00000000                      REQUIRE `?<Segment init: NEAR_Z>`
    233          #pragma dataseg=default
    234          
    235          
    236          struct                   //ńňđóęňóđŕ îďčńűâŕţůŕ˙ đŕáîňó ďîđňŕ "RS485_1" 
    237            {
    238            unsigned int  cnt_bt_rx_tx;       // ń÷ĺň÷čę áŕéňîâ íŕ ďđčĺě-ďĺđĺäŕ÷ó
    239            unsigned int  cnt_tm_tx_out;    // ń÷ĺň÷čę âđĺěĺíč íŕ óäĺđćŕíčĺ rts ďîńëĺ ďĺđĺäŕ÷č
    240            unsigned int  cnt_tm_pre_tx;    // ń÷ĺň÷čę âđĺěĺíč íŕ óäĺđćŕíčĺ rts ďĺđĺä ďĺđĺäŕ÷č
    241            unsigned int  vol_tm_tx_out;    // ďđĺäĺë ń÷ĺň÷čę âđĺěĺíč íŕ óäĺđćŕíčĺ rts ďîńëĺ ďĺđĺäŕ÷č
    242            unsigned int  cnt_tm_rx_out;   //  ń÷ĺň÷čę âđĺěĺíč íŕ îďđĺäĺëĺíčĺ ęîíöŕ ďđčĺěŕ
    243            unsigned int  vol_tm_rx_out;   //  ďđĺäĺë âđĺěĺíč íŕ îďđĺäĺëĺíčĺ ęîíöŕ ďđčĺěŕ
    244            unsigned int  cnt_tm_out;     // ń÷ĺň÷čę âđĺěĺíč íŕ ďđčĺě 
    245            unsigned int  vol_tm_out;     // ďđĺäĺë ń÷ĺň÷čęŕ âđĺěĺíč íŕ ďđčĺě 
    246            unsigned char *p_data485;   // óęŕçŕňĺëü íŕ áóôĺđ ďĺđĺäŕ÷č
    247            }Rs485_1,Rs485_2,Rs232_2;
   \                     Rs485_1:
   \   00000000                      DS 18
   \                     Rs485_2:
   \   00000012                      DS 18
   \                     Rs232_2:
   \   00000024                      DS 18
   \                     dabl:
   \   00000036                      DS 1
   \                     flag_arhiv_prihod:
   \   00000037                      DS 1
   \                     cnt_clr_wdt:
   \   00000038                      DS 1
   \                     cnt_flag_out:
   \   00000039                      DS 1
    248            
    249          struct
    250           {
    251           unsigned char busy : 1;
    252           unsigned char rec : 1;
    253           unsigned char tm_out : 1;
    254           unsigned char tx : 1;
    255           unsigned char over : 1;
    256           unsigned char buffed : 1;
    257           }fl_485_1,fl_485_2,fl_232_2;
   \                     fl_485_1:
   \   0000003A                      DS 1
   \                     fl_485_2:
   \   0000003B                      DS 1
   \                     fl_232_2:
   \   0000003C                      DS 1

   \                                 In segment NEAR_Z, align 1, keep-with-next
   \   00000000                      REQUIRE `?<Segment init: NEAR_Z>`
   \                     point_Head:
   \   00000000                      DS 1
    258          
    259          
    260          
    261          extern  struct
    262           {
    263            unsigned char data[VOL_RX_PPP];//ńŕě áóôĺđ
    264            unsigned int ln_data;  // äëčíŕ äŕííűő
    265            enum bool rec; // ďŕęĺň ďđčí˙ň
    266            enum bool busy;// áóôĺđ çŕí˙ň
    267            enum bool check_busy;// ďđîâĺđęŕ çŕí˙ň ëč áóôĺđ
    268           }Buf1_rx_ppp,Buf2_rx_ppp; // 
    269          
    270          
    271           struct
    272           {
    273           unsigned char fl_7e : 1;//
    274           unsigned char fl_7d : 1;//
    275           unsigned char switcher : 1;//ďĺđĺęëţ÷ŕňĺëü áóôĺđîâ
    276           } fl_rx_ppp;
   \                     fl_rx_ppp:
   \   00000001                      DS 1
    277          
    278          ///!!!!!!!!!!!!!!!!!!!!!!!!!!!!!!!!!!!äë˙ ĐĐĐ
    279          extern struct
    280           {
    281            unsigned char act_lcp_end :1;  
    282            unsigned char lcp_tm_out_en :1;
    283            unsigned char t0_pl:1;
    284            unsigned char t0_mi:1;
    285           }fl_lcp; 
    286           
    287          
    288          extern struct
    289           {
    290            unsigned char act_ipcp_end :1;  
    291            unsigned char ipcp_tm_out_en :1;
    292            unsigned char t0_pl:1;
    293            unsigned char t0_mi:1;
    294           }fl_ipcp; 
    295          
    296          extern struct
    297           {
    298            unsigned char act_ip_end :1; 
    299            unsigned char ip_tm_cntr_en :1; 
    300            unsigned char ip_tm_nat_en :1;
    301           }fl_ip;
    302          
    303          
    304          
    305            
    306          extern struct
    307           {
    308            unsigned char act_pap_end :1;  
    309            unsigned char pap_tm_out_en:1;
    310            unsigned char t0_pl:1;
    311            unsigned char t0_mi:1;  
    312            unsigned char up: 1; 
    313           }fl_pap; 
    314          
    315          extern struct
    316           {
    317            unsigned char add_byte :1; 
    318           }fl_reg3;
    319            //EEEEEEEEEEEEEEEEEEEEEEEEEEEEEEEEEEEEEEEEE 
    320           
    321          
    322          extern unsigned long int summa_temperatura;         
    323          extern unsigned int temperatura;
    324          extern unsigned int count_summa_temperatura; 
    325          

   \                                 In segment NEAR_Z, align 1, keep-with-next
   \   00000000                      REQUIRE `?<Segment init: NEAR_Z>`
    326          unsigned int modbus_mem1[SEG1];
   \                     modbus_mem1:
   \   00000000                      DS 74
    327          extern unsigned long int arr_tii_32[16];
    328          
    329          
    330          struct
    331          {
    332           
    333            unsigned char tek_pin :1;
    334            unsigned char old_pin :1;
    335            unsigned char fl_ch_tc :1;
    336            unsigned char real_tc;
    337            unsigned int count_tc; 
    338            unsigned char type;
    339            unsigned char cnt_block_tc;

   \                                 In segment NEAR_Z, align 1, keep-with-next
   \   00000000                      REQUIRE `?<Segment init: NEAR_Z>`
    340          }struct_tcc1,struct_tcc2;
   \                     struct_tcc1:
   \   00000000                      DS 6
   \                     struct_tcc2:
   \   00000006                      DS 6
    341          
    342          
    343          unsigned long int summa_adc[4];         
    344          unsigned char count_summa_adc[4];
    345          
    346          
    347          ///11111111111111111111111111111 ôóíęöčč
    348          
    349          /*
    350           struct struct_ts
    351          {
    352           
    353            unsigned char tek_pin :1;
    354            unsigned char old_pin :1;
    355            unsigned char fl_ch_tc :1;
    356          //  unsigned char real_tc:1;
    357            unsigned char count_tc;
    358          };
    359          */
    360          
    361          struct struct_ts str_tc1,str_tc2,str_tc3,str_tc4,str_tc5,str_tc6,str_tc7,str_tc8,str_tc15,str_tc16;
   \                     str_tc1:
   \   0000000C                      DS 2
   \                     str_tc2:
   \   0000000E                      DS 2
   \                     str_tc3:
   \   00000010                      DS 2
   \                     str_tc4:
   \   00000012                      DS 2
   \                     str_tc5:
   \   00000014                      DS 2
   \                     str_tc6:
   \   00000016                      DS 2
   \                     str_tc7:
   \   00000018                      DS 2
   \                     str_tc8:
   \   0000001A                      DS 2
   \                     str_tc15:
   \   0000001C                      DS 2
   \                     str_tc16:
   \   0000001E                      DS 2
    362          ///11111111111111111111111111111 ôóíęöčč
    363           
    364          unsigned char cnt_tu1, cnt_tu2;
   \                     cnt_tu1:
   \   00000020                      DS 1
   \                     cnt_tu2:
   \   00000021                      DS 1

   \                                 In segment NEAR_Z, align 1, keep-with-next
   \   00000000                      REQUIRE `?<Segment init: NEAR_Z>`
   \                     summa_adc:
   \   00000000                      DS 16
   \                     count_summa_adc:
   \   00000010                      DS 4
    365          
    366          

   \                                 In segment FARCODE, align 2, keep-with-next
    367          void send_485_1(void)
   \                     send_485_1:
    368          {
   \   00000000   019D               MOVW    R19:R18, R27:R26
    369          UCSR3B=UCSR3B & ~(RXCIE | RXEN);   
   \   00000002   91000131           LDS     R16, 305
   \   00000006   760F               ANDI    R16, 0x6F
   \   00000008   93000131           STS     305, R16
    370          UCSR3B=UCSR3B | TXCIE;  // enable transmit 485_1
   \   0000000C   91000131           LDS     R16, 305
   \   00000010   6400               ORI     R16, 0x40
   \   00000012   93000131           STS     305, R16
    371          UDR3=*Rs485_1.p_data485++;
   \   00000016   ....               LDI     R30, LOW(Rs485_1)
   \   00000018   ....               LDI     R31, (Rs485_1) >> 8
   \   0000001A   89A0               LDD     R26, Z+16
   \   0000001C   89B1               LDD     R27, Z+17
   \   0000001E   910C               LD      R16, X
   \   00000020   93000136           STS     310, R16
   \   00000024   8900               LDD     R16, Z+16
   \   00000026   8911               LDD     R17, Z+17
   \   00000028   ....               RCALL   ?Subroutine1
   \                     ??CrossCallReturnLabel_2:
   \   0000002A   8B00               STD     Z+16, R16
   \   0000002C   8B11               STD     Z+17, R17
    372          Rs485_1.cnt_bt_rx_tx--; 
   \   0000002E   ....               RCALL   ?Subroutine2
   \                     ??CrossCallReturnLabel_8:
   \   00000030   8300               ST      Z, R16
   \   00000032   8311               STD     Z+1, R17
    373          }
   \   00000034   ....               RJMP    ?Subroutine82

   \                                 In segment FARCODE, align 2, keep-with-next
   \                     ?Subroutine82:
   \   00000000   01D9               MOVW    R27:R26, R19:R18
   \   00000002   9508               RET

   \                                 In segment FARCODE, align 2, keep-with-next
   \                     ?Subroutine1:
   \   00000000   5F0F               SUBI    R16, 255
   \   00000002   4F1F               SBCI    R17, 255
   \   00000004   9508               RET

   \                                 In segment FARCODE, align 2, keep-with-next
   \                     ?Subroutine2:
   \   00000000   8100               LD      R16, Z
   \   00000002   8111               LDD     R17, Z+1
   \   00000004   5001               SUBI    R16, 1
   \   00000006   4010               SBCI    R17, 0
   \   00000008   9508               RET
    374          

   \                                 In segment FARCODE, align 2, keep-with-next
    375          void send_485_2(void)
   \                     send_485_2:
    376          {
   \   00000000   019D               MOVW    R19:R18, R27:R26
    377          UCSR1B=UCSR1B & ~(RXCIE | RXEN);   
   \   00000002   910000C9           LDS     R16, 201
   \   00000006   760F               ANDI    R16, 0x6F
   \   00000008   930000C9           STS     201, R16
    378          UCSR1B=UCSR1B | TXCIE;  // enable transmit 485_2
   \   0000000C   910000C9           LDS     R16, 201
   \   00000010   6400               ORI     R16, 0x40
   \   00000012   930000C9           STS     201, R16
    379          UDR1=*Rs485_2.p_data485++;
   \   00000016   ....               LDI     R30, LOW(Rs485_1)
   \   00000018   ....               LDI     R31, (Rs485_1) >> 8
   \   0000001A   A1A2               LDD     R26, Z+34
   \   0000001C   A1B3               LDD     R27, Z+35
   \   0000001E   910C               LD      R16, X
   \   00000020   930000CE           STS     206, R16
   \   00000024   A102               LDD     R16, Z+34
   \   00000026   A113               LDD     R17, Z+35
   \   00000028   ....               RCALL   ?Subroutine1
   \                     ??CrossCallReturnLabel_3:
   \   0000002A   A302               STD     Z+34, R16
   \   0000002C   A313               STD     Z+35, R17
    380          Rs485_2.cnt_bt_rx_tx--; 
   \   0000002E   8902               LDD     R16, Z+18
   \   00000030   8913               LDD     R17, Z+19
   \   00000032   5001               SUBI    R16, 1
   \   00000034   4010               SBCI    R17, 0
   \   00000036   8B02               STD     Z+18, R16
   \   00000038   8B13               STD     Z+19, R17
    381          }
   \   0000003A   ....               RJMP    ?Subroutine82
    382          

   \                                 In segment FARCODE, align 2, keep-with-next
    383          void send_232_2(void)
   \                     send_232_2:
    384          {
   \   00000000   019D               MOVW    R19:R18, R27:R26
    385          UCSR2B=UCSR2B & ~(RXCIE | RXEN);   
   \   00000002   910000D1           LDS     R16, 209
   \   00000006   760F               ANDI    R16, 0x6F
   \   00000008   930000D1           STS     209, R16
    386          UCSR2B=UCSR2B | TXCIE;  // enable transmit 485_2
   \   0000000C   910000D1           LDS     R16, 209
   \   00000010   6400               ORI     R16, 0x40
   \   00000012   930000D1           STS     209, R16
    387          UDR2=*Rs232_2.p_data485++;
   \   00000016   ....               LDI     R30, LOW(Rs485_1)
   \   00000018   ....               LDI     R31, (Rs485_1) >> 8
   \   0000001A   A9A4               LDD     R26, Z+52
   \   0000001C   A9B5               LDD     R27, Z+53
   \   0000001E   910C               LD      R16, X
   \   00000020   930000D6           STS     214, R16
   \   00000024   A904               LDD     R16, Z+52
   \   00000026   A915               LDD     R17, Z+53
   \   00000028   ....               RCALL   ?Subroutine1
   \                     ??CrossCallReturnLabel_4:
   \   0000002A   AB04               STD     Z+52, R16
   \   0000002C   AB15               STD     Z+53, R17
    388          Rs232_2.cnt_bt_rx_tx--; 
   \   0000002E   A104               LDD     R16, Z+36
   \   00000030   A115               LDD     R17, Z+37
   \   00000032   5001               SUBI    R16, 1
   \   00000034   4010               SBCI    R17, 0
   \   00000036   A304               STD     Z+36, R16
   \   00000038   A315               STD     Z+37, R17
    389          }
   \   0000003A                      REQUIRE ?Subroutine82
   \   0000003A                      ;               // Fall through to label ?Subroutine82
    390          
    391          

   \                                 In segment FARCODE, align 2, keep-with-next
    392           void begin_ts(void)
   \                     begin_ts:
    393            {
    394            //  if(sel_modul!=1)return;
    395              str_tc1.fl_ch_tc=1;
   \   00000000   ....               LDI     R30, LOW(struct_tcc1)
   \   00000002   ....               LDI     R31, (struct_tcc1) >> 8
   \   00000004   8504               LDD     R16, Z+12
   \   00000006   6004               ORI     R16, 0x04
   \   00000008   8704               STD     Z+12, R16
    396              str_tc1.count_tc=30;
   \   0000000A   E10E               LDI     R16, 30
   \   0000000C   8705               STD     Z+13, R16
    397              str_tc2.fl_ch_tc=1;
   \   0000000E   8506               LDD     R16, Z+14
   \   00000010   6004               ORI     R16, 0x04
   \   00000012   8706               STD     Z+14, R16
    398              str_tc2.count_tc=30;
   \   00000014   E10E               LDI     R16, 30
   \   00000016   8707               STD     Z+15, R16
    399              str_tc3.fl_ch_tc=1;
   \   00000018   8900               LDD     R16, Z+16
   \   0000001A   6004               ORI     R16, 0x04
   \   0000001C   8B00               STD     Z+16, R16
    400              str_tc3.count_tc=30;
   \   0000001E   E10E               LDI     R16, 30
   \   00000020   8B01               STD     Z+17, R16
    401              str_tc4.fl_ch_tc=1;
   \   00000022   8902               LDD     R16, Z+18
   \   00000024   6004               ORI     R16, 0x04
   \   00000026   8B02               STD     Z+18, R16
    402              str_tc4.count_tc=30; 
   \   00000028   E10E               LDI     R16, 30
   \   0000002A   8B03               STD     Z+19, R16
    403              str_tc5.fl_ch_tc=1;
   \   0000002C   8904               LDD     R16, Z+20
   \   0000002E   6004               ORI     R16, 0x04
   \   00000030   8B04               STD     Z+20, R16
    404              str_tc5.count_tc=30;
   \   00000032   E10E               LDI     R16, 30
   \   00000034   8B05               STD     Z+21, R16
    405              
    406              str_tc6.fl_ch_tc=1;
   \   00000036   8906               LDD     R16, Z+22
   \   00000038   6004               ORI     R16, 0x04
   \   0000003A   8B06               STD     Z+22, R16
    407              str_tc6.count_tc=30;
   \   0000003C   E10E               LDI     R16, 30
   \   0000003E   8B07               STD     Z+23, R16
    408              
    409              str_tc7.fl_ch_tc=1;
   \   00000040   8D00               LDD     R16, Z+24
   \   00000042   6004               ORI     R16, 0x04
   \   00000044   8F00               STD     Z+24, R16
    410              str_tc7.count_tc=30;
   \   00000046   E10E               LDI     R16, 30
   \   00000048   8F01               STD     Z+25, R16
    411              
    412              str_tc8.fl_ch_tc=1;
   \   0000004A   8D02               LDD     R16, Z+26
   \   0000004C   6004               ORI     R16, 0x04
   \   0000004E   8F02               STD     Z+26, R16
    413              str_tc8.count_tc=30;
   \   00000050   E10E               LDI     R16, 30
   \   00000052   8F03               STD     Z+27, R16
    414              
    415               str_tc15.fl_ch_tc=1;
   \   00000054   8D04               LDD     R16, Z+28
   \   00000056   6004               ORI     R16, 0x04
   \   00000058   8F04               STD     Z+28, R16
    416               str_tc15.count_tc=30;
   \   0000005A   E10E               LDI     R16, 30
   \   0000005C   8F05               STD     Z+29, R16
    417              
    418               str_tc16.fl_ch_tc=1;
   \   0000005E   8D06               LDD     R16, Z+30
   \   00000060   6004               ORI     R16, 0x04
   \   00000062   8F06               STD     Z+30, R16
    419               str_tc16.count_tc=30;
   \   00000064   E10E               LDI     R16, 30
   \   00000066   8F07               STD     Z+31, R16
    420              
    421              
    422            }
   \   00000068   9508               RET
    423          
    424          
    425          
    426          //void opros_ts(unsigned char num, unsigned char port, unsigned char pin, struct struct_ts *ts, unsigned int *tii)

   \                                 In segment FARCODE, align 2, keep-with-next
    427          void opros_ts(unsigned char num, unsigned char port, unsigned char pin, struct struct_ts *ts)
   \                     opros_ts:
    428          
    429          {
   \   00000000   ........           CALL    ?PROLOGUE4_L09
   \   00000004   2F80               MOV     R24, R16
   \   00000006   01BA               MOVW    R23:R22, R21:R20
    430            if(port & pin)ts->tek_pin=0;else ts->tek_pin=1;
   \   00000008   2321               AND     R18, R17
   \   0000000A   01FA               MOVW    R31:R30, R21:R20
   \   0000000C   8100               LD      R16, Z
   \   0000000E   F011               BREQ    ??opros_ts_0
   \   00000010   7F0E               ANDI    R16, 0xFE
   \   00000012   C001               RJMP    ??opros_ts_1
   \                     ??opros_ts_0:
   \   00000014   6001               ORI     R16, 0x01
   \                     ??opros_ts_1:
   \   00000016   8300               ST      Z, R16
    431             if(ts->fl_ch_tc==1)
   \   00000018   8100               LD      R16, Z
   \   0000001A   FF02               SBRS    R16, 2
   \   0000001C   C044               RJMP    ??opros_ts_2
    432               {
    433                 ts->count_tc--;
   \   0000001E   8101               LDD     R16, Z+1
   \   00000020   950A               DEC     R16
   \   00000022   8301               STD     Z+1, R16
    434                 if(ts->count_tc==0)
   \   00000024   F009               BREQ    $+2+2
   \   00000026   C04B               RJMP    ??opros_ts_3
    435                 {
    436                   ts->fl_ch_tc=0;
   \   00000028   8100               LD      R16, Z
   \   0000002A   7F0B               ANDI    R16, 0xFB
   \   0000002C   8300               ST      Z, R16
    437                 //  ts->real_tc=0x01 & (~ts->tek_pin);
    438                  // *tii++;
    439                 //  modbus_mem1[num]=*tii;
    440                   modbus_mem1[AD_TII1+num]++;
   \   0000002E   2F28               MOV     R18, R24
   \   00000030   E030               LDI     R19, 0
   \   00000032   ....               LDI     R30, LOW(modbus_mem1)
   \   00000034   ....               LDI     R31, (modbus_mem1) >> 8
   \   00000036   0189               MOVW    R17:R16, R19:R18
   \   00000038   0F00               LSL     R16
   \   0000003A   1F11               ROL     R17
   \   0000003C   01DF               MOVW    R27:R26, R31:R30
   \   0000003E   0FA0               ADD     R26, R16
   \   00000040   1FB1               ADC     R27, R17
   \   00000042   910D               LD      R16, X+
   \   00000044   911C               LD      R17, X
   \   00000046   ....               RCALL   ?Subroutine1
   \                     ??CrossCallReturnLabel_5:
   \   00000048   931C               ST      X, R17
   \   0000004A   930E               ST      -X, R16
    441                   arr_tii_32[num]++;
   \   0000004C   0F22               LSL     R18
   \   0000004E   1F33               ROL     R19
   \   00000050   0F22               LSL     R18
   \   00000052   1F33               ROL     R19
   \   00000054   01D9               MOVW    R27:R26, R19:R18
   \   00000056   ....               SUBI    R26, LOW((-(arr_tii_32) & 0xFFFF))
   \   00000058   ....               SBCI    R27, (-(arr_tii_32) & 0xFFFF) >> 8
   \   0000005A   910D               LD      R16, X+
   \   0000005C   911D               LD      R17, X+
   \   0000005E   912D               LD      R18, X+
   \   00000060   913C               LD      R19, X
   \   00000062   ....               RCALL   ?Subroutine1
   \                     ??CrossCallReturnLabel_6:
   \   00000064   4F2F               SBCI    R18, 255
   \   00000066   4F3F               SBCI    R19, 255
   \   00000068   933C               ST      X, R19
   \   0000006A   932E               ST      -X, R18
   \   0000006C   931E               ST      -X, R17
   \   0000006E   930E               ST      -X, R16
    442                   modbus_mem1[AD_TS]=(modbus_mem1[AD_TS] & (~(0x01<<num))) | (ts->tek_pin <<num);
   \   00000070   A920               LDD     R18, Z+48
   \   00000072   A931               LDD     R19, Z+49
   \   00000074   E001               LDI     R16, 1
   \   00000076   ....               RCALL   ?Subroutine8
   \                     ??CrossCallReturnLabel_19:
   \   00000078   0108               MOVW    R1:R0, R17:R16
   \   0000007A   9400               COM     R0
   \   0000007C   9410               COM     R1
   \   0000007E   2202               AND     R0, R18
   \   00000080   2213               AND     R1, R19
   \   00000082   01DB               MOVW    R27:R26, R23:R22
   \   00000084   910C               LD      R16, X
   \   00000086   7001               ANDI    R16, 0x01
   \   00000088   ....               RCALL   ?Subroutine8
   \                     ??CrossCallReturnLabel_20:
   \   0000008A   2900               OR      R16, R0
   \   0000008C   2911               OR      R17, R1
   \   0000008E   AB00               STD     Z+48, R16
   \   00000090   AB11               STD     Z+49, R17
    443                   if(num==2){if((ts->tek_pin)==0)trevoga=1;else trevoga=0;}
   \   00000092   3082               CPI     R24, 2
   \   00000094   F4A1               BRNE    ??opros_ts_3
   \   00000096   01FB               MOVW    R31:R30, R23:R22
   \   00000098   8110               LD      R17, Z
   \   0000009A   7011               ANDI    R17, 0x01
   \   0000009C   E001               LDI     R16, 1
   \   0000009E   2701               EOR     R16, R17
   \   000000A0   9300....           STS     trevoga, R16
   \   000000A4   C00C               RJMP    ??opros_ts_3
    444                 }
    445               } 
    446               else
    447               {
    448                 if(ts->tek_pin!=ts->old_pin)
   \                     ??opros_ts_2:
   \   000000A6   7001               ANDI    R16, 0x01
   \   000000A8   8110               LD      R17, Z
   \   000000AA   FB11               BST     R17, 1
   \   000000AC   E010               LDI     R17, 0
   \   000000AE   F910               BLD     R17, 0
   \   000000B0   1701               CP      R16, R17
   \   000000B2   F029               BREQ    ??opros_ts_3
    449                 {
    450                 ts->fl_ch_tc=1;
   \   000000B4   8100               LD      R16, Z
   \   000000B6   6004               ORI     R16, 0x04
   \   000000B8   8300               ST      Z, R16
    451                 ts->count_tc=30;
   \   000000BA   E10E               LDI     R16, 30
   \   000000BC   8301               STD     Z+1, R16
    452                 }
    453               }
    454              ts->old_pin=ts->tek_pin;
   \                     ??opros_ts_3:
   \   000000BE   01FB               MOVW    R31:R30, R23:R22
   \   000000C0   8100               LD      R16, Z
   \   000000C2   7001               ANDI    R16, 0x01
   \   000000C4   FB00               BST     R16, 0
   \   000000C6   8100               LD      R16, Z
   \   000000C8   F901               BLD     R16, 1
   \   000000CA   8300               ST      Z, R16
    455          }
   \   000000CC   E0E4               LDI     R30, 4
   \   000000CE   ........           JMP     ?EPILOGUE_B4_L09

   \                                 In segment FARCODE, align 2, keep-with-next
   \                     ?Subroutine8:
   \   00000000   E010               LDI     R17, 0
   \   00000002   2F48               MOV     R20, R24
   \   00000004   ........           JMP     ?S_SHL_L02
    456          
    457          
    458          
    459          

   \                                 In segment FARCODE, align 2, keep-with-next
    460          void sending_ppp_proverka(void)
   \                     sending_ppp_proverka:
    461          {   
   \   00000000   019D               MOVW    R19:R18, R27:R26
    462             if(count_tx_ppp>=20)
   \   00000002   ....               LDI     R26, LOW(count_tx_ppp)
   \   00000004   ....               LDI     R27, (count_tx_ppp) >> 8
   \   00000006   91ED               LD      R30, X+
   \   00000008   91FC               LD      R31, X
   \   0000000A   9774               SBIW    R31:R30, 20
   \   0000000C   F018               BRCS    ??sending_ppp_proverka_0
    463             {
    464              // UCSR0B=UCSR0B & ~TXEN;!!!!
    465              // UCSR0B=UCSR0B & ~TXCIE; !!!!
    466               S2_OFF;
   \   0000000E   9840               CBI     0x08, 0x00
   \   00000010   9841               CBI     0x08, 0x01
    467               return;
   \   00000012   C00F               RJMP    ??sending_ppp_proverka_1
    468             }
    469             
    470             UDR0=buf_tx_232[count_tx_ppp]; if(Regim==RG_DEBAG) UDR3=buf_tx_232[count_tx_ppp];
   \                     ??sending_ppp_proverka_0:
   \   00000014   ....               RCALL   ?Subroutine11
   \                     ??CrossCallReturnLabel_23:
   \   00000016   01F8               MOVW    R31:R30, R17:R16
   \   00000018   ....               SUBI    R30, LOW((-(buf_tx_232) & 0xFFFF))
   \   0000001A   ....               SBCI    R31, (-(buf_tx_232) & 0xFFFF) >> 8
   \   0000001C   8110               LD      R17, Z
   \   0000001E   931000C6           STS     198, R17
   \   00000022   ....               RCALL   ??Subroutine7_0
   \                     ??CrossCallReturnLabel_18:
   \   00000024   F411               BRNE    ??sending_ppp_proverka_2
   \   00000026   93100136           STS     310, R17
    471             count_tx_ppp++;
   \                     ??sending_ppp_proverka_2:
   \   0000002A   ....               RCALL   ?Subroutine11
   \                     ??CrossCallReturnLabel_24:
   \   0000002C   ....               RCALL   ?Subroutine1
   \                     ??CrossCallReturnLabel_7:
   \   0000002E   8300               ST      Z, R16
   \   00000030   8311               STD     Z+1, R17
    472          }
   \                     ??sending_ppp_proverka_1:
   \   00000032   ....               RJMP    ?Subroutine82

   \                                 In segment FARCODE, align 2, keep-with-next
   \                     ?Subroutine11:
   \   00000000   ....               LDI     R30, LOW(count_tx_ppp)
   \   00000002   ....               LDI     R31, (count_tx_ppp) >> 8
   \   00000004   8100               LD      R16, Z
   \   00000006   8111               LDD     R17, Z+1
   \   00000008   9508               RET

   \                                 In segment FARCODE, align 2, keep-with-next
   \                     ?Subroutine7:
   \   00000000   930000C6           STS     198, R16
   \                     ??Subroutine7_0:
   \   00000004   9100....           LDS     R16, Regim
   \   00000008   3001               CPI     R16, 1
   \   0000000A   9508               RET
    473          
    474          
    475          

   \                                 In segment FARCODE, align 2, keep-with-next
    476            void sending_ppp_pac(void)
   \                     sending_ppp_pac:
    477          {   
    478            cnt_supervosor=0;
   \   00000000   E000               LDI     R16, 0
   \   00000002   ....               LDI     R30, LOW(cnt_supervosor)
   \   00000004   ....               LDI     R31, (cnt_supervosor) >> 8
   \   00000006   8300               ST      Z, R16
   \   00000008   8301               STD     Z+1, R16
    479            
    480           if(count_tx_ppp>=(vol_tx_ppp-1))
   \   0000000A   ....               LDI     R30, LOW(vol_tx_ppp)
   \   0000000C   ....               LDI     R31, (vol_tx_ppp) >> 8
   \   0000000E   ....               RCALL   ?Subroutine2
   \                     ??CrossCallReturnLabel_9:
   \   00000010   ....               LDI     R30, LOW(count_tx_ppp)
   \   00000012   ....               LDI     R31, (count_tx_ppp) >> 8
   \   00000014   8120               LD      R18, Z
   \   00000016   8131               LDD     R19, Z+1
   \   00000018   1720               CP      R18, R16
   \   0000001A   0731               CPC     R19, R17
   \   0000001C   F0D0               BRCS    ??sending_ppp_pac_0
    481               { 
    482            
    483               if (fl_lcp.act_lcp_end==0) fl_lcp.act_lcp_end=1;
   \   0000001E   ....               LDI     R30, LOW(fl_lcp)
   \   00000020   ....               LDI     R31, (fl_lcp) >> 8
   \   00000022   8100               LD      R16, Z
   \   00000024   FF00               SBRS    R16, 0
   \   00000026   ....               RCALL   ?Subroutine6
    484               if (fl_pap.act_pap_end==0) fl_pap.act_pap_end=1;    
   \                     ??CrossCallReturnLabel_10:
   \   00000028   ....               LDI     R30, LOW(fl_pap)
   \   0000002A   ....               LDI     R31, (fl_pap) >> 8
   \   0000002C   8100               LD      R16, Z
   \   0000002E   FF00               SBRS    R16, 0
   \   00000030   ....               RCALL   ?Subroutine6
    485               if (fl_ipcp.act_ipcp_end==0) fl_ipcp.act_ipcp_end=1;  
   \                     ??CrossCallReturnLabel_11:
   \   00000032   ....               LDI     R30, LOW(fl_ipcp)
   \   00000034   ....               LDI     R31, (fl_ipcp) >> 8
   \   00000036   8100               LD      R16, Z
   \   00000038   FF00               SBRS    R16, 0
   \   0000003A   ....               RCALL   ?Subroutine6
    486               if (fl_ip.act_ip_end==0) fl_ip.act_ip_end=1; 
   \                     ??CrossCallReturnLabel_12:
   \   0000003C   ....               LDI     R30, LOW(fl_ip)
   \   0000003E   ....               LDI     R31, (fl_ip) >> 8
   \   00000040   8100               LD      R16, Z
   \   00000042   FF00               SBRS    R16, 0
   \   00000044   ....               RCALL   ?Subroutine6
    487               fl_reg3.add_byte=0;   
   \                     ??CrossCallReturnLabel_13:
   \   00000046   ....               LDI     R30, LOW(fl_reg3)
   \   00000048   ....               LDI     R31, (fl_reg3) >> 8
   \   0000004A   8100               LD      R16, Z
   \   0000004C   7F0E               ANDI    R16, 0xFE
   \   0000004E   8300               ST      Z, R16
    488             //  UCSR0B=UCSR0B & ~TXEN;!!!!!!!
    489             //  UCSR0B=UCSR0B & ~TXCIE; !!!!
    490               S2_OFF;
   \   00000050   ....               RJMP    ?Subroutine80
    491               return;
    492               }   
    493                
    494                 
    495          if (fl_reg3.add_byte==1) 
   \                     ??sending_ppp_pac_0:
   \   00000052   ....               LDI     R30, LOW(fl_reg3)
   \   00000054   ....               LDI     R31, (fl_reg3) >> 8
   \   00000056   8120               LD      R18, Z
   \   00000058   FF20               SBRS    R18, 0
   \   0000005A   C01B               RJMP    ??sending_ppp_pac_1
    496              {         
    497                fl_reg3.add_byte=0;
   \   0000005C   2F02               MOV     R16, R18
   \   0000005E   7F0E               ANDI    R16, 0xFE
   \   00000060   8300               ST      Z, R16
    498                if (buf_tx_232[count_tx_ppp]==0x7e){UDR0=0x5e;if(Regim==RG_DEBAG) UDR3=0x5e;return;}  
   \   00000062   9100....           LDS     R16, count_tx_ppp
   \   00000066   2F13               MOV     R17, R19
   \   00000068   01F8               MOVW    R31:R30, R17:R16
   \   0000006A   ....               RCALL   ?Subroutine12
   \                     ??CrossCallReturnLabel_169:
   \   0000006C   F429               BRNE    ??sending_ppp_pac_2
   \   0000006E   E50E               LDI     R16, 94
   \   00000070   ....               RCALL   ?Subroutine7
   \                     ??CrossCallReturnLabel_15:
   \   00000072   F5C9               BRNE    ??sending_ppp_pac_3
   \   00000074   E50E               LDI     R16, 94
   \   00000076   C006               RJMP    ??sending_ppp_pac_4
    499                if (buf_tx_232[count_tx_ppp]==0x7d){UDR0=0x5d;if(Regim==RG_DEBAG) UDR3=0x5d;return;} 
   \                     ??sending_ppp_pac_2:
   \   00000078   370D               CPI     R16, 125
   \   0000007A   F439               BRNE    ??sending_ppp_pac_5
   \   0000007C   E50D               LDI     R16, 93
   \   0000007E   ....               RCALL   ?Subroutine7
   \                     ??CrossCallReturnLabel_16:
   \   00000080   F591               BRNE    ??sending_ppp_pac_3
   \   00000082   E50D               LDI     R16, 93
   \                     ??sending_ppp_pac_4:
   \   00000084   93000136           STS     310, R16
   \   00000088   9508               RET
    500                UDR0=buf_tx_232[count_tx_ppp]+0x20;if(Regim==RG_DEBAG) UDR3=buf_tx_232[count_tx_ppp]+0x20;
   \                     ??sending_ppp_pac_5:
   \   0000008A   5E00               SUBI    R16, 224
   \   0000008C   ....               RCALL   ?Subroutine14
   \                     ??CrossCallReturnLabel_27:
   \   0000008E   F559               BRNE    ??sending_ppp_pac_3
   \   00000090   CFF9               RJMP    ??sending_ppp_pac_4
    501                return;
    502              }
    503          
    504                                                                   
    505            count_tx_ppp++;                
   \                     ??sending_ppp_pac_1:
   \   00000092   ....               LDI     R30, LOW(count_tx_ppp)
   \   00000094   ....               LDI     R31, (count_tx_ppp) >> 8
   \   00000096   8120               LD      R18, Z
   \   00000098   5F2F               SUBI    R18, 255
   \   0000009A   4F3F               SBCI    R19, 255
   \   0000009C   8320               ST      Z, R18
   \   0000009E   8331               STD     Z+1, R19
    506             
    507            if(count_tx_ppp==(vol_tx_ppp-1))goto exit_tx;   
   \   000000A0   1720               CP      R18, R16
   \   000000A2   0731               CPC     R19, R17
   \   000000A4   F0C1               BREQ    ??sending_ppp_pac_6
    508            
    509                 
    510                 if ((buf_tx_232[count_tx_ppp]==0x7e)||(buf_tx_232[count_tx_ppp]==0x7d))
   \   000000A6   01F9               MOVW    R31:R30, R19:R18
   \   000000A8   ....               RCALL   ?Subroutine12
   \                     ??CrossCallReturnLabel_170:
   \   000000AA   F011               BREQ    ??sending_ppp_pac_7
   \   000000AC   370D               CPI     R16, 125
   \   000000AE   F449               BRNE    ??sending_ppp_pac_8
    511                      {
    512                      fl_reg3.add_byte=1;
   \                     ??sending_ppp_pac_7:
   \   000000B0   ....               LDI     R30, LOW(fl_reg3)
   \   000000B2   ....               LDI     R31, (fl_reg3) >> 8
   \   000000B4   8100               LD      R16, Z
   \   000000B6   ....               RCALL   ?Subroutine6
    513                      UDR0=0x7d; 
   \                     ??CrossCallReturnLabel_14:
   \   000000B8   E70D               LDI     R16, 125
   \   000000BA   ....               RCALL   ?Subroutine7
    514                      if(Regim==RG_DEBAG) UDR3=0x7d;
   \                     ??CrossCallReturnLabel_17:
   \   000000BC   F4A1               BRNE    ??sending_ppp_pac_3
   \   000000BE   E70D               LDI     R16, 125
   \   000000C0   CFE1               RJMP    ??sending_ppp_pac_4
    515                      return;
    516                      } 
    517                  
    518                 if ((buf_tx_232[count_tx_ppp]==17)||(buf_tx_232[count_tx_ppp]==19))
   \                     ??sending_ppp_pac_8:
   \   000000C2   3101               CPI     R16, 17
   \   000000C4   F3A9               BREQ    ??sending_ppp_pac_7
   \   000000C6   3103               CPI     R16, 19
   \   000000C8   F399               BREQ    ??sending_ppp_pac_7
    519                      {
    520                      fl_reg3.add_byte=1;
    521                      UDR0=0x7d; 
    522                      if(Regim==RG_DEBAG) UDR3=0x7d;
    523                      return;
    524                      }     
    525                  
    526                 if ((buf_tx_232[count_tx_ppp]<0x20)&&(fl_ip.act_ip_end==1)) 
   \   000000CA   3200               CPI     R16, 32
   \   000000CC   F420               BRCC    ??sending_ppp_pac_6
   \   000000CE   9100....           LDS     R16, fl_ip
   \   000000D2   FD00               SBRC    R16, 0
   \   000000D4   CFED               RJMP    ??sending_ppp_pac_7
    527                      {
    528                      fl_reg3.add_byte=1;
    529                      UDR0=0x7d; 
    530                      if(Regim==RG_DEBAG) UDR3=0x7d;
    531                      return;
    532                      }   
    533                 
    534                            
    535          exit_tx:  UDR0=buf_tx_232[count_tx_ppp]; if(Regim==RG_DEBAG) UDR3=buf_tx_232[count_tx_ppp];
   \                     ??sending_ppp_pac_6:
   \   000000D6   01F9               MOVW    R31:R30, R19:R18
   \   000000D8   ....               SUBI    R30, LOW((-(buf_tx_232) & 0xFFFF))
   \   000000DA   ....               SBCI    R31, (-(buf_tx_232) & 0xFFFF) >> 8
   \   000000DC   8100               LD      R16, Z
   \   000000DE   ....               RCALL   ?Subroutine14
   \                     ??CrossCallReturnLabel_28:
   \   000000E0   F411               BRNE    ??sending_ppp_pac_3
   \   000000E2   93000136           STS     310, R16
   \                     ??sending_ppp_pac_3:
   \   000000E6   9508               RET
    536          } 

   \                                 In segment FARCODE, align 2, keep-with-next
   \                     ?Subroutine14:
   \   00000000   930000C6           STS     198, R16
   \   00000004   9110....           LDS     R17, Regim
   \   00000008   3011               CPI     R17, 1
   \   0000000A   9508               RET

   \                                 In segment FARCODE, align 2, keep-with-next
   \                     ?Subroutine12:
   \   00000000   ....               SUBI    R30, LOW((-(buf_tx_232) & 0xFFFF))
   \   00000002   ....               SBCI    R31, (-(buf_tx_232) & 0xFFFF) >> 8
   \   00000004   8100               LD      R16, Z
   \   00000006                      REQUIRE ?Subroutine83
   \   00000006                      ;               // Fall through to label ?Subroutine83

   \                                 In segment FARCODE, align 2, keep-with-next
   \                     ?Subroutine83:
   \   00000000   370E               CPI     R16, 126
   \   00000002   9508               RET

   \                                 In segment FARCODE, align 2, keep-with-next
   \                     ?Subroutine6:
   \   00000000   6001               ORI     R16, 0x01
   \   00000002   8300               ST      Z, R16
   \   00000004   9508               RET

   \                                 In segment FARCODE, align 2, keep-with-next
   \                     ?Subroutine80:
   \   00000000   9840               CBI     0x08, 0x00
   \   00000002   9841               CBI     0x08, 0x01
   \   00000004   9508               RET
    537          
    538           
    539           

   \                                 In segment FARCODE, align 2, keep-with-next
    540           void recive_buf1(unsigned char temp)
   \                     recive_buf1:
    541            {
    542            
    543           // if(Regim==RG_DEBAG)UDR1=temp;  //!!!!!!!! poka
    544              
    545            if(fl_rx_ppp.fl_7e==1)
   \   00000000   ....               RCALL   ?Subroutine16
   \                     ??CrossCallReturnLabel_31:
   \   00000002   8111               LDD     R17, Z+1
   \   00000004   FF10               SBRS    R17, 0
   \   00000006   C034               RJMP    ??recive_buf1_0
    546                            { 
    547                             
    548                             
    549                              if(Buf1_rx_ppp.ln_data>=VOL_RX_PPP)// ďđîâĺđęŕ íŕ ďĺđĺďîëíĺíčĺ ďĺđâîăî áóôĺđŕ
   \   00000008   ....               LDI     R30, LOW((Buf1_rx_ppp + 330))
   \   0000000A   ....               LDI     R31, HIGH((Buf1_rx_ppp + 330))
   \   0000000C   ....               RCALL   ?Subroutine13
   \                     ??CrossCallReturnLabel_25:
   \   0000000E   F008               BRCS    ??recive_buf1_1
    550                              {
    551                                 Buf1_rx_ppp.ln_data=0;
   \   00000010   ....               RJMP    ?Subroutine5
    552                                 fl_rx_ppp.fl_7e=0;
    553                                 fl_rx_ppp.fl_7d=0;
    554                                 S2_OFF;        
    555                                 
    556                                 //S3_GR;//!!!!proverka
    557                                 return;
    558                              }
    559            
    560                               
    561                              // //////////óęëŕäęŕ
    562                              if(temp==0x7d)
   \                     ??recive_buf1_1:
   \   00000012   370D               CPI     R16, 125
   \   00000014   F411               BRNE    ??recive_buf1_2
    563                                 {  
    564                                   fl_rx_ppp.fl_7d=1;
   \   00000016   ....               RCALL   ?Subroutine15
   \                     ??CrossCallReturnLabel_29:
   \   00000018   C00B               RJMP    ??CrossCallReturnLabel_0
    565                                   return;
    566                                 }
    567                                  else
    568                                 {  
    569                                   if (fl_rx_ppp.fl_7d==1)
   \                     ??recive_buf1_2:
   \   0000001A   ....               LDI     R30, LOW(Buf1_rx_ppp)
   \   0000001C   ....               LDI     R31, (Buf1_rx_ppp) >> 8
   \   0000001E   ....               RCALL   ?Subroutine18
   \                     ??CrossCallReturnLabel_35:
   \   00000020   FF11               SBRS    R17, 1
   \   00000022   C007               RJMP    ??recive_buf1_3
    570                                      {                 
    571                                        
    572                                        Buf1_rx_ppp.data[Buf1_rx_ppp.ln_data]=temp ^ 0x20;
   \   00000024   E210               LDI     R17, 32
   \   00000026   2710               EOR     R17, R16
   \   00000028   8310               ST      Z, R17
    573                                        Buf1_rx_ppp.ln_data++;
   \   0000002A   ....               LDI     R30, LOW((Buf1_rx_ppp + 330))
   \   0000002C   ....               LDI     R31, HIGH((Buf1_rx_ppp + 330))
   \   0000002E   ....               RCALL   ?Subroutine0
    574                                        fl_rx_ppp.fl_7d=0;
   \                     ??CrossCallReturnLabel_0:
   \   00000030   ....               RJMP    ?Subroutine84
    575                                        /*
    576                                        if((temp>=0x20)&&(temp<0x40)){Buf1_rx_ppp.data[Buf1_rx_ppp.ln_data]=temp-0x20;Buf1_rx_ppp.ln_data++;fl_rx_ppp.fl_7d=0;return;}                                
    577                                        if(temp==0x5e){Buf1_rx_ppp.data[Buf1_rx_ppp.ln_data]=0x7e;Buf1_rx_ppp.ln_data++;fl_rx_ppp.fl_7d=0;return;}  
    578                                        if(temp==0x5d){Buf1_rx_ppp.data[Buf1_rx_ppp.ln_data]=0x7d;Buf1_rx_ppp.ln_data++;fl_rx_ppp.fl_7d=0;return;} 
    579                                        Buf1_rx_ppp.ln_data=0;
    580                                        fl_rx_ppp.fl_7e=0;
    581                                        fl_rx_ppp.fl_7d=0;             
    582                                        S3_RD;//!!!!proverka
    583                                        S2_OFF;
    584                                        */
    585                                        
    586                                        return;
    587                                       }  
    588                                      else
    589                                        {        
    590                                             Buf1_rx_ppp.data[Buf1_rx_ppp.ln_data] =temp;
   \                     ??recive_buf1_3:
   \   00000032   8300               ST      Z, R16
    591                                             Buf1_rx_ppp.ln_data++;                                                  
   \   00000034   ....               LDI     R30, LOW((Buf1_rx_ppp + 330))
   \   00000036   ....               LDI     R31, HIGH((Buf1_rx_ppp + 330))
   \   00000038   ....               RCALL   ?Subroutine10
    592                                  
    593                                               if(temp==0x7e)         //íĺň ďĺđĺďîëíĺíč˙
   \                     ??CrossCallReturnLabel_167:
   \   0000003A   F501               BRNE    ??recive_buf1_4
    594                                                  {  
    595                                                   if(Buf1_rx_ppp.ln_data<=2) //ĺńëč ďîäđ˙ä äâŕ 0x7e 
   \   0000003C   91E0....           LDS     R30, (Buf1_rx_ppp + 330)
   \   00000040   2FF3               MOV     R31, R19
   \   00000042   9733               SBIW    R31:R30, 3
   \   00000044   F418               BRCC    ??recive_buf1_5
    596                                                       {
    597                                                        //  if(ppp_packet.rcvd==1)???????????????
    598                                                        /*
    599                                                        if((layer_PPP==LAYER_IP)&&(Buf1_rx_ppp.ln_data==2))
    600                                                        {
    601                                                         S4_RD;//proverka!!!!!
    602                                                         while(1)__watchdog_reset();//proverka!!!!!
    603                                                        }
    604                                                        */
    605                                                         
    606                                                        fl_rx_ppp.fl_7e=1;   
   \   00000046   ....               RCALL   ?Subroutine16
   \                     ??CrossCallReturnLabel_32:
   \   00000048   8101               LDD     R16, Z+1
   \   0000004A   ....               RJMP    ?Subroutine3
    607                                                        Buf1_rx_ppp.data[0]=temp;  
    608                                                        Buf1_rx_ppp.ln_data=1; 
    609                                                        return;
    610                                                        }
    611                                                  
    612                                                              
    613                                                   S2_OFF;
   \                     ??recive_buf1_5:
   \   0000004C   ....               RCALL   ?Subroutine9
    614                                                   fl_rx_ppp.fl_7e=0;
    615                                                   fl_rx_ppp.switcher=1;
   \                     ??CrossCallReturnLabel_21:
   \   0000004E   7F0E               ANDI    R16, 0xFE
   \   00000050   8301               STD     Z+1, R16
   \   00000052   6004               ORI     R16, 0x04
   \   00000054   8301               STD     Z+1, R16
    616                                                   Buf1_rx_ppp.rec=TRUE; 
   \   00000056   E001               LDI     R16, 1
   \   00000058   9300....           STS     (Buf1_rx_ppp + 332), R16
    617                                                   Buf1_rx_ppp.busy=TRUE;
   \   0000005C   9300....           STS     (Buf1_rx_ppp + 333), R16
    618                                                   if(Buf2_rx_ppp.busy==TRUE)
   \   00000060   9100....           LDS     R16, (Buf2_rx_ppp + 333)
   \   00000064   3001               CPI     R16, 1
   \   00000066   F451               BRNE    ??recive_buf1_4
    619                                                    {
    620                                                  
    621                                                     Buf2_rx_ppp.check_busy=TRUE;
   \   00000068   E001               LDI     R16, 1
   \   0000006A   9300....           STS     (Buf2_rx_ppp + 334), R16
    622                                                     UCSR0B=UCSR0B & ~RXEN;
   \   0000006E   ....               RJMP    ?Subroutine17
    623                                                     UCSR0B=UCSR0B & ~RXCIE; 
    624                                                    }
    625                                                   return;
    626                                                  }  
    627                                         }
    628                            
    629                                  }
    630                                              
    631                              return;   
    632                            }         //ę ďĺęĺň áĺăčí
    633                            else
    634                            {
    635                             if(temp==0x7e)
   \                     ??recive_buf1_0:
   \   00000070   370E               CPI     R16, 126
   \   00000072   F421               BRNE    ??recive_buf1_4
    636                                    {
    637                                  //  if(ppp_packet.rcvd==1)???????????????                          
    638                                    fl_rx_ppp.fl_7e=1;   
   \   00000074   2F01               MOV     R16, R17
   \   00000076   ....               RCALL   ?Subroutine3
    639                                    Buf1_rx_ppp.data[0]=temp;  
    640                                    Buf1_rx_ppp.ln_data=1;
    641                                    S2_GR; 
   \                     ??CrossCallReturnLabel_166:
   \   00000078   9840               CBI     0x08, 0x00
   \   0000007A   9A41               SBI     0x08, 0x01
   \                     ??recive_buf1_4:
   \   0000007C   9508               RET
    642                                    }
    643                            }
    644            }

   \                                 In segment FARCODE, align 2, keep-with-next
   \                     ?Subroutine84:
   \   00000000   8301               STD     Z+1, R16
   \   00000002   9508               RET

   \                                 In segment FARCODE, align 2, keep-with-next
   \                     ?Subroutine3:
   \   00000000   6001               ORI     R16, 0x01
   \   00000002   8301               STD     Z+1, R16
   \   00000004   E70E               LDI     R16, 126
   \   00000006   9300....           STS     Buf1_rx_ppp, R16
   \   0000000A   E001               LDI     R16, 1
   \   0000000C   E010               LDI     R17, 0
   \   0000000E   ....               LDI     R30, LOW((Buf1_rx_ppp + 330))
   \   00000010   ....               LDI     R31, HIGH((Buf1_rx_ppp + 330))
   \   00000012                      REQUIRE ?Subroutine81
   \   00000012                      ;               // Fall through to label ?Subroutine81

   \                                 In segment FARCODE, align 2, keep-with-next
   \                     ?Subroutine81:
   \   00000000   8300               ST      Z, R16
   \   00000002   8311               STD     Z+1, R17
   \   00000004   9508               RET

   \                                 In segment FARCODE, align 2, keep-with-next
   \                     ?Subroutine18:
   \   00000000   0FE2               ADD     R30, R18
   \   00000002   1FF3               ADC     R31, R19
   \   00000004   9110....           LDS     R17, (point_Head + 1)
   \   00000008   9508               RET

   \                                 In segment FARCODE, align 2, keep-with-next
   \                     ?Subroutine17:
   \   00000000   910000C1           LDS     R16, 193
   \   00000004   7E0F               ANDI    R16, 0xEF
   \   00000006   930000C1           STS     193, R16
   \   0000000A   910000C1           LDS     R16, 193
   \   0000000E   770F               ANDI    R16, 0x7F
   \   00000010   930000C1           STS     193, R16
   \   00000014   9508               RET

   \                                 In segment FARCODE, align 2, keep-with-next
   \                     ?Subroutine16:
   \   00000000   ....               LDI     R30, LOW(point_Head)
   \   00000002   ....               LDI     R31, (point_Head) >> 8
   \   00000004   9508               RET

   \                                 In segment FARCODE, align 2, keep-with-next
   \                     ?Subroutine15:
   \   00000000   ....               LDI     R30, LOW(point_Head)
   \   00000002   ....               LDI     R31, (point_Head) >> 8
   \   00000004   8101               LDD     R16, Z+1
   \   00000006   6002               ORI     R16, 0x02
   \   00000008   9508               RET

   \                                 In segment FARCODE, align 2, keep-with-next
   \                     ?Subroutine13:
   \   00000000   8120               LD      R18, Z
   \   00000002   8131               LDD     R19, Z+1
   \   00000004   342A               CPI     R18, 74
   \   00000006   E011               LDI     R17, 1
   \   00000008   0731               CPC     R19, R17
   \   0000000A   9508               RET

   \                                 In segment FARCODE, align 2, keep-with-next
   \                     ?Subroutine10:
   \   00000000   8120               LD      R18, Z
   \   00000002   8131               LDD     R19, Z+1
   \   00000004   5F2F               SUBI    R18, 255
   \   00000006   4F3F               SBCI    R19, 255
   \   00000008   8320               ST      Z, R18
   \   0000000A   8331               STD     Z+1, R19
   \   0000000C   ....               RJMP    ?Subroutine83

   \                                 In segment FARCODE, align 2, keep-with-next
   \                     ?Subroutine9:
   \   00000000   9840               CBI     0x08, 0x00
   \   00000002   9841               CBI     0x08, 0x01
   \   00000004   ....               LDI     R30, LOW(point_Head)
   \   00000006   ....               LDI     R31, (point_Head) >> 8
   \   00000008   8101               LDD     R16, Z+1
   \   0000000A   9508               RET

   \                                 In segment FARCODE, align 2, keep-with-next
   \                     ?Subroutine5:
   \   00000000   E000               LDI     R16, 0
   \   00000002   8300               ST      Z, R16
   \   00000004   8301               STD     Z+1, R16
   \   00000006   ....               LDI     R30, LOW(point_Head)
   \   00000008   ....               LDI     R31, (point_Head) >> 8
   \   0000000A   8101               LDD     R16, Z+1
   \   0000000C   7F0C               ANDI    R16, 0xFC
   \   0000000E   8301               STD     Z+1, R16
   \   00000010                      REQUIRE ?Subroutine80
   \   00000010                      ;               // Fall through to label ?Subroutine80

   \                                 In segment FARCODE, align 2, keep-with-next
   \                     ?Subroutine0:
   \   00000000   8100               LD      R16, Z
   \   00000002   8111               LDD     R17, Z+1
   \   00000004   5F0F               SUBI    R16, 255
   \   00000006   4F1F               SBCI    R17, 255
   \   00000008   8300               ST      Z, R16
   \   0000000A   8311               STD     Z+1, R17
   \   0000000C   ....               LDI     R30, LOW(point_Head)
   \   0000000E   ....               LDI     R31, (point_Head) >> 8
   \   00000010   8101               LDD     R16, Z+1
   \   00000012   7F0D               ANDI    R16, 0xFD
   \   00000014   9508               RET
    645           
    646          
    647          
    648          

   \                                 In segment FARCODE, align 2, keep-with-next
    649          void recive_buf2(unsigned char temp)
   \                     recive_buf2:
    650            {
    651            
    652           // if(Regim==RG_DEBAG)UDR1=temp;  //!!!!!!!! poka
    653              
    654            if(fl_rx_ppp.fl_7e==1)
   \   00000000   ....               RCALL   ?Subroutine16
   \                     ??CrossCallReturnLabel_33:
   \   00000002   8111               LDD     R17, Z+1
   \   00000004   FF10               SBRS    R17, 0
   \   00000006   C032               RJMP    ??recive_buf2_0
    655                            { 
    656                             
    657                             
    658                              if(Buf2_rx_ppp.ln_data>=VOL_RX_PPP)// ďđîâĺđęŕ íŕ ďĺđĺďîëíĺíčĺ ďĺđâîăî áóôĺđŕ
   \   00000008   ....               LDI     R30, LOW((Buf2_rx_ppp + 330))
   \   0000000A   ....               LDI     R31, HIGH((Buf2_rx_ppp + 330))
   \   0000000C   ....               RCALL   ?Subroutine13
   \                     ??CrossCallReturnLabel_26:
   \   0000000E   F008               BRCS    ??recive_buf2_1
    659                              {
    660                                 Buf2_rx_ppp.ln_data=0;
   \   00000010   ....               RJMP    ?Subroutine5
    661                                 fl_rx_ppp.fl_7e=0;
    662                                 fl_rx_ppp.fl_7d=0;
    663                                 S2_OFF;
    664                            //     S3_GR;//!!!!proverka
    665                                 return;
    666                              }
    667            
    668                               
    669                              // //////////óęëŕäęŕ
    670                              if(temp==0x7d)
   \                     ??recive_buf2_1:
   \   00000012   370D               CPI     R16, 125
   \   00000014   F411               BRNE    ??recive_buf2_2
    671                                 {  
    672                                   fl_rx_ppp.fl_7d=1;
   \   00000016   ....               RCALL   ?Subroutine15
   \                     ??CrossCallReturnLabel_30:
   \   00000018   C00B               RJMP    ??CrossCallReturnLabel_1
    673                                   return;
    674                                 }
    675                                  else
    676                                 {  
    677                                   if (fl_rx_ppp.fl_7d==1)
   \                     ??recive_buf2_2:
   \   0000001A   ....               LDI     R30, LOW(Buf2_rx_ppp)
   \   0000001C   ....               LDI     R31, (Buf2_rx_ppp) >> 8
   \   0000001E   ....               RCALL   ?Subroutine18
   \                     ??CrossCallReturnLabel_36:
   \   00000020   FF11               SBRS    R17, 1
   \   00000022   C007               RJMP    ??recive_buf2_3
    678                                      { 
    679                                        Buf2_rx_ppp.data[Buf2_rx_ppp.ln_data]=temp ^ 0x20;
   \   00000024   E210               LDI     R17, 32
   \   00000026   2710               EOR     R17, R16
   \   00000028   8310               ST      Z, R17
    680                                        Buf2_rx_ppp.ln_data++;
   \   0000002A   ....               LDI     R30, LOW((Buf2_rx_ppp + 330))
   \   0000002C   ....               LDI     R31, HIGH((Buf2_rx_ppp + 330))
   \   0000002E   ....               RCALL   ?Subroutine0
    681                                        fl_rx_ppp.fl_7d=0;
   \                     ??CrossCallReturnLabel_1:
   \   00000030   ....               RJMP    ?Subroutine84
    682                                        
    683                                        /*                    
    684                                        if((temp>=0x20)&&(temp<0x40)){Buf2_rx_ppp.data[Buf2_rx_ppp.ln_data]=temp-0x20;Buf2_rx_ppp.ln_data++;fl_rx_ppp.fl_7d=0;return;}                                
    685                                        if(temp==0x5e){Buf2_rx_ppp.data[Buf2_rx_ppp.ln_data]=0x7e;Buf2_rx_ppp.ln_data++;fl_rx_ppp.fl_7d=0;return;}  
    686                                        if(temp==0x5d){Buf2_rx_ppp.data[Buf2_rx_ppp.ln_data]=0x7d;Buf2_rx_ppp.ln_data++;fl_rx_ppp.fl_7d=0;return;} 
    687                                        Buf2_rx_ppp.ln_data=0;
    688                                        fl_rx_ppp.fl_7e=0;
    689                                        fl_rx_ppp.fl_7d=0;
    690                                        S3_RD;//!!!!proverka
    691                                        S2_OFF;
    692                                        */
    693                                        return;
    694                                       }  
    695                                      else
    696                                        {        
    697                                             Buf2_rx_ppp.data[Buf2_rx_ppp.ln_data]=temp;
   \                     ??recive_buf2_3:
   \   00000032   8300               ST      Z, R16
    698                                             Buf2_rx_ppp.ln_data++;                                                  
   \   00000034   ....               LDI     R30, LOW((Buf2_rx_ppp + 330))
   \   00000036   ....               LDI     R31, HIGH((Buf2_rx_ppp + 330))
   \   00000038   ....               RCALL   ?Subroutine10
    699                                  
    700                                               if(temp==0x7e)         //íĺň ďĺđĺďîëíĺíč˙
   \                     ??CrossCallReturnLabel_168:
   \   0000003A   F4F1               BRNE    ??recive_buf2_4
    701                                                  {  
    702                                                   if(Buf2_rx_ppp.ln_data<=2) //ĺńëč ďîäđ˙ä äâŕ 0x7e 
   \   0000003C   91E0....           LDS     R30, (Buf2_rx_ppp + 330)
   \   00000040   2FF3               MOV     R31, R19
   \   00000042   9733               SBIW    R31:R30, 3
   \   00000044   F418               BRCC    ??recive_buf2_5
    703                                                       {
    704                                                        /*
    705                                                         if((layer_PPP==LAYER_IP)&&(Buf2_rx_ppp.ln_data==2))
    706                                                        {
    707                                                         S5_RD;//proverka!!!!!
    708                                                         while(1)__watchdog_reset();//proverka!!!!!
    709                                                        }
    710                                                        */
    711                                                         
    712                                                         //  if(ppp_packet.rcvd==1)???????????????
    713                                                        fl_rx_ppp.fl_7e=1;   
   \   00000046   ....               RCALL   ?Subroutine16
   \                     ??CrossCallReturnLabel_34:
   \   00000048   8101               LDD     R16, Z+1
   \   0000004A   ....               RJMP    ?Subroutine4
    714                                                        Buf2_rx_ppp.data[0]=temp;  
    715                                                        Buf2_rx_ppp.ln_data=1; 
    716                                                        return;
    717                                                        }
    718            
    719          
    720                                                   S2_OFF;
   \                     ??recive_buf2_5:
   \   0000004C   ....               RCALL   ?Subroutine9
    721                                                   fl_rx_ppp.fl_7e=0;
    722                                                   fl_rx_ppp.switcher=0;
   \                     ??CrossCallReturnLabel_22:
   \   0000004E   7F0A               ANDI    R16, 0xFA
   \   00000050   8301               STD     Z+1, R16
    723                                                   Buf2_rx_ppp.rec=TRUE; 
   \   00000052   E001               LDI     R16, 1
   \   00000054   9300....           STS     (Buf2_rx_ppp + 332), R16
    724                                                   Buf2_rx_ppp.busy=TRUE;
   \   00000058   9300....           STS     (Buf2_rx_ppp + 333), R16
    725                                                   if(Buf1_rx_ppp.busy==TRUE)
   \   0000005C   9100....           LDS     R16, (Buf1_rx_ppp + 333)
   \   00000060   3001               CPI     R16, 1
   \   00000062   F451               BRNE    ??recive_buf2_4
    726                                                    {
    727                                                     
    728                                                     Buf1_rx_ppp.check_busy=TRUE;
   \   00000064   E001               LDI     R16, 1
   \   00000066   9300....           STS     (Buf1_rx_ppp + 334), R16
    729                                                     UCSR0B=UCSR0B & ~RXEN;
   \   0000006A   ....               RJMP    ?Subroutine17
    730                                                     UCSR0B=UCSR0B & ~RXCIE; 
    731                                                    }
    732                                                   return;
    733                                                  }  
    734                                         }
    735                            
    736                                  }
    737                                              
    738                              return;   
    739                            }         //ę ďĺęĺň áĺăčí
    740                            else
    741                            {
    742                             if(temp==0x7e)
   \                     ??recive_buf2_0:
   \   0000006C   370E               CPI     R16, 126
   \   0000006E   F421               BRNE    ??recive_buf2_4
    743                                    {
    744                                  //  if(ppp_packet.rcvd==1)???????????????
    745                                    fl_rx_ppp.fl_7e=1;   
   \   00000070   2F01               MOV     R16, R17
   \   00000072   ....               RCALL   ?Subroutine4
    746                                    Buf2_rx_ppp.data[0]=temp;  
    747                                    Buf2_rx_ppp.ln_data=1; 
    748                                    S2_GR;
   \                     ??CrossCallReturnLabel_165:
   \   00000074   9840               CBI     0x08, 0x00
   \   00000076   9A41               SBI     0x08, 0x01
   \                     ??recive_buf2_4:
   \   00000078   9508               RET
    749                                    }        
    750                            }
    751            } 

   \                                 In segment FARCODE, align 2, keep-with-next
   \                     ?Subroutine4:
   \   00000000   6001               ORI     R16, 0x01
   \   00000002   8301               STD     Z+1, R16
   \   00000004   E70E               LDI     R16, 126
   \   00000006   9300....           STS     Buf2_rx_ppp, R16
   \   0000000A   E001               LDI     R16, 1
   \   0000000C   E010               LDI     R17, 0
   \   0000000E   ....               LDI     R30, LOW((Buf2_rx_ppp + 330))
   \   00000010   ....               LDI     R31, HIGH((Buf2_rx_ppp + 330))
   \   00000012   ....               RJMP    ?Subroutine81
    752           //EEEEEEEEEEEEEEEEEEEEEEEEEEEEEEEEEEEEEEEEEEEEEEEEEEEEEEEEEEEEEEE
    753          
    754          
    755          
    756          
    757          
    758          
    759          //////////////////////////////////////////////////////////////////////////////////////////////
    760          #pragma vector=TIMER0_COMPA_vect       

   \                                 In segment CODE, align 2, keep-with-next
    761               __interrupt void TIMER0_COMPA_interrupt(void)
   \                     TIMER0_COMPA_interrupt:
    762           {
   \   00000000   ....               RCALL   ?Subroutine19
   \                     ??CrossCallReturnLabel_37:
   \   00000002                      REQUIRE ?Register_R4_is_cg_reg
    763             
    764             
    765             fl_wdt.from_timer0=1;
   \   00000002   ....               RCALL   ?Subroutine26
   \                     ??CrossCallReturnLabel_53:
   \   00000004   6004               ORI     R16, 0x04
   \   00000006   8300               ST      Z, R16
    766             
    767             // __enable_interrupt();
    768             
    769             
    770             if(PING & TCC1)struct_tcc1.tek_pin=1;else struct_tcc1.tek_pin=0;
   \   00000008   ....               LDI     R26, LOW(struct_tcc1)
   \   0000000A   ....               LDI     R27, (struct_tcc1) >> 8
   \   0000000C   910C               LD      R16, X
   \   0000000E   9B92               SBIS    0x12, 0x02
   \   00000010   C002               RJMP    ??TIMER0_COMPA_interrupt_0
   \   00000012   6001               ORI     R16, 0x01
   \   00000014   C001               RJMP    ??TIMER0_COMPA_interrupt_1
   \                     ??TIMER0_COMPA_interrupt_0:
   \   00000016   7F0E               ANDI    R16, 0xFE
   \                     ??TIMER0_COMPA_interrupt_1:
   \   00000018   930C               ST      X, R16
    771             
    772             if(struct_tcc1.fl_ch_tc==1)
   \   0000001A   910C               LD      R16, X
   \   0000001C   FF02               SBRS    R16, 2
   \   0000001E   C008               RJMP    ??TIMER0_COMPA_interrupt_2
    773               {
    774                 struct_tcc1.count_tc--;
   \   00000020   9612               ADIW    R27:R26, 2
   \   00000022   ....               RCALL   ?Subroutine39
    775                 if(struct_tcc1.count_tc==0)
   \                     ??CrossCallReturnLabel_87:
   \   00000024   9713               SBIW    R27:R26, 3
   \   00000026   2B01               OR      R16, R17
   \   00000028   F471               BRNE    ??TIMER0_COMPA_interrupt_3
    776                 {
    777                   struct_tcc1.fl_ch_tc=0;
   \   0000002A   ....               RCALL   ?Subroutine38
    778                   struct_tcc1.real_tc=0x01 & (~struct_tcc1.tek_pin);
   \                     ??CrossCallReturnLabel_209:
   \   0000002C   9711               SBIW    R27:R26, 1
   \   0000002E   C00B               RJMP    ??TIMER0_COMPA_interrupt_3
    779               //    modbus_mem1[AD_TS]=(modbus_mem1[AD_TS] & (~(0x01<<14))) | (struct_tcc1.real_tc <<14);       // 15 02 2016
    780                 }
    781               } 
    782               else
    783               {
    784                 if(struct_tcc1.tek_pin!=struct_tcc1.old_pin)
   \                     ??TIMER0_COMPA_interrupt_2:
   \   00000030   7001               ANDI    R16, 0x01
   \   00000032   911C               LD      R17, X
   \   00000034   ....               RCALL   ?Subroutine47
   \                     ??CrossCallReturnLabel_110:
   \   00000036   F039               BREQ    ??TIMER0_COMPA_interrupt_3
    785                 {
    786                  struct_tcc1.fl_ch_tc=1;
   \   00000038   ....               RCALL   ?Subroutine42
    787                  struct_tcc1.count_tc=882;
   \                     ??CrossCallReturnLabel_213:
   \   0000003A   E702               LDI     R16, 114
   \   0000003C   E013               LDI     R17, 3
   \   0000003E   9612               ADIW    R27:R26, 2
   \   00000040   930D               ST      X+, R16
   \   00000042   931C               ST      X, R17
   \   00000044   9713               SBIW    R27:R26, 3
    788                 }
    789               }
    790              struct_tcc1.old_pin=struct_tcc1.tek_pin;
   \                     ??TIMER0_COMPA_interrupt_3:
   \   00000046   ....               RCALL   ?Subroutine40
    791             
    792             
    793             if(PINA & TCC2)struct_tcc2.tek_pin=1;else struct_tcc2.tek_pin=0;
   \                     ??CrossCallReturnLabel_211:
   \   00000048   9616               ADIW    R27:R26, 6
   \   0000004A   910C               LD      R16, X
   \   0000004C   9B07               SBIS    0x00, 0x07
   \   0000004E   C002               RJMP    ??TIMER0_COMPA_interrupt_4
   \   00000050   6001               ORI     R16, 0x01
   \   00000052   C001               RJMP    ??TIMER0_COMPA_interrupt_5
   \                     ??TIMER0_COMPA_interrupt_4:
   \   00000054   7F0E               ANDI    R16, 0xFE
   \                     ??TIMER0_COMPA_interrupt_5:
   \   00000056   930C               ST      X, R16
   \   00000058   9716               SBIW    R27:R26, 6
    794             
    795             if(struct_tcc2.fl_ch_tc==1)
   \   0000005A   9616               ADIW    R27:R26, 6
   \   0000005C   910C               LD      R16, X
   \   0000005E   9716               SBIW    R27:R26, 6
   \   00000060   FF02               SBRS    R16, 2
   \   00000062   C009               RJMP    ??TIMER0_COMPA_interrupt_6
    796               {
    797                 struct_tcc2.count_tc--;
   \   00000064   9618               ADIW    R27:R26, 8
   \   00000066   ....               RCALL   ?Subroutine39
    798                 if(struct_tcc2.count_tc==0)
   \                     ??CrossCallReturnLabel_88:
   \   00000068   9719               SBIW    R27:R26, 9
   \   0000006A   2B01               OR      R16, R17
   \   0000006C   F491               BRNE    ??TIMER0_COMPA_interrupt_7
    799                 {
    800                   struct_tcc2.fl_ch_tc=0;
   \   0000006E   9616               ADIW    R27:R26, 6
   \   00000070   ....               RCALL   ?Subroutine38
    801                   struct_tcc2.real_tc=0x01 & (~struct_tcc2.tek_pin);
   \                     ??CrossCallReturnLabel_210:
   \   00000072   9717               SBIW    R27:R26, 7
   \   00000074   C00E               RJMP    ??TIMER0_COMPA_interrupt_7
    802               //    modbus_mem1[AD_TS]=(modbus_mem1[AD_TS] & (~(0x01<<15))) | (struct_tcc2.real_tc <<15);  // 15 02 2016
    803                 }
    804               } 
    805               else
    806               {
    807                 if(struct_tcc2.tek_pin!=struct_tcc2.old_pin)
   \                     ??TIMER0_COMPA_interrupt_6:
   \   00000076   7001               ANDI    R16, 0x01
   \   00000078   9616               ADIW    R27:R26, 6
   \   0000007A   911C               LD      R17, X
   \   0000007C   9716               SBIW    R27:R26, 6
   \   0000007E   ....               RCALL   ?Subroutine47
   \                     ??CrossCallReturnLabel_111:
   \   00000080   F041               BREQ    ??TIMER0_COMPA_interrupt_7
    808                 {
    809                  struct_tcc2.fl_ch_tc=1;
   \   00000082   9616               ADIW    R27:R26, 6
   \   00000084   ....               RCALL   ?Subroutine42
   \                     ??CrossCallReturnLabel_214:
   \   00000086   9612               ADIW    R27:R26, 2
    810                  struct_tcc2.count_tc=882;
   \   00000088   E702               LDI     R16, 114
   \   0000008A   E013               LDI     R17, 3
   \   0000008C   930D               ST      X+, R16
   \   0000008E   931C               ST      X, R17
   \   00000090   9719               SBIW    R27:R26, 9
    811                 }
    812               }
    813              struct_tcc2.old_pin=struct_tcc2.tek_pin;
   \                     ??TIMER0_COMPA_interrupt_7:
   \   00000092   9616               ADIW    R27:R26, 6
   \   00000094   ....               RCALL   ?Subroutine40
   \                     ??CrossCallReturnLabel_212:
   \   00000096   9716               SBIW    R27:R26, 6
    814             
    815             
    816             
    817                opros_ts(14,PING,TCC1,&str_tc15);
   \   00000098   01AD               MOVW    R21:R20, R27:R26
   \   0000009A   5E44               SUBI    R20, 228
   \   0000009C   4F5F               SBCI    R21, 255
   \   0000009E   E024               LDI     R18, 4
   \   000000A0   B312               IN      R17, 0x12
   \   000000A2   E00E               LDI     R16, 14
   \   000000A4   ....               RCALL   ?Subroutine50
    818                opros_ts(15,PINA,TCC2,&str_tc16);
   \                     ??CrossCallReturnLabel_112:
   \   000000A6   5E42               SUBI    R20, 226
   \   000000A8   4F5F               SBCI    R21, 255
   \   000000AA   E820               LDI     R18, 128
   \   000000AC   B110               IN      R17, 0x00
   \   000000AE   E00F               LDI     R16, 15
   \   000000B0   ....               RCALL   ?Subroutine51
    819             
    820              if(sel_modul==1)
   \                     ??CrossCallReturnLabel_120:
   \   000000B2   9100....           LDS     R16, sel_modul
   \   000000B6   3001               CPI     R16, 1
   \   000000B8   01AD               MOVW    R21:R20, R27:R26
   \   000000BA   F4A1               BRNE    ??TIMER0_COMPA_interrupt_8
    821              {
    822                opros_ts(0,PINA,IO3,&str_tc1);
   \   000000BC   5F44               SUBI    R20, 244
   \   000000BE   4F5F               SBCI    R21, 255
   \   000000C0   E021               LDI     R18, 1
   \   000000C2   B110               IN      R17, 0x00
   \   000000C4   E000               LDI     R16, 0
   \   000000C6   ....               RCALL   ?Subroutine50
    823                opros_ts(1,PINJ,IO4,&str_tc2);
   \                     ??CrossCallReturnLabel_113:
   \   000000C8   5F42               SUBI    R20, 242
   \   000000CA   ....               RCALL   ?Subroutine52
   \                     ??CrossCallReturnLabel_121:
   \   000000CC   ....               RCALL   ?Subroutine49
    824                opros_ts(2,PINA,IO5,&str_tc3);
   \                     ??CrossCallReturnLabel_207:
   \   000000CE   E024               LDI     R18, 4
   \   000000D0   ....               RCALL   ?Subroutine48
    825                opros_ts(3,PINK,IO6,&str_tc4);
   \                     ??CrossCallReturnLabel_205:
   \   000000D2   ....               RCALL   ?Subroutine56
   \                     ??CrossCallReturnLabel_126:
   \   000000D4   E003               LDI     R16, 3
   \   000000D6   ....               RCALL   ?Subroutine51
    826                opros_ts(4,PINK,IO8,&str_tc5);
   \                     ??CrossCallReturnLabel_119:
   \   000000D8   9654               ADIW    R27:R26, 20
   \   000000DA   01AD               MOVW    R21:R20, R27:R26
   \   000000DC   E024               LDI     R18, 4
   \   000000DE   ....               RCALL   ??Subroutine56_0
   \                     ??CrossCallReturnLabel_127:
   \   000000E0   E004               LDI     R16, 4
   \   000000E2   C01F               RJMP    ??TIMER0_COMPA_interrupt_9
    827                
    828               
    829          
    830              }
    831          
    832                else
    833                {
    834                 opros_ts(1,PINK,IO2,&str_tc2);
   \                     ??TIMER0_COMPA_interrupt_8:
   \   000000E4   5F42               SUBI    R20, 242
   \   000000E6   4F5F               SBCI    R21, 255
   \   000000E8   E420               LDI     R18, 64
   \   000000EA   ....               RCALL   ??Subroutine56_0
   \                     ??CrossCallReturnLabel_128:
   \   000000EC   ....               RCALL   ?Subroutine49
    835                 opros_ts(2,PINA,IO3,&str_tc3);
   \                     ??CrossCallReturnLabel_208:
   \   000000EE   E021               LDI     R18, 1
   \   000000F0   ....               RCALL   ?Subroutine48
    836                 opros_ts(3,PINK,IO8,&str_tc4);
   \                     ??CrossCallReturnLabel_206:
   \   000000F2   E024               LDI     R18, 4
   \   000000F4   ....               RCALL   ??Subroutine56_0
   \                     ??CrossCallReturnLabel_129:
   \   000000F6   E003               LDI     R16, 3
   \   000000F8   ....               RCALL   ?Subroutine50
    837                 opros_ts(4,PINJ,IO4,&str_tc5); 
   \                     ??CrossCallReturnLabel_114:
   \   000000FA   5E4C               SUBI    R20, 236
   \   000000FC   ....               RCALL   ?Subroutine52
   \                     ??CrossCallReturnLabel_122:
   \   000000FE   E004               LDI     R16, 4
   \   00000100   ....               RCALL   ?Subroutine50
    838                 opros_ts(5,PINA,IO5,&str_tc6);
   \                     ??CrossCallReturnLabel_115:
   \   00000102   5E4A               SUBI    R20, 234
   \   00000104   4F5F               SBCI    R21, 255
   \   00000106   E024               LDI     R18, 4
   \   00000108   B110               IN      R17, 0x00
   \   0000010A   E005               LDI     R16, 5
   \   0000010C   ....               RCALL   ?Subroutine50
    839                 opros_ts(6,PINK,IO6,&str_tc7);
   \                     ??CrossCallReturnLabel_116:
   \   0000010E   5E48               SUBI    R20, 232
   \   00000110   4F5F               SBCI    R21, 255
   \   00000112   ....               RCALL   ?Subroutine56
   \                     ??CrossCallReturnLabel_130:
   \   00000114   E006               LDI     R16, 6
   \   00000116   ....               RCALL   ?Subroutine51
    840                 opros_ts(7,PINA,IO7,&str_tc8);
   \                     ??CrossCallReturnLabel_118:
   \   00000118   965A               ADIW    R27:R26, 26
   \   0000011A   01AD               MOVW    R21:R20, R27:R26
   \   0000011C   E022               LDI     R18, 2
   \   0000011E   B110               IN      R17, 0x00
   \   00000120   E007               LDI     R16, 7
   \                     ??TIMER0_COMPA_interrupt_9:
   \   00000122   ....               RCALL   ?Subroutine51
    841                }
    842           }
   \                     ??CrossCallReturnLabel_117:
   \   00000124                      REQUIRE ?Subroutine85
   \   00000124                      ;               // Fall through to label ?Subroutine85

   \                                 In segment CODE, align 2, keep-with-next
   \                     ?Subroutine85:
   \   00000000   ....               RCALL   ?Subroutine53
   \                     ??CrossCallReturnLabel_171:
   \   00000002   9518               RETI

   \                                 In segment CODE, align 2, keep-with-next
   \                     ?Subroutine56:
   \   00000000   E120               LDI     R18, 16
   \                     ??Subroutine56_0:
   \   00000002   91100106           LDS     R17, 262
   \   00000006   9508               RET

   \                                 In segment CODE, align 2, keep-with-next
   \                     ?Subroutine52:
   \   00000000   4F5F               SBCI    R21, 255
   \   00000002   E820               LDI     R18, 128
   \   00000004   91100103           LDS     R17, 259
   \   00000008   9508               RET

   \                                 In segment CODE, align 2, keep-with-next
   \                     ?Subroutine51:
   \   00000000   ........           JMP     opros_ts

   \                                 In segment CODE, align 2, keep-with-next
   \                     ?Subroutine50:
   \   00000000   ........           CALL    opros_ts
   \   00000004   01AD               MOVW    R21:R20, R27:R26
   \   00000006   9508               RET

   \                                 In segment CODE, align 2, keep-with-next
   \                     ?Subroutine49:
   \   00000000   E001               LDI     R16, 1
   \   00000002   ........           CALL    opros_ts
   \   00000006   01AD               MOVW    R21:R20, R27:R26
   \   00000008   5F40               SUBI    R20, 240
   \   0000000A                      REQUIRE ?Subroutine96
   \   0000000A                      ;               // Fall through to label ?Subroutine96

   \                                 In segment CODE, align 2, keep-with-next
   \                     ?Subroutine96:
   \   00000000   4F5F               SBCI    R21, 255
   \   00000002   9508               RET

   \                                 In segment CODE, align 2, keep-with-next
   \                     ?Subroutine48:
   \   00000000   B110               IN      R17, 0x00
   \   00000002   E002               LDI     R16, 2
   \   00000004   ........           CALL    opros_ts
   \   00000008   01AD               MOVW    R21:R20, R27:R26
   \   0000000A   5E4E               SUBI    R20, 238
   \   0000000C   ....               RJMP    ?Subroutine96

   \                                 In segment CODE, align 2, keep-with-next
   \                     ?Subroutine47:
   \   00000000   FB11               BST     R17, 1
   \   00000002   E010               LDI     R17, 0
   \   00000004   F910               BLD     R17, 0
   \   00000006   1701               CP      R16, R17
   \   00000008   9508               RET

   \                                 In segment CODE, align 2, keep-with-next
   \                     ?Subroutine40:
   \   00000000   910C               LD      R16, X
   \   00000002   7001               ANDI    R16, 0x01
   \   00000004   FB00               BST     R16, 0
   \   00000006   910C               LD      R16, X
   \   00000008   F901               BLD     R16, 1
   \   0000000A                      REQUIRE ?Subroutine97
   \   0000000A                      ;               // Fall through to label ?Subroutine97

   \                                 In segment CODE, align 2, keep-with-next
   \                     ?Subroutine97:
   \   00000000   930C               ST      X, R16
   \   00000002   9508               RET

   \                                 In segment CODE, align 2, keep-with-next
   \                     ?Subroutine39:
   \   00000000   910D               LD      R16, X+
   \   00000002   911C               LD      R17, X
   \   00000004   5001               SUBI    R16, 1
   \   00000006   4010               SBCI    R17, 0
   \   00000008   931C               ST      X, R17
   \   0000000A   930E               ST      -X, R16
   \   0000000C   9611               ADIW    R27:R26, 1
   \   0000000E   9508               RET

   \                                 In segment CODE, align 2, keep-with-next
   \                     ?Subroutine38:
   \   00000000   910C               LD      R16, X
   \   00000002   7F0B               ANDI    R16, 0xFB
   \   00000004   930D               ST      X+, R16
   \   00000006   7001               ANDI    R16, 0x01
   \   00000008   9500               COM     R16
   \   0000000A   7001               ANDI    R16, 0x01
   \   0000000C   ....               RJMP    ?Subroutine97

   \                                 In segment CODE, align 2, keep-with-next
   \                     ?Subroutine53:
   \   00000000   BE4C               OUT     0x3C, R4
   \   00000002   BF9B               OUT     0x3B, R25
   \   00000004   BF8F               OUT     0x3F, R24
   \   00000006   9109               LD      R16, Y+
   \   00000008   9119               LD      R17, Y+
   \   0000000A   9129               LD      R18, Y+
   \   0000000C   9139               LD      R19, Y+
   \   0000000E   9149               LD      R20, Y+
   \   00000010   9159               LD      R21, Y+
   \   00000012   9169               LD      R22, Y+
   \   00000014   9179               LD      R23, Y+
   \   00000016   9009               LD      R0, Y+
   \   00000018   9019               LD      R1, Y+
   \   0000001A   9029               LD      R2, Y+
   \   0000001C   9039               LD      R3, Y+
   \   0000001E   91E9               LD      R30, Y+
   \   00000020   91F9               LD      R31, Y+
   \   00000022   9189               LD      R24, Y+
   \   00000024   9199               LD      R25, Y+
   \   00000026   91A9               LD      R26, Y+
   \   00000028   91B9               LD      R27, Y+
   \   0000002A   9049               LD      R4, Y+
   \   0000002C   9508               RET

   \                                 In segment CODE, align 2, keep-with-next
   \                     ?Subroutine19:
   \   00000000   924A               ST      -Y, R4
   \   00000002   93BA               ST      -Y, R27
   \   00000004   93AA               ST      -Y, R26
   \   00000006   939A               ST      -Y, R25
   \   00000008   938A               ST      -Y, R24
   \   0000000A   93FA               ST      -Y, R31
   \   0000000C   93EA               ST      -Y, R30
   \   0000000E   923A               ST      -Y, R3
   \   00000010   922A               ST      -Y, R2
   \   00000012   921A               ST      -Y, R1
   \   00000014   920A               ST      -Y, R0
   \   00000016   937A               ST      -Y, R23
   \   00000018   936A               ST      -Y, R22
   \   0000001A   935A               ST      -Y, R21
   \   0000001C   934A               ST      -Y, R20
   \   0000001E   933A               ST      -Y, R19
   \   00000020   932A               ST      -Y, R18
   \   00000022   931A               ST      -Y, R17
   \   00000024   930A               ST      -Y, R16
   \   00000026   B78F               IN      R24, 0x3F
   \   00000028   B79B               IN      R25, 0x3B
   \   0000002A   B64C               IN      R4, 0x3C
   \   0000002C   9508               RET

   \                                 In segment CODE, align 2, keep-with-next
   \                     ?Subroutine42:
   \   00000000   910C               LD      R16, X
   \   00000002   6004               ORI     R16, 0x04
   \   00000004   ....               RJMP    ?Subroutine97

   \                                 In segment CODE, align 2, keep-with-next
   \                     ?Subroutine26:
   \   00000000   ....               LDI     R30, LOW(fl_wdt)
   \   00000002   ....               LDI     R31, (fl_wdt) >> 8
   \   00000004   8100               LD      R16, Z
   \   00000006   9508               RET
    843          //////////////////////////////////////////////1/16000000///////////////////////////////////////////////
    844          
    845          
    846          
    847          //////////////////////////////////////////////////////////////////////////////////////////
    848          #pragma vector=TIMER2_COMPA_vect     //1 ěčëëčńĺęóíäŕ

   \                                 In segment CODE, align 2, keep-with-next
    849               __interrupt void TIMER2_COMPA_interrupt(void)
   \                     TIMER2_COMPA_interrupt:
    850            {
   \   00000000   ....               RCALL   ?Subroutine19
   \                     ??CrossCallReturnLabel_38:
   \   00000002                      REQUIRE ?Register_R4_is_cg_reg
    851            
    852             unsigned char temp;
    853              term.time_out_loop=0; 
   \   00000002   E000               LDI     R16, 0
   \   00000004   E010               LDI     R17, 0
   \   00000006   ....               LDI     R30, LOW(term)
   \   00000008   ....               LDI     R31, (term) >> 8
   \   0000000A   ....               RCALL   ??Subroutine37_0
    854              fl_wdt.from_timer2=1;
   \                     ??CrossCallReturnLabel_80:
   \   0000000C   ....               RCALL   ?Subroutine26
   \                     ??CrossCallReturnLabel_54:
   \   0000000E   6200               ORI     R16, 0x20
   \   00000010   8300               ST      Z, R16
    855              
    856              cnt_clr_wdt++;
   \   00000012   ....               LDI     R26, LOW(Rs485_1)
   \   00000014   ....               LDI     R27, (Rs485_1) >> 8
   \   00000016   01FD               MOVW    R31:R30, R27:R26
   \   00000018   AD00               LDD     R16, Z+56
   \   0000001A   9503               INC     R16
   \   0000001C   AF00               STD     Z+56, R16
    857            if (cnt_clr_wdt>=250)
   \   0000001E   3F0A               CPI     R16, 250
   \   00000020   F070               BRCS    ??TIMER2_COMPA_interrupt_0
    858               {
    859               cnt_clr_wdt=0;
   \   00000022   AF10               STD     Z+56, R17
    860               fl_wdt.clr_wdt=1;
   \   00000024   ....               RCALL   ?Subroutine26
   \                     ??CrossCallReturnLabel_55:
   \   00000026   6001               ORI     R16, 0x01
   \   00000028   8300               ST      Z, R16
    861               cnt_flag_out++;
   \   0000002A   01FD               MOVW    R31:R30, R27:R26
   \   0000002C   AD01               LDD     R16, Z+57
   \   0000002E   9503               INC     R16
   \   00000030   AF01               STD     Z+57, R16
    862               if (cnt_flag_out>=50)
   \   00000032   3302               CPI     R16, 50
   \   00000034   F020               BRCS    ??TIMER2_COMPA_interrupt_0
    863                 {
    864                  cnt_flag_out=0;
   \   00000036   AF11               STD     Z+57, R17
    865                  fl_wdt.fl_out=1;
   \   00000038   ....               RCALL   ?Subroutine26
   \                     ??CrossCallReturnLabel_56:
   \   0000003A   6002               ORI     R16, 0x02
   \   0000003C   8300               ST      Z, R16
    866                 } 
    867                }
    868              
    869             
    870              if(cnt_sec<DEF_CNT_SEC)cnt_sec++;
   \                     ??TIMER2_COMPA_interrupt_0:
   \   0000003E   ....               LDI     R30, LOW(cnt_sec)
   \   00000040   ....               LDI     R31, (cnt_sec) >> 8
   \   00000042   ....               RCALL   ?Subroutine35
   \                     ??CrossCallReturnLabel_71:
   \   00000044   3D06               CPI     R16, 214
   \   00000046   E023               LDI     R18, 3
   \   00000048   0712               CPC     R17, R18
   \   0000004A   F410               BRCC    ??CrossCallReturnLabel_175
   \   0000004C   ....               RCALL   ?Subroutine63
   \                     ??CrossCallReturnLabel_135:
   \   0000004E   ....               RCALL   ?Subroutine90
    871            
    872            
    873            
    874              if(fl_cts_232.on==1)
   \                     ??CrossCallReturnLabel_175:
   \   00000050   ....               LDI     R30, LOW(fl_cts_232)
   \   00000052   ....               LDI     R31, (fl_cts_232) >> 8
   \   00000054   8100               LD      R16, Z
   \   00000056   FF00               SBRS    R16, 0
   \   00000058   C025               RJMP    ??TIMER2_COMPA_interrupt_1
    875              {
    876                if(fl_cts_232_ignor==TRUE)
   \   0000005A   9100....           LDS     R16, fl_cts_232_ignor
   \   0000005E   3001               CPI     R16, 1
   \   00000060   F439               BRNE    ??CrossCallReturnLabel_146
    877                      {
    878                       fl_cts_232.on=0;
   \   00000062   ....               RCALL   ?Subroutine32
    879                       if(count_tx_ppp==0){S2_RD;UDR0=buf_tx_232[0];if(Regim==RG_DEBAG) UDR3=buf_tx_232[0];}
   \                     ??CrossCallReturnLabel_216:
   \   00000064   F421               BRNE    ??TIMER2_COMPA_interrupt_2
   \   00000066   ....               RCALL   ?Subroutine62
   \                     ??CrossCallReturnLabel_133:
   \   00000068   F419               BRNE    ??CrossCallReturnLabel_146
   \   0000006A   ....               RCALL   ?Subroutine66
   \                     ??CrossCallReturnLabel_142:
   \   0000006C   C001               RJMP    ??CrossCallReturnLabel_146
    880                          else sending_ppp_pac();
   \                     ??TIMER2_COMPA_interrupt_2:
   \   0000006E   ....               RCALL   ?Subroutine67
    881                  ///     return;!!!!!!!!!!!!!!!!!!!!!!!!!!!!!!!!!!!!!!!!!!
    882                       }
    883                
    884               // if ((PINE & CTS0)==0)  
    885                if (PINE & CTS0)  
   \                     ??CrossCallReturnLabel_146:
   \   00000070   9B64               SBIS    0x0C, 0x04
   \   00000072   C00E               RJMP    ??TIMER2_COMPA_interrupt_3
    886                {
    887                  cnt_cts_off=0;
   \   00000074   E000               LDI     R16, 0
   \   00000076   ....               LDI     R30, LOW(cnt_cts_off)
   \   00000078   ....               LDI     R31, (cnt_cts_off) >> 8
   \   0000007A   ....               RCALL   ??Subroutine37_0
    888                  fl_cts_232.on=0; 
   \                     ??CrossCallReturnLabel_81:
   \   0000007C   ....               LDI     R30, LOW(fl_cts_232)
   \   0000007E   ....               LDI     R31, (fl_cts_232) >> 8
   \   00000080   ....               RCALL   ?Subroutine32
    889                  if(count_tx_ppp==0){S2_RD;UDR0=buf_tx_232[0];if(Regim==RG_DEBAG) UDR3=buf_tx_232[0];}
   \                     ??CrossCallReturnLabel_217:
   \   00000082   F421               BRNE    ??TIMER2_COMPA_interrupt_4
   \   00000084   ....               RCALL   ?Subroutine62
   \                     ??CrossCallReturnLabel_134:
   \   00000086   F471               BRNE    ??TIMER2_COMPA_interrupt_1
   \   00000088   ....               RCALL   ?Subroutine66
   \                     ??CrossCallReturnLabel_143:
   \   0000008A   C00C               RJMP    ??TIMER2_COMPA_interrupt_1
    890                     else sending_ppp_pac(); 
   \                     ??TIMER2_COMPA_interrupt_4:
   \   0000008C   ....               RCALL   ?Subroutine67
   \                     ??CrossCallReturnLabel_145:
   \   0000008E   C00A               RJMP    ??TIMER2_COMPA_interrupt_1
    891                 } 
    892                 else
    893                  {
    894                  cnt_cts_off++;
   \                     ??TIMER2_COMPA_interrupt_3:
   \   00000090   ....               LDI     R30, LOW(cnt_cts_off)
   \   00000092   ....               LDI     R31, (cnt_cts_off) >> 8
   \   00000094   ....               RCALL   ?Subroutine29
    895                  if(cnt_cts_off>=10000)
   \                     ??CrossCallReturnLabel_180:
   \   00000096   3100               CPI     R16, 16
   \   00000098   4217               SBCI    R17, 39
   \   0000009A   F020               BRCS    ??TIMER2_COMPA_interrupt_1
    896                     {
    897                     cnt_cts_off=0;
   \   0000009C   ....               RCALL   ?Subroutine37
    898                     event_modem=EVM_CTS_ERR;
   \                     ??CrossCallReturnLabel_82:
   \   0000009E   E009               LDI     R16, 9
   \   000000A0   9300....           STS     event_modem, R16
    899                     }
    900                  }
    901              }
    902            
    903            
    904             fun_state_md(); 
   \                     ??TIMER2_COMPA_interrupt_1:
   \   000000A4   ........           CALL    fun_state_md
    905           
    906            
    907            if(Buf1_rx_ppp.check_busy==TRUE)
   \   000000A8   9100....           LDS     R16, (Buf1_rx_ppp + 334)
   \   000000AC   3001               CPI     R16, 1
   \   000000AE   F441               BRNE    ??CrossCallReturnLabel_201
    908               {
    909                if(Buf1_rx_ppp.busy==FALSE)
   \   000000B0   9100....           LDS     R16, (Buf1_rx_ppp + 333)
   \   000000B4   2300               TST     R16
   \   000000B6   F421               BRNE    ??CrossCallReturnLabel_201
    910                {
    911                Buf1_rx_ppp.check_busy=FALSE;
   \   000000B8   E000               LDI     R16, 0
   \   000000BA   9300....           STS     (Buf1_rx_ppp + 334), R16
    912                temp=UDR0; 
   \   000000BE   ....               RCALL   ?Subroutine64
    913                UCSR0B=UCSR0B | RXEN;
    914                UCSR0B=UCSR0B | RXCIE; 
    915                }    
    916               }  
    917            
    918            if(Buf2_rx_ppp.check_busy==TRUE)
   \                     ??CrossCallReturnLabel_201:
   \   000000C0   9100....           LDS     R16, (Buf2_rx_ppp + 334)
   \   000000C4   3001               CPI     R16, 1
   \   000000C6   F441               BRNE    ??CrossCallReturnLabel_202
    919               {
    920                if(Buf2_rx_ppp.busy==FALSE)
   \   000000C8   9100....           LDS     R16, (Buf2_rx_ppp + 333)
   \   000000CC   2300               TST     R16
   \   000000CE   F421               BRNE    ??CrossCallReturnLabel_202
    921                {
    922                Buf2_rx_ppp.check_busy=FALSE;
   \   000000D0   E000               LDI     R16, 0
   \   000000D2   9300....           STS     (Buf2_rx_ppp + 334), R16
    923                temp=UDR0; 
   \   000000D6   ....               RCALL   ?Subroutine64
    924                UCSR0B=UCSR0B | RXEN;
    925                UCSR0B=UCSR0B | RXCIE; 
    926                }    
    927               }   
    928              
    929             if (cnt_key_off==0)goto  next_step00;
   \                     ??CrossCallReturnLabel_202:
   \   000000D8   ....               LDI     R30, LOW(cnt_key_off)
   \   000000DA   ....               LDI     R31, (cnt_key_off) >> 8
   \   000000DC   ....               RCALL   ??Subroutine32_0
   \                     ??CrossCallReturnLabel_230:
   \   000000DE   F019               BREQ    ??TIMER2_COMPA_interrupt_5
    930                 cnt_key_off--;
   \   000000E0   ....               RCALL   ?Subroutine27
    931                 if (cnt_key_off==0) CLR_PWRK;
   \                     ??CrossCallReturnLabel_220:
   \   000000E2   F409               BRNE    ??TIMER2_COMPA_interrupt_5
   \   000000E4   982C               CBI     0x05, 0x04
    932            
    933            next_step00:
    934                       
    935                       
    936               if (At_com.cnt_tm_out==0)goto next_step0; 
   \                     ??TIMER2_COMPA_interrupt_5:
   \   000000E6   ....               LDI     R30, LOW((At_com + 61))
   \   000000E8   ....               LDI     R31, HIGH((At_com + 61))
   \   000000EA   ....               RCALL   ??Subroutine32_0
   \                     ??CrossCallReturnLabel_231:
   \   000000EC   F071               BREQ    ??TIMER2_COMPA_interrupt_6
    937             {
    938             At_com.cnt_tm_out--;
   \   000000EE   ....               RCALL   ?Subroutine27
    939             if(At_com.cnt_tm_out==0)
   \                     ??CrossCallReturnLabel_221:
   \   000000F0   F461               BRNE    ??TIMER2_COMPA_interrupt_6
    940               {
    941               UCSR0B=UCSR0B & ~RXEN;
   \   000000F2   ....               RCALL   ?Subroutine65
    942               UCSR0B=UCSR0B & ~RXCIE; 
    943               At_com.cnt_rx_out=0;
   \                     ??CrossCallReturnLabel_203:
   \   000000F4   E000               LDI     R16, 0
   \   000000F6   ....               LDI     R30, LOW((At_com + 65))
   \   000000F8   ....               LDI     R31, HIGH((At_com + 65))
   \   000000FA   ....               RCALL   ??Subroutine37_0
    944               fl_at_com.tm_out=1;
    945               fl_at_com.rx_rec=0;
    946               fl_at_com.rx_en=0;
    947               fl_at_com.err=0;
    948               fl_at_com.ok=0;
   \                     ??CrossCallReturnLabel_83:
   \   000000FC   ....               LDI     R30, LOW(fl_at_com)
   \   000000FE   ....               LDI     R31, (fl_at_com) >> 8
   \   00000100   8100               LD      R16, Z
   \   00000102   7C0C               ANDI    R16, 0xCC
   \   00000104   8300               ST      Z, R16
   \   00000106   6004               ORI     R16, 0x04
   \   00000108   8300               ST      Z, R16
    949               }
    950             }
    951          
    952          
    953             
    954             
    955          next_step0:  
    956          
    957            if(At_com.cnt_rx_out==0)goto next_step1;
   \                     ??TIMER2_COMPA_interrupt_6:
   \   0000010A   ....               LDI     R30, LOW((At_com + 65))
   \   0000010C   ....               LDI     R31, HIGH((At_com + 65))
   \   0000010E   ....               RCALL   ??Subroutine32_0
   \                     ??CrossCallReturnLabel_232:
   \   00000110   F051               BREQ    ??TIMER2_COMPA_interrupt_7
    958              At_com.cnt_rx_out--;
   \   00000112   ....               RCALL   ?Subroutine27
    959              if(At_com.cnt_rx_out==0)
   \                     ??CrossCallReturnLabel_222:
   \   00000114   F441               BRNE    ??TIMER2_COMPA_interrupt_7
    960              {
    961               UCSR0B=UCSR0B & ~RXEN;
   \   00000116   ....               RCALL   ?Subroutine65
    962               UCSR0B=UCSR0B & ~RXCIE;
    963               fl_at_com.rx_rec=1; 
   \                     ??CrossCallReturnLabel_204:
   \   00000118   ....               LDI     R30, LOW(fl_at_com)
   \   0000011A   ....               LDI     R31, (fl_at_com) >> 8
   \   0000011C   8100               LD      R16, Z
   \   0000011E   6200               ORI     R16, 0x20
   \   00000120   8300               ST      Z, R16
    964               S2_OFF;
   \   00000122   9840               CBI     0x08, 0x00
   \   00000124   9841               CBI     0x08, 0x01
    965              } //ń÷ĺň÷čę ěĺćáŕéňîâűé ďđîěĺćóňîę
    966          next_step1:
    967             
    968              
    969              
    970            //!!!!!!!!!!!!!!!!!!!!!!!!!!!!!!!!!!!!!!!!!!!!!!!!!!!!!!!!!!!!!!!!!!!!!!!!!!!!!11
    971              //îáđŕáîňęŕ ďî ďîđňó RS-485 ą1
    972              if(Rs485_1.cnt_tm_pre_tx==0) goto  nxt_step2;
   \                     ??TIMER2_COMPA_interrupt_7:
   \   00000126   01FD               MOVW    R31:R30, R27:R26
   \   00000128   8104               LDD     R16, Z+4
   \   0000012A   8115               LDD     R17, Z+5
   \   0000012C   2B01               OR      R16, R17
   \   0000012E   F029               BREQ    ??TIMER2_COMPA_interrupt_8
    973              Rs485_1.cnt_tm_pre_tx--;
   \   00000130   ....               RCALL   ?Subroutine44
    974              //if(Rs485_1.cnt_tm_pre_tx==0) UCSR3B=UCSR3B | UDRIE;  // enable transmit 485_1 
    975              if(Rs485_1.cnt_tm_pre_tx==0) send_485_1();  // enable transmit 485_1
   \                     ??CrossCallReturnLabel_89:
   \   00000132   2B01               OR      R16, R17
   \   00000134   F411               BRNE    ??TIMER2_COMPA_interrupt_8
   \   00000136   ........           CALL    send_485_1
    976              
    977            nxt_step2:
    978                                 
    979                          if(Rs485_1.cnt_tm_out==0) goto nxt_step3;
   \                     ??TIMER2_COMPA_interrupt_8:
   \   0000013A   01FD               MOVW    R31:R30, R27:R26
   \   0000013C   8504               LDD     R16, Z+12
   \   0000013E   8515               LDD     R17, Z+13
   \   00000140   2B01               OR      R16, R17
   \   00000142   F091               BREQ    ??TIMER2_COMPA_interrupt_9
    980                          Rs485_1.cnt_tm_out--;
   \   00000144   8504               LDD     R16, Z+12
   \   00000146   ....               RCALL   ?Subroutine45
   \                     ??CrossCallReturnLabel_91:
   \   00000148   8704               STD     Z+12, R16
   \   0000014A   8715               STD     Z+13, R17
    981                          if(Rs485_1.cnt_tm_out==0){
   \   0000014C   2B01               OR      R16, R17
   \   0000014E   F461               BRNE    ??TIMER2_COMPA_interrupt_9
    982                                                    S3_OFF;
   \   00000150   9844               CBI     0x08, 0x04
   \   00000152   9845               CBI     0x08, 0x05
    983                                                    UCSR3B =UCSR3B & ~(RXEN | RXCIE);
   \   00000154   ....               RCALL   ?Subroutine69
    984                                                    Rs485_1.cnt_bt_rx_tx=0;
   \                     ??CrossCallReturnLabel_197:
   \   00000156   E000               LDI     R16, 0
   \   00000158   930D               ST      X+, R16
   \   0000015A   930C               ST      X, R16
   \   0000015C   9711               SBIW    R27:R26, 1
    985                                                    Rs485_1.cnt_tm_rx_out=0;
   \   0000015E   8700               STD     Z+8, R16
   \   00000160   8701               STD     Z+9, R16
    986                                                    fl_485_1.rec=0;
    987                                                    fl_485_1.tm_out=1;
   \   00000162   AD02               LDD     R16, Z+58
   \   00000164   ....               RCALL   ?Subroutine71
   \                     ??CrossCallReturnLabel_149:
   \   00000166   AF02               STD     Z+58, R16
    988                                                   }                              
    989           nxt_step3:      
    990                    
    991           
    992                           if(Rs485_1.cnt_tm_rx_out==0) goto nxt_step4;
   \                     ??TIMER2_COMPA_interrupt_9:
   \   00000168   8500               LDD     R16, Z+8
   \   0000016A   8511               LDD     R17, Z+9
   \   0000016C   2B01               OR      R16, R17
   \   0000016E   F081               BREQ    ??CrossCallReturnLabel_198
    993                              Rs485_1.cnt_tm_rx_out--;
   \   00000170   8500               LDD     R16, Z+8
   \   00000172   ....               RCALL   ?Subroutine45
   \                     ??CrossCallReturnLabel_92:
   \   00000174   8700               STD     Z+8, R16
   \   00000176   8711               STD     Z+9, R17
    994                             if(Rs485_1.cnt_tm_rx_out==0)
   \   00000178   2B01               OR      R16, R17
   \   0000017A   F451               BRNE    ??CrossCallReturnLabel_198
    995                             {
    996                               S3_OFF;
   \   0000017C   9844               CBI     0x08, 0x04
   \   0000017E   9845               CBI     0x08, 0x05
    997                               fl_485_1.rec=1;
   \   00000180   AD02               LDD     R16, Z+58
   \   00000182   6002               ORI     R16, 0x02
   \   00000184   AF02               STD     Z+58, R16
    998                               Rs485_1.cnt_tm_out=0;
   \   00000186   ....               RCALL   ?Subroutine55
    999                               fl_485_1.tm_out=0;  
   \                     ??CrossCallReturnLabel_123:
   \   00000188   AD02               LDD     R16, Z+58
   \   0000018A   7F0B               ANDI    R16, 0xFB
   \   0000018C   AF02               STD     Z+58, R16
   1000                               UCSR3B =UCSR3B & ~(RXEN | RXCIE);
   \   0000018E   ....               RCALL   ?Subroutine69
   1001                              } 
   1002           nxt_step4:                  
   1003                          if(Rs485_1.cnt_tm_tx_out==0) goto lable_tm21;
   \                     ??CrossCallReturnLabel_198:
   \   00000190   8102               LDD     R16, Z+2
   \   00000192   8113               LDD     R17, Z+3
   \   00000194   2B01               OR      R16, R17
   \   00000196   F079               BREQ    ??CrossCallReturnLabel_199
   1004                          Rs485_1.cnt_tm_tx_out--;
   \   00000198   8102               LDD     R16, Z+2
   \   0000019A   ....               RCALL   ?Subroutine45
   \                     ??CrossCallReturnLabel_93:
   \   0000019C   8302               STD     Z+2, R16
   \   0000019E   8313               STD     Z+3, R17
   1005                          if(Rs485_1.cnt_tm_tx_out==1) {CLR_RTS1;} /*togle to receiv mode*/ 
   \   000001A0   3001               CPI     R16, 1
   \   000001A2   4010               SBCI    R17, 0
   \   000001A4   F409               BRNE    ??CrossCallReturnLabel_107
   \   000001A6   ....               RCALL   ?Subroutine46
   1006                          if(Rs485_1.cnt_tm_tx_out==0){CLR_RTS1;S3_OFF;Rs485_1.cnt_tm_out=Rs485_1.vol_tm_out;UCSR3B =UCSR3B | RXEN | RXCIE;} // togle to receiv mode ;
   \                     ??CrossCallReturnLabel_107:
   \   000001A8   8102               LDD     R16, Z+2
   \   000001AA   8113               LDD     R17, Z+3
   \   000001AC   2B01               OR      R16, R17
   \   000001AE   F419               BRNE    ??CrossCallReturnLabel_199
   \   000001B0   ....               RCALL   ?Subroutine46
   \                     ??CrossCallReturnLabel_108:
   \   000001B2   ....               RCALL   ?Subroutine68
   \                     ??CrossCallReturnLabel_147:
   \   000001B4   ....               RCALL   ?Subroutine70
   1007                          
   1008           //EEEEEEEEEEEEEEEEEEEEEEEEEEEEEEEEEEEEEEEEEEEEEEEEEEEEEEEEEEEEEEEEEEEEEEEEEEEEEEEEEEEEEEEEEEEEEEEEEEEEEEEEEEEEEEEE                
   1009           
   1010            
   1011                          
   1012                          
   1013            lable_tm21:               
   1014           //!!!!!!!!!!!!!!!!!!!!!!!!!!!!!!!!!!!!!!!!!!!!!!!!!!!!!!!!!!!!!!!!!!!!!!!!!!!!!11
   1015              //îáđŕáîňęŕ ďî ďîđňó RS-485 ą2
   1016              if(Rs485_2.cnt_tm_pre_tx==0) goto  next_step2;
   \                     ??CrossCallReturnLabel_199:
   \   000001B6   8906               LDD     R16, Z+22
   \   000001B8   8917               LDD     R17, Z+23
   \   000001BA   2B01               OR      R16, R17
   \   000001BC   F021               BREQ    ??TIMER2_COMPA_interrupt_10
   1017              Rs485_2.cnt_tm_pre_tx--;
   \   000001BE   ....               RCALL   ?Subroutine43
   1018             // if(Rs485_2.cnt_tm_pre_tx==0) UCSR1B=UCSR1B | UDRIE;  // enable transmit 485_1 
   1019               if(Rs485_2.cnt_tm_pre_tx==0) send_485_2();  // enable transmit 485_2
   \                     ??CrossCallReturnLabel_218:
   \   000001C0   F411               BRNE    ??TIMER2_COMPA_interrupt_10
   \   000001C2   ........           CALL    send_485_2
   1020          
   1021              
   1022            next_step2:
   1023                                 
   1024                          if(Rs485_2.cnt_tm_out==0) goto next_step3;
   \                     ??TIMER2_COMPA_interrupt_10:
   \   000001C6   01FD               MOVW    R31:R30, R27:R26
   \   000001C8   8D06               LDD     R16, Z+30
   \   000001CA   8D17               LDD     R17, Z+31
   \   000001CC   2B01               OR      R16, R17
   \   000001CE   F089               BREQ    ??TIMER2_COMPA_interrupt_11
   1025                          Rs485_2.cnt_tm_out--;
   \   000001D0   8D06               LDD     R16, Z+30
   \   000001D2   ....               RCALL   ?Subroutine45
   \                     ??CrossCallReturnLabel_94:
   \   000001D4   8F06               STD     Z+30, R16
   \   000001D6   8F17               STD     Z+31, R17
   1026                          if(Rs485_2.cnt_tm_out==0){
   \   000001D8   2B01               OR      R16, R17
   \   000001DA   F459               BRNE    ??TIMER2_COMPA_interrupt_11
   1027                                                    S4_OFF;
   \   000001DC   9842               CBI     0x08, 0x02
   \   000001DE   9843               CBI     0x08, 0x03
   1028                                                    UCSR1B =UCSR1B & ~(RXEN | RXCIE);
   \   000001E0   ....               RCALL   ?Subroutine74
   1029                                                    Rs485_2.cnt_bt_rx_tx=0;
   \                     ??CrossCallReturnLabel_193:
   \   000001E2   E000               LDI     R16, 0
   \   000001E4   8B02               STD     Z+18, R16
   \   000001E6   8B03               STD     Z+19, R16
   1030                                                    Rs485_2.cnt_tm_rx_out=0;
   \   000001E8   8F02               STD     Z+26, R16
   \   000001EA   8F03               STD     Z+27, R16
   1031                                                    fl_485_2.rec=0;
   1032                                                    fl_485_2.tm_out=1;
   \   000001EC   AD03               LDD     R16, Z+59
   \   000001EE   ....               RCALL   ?Subroutine71
   \                     ??CrossCallReturnLabel_150:
   \   000001F0   AF03               STD     Z+59, R16
   1033                                                   }                              
   1034           next_step3:      
   1035                    
   1036           
   1037                           if(Rs485_2.cnt_tm_rx_out==0) goto next_step4;
   \                     ??TIMER2_COMPA_interrupt_11:
   \   000001F2   8D02               LDD     R16, Z+26
   \   000001F4   8D13               LDD     R17, Z+27
   \   000001F6   2B01               OR      R16, R17
   \   000001F8   F091               BREQ    ??CrossCallReturnLabel_194
   1038                              Rs485_2.cnt_tm_rx_out--;
   \   000001FA   8D02               LDD     R16, Z+26
   \   000001FC   ....               RCALL   ?Subroutine45
   \                     ??CrossCallReturnLabel_95:
   \   000001FE   8F02               STD     Z+26, R16
   \   00000200   8F13               STD     Z+27, R17
   1039                             if(Rs485_2.cnt_tm_rx_out==0)
   \   00000202   2B01               OR      R16, R17
   \   00000204   F461               BRNE    ??CrossCallReturnLabel_194
   1040                             {
   1041                               S4_OFF;
   \   00000206   9842               CBI     0x08, 0x02
   \   00000208   9843               CBI     0x08, 0x03
   1042                               fl_485_2.rec=1;
   \   0000020A   AD03               LDD     R16, Z+59
   \   0000020C   6002               ORI     R16, 0x02
   \   0000020E   AF03               STD     Z+59, R16
   1043                               Rs485_2.cnt_tm_out=0;
   \   00000210   E000               LDI     R16, 0
   \   00000212   8F06               STD     Z+30, R16
   \   00000214   8F07               STD     Z+31, R16
   1044                               fl_485_2.tm_out=0;  
   \   00000216   AD03               LDD     R16, Z+59
   \   00000218   7F0B               ANDI    R16, 0xFB
   \   0000021A   AF03               STD     Z+59, R16
   1045                               UCSR1B =UCSR1B & ~(RXEN | RXCIE);
   \   0000021C   ....               RCALL   ?Subroutine74
   1046                              } 
   1047           next_step4:                  
   1048                          if(Rs485_2.cnt_tm_tx_out==0) goto lable_tm22;
   \                     ??CrossCallReturnLabel_194:
   \   0000021E   8904               LDD     R16, Z+20
   \   00000220   8915               LDD     R17, Z+21
   \   00000222   2B01               OR      R16, R17
   \   00000224   F079               BREQ    ??CrossCallReturnLabel_195
   1049                          Rs485_2.cnt_tm_tx_out--;
   \   00000226   8904               LDD     R16, Z+20
   \   00000228   ....               RCALL   ?Subroutine45
   \                     ??CrossCallReturnLabel_96:
   \   0000022A   8B04               STD     Z+20, R16
   \   0000022C   8B15               STD     Z+21, R17
   1050                          if(Rs485_2.cnt_tm_tx_out==1) {CLR_RTS3; } /*togle to receiv mode*/ 
   \   0000022E   3001               CPI     R16, 1
   \   00000230   4010               SBCI    R17, 0
   \   00000232   F409               BRNE    ??TIMER2_COMPA_interrupt_12
   \   00000234   985C               CBI     0x0B, 0x04
   1051                          if(Rs485_2.cnt_tm_tx_out==0){CLR_RTS3;S4_OFF;Rs485_2.cnt_tm_out=Rs485_2.vol_tm_out;UCSR1B =UCSR1B | RXEN | RXCIE;} // togle to receiv mode ;
   \                     ??TIMER2_COMPA_interrupt_12:
   \   00000236   8904               LDD     R16, Z+20
   \   00000238   8915               LDD     R17, Z+21
   \   0000023A   2B01               OR      R16, R17
   \   0000023C   F419               BRNE    ??CrossCallReturnLabel_195
   \   0000023E   985C               CBI     0x0B, 0x04
   \   00000240   ....               RCALL   ?Subroutine72
   \                     ??CrossCallReturnLabel_153:
   \   00000242   ....               RCALL   ?Subroutine75
   1052                          
   1053           //EEEEEEEEEEEEEEEEEEEEEEEEEEEEEEEEEEEEEEEEEEEEEEEEEEEEEEEEEEEEEEEEEEEEEEEEEEEEEEEEEEEEEEEEEEEEEEEEEEEEEEEEEEEEEEEE              
   1054                          
   1055           
   1056             lable_tm22:               
   1057           //!!!!!!!!!!!!!!!!!!!!!!!!!!!!!!!!!!!!!!!!!!!!!!!!!!!!!!!!!!!!!!!!!!!!!!!!!!!!!11
   1058              //îáđŕáîňęŕ ďî ďîđňó RS-232 ą2
   1059              if(Rs232_2.cnt_tm_pre_tx==0) goto  nt_step2;
   \                     ??CrossCallReturnLabel_195:
   \   00000244   A500               LDD     R16, Z+40
   \   00000246   A511               LDD     R17, Z+41
   \   00000248   2B01               OR      R16, R17
   \   0000024A   F041               BREQ    ??TIMER2_COMPA_interrupt_13
   1060              Rs232_2.cnt_tm_pre_tx--;
   \   0000024C   A500               LDD     R16, Z+40
   \   0000024E   ....               RCALL   ?Subroutine45
   \                     ??CrossCallReturnLabel_97:
   \   00000250   A700               STD     Z+40, R16
   \   00000252   A711               STD     Z+41, R17
   1061            //  if(Rs232_2.cnt_tm_pre_tx==0) UCSR2B=UCSR2B | UDRIE;  // enable transmit 232_1 
   1062              if(Rs232_2.cnt_tm_pre_tx==0) send_232_2();  // enable transmit 232_1 
   \   00000254   2B01               OR      R16, R17
   \   00000256   F411               BRNE    ??TIMER2_COMPA_interrupt_13
   \   00000258   ........           CALL    send_232_2
   1063            nt_step2:
   1064                                 
   1065                          if(Rs232_2.cnt_tm_out==0) goto nt_step3;
   \                     ??TIMER2_COMPA_interrupt_13:
   \   0000025C   01FD               MOVW    R31:R30, R27:R26
   \   0000025E   A900               LDD     R16, Z+48
   \   00000260   A911               LDD     R17, Z+49
   \   00000262   2B01               OR      R16, R17
   \   00000264   F089               BREQ    ??TIMER2_COMPA_interrupt_14
   1066                          Rs232_2.cnt_tm_out--;
   \   00000266   A900               LDD     R16, Z+48
   \   00000268   ....               RCALL   ?Subroutine45
   \                     ??CrossCallReturnLabel_98:
   \   0000026A   AB00               STD     Z+48, R16
   \   0000026C   AB11               STD     Z+49, R17
   1067                          if(Rs232_2.cnt_tm_out==0){
   \   0000026E   2B01               OR      R16, R17
   \   00000270   F459               BRNE    ??TIMER2_COMPA_interrupt_14
   1068                                                 
   1069                                                    S5_OFF;
   \   00000272   9846               CBI     0x08, 0x06
   \   00000274   9847               CBI     0x08, 0x07
   1070                                                    UCSR2B =UCSR2B & ~(RXEN | RXCIE);
   \   00000276   ....               RCALL   ?Subroutine76
   1071                                                    Rs232_2.cnt_bt_rx_tx=0;
   \                     ??CrossCallReturnLabel_189:
   \   00000278   E000               LDI     R16, 0
   \   0000027A   A304               STD     Z+36, R16
   \   0000027C   A305               STD     Z+37, R16
   1072                                                    Rs232_2.cnt_tm_rx_out=0;
   \   0000027E   A704               STD     Z+44, R16
   \   00000280   A705               STD     Z+45, R16
   1073                                                    fl_232_2.rec=0;
   1074                                                    fl_232_2.tm_out=1;
   \   00000282   AD04               LDD     R16, Z+60
   \   00000284   ....               RCALL   ?Subroutine71
   \                     ??CrossCallReturnLabel_151:
   \   00000286   AF04               STD     Z+60, R16
   1075                                                   }                              
   1076           nt_step3:      
   1077                    
   1078           
   1079                           if(Rs232_2.cnt_tm_rx_out==0) goto nt_step4;
   \                     ??TIMER2_COMPA_interrupt_14:
   \   00000288   A504               LDD     R16, Z+44
   \   0000028A   A515               LDD     R17, Z+45
   \   0000028C   2B01               OR      R16, R17
   \   0000028E   F091               BREQ    ??CrossCallReturnLabel_190
   1080                              Rs232_2.cnt_tm_rx_out--;
   \   00000290   A504               LDD     R16, Z+44
   \   00000292   ....               RCALL   ?Subroutine45
   \                     ??CrossCallReturnLabel_99:
   \   00000294   A704               STD     Z+44, R16
   \   00000296   A715               STD     Z+45, R17
   1081                             if(Rs232_2.cnt_tm_rx_out==0)
   \   00000298   2B01               OR      R16, R17
   \   0000029A   F461               BRNE    ??CrossCallReturnLabel_190
   1082                             {
   1083                               S5_OFF;
   \   0000029C   9846               CBI     0x08, 0x06
   \   0000029E   9847               CBI     0x08, 0x07
   1084                               fl_232_2.rec=1;
   \   000002A0   AD04               LDD     R16, Z+60
   \   000002A2   6002               ORI     R16, 0x02
   \   000002A4   AF04               STD     Z+60, R16
   1085                               Rs232_2.cnt_tm_out=0;
   \   000002A6   E000               LDI     R16, 0
   \   000002A8   AB00               STD     Z+48, R16
   \   000002AA   AB01               STD     Z+49, R16
   1086                               fl_232_2.tm_out=0;  
   \   000002AC   AD04               LDD     R16, Z+60
   \   000002AE   7F0B               ANDI    R16, 0xFB
   \   000002B0   AF04               STD     Z+60, R16
   1087                               UCSR2B =UCSR2B & ~(RXEN | RXCIE);
   \   000002B2   ....               RCALL   ?Subroutine76
   1088                              } 
   1089           nt_step4:                  
   1090                          if(Rs232_2.cnt_tm_tx_out==0) goto lable_tm23;
   \                     ??CrossCallReturnLabel_190:
   \   000002B4   A106               LDD     R16, Z+38
   \   000002B6   A117               LDD     R17, Z+39
   \   000002B8   2B01               OR      R16, R17
   \   000002BA   F079               BREQ    ??CrossCallReturnLabel_191
   1091                          Rs232_2.cnt_tm_tx_out--;
   \   000002BC   A106               LDD     R16, Z+38
   \   000002BE   ....               RCALL   ?Subroutine45
   \                     ??CrossCallReturnLabel_100:
   \   000002C0   A306               STD     Z+38, R16
   \   000002C2   A317               STD     Z+39, R17
   1092                          if(Rs232_2.cnt_tm_tx_out==1) {CLR_RTS2;} /*togle to receiv mode*/ 
   \   000002C4   3001               CPI     R16, 1
   \   000002C6   4010               SBCI    R17, 0
   \   000002C8   F409               BRNE    ??CrossCallReturnLabel_77
   \   000002CA   ....               RCALL   ?Subroutine36
   1093                          if(Rs232_2.cnt_tm_tx_out==0){CLR_RTS2;S5_OFF;Rs232_2.cnt_tm_out=Rs232_2.vol_tm_out;UCSR2B =UCSR2B | RXEN | RXCIE;} // togle to receiv mode ;
   \                     ??CrossCallReturnLabel_77:
   \   000002CC   A106               LDD     R16, Z+38
   \   000002CE   A117               LDD     R17, Z+39
   \   000002D0   2B01               OR      R16, R17
   \   000002D2   F419               BRNE    ??CrossCallReturnLabel_191
   \   000002D4   ....               RCALL   ?Subroutine36
   \                     ??CrossCallReturnLabel_78:
   \   000002D6   ....               RCALL   ?Subroutine73
   \                     ??CrossCallReturnLabel_155:
   \   000002D8   ....               RCALL   ?Subroutine77
   1094                          
   1095           //EEEEEEEEEEEEEEEEEEEEEEEEEEEEEEEEEEEEEEEEEEEEEEEEEEEEEEEEEEEEEEEEEEEEEEEEEEEEEEEEEEEEEEEEEEEEEEEEEEEEEEEEEEEEEEEE                   
   1096                          
   1097            lable_tm23:
   1098                ///ňŕéěĺđ đĺńňŕđňŕ LCP
   1099              if(fl_lcp.lcp_tm_out_en==1)
   \                     ??CrossCallReturnLabel_191:
   \   000002DA   9100....           LDS     R16, fl_lcp
   \   000002DE   FF01               SBRS    R16, 1
   \   000002E0   C009               RJMP    ??CrossCallReturnLabel_65
   1100                 {                 
   1101                      if(cnt_lcp_tm_out==0)goto lable_tm24;  
   \   000002E2   ....               LDI     R30, LOW(cnt_lcp_tm_out)
   \   000002E4   ....               LDI     R31, (cnt_lcp_tm_out) >> 8
   \   000002E6   ....               RCALL   ??Subroutine32_0
   \                     ??CrossCallReturnLabel_233:
   \   000002E8   F029               BREQ    ??CrossCallReturnLabel_65
   1102                      cnt_lcp_tm_out--;
   \   000002EA   ....               RCALL   ?Subroutine27
   1103                      if(cnt_lcp_tm_out==0)fl_lcp.t0_pl=1;
   \                     ??CrossCallReturnLabel_223:
   \   000002EC   F419               BRNE    ??CrossCallReturnLabel_65
   \   000002EE   ....               LDI     R30, LOW(fl_lcp)
   \   000002F0   ....               LDI     R31, (fl_lcp) >> 8
   \   000002F2   ....               RCALL   ?Subroutine33
   1104                      /*
   1105                         cnt_lcp_tm_out--;
   1106                         if(cnt_lcp_tm_out==0)
   1107                            {
   1108                            cnt_lcp_tm_out=VOL_LCP_TM_OUT;
   1109                            if(cnt_rst_lcp==0)
   1110                               {   
   1111                                cnt_lcp_tm_out=vol_cnt_rst_lcp;
   1112                                fl_lcp.t0_mi=1;
   1113                               }
   1114                               else 
   1115                                 {
   1116                                 cnt_rst_lcp--;
   1117                                 fl_lcp.t0_pl=1;       
   1118                                 } 
   1119                            } 
   1120                      */
   1121                   
   1122                 }
   1123            lable_tm24:;
   1124           //////////////////////////////////////////
   1125           
   1126           ///ňŕéěĺđ đĺńňŕđňŕ PAP
   1127              if(fl_pap.pap_tm_out_en==1)
   \                     ??CrossCallReturnLabel_65:
   \   000002F4   9100....           LDS     R16, fl_pap
   \   000002F8   FF01               SBRS    R16, 1
   \   000002FA   C009               RJMP    ??CrossCallReturnLabel_66
   1128                 {        
   1129                         if(cnt_pap_tm_out==0)goto lable_tm25;
   \   000002FC   ....               LDI     R30, LOW(cnt_pap_tm_out)
   \   000002FE   ....               LDI     R31, (cnt_pap_tm_out) >> 8
   \   00000300   ....               RCALL   ??Subroutine32_0
   \                     ??CrossCallReturnLabel_234:
   \   00000302   F029               BREQ    ??CrossCallReturnLabel_66
   1130                         cnt_pap_tm_out--;
   \   00000304   ....               RCALL   ?Subroutine27
   1131                         if(cnt_pap_tm_out==0)fl_pap.t0_pl=1; 
   \                     ??CrossCallReturnLabel_224:
   \   00000306   F419               BRNE    ??CrossCallReturnLabel_66
   \   00000308   ....               LDI     R30, LOW(fl_pap)
   \   0000030A   ....               LDI     R31, (fl_pap) >> 8
   \   0000030C   ....               RCALL   ?Subroutine33
   1132                   /*      
   1133                           if(cnt_pap_tm_out==0)
   1134                            {
   1135                            cnt_pap_tm_out=VOL_PAP_TM_OUT;
   1136                            if(cnt_rst_pap==0)
   1137                               {   
   1138                                cnt_pap_tm_out=vol_cnt_rst_pap;
   1139                                fl_pap.t0_mi=1;
   1140                               }
   1141                               else 
   1142                                 {
   1143                                 cnt_rst_pap--;
   1144                                 fl_pap.t0_pl=1; 
   1145                                 } 
   1146                            } 
   1147                 */
   1148                           
   1149                 }
   1150            lable_tm25: ;
   1151           //////////////////////////////////////////
   1152           
   1153           ///ňŕéěĺđ đĺńňŕđňŕ IPCP
   1154              if(fl_ipcp.ipcp_tm_out_en==1)
   \                     ??CrossCallReturnLabel_66:
   \   0000030E   9100....           LDS     R16, fl_ipcp
   \   00000312   FF01               SBRS    R16, 1
   \   00000314   C009               RJMP    ??CrossCallReturnLabel_67
   1155                 {                 
   1156                         
   1157                         if(cnt_ipcp_tm_out==0)goto lable_tm26;
   \   00000316   ....               LDI     R30, LOW(cnt_ipcp_tm_out)
   \   00000318   ....               LDI     R31, (cnt_ipcp_tm_out) >> 8
   \   0000031A   ....               RCALL   ??Subroutine32_0
   \                     ??CrossCallReturnLabel_235:
   \   0000031C   F029               BREQ    ??CrossCallReturnLabel_67
   1158                         cnt_ipcp_tm_out--;
   \   0000031E   ....               RCALL   ?Subroutine27
   1159                         if(cnt_ipcp_tm_out==0)fl_ipcp.t0_pl=1; 
   \                     ??CrossCallReturnLabel_225:
   \   00000320   F419               BRNE    ??CrossCallReturnLabel_67
   \   00000322   ....               LDI     R30, LOW(fl_ipcp)
   \   00000324   ....               LDI     R31, (fl_ipcp) >> 8
   \   00000326   ....               RCALL   ?Subroutine33
   1160                        /* 
   1161                         cnt_ipcp_tm_out--;
   1162                         if(cnt_ipcp_tm_out==0)
   1163                            {
   1164                            cnt_ipcp_tm_out=VOL_IPCP_TM_OUT;
   1165                            if(cnt_rst_ipcp==0)
   1166                               {   
   1167                                cnt_ipcp_tm_out=vol_cnt_rst_ipcp;
   1168                                fl_ipcp.t0_mi=1;
   1169                               }
   1170                               else 
   1171                                 {  
   1172                                 cnt_rst_ipcp--;
   1173                                 fl_ipcp.t0_pl=1; 
   1174                                 } 
   1175                            } */
   1176                 
   1177                 }
   1178                          
   1179            lable_tm26:
   1180          
   1181          
   1182          
   1183          //if (timer_vhod!=0)timer_vhod--;
   1184          //if (timer_autovzat!=0)timer_autovzat--;
   1185          
   1186          
   1187                       if(tim_prihod_uhod==0) goto erty78;
   \                     ??CrossCallReturnLabel_67:
   \   00000328   ....               LDI     R30, LOW(tim_prihod_uhod)
   \   0000032A   ....               LDI     R31, (tim_prihod_uhod) >> 8
   \   0000032C   ....               RCALL   ??Subroutine32_0
   \                     ??CrossCallReturnLabel_236:
   \   0000032E   F0C1               BREQ    ??TIMER2_COMPA_interrupt_15
   1188                       tim_prihod_uhod--;
   \   00000330   ....               RCALL   ?Subroutine27
   1189                       if(tim_prihod_uhod==0) 
   \                     ??CrossCallReturnLabel_226:
   \   00000332   F4B1               BRNE    ??TIMER2_COMPA_interrupt_15
   1190                           {
   1191                            prihod_uhod=0;
   \   00000334   E000               LDI     R16, 0
   \   00000336   9300....           STS     prihod_uhod, R16
   1192                           if(nomer_tab !=254) bit_registr1=bit_registr1 | TABLETKA;   // ďîńëĺ ďđčâĺňńňâč˙ ňîëüęî çŕďóńęŕňü îőđŕííűé ďđîöĺńń
   \   0000033A   9100....           LDS     R16, nomer_tab
   \   0000033E   3F0E               CPI     R16, 254
   \   00000340   F029               BREQ    ??TIMER2_COMPA_interrupt_16
   \   00000342   ....               LDI     R30, LOW(bit_registr1)
   \   00000344   ....               LDI     R31, (bit_registr1) >> 8
   \   00000346   8100               LD      R16, Z
   \   00000348   6008               ORI     R16, 0x08
   \   0000034A   8300               ST      Z, R16
   1193                          // timer_samovzatia=0; //????
   1194                           //flag_sam_sam=0; //????
   1195                          // if( sost==4) dabl=0;
   1196                         //  TIFR=TIFR | 0x20;//????
   1197                         //  TIMSK=TIMSK | 0x20;   //????// ICR enable
   1198                           TCH_O_ZERO;
   \                     ??TIMER2_COMPA_interrupt_16:
   \   0000034C   91000108           LDS     R16, 264
   \   00000350   7B0F               ANDI    R16, 0xBF
   \   00000352   93000108           STS     264, R16
   1199                           EIFR=EIFR   | 0x02;  
   \   00000356   9AE1               SBI     0x1C, 0x01
   1200                           EIMSK=EIMSK | 0x02;   // INT1 enable
   \   00000358   9AE9               SBI     0x1D, 0x01
   1201                           flag_arhiv_prihod=dabl;
   \   0000035A   01FD               MOVW    R31:R30, R27:R26
   \   0000035C   A906               LDD     R16, Z+54
   \   0000035E   AB07               STD     Z+55, R16
   1202                          }
   1203          
   1204          erty78: 
   1205                       if(window_prihod_uhod==0) goto erty79;
   \                     ??TIMER2_COMPA_interrupt_15:
   \   00000360   ....               LDI     R30, LOW(window_prihod_uhod)
   \   00000362   ....               LDI     R31, (window_prihod_uhod) >> 8
   \   00000364   ....               RCALL   ??Subroutine32_0
   \                     ??CrossCallReturnLabel_237:
   \   00000366   F0C1               BREQ    ??TIMER2_COMPA_interrupt_17
   1206                       window_prihod_uhod--;
   \   00000368   ....               RCALL   ?Subroutine27
   1207                     //  if (window_prihod_uhod < 6000) PORTB=PORTB ^ 0x08;
   1208                      if(window_prihod_uhod==0) 
   \                     ??CrossCallReturnLabel_227:
   \   0000036A   F4B1               BRNE    ??TIMER2_COMPA_interrupt_17
   1209                         {
   1210                          tim_prihod_uhod=3400;
   \   0000036C   E408               LDI     R16, 72
   \   0000036E   E01D               LDI     R17, 13
   \   00000370   ....               LDI     R30, LOW(tim_prihod_uhod)
   \   00000372   ....               LDI     R31, (tim_prihod_uhod) >> 8
   \   00000374   ....               RCALL   ?Subroutine90
   1211                          //TIMSK=TIMSK &~0x20;    //????// çŕďđĺňčňü ęëţ÷ íŕ ýňî âđĺě˙
   1212                          EIMSK=EIMSK & ~ 0x02;    // disable myself
   \                     ??CrossCallReturnLabel_176:
   \   00000376   98E9               CBI     0x1D, 0x01
   1213                          if (podnos==1) {prihod_uhod=1;dabl=1;}    // ýňî ďđčőîä
   \   00000378   9100....           LDS     R16, podnos
   \   0000037C   3001               CPI     R16, 1
   \   0000037E   F411               BRNE    ??TIMER2_COMPA_interrupt_18
   \   00000380   E001               LDI     R16, 1
   \   00000382   C003               RJMP    ??TIMER2_COMPA_interrupt_19
   1214                          if (podnos>1) {prihod_uhod=2; dabl=2;}    // ýňî óőîä
   \                     ??TIMER2_COMPA_interrupt_18:
   \   00000384   3002               CPI     R16, 2
   \   00000386   F028               BRCS    ??TIMER2_COMPA_interrupt_20
   \   00000388   E002               LDI     R16, 2
   \                     ??TIMER2_COMPA_interrupt_19:
   \   0000038A   9300....           STS     prihod_uhod, R16
   \   0000038E   01FD               MOVW    R31:R30, R27:R26
   \   00000390   AB06               STD     Z+54, R16
   1215                         podnos=0;
   \                     ??TIMER2_COMPA_interrupt_20:
   \   00000392   E000               LDI     R16, 0
   \   00000394   9300....           STS     podnos, R16
   1216                         }
   1217              
   1218              
   1219          erty79: 
   1220            
   1221             if (glutch5 == 0 ) goto t_345;
   \                     ??TIMER2_COMPA_interrupt_17:
   \   00000398   ....               LDI     R30, LOW(glutch5)
   \   0000039A   ....               LDI     R31, (glutch5) >> 8
   \   0000039C   ....               RCALL   ??Subroutine32_0
   \                     ??CrossCallReturnLabel_238:
   \   0000039E   F029               BREQ    ??TIMER2_COMPA_interrupt_21
   1222                                       glutch5--;
   \   000003A0   ....               RCALL   ?Subroutine27
   1223                              if(glutch5==0) prihod_uhod=4;               //  đĺćčě îćčäŕíč˙ äâîéíîăî íŕćŕňč˙
   \                     ??CrossCallReturnLabel_228:
   \   000003A2   F419               BRNE    ??TIMER2_COMPA_interrupt_21
   \   000003A4   E004               LDI     R16, 4
   \   000003A6   9300....           STS     prihod_uhod, R16
   1224                              
   1225                       t_345: ;      
   1226              
   1227           glutch++;  
   \                     ??TIMER2_COMPA_interrupt_21:
   \   000003AA   ....               LDI     R30, LOW(glutch)
   \   000003AC   ....               LDI     R31, (glutch) >> 8
   \   000003AE   ....               RCALL   ?Subroutine29
   1228           if (glutch >4000) glutch=0;
   \                     ??CrossCallReturnLabel_181:
   \   000003B0   3A01               CPI     R16, 161
   \   000003B2   401F               SBCI    R17, 15
   \   000003B4   F008               BRCS    ??CrossCallReturnLabel_84
   \   000003B6   ....               RCALL   ?Subroutine37
   1229              
   1230          if (glutch6!=0)
   \                     ??CrossCallReturnLabel_84:
   \   000003B8   ....               LDI     R30, LOW(glutch6)
   \   000003BA   ....               LDI     R31, (glutch6) >> 8
   \   000003BC   ....               RCALL   ??Subroutine32_0
   \                     ??CrossCallReturnLabel_239:
   \   000003BE   F039               BREQ    ??TIMER2_COMPA_interrupt_22
   1231           {
   1232             glutch6--;
   \   000003C0   ....               RCALL   ?Subroutine27
   1233             if(glutch6==0) bit_registr1=bit_registr1 & ~BLOCK_TABLETKA; 
   \                     ??CrossCallReturnLabel_229:
   \   000003C2   F429               BRNE    ??TIMER2_COMPA_interrupt_22
   \   000003C4   ....               LDI     R30, LOW(bit_registr1)
   \   000003C6   ....               LDI     R31, (bit_registr1) >> 8
   \   000003C8   8100               LD      R16, Z
   \   000003CA   7E0F               ANDI    R16, 0xEF
   \   000003CC   8300               ST      Z, R16
   1234           }
   1235          
   1236                 }
   \                     ??TIMER2_COMPA_interrupt_22:
   \   000003CE   ....               RJMP    ?Subroutine85

   \                                 In segment CODE, align 2, keep-with-next
   \                     ?Subroutine76:
   \   00000000   910000D1           LDS     R16, 209
   \   00000004   760F               ANDI    R16, 0x6F
   \   00000006                      REQUIRE ?Subroutine92
   \   00000006                      ;               // Fall through to label ?Subroutine92

   \                                 In segment CODE, align 2, keep-with-next
   \                     ?Subroutine92:
   \   00000000   930000D1           STS     209, R16
   \   00000004   9508               RET

   \                                 In segment CODE, align 2, keep-with-next
   \                     ?Subroutine74:
   \   00000000   910000C9           LDS     R16, 201
   \   00000004   760F               ANDI    R16, 0x6F
   \   00000006                      REQUIRE ?Subroutine93
   \   00000006                      ;               // Fall through to label ?Subroutine93

   \                                 In segment CODE, align 2, keep-with-next
   \                     ?Subroutine93:
   \   00000000   930000C9           STS     201, R16
   \   00000004   9508               RET

   \                                 In segment CODE, align 2, keep-with-next
   \                     ?Subroutine69:
   \   00000000   91000131           LDS     R16, 305
   \   00000004   760F               ANDI    R16, 0x6F
   \   00000006                      REQUIRE ?Subroutine94
   \   00000006                      ;               // Fall through to label ?Subroutine94

   \                                 In segment CODE, align 2, keep-with-next
   \                     ?Subroutine94:
   \   00000000   93000131           STS     305, R16
   \   00000004   9508               RET

   \                                 In segment CODE, align 2, keep-with-next
   \                     ?Subroutine66:
   \   00000000   9100....           LDS     R16, buf_tx_232
   \   00000004   93000136           STS     310, R16
   \   00000008   9508               RET

   \                                 In segment CODE, align 2, keep-with-next
   \                     ?Subroutine65:
   \   00000000   910000C1           LDS     R16, 193
   \   00000004   7E0F               ANDI    R16, 0xEF
   \   00000006   930000C1           STS     193, R16
   \   0000000A   910000C1           LDS     R16, 193
   \   0000000E   770F               ANDI    R16, 0x7F
   \   00000010                      REQUIRE ?Subroutine95
   \   00000010                      ;               // Fall through to label ?Subroutine95

   \                                 In segment CODE, align 2, keep-with-next
   \                     ?Subroutine95:
   \   00000000   930000C1           STS     193, R16
   \   00000004   9508               RET

   \                                 In segment CODE, align 2, keep-with-next
   \                     ?Subroutine64:
   \   00000000   910000C6           LDS     R16, 198
   \   00000004   910000C1           LDS     R16, 193
   \   00000008   6100               ORI     R16, 0x10
   \   0000000A   930000C1           STS     193, R16
   \   0000000E   910000C1           LDS     R16, 193
   \   00000012   6800               ORI     R16, 0x80
   \   00000014   ....               RJMP    ?Subroutine95

   \                                 In segment CODE, align 2, keep-with-next
   \                     ?Subroutine62:
   \   00000000   9A40               SBI     0x08, 0x00
   \   00000002   9841               CBI     0x08, 0x01
   \   00000004   9100....           LDS     R16, buf_tx_232
   \   00000008   930000C6           STS     198, R16
   \   0000000C   9100....           LDS     R16, Regim
   \   00000010   3001               CPI     R16, 1
   \   00000012   9508               RET

   \                                 In segment CODE, align 2, keep-with-next
   \                     ?Subroutine27:
   \   00000000   8100               LD      R16, Z
   \   00000002   5001               SUBI    R16, 1
   \   00000004   4010               SBCI    R17, 0
   \   00000006   8300               ST      Z, R16
   \   00000008   8311               STD     Z+1, R17
   \   0000000A                      REQUIRE ?Subroutine98
   \   0000000A                      ;               // Fall through to label ?Subroutine98

   \                                 In segment CODE, align 2, keep-with-next
   \                     ?Subroutine98:
   \   00000000   2B01               OR      R16, R17
   \   00000002   9508               RET

   \                                 In segment CODE, align 2, keep-with-next
   \                     ?Subroutine71:
   \   00000000   7F0D               ANDI    R16, 0xFD
   \   00000002   6004               ORI     R16, 0x04
   \   00000004   9508               RET

   \                                 In segment CODE, align 2, keep-with-next
   \                     ?Subroutine55:
   \   00000000   E000               LDI     R16, 0
   \   00000002   8704               STD     Z+12, R16
   \   00000004   8705               STD     Z+13, R16
   \   00000006   9508               RET

   \                                 In segment CODE, align 2, keep-with-next
   \                     ?Subroutine44:
   \   00000000   8104               LDD     R16, Z+4
   \   00000002   5001               SUBI    R16, 1
   \   00000004   4010               SBCI    R17, 0
   \   00000006   8304               STD     Z+4, R16
   \   00000008   8315               STD     Z+5, R17
   \   0000000A   9508               RET

   \                                 In segment CODE, align 2, keep-with-next
   \                     ?Subroutine43:
   \   00000000   8906               LDD     R16, Z+22
   \   00000002   5001               SUBI    R16, 1
   \   00000004   4010               SBCI    R17, 0
   \   00000006   8B06               STD     Z+22, R16
   \   00000008   8B17               STD     Z+23, R17
   \   0000000A   ....               RJMP    ?Subroutine98

   \                                 In segment CODE, align 2, keep-with-next
   \                     ?Subroutine90:
   \   00000000   8300               ST      Z, R16
   \   00000002   8311               STD     Z+1, R17
   \   00000004   9508               RET

   \                                 In segment CODE, align 2, keep-with-next
   \                     ?Subroutine67:
   \   00000000   ........           JMP     sending_ppp_pac

   \                                 In segment CODE, align 2, keep-with-next
   \                     ?Subroutine75:
   \   00000000   910000C9           LDS     R16, 201
   \   00000004   6900               ORI     R16, 0x90
   \   00000006   ....               RJMP    ?Subroutine93

   \                                 In segment CODE, align 2, keep-with-next
   \                     ?Subroutine72:
   \   00000000   9842               CBI     0x08, 0x02
   \   00000002   9843               CBI     0x08, 0x03
   \   00000004   A100               LDD     R16, Z+32
   \   00000006   A111               LDD     R17, Z+33
   \   00000008   8F06               STD     Z+30, R16
   \   0000000A   8F17               STD     Z+31, R17
   \   0000000C   9508               RET

   \                                 In segment CODE, align 2, keep-with-next
   \                     ?Subroutine63:
   \   00000000   5F0F               SUBI    R16, 255
   \   00000002   4F1F               SBCI    R17, 255
   \   00000004   9508               RET

   \                                 In segment CODE, align 2, keep-with-next
   \                     ?Subroutine45:
   \   00000000   5001               SUBI    R16, 1
   \   00000002   4010               SBCI    R17, 0
   \   00000004   9508               RET

   \                                 In segment CODE, align 2, keep-with-next
   \                     ?Subroutine37:
   \   00000000   E000               LDI     R16, 0
   \                     ??Subroutine37_0:
   \   00000002   8300               ST      Z, R16
   \   00000004   8301               STD     Z+1, R16
   \   00000006   9508               RET

   \                                 In segment CODE, align 2, keep-with-next
   \                     ?Subroutine77:
   \   00000000   910000D1           LDS     R16, 209
   \   00000004   6900               ORI     R16, 0x90
   \   00000006   ....               RJMP    ?Subroutine92

   \                                 In segment CODE, align 2, keep-with-next
   \                     ?Subroutine73:
   \   00000000   9846               CBI     0x08, 0x06
   \   00000002   9847               CBI     0x08, 0x07
   \   00000004   A902               LDD     R16, Z+50
   \   00000006   A913               LDD     R17, Z+51
   \   00000008   AB00               STD     Z+48, R16
   \   0000000A   AB11               STD     Z+49, R17
   \   0000000C   9508               RET

   \                                 In segment CODE, align 2, keep-with-next
   \                     ?Subroutine36:
   \   00000000   91000102           LDS     R16, 258
   \   00000004   6004               ORI     R16, 0x04
   \   00000006   93000102           STS     258, R16
   \   0000000A   9508               RET

   \                                 In segment CODE, align 2, keep-with-next
   \                     ?Subroutine35:
   \   00000000   8100               LD      R16, Z
   \   00000002   8111               LDD     R17, Z+1
   \   00000004   9508               RET

   \                                 In segment CODE, align 2, keep-with-next
   \                     ?Subroutine29:
   \   00000000   8100               LD      R16, Z
   \   00000002   8111               LDD     R17, Z+1
   \   00000004   5F0F               SUBI    R16, 255
   \   00000006   4F1F               SBCI    R17, 255
   \   00000008   ....               RJMP    ?Subroutine90

   \                                 In segment CODE, align 2, keep-with-next
   \                     ?Subroutine70:
   \   00000000   91000131           LDS     R16, 305
   \   00000004   6900               ORI     R16, 0x90
   \   00000006   ....               RJMP    ?Subroutine94

   \                                 In segment CODE, align 2, keep-with-next
   \                     ?Subroutine68:
   \   00000000   9844               CBI     0x08, 0x04
   \   00000002   9845               CBI     0x08, 0x05
   \   00000004   8506               LDD     R16, Z+14
   \   00000006   8517               LDD     R17, Z+15
   \   00000008   8704               STD     Z+12, R16
   \   0000000A   8715               STD     Z+13, R17
   \   0000000C   9508               RET

   \                                 In segment CODE, align 2, keep-with-next
   \                     ?Subroutine46:
   \   00000000   91000105           LDS     R16, 261
   \   00000004   7F0B               ANDI    R16, 0xFB
   \   00000006   93000105           STS     261, R16
   \   0000000A   9508               RET

   \                                 In segment CODE, align 2, keep-with-next
   \                     ?Subroutine32:
   \   00000000   8100               LD      R16, Z
   \   00000002   7F0E               ANDI    R16, 0xFE
   \   00000004   8300               ST      Z, R16
   \   00000006   ....               LDI     R30, LOW(count_tx_ppp)
   \   00000008   ....               LDI     R31, (count_tx_ppp) >> 8
   \                     ??Subroutine32_0:
   \   0000000A   8100               LD      R16, Z
   \   0000000C   8111               LDD     R17, Z+1
   \   0000000E   ....               RJMP    ?Subroutine98

   \                                 In segment CODE, align 2, keep-with-next
   \                     ?Subroutine33:
   \   00000000   8100               LD      R16, Z
   \   00000002   6004               ORI     R16, 0x04
   \   00000004   8300               ST      Z, R16
   \   00000006   9508               RET
   1237           
   1238          ///////////////////////////////////////////////////////////////////////////////////////////////////
   1239          
   1240          
   1241          
   1242          
   1243          /////////////////////////////////////////////////////////////////////////////////////////////////////////
   1244          #pragma vector=TIMER3_COMPA_vect 

   \                                 In segment CODE, align 2, keep-with-next
   1245               __interrupt void TIMER3_COMPA_interrupt(void)
   \                     TIMER3_COMPA_interrupt:
   1246              { 
   \   00000000   ....               RCALL   ?Subroutine25
   \                     ??CrossCallReturnLabel_49:
   \   00000002   939A               ST      -Y, R25
   \   00000004   938A               ST      -Y, R24
   \   00000006   ....               RCALL   ?Subroutine21
   \                     ??CrossCallReturnLabel_41:
   \   00000008   B64F               IN      R4, 0x3F
   \   0000000A   B65B               IN      R5, 0x3B
   \   0000000C   B66C               IN      R6, 0x3C
   \   0000000E                      REQUIRE ?Register_R4_is_cg_reg
   \   0000000E                      REQUIRE ?Register_R5_is_cg_reg
   \   0000000E                      REQUIRE ?Register_R6_is_cg_reg
   1247           
   1248                
   1249                   fl_wdt.from_timer3=1;
   \   0000000E   ....               RCALL   ?Subroutine26
   \                     ??CrossCallReturnLabel_57:
   \   00000010   6100               ORI     R16, 0x10
   \   00000012   8300               ST      Z, R16
   1250                   
   1251                   if(cnt_snd<OVER_SND)cnt_snd++;
   \   00000014   9100....           LDS     R16, cnt_snd
   \   00000018   310E               CPI     R16, 30
   \   0000001A   F420               BRCC    ??TIMER3_COMPA_interrupt_0
   \   0000001C   ....               LDI     R30, LOW(cnt_snd)
   \   0000001E   ....               LDI     R31, (cnt_snd) >> 8
   \   00000020   9503               INC     R16
   \   00000022   8300               ST      Z, R16
   1252                   
   1253                   
   1254          if (timer_vhod!=0)timer_vhod--;
   \                     ??TIMER3_COMPA_interrupt_0:
   \   00000024   ....               LDI     R30, LOW(timer_vhod)
   \   00000026   ....               LDI     R31, (timer_vhod) >> 8
   \   00000028   ....               RCALL   ?Subroutine31
   1255          if (timer_autovzat!=0)timer_autovzat--;
   \                     ??CrossCallReturnLabel_63:
   \   0000002A   ....               LDI     R30, LOW(timer_autovzat)
   \   0000002C   ....               LDI     R31, (timer_autovzat) >> 8
   \   0000002E   ....               RCALL   ?Subroutine31
   1256                   
   1257                   
   1258                    if(cnt_tu1!=0)
   \                     ??CrossCallReturnLabel_64:
   \   00000030   ....               LDI     R30, LOW(struct_tcc1)
   \   00000032   ....               LDI     R31, (struct_tcc1) >> 8
   \   00000034   A100               LDD     R16, Z+32
   \   00000036   2300               TST     R16
   \   00000038   F021               BREQ    ??TIMER3_COMPA_interrupt_1
   1259                {
   1260                  cnt_tu1--;
   \   0000003A   950A               DEC     R16
   \   0000003C   A300               STD     Z+32, R16
   1261                  if(cnt_tu1==0) {TU1_OFF;}
   \   0000003E   F409               BRNE    ??TIMER3_COMPA_interrupt_1
   \   00000040   9814               CBI     0x02, 0x04
   1262                }
   1263                   
   1264                if(cnt_tu2!=0)
   \                     ??TIMER3_COMPA_interrupt_1:
   \   00000042   A101               LDD     R16, Z+33
   \   00000044   2300               TST     R16
   \   00000046   F021               BREQ    ??TIMER3_COMPA_interrupt_2
   1265                {
   1266                  cnt_tu2--;
   \   00000048   950A               DEC     R16
   \   0000004A   A301               STD     Z+33, R16
   1267                  if(cnt_tu2==0) {TU2_OFF;}
   \   0000004C   F409               BRNE    ??TIMER3_COMPA_interrupt_2
   \   0000004E   9813               CBI     0x02, 0x03
   1268                }
   1269                   
   1270                   
   1271                   
   1272                   if(time_cnt_ch_time!=0) time_cnt_ch_time--;
   \                     ??TIMER3_COMPA_interrupt_2:
   \   00000050   9100....           LDS     R16, time_cnt_ch_time
   \   00000054   2300               TST     R16
   \   00000056   F019               BREQ    ??TIMER3_COMPA_interrupt_3
   \   00000058   950A               DEC     R16
   \   0000005A   9300....           STS     time_cnt_ch_time, R16
   1273                   
   1274                   cnt_supervosor++;
   \                     ??TIMER3_COMPA_interrupt_3:
   \   0000005E   ....               LDI     R26, LOW(cnt_supervosor)
   \   00000060   ....               LDI     R27, (cnt_supervosor) >> 8
   \   00000062   910D               LD      R16, X+
   \   00000064   911C               LD      R17, X
   \   00000066   ....               RCALL   ?Subroutine63
   \                     ??CrossCallReturnLabel_136:
   \   00000068   931C               ST      X, R17
   \   0000006A   930E               ST      -X, R16
   1275                
   1276              /*
   1277              if((PINB & CTS_232)==CTS_232)
   1278                              { 
   1279                              cnt_term++;
   1280                              if(cnt_term>=4)lock_it();
   1281                              }
   1282                              else cnt_term=0;
   1283             */ 
   1284              
   1285              
   1286              //if(count_block_net!=0) count_block_net--;
   1287               
   1288                       
   1289                   
   1290                   
   1291                if(struct_tcc1.cnt_block_tc!=0) struct_tcc1.cnt_block_tc--;     
   \   0000006C   8105               LDD     R16, Z+5
   \   0000006E   2300               TST     R16
   \   00000070   F011               BREQ    ??TIMER3_COMPA_interrupt_4
   \   00000072   950A               DEC     R16
   \   00000074   8305               STD     Z+5, R16
   1292                if(struct_tcc2.cnt_block_tc!=0) struct_tcc2.cnt_block_tc--; 
   \                     ??TIMER3_COMPA_interrupt_4:
   \   00000076   8503               LDD     R16, Z+11
   \   00000078   2300               TST     R16
   \   0000007A   F011               BREQ    ??TIMER3_COMPA_interrupt_5
   \   0000007C   950A               DEC     R16
   \   0000007E   8703               STD     Z+11, R16
   1293             
   1294                if(Appl_seq.cntr_cl==TRUE)
   \                     ??TIMER3_COMPA_interrupt_5:
   \   00000080   ....               LDI     R26, LOW(Appl_seq)
   \   00000082   ....               LDI     R27, (Appl_seq) >> 8
   \   00000084   01FD               MOVW    R31:R30, R27:R26
   \   00000086   8904               LDD     R16, Z+20
   \   00000088   3001               CPI     R16, 1
   \   0000008A   F441               BRNE    ??TIMER3_COMPA_interrupt_6
   1295                {
   1296                if(Appl_seq.cnt_cntr_cl!=0) 
   \   0000008C   8906               LDD     R16, Z+22
   \   0000008E   8917               LDD     R17, Z+23
   \   00000090   2B01               OR      R16, R17
   \   00000092   F021               BREQ    ??TIMER3_COMPA_interrupt_6
   1297                   {
   1298                   Appl_seq.cnt_cntr_cl--;
   \   00000094   ....               RCALL   ?Subroutine43
   1299                   if(Appl_seq.cnt_cntr_cl==0) Appl_seq.en_cntr_cl=TRUE;
   \                     ??CrossCallReturnLabel_219:
   \   00000096   F411               BRNE    ??TIMER3_COMPA_interrupt_6
   \   00000098   E001               LDI     R16, 1
   \   0000009A   8B05               STD     Z+21, R16
   1300                   } 
   1301                }
   1302                
   1303                
   1304                if(cnt_stm_tm1==0)goto next_tm00;  
   \                     ??TIMER3_COMPA_interrupt_6:
   \   0000009C   9100....           LDS     R16, cnt_stm_tm1
   \   000000A0   2300               TST     R16
   \   000000A2   F041               BREQ    ??TIMER3_COMPA_interrupt_7
   1305                   cnt_stm_tm1--;
   \   000000A4   ....               LDI     R30, LOW(cnt_stm_tm1)
   \   000000A6   ....               LDI     R31, (cnt_stm_tm1) >> 8
   \   000000A8   950A               DEC     R16
   \   000000AA   8300               ST      Z, R16
   1306                   if(cnt_stm_tm1==0) event_modem=EVM_TM1;
   \   000000AC   F419               BRNE    ??TIMER3_COMPA_interrupt_7
   \   000000AE   E001               LDI     R16, 1
   \   000000B0   9300....           STS     event_modem, R16
   1307           next_tm00:
   1308             
   1309             
   1310             if(cnt_stm_tm2==0)goto next_tm001;  
   \                     ??TIMER3_COMPA_interrupt_7:
   \   000000B4   9100....           LDS     R16, cnt_stm_tm2
   \   000000B8   2300               TST     R16
   \   000000BA   F039               BREQ    ??TIMER3_COMPA_interrupt_8
   1311                   cnt_stm_tm2--;
   \   000000BC   ....               LDI     R30, LOW(cnt_stm_tm2)
   \   000000BE   ....               LDI     R31, (cnt_stm_tm2) >> 8
   \   000000C0   950A               DEC     R16
   \   000000C2   8300               ST      Z, R16
   1312                   if(cnt_stm_tm2==0) lock_it();
   \   000000C4   F411               BRNE    ??TIMER3_COMPA_interrupt_8
   \   000000C6   ........           CALL    lock_it
   1313                   
   1314          
   1315             
   1316          next_tm001:   
   1317              
   1318              if(fl_rewrite.cnt_reset==0)goto next_tm01; 
   \                     ??TIMER3_COMPA_interrupt_8:
   \   000000CA   ....               LDI     R30, LOW(fl_rewrite)
   \   000000CC   ....               LDI     R31, (fl_rewrite) >> 8
   \   000000CE   8101               LDD     R16, Z+1
   \   000000D0   2300               TST     R16
   \   000000D2   F1A1               BREQ    ??TIMER3_COMPA_interrupt_9
   1319              fl_rewrite.cnt_reset--;
   \   000000D4   950A               DEC     R16
   \   000000D6   8301               STD     Z+1, R16
   1320              if(fl_rewrite.cnt_reset==0)
   \   000000D8   F589               BRNE    ??TIMER3_COMPA_interrupt_9
   1321                 {
   1322                  
   1323                   __disable_interrupt();
   \   000000DA   94F8               CLI
   1324                   
   1325                   crc_tii=func_crc_tii();
   \   000000DC   ........           CALL    func_crc_tii
   \   000000E0   ....               LDI     R30, LOW(crc_tii)
   \   000000E2   ....               LDI     R31, (crc_tii) >> 8
   \   000000E4   ....               RCALL   ?Subroutine90
   1326          
   1327                  *(unsigned long int*)&buf_tx_232[0]=burst_ds_r();
   \                     ??CrossCallReturnLabel_177:
   \   000000E6   ....               LDI     R24, LOW(buf_tx_232)
   \   000000E8   ....               LDI     R25, (buf_tx_232) >> 8
   \   000000EA   ........           CALL    burst_ds_r
   \   000000EE   01FC               MOVW    R31:R30, R25:R24
   \   000000F0   ....               RCALL   ?Subroutine90
   \                     ??CrossCallReturnLabel_178:
   \   000000F2   8322               STD     Z+2, R18
   \   000000F4   8333               STD     Z+3, R19
   1328                  *(unsigned long int*)&buf_tx_232[4]=cnt_outcom;
   \   000000F6   ....               LDI     R30, LOW(cnt_outcom)
   \   000000F8   ....               LDI     R31, (cnt_outcom) >> 8
   \   000000FA   ....               RCALL   ?Subroutine34
   \                     ??CrossCallReturnLabel_69:
   \   000000FC   8304               STD     Z+4, R16
   \   000000FE   8315               STD     Z+5, R17
   \   00000100   8326               STD     Z+6, R18
   \   00000102   8337               STD     Z+7, R19
   1329                  *(unsigned long int*)&buf_tx_232[8]=cnt_incom;
   \   00000104   ....               LDI     R30, LOW(cnt_incom)
   \   00000106   ....               LDI     R31, (cnt_incom) >> 8
   \   00000108   ....               RCALL   ?Subroutine34
   \                     ??CrossCallReturnLabel_70:
   \   0000010A   8700               STD     Z+8, R16
   \   0000010C   8711               STD     Z+9, R17
   \   0000010E   8722               STD     Z+10, R18
   \   00000110   8733               STD     Z+11, R19
   1330                  *(unsigned int*)&buf_tx_232[L_TRAF-2]=crc_m1(&buf_tx_232[0],L_TRAF-2,0xffff);
   \   00000112   EF4F               LDI     R20, 255
   \   00000114   EF5F               LDI     R21, 255
   \   00000116   E02C               LDI     R18, 12
   \   00000118   E030               LDI     R19, 0
   \   0000011A   018C               MOVW    R17:R16, R25:R24
   \   0000011C   ........           CALL    crc_m1
   \   00000120   01FC               MOVW    R31:R30, R25:R24
   \   00000122   8704               STD     Z+12, R16
   \   00000124   8715               STD     Z+13, R17
   1331                  WrArrayToFlesh(A_TRAF, &buf_tx_232[0],L_TRAF,0,0); 
   \   00000126   E070               LDI     R23, 0
   \   00000128   E060               LDI     R22, 0
   \   0000012A   E04E               LDI     R20, 14
   \   0000012C   E050               LDI     R21, 0
   \   0000012E   019C               MOVW    R19:R18, R25:R24
   \   00000130   EF0E               LDI     R16, 254
   \   00000132   E714               LDI     R17, 116
   \   00000134   ........           CALL    WrArrayToFlesh
   1332                  lock_it();   
   \   00000138   ........           CALL    lock_it
   1333                 }       
   1334          next_tm01: 
   1335            
   1336            
   1337                
   1338             ///ňŕéěĺđ ęîíňđîë˙ IP
   1339              if (Appl_seq.tm_vzat==0)goto next_tm0;
   \                     ??TIMER3_COMPA_interrupt_9:
   \   0000013C   01FD               MOVW    R31:R30, R27:R26
   \   0000013E   8900               LDD     R16, Z+16
   \   00000140   8911               LDD     R17, Z+17
   \   00000142   2B01               OR      R16, R17
   \   00000144   F041               BREQ    ??TIMER3_COMPA_interrupt_10
   1340              Appl_seq.tm_vzat--;
   \   00000146   8900               LDD     R16, Z+16
   \   00000148   ....               RCALL   ?Subroutine45
   \                     ??CrossCallReturnLabel_101:
   \   0000014A   8B00               STD     Z+16, R16
   \   0000014C   8B11               STD     Z+17, R17
   1341              if (Appl_seq.tm_vzat==0)Appl_seq.event=EV_TM_OUT;
   \   0000014E   2B01               OR      R16, R17
   \   00000150   F411               BRNE    ??TIMER3_COMPA_interrupt_10
   \   00000152   E002               LDI     R16, 2
   \   00000154   8707               STD     Z+15, R16
   1342          next_tm0:   
   1343              
   1344              
   1345              
   1346                  if(Appl_seq.cnt_waits==0)goto next_tm1;
   \                     ??TIMER3_COMPA_interrupt_10:
   \   00000156   8501               LDD     R16, Z+9
   \   00000158   8512               LDD     R17, Z+10
   \   0000015A   2B01               OR      R16, R17
   \   0000015C   F061               BREQ    ??CrossCallReturnLabel_124
   1347                  Appl_seq.cnt_waits--;
   \   0000015E   8501               LDD     R16, Z+9
   \   00000160   ....               RCALL   ?Subroutine45
   \                     ??CrossCallReturnLabel_102:
   \   00000162   8701               STD     Z+9, R16
   \   00000164   8712               STD     Z+10, R17
   1348                  if(Appl_seq.cnt_waits==0)
   \   00000166   2B01               OR      R16, R17
   \   00000168   F431               BRNE    ??CrossCallReturnLabel_124
   1349                         { 
   1350                            
   1351                             //   Appl_seq.cnt_try++;
   1352                                fl_appl_seq.kv_waits=0;
   1353                                fl_appl_seq.en_povtor=1; 
   \   0000016A   9100....           LDS     R16, fl_appl_seq
   \   0000016E   ....               RCALL   ?Subroutine71
   \                     ??CrossCallReturnLabel_152:
   \   00000170   9300....           STS     fl_appl_seq, R16
   1354                                Appl_seq.l_data=0;
   \   00000174   ....               RCALL   ?Subroutine55
   1355                                
   1356                                /*
   1357                                if(Appl_seq.cnt_try>=2) 
   1358                                 {
   1359                                 Appl_seq.cnt_cntr_cl=0;
   1360                                 Appl_seq.cntr_cl=TRUE;
   1361                                 Appl_seq.en_cntr_cl=TRUE;
   1362                                 Appl_seq.cnt_try=0;
   1363                                 fl_appl_seq.en_povtor=0;                      
   1364                                 }
   1365                                 */
   1366                                 
   1367                                                
   1368                         }    
   1369           next_tm1:   
   1370              
   1371              if(fl_ip.ip_tm_cntr_en==1)
   \                     ??CrossCallReturnLabel_124:
   \   00000176   ....               LDI     R30, LOW(Control)
   \   00000178   ....               LDI     R31, (Control) >> 8
   \   0000017A   9100....           LDS     R16, fl_ip
   \   0000017E   FF01               SBRS    R16, 1
   \   00000180   C029               RJMP    ??TIMER3_COMPA_interrupt_11
   1372                 {       
   1373                         
   1374                         if(Control.cnt_link==0) goto  next_tm2;
   \   00000182   8104               LDD     R16, Z+4
   \   00000184   8115               LDD     R17, Z+5
   \   00000186   2B01               OR      R16, R17
   \   00000188   F129               BREQ    ??TIMER3_COMPA_interrupt_11
   1375                         
   1376                         Control.cnt_link--;
   \   0000018A   ....               RCALL   ?Subroutine44
   1377                         if ( ip_change==1) { ip_change=0; Control.cnt_link=0;}   // ĺńëč ďîěĺí˙ëń˙ IP ňóň ćĺ ďîńëŕňü ęîíňđîëü ęŕíŕëŕ !!!
   \                     ??CrossCallReturnLabel_90:
   \   0000018C   9100....           LDS     R16, ip_change
   \   00000190   3001               CPI     R16, 1
   \   00000192   F431               BRNE    ??TIMER3_COMPA_interrupt_12
   \   00000194   E000               LDI     R16, 0
   \   00000196   9300....           STS     ip_change, R16
   \   0000019A   8304               STD     Z+4, R16
   \   0000019C   8305               STD     Z+5, R16
   \   0000019E   C003               RJMP    ??TIMER3_COMPA_interrupt_13
   1378                         if(Control.cnt_link==0)
   \                     ??TIMER3_COMPA_interrupt_12:
   \   000001A0   8104               LDD     R16, Z+4
   \   000001A2   2B01               OR      R16, R17
   \   000001A4   F4B9               BRNE    ??TIMER3_COMPA_interrupt_11
   1379                         { 
   1380                         
   1381                         fl_appl_seq1.enable=1;
   \                     ??TIMER3_COMPA_interrupt_13:
   \   000001A6   ....               LDI     R26, LOW(fl_appl_seq1)
   \   000001A8   ....               LDI     R27, (fl_appl_seq1) >> 8
   \   000001AA   ....               RCALL   ?Subroutine42
   1382                         
   1383                         //Control.cnt_link=Control.vol_link;
   1384                         Control.link=TRUE; 
   \                     ??CrossCallReturnLabel_215:
   \   000001AC   E001               LDI     R16, 1
   \   000001AE   8302               STD     Z+2, R16
   1385                         if(Control.link_waits==TRUE)
   \   000001B0   8101               LDD     R16, Z+1
   \   000001B2   3001               CPI     R16, 1
   \   000001B4   F469               BRNE    ??TIMER3_COMPA_interrupt_14
   1386                            {
   1387                           // if(Control.vol_try!=0)
   1388                            //   {
   1389                                Control.cnt_try++;
   \   000001B6   8506               LDD     R16, Z+14
   \   000001B8   9503               INC     R16
   \   000001BA   8706               STD     Z+14, R16
   1390                                if(Control.cnt_try>=Control.vol_try)
   \   000001BC   8517               LDD     R17, Z+15
   \   000001BE   1701               CP      R16, R17
   \   000001C0   F038               BRCS    ??TIMER3_COMPA_interrupt_14
   1391                                 {   
   1392                                 Control.link=FALSE;   
   \   000001C2   E000               LDI     R16, 0
   \   000001C4   8302               STD     Z+2, R16
   1393                                 event_modem=EVM_MS_LMT;
   \   000001C6   E007               LDI     R16, 7
   \   000001C8   9300....           STS     event_modem, R16
   1394                                 Control.link_no=TRUE;//ďđčçíŕę ńâ˙çč íĺň.
   \   000001CC   E001               LDI     R16, 1
   \   000001CE   8300               ST      Z, R16
   1395                                 }
   1396                              // }
   1397                            }
   1398                                        
   1399                          Control.link_waits=FALSE;
   \                     ??TIMER3_COMPA_interrupt_14:
   \   000001D0   E000               LDI     R16, 0
   \   000001D2   8301               STD     Z+1, R16
   1400                                       
   1401                         }    
   1402                 
   1403                 }
   1404                 
   1405           next_tm2:  
   1406             
   1407                 
   1408                 if(fl_ip.ip_tm_nat_en==1)   ///ňŕéěĺđ ęîíňđîë˙ NAT
   \                     ??TIMER3_COMPA_interrupt_11:
   \   000001D4   9100....           LDS     R16, fl_ip
   \   000001D8   FF02               SBRS    R16, 2
   \   000001DA   C014               RJMP    ??TIMER3_COMPA_interrupt_15
   1409                 {       
   1410                         Control.cnt_nat--;
   \   000001DC   8106               LDD     R16, Z+6
   \   000001DE   8117               LDD     R17, Z+7
   \   000001E0   ....               RCALL   ?Subroutine45
   \                     ??CrossCallReturnLabel_103:
   \   000001E2   8306               STD     Z+6, R16
   \   000001E4   8317               STD     Z+7, R17
   1411                         if(Control.cnt_nat==0)
   \   000001E6   2B01               OR      R16, R17
   \   000001E8   F469               BRNE    ??TIMER3_COMPA_interrupt_15
   1412                         { 
   1413                          if(simka==SIM_RES)Control.cnt_nat=Control.vol_nat_r;else Control.cnt_nat=Control.vol_nat;
   \   000001EA   9100....           LDS     R16, simka
   \   000001EE   3001               CPI     R16, 1
   \   000001F0   F419               BRNE    ??TIMER3_COMPA_interrupt_16
   \   000001F2   8900               LDD     R16, Z+16
   \   000001F4   8911               LDD     R17, Z+17
   \   000001F6   C002               RJMP    ??TIMER3_COMPA_interrupt_17
   \                     ??TIMER3_COMPA_interrupt_16:
   \   000001F8   8502               LDD     R16, Z+10
   \   000001FA   8513               LDD     R17, Z+11
   \                     ??TIMER3_COMPA_interrupt_17:
   \   000001FC   8306               STD     Z+6, R16
   \   000001FE   8317               STD     Z+7, R17
   1414                          Control.nat=TRUE;
   \   00000200   E001               LDI     R16, 1
   \   00000202   8303               STD     Z+3, R16
   1415                         }    
   1416                 
   1417                 }
   1418            
   1419             //!!!!!!!!!!!!!dobavka
   1420                 if(cnt_no_link==0) goto next_tm3;
   \                     ??TIMER3_COMPA_interrupt_15:
   \   00000204   ....               LDI     R30, LOW(cnt_no_link)
   \   00000206   ....               LDI     R31, (cnt_no_link) >> 8
   \   00000208   ....               RCALL   ?Subroutine28
   1421                   cnt_no_link--;
   1422                   if(cnt_no_link==0)Fl_ch_sim=1;
   1423            next_tm3:     
   1424                 
   1425                  if(cnt_link_res==0) goto next_tm4;
   \                     ??CrossCallReturnLabel_59:
   \   0000020A   ....               LDI     R30, LOW(cnt_link_res)
   \   0000020C   ....               LDI     R31, (cnt_link_res) >> 8
   \   0000020E   ....               RCALL   ?Subroutine28
   1426                  cnt_link_res--;
   1427                  if(cnt_link_res==0)Fl_ch_sim=1;
   1428              next_tm4:        
   1429                    
   1430           //EEEEEEEEEEEEEE dobavka
   1431           
   1432              if (Life.time_485_1==0)goto next_tm5;
   \                     ??CrossCallReturnLabel_60:
   \   00000210   ....               LDI     R30, LOW(Life)
   \   00000212   ....               LDI     R31, (Life) >> 8
   \   00000214   8100               LD      R16, Z
   \   00000216   2300               TST     R16
   \   00000218   F029               BREQ    ??TIMER3_COMPA_interrupt_18
   1433                  Life.time_485_1--;
   \   0000021A   950A               DEC     R16
   \   0000021C   8300               ST      Z, R16
   1434              if (Life.time_485_1==0)Life.start_485_1=0;    
   \   0000021E   F411               BRNE    ??TIMER3_COMPA_interrupt_18
   \   00000220   E000               LDI     R16, 0
   \   00000222   8303               STD     Z+3, R16
   1435              next_tm5:
   1436                
   1437              if (Life.time_485_2==0)goto next_tm6;
   \                     ??TIMER3_COMPA_interrupt_18:
   \   00000224   8104               LDD     R16, Z+4
   \   00000226   2300               TST     R16
   \   00000228   F029               BREQ    ??TIMER3_COMPA_interrupt_19
   1438                  Life.time_485_2--;
   \   0000022A   950A               DEC     R16
   \   0000022C   8304               STD     Z+4, R16
   1439              if (Life.time_485_2==0)Life.start_485_2=0;    
   \   0000022E   F411               BRNE    ??TIMER3_COMPA_interrupt_19
   \   00000230   E000               LDI     R16, 0
   \   00000232   8307               STD     Z+7, R16
   1440                 
   1441              next_tm6:
   1442                
   1443              if (Life.time_232_2==0)goto next_tm7;
   \                     ??TIMER3_COMPA_interrupt_19:
   \   00000234   8500               LDD     R16, Z+8
   \   00000236   2300               TST     R16
   \   00000238   F031               BREQ    ??TIMER3_COMPA_interrupt_20
   1444                  Life.time_232_2--;
   \   0000023A   950A               DEC     R16
   \   0000023C   8700               STD     Z+8, R16
   1445              if (Life.time_232_2==0)Life.start_232_2=0;
   \   0000023E   2300               TST     R16
   \   00000240   F411               BRNE    ??TIMER3_COMPA_interrupt_20
   \   00000242   E000               LDI     R16, 0
   \   00000244   8703               STD     Z+11, R16
   1446              next_tm7:;
   1447           ////////////////////////////////////////// 
   1448               
   1449              }
   \                     ??TIMER3_COMPA_interrupt_20:
   \   00000246   BE6C               OUT     0x3C, R6
   \   00000248   BE5B               OUT     0x3B, R5
   \   0000024A   BE4F               OUT     0x3F, R4
   \   0000024C   ....               RCALL   ?Subroutine57
   \                     ??CrossCallReturnLabel_185:
   \   0000024E   9189               LD      R24, Y+
   \   00000250   9199               LD      R25, Y+
   \   00000252   ....               RCALL   ?Subroutine61
   \                     ??CrossCallReturnLabel_131:
   \   00000254   9518               RETI

   \                                 In segment CODE, align 2, keep-with-next
   \                     ?Subroutine34:
   \   00000000   8100               LD      R16, Z
   \   00000002   8111               LDD     R17, Z+1
   \   00000004   8122               LDD     R18, Z+2
   \   00000006   8133               LDD     R19, Z+3
   \   00000008   01FC               MOVW    R31:R30, R25:R24
   \   0000000A   9508               RET

   \                                 In segment CODE, align 2, keep-with-next
   \                     ?Subroutine31:
   \   00000000   8100               LD      R16, Z
   \   00000002   8111               LDD     R17, Z+1
   \   00000004   2B01               OR      R16, R17
   \   00000006   F029               BREQ    ??Subroutine31_0
   \   00000008   8100               LD      R16, Z
   \   0000000A   5001               SUBI    R16, 1
   \   0000000C   4010               SBCI    R17, 0
   \   0000000E   8300               ST      Z, R16
   \   00000010   8311               STD     Z+1, R17
   \                     ??Subroutine31_0:
   \   00000012   9508               RET

   \                                 In segment CODE, align 2, keep-with-next
   \                     ?Subroutine28:
   \   00000000   8100               LD      R16, Z
   \   00000002   8111               LDD     R17, Z+1
   \   00000004   8122               LDD     R18, Z+2
   \   00000006   8133               LDD     R19, Z+3
   \   00000008   2B01               OR      R16, R17
   \   0000000A   2B02               OR      R16, R18
   \   0000000C   2B03               OR      R16, R19
   \   0000000E   F081               BREQ    ??Subroutine28_0
   \   00000010   8100               LD      R16, Z
   \   00000012   5001               SUBI    R16, 1
   \   00000014   4010               SBCI    R17, 0
   \   00000016   4020               SBCI    R18, 0
   \   00000018   4030               SBCI    R19, 0
   \   0000001A   8300               ST      Z, R16
   \   0000001C   8311               STD     Z+1, R17
   \   0000001E   8322               STD     Z+2, R18
   \   00000020   8333               STD     Z+3, R19
   \   00000022   2B01               OR      R16, R17
   \   00000024   2B02               OR      R16, R18
   \   00000026   2B03               OR      R16, R19
   \   00000028   F419               BRNE    ??Subroutine28_0
   \   0000002A   E001               LDI     R16, 1
   \   0000002C   9300....           STS     Fl_ch_sim, R16
   \                     ??Subroutine28_0:
   \   00000030   9508               RET

   \                                 In segment CODE, align 2, keep-with-next
   \                     ?Subroutine25:
   \   00000000   926A               ST      -Y, R6
   \   00000002   925A               ST      -Y, R5
   \   00000004   924A               ST      -Y, R4
   \                     ??Subroutine25_0:
   \   00000006   93BA               ST      -Y, R27
   \   00000008   93AA               ST      -Y, R26
   \   0000000A   9508               RET

   \                                 In segment CODE, align 2, keep-with-next
   \                     ?Subroutine61:
   \   00000000   91A9               LD      R26, Y+
   \   00000002   91B9               LD      R27, Y+
   \   00000004   9049               LD      R4, Y+
   \   00000006   9059               LD      R5, Y+
   \   00000008   9069               LD      R6, Y+
   \   0000000A   9508               RET

   \                                 In segment CODE, align 2, keep-with-next
   \                     ?Subroutine57:
   \   00000000   9109               LD      R16, Y+
   \   00000002   9119               LD      R17, Y+
   \   00000004   9129               LD      R18, Y+
   \   00000006   9139               LD      R19, Y+
   \   00000008   9149               LD      R20, Y+
   \   0000000A   9159               LD      R21, Y+
   \   0000000C   9169               LD      R22, Y+
   \   0000000E   9179               LD      R23, Y+
   \   00000010   9009               LD      R0, Y+
   \   00000012   9019               LD      R1, Y+
   \   00000014   9029               LD      R2, Y+
   \   00000016   9039               LD      R3, Y+
   \   00000018                      REQUIRE ?Subroutine91
   \   00000018                      ;               // Fall through to label ?Subroutine91

   \                                 In segment CODE, align 2, keep-with-next
   \                     ?Subroutine91:
   \   00000000   91E9               LD      R30, Y+
   \   00000002   91F9               LD      R31, Y+
   \   00000004   9508               RET

   \                                 In segment CODE, align 2, keep-with-next
   \                     ?Subroutine21:
   \   00000000   93FA               ST      -Y, R31
   \   00000002   93EA               ST      -Y, R30
   \   00000004   923A               ST      -Y, R3
   \   00000006   922A               ST      -Y, R2
   \   00000008   921A               ST      -Y, R1
   \   0000000A   920A               ST      -Y, R0
   \   0000000C   937A               ST      -Y, R23
   \   0000000E   936A               ST      -Y, R22
   \   00000010   935A               ST      -Y, R21
   \   00000012   934A               ST      -Y, R20
   \   00000014   933A               ST      -Y, R19
   \   00000016   932A               ST      -Y, R18
   \   00000018   931A               ST      -Y, R17
   \   0000001A   930A               ST      -Y, R16
   \   0000001C   9508               RET
   1450          
   1451          
   1452          
   1453          #pragma vector=USART0_RX_vect
   1454                     

   \                                 In segment CODE, align 2, keep-with-next
   1455                     __interrupt  void USART0_RX_interrupt(void)
   \                     USART0_RX_interrupt:
   1456                           
   1457                           
   1458                          {
   \   00000000   ....               RCALL   ?Subroutine20
   1459                          unsigned char data;                
   1460                          data=UDR0;
   \                     ??CrossCallReturnLabel_39:
   \   00000002   910000C6           LDS     R16, 198
   1461                          if((Regim==MODEM_ONLY)||(Regim==MODEM_ONLY_R)){UDR2=data;return;} //dobavka             
   \   00000006   9110....           LDS     R17, Regim
   \   0000000A   3012               CPI     R17, 2
   \   0000000C   F011               BREQ    ??USART0_RX_interrupt_0
   \   0000000E   3013               CPI     R17, 3
   \   00000010   F419               BRNE    ??USART0_RX_interrupt_1
   \                     ??USART0_RX_interrupt_0:
   \   00000012   930000D6           STS     214, R16
   \   00000016   C053               RJMP    ??USART0_RX_interrupt_2
   1462                          if(Regim==RG_DEBAG)UDR1=data; 
   \                     ??USART0_RX_interrupt_1:
   \   00000018   3011               CPI     R17, 1
   \   0000001A   F411               BRNE    ??USART0_RX_interrupt_3
   \   0000001C   930000CE           STS     206, R16
   1463                          //* â ňĺđěčíŕëüíîě đĺćčěĺ çŕďîëí˙ĺě ěŕńńčâ
   1464                          if (fl_at_mom_232==1) {
   \                     ??USART0_RX_interrupt_3:
   \   00000020   9110....           LDS     R17, fl_at_mom_232
   \   00000024   3011               CPI     R17, 1
   \   00000026   F471               BRNE    ??USART0_RX_interrupt_4
   1465                                                
   1466                                                 Appl_seq_buf[point_Head]=data; 
   \   00000028   9120....           LDS     R18, point_Head
   \   0000002C   E030               LDI     R19, 0
   \   0000002E   01F9               MOVW    R31:R30, R19:R18
   \   00000030   ....               SUBI    R30, LOW((-(Appl_seq_buf) & 0xFFFF))
   \   00000032   ....               SBCI    R31, (-(Appl_seq_buf) & 0xFFFF) >> 8
   \   00000034   8300               ST      Z, R16
   1467                                                 point_Head++;
   1468                                                 point_Head=point_Head & 0x3f;
   \   00000036   9100....           LDS     R16, point_Head
   \   0000003A   9503               INC     R16
   \   0000003C   730F               ANDI    R16, 0x3F
   \   0000003E   9300....           STS     point_Head, R16
   1469                                                 return;
   \   00000042   C03D               RJMP    ??USART0_RX_interrupt_2
   1470                          }
   1471                          
   1472                          
   1473                          
   1474                          
   1475                          //*
   1476                        
   1477                          if(command_AT==TRUE)
   \                     ??USART0_RX_interrupt_4:
   \   00000044   9110....           LDS     R17, command_AT
   \   00000048   3011               CPI     R17, 1
   \   0000004A   F511               BRNE    ??USART0_RX_interrupt_5
   1478                              {
   1479                              if(fl_at_com.rx_en==0)return;  //dobavka 08.11.2007
   \   0000004C   9110....           LDS     R17, fl_at_com
   \   00000050   FF14               SBRS    R17, 4
   \   00000052   C035               RJMP    ??USART0_RX_interrupt_2
   1480                              
   1481                              S2_GR;
   \   00000054   9840               CBI     0x08, 0x00
   \   00000056   9A41               SBI     0x08, 0x01
   1482                              At_com.cnt_rx_out=At_com.vol_rx_out;
   \   00000058   ....               LDI     R30, LOW((At_com + 67))
   \   0000005A   ....               LDI     R31, HIGH((At_com + 67))
   \   0000005C   8120               LD      R18, Z
   \   0000005E   8131               LDD     R19, Z+1
   \   00000060   ....               LDI     R30, LOW((At_com + 65))
   \   00000062   ....               LDI     R31, HIGH((At_com + 65))
   \   00000064   8320               ST      Z, R18
   \   00000066   8331               STD     Z+1, R19
   1483                              At_com.cnt_tm_out=0;
   \   00000068   E020               LDI     R18, 0
   \   0000006A   E030               LDI     R19, 0
   \   0000006C   ....               LDI     R30, LOW((At_com + 61))
   \   0000006E   ....               LDI     R31, HIGH((At_com + 61))
   \   00000070   8320               ST      Z, R18
   \   00000072   8321               STD     Z+1, R18
   1484                              if(At_com.cnt_rx < LN_BUF_AT)
   \   00000074   9120....           LDS     R18, (At_com + 41)
   \   00000078   3228               CPI     R18, 40
   \   0000007A   F508               BRCC    ??USART0_RX_interrupt_2
   1485                                    {
   1486                                     At_com.buf[At_com.cnt_rx]=data;
   \   0000007C   01F9               MOVW    R31:R30, R19:R18
   \   0000007E   ....               SUBI    R30, LOW((-(At_com) & 0xFFFF))
   \   00000080   ....               SBCI    R31, (-(At_com) & 0xFFFF) >> 8
   \   00000082   8300               ST      Z, R16
   1487                                     At_com.cnt_rx++;
   \   00000084   ....               LDI     R30, LOW(At_com)
   \   00000086   ....               LDI     R31, (At_com) >> 8
   \   00000088   A501               LDD     R16, Z+41
   \   0000008A   9503               INC     R16
   \   0000008C   A701               STD     Z+41, R16
   \   0000008E   C017               RJMP    ??USART0_RX_interrupt_2
   1488                                     }
   1489                              return;
   1490                              }
   1491                         
   1492                            cnt_incom++;
   \                     ??USART0_RX_interrupt_5:
   \   00000090   ....               LDI     R30, LOW(cnt_incom)
   \   00000092   ....               LDI     R31, (cnt_incom) >> 8
   \   00000094   8140               LD      R20, Z
   \   00000096   8151               LDD     R21, Z+1
   \   00000098   8162               LDD     R22, Z+2
   \   0000009A   8173               LDD     R23, Z+3
   \   0000009C   5F4F               SUBI    R20, 255
   \   0000009E   4F5F               SBCI    R21, 255
   \   000000A0   4F6F               SBCI    R22, 255
   \   000000A2   4F7F               SBCI    R23, 255
   \   000000A4   8340               ST      Z, R20
   \   000000A6   8351               STD     Z+1, R21
   \   000000A8   8362               STD     Z+2, R22
   \   000000AA   8373               STD     Z+3, R23
   1493                            if(fl_rx_ppp.switcher==0)recive_buf1(data);else recive_buf2(data);
   \   000000AC   9110....           LDS     R17, (point_Head + 1)
   \   000000B0   FD12               SBRC    R17, 2
   \   000000B2   C003               RJMP    ??USART0_RX_interrupt_6
   \   000000B4   ........           CALL    recive_buf1
   \   000000B8   C002               RJMP    ??USART0_RX_interrupt_2
   \                     ??USART0_RX_interrupt_6:
   \   000000BA   ........           CALL    recive_buf2
   \                     ??USART0_RX_interrupt_2:
   \   000000BE                      REQUIRE ?Subroutine86
   \   000000BE                      ;               // Fall through to label ?Subroutine86
   1494            
   1495                           }

   \                                 In segment CODE, align 2, keep-with-next
   \                     ?Subroutine86:
   \   00000000   ....               RCALL   ?Subroutine54
   \                     ??CrossCallReturnLabel_172:
   \   00000002   9518               RETI

   \                                 In segment CODE, align 2, keep-with-next
   \                     ?Subroutine54:
   \   00000000   BFAC               OUT     0x3C, R26
   \   00000002   BF9B               OUT     0x3B, R25
   \   00000004   BF8F               OUT     0x3F, R24
   \   00000006   9109               LD      R16, Y+
   \   00000008   9119               LD      R17, Y+
   \   0000000A   9129               LD      R18, Y+
   \   0000000C   9139               LD      R19, Y+
   \   0000000E   9149               LD      R20, Y+
   \   00000010   9159               LD      R21, Y+
   \   00000012   9169               LD      R22, Y+
   \   00000014   9179               LD      R23, Y+
   \   00000016   9009               LD      R0, Y+
   \   00000018   9019               LD      R1, Y+
   \   0000001A   9029               LD      R2, Y+
   \   0000001C   9039               LD      R3, Y+
   \   0000001E   91E9               LD      R30, Y+
   \   00000020   91F9               LD      R31, Y+
   \   00000022   9189               LD      R24, Y+
   \   00000024   9199               LD      R25, Y+
   \   00000026   91A9               LD      R26, Y+
   \   00000028   9508               RET

   \                                 In segment CODE, align 2, keep-with-next
   \                     ?Subroutine20:
   \   00000000   93AA               ST      -Y, R26
   \   00000002   939A               ST      -Y, R25
   \   00000004   938A               ST      -Y, R24
   \   00000006   93FA               ST      -Y, R31
   \   00000008   93EA               ST      -Y, R30
   \   0000000A   923A               ST      -Y, R3
   \   0000000C   922A               ST      -Y, R2
   \   0000000E   921A               ST      -Y, R1
   \   00000010   920A               ST      -Y, R0
   \   00000012   937A               ST      -Y, R23
   \   00000014   936A               ST      -Y, R22
   \   00000016   935A               ST      -Y, R21
   \   00000018   934A               ST      -Y, R20
   \   0000001A   933A               ST      -Y, R19
   \   0000001C   932A               ST      -Y, R18
   \   0000001E   931A               ST      -Y, R17
   \   00000020   930A               ST      -Y, R16
   \   00000022   B78F               IN      R24, 0x3F
   \   00000024   B79B               IN      R25, 0x3B
   \   00000026   B7AC               IN      R26, 0x3C
   \   00000028   9508               RET
   1496           /////////////////////////////////////////////////////////////////////////////////////////////////////  
   1497              
   1498           //////////////////////////////////////////////////////////////////////////////////////////////////////////
   1499          
   1500          #pragma vector=USART0_TX_vect

   \                                 In segment CODE, align 2, keep-with-next
   1501               __interrupt void USART0_TX_interrupt(void) 
   \                     USART0_TX_interrupt:
   1502          
   1503          { 
   \   00000000   ....               RCALL   ?Subroutine20
   1504            
   1505            if(command_AT==TRUE)sending_at_pac(); 
   \                     ??CrossCallReturnLabel_40:
   \   00000002   9100....           LDS     R16, command_AT
   \   00000006   3001               CPI     R16, 1
   \   00000008   F419               BRNE    ??USART0_TX_interrupt_0
   \   0000000A   ........           CALL    sending_at_pac
   \   0000000E   C00D               RJMP    ??USART0_TX_interrupt_1
   1506              
   1507            else 
   1508                  {
   1509                  
   1510                  if(fl_cts_232_ignor==TRUE){sending_ppp_pac();return;}
   \                     ??USART0_TX_interrupt_0:
   \   00000010   9100....           LDS     R16, fl_cts_232_ignor
   \   00000014   3001               CPI     R16, 1
   \   00000016   F411               BRNE    ??USART0_TX_interrupt_2
   \                     ??USART0_TX_interrupt_3:
   \   00000018   ....               RCALL   ?Subroutine67
   \                     ??CrossCallReturnLabel_144:
   \   0000001A   C007               RJMP    ??USART0_TX_interrupt_1
   1511                  
   1512                  cnt_outcom++;
   \                     ??USART0_TX_interrupt_2:
   \   0000001C   ....               LDI     R30, LOW(cnt_outcom)
   \   0000001E   ....               LDI     R31, (cnt_outcom) >> 8
   \   00000020   ....               RCALL   ?Subroutine30
   1513                  
   1514                  if(check_cts()==1) return;
   \                     ??CrossCallReturnLabel_61:
   \   00000022   ........           CALL    check_cts
   \   00000026   3001               CPI     R16, 1
   \   00000028   F7B9               BRNE    ??USART0_TX_interrupt_3
   \                     ??USART0_TX_interrupt_1:
   \   0000002A   ....               RJMP    ?Subroutine86
   1515                  sending_ppp_pac();
   1516                  } 
   1517            }

   \                                 In segment CODE, align 2, keep-with-next
   \                     ?Subroutine30:
   \   00000000   8100               LD      R16, Z
   \   00000002   8111               LDD     R17, Z+1
   \   00000004   8122               LDD     R18, Z+2
   \   00000006   8133               LDD     R19, Z+3
   \   00000008   5F0F               SUBI    R16, 255
   \   0000000A   4F1F               SBCI    R17, 255
   \   0000000C   4F2F               SBCI    R18, 255
   \   0000000E   4F3F               SBCI    R19, 255
   \   00000010   8300               ST      Z, R16
   \   00000012   8311               STD     Z+1, R17
   \   00000014   8322               STD     Z+2, R18
   \   00000016   8333               STD     Z+3, R19
   \   00000018   9508               RET
   1518          
   1519          /////////////////////////////////////////////////////////////////////////////////////////////////////
   1520          /*
   1521          #pragma vector=USART0_UDRE_vect
   1522                     
   1523                     __interrupt  void USART0_UDRE_interrupt(void)
   1524                     {
   1525                       sending_ppp_proverka();
   1526                     }
   1527          
   1528          
   1529          */
   1530          /////////////////////////////////////////////////////////////////////////////////////////////////////
   1531          #pragma vector=USART1_RX_vect
   1532                     

   \                                 In segment CODE, align 2, keep-with-next
   1533                     __interrupt  void USART1_RX_interrupt(void)
   \                     USART1_RX_interrupt:
   1534                           
   1535                           
   1536                          {
   \   00000000   ....               RCALL   ??Subroutine25_0
   \                     ??CrossCallReturnLabel_50:
   \   00000002   ....               RCALL   ?Subroutine24
   1537                          unsigned char data;
   1538                          
   1539                          data=UDR1;
   \                     ??CrossCallReturnLabel_47:
   \   00000004   912000CE           LDS     R18, 206
   1540                          S4_GR;
   \   00000008   9842               CBI     0x08, 0x02
   \   0000000A   9A43               SBI     0x08, 0x03
   1541                          Rs485_2.cnt_tm_rx_out=Rs485_2.vol_tm_rx_out;
   \   0000000C   ....               LDI     R30, LOW(Rs485_1)
   \   0000000E   ....               LDI     R31, (Rs485_1) >> 8
   \   00000010   8D04               LDD     R16, Z+28
   \   00000012   8D15               LDD     R17, Z+29
   \   00000014   8F02               STD     Z+26, R16
   \   00000016   8F13               STD     Z+27, R17
   1542                          Rs485_2.cnt_tm_out=0;
   \   00000018   E000               LDI     R16, 0
   \   0000001A   8F06               STD     Z+30, R16
   \   0000001C   8F07               STD     Z+31, R16
   1543                          if(Rs485_2.cnt_bt_rx_tx < MAX_BUF_RS485_2)
   \   0000001E   ....               RCALL   ?Subroutine78
   \                     ??CrossCallReturnLabel_157:
   \   00000020   3F0C               CPI     R16, 252
   \   00000022   E033               LDI     R19, 3
   \   00000024   0713               CPC     R17, R19
   \   00000026   F448               BRCC    ??USART1_RX_interrupt_0
   1544                                 {
   1545                                  Rs485_2_buf_rx_tx[Rs485_2.cnt_bt_rx_tx]=data;
   \   00000028   01D8               MOVW    R27:R26, R17:R16
   \   0000002A   ....               SUBI    R26, LOW((-(Rs485_2_buf_rx_tx) & 0xFFFF))
   \   0000002C   ....               SBCI    R27, (-(Rs485_2_buf_rx_tx) & 0xFFFF) >> 8
   \   0000002E   932C               ST      X, R18
   1546                                  Rs485_2.cnt_bt_rx_tx++;
   \   00000030   ....               RCALL   ?Subroutine78
   \                     ??CrossCallReturnLabel_158:
   \   00000032   ....               RCALL   ?Subroutine63
   \                     ??CrossCallReturnLabel_137:
   \   00000034   8B02               STD     Z+18, R16
   \   00000036   8B13               STD     Z+19, R17
   \   00000038   C003               RJMP    ??USART1_RX_interrupt_1
   1547                                  }
   1548                                  else fl_485_2.over=1;
   \                     ??USART1_RX_interrupt_0:
   \   0000003A   AD03               LDD     R16, Z+59
   \   0000003C   6100               ORI     R16, 0x10
   \   0000003E   AF03               STD     Z+59, R16
   1549                          }
   \                     ??USART1_RX_interrupt_1:
   \   00000040   ....               RCALL   ?Subroutine60
   \                     ??CrossCallReturnLabel_187:
   \   00000042   91A9               LD      R26, Y+
   \   00000044   91B9               LD      R27, Y+
   \   00000046   9518               RETI

   \                                 In segment CODE, align 2, keep-with-next
   \                     ?Subroutine78:
   \   00000000   8902               LDD     R16, Z+18
   \   00000002   8913               LDD     R17, Z+19
   \   00000004   9508               RET

   \                                 In segment CODE, align 2, keep-with-next
   \                     ?Subroutine60:
   \   00000000   BF4F               OUT     0x3F, R20
   \   00000002   9109               LD      R16, Y+
   \   00000004   9119               LD      R17, Y+
   \   00000006   9129               LD      R18, Y+
   \   00000008   9139               LD      R19, Y+
   \   0000000A   9149               LD      R20, Y+
   \   0000000C   ....               RJMP    ?Subroutine91

   \                                 In segment CODE, align 2, keep-with-next
   \                     ?Subroutine24:
   \   00000000   93FA               ST      -Y, R31
   \   00000002   93EA               ST      -Y, R30
   \   00000004   934A               ST      -Y, R20
   \   00000006   933A               ST      -Y, R19
   \   00000008   932A               ST      -Y, R18
   \   0000000A   931A               ST      -Y, R17
   \   0000000C   930A               ST      -Y, R16
   \   0000000E   B74F               IN      R20, 0x3F
   \   00000010   9508               RET
   1550           /////////////////////////////////////////////////////////////////////////////////////////////////////
   1551           
   1552          
   1553          
   1554          
   1555          /////////////////////////////////////////////////////////////////////////////////////////////////////
   1556          
   1557          #pragma vector=USART1_TX_vect
   1558                     

   \                                 In segment CODE, align 2, keep-with-next
   1559                     __interrupt  void USART1_TX_interrupt(void)
   \                     USART1_TX_interrupt:
   1560          
   1561          {
   \   00000000   ....               RCALL   ?Subroutine22
   1562          
   1563           if(Rs485_2.cnt_bt_rx_tx==0) goto end_tx1;
   \                     ??CrossCallReturnLabel_43:
   \   00000002   ....               RCALL   ?Subroutine78
   \                     ??CrossCallReturnLabel_159:
   \   00000004   2B01               OR      R16, R17
   \   00000006   F491               BRNE    ??USART1_TX_interrupt_0
   1564                                                                 
   1565                          UDR1=*Rs485_2.p_data485++;
   1566                          Rs485_2.cnt_bt_rx_tx--; 
   1567                          return;
   1568          end_tx1:
   1569                         UCSR1B=UCSR1B & ~TXCIE;
   \   00000008   910000C9           LDS     R16, 201
   \   0000000C   7B0F               ANDI    R16, 0xBF
   \   0000000E   930000C9           STS     201, R16
   1570                         Rs485_2.cnt_bt_rx_tx=0;
   \   00000012   E000               LDI     R16, 0
   \   00000014   8B02               STD     Z+18, R16
   \   00000016   8B03               STD     Z+19, R16
   1571                         Rs485_2.cnt_tm_tx_out=Rs485_2.vol_tm_tx_out;
   \   00000018   8D00               LDD     R16, Z+24
   \   0000001A   8D11               LDD     R17, Z+25
   \   0000001C   8B04               STD     Z+20, R16
   \   0000001E   8B15               STD     Z+21, R17
   1572                         if(Rs485_2.cnt_tm_tx_out==0)
   \   00000020   2B01               OR      R16, R17
   \   00000022   F419               BRNE    ??CrossCallReturnLabel_196
   1573                         {
   1574                          S4_OFF;
   \   00000024   ....               RCALL   ?Subroutine72
   1575                          Rs485_2.cnt_tm_out=Rs485_2.vol_tm_out;
   1576                          CLR_RTS3;  // togle to receiv mode  
   \                     ??CrossCallReturnLabel_154:
   \   00000026   985C               CBI     0x0B, 0x04
   1577                          UCSR1B =UCSR1B | RXEN | RXCIE; // togle to receiv mode ;
   \   00000028   ....               RCALL   ?Subroutine75
   \                     ??CrossCallReturnLabel_196:
   \   0000002A   ....               RJMP    ?Subroutine87
   1578                         }
   \                     ??USART1_TX_interrupt_0:
   \   0000002C   A1A2               LDD     R26, Z+34
   \   0000002E   A1B3               LDD     R27, Z+35
   \   00000030   910C               LD      R16, X
   \   00000032   930000CE           STS     206, R16
   \   00000036   A102               LDD     R16, Z+34
   \   00000038   A113               LDD     R17, Z+35
   \   0000003A   ....               RCALL   ?Subroutine63
   \                     ??CrossCallReturnLabel_138:
   \   0000003C   A302               STD     Z+34, R16
   \   0000003E   A313               STD     Z+35, R17
   \   00000040   ....               RCALL   ?Subroutine78
   \                     ??CrossCallReturnLabel_160:
   \   00000042   ....               RCALL   ?Subroutine45
   \                     ??CrossCallReturnLabel_104:
   \   00000044   8B02               STD     Z+18, R16
   \   00000046   8B13               STD     Z+19, R17
   \   00000048   CFF0               RJMP    ??CrossCallReturnLabel_196
   1579                        
   1580          
   1581          }

   \                                 In segment CODE, align 2, keep-with-next
   \                     ?Subroutine87:
   \   00000000   ....               RCALL   ?Subroutine58
   \                     ??CrossCallReturnLabel_173:
   \   00000002   9518               RETI

   \                                 In segment CODE, align 2, keep-with-next
   \                     ?Subroutine58:
   \   00000000   BF2F               OUT     0x3F, R18
   \   00000002   9109               LD      R16, Y+
   \   00000004   9119               LD      R17, Y+
   \   00000006   9129               LD      R18, Y+
   \   00000008                      REQUIRE ?Subroutine89
   \   00000008                      ;               // Fall through to label ?Subroutine89

   \                                 In segment CODE, align 2, keep-with-next
   \                     ?Subroutine89:
   \   00000000   91E9               LD      R30, Y+
   \   00000002   91F9               LD      R31, Y+
   \   00000004   91A9               LD      R26, Y+
   \   00000006   91B9               LD      R27, Y+
   \   00000008   9508               RET

   \                                 In segment CODE, align 2, keep-with-next
   \                     ?Subroutine22:
   \   00000000   93BA               ST      -Y, R27
   \   00000002   93AA               ST      -Y, R26
   \   00000004   93FA               ST      -Y, R31
   \   00000006   93EA               ST      -Y, R30
   \   00000008   932A               ST      -Y, R18
   \   0000000A   931A               ST      -Y, R17
   \   0000000C   930A               ST      -Y, R16
   \   0000000E   B72F               IN      R18, 0x3F
   \   00000010   ....               LDI     R30, LOW(Rs485_1)
   \   00000012   ....               LDI     R31, (Rs485_1) >> 8
   \   00000014   9508               RET
   1582          ///////////////////////////////////////////////////////////////////////////////////////////////////////////////////
   1583          
   1584          
   1585          
   1586          
   1587          
   1588          
   1589          /////////////////////////////////////////////////////////////////////////////////////////////////////
   1590          #pragma vector=USART2_RX_vect
   1591                     

   \                                 In segment CODE, align 2, keep-with-next
   1592                     __interrupt  void USART2_RX_interrupt(void)
   \                     USART2_RX_interrupt:
   1593                           
   1594                           
   1595                          {
   \   00000000   ....               RCALL   ?Subroutine23
   1596                          unsigned char data;                
   1597                          data=UDR2;
   \                     ??CrossCallReturnLabel_45:
   \   00000002   912000D6           LDS     R18, 214
   1598                            
   1599                          if((Regim==MODEM_ONLY)||(Regim==MODEM_ONLY_R)){UDR0=data;return;}//dobavka 
   \   00000006   9100....           LDS     R16, Regim
   \   0000000A   3002               CPI     R16, 2
   \   0000000C   F011               BREQ    ??USART2_RX_interrupt_0
   \   0000000E   3003               CPI     R16, 3
   \   00000010   F419               BRNE    ??USART2_RX_interrupt_1
   \                     ??USART2_RX_interrupt_0:
   \   00000012   932000C6           STS     198, R18
   \   00000016   C02F               RJMP    ??USART2_RX_interrupt_2
   1600                           if (fl_at_mom_232==1)
   \                     ??USART2_RX_interrupt_1:
   \   00000018   9100....           LDS     R16, fl_at_mom_232
   \   0000001C   3001               CPI     R16, 1
   \   0000001E   F481               BRNE    ??USART2_RX_interrupt_3
   1601                          {
   1602                            if(vol_tx_ppp>=VOL_TX_PPP)vol_tx_ppp=0;
   \   00000020   ....               LDI     R30, LOW(vol_tx_ppp)
   \   00000022   ....               LDI     R31, (vol_tx_ppp) >> 8
   \   00000024   ....               RCALL   ?Subroutine35
   \                     ??CrossCallReturnLabel_72:
   \   00000026   340C               CPI     R16, 76
   \   00000028   4014               SBCI    R17, 4
   \   0000002A   F008               BRCS    ??CrossCallReturnLabel_85
   \   0000002C   ....               RCALL   ?Subroutine37
   1603                            buf_tx_232[vol_tx_ppp]=data; 
   \                     ??CrossCallReturnLabel_85:
   \   0000002E   ....               RCALL   ?Subroutine35
   \                     ??CrossCallReturnLabel_73:
   \   00000030   01F8               MOVW    R31:R30, R17:R16
   \   00000032   ....               SUBI    R30, LOW((-(buf_tx_232) & 0xFFFF))
   \   00000034   ....               SBCI    R31, (-(buf_tx_232) & 0xFFFF) >> 8
   \   00000036   8320               ST      Z, R18
   1604                            vol_tx_ppp++; 
   \   00000038   ....               LDI     R30, LOW(vol_tx_ppp)
   \   0000003A   ....               LDI     R31, (vol_tx_ppp) >> 8
   \   0000003C   ....               RCALL   ?Subroutine29
   1605                            return; 
   \                     ??CrossCallReturnLabel_182:
   \   0000003E   C01B               RJMP    ??USART2_RX_interrupt_2
   1606                           } 
   1607                          
   1608                          
   1609                           
   1610                          S5_GR;
   \                     ??USART2_RX_interrupt_3:
   \   00000040   9846               CBI     0x08, 0x06
   \   00000042   9A47               SBI     0x08, 0x07
   1611                          Rs232_2.cnt_tm_rx_out=Rs232_2.vol_tm_rx_out;
   \   00000044   ....               LDI     R30, LOW(Rs485_1)
   \   00000046   ....               LDI     R31, (Rs485_1) >> 8
   \   00000048   A506               LDD     R16, Z+46
   \   0000004A   A517               LDD     R17, Z+47
   \   0000004C   A704               STD     Z+44, R16
   \   0000004E   A715               STD     Z+45, R17
   1612                          Rs232_2.cnt_tm_out=0;
   \   00000050   E000               LDI     R16, 0
   \   00000052   AB00               STD     Z+48, R16
   \   00000054   AB01               STD     Z+49, R16
   1613                          if(Rs232_2.cnt_bt_rx_tx < MAX_BUF_RS232_2)
   \   00000056   ....               RCALL   ?Subroutine79
   \                     ??CrossCallReturnLabel_161:
   \   00000058   3014               CPI     R17, 4
   \   0000005A   F448               BRCC    ??USART2_RX_interrupt_4
   1614                                 {
   1615                                  Rs232_2_buf_rx_tx[Rs232_2.cnt_bt_rx_tx]=data;
   \   0000005C   01D8               MOVW    R27:R26, R17:R16
   \   0000005E   ....               SUBI    R26, LOW((-(Rs232_2_buf_rx_tx) & 0xFFFF))
   \   00000060   ....               SBCI    R27, (-(Rs232_2_buf_rx_tx) & 0xFFFF) >> 8
   \   00000062   932C               ST      X, R18
   1616                                  Rs232_2.cnt_bt_rx_tx++;
   \   00000064   ....               RCALL   ?Subroutine79
   \                     ??CrossCallReturnLabel_162:
   \   00000066   ....               RCALL   ?Subroutine63
   \                     ??CrossCallReturnLabel_139:
   \   00000068   A304               STD     Z+36, R16
   \   0000006A   A315               STD     Z+37, R17
   \   0000006C   C004               RJMP    ??USART2_RX_interrupt_2
   1617                                  }
   1618                                  else fl_232_2.over=1;
   \                     ??USART2_RX_interrupt_4:
   \   0000006E   96FC               ADIW    R31:R30, 60
   \   00000070   8100               LD      R16, Z
   \   00000072   6100               ORI     R16, 0x10
   \   00000074   8300               ST      Z, R16
   \                     ??USART2_RX_interrupt_2:
   \   00000076                      REQUIRE ?Subroutine88
   \   00000076                      ;               // Fall through to label ?Subroutine88
   1619                          }

   \                                 In segment CODE, align 2, keep-with-next
   \                     ?Subroutine88:
   \   00000000   ....               RCALL   ?Subroutine59
   \                     ??CrossCallReturnLabel_174:
   \   00000002   9518               RETI

   \                                 In segment CODE, align 2, keep-with-next
   \                     ?Subroutine79:
   \   00000000   A104               LDD     R16, Z+36
   \   00000002   A115               LDD     R17, Z+37
   \   00000004   9508               RET

   \                                 In segment CODE, align 2, keep-with-next
   \                     ?Subroutine59:
   \   00000000   BF3F               OUT     0x3F, R19
   \   00000002   9109               LD      R16, Y+
   \   00000004   9119               LD      R17, Y+
   \   00000006   9129               LD      R18, Y+
   \   00000008   9139               LD      R19, Y+
   \   0000000A   ....               RJMP    ?Subroutine89

   \                                 In segment CODE, align 2, keep-with-next
   \                     ?Subroutine23:
   \   00000000   93BA               ST      -Y, R27
   \   00000002   93AA               ST      -Y, R26
   \   00000004   93FA               ST      -Y, R31
   \   00000006   93EA               ST      -Y, R30
   \   00000008   933A               ST      -Y, R19
   \   0000000A   932A               ST      -Y, R18
   \   0000000C   931A               ST      -Y, R17
   \   0000000E   930A               ST      -Y, R16
   \   00000010   B73F               IN      R19, 0x3F
   \   00000012   9508               RET
   1620           /////////////////////////////////////////////////////////////////////////////////////////////////////
   1621           
   1622          
   1623          
   1624          
   1625          /////////////////////////////////////////////////////////////////////////////////////////////////////
   1626          
   1627          #pragma vector=USART2_TX_vect
   1628                     

   \                                 In segment CODE, align 2, keep-with-next
   1629                     __interrupt  void USART2_TX_interrupt(void)
   \                     USART2_TX_interrupt:
   1630          
   1631          {
   \   00000000   ....               RCALL   ?Subroutine22
   1632          
   1633           if(Rs232_2.cnt_bt_rx_tx==0) goto end_tx;
   \                     ??CrossCallReturnLabel_44:
   \   00000002   ....               RCALL   ?Subroutine79
   \                     ??CrossCallReturnLabel_163:
   \   00000004   2B01               OR      R16, R17
   \   00000006   F491               BRNE    ??USART2_TX_interrupt_0
   1634                                                                 
   1635                          UDR2=*Rs232_2.p_data485++;
   1636                          Rs232_2.cnt_bt_rx_tx--; 
   1637                          return;
   1638          end_tx:
   1639                         UCSR2B=UCSR2B & ~TXCIE;
   \   00000008   910000D1           LDS     R16, 209
   \   0000000C   7B0F               ANDI    R16, 0xBF
   \   0000000E   930000D1           STS     209, R16
   1640                         Rs232_2.cnt_bt_rx_tx=0;
   \   00000012   E000               LDI     R16, 0
   \   00000014   A304               STD     Z+36, R16
   \   00000016   A305               STD     Z+37, R16
   1641                         Rs232_2.cnt_tm_tx_out=Rs232_2.vol_tm_tx_out;
   \   00000018   A502               LDD     R16, Z+42
   \   0000001A   A513               LDD     R17, Z+43
   \   0000001C   A306               STD     Z+38, R16
   \   0000001E   A317               STD     Z+39, R17
   1642                         if(Rs232_2.cnt_tm_tx_out==0)
   \   00000020   2B01               OR      R16, R17
   \   00000022   F419               BRNE    ??CrossCallReturnLabel_192
   1643                         {
   1644                          S5_OFF;
   \   00000024   ....               RCALL   ?Subroutine73
   1645                          Rs232_2.cnt_tm_out=Rs232_2.vol_tm_out;
   1646                          CLR_RTS2;  // togle to receiv mode  
   \                     ??CrossCallReturnLabel_156:
   \   00000026   ....               RCALL   ?Subroutine36
   1647                          UCSR2B =UCSR2B | RXEN | RXCIE; // togle to receiv mode ;
   \                     ??CrossCallReturnLabel_79:
   \   00000028   ....               RCALL   ?Subroutine77
   \                     ??CrossCallReturnLabel_192:
   \   0000002A   ....               RJMP    ?Subroutine87
   1648                         }
   \                     ??USART2_TX_interrupt_0:
   \   0000002C   A9A4               LDD     R26, Z+52
   \   0000002E   A9B5               LDD     R27, Z+53
   \   00000030   910C               LD      R16, X
   \   00000032   930000D6           STS     214, R16
   \   00000036   A904               LDD     R16, Z+52
   \   00000038   A915               LDD     R17, Z+53
   \   0000003A   ....               RCALL   ?Subroutine63
   \                     ??CrossCallReturnLabel_140:
   \   0000003C   AB04               STD     Z+52, R16
   \   0000003E   AB15               STD     Z+53, R17
   \   00000040   ....               RCALL   ?Subroutine79
   \                     ??CrossCallReturnLabel_164:
   \   00000042   ....               RCALL   ?Subroutine45
   \                     ??CrossCallReturnLabel_105:
   \   00000044   A304               STD     Z+36, R16
   \   00000046   A315               STD     Z+37, R17
   \   00000048   CFF0               RJMP    ??CrossCallReturnLabel_192
   1649                        
   1650          
   1651          }
   1652          ///////////////////////////////////////////////////////////////////////////////////////////////////////////////////
   1653          
   1654          
   1655          
   1656          
   1657          
   1658          /////////////////////////////////////////////////////////////////////////////////////////////////////
   1659          #pragma vector=USART3_RX_vect
   1660                     

   \                                 In segment CODE, align 2, keep-with-next
   1661                     __interrupt  void USART3_RX_interrupt(void)
   \                     USART3_RX_interrupt:
   1662                           
   1663                           
   1664                          {
   \   00000000   ....               RCALL   ?Subroutine23
   1665                          unsigned char data;
   1666                          
   1667                          data=UDR3;
   \                     ??CrossCallReturnLabel_46:
   \   00000002   91200136           LDS     R18, 310
   1668                          S3_GR;
   \   00000006   9844               CBI     0x08, 0x04
   \   00000008   9A45               SBI     0x08, 0x05
   1669                          Rs485_1.cnt_tm_rx_out=Rs485_1.vol_tm_rx_out;
   \   0000000A   ....               LDI     R30, LOW(Rs485_1)
   \   0000000C   ....               LDI     R31, (Rs485_1) >> 8
   \   0000000E   8502               LDD     R16, Z+10
   \   00000010   8513               LDD     R17, Z+11
   \   00000012   8700               STD     Z+8, R16
   \   00000014   8711               STD     Z+9, R17
   1670                          Rs485_1.cnt_tm_out=0;
   \   00000016   ....               RCALL   ?Subroutine55
   1671                          if(Rs485_1.cnt_bt_rx_tx < MAX_BUF_RS485_1)
   \                     ??CrossCallReturnLabel_125:
   \   00000018   ....               RCALL   ?Subroutine35
   \                     ??CrossCallReturnLabel_74:
   \   0000001A   3F0C               CPI     R16, 252
   \   0000001C   4013               SBCI    R17, 3
   \   0000001E   F438               BRCC    ??USART3_RX_interrupt_0
   1672                                 {
   1673                                  Rs485_1_buf_rx_tx[Rs485_1.cnt_bt_rx_tx]=data;
   \   00000020   ....               RCALL   ?Subroutine35
   \                     ??CrossCallReturnLabel_75:
   \   00000022   01D8               MOVW    R27:R26, R17:R16
   \   00000024   ....               SUBI    R26, LOW((-(Rs485_1_buf_rx_tx) & 0xFFFF))
   \   00000026   ....               SBCI    R27, (-(Rs485_1_buf_rx_tx) & 0xFFFF) >> 8
   \   00000028   932C               ST      X, R18
   1674                                  Rs485_1.cnt_bt_rx_tx++;
   \   0000002A   ....               RCALL   ?Subroutine29
   \                     ??CrossCallReturnLabel_183:
   \   0000002C   C003               RJMP    ??USART3_RX_interrupt_1
   1675                                  }
   1676                                  else fl_485_1.over=1;
   \                     ??USART3_RX_interrupt_0:
   \   0000002E   AD02               LDD     R16, Z+58
   \   00000030   6100               ORI     R16, 0x10
   \   00000032   AF02               STD     Z+58, R16
   1677                          }
   \                     ??USART3_RX_interrupt_1:
   \   00000034   ....               RJMP    ?Subroutine88
   1678           /////////////////////////////////////////////////////////////////////////////////////////////////////
   1679           
   1680          
   1681          
   1682          
   1683          /////////////////////////////////////////////////////////////////////////////////////////////////////
   1684          
   1685          #pragma vector=USART3_TX_vect
   1686                     

   \                                 In segment CODE, align 2, keep-with-next
   1687                     __interrupt  void USART3_TX_interrupt(void)
   \                     USART3_TX_interrupt:
   1688          
   1689          {
   \   00000000   ....               RCALL   ??Subroutine25_0
   \                     ??CrossCallReturnLabel_51:
   \   00000002   93FA               ST      -Y, R31
   \   00000004   93EA               ST      -Y, R30
   \   00000006   932A               ST      -Y, R18
   \   00000008   931A               ST      -Y, R17
   \   0000000A   930A               ST      -Y, R16
   \   0000000C   B72F               IN      R18, 0x3F
   1690          
   1691           if(Rs485_1.cnt_bt_rx_tx==0) goto end_tx2;
   \   0000000E   ....               LDI     R30, LOW(Rs485_1)
   \   00000010   ....               LDI     R31, (Rs485_1) >> 8
   \   00000012   ....               RCALL   ??Subroutine32_0
   \                     ??CrossCallReturnLabel_240:
   \   00000014   F481               BRNE    ??USART3_TX_interrupt_0
   1692                                                                 
   1693                          UDR3=*Rs485_1.p_data485++;
   1694                          Rs485_1.cnt_bt_rx_tx--; 
   1695                          return;
   1696          end_tx2:
   1697                         UCSR3B=UCSR3B & ~TXCIE;
   \   00000016   91000131           LDS     R16, 305
   \   0000001A   7B0F               ANDI    R16, 0xBF
   \   0000001C   93000131           STS     305, R16
   1698                         Rs485_1.cnt_bt_rx_tx=0;
   \   00000020   ....               RCALL   ?Subroutine37
   1699                         Rs485_1.cnt_tm_tx_out=Rs485_1.vol_tm_tx_out;
   \                     ??CrossCallReturnLabel_86:
   \   00000022   8106               LDD     R16, Z+6
   \   00000024   8117               LDD     R17, Z+7
   \   00000026   8302               STD     Z+2, R16
   \   00000028   8313               STD     Z+3, R17
   1700                         if(Rs485_1.cnt_tm_tx_out==0)
   \   0000002A   2B01               OR      R16, R17
   \   0000002C   F419               BRNE    ??CrossCallReturnLabel_200
   1701                         {
   1702                          S3_OFF;
   \   0000002E   ....               RCALL   ?Subroutine68
   1703                          Rs485_1.cnt_tm_out=Rs485_1.vol_tm_out;
   1704                          CLR_RTS1;  // togle to receiv mode  
   \                     ??CrossCallReturnLabel_148:
   \   00000030   ....               RCALL   ?Subroutine46
   1705                          UCSR3B =UCSR3B | RXEN | RXCIE; // togle to receiv mode ;
   \                     ??CrossCallReturnLabel_109:
   \   00000032   ....               RCALL   ?Subroutine70
   \                     ??CrossCallReturnLabel_200:
   \   00000034   ....               RJMP    ?Subroutine87
   1706                         }
   \                     ??USART3_TX_interrupt_0:
   \   00000036   89A0               LDD     R26, Z+16
   \   00000038   89B1               LDD     R27, Z+17
   \   0000003A   910C               LD      R16, X
   \   0000003C   93000136           STS     310, R16
   \   00000040   8900               LDD     R16, Z+16
   \   00000042   8911               LDD     R17, Z+17
   \   00000044   ....               RCALL   ?Subroutine63
   \                     ??CrossCallReturnLabel_141:
   \   00000046   8B00               STD     Z+16, R16
   \   00000048   8B11               STD     Z+17, R17
   \   0000004A   ....               RCALL   ?Subroutine35
   \                     ??CrossCallReturnLabel_76:
   \   0000004C   ....               RCALL   ?Subroutine45
   \                     ??CrossCallReturnLabel_106:
   \   0000004E   ....               RCALL   ?Subroutine90
   \                     ??CrossCallReturnLabel_179:
   \   00000050   CFF1               RJMP    ??CrossCallReturnLabel_200
   1707                        
   1708          
   1709          }
   1710          ///////////////////////////////////////////////////////////////////////////////////////////////////////////////////
   1711          /*
   1712          #pragma vector=ADC_vect
   1713           __interrupt  void ADC_interrupt(void)
   1714           { 
   1715            // temperatura=ADC;
   1716          
   1717             fl_wdt.from_adc=1;
   1718             
   1719            //  __enable_interrupt();
   1720             
   1721             count_summa_temperatura++;
   1722             summa_temperatura=summa_temperatura+ADC;
   1723             
   1724                 if(count_summa_temperatura>=1024)
   1725                    {
   1726                    count_summa_temperatura=0;
   1727                    temperatura=summa_temperatura>>10;
   1728                    summa_temperatura=0;
   1729                  }  
   1730                 
   1731                 ADCSRA=ADCSRA | 0x47;       
   1732           }
   1733          
   1734          */
   1735          
   1736          
   1737          #pragma vector=ADC_vect

   \                                 In segment CODE, align 2, keep-with-next
   1738           __interrupt  void ADC_interrupt(void)
   \                     ADC_interrupt:
   1739           { 
   \   00000000   927A               ST      -Y, R7
   \   00000002   ....               RCALL   ?Subroutine25
   \                     ??CrossCallReturnLabel_52:
   \   00000004   ....               RCALL   ?Subroutine21
   \                     ??CrossCallReturnLabel_42:
   \   00000006   B63F               IN      R3, 0x3F
   \   00000008                      REQUIRE ?Register_R4_is_cg_reg
   \   00000008                      REQUIRE ?Register_R5_is_cg_reg
   \   00000008                      REQUIRE ?Register_R6_is_cg_reg
   \   00000008                      REQUIRE ?Register_R7_is_cg_reg
   1740           char i;
   1741          //ňđč çŕěĺđŕ ęŕćäűé çŕěĺđ ďî ęŕíŕëó ÷ĺđĺç 115 ěńĺę
   1742          // 1/11059200 *13*128*256*3=115 msec
   1743           
   1744             fl_wdt.from_adc=1;   
   \   00000008   ....               RCALL   ?Subroutine26
   \                     ??CrossCallReturnLabel_58:
   \   0000000A   6400               ORI     R16, 0x40
   \   0000000C   8300               ST      Z, R16
   1745              
   1746             i = ADMUX;
   \   0000000E   9100007C           LDS     R16, 124
   1747             i = i & 0x07; 
   \   00000012   7007               ANDI    R16, 0x07
   1748             count_summa_adc[i]++;
   \   00000014   2F60               MOV     R22, R16
   \   00000016   E070               LDI     R23, 0
   \   00000018   ....               LDI     R26, LOW(summa_adc)
   \   0000001A   ....               LDI     R27, (summa_adc) >> 8
   \   0000001C   019D               MOVW    R19:R18, R27:R26
   \   0000001E   0F20               ADD     R18, R16
   \   00000020   1F37               ADC     R19, R23
   \   00000022   01F9               MOVW    R31:R30, R19:R18
   \   00000024   8910               LDD     R17, Z+16
   \   00000026   9513               INC     R17
   \   00000028   8B10               STD     Z+16, R17
   1749             summa_adc[i]=summa_adc[i]+ADC;
   \   0000002A   0F66               LSL     R22
   \   0000002C   0F66               LSL     R22
   \   0000002E   01AD               MOVW    R21:R20, R27:R26
   \   00000030   0F46               ADD     R20, R22
   \   00000032   1F57               ADC     R21, R23
   \   00000034   90000078           LDS     R0, 120
   \   00000038   90100079           LDS     R1, 121
   \   0000003C   01FA               MOVW    R31:R30, R21:R20
   \   0000003E   8040               LD      R4, Z
   \   00000040   8051               LDD     R5, Z+1
   \   00000042   8062               LDD     R6, Z+2
   \   00000044   8073               LDD     R7, Z+3
   \   00000046   0C40               ADD     R4, R0
   \   00000048   1C51               ADC     R5, R1
   \   0000004A   1E67               ADC     R6, R23
   \   0000004C   1E77               ADC     R7, R23
   \   0000004E   8240               ST      Z, R4
   \   00000050   8251               STD     Z+1, R5
   \   00000052   8262               STD     Z+2, R6
   \   00000054   8273               STD     Z+3, R7
   1750             
   1751             if(count_summa_adc[i]==0)
   \   00000056   01F9               MOVW    R31:R30, R19:R18
   \   00000058   8910               LDD     R17, Z+16
   \   0000005A   2311               TST     R17
   \   0000005C   F511               BRNE    ??ADC_interrupt_0
   1752                {
   1753                  if(i==0) {modbus_mem1[AD_TEMP]=summa_adc[0]>>8;temperatura=modbus_mem1[AD_TEMP];}
   \   0000005E   ....               LDI     R18, LOW(modbus_mem1)
   \   00000060   ....               LDI     R19, (modbus_mem1) >> 8
   \   00000062   2300               TST     R16
   \   00000064   F459               BRNE    ??ADC_interrupt_1
   \   00000066   9611               ADIW    R27:R26, 1
   \   00000068   901D               LD      R1, X+
   \   0000006A   902D               LD      R2, X+
   \   0000006C   01F9               MOVW    R31:R30, R19:R18
   \   0000006E   A216               STD     Z+38, R1
   \   00000070   A227               STD     Z+39, R2
   \   00000072   ....               LDI     R30, LOW(temperatura)
   \   00000074   ....               LDI     R31, (temperatura) >> 8
   \   00000076   8210               ST      Z, R1
   \   00000078   8221               STD     Z+1, R2
   \   0000007A   C00E               RJMP    ??ADC_interrupt_2
   1754                  else
   1755                      if(i==1) modbus_mem1[AD_TIT1]=summa_adc[1]>>8; 
   \                     ??ADC_interrupt_1:
   \   0000007C   3001               CPI     R16, 1
   \   0000007E   01FD               MOVW    R31:R30, R27:R26
   \   00000080   F431               BRNE    ??ADC_interrupt_3
   \   00000082   8005               LDD     R0, Z+5
   \   00000084   8016               LDD     R1, Z+6
   \   00000086   01F9               MOVW    R31:R30, R19:R18
   \   00000088   A200               STD     Z+32, R0
   \   0000008A   A211               STD     Z+33, R1
   \   0000008C   C005               RJMP    ??ADC_interrupt_2
   1756                               else modbus_mem1[AD_TIT1+1]=summa_adc[3]>>8;
   \                     ??ADC_interrupt_3:
   \   0000008E   8405               LDD     R0, Z+13
   \   00000090   8416               LDD     R1, Z+14
   \   00000092   01F9               MOVW    R31:R30, R19:R18
   \   00000094   A202               STD     Z+34, R0
   \   00000096   A213               STD     Z+35, R1
   1757                
   1758                 summa_adc[i]=0;
   \                     ??ADC_interrupt_2:
   \   00000098   01FA               MOVW    R31:R30, R21:R20
   \   0000009A   8370               ST      Z, R23
   \   0000009C   8371               STD     Z+1, R23
   \   0000009E   8372               STD     Z+2, R23
   \   000000A0   8373               STD     Z+3, R23
   1759                }
   1760             
   1761             if ( i<3 )
   \                     ??ADC_interrupt_0:
   \   000000A2   3003               CPI     R16, 3
   \   000000A4   F470               BRCC    ??ADC_interrupt_4
   1762                {
   1763                
   1764                i++;
   \   000000A6   9503               INC     R16
   1765                if(i==2)i=3;
   \   000000A8   3002               CPI     R16, 2
   \   000000AA   F409               BRNE    ??ADC_interrupt_5
   \   000000AC   E003               LDI     R16, 3
   1766                
   1767                ADCSRB=0x08;
   \                     ??ADC_interrupt_5:
   \   000000AE   E018               LDI     R17, 8
   \   000000B0   9310007B           STS     123, R17
   1768                ADMUX =(ADMUX & (~0x07)) | i;
   \   000000B4   9110007C           LDS     R17, 124
   \   000000B8   7F18               ANDI    R17, 0xF8
   \   000000BA   2B10               OR      R17, R16
   \   000000BC   9310007C           STS     124, R17
   1769                ADCSRA =ADCSRA | 0x47;
   \   000000C0   C005               RJMP    ??ADC_interrupt_6
   1770                }
   1771              else 
   1772                    {
   1773                    ADCSRB=0;       
   \                     ??ADC_interrupt_4:
   \   000000C2   9370007B           STS     123, R23
   1774                    ADMUX=0x40;  
   \   000000C6   E400               LDI     R16, 64
   \   000000C8   9300007C           STS     124, R16
   1775                    ADCSRA =ADCSRA | 0x47;
   \                     ??ADC_interrupt_6:
   \   000000CC   9100007A           LDS     R16, 122
   \   000000D0   6407               ORI     R16, 0x47
   \   000000D2   9300007A           STS     122, R16
   1776                    }
   1777                 
   1778           }
   \   000000D6   BE3F               OUT     0x3F, R3
   \   000000D8   ....               RCALL   ?Subroutine57
   \                     ??CrossCallReturnLabel_186:
   \   000000DA   ....               RCALL   ?Subroutine61
   \                     ??CrossCallReturnLabel_132:
   \   000000DC   9079               LD      R7, Y+
   \   000000DE   9518               RETI
   1779          
   1780          
   1781          
   1782          
   1783          
   1784          
   1785          
   1786          
   1787          
   1788          
   1789          
   1790          
   1791          
   1792          
   1793          
   1794          
   1795          
   1796          
   1797          #pragma vector=PCINT2_vect

   \                                 In segment CODE, align 2, keep-with-next
   1798           __interrupt  void PCINT2_interrupt(void)
   \                     PCINT2_interrupt:
   1799           {   
   \   00000000   ....               RCALL   ?Subroutine24
   1800            
   1801             if(sel_modul!=1)
   \                     ??CrossCallReturnLabel_48:
   \   00000002   9100....           LDS     R16, sel_modul
   \   00000006   3001               CPI     R16, 1
   \   00000008   91000106           LDS     R16, 262
   \   0000000C   F081               BREQ    ??PCINT2_interrupt_0
   1802             {
   1803             if(PINK & IO1) modbus_mem1[AD_TS]=modbus_mem1[AD_TS] & (~0x01);  
   \   0000000E   ....               LDI     R30, LOW(modbus_mem1)
   \   00000010   ....               LDI     R31, (modbus_mem1) >> 8
   \   00000012   FF07               SBRS    R16, 7
   \   00000014   C004               RJMP    ??PCINT2_interrupt_1
   \   00000016   A900               LDD     R16, Z+48
   \   00000018   7F0E               ANDI    R16, 0xFE
   \   0000001A   AB00               STD     Z+48, R16
   \   0000001C   C012               RJMP    ??PCINT2_interrupt_2
   1804              else 
   1805              {
   1806               modbus_mem1[AD_TS]=modbus_mem1[AD_TS] | 0x01;  
   \                     ??PCINT2_interrupt_1:
   \   0000001E   A900               LDD     R16, Z+48
   \   00000020   6001               ORI     R16, 0x01
   \   00000022   AB00               STD     Z+48, R16
   1807              // cnt_tii[0]++;
   1808              // modbus_mem1[0]=cnt_tii[0];
   1809               modbus_mem1[AD_TII1]++;
   \   00000024   ....               RCALL   ?Subroutine29
   1810               arr_tii_32[0]++;
   \                     ??CrossCallReturnLabel_184:
   \   00000026   ....               LDI     R30, LOW(arr_tii_32)
   \   00000028   ....               LDI     R31, (arr_tii_32) >> 8
   \   0000002A   ....               RCALL   ?Subroutine30
   \                     ??CrossCallReturnLabel_62:
   \   0000002C   C00A               RJMP    ??PCINT2_interrupt_2
   1811              }
   1812             }
   1813             else
   1814             {
   1815               if((PINK & TCH_I)!=0)return;
   \                     ??PCINT2_interrupt_0:
   \   0000002E   FD07               SBRC    R16, 7
   \   00000030   C008               RJMP    ??PCINT2_interrupt_2
   1816               bit_registr1=bit_registr1 | DS_DETECT;
   \   00000032   ....               LDI     R30, LOW(bit_registr1)
   \   00000034   ....               LDI     R31, (bit_registr1) >> 8
   \   00000036   ....               RCALL   ?Subroutine33
   1817              // EIMSK=EIMSK & ~ 0x02;    // disable myself
   1818               PCMSK2=PCMSK2 & ~0x80;
   \                     ??CrossCallReturnLabel_68:
   \   00000038   9100006D           LDS     R16, 109
   \   0000003C   770F               ANDI    R16, 0x7F
   \   0000003E   9300006D           STS     109, R16
   \                     ??PCINT2_interrupt_2:
   \   00000042   ....               RCALL   ?Subroutine60
   \                     ??CrossCallReturnLabel_188:
   \   00000044   9518               RETI
   1819             }
   1820              
   1821           }

   \                                 In segment INTVEC, offset 0x2c, root
   \                     `??PCINT2_interrupt??INTVEC 44`:
   \   0000002C   ........           JMP     PCINT2_interrupt

   \                                 In segment INTVEC, offset 0x34, root
   \                     `??TIMER2_COMPA_interrupt??INTVEC 52`:
   \   00000034   ........           JMP     TIMER2_COMPA_interrupt

   \                                 In segment INTVEC, offset 0x54, root
   \                     `??TIMER0_COMPA_interrupt??INTVEC 84`:
   \   00000054   ........           JMP     TIMER0_COMPA_interrupt

   \                                 In segment INTVEC, offset 0x64, root
   \                     `??USART0_RX_interrupt??INTVEC 100`:
   \   00000064   ........           JMP     USART0_RX_interrupt

   \                                 In segment INTVEC, offset 0x6c, root
   \                     `??USART0_TX_interrupt??INTVEC 108`:
   \   0000006C   ........           JMP     USART0_TX_interrupt

   \                                 In segment INTVEC, offset 0x74, root
   \                     `??ADC_interrupt??INTVEC 116`:
   \   00000074   ........           JMP     ADC_interrupt

   \                                 In segment INTVEC, offset 0x80, root
   \                     `??TIMER3_COMPA_interrupt??INTVEC 128`:
   \   00000080   ........           JMP     TIMER3_COMPA_interrupt

   \                                 In segment INTVEC, offset 0x90, root
   \                     `??USART1_RX_interrupt??INTVEC 144`:
   \   00000090   ........           JMP     USART1_RX_interrupt

   \                                 In segment INTVEC, offset 0x98, root
   \                     `??USART1_TX_interrupt??INTVEC 152`:
   \   00000098   ........           JMP     USART1_TX_interrupt

   \                                 In segment INTVEC, offset 0xcc, root
   \                     `??USART2_RX_interrupt??INTVEC 204`:
   \   000000CC   ........           JMP     USART2_RX_interrupt

   \                                 In segment INTVEC, offset 0xd4, root
   \                     `??USART2_TX_interrupt??INTVEC 212`:
   \   000000D4   ........           JMP     USART2_TX_interrupt

   \                                 In segment INTVEC, offset 0xd8, root
   \                     `??USART3_RX_interrupt??INTVEC 216`:
   \   000000D8   ........           JMP     USART3_RX_interrupt

   \                                 In segment INTVEC, offset 0xe0, root
   \                     `??USART3_TX_interrupt??INTVEC 224`:
   \   000000E0   ........           JMP     USART3_TX_interrupt
   1822          
   1823          
   1824             
   1825          
   1826          

   Maximum stack usage in bytes:

     Function               CSTACK RSTACK
     --------               ------ ------
     ADC_interrupt             25      3
     PCINT2_interrupt           9      3
     TIMER0_COMPA_interrupt    19      3
       -> opros_ts             19      3
       -> opros_ts             19      3
       -> opros_ts             19      3
       -> opros_ts             19      3
       -> opros_ts             19      3
       -> opros_ts             19      3
       -> opros_ts             19      3
       -> opros_ts             19      3
       -> opros_ts             19      3
       -> opros_ts             19      3
       -> opros_ts             19      3
       -> opros_ts             19      3
       -> opros_ts             19      3
       -> opros_ts             19      3
     TIMER2_COMPA_interrupt    19      3
       -> sending_ppp_pac      19      3
       -> sending_ppp_pac      19      3
       -> fun_state_md         19      3
       -> send_485_1           19      3
       -> send_485_2           19      3
       -> send_232_2           19      3
     TIMER3_COMPA_interrupt    21      3
       -> lock_it              21      3
       -> func_crc_tii         21      3
       -> burst_ds_r           21      3
       -> crc_m1               21      3
       -> WrArrayToFlesh       21      3
       -> lock_it              21      3
     USART0_RX_interrupt       17      3
       -> recive_buf1          17      3
       -> recive_buf2          17      3
     USART0_TX_interrupt       17      3
       -> sending_at_pac       17      3
       -> sending_ppp_pac      17      3
       -> check_cts            17      3
     USART1_RX_interrupt       11      3
     USART1_TX_interrupt        9      3
     USART2_RX_interrupt       11      3
     USART2_TX_interrupt        9      3
     USART3_RX_interrupt       11      3
     USART3_TX_interrupt        9      3
     begin_ts                   0      3
     opros_ts                   4      6
     recive_buf1                0      3
     recive_buf2                0      3
     send_232_2                 0      3
     send_485_1                 0      3
     send_485_2                 0      3
     sending_ppp_pac            0      3
     sending_ppp_proverka       0      3


   Segment part sizes:

     Function/Label                 Bytes
     --------------                 -----
     _A_UDR3                           1
     _A_UCSR3B                         1
     _A_PORTK                          1
     _A_PINK                           1
     _A_PORTJ                          1
     _A_PINJ                           1
     _A_PORTH                          1
     _A_UDR2                           1
     _A_UCSR2B                         1
     _A_UDR1                           1
     _A_UCSR1B                         1
     _A_UDR0                           1
     _A_UCSR0B                         1
     _A_ADMUX                          1
     _A_ADCSRB                         1
     _A_ADCSRA                         1
     _A_ADC                            2
     _A_PCMSK2                         1
     _A_EIMSK                          1
     _A_EIFR                           1
     _A_PING                           1
     _A_PINE                           1
     _A_PORTD                          1
     _A_PORTC                          1
     _A_PORTB                          1
     _A_PORTA                          1
     _A_PINA                           1
     Rs485_1_buf_rx_tx              1020
     Rs485_2_buf_rx_tx              1020
     Rs232_2_buf_rx_tx              1024
     Rs485_1                          61
     point_Head                        2
     modbus_mem1                      74
     struct_tcc1                      34
     summa_adc                        20
     send_485_1                       54
     ?Subroutine82                     4
     ?Subroutine1                      6
     ?Subroutine2                     10
     send_485_2                       60
     send_232_2                       58
     begin_ts                        106
     opros_ts                        210
     ?Subroutine8                      8
     sending_ppp_proverka             52
     ?Subroutine11                    10
     ?Subroutine7                     12
     sending_ppp_pac                 232
     ?Subroutine14                    12
     ?Subroutine12                     6
     ?Subroutine83                     4
     ?Subroutine6                      6
     ?Subroutine80                     6
     recive_buf1                     126
     ?Subroutine84                     4
     ?Subroutine3                     18
     ?Subroutine81                     6
     ?Subroutine18                    10
     ?Subroutine17                    22
     ?Subroutine16                     6
     ?Subroutine15                    10
     ?Subroutine13                    12
     ?Subroutine10                    14
     ?Subroutine9                     12
     ?Subroutine5                     16
     ?Subroutine0                     22
     recive_buf2                     122
     ?Subroutine4                     20
     TIMER0_COMPA_interrupt          292
     ?Subroutine85                     4
     ?Subroutine56                     8
     ?Subroutine52                    10
     ?Subroutine51                     4
     ?Subroutine50                     8
     ?Subroutine49                    10
     ?Subroutine96                     4
     ?Subroutine48                    14
     ?Subroutine47                    10
     ?Subroutine40                    10
     ?Subroutine97                     4
     ?Subroutine39                    16
     ?Subroutine38                    14
     ?Subroutine53                    46
     ?Subroutine19                    46
     ?Subroutine42                     6
     ?Subroutine26                     8
     TIMER2_COMPA_interrupt          976
     ?Subroutine76                     6
     ?Subroutine92                     6
     ?Subroutine74                     6
     ?Subroutine93                     6
     ?Subroutine69                     6
     ?Subroutine94                     6
     ?Subroutine66                    10
     ?Subroutine65                    16
     ?Subroutine95                     6
     ?Subroutine64                    22
     ?Subroutine62                    20
     ?Subroutine27                    10
     ?Subroutine98                     4
     ?Subroutine71                     6
     ?Subroutine55                     8
     ?Subroutine44                    12
     ?Subroutine43                    12
     ?Subroutine90                     6
     ?Subroutine67                     4
     ?Subroutine75                     8
     ?Subroutine72                    14
     ?Subroutine63                     6
     ?Subroutine45                     6
     ?Subroutine37                     8
     ?Subroutine77                     8
     ?Subroutine73                    14
     ?Subroutine36                    12
     ?Subroutine35                     6
     ?Subroutine29                    10
     ?Subroutine70                     8
     ?Subroutine68                    14
     ?Subroutine46                    12
     ?Subroutine32                    16
     ?Subroutine33                     8
     TIMER3_COMPA_interrupt          598
     ?Subroutine34                    12
     ?Subroutine31                    20
     ?Subroutine28                    50
     ?Subroutine25                    12
     ?Subroutine61                    12
     ?Subroutine57                    24
     ?Subroutine91                     6
     ?Subroutine21                    30
     USART0_RX_interrupt             190
     ?Subroutine86                     4
     ?Subroutine54                    42
     ?Subroutine20                    42
     USART0_TX_interrupt              44
     ?Subroutine30                    26
     USART1_RX_interrupt              72
     ?Subroutine78                     6
     ?Subroutine60                    14
     ?Subroutine24                    18
     USART1_TX_interrupt              74
     ?Subroutine87                     4
     ?Subroutine58                     8
     ?Subroutine89                    10
     ?Subroutine22                    22
     USART2_RX_interrupt             118
     ?Subroutine88                     4
     ?Subroutine79                     6
     ?Subroutine59                    12
     ?Subroutine23                    20
     USART2_TX_interrupt              74
     USART3_RX_interrupt              54
     USART3_TX_interrupt              82
     ADC_interrupt                   224
     PCINT2_interrupt                 70
     ??PCINT2_interrupt??INTVEC 44     4
     ??TIMER2_COMPA_interrupt??INTVEC 52
                                       4
     ??TIMER0_COMPA_interrupt??INTVEC 84
                                       4
     ??USART0_RX_interrupt??INTVEC 100
                                       4
     ??USART0_TX_interrupt??INTVEC 108
                                       4
     ??ADC_interrupt??INTVEC 116       4
     ??TIMER3_COMPA_interrupt??INTVEC 128
                                       4
     ??USART1_RX_interrupt??INTVEC 144
                                       4
     ??USART1_TX_interrupt??INTVEC 152
                                       4
     ??USART2_RX_interrupt??INTVEC 204
                                       4
     ??USART2_TX_interrupt??INTVEC 212
                                       4
     ??USART3_RX_interrupt??INTVEC 216
                                       4
     ??USART3_TX_interrupt??INTVEC 224
                                       4
      Others                           7

 
    28 bytes in segment ABSOLUTE
 3 816 bytes in segment CODE
 1 276 bytes in segment FARCODE
     7 bytes in segment INITTAB
    52 bytes in segment INTVEC
 3 064 bytes in segment MY_SEG
   191 bytes in segment NEAR_Z
 
 5 092 bytes of CODE memory (+ 59 bytes shared)
 3 255 bytes of DATA memory (+ 28 bytes shared)

Errors: none
Warnings: 1
