##############################################################################
#                                                                            #
#                                                      24/Oct/2025  13:27:33 #
# IAR Atmel AVR C/C++ Compiler V4.12A/W32, Evaluation Version                #
# Copyright 1996-2005 IAR Systems. All rights reserved.                      #
#                                                                            #
#    Source file  =  E:\sim800Elam2560_bootnew_i2cerr_a7682e\ldterm1.c       #
#    Command line =  E:\sim800Elam2560_bootnew_i2cerr_a7682e\ldterm1.c       #
#                    --cpu=m2560 -ms -o E:\sim800Elam2560_bootnew_i2cerr_a76 #
#                    82e\Debug\Obj\ -lCN E:\sim800Elam2560_bootnew_i2cerr_a7 #
#                    682e\Debug\List\ -lA E:\sim800Elam2560_bootnew_i2cerr_a #
#                    7682e\Debug\List\ -y --initializers_in_flash -z9        #
#                    --no_inline --no_tbaa --cross_call_passes=1 --debug -e  #
#                    -I "E:\box\IAR Systems\Embedded Workbench 4.0           #
#                    Evaluation\avr\INC\" -I "E:\box\IAR Systems\Embedded    #
#                    Workbench 4.0 Evaluation\avr\INC\DLIB\" --eeprom_size   #
#                    4096 --dlib_config "E:\box\IAR Systems\Embedded         #
#                    Workbench 4.0 Evaluation\avr\LIB\DLIB\dlAVR-5s-ec-n.h"  #
#    List file    =  E:\sim800Elam2560_bootnew_i2cerr_a7682e\Debug\List\ldte #
#                    rm1.lst                                                 #
#    Object file  =  E:\sim800Elam2560_bootnew_i2cerr_a7682e\Debug\Obj\ldter #
#                    m1.r90                                                  #
#                                                                            #
#                                                                            #
##############################################################################

E:\sim800Elam2560_bootnew_i2cerr_a7682e\ldterm1.c
      1          
      2          
      3          #include <iom2560.h>

   \                                 In segment ABSOLUTE, at 0x136
   \   union <unnamed> volatile __ext_io _A_UDR3
   \                     _A_UDR3:
   \   00000000                      DS 1

   \                                 In segment ABSOLUTE, at 0x134
   \   union <unnamed> volatile __ext_io _A_UBRR3
   \                     _A_UBRR3:
   \   00000000                      DS 2

   \                                 In segment ABSOLUTE, at 0x131
   \   union <unnamed> volatile __ext_io _A_UCSR3B
   \                     _A_UCSR3B:
   \   00000000                      DS 1

   \                                 In segment ABSOLUTE, at 0x130
   \   union <unnamed> volatile __ext_io _A_UCSR3A
   \                     _A_UCSR3A:
   \   00000000                      DS 1

   \                                 In segment ABSOLUTE, at 0x106
   \   union <unnamed> volatile __ext_io _A_PINK
   \                     _A_PINK:
   \   00000000                      DS 1

   \                                 In segment ABSOLUTE, at 0x105
   \   union <unnamed> volatile __ext_io _A_PORTJ
   \                     _A_PORTJ:
   \   00000000                      DS 1

   \                                 In segment ABSOLUTE, at 0xd6
   \   union <unnamed> volatile __io _A_UDR2
   \                     _A_UDR2:
   \   00000000                      DS 1

   \                                 In segment ABSOLUTE, at 0xd4
   \   union <unnamed> volatile __io _A_UBRR2
   \                     _A_UBRR2:
   \   00000000                      DS 2

   \                                 In segment ABSOLUTE, at 0xd1
   \   union <unnamed> volatile __io _A_UCSR2B
   \                     _A_UCSR2B:
   \   00000000                      DS 1

   \                                 In segment ABSOLUTE, at 0xd0
   \   union <unnamed> volatile __io _A_UCSR2A
   \                     _A_UCSR2A:
   \   00000000                      DS 1

   \                                 In segment ABSOLUTE, at 0xce
   \   union <unnamed> volatile __io _A_UDR1
   \                     _A_UDR1:
   \   00000000                      DS 1

   \                                 In segment ABSOLUTE, at 0xcc
   \   union <unnamed> volatile __io _A_UBRR1
   \                     _A_UBRR1:
   \   00000000                      DS 2

   \                                 In segment ABSOLUTE, at 0xc9
   \   union <unnamed> volatile __io _A_UCSR1B
   \                     _A_UCSR1B:
   \   00000000                      DS 1

   \                                 In segment ABSOLUTE, at 0xc8
   \   union <unnamed> volatile __io _A_UCSR1A
   \                     _A_UCSR1A:
   \   00000000                      DS 1

   \                                 In segment ABSOLUTE, at 0xc1
   \   union <unnamed> volatile __io _A_UCSR0B
   \                     _A_UCSR0B:
   \   00000000                      DS 1

   \                                 In segment ABSOLUTE, at 0x60
   \   union <unnamed> volatile __io _A_WDTCSR
   \                     _A_WDTCSR:
   \   00000000                      DS 1

   \                                 In segment ABSOLUTE, at 0x34
   \   union <unnamed> volatile __io _A_PORTG
   \                     _A_PORTG:
   \   00000000                      DS 1

   \                                 In segment ABSOLUTE, at 0x2b
   \   union <unnamed> volatile __io _A_PORTD
   \                     _A_PORTD:
   \   00000000                      DS 1

   \                                 In segment ABSOLUTE, at 0x28
   \   union <unnamed> volatile __io _A_PORTC
   \                     _A_PORTC:
   \   00000000                      DS 1

   \                                 In segment ABSOLUTE, at 0x23
   \   union <unnamed> volatile __io _A_PINB
   \                     _A_PINB:
   \   00000000                      DS 1

   \                                 In segment ABSOLUTE, at 0x22
   \   union <unnamed> volatile __io _A_PORTA
   \                     _A_PORTA:
   \   00000000                      DS 1
      4          #include <string.h>
      5          #include <stdio.h>
      6          #include <inavr.h>
      7          #include <stdlib.h>

   \                                 In segment FARCODE, align 2, keep-with-next
   \   __intrinsic __farfunc __version_3 long atol(char const *)
   \                     atol:
   \   00000000   E04A               LDI     R20, 10
   \   00000002   E050               LDI     R21, 0
   \   00000004   E020               LDI     R18, 0
   \   00000006   E030               LDI     R19, 0
   \   00000008   ........           JMP     _Stoul
      8          #include "ozu_map.h"
      9          #include "map_ef.h"
     10          #include "def_conf.h"
     11          //#include "def_link.h"
     12          //#include "def_log.h"
     13          #include "dfpin.h"
     14          #include "dfproc.h"
     15          #include "map_ad.h"
     16          #include "dfcnst.h"
     17          #include "map_mbus.h"
     18          #include "idterm1.h"
     19          #include "scenario_test_mtc.h"
     20          #include "at_com.h"
     21          
     22          #ifdef SCENARIO_TEST_MTC_ENABLE

   \                                 In segment NEAR_Z, align 1, keep-with-next
   \   00000000                      REQUIRE `?<Segment init: NEAR_Z>`
     23          TEST_MTC test_mtc;
   \                     test_mtc:
   \   00000000                      DS 4
     24          #endif
     25          
     26          //#define VOL_PUNKT 33 //(ěĺíţ îň 0 äî VOL_PUNKT)  //dobavka
     27          #define VOL_PUNKT 41 //(ěĺíţ îň 0 äî VOL_PUNKT)  //dobavka
     28          
     29          #ifdef VERS_BASE
     30          __flash char ozu_vers[]  =   {'R','M','0','1','.','0','1',':','1','9','1','1','0','7'};
     31          #endif
     32          
     33          #ifdef VERS_LUFKIN
     34          __flash char ozu_vers[]  =   {'R','M','0','2','.','0','1',':','1','9','1','1','0','7'};
     35          #endif
     36          
     37          #ifdef VERS_UNKNOWN
     38          __flash char ozu_vers[]  =   {'R','M','0','0','.','0','1',':','1','9','1','1','0','7'};
     39          #endif
     40          
     41          
     42           #pragma location=FIRST_ON 

   \                                 In segment EEPROM_AN, at 0x0
     43          __eeprom __no_init unsigned char e_first_on; 
   \                     e_first_on:
   \   00000000                      DS 1
     44          
     45           #pragma location=A_DEBUG 

   \                                 In segment EEPROM_AN, at 0x3
     46          __eeprom __no_init unsigned char e_debug;
   \                     e_debug:
   \   00000000                      DS 1
     47          

   \                                 In segment NEAR_Z, align 1, keep-with-next
   \   00000000                      REQUIRE `?<Segment init: NEAR_Z>`
     48          TERM term;
   \                     term:
   \   00000000                      DS 2
     49          
     50          extern __no_init unsigned char simka; //dobavka
     51          extern unsigned char sel_modul;
     52          extern unsigned int temperatura;
     53          char temp_to_grad(unsigned int t);
     54          
     55          
     56          extern unsigned int num_self;

   \                                 In segment NEAR_Z, align 1, keep-with-next
   \   00000000                      REQUIRE `?<Segment init: NEAR_Z>`
     57          unsigned char buf_boot_ver[10];
   \                     buf_boot_ver:
   \   00000000                      DS 10

   \                                 In segment NEAR_F, align 1, keep-with-next
     58          void read_boot_ver(void);
     59          
     60          /*
     61          extern struct
     62          {
     63          unsigned char ok :1;//ňđĺáóĺěűé îňâĺň
     64          unsigned char err :1;//îřčáî÷íűé, íĺňđĺáóĺěűé îňâĺň
     65          unsigned char tm_out :1;//îňńóňńňâčĺ îňâĺňŕ
     66          unsigned char tx_en :1;//ďîńëŕňü ęîěěŕíäó
     67          unsigned char rx_en :1;//ďđčíčěŕňü îňâĺňű
     68          unsigned char rx_rec :1;//ďđčí˙ň îňâĺň
     69          unsigned char greg_ereg :1;//ďŕęĺňíčę GPRS or LTE
     70          //unsigned char tm_out_en:1;//đŕçđĺřĺíčĺ ŕíŕëčçŕ ďî ďđĺâűřĺíčţ âđĺěĺíč îćčäŕíč˙ îňâĺňŕ
     71          }
     72          fl_at_com;
     73          */
     74          extern struct
     75          {
     76           
     77            unsigned char tek_pin :1;
     78            unsigned char old_pin :1;
     79            unsigned char fl_ch_tc :1;
     80            unsigned char real_tc;
     81            unsigned int count_tc; 
     82            unsigned char type;
     83            unsigned char cnt_block_tc;
     84          }struct_tcc1,struct_tcc2;
     85          
     86          void    mov_buf (char size,unsigned char * p);
     87          void control_temperatura(void);
     88          void fun_init_sim900(void);
     89          void send_to_sim900(char num);
     90          
     91          unsigned char fl_at_mom_232;
     92          unsigned char Regim;
     93          
     94          extern void WrArrayToFlesh(unsigned int adres_flesh,  unsigned char *adres_ozu, unsigned int num,unsigned char flag,unsigned char znach);   
     95          extern void RdFromFleshToArr(unsigned int adres_flesh, unsigned char *adres_ozu,unsigned int num);
     96          
     97          extern unsigned long int burst_ds_r(void);
     98          extern void set_rlt(unsigned char address, unsigned char * data);
     99          extern void RdFromFleshToArr(unsigned int adres_flesh, unsigned char *adres_ozu,unsigned int num);
    100          extern void lock_it(void);
    101          
    102          
    103          
    104          extern void s_port(unsigned char ch);
    105          extern void    mov_lf (void);
    106          extern void    mov_s (char size, char __flash* p);
    107          
    108          
    109          
    110          extern struct
    111                  { // â äâîč÷íîě ęîäĺ
    112                    char r_sec;
    113                    char r_min;
    114                    char r_hor;
    115                    char r_day;
    116                    char r_date;
    117                    char r_month;
    118                    char r_year;
    119                    char r_control;
    120                  }  real_time;
    121          
    122          
    123          extern unsigned char point_log_buf;
    124          
    125          __flash char zp_apn1[] = {'4','.','A','P','N',' ','S','I','M','1',':',' '};
    126          __flash char zp_apn2[] = {'5','.','A','P','N',' ','S','I','M','2',':',' '};
    127          __flash char zp_ip[] = {'6','.','I','P',' ','a','d','d','r','e','s','s',' ','L','S',':',' '};
    128          
    129          __flash char zp_db1[] = {'2','2','.','D','B',' ','A','P','N',':','1','.',' '};
    130          __flash char zp_db2[] = {'2','3','.','D','B',' ','A','P','N',':','2','.',' '};
    131          __flash char zp_db3[] = {'2','4','.','D','B',' ','A','P','N',':','3','.',' '};
    132          
    133          __flash char err_t[] = {0xd,0xa,'E','R','R'};
    134          __flash char ok_t[] = {0xd,0xa,'O','K'};
    135          __flash char dis[] = {0xd,0xa,'D','I','S','A','B','L','E'};
    136          
    137          
    138          __flash char map_vers[]  =   {'F','M','0','2','.','0','1',':','1','9','1','1','0','7'};
    139          __flash char map_test_mtc[]  =   {'T','E','C','T','.','M','T','C',' ','M','O','D','U','L'};
    140          
    141          __flash  char str_loop_ok[]= {"LOOP 485_1"};
    142          __flash  char str_loop2_ok[]= {"LOOP 485_2"};
    143          __flash char versia[] = {"M2560 A7682E 02-09-25"};                         //{'S','I','0','2','.','0','6',':','1','1','0','3','1','6'};
   \                     versia:
   \   00000000   324D36352030       DB "M2560 A7682E 02-09-25"
   \              374138364532
   \              30202D323930
   \              322D0035    
    144          
    145          //__flash char zp_udp[]=        {'U','D','P','p','o','r','t','-','>'};
    146          __flash char zp_udp[]=        {'7','.','U','D','P',' ','p','o','r','t',' ','L','S',':',' '};
    147          
    148          //__flash char zp_num[]=        {'N','u','m','-','>'};
    149          __flash char zp_num[]=        {'8','.','U','n','i','t',' ','n','u','m','b','e','r',':',' '};
    150          
    151          __flash char init_sim900[]=        {'I','N','I','T','_','S','I','M','x','0','0',' ','O','K','!'};
    152          __flash char command_900[]=        {'C','O','M','M','A','N','D','>'};
    153          __flash char term_900[]=        {"TERMINAL SIM"};
    154          
    155          //__flash char zp_nat[]=        {'S','e','s',' ','S','I','M','1','-','>'};
    156          //__flash char zp_nat_r[]=      {'S','e','s',' ','S','I','M','2','-','>'};
    157          __flash char zp_nat[]=        {'9','.','T','i','m','e',' ','s','e','s','s','i','o','n',' ','S','I','M','1',',','s',':',' '};
    158          __flash char zp_nat_r[]=      {'1','0','.','T','i','m','e',' ','s','e','s','s','i','o','n',' ','S','I','M','2',',','s',':',' '};
    159          
    160          
    161          
    162          //__flash char zp_link[]=       {'T','m',' ','c','c','h','-','>'};
    163          __flash char zp_link[]=       {'1','1','.','T','i','m','e',' ','c','o','n','t','r','o','l',' ','c','h','a','n','n','e','l',',','s',':',' '};
    164          
    165          //__flash char zp_tm_link[]=    {'T','m',' ','a','n','s','-','>'};
    166          __flash char zp_tm_link[]=     {'1','2','.','T','i','m','e',' ','r','e','s','p','o','n','s','e',',','s',':',' '};
    167          
    168          
    169          //__flash char zp_tm_no_link[]= {'T','m',' ','d','c','n','-','>'};        //!!!!!!!!!!!!!!!!dobavka
    170          __flash char zp_tm_no_link[]=   {'1','3','.','T','i','m','e',' ','n','o',' ','l','i','n','k',',','m','i','n',':',' '};
    171          
    172          //__flash char zp_tm_link_res[]={'T','m',' ','r','e','s','-','>'};    //!!!!!!!!!!!!!!!!dobavka
    173          __flash char zp_tm_link_res[]=  {'1','4','.','T','i','m','e',' ','r','e','s','e','r','v','e',' ','S','I','M','2',',','m','i','n',':',' '};
    174          
    175          
    176          //__flash char zp_tm_vz[]=      {'T','m',' ','t','a','k','e','-','>'};
    177          __flash char zp_tm_vz[]=        {'1','7','.','T','i','m','e',' ','t','a','k','i','n','g',',','s',':',' '};
    178          
    179          //__flash char zp_tm_cl[]=      {'T','m',' ','c','l','-','>'};
    180          __flash char zp_tm_cl[]=      {'1','8','.','T','i','m','e',' ','c','o','n','t','r','o','l',' ','c','l','i','e','n','t',',','s',':',' '};
    181          
    182          //__flash char zp_num_seq[]=    {'C','l',' ','m','s','q','-','>'};
    183          __flash char zp_num_seq[]=     {'1','6','.','C','l','i','e','n','t',' ','n','u','m','b','e','r',':',' '};   
    184          
    185          
    186          //__flash char zp_des_seq[]=    {'D','e','s',' ','m','s','g','-','>'};
    187          __flash char zp_des_seq[]=     {'1','5','.','D','e','s','.',' ','m','e','s','s','a','g','e',':',' '}; 
    188          
    189          
    190          //__flash char zp_type_tc1[]={'T','y','p','e',' ','T','S','1','-','>'};
    191          //__flash char zp_type_tc2[]={'T','y','p','e',' ','T','S','2','-','>'};
    192          __flash char zp_type_tc1[]={'1','9','.','T','y','p','e',' ','T','S','1',':',' '};
    193          __flash char zp_type_tc2[]={'2','0','.','T','y','p','e',' ','T','S','2',':',' '};
    194          
    195          //__flash char zp_dbg[]=        {'D','B','G','-','>'};
    196          __flash char zp_dbg[]=        {'2','1','.','U','n','i','t',' ','r','e','g','i','m','e',':',' '};
    197          
    198          
    199          
    200          
    201          //__flash char zp_ts1[]=        {'T','S','1','-','2','-','>'};
    202          __flash char zp_ts1[]= {'2','5','.','T','S','1','-','2',':',' '};
    203          
    204          //__flash char zp_temp[]=       {'t','-','>'};
    205          
    206          //__flash char zp_temp[]= {'2','6','.','A','D',' ','c','o','n','v','e','r','t','e','r',':',' '}; 
    207          __flash char zp_temp[]= {'2','6','.','T','e','m','p','e','r','a','t','u','r','e',':',' '};
    208          
    209          //__flash char zp_vosst[]=      {'S','e','t',' ','d','e','f','-','>'};
    210          __flash char zp_vosst[]=      {'2','7','.','S','e','t',' ','d','e','f','a','u','l','t',':',' '};
    211          
    212          //__flash char zp_time[]=       {'T','i','m','e','-','>'};
    213          //__flash char zp_date[]=       {'D','a','t','e','-','>'};
    214          __flash char zp_time[]=       {'2','8','.','T','i','m','e',':',' '};
    215          __flash char zp_date[]=       {'2','9','.','D','a','t','e',':',' '};
    216          
    217          //__flash char zp_log_file[]=   {'L','o','g',' ','f','i','l','e','-','>'};
    218          __flash char zp_log_file[]=   {'3','0','.','L','o','g',' ','f','i','l','e',':',' '};
    219          
    220          //__flash char zp_keys[]=       {'K','e','y',' ','d','e','f','-','>'};
    221          __flash char zp_keys[]=       {'3','1','.','K','e','y',' ','d','e','f',':',' '};
    222          
    223          
    224          //__flash char zp_pinsim1[]=       {'P','I','N',' ','S','I','M','1','-','>'};
    225          //__flash char zp_pinsim2[]=       {'P','I','N',' ','S','I','M','2','-','>'};
    226          
    227          __flash char zp_pinsim1[]=       {'3','2','.','P','I','N',' ','S','I','M','1','-','>'};
    228          __flash char zp_pinsim2[]=       {'3','3','.','P','I','N',' ','S','I','M','2','-','>'};
    229          
    230          __flash char zp_traffic[]=      {'3','4','.','T','r','a','f','f','i','c',' ',' ','O','U','T',':','I','N',' ','-','>',' '};
    231          
    232          
    233          __flash unsigned char keys_def[]={'s','m','a','r','t','p','l','u'};
   \                     keys_def:
   \   00000016   6D7372617074       DB 115, 109, 97, 114, 116, 112, 108, 117
   \              756C        
   \                     ozu_vers:
   \   0000001E   4D523130302E       DB 82, 77, 48, 49, 46, 48, 49, 58, 49, 57, 49, 49, 48, 55
   \              3A3139313131
   \              3730        
   \                     zp_apn1:
   \   0000002C   2E345041204E       DB 52, 46, 65, 80, 78, 32, 83, 73, 77, 49, 58, 32
   \              4953314D203A
   \                     zp_apn2:
   \   00000038   2E355041204E       DB 53, 46, 65, 80, 78, 32, 83, 73, 77, 50, 58, 32
   \              4953324D203A
   \                     zp_ip:
   \   00000044   2E3650496120       DB 54, 46, 73, 80, 32, 97, 100, 100, 114, 101, 115, 115, 32, 76, 83, 58
   \              646465727373
   \              4C203A53    
   \   00000054   20                 DB 32
   \                     zp_db1:
   \   00000055   3232442E2042       DB 50, 50, 46, 68, 66, 32, 65, 80, 78, 58, 49, 46, 32
   \              50413A4E2E31
   \              20          
   \                     zp_db2:
   \   00000062   3332442E2042       DB 50, 51, 46, 68, 66, 32, 65, 80, 78, 58, 50, 46, 32
   \              50413A4E2E32
   \              20          
   \                     zp_db3:
   \   0000006F   3432442E2042       DB 50, 52, 46, 68, 66, 32, 65, 80, 78, 58, 51, 46, 32
   \              50413A4E2E33
   \              20          
   \                     err_t:
   \   0000007C   0A0D524552         DB 13, 10, 69, 82, 82
   \                     ok_t:
   \   00000081   0A0D4B4F           DB 13, 10, 79, 75
   \                     dis:
   \   00000085   0A0D49444153       DB 13, 10, 68, 73, 83, 65, 66, 76, 69
   \              4C4245      
   \                     map_test_mtc:
   \   0000008E   455454434D2E       DB 84, 69, 67, 84, 46, 77, 84, 67, 32, 77, 79, 68, 85, 76
   \              43544D20444F
   \              4C55        
   \                     zp_udp:
   \   0000009C   2E3744552050       DB 55, 46, 85, 68, 80, 32, 112, 111, 114, 116, 32, 76, 83, 58, 32
   \              6F7074724C20
   \              3A5320      
   \                     zp_num:
   \   000000AB   2E386E557469       DB 56, 46, 85, 110, 105, 116, 32, 110, 117, 109, 98, 101, 114, 58, 32
   \              6E206D756562
   \              3A7220      
   \                     init_sim900:
   \   000000BA   4E495449535F       DB 73, 78, 73, 84, 95, 83, 73, 77, 120, 48, 48, 32, 79, 75, 33
   \              4D4930782030
   \              4B4F21      
   \                     term_900:
   \   000000C9   45544D524E49       DB "TERMINAL SIM"
   \              4C4153204D49
   \              00          
   \                     zp_nat:
   \   000000D6   2E396954656D       DB 57, 46, 84, 105, 109, 101, 32, 115, 101, 115, 115, 105, 111, 110, 32
   \              732073656973
   \              6E6F20      
   \   000000E5   4953314D732C       DB 83, 73, 77, 49, 44, 115, 58, 32
   \              203A        
   \                     zp_nat_r:
   \   000000ED   3031542E6D69       DB 49, 48, 46, 84, 105, 109, 101, 32, 115, 101, 115, 115, 105, 111, 110
   \              206565737373
   \              6F696E      
   \   000000FC   53204D492C32       DB 32, 83, 73, 77, 50, 44, 115, 58, 32
   \              3A7320      
   \                     zp_link:
   \   00000105   3131542E6D69       DB 49, 49, 46, 84, 105, 109, 101, 32, 99, 111, 110, 116, 114, 111, 108
   \              20656F63746E
   \              6F726C      
   \   00000114   632061686E6E       DB 32, 99, 104, 97, 110, 110, 101, 108, 44, 115, 58, 32
   \              6C65732C203A
   \                     zp_tm_link:
   \   00000120   3231542E6D69       DB 49, 50, 46, 84, 105, 109, 101, 32, 114, 101, 115, 112, 111, 110, 115
   \              206565727073
   \              6E6F73      
   \   0000012F   2C653A7320         DB 101, 44, 115, 58, 32
   \                     zp_tm_no_link:
   \   00000134   3331542E6D69       DB 49, 51, 46, 84, 105, 109, 101, 32, 110, 111, 32, 108, 105, 110, 107
   \              20656F6E6C20
   \              6E696B      
   \   00000143   6D2C6E69203A       DB 44, 109, 105, 110, 58, 32
   \                     zp_tm_link_res:
   \   00000149   3431542E6D69       DB 49, 52, 46, 84, 105, 109, 101, 32, 114, 101, 115, 101, 114, 118, 101
   \              206565726573
   \              767265      
   \   00000158   53204D492C32       DB 32, 83, 73, 77, 50, 44, 109, 105, 110, 58, 32
   \              696D3A6E20  
   \                     zp_tm_vz:
   \   00000163   3731542E6D69       DB 49, 55, 46, 84, 105, 109, 101, 32, 116, 97, 107, 105, 110, 103, 44
   \              20656174696B
   \              676E2C      
   \   00000172   3A7320             DB 115, 58, 32
   \                     zp_tm_cl:
   \   00000175   3831542E6D69       DB 49, 56, 46, 84, 105, 109, 101, 32, 99, 111, 110, 116, 114, 111, 108
   \              20656F63746E
   \              6F726C      
   \   00000184   6320696C6E65       DB 32, 99, 108, 105, 101, 110, 116, 44, 115, 58, 32
   \              2C743A7320  
   \                     zp_num_seq:
   \   0000018F   3631432E696C       DB 49, 54, 46, 67, 108, 105, 101, 110, 116, 32, 110, 117, 109, 98, 101
   \              6E652074756E
   \              626D65      
   \   0000019E   3A7220             DB 114, 58, 32
   \                     zp_des_seq:
   \   000001A1   3531442E7365       DB 49, 53, 46, 68, 101, 115, 46, 32, 109, 101, 115, 115, 97, 103, 101
   \              202E656D7373
   \              676165      
   \   000001B0   203A               DB 58, 32
   \                     zp_type_tc1:
   \   000001B2   3931542E7079       DB 49, 57, 46, 84, 121, 112, 101, 32, 84, 83, 49, 58, 32
   \              206553543A31
   \              20          
   \                     zp_type_tc2:
   \   000001BF   3032542E7079       DB 50, 48, 46, 84, 121, 112, 101, 32, 84, 83, 50, 58, 32
   \              206553543A32
   \              20          
   \                     zp_dbg:
   \   000001CC   3132552E696E       DB 50, 49, 46, 85, 110, 105, 116, 32, 114, 101, 103, 105, 109, 101, 58
   \              207465726967
   \              656D3A      
   \   000001DB   20                 DB 32
   \                     zp_ts1:
   \   000001DC   3532542E3153       DB 50, 53, 46, 84, 83, 49, 45, 50, 58, 32
   \              322D203A    
   \                     zp_temp:
   \   000001E6   3632542E6D65       DB 50, 54, 46, 84, 101, 109, 112, 101, 114, 97, 116, 117, 114, 101, 58
   \              657061727574
   \              65723A      
   \   000001F5   20                 DB 32
   \                     zp_vosst:
   \   000001F6   3732532E7465       DB 50, 55, 46, 83, 101, 116, 32, 100, 101, 102, 97, 117, 108, 116, 58
   \              642066657561
   \              746C3A      
   \   00000205   20                 DB 32
   \                     zp_time:
   \   00000206   3832542E6D69       DB 50, 56, 46, 84, 105, 109, 101, 58, 32
   \              3A6520      
   \                     zp_date:
   \   0000020F   3932442E7461       DB 50, 57, 46, 68, 97, 116, 101, 58, 32
   \              3A6520      
   \                     zp_log_file:
   \   00000218   30334C2E676F       DB 51, 48, 46, 76, 111, 103, 32, 102, 105, 108, 101, 58, 32
   \              66206C693A65
   \              20          
   \                     zp_keys:
   \   00000225   31334B2E7965       DB 51, 49, 46, 75, 101, 121, 32, 100, 101, 102, 58, 32
   \              64206665203A
   \                     zp_pinsim1:
   \   00000231   3233502E4E49       DB 51, 50, 46, 80, 73, 78, 32, 83, 73, 77, 49, 45, 62
   \              53204D492D31
   \              3E          
   \                     zp_pinsim2:
   \   0000023E   3333502E4E49       DB 51, 51, 46, 80, 73, 78, 32, 83, 73, 77, 50, 45, 62
   \              53204D492D32
   \              3E          
   \                     zp_traffic:
   \   0000024B   3433542E6172       DB 51, 52, 46, 84, 114, 97, 102, 102, 105, 99, 32, 32, 79, 85, 84, 58
   \              666663692020
   \              554F3A54    
   \   0000025B   4E492D20203E       DB 73, 78, 32, 45, 62, 32
    234          
    235          
    236          __flash unsigned char def_apn[] = {'i','n','t','e','r','n','e','t','.','m','t','s','.','r','u',0x00};
    237          __flash unsigned char def_usname[] = {0x00};   
    238          __flash unsigned char def_uspsw[] = {0x00}; 
    239          
    240          __flash unsigned char def_apnr[] = {'i','n','t','e','r','n','e','t','.','b','e','e','l','i','n','e','.','r','u',0x00};
    241          //__flash unsigned char def_usnamer[] = {'b','e','e','l','i','n','e',0x00};   
    242          //__flash unsigned char def_uspswr[] = {'b','e','e','l','i','n','e',0x00};
    243          __flash unsigned char def_usnamer[] = {0x00};   
    244          __flash unsigned char def_uspswr[] = {0x00};
    245          
    246          __flash unsigned char def_apn1[] = {'i','n','t','e','r','n','e','t','.','m','t','s','.','r','u',0x00};
    247          __flash unsigned char def_usname1[] = {0x00};   
    248          __flash unsigned char def_uspsw1[] = {0x00}; 
    249          
    250          __flash unsigned char def_apn2[] = {'i','n','t','e','r','n','e','t','.','b','e','e','l','i','n','e','.','r','u',0x00};
    251          //__flash unsigned char def_usname2[] = {'b','e','e','l','i','n','e',0x00};   
    252          //__flash unsigned char def_uspsw2[] = {'b','e','e','l','i','n','e',0x00}; 
    253          __flash unsigned char def_usname2[] = {0x00};   
    254          __flash unsigned char def_uspsw2[] = {0x00}; 
    255          
    256          
    257          __flash unsigned char def_apn3[] = {'i','n','t','e','r','n','e','t',0x00};
    258          __flash unsigned char def_usname3[] = {0x00};   
    259          __flash unsigned char def_uspsw3[] = {0x00}; 
    260          
    261          
    262          
    263          __flash char zp_ts_dop[]= {'3','5','.','T','S','e',':'};
   \                     zp_ts_dop:
   \   00000261   3533542E6553       DB 51, 53, 46, 84, 83, 101, 58
   \              3A          
    264          __flash char zp_tit[]= {'3','6','.','T','I','T',':'};
   \                     zp_tit:
   \   00000268   3633542E5449       DB 51, 54, 46, 84, 73, 84, 58
   \              3A          
    265          __flash char zp_tu[]= {'3','7','.','T','U','1','-','2',':',' '};
   \                     zp_tu:
   \   0000026F   3733542E3155       DB 51, 55, 46, 84, 85, 49, 45, 50, 58, 32
   \              322D203A    
    266          __flash char zp_tii1[]= {'3','8','.','T','I','I','1',':',' '};
   \                     zp_tii1:
   \   00000279   3833542E4949       DB 51, 56, 46, 84, 73, 73, 49, 58, 32
   \              3A3120      
    267          __flash char zp_sel_mod[]= {'3','9','.','M','O','D','e',':',' '};
   \                     zp_sel_mod:
   \   00000282   39334D2E444F       DB 51, 57, 46, 77, 79, 68, 101, 58, 32
   \              3A6520      

   \                                 In segment NEAR_F, align 1, keep-with-next
   \                     map_vers:
   \   00000000   4D463230302E       DB 70, 77, 48, 50, 46, 48, 49, 58, 49, 57, 49, 49, 48, 55
   \              3A3139313131
   \              3730        
   \                     def_apn:
   \   0000000E   6E6965746E72       DB 105, 110, 116, 101, 114, 110, 101, 116, 46, 109, 116, 115, 46, 114
   \              74656D2E7374
   \              722E        
   \   0000001C   0075               DB 117, 0
   \                     def_apn1:
   \   0000001E   6E6965746E72       DB 105, 110, 116, 101, 114, 110, 101, 116, 46, 109, 116, 115, 46, 114
   \              74656D2E7374
   \              722E        
   \   0000002C   0075               DB 117, 0
   \                     def_apn3:
   \   0000002E   6E6965746E72       DB 105, 110, 116, 101, 114, 110, 101, 116, 0
   \              746500      

   \                                 In segment NEAR_F, align 1, keep-with-next
   \                     str_loop_ok:
   \   00000000   4F4C504F3420       DB "LOOP 485_1"
   \              3538315F00  

   \                                 In segment NEAR_F, align 1, keep-with-next
   \                     str_loop2_ok:
   \   00000000   4F4C504F3420       DB "LOOP 485_2"
   \              3538325F00  

   \                                 In segment NEAR_F, align 1, keep-with-next
   \                     command_900:
   \   00000000   4F434D4D4E41       DB 67, 79, 77, 77, 65, 78, 68, 62
   \              3E44        

   \                                 In segment NEAR_F, align 1, keep-with-next
   \                     def_usname:
   \   00000000   00                 DB 0

   \                                 In segment NEAR_F, align 1, keep-with-next
   \                     def_uspsw:
   \   00000000   00                 DB 0

   \                                 In segment NEAR_F, align 1, keep-with-next
   \                     def_apnr:
   \   00000000   6E6965746E72       DB 105, 110, 116, 101, 114, 110, 101, 116, 46, 98, 101, 101, 108, 105
   \              7465622E6565
   \              696C        
   \   0000000E   656E722E0075       DB 110, 101, 46, 114, 117, 0
   \                     def_apn2:
   \   00000014   6E6965746E72       DB 105, 110, 116, 101, 114, 110, 101, 116, 46, 98, 101, 101, 108, 105
   \              7465622E6565
   \              696C        
   \   00000022   656E722E0075       DB 110, 101, 46, 114, 117, 0

   \                                 In segment NEAR_F, align 1, keep-with-next
   \                     def_usnamer:
   \   00000000   00                 DB 0

   \                                 In segment NEAR_F, align 1, keep-with-next
   \                     def_uspswr:
   \   00000000   00                 DB 0

   \                                 In segment NEAR_F, align 1, keep-with-next
   \                     def_usname1:
   \   00000000   00                 DB 0

   \                                 In segment NEAR_F, align 1, keep-with-next
   \                     def_uspsw1:
   \   00000000   00                 DB 0

   \                                 In segment NEAR_F, align 1, keep-with-next
   \                     def_usname2:
   \   00000000   00                 DB 0

   \                                 In segment NEAR_F, align 1, keep-with-next
   \                     def_uspsw2:
   \   00000000   00                 DB 0

   \                                 In segment NEAR_F, align 1, keep-with-next
   \                     def_usname3:
   \   00000000   00                 DB 0

   \                                 In segment NEAR_F, align 1, keep-with-next
   \                     def_uspsw3:
   \   00000000   00                 DB 0

   \                                 In segment NEAR_Z, align 1, keep-with-next
   \   00000000                      REQUIRE `?<Segment init: NEAR_Z>`
   \                     fl_at_mom_232:
   \   00000000                      DS 1
    268          
    269          //__flash char zp_ts_dop_mtc[]= {'2','.','T','S',',':'};
    270          
    271          
    272          unsigned char keys[10];
    273          
    274          extern unsigned int crc_m1(unsigned char *ka,unsigned int num,unsigned int crc);
    275          extern void delay(unsigned int period);
    276          
    277          unsigned char index_pa;
   \                     index_pa:
   \   00000001                      DS 1
    278          
    279          extern unsigned char buf_tx_232[VOL_TX_PPP];
    280          extern unsigned int vol_tx_ppp;
    281          
    282          extern char emei[40], emei_emei[40], csq[20];
    283          extern unsigned int modbus_mem1[SEG1];
    284          
    285          extern unsigned char cnt_tu1, cnt_tu2;
    286          
    287          extern unsigned char Appl_seq_buf[MAX_BUF_SEQ]; 
    288          unsigned char point_Tail;
   \                     point_Tail:
   \   00000002                      DS 1

   \                                 In segment NEAR_Z, align 1, keep-with-next
   \   00000000                      REQUIRE `?<Segment init: NEAR_Z>`
   \                     Regim:
   \   00000000                      DS 1

   \                                 In segment NEAR_Z, align 1, keep-with-next
   \   00000000                      REQUIRE `?<Segment init: NEAR_Z>`
   \                     keys:
   \   00000000                      DS 10
    289          extern unsigned char point_Head;
    290          

   \                                 In segment FARCODE, align 2, keep-with-next
    291          unsigned char ret_version(unsigned char unit,unsigned char *ptr)
   \                     ret_version:
    292          {
   \   00000000   01AD               MOVW    R21:R20, R27:R26
   \   00000002   01D9               MOVW    R27:R26, R19:R18
    293           unsigned char i;
    294           
    295           if(unit==2)
   \   00000004   3002               CPI     R16, 2
   \   00000006   F519               BRNE    ??ret_version_0
    296              {
    297                /*
    298              for (i=0;i<sizeof(ozu_vers);i++){*ptr=ozu_vers[i];ptr++;}
    299              *ptr=0;
    300              return(sizeof(ozu_vers)+1);
    301              */
    302                
    303                /*
    304                *ptr++='I';
    305                *ptr++='S';
    306                *ptr++='I';
    307                *ptr++='M';
    308                *ptr++=':';
    309                */
    310                
    311                /*
    312                *ptr++='C';
    313                *ptr++='C';
    314                *ptr++='I';
    315                *ptr++='D';
    316                *ptr++=':';
    317                */
    318                
    319            for (i=0;i<emei[0];i++){*ptr=emei[i+1];ptr++;}  // âűńâĺ÷čâŕĺň emei ńčěęęč
   \   00000008   E000               LDI     R16, 0
   \   0000000A   C008               RJMP    ??ret_version_1
   \                     ??ret_version_2:
   \   0000000C   ....               RCALL   ?Subroutine175
   \                     ??CrossCallReturnLabel_566:
   \   0000000E   ....               SUBI    R30, LOW((-(emei) & 0xFFFF))
   \   00000010   ....               SBCI    R31, (-(emei) & 0xFFFF) >> 8
   \   00000012   8111               LDD     R17, Z+1
   \   00000014   01FD               MOVW    R31:R30, R27:R26
   \   00000016   9311               ST      Z+, R17
   \   00000018   01DF               MOVW    R27:R26, R31:R30
   \   0000001A   9503               INC     R16
   \                     ??ret_version_1:
   \   0000001C   9110....           LDS     R17, emei
   \   00000020   1701               CP      R16, R17
   \   00000022   F3A0               BRCS    ??ret_version_2
    320            
    321            //
    322            /*
    323                *ptr++=' ';
    324                *ptr++='I';
    325                *ptr++='M';
    326                *ptr++='E';
    327                *ptr++='I';
    328                *ptr++=':';
    329              */  
    330                
    331                for (i=0;i<emei_emei[0];i++){*ptr=emei_emei[i+1];ptr++;}  // âűńâĺ÷čâŕĺň emei ńčěęęč
   \   00000024   E000               LDI     R16, 0
   \   00000026   C006               RJMP    ??ret_version_3
   \                     ??ret_version_4:
   \   00000028   ....               RCALL   ?Subroutine175
   \                     ??CrossCallReturnLabel_567:
   \   0000002A   ....               SUBI    R30, LOW((-(emei_emei) & 0xFFFF))
   \   0000002C   ....               SBCI    R31, (-(emei_emei) & 0xFFFF) >> 8
   \   0000002E   8111               LDD     R17, Z+1
   \   00000030   931D               ST      X+, R17
   \   00000032   9503               INC     R16
   \                     ??ret_version_3:
   \   00000034   9110....           LDS     R17, emei_emei
   \   00000038   1701               CP      R16, R17
   \   0000003A   F3B0               BRCS    ??ret_version_4
    332                *ptr=0;
   \   0000003C   E000               LDI     R16, 0
   \   0000003E   930C               ST      X, R16
    333                return(emei[0] + emei_emei[0]  + 1);
   \   00000040   9110....           LDS     R17, emei
   \   00000044   9100....           LDS     R16, emei_emei
   \   00000048   0F01               ADD     R16, R17
   \   0000004A   9503               INC     R16
   \   0000004C   C050               RJMP    ??ret_version_5
    334            
    335            //
    336            
    337            
    338            
    339             // *ptr=0;
    340             // return(emei[0]+6);
    341              }
    342           
    343           if(unit==0)
   \                     ??ret_version_0:
   \   0000004E   2300               TST     R16
   \   00000050   E000               LDI     R16, 0
   \   00000052   F4A1               BRNE    ??ret_version_6
    344              {
    345              for (i=0;i<sizeof(versia)-1;i++){*ptr=versia[i];ptr++;}
   \                     ??ret_version_7:
   \   00000054   ....               LDI     R30, LOW(versia)
   \   00000056   ....               LDI     R31, (versia) >> 8
   \   00000058   E010               LDI     R17, 0
   \   0000005A   0FE0               ADD     R30, R16
   \   0000005C   1FF1               ADC     R31, R17
   \   0000005E   9114               LPM     R17, Z
   \   00000060   931D               ST      X+, R17
   \   00000062   9503               INC     R16
   \   00000064   3105               CPI     R16, 21
   \   00000066   F3B0               BRCS    ??ret_version_7
    346              
    347              /*
    348              read_boot_ver();
    349              for (i=0;i<7;i++){*ptr=buf_boot_ver[i];ptr++;}
    350              */
    351              
    352              
    353              *ptr=0;
   \   00000068   E000               LDI     R16, 0
   \   0000006A   930C               ST      X, R16
    354              return(sizeof(versia)+ 1 );
   \   0000006C   E107               LDI     R16, 23
   \   0000006E   C03F               RJMP    ??ret_version_5
    355              
    356              
    357              /*
    358              *ptr=0;
    359              return(sizeof(versia)+1);
    360              */
    361              
    362              }
    363           
    364           // map
    365              else
    366              {
    367               /*
    368                *ptr++='C';
    369                *ptr++='S';
    370                *ptr++='Q';
    371                *ptr++='=';
    372                */
    373                for (i=0;i<csq[0];i++){*ptr=csq[i+1];ptr++;}  // âűńâĺ÷čâŕĺň emei ńčěęęč
   \                     ??ret_version_8:
   \   00000070   ....               RCALL   ?Subroutine175
   \                     ??CrossCallReturnLabel_568:
   \   00000072   ....               SUBI    R30, LOW((-(csq) & 0xFFFF))
   \   00000074   ....               SBCI    R31, (-(csq) & 0xFFFF) >> 8
   \   00000076   8111               LDD     R17, Z+1
   \   00000078   931D               ST      X+, R17
   \   0000007A   9503               INC     R16
   \                     ??ret_version_6:
   \   0000007C   9110....           LDS     R17, csq
   \   00000080   1701               CP      R16, R17
   \   00000082   F3B0               BRCS    ??ret_version_8
    374                if ( fl_at_com.greg_ereg == 0)
   \   00000084   9100....           LDS     R16, fl_at_com
   \   00000088   FD06               SBRC    R16, 6
   \   0000008A   C00A               RJMP    ??ret_version_9
    375                {
    376                *ptr++=' ';
   \   0000008C   E200               LDI     R16, 32
   \   0000008E   930D               ST      X+, R16
    377                *ptr++='G';
   \   00000090   E407               LDI     R16, 71
   \   00000092   930D               ST      X+, R16
    378                *ptr++='P';
   \   00000094   E500               LDI     R16, 80
   \   00000096   930D               ST      X+, R16
    379                *ptr++='R';
   \   00000098   E502               LDI     R16, 82
   \   0000009A   930D               ST      X+, R16
    380                *ptr++='S'; 
   \   0000009C   E503               LDI     R16, 83
   \   0000009E   C009               RJMP    ??ret_version_10
    381                }
    382                else {
    383                *ptr++=' ';
   \                     ??ret_version_9:
   \   000000A0   E200               LDI     R16, 32
   \   000000A2   930D               ST      X+, R16
    384                *ptr++='L';
   \   000000A4   E40C               LDI     R16, 76
   \   000000A6   930D               ST      X+, R16
    385                *ptr++='T';
   \   000000A8   E504               LDI     R16, 84
   \   000000AA   930D               ST      X+, R16
    386                *ptr++='E'; 
   \   000000AC   E405               LDI     R16, 69
   \   000000AE   930D               ST      X+, R16
    387                *ptr++=' ';
   \   000000B0   E200               LDI     R16, 32
   \                     ??ret_version_10:
   \   000000B2   930D               ST      X+, R16
    388                }
    389           // ńčěęŕ îńíîâíŕ˙ čëč đĺçĺđâíŕ˙     
    390                *ptr++=' ';
   \   000000B4   E200               LDI     R16, 32
   \   000000B6   ....               RCALL   ?Subroutine50
    391                *ptr++='s';
    392                *ptr++='i';
   \                     ??CrossCallReturnLabel_63:
   \   000000B8   E609               LDI     R16, 105
   \   000000BA   930D               ST      X+, R16
    393                *ptr++='m'; 
   \   000000BC   E60D               LDI     R16, 109
   \   000000BE   930D               ST      X+, R16
    394                *ptr++='=';
   \   000000C0   E30D               LDI     R16, 61
   \   000000C2   930D               ST      X+, R16
    395                
    396                if(simka & 1) {
   \   000000C4   9100....           LDS     R16, simka
   \   000000C8   FF00               SBRS    R16, 0
   \   000000CA   C006               RJMP    ??ret_version_11
    397                *ptr++='r';
   \   000000CC   E702               LDI     R16, 114
   \   000000CE   930D               ST      X+, R16
    398                *ptr++='e';
   \   000000D0   E605               LDI     R16, 101
   \   000000D2   ....               RCALL   ?Subroutine50
    399                *ptr++='s'; 
    400                *ptr++=' '; 
   \                     ??CrossCallReturnLabel_64:
   \   000000D4   E200               LDI     R16, 32
   \   000000D6   C005               RJMP    ??ret_version_12
    401                } else {
    402                *ptr++='b';
   \                     ??ret_version_11:
   \   000000D8   E602               LDI     R16, 98
   \   000000DA   930D               ST      X+, R16
    403                *ptr++='a';
   \   000000DC   E601               LDI     R16, 97
   \   000000DE   ....               RCALL   ?Subroutine50
    404                *ptr++='s'; 
    405                *ptr++='e'; 
   \                     ??CrossCallReturnLabel_65:
   \   000000E0   E605               LDI     R16, 101
   \                     ??ret_version_12:
   \   000000E2   930D               ST      X+, R16
    406                }
    407                
    408                
    409                *ptr=0;
   \   000000E4   E000               LDI     R16, 0
   \   000000E6   930C               ST      X, R16
    410                return(csq[0]  + 1 + 5 + 9);
   \   000000E8   9100....           LDS     R16, csq
   \   000000EC   5F01               SUBI    R16, 241
   \                     ??ret_version_5:
   \   000000EE   01DA               MOVW    R27:R26, R21:R20
   \   000000F0   9508               RET
    411                /*
    412              for (i=0;i<sizeof(map_vers);i++){*ptr=map_vers[i];ptr++;}
    413              *ptr=0;
    414              return(sizeof(map_vers)+1);
    415                */
    416              
    417              
    418              }
    419          }

   \                                 In segment FARCODE, align 2, keep-with-next
   \                     ?Subroutine175:
   \   00000000   ........           JMP     ?Subroutine30

   \                                 In segment FARCODE, align 2, keep-with-next
   \                     ?Subroutine50:
   \   00000000   930D               ST      X+, R16
   \   00000002   E703               LDI     R16, 115
   \   00000004   930D               ST      X+, R16
   \   00000006   9508               RET

   \                                 In segment FARCODE, align 2, keep-with-next
   \                     ?Subroutine30:
   \   00000000   E010               LDI     R17, 0
   \   00000002   01F8               MOVW    R31:R30, R17:R16
   \   00000004   9508               RET
    420          
    421          
    422          
    423          
    424          
    425          

   \                                 In segment FARCODE, align 2, keep-with-next
    426          void vosstan_memory(void)
   \                     vosstan_memory:
    427          {
   \   00000000   97EF               SBIW    R29:R28, 63
   \   00000002   9727               SBIW    R29:R28, 7
    428          unsigned char i,j,buf[70],temp;
    429          
    430          
    431             j=sizeof(map_vers);
    432             for(i=0;i<j;i++)buf[i]=map_vers[i];
   \   00000004   E020               LDI     R18, 0
   \                     ??vosstan_memory_0:
   \   00000006   E010               LDI     R17, 0
   \   00000008   ....               RCALL   ?Subroutine55
   \                     ??CrossCallReturnLabel_68:
   \   0000000A   9134               LPM     R19, Z
   \   0000000C   01FE               MOVW    R31:R30, R29:R28
   \   0000000E   ........           CALL    ?Subroutine56
   \                     ??CrossCallReturnLabel_361:
   \   00000012   302E               CPI     R18, 14
   \   00000014   F3C0               BRCS    ??vosstan_memory_0
    433             *(unsigned int*)&buf[j]=crc_m1(&buf[0],j,0xffff);
   \   00000016   ....               RCALL   ?Subroutine66
   \                     ??CrossCallReturnLabel_75:
   \   00000018   870E               STD     Y+14, R16
   \   0000001A   871F               STD     Y+15, R17
    434             WrArrayToFlesh(A_VER_MAP, &buf[0],j+2,0,0);
   \   0000001C   E070               LDI     R23, 0
   \   0000001E   E060               LDI     R22, 0
   \   00000020   ....               RCALL   ?Subroutine76
   \                     ??CrossCallReturnLabel_86:
   \   00000022   ....               RCALL   ?Subroutine22
    435          
    436          
    437          //çŕăđóçęŕ ďîóěîë÷ŕíčţ
    438               temp=sizeof(def_apn)-1;
    439               j=0;
    440               buf[0]=temp;
    441               j=1;
    442               for(i=0;i<temp;i++){buf[j]=def_apn[i];j++;}
   \                     ??CrossCallReturnLabel_286:
   \   00000024   ....               RCALL   ?Subroutine13
   \                     ??CrossCallReturnLabel_4:
   \   00000026   F3F0               BRCS    ??CrossCallReturnLabel_286
    443               
    444               temp=sizeof(def_usname)-1;
    445               buf[j]=temp;
   \   00000028   ....               RCALL   ?Subroutine43
    446               j++;
    447               for(i=0;i<temp;i++){buf[j]=def_usname[i];j++;} 
    448               
    449               temp=sizeof(def_uspsw)-1;
    450               buf[j]=temp;
    451               j++;
    452               for(i=0;i<temp;i++){buf[j]=def_uspsw[i];j++;}
    453               
    454               for(i=0;i<L_C_GPRS_MAX;i++){buf[j]=0;j++;}
    455               *(unsigned int*)&buf[L_C_GPRS_MAX-2]=crc_m1(&buf[0],L_C_GPRS_MAX-2,0xffff);
    456               WrArrayToFlesh(A_C_GPRS, &buf[0],L_C_GPRS_MAX,0,0);
   \                     ??CrossCallReturnLabel_51:
   \   0000002A   ....               RCALL   ?Subroutine23
    457               
    458              
    459               temp=sizeof(def_apnr)-1;
    460               j=0;
    461               buf[0]=temp;
    462               j=1;
    463               for(i=0;i<temp;i++){buf[j]=def_apnr[i];j++;}
   \                     ??CrossCallReturnLabel_288:
   \   0000002C   ....               RCALL   ?Subroutine14
   \                     ??CrossCallReturnLabel_8:
   \   0000002E   F3F0               BRCS    ??CrossCallReturnLabel_288
    464               
    465               temp=sizeof(def_usnamer)-1;
    466               buf[j]=temp;
   \   00000030   ....               RCALL   ?Subroutine44
    467               j++;
    468               for(i=0;i<temp;i++){buf[j]=def_usnamer[i];j++;} 
    469               
    470               temp=sizeof(def_uspswr)-1;
    471               buf[j]=temp;
    472               j++;
    473               for(i=0;i<temp;i++){buf[j]=def_uspswr[i];j++;}
    474               
    475               for(i=0;i<L_CR_GPRS_MAX;i++){buf[j]=0;j++;}
    476               *(unsigned int*)&buf[L_CR_GPRS_MAX-2]=crc_m1(&buf[0],L_CR_GPRS_MAX-2,0xffff);
    477               WrArrayToFlesh(A_CR_GPRS, &buf[0],L_CR_GPRS_MAX,0,0);
   \                     ??CrossCallReturnLabel_53:
   \   00000032   ....               RCALL   ?Subroutine171
    478               
    479               
    480               RdFromFleshToArr(A_NUM,&buf[OFS_NUM],2);
   \                     ??CrossCallReturnLabel_429:
   \   00000034   E042               LDI     R20, 2
   \   00000036   ....               RCALL   ??Subroutine84_0
   \                     ??CrossCallReturnLabel_101:
   \   00000038   5F2A               SUBI    R18, 250
   \   0000003A   4F3F               SBCI    R19, 255
   \   0000003C   E902               LDI     R16, 146
   \   0000003E   ....               RCALL   ??Subroutine29_0
    481               
    482               buf[OFS_IP]=DEF_IP_SRV_0;
   \                     ??CrossCallReturnLabel_386:
   \   00000040   ....               RCALL   ?Subroutine64
    483               buf[OFS_IP+1]=DEF_IP_SRV_1;
    484               buf[OFS_IP+2]=DEF_IP_SRV_2;
    485               buf[OFS_IP+3]=DEF_IP_SRV_3;
    486             *(unsigned int*)&buf[OFS_PORT]=DEF_UDP_PORT;//UDP ďîđň
    487             //*(unsigned int*)&buf[OFS_NUM]=*(unsigned int*)&buf[0];          //ńâîé íîěĺđ íĺ ěĺí˙ňü !!!! 
    488             *(unsigned int*)&buf[OFS_IP_PAR_CRC]=crc_m1(&buf[0],L_IP_PAR-2,0xffff);
    489               WrArrayToFlesh(A_IP_PAR, &buf[0],L_IP_PAR,0,0);
   \                     ??CrossCallReturnLabel_306:
   \   00000042   ....               RCALL   ?Subroutine74
   \                     ??CrossCallReturnLabel_325:
   \   00000044   ....               RCALL   ?Subroutine171
    490               
    491               
    492             *(unsigned int*)&buf[OFS_NAT]=DEF_CNTR_NAT;
   \                     ??CrossCallReturnLabel_428:
   \   00000046   ....               RCALL   ?Subroutine7
    493             *(unsigned int*)&buf[OFS_CCH]=DEF_CNTR_LINK;
    494             *(unsigned int*)&buf[OFS_TM_CH]=DEF_TM_CNTR_LINK;
    495             
    496             *(unsigned int*)&buf[OFS_TM_NO_LINK]=DEF_TM_NO_LINK;       //dobavka
    497             *(unsigned int*)&buf[OFS_TM_LINK_RES]=DEF_TM_LINK_RES;       //dobavka
    498             
    499             *(unsigned int*)&buf[OFS_NAT_R]=DEF_CNTR_NAT_R;
    500             
    501             *(unsigned int*)&buf[OFS_C_PAR_CRC]=crc_m1(&buf[0],L_C_PAR-2,0xffff);
    502               WrArrayToFlesh(A_C_PAR, &buf[0],L_C_PAR,0,0);
    503               
    504                buf[OFS_DES_SEQ]=(~DEF_DES_SEQ)&0x01; 
   \                     ??CrossCallReturnLabel_419:
   \   00000048   E001               LDI     R16, 1
   \   0000004A   8308               ST      Y, R16
    505             *(unsigned int*)&buf[OFS_NUM_CL]=DEF_NUM_DST_SEQ;
   \   0000004C   EF0F               LDI     R16, 255
   \   0000004E   ....               RCALL   ?Subroutine8
    506             *(unsigned int*)&buf[OFS_TM_VZ]=DEF_VOL_TM_VZAT;
    507             *(unsigned int*)&buf[OFS_TM_CL]=DEF_TM_CNTR_CL;
    508              buf[OFS_TP_TS]=DEF_TP_TS1;
    509              buf[OFS_TP_TS+1]=DEF_TP_TS2;
    510             *(unsigned int*)&buf[OFS_SEQ_PAR_CRC]=crc_m1(&buf[0],L_SEQ_PAR-2,0xffff);
    511               WrArrayToFlesh(A_SEQ_PAR, &buf[0],L_SEQ_PAR,0,0);
    512               
    513               /*
    514               
    515               buf[OFS_GPRS_DES]=~DEF_DES_PORT_GPRS; 
    516             *(unsigned long int*)&buf[OFS_GPRS_S]=DEF_PORT_GPRS_S;
    517             *(unsigned int*)&buf[OFS_PORT_GPRS_CRC]=crc_m1(&buf[0],L_PORT_GPRS-2,0xffff);
    518               WrArrayToFlesh(A_PORT_GPRS, &buf[0],L_PORT_GPRS,0,0);
    519           */
    520              
    521          
    522             buf[OFS_PIN_SIM1]='.';
   \                     ??CrossCallReturnLabel_421:
   \   00000050   ....               RCALL   ?Subroutine24
    523             buf[OFS_PIN_SIM1+1]='.';
    524             buf[OFS_PIN_SIM1+2]='.';
    525             buf[OFS_PIN_SIM1+3]='.';
    526             *(unsigned int*)&buf[OFS_KOD_SIM1_CRC]=crc_m1(&buf[0],L_KOD_SIM1-2,0xffff);
    527               WrArrayToFlesh(A_KOD_SIM1, &buf[0],L_KOD_SIM1,0,0);
    528          
    529             buf[OFS_PIN_SIM2]='.';
   \                     ??CrossCallReturnLabel_431:
   \   00000052   ....               RCALL   ?Subroutine63
    530             buf[OFS_PIN_SIM2+1]='.';
    531             buf[OFS_PIN_SIM2+2]='.';
    532             buf[OFS_PIN_SIM2+3]='.';
    533             *(unsigned int*)&buf[OFS_KOD_SIM2_CRC]=crc_m1(&buf[0],L_KOD_SIM2-2,0xffff);
    534               WrArrayToFlesh(A_KOD_SIM2, &buf[0],L_KOD_SIM2,0,0);
   \                     ??CrossCallReturnLabel_72:
   \   00000054   ....               RCALL   ?Subroutine22
    535               
    536               
    537               
    538               
    539               
    540               j=0;
    541               temp=sizeof(def_apn1)-1;    
    542               buf[0]=temp;
    543               j=1;
    544               for(i=0;i<temp;i++){buf[j]=def_apn1[i];j++;}
   \                     ??CrossCallReturnLabel_287:
   \   00000056   ....               LDI     R30, LOW((map_vers + 30))
   \   00000058   ....               LDI     R31, HIGH((map_vers + 30))
   \   0000005A   ....               RCALL   ??Subroutine13_0
   \                     ??CrossCallReturnLabel_6:
   \   0000005C   F3E0               BRCS    ??CrossCallReturnLabel_287
    545              
    546               temp=sizeof(def_usname1)-1;
    547               buf[j]=temp;
   \   0000005E   ....               RCALL   ?Subroutine45
    548               j++;
    549               for(i=0;i<temp;i++){buf[j]=def_usname1[i];j++;} 
    550              
    551               temp=sizeof(def_uspsw1)-1;
    552               buf[j]=temp;
    553               j++;
    554               for(i=0;i<temp;i++){buf[j]=def_uspsw1[i];j++;}
    555              
    556               for(i=0;i<L_C1_GPRS_MAX;i++){buf[j]=0;j++;}
    557               *(unsigned int*)&buf[L_C1_GPRS_MAX-2]=crc_m1(&buf[0],L_C1_GPRS_MAX-2,0xffff);
    558               WrArrayToFlesh(A_C1_GPRS, &buf[0],L_C1_GPRS_MAX,0,0);
   \                     ??CrossCallReturnLabel_55:
   \   00000060   ....               RCALL   ?Subroutine23
    559           
    560               j=0;
    561               temp=sizeof(def_apn2)-1;
    562               buf[0]=temp;
    563               j=1;
    564               for(i=0;i<temp;i++){buf[j]=def_apn2[i];j++;}
   \                     ??CrossCallReturnLabel_289:
   \   00000062   ....               LDI     R30, LOW((def_apnr + 20))
   \   00000064   ....               LDI     R31, HIGH((def_apnr + 20))
   \   00000066   ....               RCALL   ??Subroutine14_0
   \                     ??CrossCallReturnLabel_10:
   \   00000068   F3E0               BRCS    ??CrossCallReturnLabel_289
    565               
    566               temp=sizeof(def_usname2)-1;
    567               buf[j]=temp;
   \   0000006A   ....               RCALL   ?Subroutine41
    568               j++;
    569               for(i=0;i<temp;i++){buf[j]=def_usname2[i];j++;} 
    570               
    571               temp=sizeof(def_uspsw2)-1;
    572               buf[j]=temp;
    573               j++;
    574               for(i=0;i<temp;i++){buf[j]=def_uspsw2[i];j++;}
    575               
    576               for(i=0;i<L_C2_GPRS_MAX;i++){buf[j]=0;j++;}
    577               *(unsigned int*)&buf[L_C2_GPRS_MAX-2]=crc_m1(&buf[0],L_C2_GPRS_MAX-2,0xffff);
    578               WrArrayToFlesh(A_C2_GPRS, &buf[0],L_C2_GPRS_MAX,0,0);
    579           
    580           
    581               j=0;
    582               temp=sizeof(def_apn3)-1;
    583               buf[0]=temp;
   \                     ??CrossCallReturnLabel_435:
   \   0000006C   ....               RCALL   ?Subroutine91
    584               j=1;
    585               for(i=0;i<temp;i++){buf[j]=def_apn3[i];j++;}
   \                     ??CrossCallReturnLabel_290:
   \   0000006E   ....               RCALL   ?Subroutine21
   \                     ??CrossCallReturnLabel_29:
   \   00000070   F3F0               BRCS    ??CrossCallReturnLabel_290
    586               
    587               temp=sizeof(def_usname3)-1;
    588               buf[j]=temp;
   \   00000072   ....               RCALL   ?Subroutine42
    589               j++;
    590               for(i=0;i<temp;i++){buf[j]=def_usname3[i];j++;} 
    591               
    592               temp=sizeof(def_uspsw3)-1;
    593               buf[j]=temp;
    594               j++;
    595               for(i=0;i<temp;i++){buf[j]=def_uspsw3[i];j++;}
    596               
    597               for(i=0;i<L_C3_GPRS_MAX;i++){buf[j]=0;j++;}
    598               *(unsigned int*)&buf[L_C3_GPRS_MAX-2]=crc_m1(&buf[0],L_C3_GPRS_MAX-2,0xffff);
    599               WrArrayToFlesh(A_C3_GPRS, &buf[0],L_C3_GPRS_MAX,0,0);
    600               
    601          
    602               *(unsigned long int*)&buf[0]=burst_ds_r();
   \                     ??CrossCallReturnLabel_437:
   \   00000074   ....               RCALL   ?Subroutine60
    603               *(unsigned long int*)&buf[4]=0;
    604               *(unsigned long int*)&buf[8]=0;
    605               *(unsigned int*)&buf[L_TRAF-2]=crc_m1(&buf[0],L_TRAF-2,0xffff);
    606               WrArrayToFlesh(A_TRAF, &buf[0],L_TRAF,0,0);
    607               
    608          }
   \                     ??CrossCallReturnLabel_433:
   \   00000076   96EF               ADIW    R29:R28, 63
   \   00000078   9627               ADIW    R29:R28, 7
   \   0000007A   9508               RET

   \                                 In segment FARCODE, align 2, keep-with-next
   \                     ?Subroutine91:
   \   00000000   E008               LDI     R16, 8
   \   00000002   ....               RJMP    ?Subroutine152

   \                                 In segment FARCODE, align 2, keep-with-next
   \                     ?Subroutine23:
   \   00000000   E010               LDI     R17, 0
   \   00000002   ........           CALL    WrArrayToFlesh
   \   00000006   E103               LDI     R16, 19
   \   00000008   ....               RJMP    ?Subroutine152

   \                                 In segment FARCODE, align 2, keep-with-next
   \                     ?Subroutine22:
   \   00000000   E010               LDI     R17, 0
   \   00000002   ........           CALL    WrArrayToFlesh
   \   00000006   E00F               LDI     R16, 15
   \   00000008                      REQUIRE ?Subroutine152
   \   00000008                      ;               // Fall through to label ?Subroutine152

   \                                 In segment FARCODE, align 2, keep-with-next
   \                     ?Subroutine152:
   \   00000000   8308               ST      Y, R16
   \   00000002   E001               LDI     R16, 1
   \                     ??Subroutine152_0:
   \   00000004   E020               LDI     R18, 0
   \   00000006   9508               RET

   \                                 In segment FARCODE, align 2, keep-with-next
   \                     ?Subroutine84:
   \   00000000   E34C               LDI     R20, 60
   \                     ??Subroutine84_0:
   \   00000002   E050               LDI     R21, 0
   \   00000004   019E               MOVW    R19:R18, R29:R28
   \   00000006   9508               RET

   \                                 In segment FARCODE, align 2, keep-with-next
   \                     ?Subroutine76:
   \   00000000   E140               LDI     R20, 16
   \   00000002   E050               LDI     R21, 0
   \   00000004   019E               MOVW    R19:R18, R29:R28
   \   00000006   E000               LDI     R16, 0
   \   00000008   9508               RET

   \                                 In segment FARCODE, align 2, keep-with-next
   \                     ?Subroutine74:
   \   00000000   E070               LDI     R23, 0
   \   00000002   E060               LDI     R22, 0
   \   00000004   E04A               LDI     R20, 10
   \   00000006   E050               LDI     R21, 0
   \   00000008   019E               MOVW    R19:R18, R29:R28
   \   0000000A                      REQUIRE ?Subroutine159
   \   0000000A                      ;               // Fall through to label ?Subroutine159

   \                                 In segment FARCODE, align 2, keep-with-next
   \                     ?Subroutine159:
   \   00000000   E80C               LDI     R16, 140
   \   00000002   9508               RET

   \                                 In segment FARCODE, align 2, keep-with-next
   \                     ?Subroutine66:
   \   00000000   EF4F               LDI     R20, 255
   \   00000002   EF5F               LDI     R21, 255
   \   00000004   E02E               LDI     R18, 14
   \   00000006   E030               LDI     R19, 0
   \   00000008   018E               MOVW    R17:R16, R29:R28
   \   0000000A   ........           JMP     crc_m1

   \                                 In segment FARCODE, align 2, keep-with-next
   \                     ?Subroutine64:
   \   00000000   E50B               LDI     R16, 91
   \   00000002   8308               ST      Y, R16
   \   00000004   EF05               LDI     R16, 245
   \   00000006   8309               STD     Y+1, R16
   \   00000008   E209               LDI     R16, 41
   \   0000000A   830A               STD     Y+2, R16
   \   0000000C   E50B               LDI     R16, 91
   \   0000000E   830B               STD     Y+3, R16
   \   00000010   EB0A               LDI     R16, 186
   \   00000012   E113               LDI     R17, 19
   \   00000014   830C               STD     Y+4, R16
   \   00000016   831D               STD     Y+5, R17
   \   00000018   EF4F               LDI     R20, 255
   \   0000001A   EF5F               LDI     R21, 255
   \   0000001C   E028               LDI     R18, 8
   \   0000001E   E030               LDI     R19, 0
   \   00000020   018E               MOVW    R17:R16, R29:R28
   \   00000022   ........           CALL    crc_m1
   \   00000026                      REQUIRE ?Subroutine155
   \   00000026                      ;               // Fall through to label ?Subroutine155

   \                                 In segment FARCODE, align 2, keep-with-next
   \                     ?Subroutine155:
   \   00000000   8708               STD     Y+8, R16
   \   00000002   8719               STD     Y+9, R17
   \   00000004   9508               RET

   \                                 In segment FARCODE, align 2, keep-with-next
   \                     ?Subroutine63:
   \   00000000   E20E               LDI     R16, 46
   \   00000002   8308               ST      Y, R16
   \   00000004   8309               STD     Y+1, R16
   \   00000006   830A               STD     Y+2, R16
   \   00000008   830B               STD     Y+3, R16
   \   0000000A   EF4F               LDI     R20, 255
   \   0000000C   EF5F               LDI     R21, 255
   \   0000000E   E024               LDI     R18, 4
   \   00000010   E030               LDI     R19, 0
   \   00000012   018E               MOVW    R17:R16, R29:R28
   \   00000014   ........           CALL    crc_m1
   \   00000018   830C               STD     Y+4, R16
   \   0000001A   831D               STD     Y+5, R17
   \   0000001C   E070               LDI     R23, 0
   \   0000001E   E060               LDI     R22, 0
   \   00000020   E046               LDI     R20, 6
   \   00000022   E050               LDI     R21, 0
   \   00000024   019E               MOVW    R19:R18, R29:R28
   \   00000026   EB05               LDI     R16, 181
   \   00000028   9508               RET

   \                                 In segment FARCODE, align 2, keep-with-next
   \                     ?Subroutine60:
   \   00000000   ........           CALL    burst_ds_r
   \   00000004   8308               ST      Y, R16
   \   00000006   8319               STD     Y+1, R17
   \   00000008   832A               STD     Y+2, R18
   \   0000000A   833B               STD     Y+3, R19
   \   0000000C   E030               LDI     R19, 0
   \   0000000E   833C               STD     Y+4, R19
   \   00000010   833D               STD     Y+5, R19
   \   00000012   833E               STD     Y+6, R19
   \   00000014   833F               STD     Y+7, R19
   \   00000016   8738               STD     Y+8, R19
   \   00000018   8739               STD     Y+9, R19
   \   0000001A   873A               STD     Y+10, R19
   \   0000001C   873B               STD     Y+11, R19
   \   0000001E   EF4F               LDI     R20, 255
   \   00000020   EF5F               LDI     R21, 255
   \   00000022   E02C               LDI     R18, 12
   \   00000024   018E               MOVW    R17:R16, R29:R28
   \   00000026   ........           CALL    crc_m1
   \   0000002A   870C               STD     Y+12, R16
   \   0000002C   871D               STD     Y+13, R17
   \   0000002E   E070               LDI     R23, 0
   \   00000030   E060               LDI     R22, 0
   \   00000032   E04E               LDI     R20, 14
   \   00000034   E050               LDI     R21, 0
   \   00000036   019E               MOVW    R19:R18, R29:R28
   \   00000038   EF0E               LDI     R16, 254
   \   0000003A   E714               LDI     R17, 116
   \   0000003C   ....               RJMP    ??Subroutine163_0

   \                                 In segment FARCODE, align 2, keep-with-next
   \                     ?Subroutine55:
   \   00000000   ....               LDI     R30, LOW(map_vers)
   \   00000002   ....               LDI     R31, (map_vers) >> 8
   \   00000004   0FE2               ADD     R30, R18
   \   00000006   1FF1               ADC     R31, R17
   \   00000008   9508               RET

   \                                 In segment FARCODE, align 2, keep-with-next
   \                     ?Subroutine45:
   \   00000000   01FE               MOVW    R31:R30, R29:R28
   \   00000002   0FE0               ADD     R30, R16
   \   00000004   1FF1               ADC     R31, R17
   \   00000006   8310               ST      Z, R17
   \   00000008   9503               INC     R16
   \   0000000A   01FE               MOVW    R31:R30, R29:R28
   \   0000000C   0FE0               ADD     R30, R16
   \   0000000E   1FF1               ADC     R31, R17
   \   00000010   8310               ST      Z, R17
   \   00000012   9503               INC     R16
   \   00000014   E31C               LDI     R17, 60
   \                     ??Subroutine45_0:
   \   00000016   01FE               MOVW    R31:R30, R29:R28
   \   00000018   E030               LDI     R19, 0
   \   0000001A   0FE0               ADD     R30, R16
   \   0000001C   1FF3               ADC     R31, R19
   \   0000001E   8330               ST      Z, R19
   \   00000020   9503               INC     R16
   \   00000022   951A               DEC     R17
   \   00000024   F7C1               BRNE    ??Subroutine45_0
   \   00000026   EF4F               LDI     R20, 255
   \   00000028   EF5F               LDI     R21, 255
   \   0000002A   E32A               LDI     R18, 58
   \   0000002C   018E               MOVW    R17:R16, R29:R28
   \   0000002E   ........           CALL    crc_m1
   \   00000032   AF0A               STD     Y+58, R16
   \   00000034   AF1B               STD     Y+59, R17
   \   00000036   E070               LDI     R23, 0
   \   00000038   E060               LDI     R22, 0
   \   0000003A   E34C               LDI     R20, 60
   \   0000003C   E050               LDI     R21, 0
   \   0000003E   019E               MOVW    R19:R18, R29:R28
   \   00000040   EF0A               LDI     R16, 250
   \   00000042   9508               RET

   \                                 In segment FARCODE, align 2, keep-with-next
   \                     ?Subroutine44:
   \   00000000   01FE               MOVW    R31:R30, R29:R28
   \   00000002   0FE0               ADD     R30, R16
   \   00000004   1FF1               ADC     R31, R17
   \   00000006   8310               ST      Z, R17
   \   00000008   9503               INC     R16
   \   0000000A   01FE               MOVW    R31:R30, R29:R28
   \   0000000C   0FE0               ADD     R30, R16
   \   0000000E   1FF1               ADC     R31, R17
   \   00000010   8310               ST      Z, R17
   \   00000012   9503               INC     R16
   \   00000014   E31C               LDI     R17, 60
   \                     ??Subroutine44_0:
   \   00000016   01FE               MOVW    R31:R30, R29:R28
   \   00000018   E030               LDI     R19, 0
   \   0000001A   0FE0               ADD     R30, R16
   \   0000001C   1FF3               ADC     R31, R19
   \   0000001E   8330               ST      Z, R19
   \   00000020   9503               INC     R16
   \   00000022   951A               DEC     R17
   \   00000024   F7C1               BRNE    ??Subroutine44_0
   \   00000026   EF4F               LDI     R20, 255
   \   00000028   EF5F               LDI     R21, 255
   \   0000002A   E32A               LDI     R18, 58
   \   0000002C   018E               MOVW    R17:R16, R29:R28
   \   0000002E   ........           CALL    crc_m1
   \   00000032   AF0A               STD     Y+58, R16
   \   00000034   AF1B               STD     Y+59, R17
   \   00000036   E070               LDI     R23, 0
   \   00000038   E060               LDI     R22, 0
   \   0000003A   E34C               LDI     R20, 60
   \   0000003C   E050               LDI     R21, 0
   \   0000003E   019E               MOVW    R19:R18, R29:R28
   \   00000040   E500               LDI     R16, 80
   \   00000042   9508               RET

   \                                 In segment FARCODE, align 2, keep-with-next
   \                     ?Subroutine43:
   \   00000000   01FE               MOVW    R31:R30, R29:R28
   \   00000002   0FE0               ADD     R30, R16
   \   00000004   1FF1               ADC     R31, R17
   \   00000006   8310               ST      Z, R17
   \   00000008   9503               INC     R16
   \   0000000A   01FE               MOVW    R31:R30, R29:R28
   \   0000000C   0FE0               ADD     R30, R16
   \   0000000E   1FF1               ADC     R31, R17
   \   00000010   8310               ST      Z, R17
   \   00000012   9503               INC     R16
   \   00000014   E31C               LDI     R17, 60
   \                     ??Subroutine43_0:
   \   00000016   01FE               MOVW    R31:R30, R29:R28
   \   00000018   E030               LDI     R19, 0
   \   0000001A   0FE0               ADD     R30, R16
   \   0000001C   1FF3               ADC     R31, R19
   \   0000001E   8330               ST      Z, R19
   \   00000020   9503               INC     R16
   \   00000022   951A               DEC     R17
   \   00000024   F7C1               BRNE    ??Subroutine43_0
   \   00000026   EF4F               LDI     R20, 255
   \   00000028   EF5F               LDI     R21, 255
   \   0000002A   E32A               LDI     R18, 58
   \   0000002C   018E               MOVW    R17:R16, R29:R28
   \   0000002E   ........           CALL    crc_m1
   \   00000032   AF0A               STD     Y+58, R16
   \   00000034   AF1B               STD     Y+59, R17
   \   00000036   E070               LDI     R23, 0
   \   00000038   E060               LDI     R22, 0
   \   0000003A   E34C               LDI     R20, 60
   \   0000003C   E050               LDI     R21, 0
   \   0000003E   019E               MOVW    R19:R18, R29:R28
   \   00000040   E104               LDI     R16, 20
   \   00000042   9508               RET

   \                                 In segment FARCODE, align 2, keep-with-next
   \                     ?Subroutine42:
   \   00000000   01FE               MOVW    R31:R30, R29:R28
   \   00000002   0FE0               ADD     R30, R16
   \   00000004   1FF1               ADC     R31, R17
   \   00000006   8310               ST      Z, R17
   \   00000008   9503               INC     R16
   \   0000000A   01FE               MOVW    R31:R30, R29:R28
   \   0000000C   0FE0               ADD     R30, R16
   \   0000000E   1FF1               ADC     R31, R17
   \   00000010   8310               ST      Z, R17
   \   00000012   9503               INC     R16
   \   00000014   E31C               LDI     R17, 60
   \                     ??Subroutine42_0:
   \   00000016   01FE               MOVW    R31:R30, R29:R28
   \   00000018   E030               LDI     R19, 0
   \   0000001A   0FE0               ADD     R30, R16
   \   0000001C   1FF3               ADC     R31, R19
   \   0000001E   8330               ST      Z, R19
   \   00000020   9503               INC     R16
   \   00000022   951A               DEC     R17
   \   00000024   F7C1               BRNE    ??Subroutine42_0
   \   00000026   EF4F               LDI     R20, 255
   \   00000028   EF5F               LDI     R21, 255
   \   0000002A   E32A               LDI     R18, 58
   \   0000002C   018E               MOVW    R17:R16, R29:R28
   \   0000002E   ........           CALL    crc_m1
   \   00000032   AF0A               STD     Y+58, R16
   \   00000034   AF1B               STD     Y+59, R17
   \   00000036   E070               LDI     R23, 0
   \   00000038   E060               LDI     R22, 0
   \   0000003A   E34C               LDI     R20, 60
   \   0000003C   E050               LDI     R21, 0
   \   0000003E   019E               MOVW    R19:R18, R29:R28
   \   00000040   E702               LDI     R16, 114
   \   00000042   ....               RJMP    ?Subroutine163

   \                                 In segment FARCODE, align 2, keep-with-next
   \                     ?Subroutine41:
   \   00000000   01FE               MOVW    R31:R30, R29:R28
   \   00000002   0FE0               ADD     R30, R16
   \   00000004   1FF1               ADC     R31, R17
   \   00000006   8310               ST      Z, R17
   \   00000008   9503               INC     R16
   \   0000000A   01FE               MOVW    R31:R30, R29:R28
   \   0000000C   0FE0               ADD     R30, R16
   \   0000000E   1FF1               ADC     R31, R17
   \   00000010   8310               ST      Z, R17
   \   00000012   9503               INC     R16
   \   00000014   E31C               LDI     R17, 60
   \                     ??Subroutine41_0:
   \   00000016   01FE               MOVW    R31:R30, R29:R28
   \   00000018   E030               LDI     R19, 0
   \   0000001A   0FE0               ADD     R30, R16
   \   0000001C   1FF3               ADC     R31, R19
   \   0000001E   8330               ST      Z, R19
   \   00000020   9503               INC     R16
   \   00000022   951A               DEC     R17
   \   00000024   F7C1               BRNE    ??Subroutine41_0
   \   00000026   EF4F               LDI     R20, 255
   \   00000028   EF5F               LDI     R21, 255
   \   0000002A   E32A               LDI     R18, 58
   \   0000002C   018E               MOVW    R17:R16, R29:R28
   \   0000002E   ........           CALL    crc_m1
   \   00000032   AF0A               STD     Y+58, R16
   \   00000034   AF1B               STD     Y+59, R17
   \   00000036   E070               LDI     R23, 0
   \   00000038   E060               LDI     R22, 0
   \   0000003A   E34C               LDI     R20, 60
   \   0000003C   E050               LDI     R21, 0
   \   0000003E   019E               MOVW    R19:R18, R29:R28
   \   00000040   E306               LDI     R16, 54
   \   00000042   ....               RJMP    ?Subroutine163

   \                                 In segment FARCODE, align 2, keep-with-next
   \                     ?Subroutine24:
   \   00000000   E20E               LDI     R16, 46
   \   00000002   8308               ST      Y, R16
   \   00000004   8309               STD     Y+1, R16
   \   00000006   830A               STD     Y+2, R16
   \   00000008   830B               STD     Y+3, R16
   \   0000000A   EF4F               LDI     R20, 255
   \   0000000C   EF5F               LDI     R21, 255
   \   0000000E   E024               LDI     R18, 4
   \   00000010   E030               LDI     R19, 0
   \   00000012   018E               MOVW    R17:R16, R29:R28
   \   00000014   ........           CALL    crc_m1
   \   00000018   830C               STD     Y+4, R16
   \   0000001A   831D               STD     Y+5, R17
   \   0000001C   E070               LDI     R23, 0
   \   0000001E   E060               LDI     R22, 0
   \   00000020   E046               LDI     R20, 6
   \   00000022   E050               LDI     R21, 0
   \   00000024   019E               MOVW    R19:R18, R29:R28
   \   00000026   EA0F               LDI     R16, 175
   \   00000028                      REQUIRE ?Subroutine171
   \   00000028                      ;               // Fall through to label ?Subroutine171

   \                                 In segment FARCODE, align 2, keep-with-next
   \                     ?Subroutine171:
   \   00000000   E010               LDI     R17, 0
   \   00000002   ....               RJMP    ??Subroutine163_0

   \                                 In segment FARCODE, align 2, keep-with-next
   \                     ?Subroutine163:
   \   00000000   E011               LDI     R17, 1
   \                     ??Subroutine163_0:
   \   00000002   ........           JMP     WrArrayToFlesh

   \                                 In segment FARCODE, align 2, keep-with-next
   \                     ?Subroutine21:
   \   00000000   ....               LDI     R30, LOW((map_vers + 46))
   \   00000002   ....               LDI     R31, HIGH((map_vers + 46))
   \   00000004   E030               LDI     R19, 0
   \   00000006   0FE2               ADD     R30, R18
   \   00000008   1FF3               ADC     R31, R19
   \   0000000A   9134               LPM     R19, Z
   \   0000000C   01FE               MOVW    R31:R30, R29:R28
   \   0000000E   E010               LDI     R17, 0
   \   00000010   0FE0               ADD     R30, R16
   \   00000012   1FF1               ADC     R31, R17
   \   00000014   8330               ST      Z, R19
   \   00000016   9503               INC     R16
   \   00000018   9523               INC     R18
   \   0000001A   3028               CPI     R18, 8
   \   0000001C   9508               RET

   \                                 In segment FARCODE, align 2, keep-with-next
   \                     ?Subroutine14:
   \   00000000   ....               LDI     R30, LOW(def_apnr)
   \   00000002   ....               LDI     R31, (def_apnr) >> 8
   \                     ??Subroutine14_0:
   \   00000004   E030               LDI     R19, 0
   \   00000006   0FE2               ADD     R30, R18
   \   00000008   1FF3               ADC     R31, R19
   \   0000000A   9134               LPM     R19, Z
   \   0000000C   01FE               MOVW    R31:R30, R29:R28
   \   0000000E   E010               LDI     R17, 0
   \   00000010   0FE0               ADD     R30, R16
   \   00000012   1FF1               ADC     R31, R17
   \   00000014   8330               ST      Z, R19
   \   00000016   9503               INC     R16
   \   00000018   9523               INC     R18
   \   0000001A   3123               CPI     R18, 19
   \   0000001C   9508               RET

   \                                 In segment FARCODE, align 2, keep-with-next
   \                     ?Subroutine13:
   \   00000000   ....               LDI     R30, LOW((map_vers + 14))
   \   00000002   ....               LDI     R31, HIGH((map_vers + 14))
   \                     ??Subroutine13_0:
   \   00000004   E030               LDI     R19, 0
   \   00000006   0FE2               ADD     R30, R18
   \   00000008   1FF3               ADC     R31, R19
   \   0000000A   9134               LPM     R19, Z
   \   0000000C   01FE               MOVW    R31:R30, R29:R28
   \   0000000E   E010               LDI     R17, 0
   \   00000010   0FE0               ADD     R30, R16
   \   00000012   1FF1               ADC     R31, R17
   \   00000014   8330               ST      Z, R19
   \   00000016   9503               INC     R16
   \   00000018   9523               INC     R18
   \   0000001A   302F               CPI     R18, 15
   \   0000001C   9508               RET

   \                                 In segment FARCODE, align 2, keep-with-next
   \                     ?Subroutine8:
   \   00000000   8309               STD     Y+1, R16
   \   00000002   830A               STD     Y+2, R16
   \   00000004   E10E               LDI     R16, 30
   \   00000006   E010               LDI     R17, 0
   \   00000008   830B               STD     Y+3, R16
   \   0000000A   831C               STD     Y+4, R17
   \   0000000C   E00A               LDI     R16, 10
   \   0000000E   830D               STD     Y+5, R16
   \   00000010   831E               STD     Y+6, R17
   \   00000012   E001               LDI     R16, 1
   \   00000014   830F               STD     Y+7, R16
   \   00000016   8708               STD     Y+8, R16
   \   00000018   EF4F               LDI     R20, 255
   \   0000001A   EF5F               LDI     R21, 255
   \   0000001C   E029               LDI     R18, 9
   \   0000001E   E030               LDI     R19, 0
   \   00000020   018E               MOVW    R17:R16, R29:R28
   \   00000022   ........           CALL    crc_m1
   \   00000026   8709               STD     Y+9, R16
   \   00000028   871A               STD     Y+10, R17
   \   0000002A   E070               LDI     R23, 0
   \   0000002C   E060               LDI     R22, 0
   \   0000002E   E04B               LDI     R20, 11
   \   00000030   E050               LDI     R21, 0
   \   00000032   019E               MOVW    R19:R18, R29:R28
   \   00000034   EA04               LDI     R16, 164
   \   00000036   ....               RJMP    ?Subroutine171

   \                                 In segment FARCODE, align 2, keep-with-next
   \                     ?Subroutine7:
   \   00000000   E302               LDI     R16, 50
   \   00000002   E010               LDI     R17, 0
   \   00000004   8308               ST      Y, R16
   \   00000006   8319               STD     Y+1, R17
   \   00000008   E20D               LDI     R16, 45
   \   0000000A   830A               STD     Y+2, R16
   \   0000000C   831B               STD     Y+3, R17
   \   0000000E   E30E               LDI     R16, 62
   \   00000010   830C               STD     Y+4, R16
   \   00000012   831D               STD     Y+5, R17
   \   00000014   831E               STD     Y+6, R17
   \   00000016   831F               STD     Y+7, R17
   \   00000018   E30C               LDI     R16, 60
   \   0000001A   8708               STD     Y+8, R16
   \   0000001C   8719               STD     Y+9, R17
   \   0000001E   E20D               LDI     R16, 45
   \   00000020   870A               STD     Y+10, R16
   \   00000022   871B               STD     Y+11, R17
   \   00000024   EF4F               LDI     R20, 255
   \   00000026   EF5F               LDI     R21, 255
   \   00000028   E02C               LDI     R18, 12
   \   0000002A   E030               LDI     R19, 0
   \   0000002C   018E               MOVW    R17:R16, R29:R28
   \   0000002E   ........           CALL    crc_m1
   \   00000032   870C               STD     Y+12, R16
   \   00000034   871D               STD     Y+13, R17
   \   00000036   E070               LDI     R23, 0
   \   00000038   E060               LDI     R22, 0
   \   0000003A   E04E               LDI     R20, 14
   \   0000003C   E050               LDI     R21, 0
   \   0000003E   019E               MOVW    R19:R18, R29:R28
   \   00000040   E906               LDI     R16, 150
   \   00000042   ....               RJMP    ?Subroutine171

   \                                 In segment FARCODE, align 2, keep-with-next
   \                     ?Subroutine168:
   \   00000000   ........           JMP     RdFromFleshToArr

   \                                 In segment FARCODE, align 2, keep-with-next
   \                     ?Subroutine29:
   \   00000000   E80C               LDI     R16, 140
   \                     ??Subroutine29_0:
   \   00000002   E010               LDI     R17, 0
   \   00000004   ....               RJMP    ?Subroutine168

   \                                 In segment FARCODE, align 2, keep-with-next
   \                     ?Subroutine56:
   \   00000000   0FE2               ADD     R30, R18
   \   00000002   1FF1               ADC     R31, R17
   \   00000004   8330               ST      Z, R19
   \   00000006   ....               RJMP    ?Subroutine161

   \                                 In segment FARCODE, align 2, keep-with-next
   \                     ?Subroutine161:
   \   00000000   9523               INC     R18
   \   00000002   9508               RET
    609          
    610          
    611          
    612          
    613          

   \                                 In segment FARCODE, align 2, keep-with-next
    614          unsigned char check_memory_map(void)
   \                     check_memory_map:
    615          {
   \   00000000   939A               ST      -Y, R25
   \   00000002   938A               ST      -Y, R24
   \   00000004   97EF               SBIW    R29:R28, 63
   \   00000006   9727               SBIW    R29:R28, 7
    616          unsigned char i,j,buf[70],temp;
    617          
    618          
    619          j=sizeof(map_vers);
    620           
    621          RdFromFleshToArr(A_VER_MAP,&buf[0],j+2);
   \   00000008   ....               RCALL   ?Subroutine76
   \                     ??CrossCallReturnLabel_87:
   \   0000000A   ....               RCALL   ??Subroutine29_0
    622          if(*(unsigned int*)&buf[j]!=crc_m1(&buf[0],j,0xffff))return(1);
   \                     ??CrossCallReturnLabel_385:
   \   0000000C   858E               LDD     R24, Y+14
   \   0000000E   859F               LDD     R25, Y+15
   \   00000010   ....               RCALL   ?Subroutine66
   \                     ??CrossCallReturnLabel_74:
   \   00000012   1780               CP      R24, R16
   \   00000014   0791               CPC     R25, R17
   \   00000016   F011               BREQ    ??check_memory_map_0
   \                     ??check_memory_map_1:
   \   00000018   E001               LDI     R16, 1
   \   0000001A   C079               RJMP    ??check_memory_map_2
    623          for(i=0;i<j;i++)if(buf[i]==map_vers[i])continue;else return(1);
   \                     ??check_memory_map_0:
   \   0000001C   E020               LDI     R18, 0
   \                     ??check_memory_map_3:
   \   0000001E   E010               LDI     R17, 0
   \   00000020   01FE               MOVW    R31:R30, R29:R28
   \   00000022   0FE2               ADD     R30, R18
   \   00000024   1FF1               ADC     R31, R17
   \   00000026   8130               LD      R19, Z
   \   00000028   ....               RCALL   ?Subroutine55
   \                     ??CrossCallReturnLabel_69:
   \   0000002A   9104               LPM     R16, Z
   \   0000002C   1730               CP      R19, R16
   \   0000002E   F7A1               BRNE    ??check_memory_map_1
   \   00000030   9523               INC     R18
   \   00000032   302E               CPI     R18, 14
   \   00000034   F3A0               BRCS    ??check_memory_map_3
    624          
    625          
    626           
    627            
    628          RdFromFleshToArr(A_C_GPRS,&buf[0],L_C_GPRS_MAX);
   \   00000036   ....               RCALL   ?Subroutine84
   \                     ??CrossCallReturnLabel_102:
   \   00000038   E104               LDI     R16, 20
   \   0000003A   ....               RCALL   ?Subroutine170
    629          if(*(unsigned int*)&buf[L_C_GPRS_MAX-2]!=crc_m1(&buf[0],L_C_GPRS_MAX-2,0xffff))
   \                     ??CrossCallReturnLabel_411:
   \   0000003C   F031               BREQ    ??CrossCallReturnLabel_427
    630              {
    631               
    632              //çŕăđóçęŕ ďîóěîë÷ŕíčţ
    633               j=0;
    634               temp=sizeof(def_apn)-1;
    635               buf[0]=temp;
   \   0000003E   E00F               LDI     R16, 15
   \   00000040   ....               RCALL   ?Subroutine152
    636               j=1;
    637               for(i=0;i<temp;i++){buf[j]=def_apn[i];j++;}
   \                     ??CrossCallReturnLabel_292:
   \   00000042   ....               RCALL   ?Subroutine13
   \                     ??CrossCallReturnLabel_5:
   \   00000044   F3F0               BRCS    ??CrossCallReturnLabel_292
    638          
    639               temp=sizeof(def_usname)-1;
    640               buf[j]=temp;
   \   00000046   ....               RCALL   ?Subroutine43
    641               j++;
    642               for(i=0;i<temp;i++){buf[j]=def_usname[i];j++;}
    643               
    644               temp=sizeof(def_uspsw)-1;
    645               buf[j]=temp;
    646               j++;
    647               for(i=0;i<temp;i++){buf[j]=def_uspsw[i];j++;}
    648          
    649               for(i=0;i<L_C_GPRS_MAX;i++){buf[j]=0;j++;}
    650          
    651               *(unsigned int*)&buf[L_C_GPRS_MAX-2]=crc_m1(&buf[0],L_C_GPRS_MAX-2,0xffff);
    652               WrArrayToFlesh(A_C_GPRS, &buf[0],L_C_GPRS_MAX,0,0);
   \                     ??CrossCallReturnLabel_52:
   \   00000048   ....               RCALL   ?Subroutine171
    653              }
    654          
    655          
    656          
    657          RdFromFleshToArr(A_CR_GPRS,&buf[0],L_CR_GPRS_MAX);
   \                     ??CrossCallReturnLabel_427:
   \   0000004A   ....               RCALL   ?Subroutine84
   \                     ??CrossCallReturnLabel_103:
   \   0000004C   E500               LDI     R16, 80
   \   0000004E   ....               RCALL   ?Subroutine16
    658          if(*(unsigned int*)&buf[L_CR_GPRS_MAX-2]!=crc_m1(&buf[0],L_CR_GPRS_MAX-2,0xffff))
   \                     ??CrossCallReturnLabel_409:
   \   00000050   F031               BREQ    ??CrossCallReturnLabel_426
    659              {
    660               
    661              //çŕăđóçęŕ ďîóěîë÷ŕíčţ
    662               j=0;
    663               temp=sizeof(def_apnr)-1;
    664               buf[0]=temp;
   \   00000052   E103               LDI     R16, 19
   \   00000054   ....               RCALL   ?Subroutine152
    665               j=1;
    666               for(i=0;i<temp;i++){buf[j]=def_apnr[i];j++;}
   \                     ??CrossCallReturnLabel_293:
   \   00000056   ....               RCALL   ?Subroutine14
   \                     ??CrossCallReturnLabel_9:
   \   00000058   F3F0               BRCS    ??CrossCallReturnLabel_293
    667          
    668               temp=sizeof(def_usnamer)-1;
    669               buf[j]=temp;
   \   0000005A   ....               RCALL   ?Subroutine44
    670               j++;
    671               for(i=0;i<temp;i++){buf[j]=def_usnamer[i];j++;}
    672               
    673               temp=sizeof(def_uspswr)-1;
    674               buf[j]=temp;
    675               j++;
    676               for(i=0;i<temp;i++){buf[j]=def_uspswr[i];j++;}
    677          
    678               for(i=0;i<L_CR_GPRS_MAX;i++){buf[j]=0;j++;}
    679          
    680               *(unsigned int*)&buf[L_CR_GPRS_MAX-2]=crc_m1(&buf[0],L_CR_GPRS_MAX-2,0xffff);
    681               WrArrayToFlesh(A_CR_GPRS, &buf[0],L_CR_GPRS_MAX,0,0);
   \                     ??CrossCallReturnLabel_54:
   \   0000005C   ....               RCALL   ?Subroutine171
    682              }
    683          
    684          
    685          
    686          
    687          
    688          
    689          RdFromFleshToArr(A_IP_PAR,&buf[0],L_IP_PAR);
   \                     ??CrossCallReturnLabel_426:
   \   0000005E   E04A               LDI     R20, 10
   \   00000060   ....               RCALL   ??Subroutine84_0
   \                     ??CrossCallReturnLabel_104:
   \   00000062   ....               RCALL   ?Subroutine29
    690          if(*(unsigned int*)&buf[OFS_IP_PAR_CRC]!=crc_m1(&buf[0],L_IP_PAR-2,0xffff))
   \                     ??CrossCallReturnLabel_388:
   \   00000064   8588               LDD     R24, Y+8
   \   00000066   8599               LDD     R25, Y+9
   \   00000068   ....               RCALL   ?Subroutine68
   \                     ??CrossCallReturnLabel_76:
   \   0000006A   018E               MOVW    R17:R16, R29:R28
   \   0000006C   ....               RCALL   ??Subroutine147_1
   \                     ??CrossCallReturnLabel_402:
   \   0000006E   F029               BREQ    ??CrossCallReturnLabel_425
    691            {
    692           
    693            
    694             buf[OFS_IP]=DEF_IP_SRV_0;
   \   00000070   ....               RCALL   ?Subroutine64
    695             buf[OFS_IP+1]=DEF_IP_SRV_1;
    696             buf[OFS_IP+2]=DEF_IP_SRV_2;
    697             buf[OFS_IP+3]=DEF_IP_SRV_3;
    698             
    699             *(unsigned int*)&buf[OFS_PORT]=DEF_UDP_PORT;//UDP ďîđň
    700             *(unsigned int*)&buf[OFS_NUM]=//ńâîé íîěĺđ ďî óěîë÷ŕíčţ
    701             
    702             *(unsigned int*)&buf[OFS_IP_PAR_CRC]=crc_m1(&buf[0],L_IP_PAR-2,0xffff);
   \                     ??CrossCallReturnLabel_307:
   \   00000072   830E               STD     Y+6, R16
   \   00000074   831F               STD     Y+7, R17
    703               WrArrayToFlesh(A_IP_PAR, &buf[0],L_IP_PAR,0,0);
   \   00000076   ....               RCALL   ?Subroutine74
   \                     ??CrossCallReturnLabel_326:
   \   00000078   ....               RCALL   ?Subroutine171
    704            }
    705          
    706          
    707          RdFromFleshToArr(A_C_PAR,&buf[0],L_C_PAR);
   \                     ??CrossCallReturnLabel_425:
   \   0000007A   E04E               LDI     R20, 14
   \   0000007C   ....               RCALL   ??Subroutine84_0
   \                     ??CrossCallReturnLabel_105:
   \   0000007E   E906               LDI     R16, 150
   \   00000080   ....               RCALL   ??Subroutine29_0
    708          if(*(unsigned int*)&buf[OFS_C_PAR_CRC]!=crc_m1(&buf[0],L_C_PAR-2,0xffff))
   \                     ??CrossCallReturnLabel_384:
   \   00000082   ....               RCALL   ?Subroutine65
   \                     ??CrossCallReturnLabel_407:
   \   00000084   F009               BREQ    ??CrossCallReturnLabel_418
    709            {
    710            
    711            
    712          
    713             *(unsigned int*)&buf[OFS_NAT]=DEF_CNTR_NAT;
   \   00000086   ....               RCALL   ?Subroutine7
    714             *(unsigned int*)&buf[OFS_CCH]=DEF_CNTR_LINK;
    715             *(unsigned int*)&buf[OFS_TM_CH]=DEF_TM_CNTR_LINK;
    716             
    717             *(unsigned int*)&buf[OFS_TM_NO_LINK]=DEF_TM_NO_LINK;       //dobavka
    718             *(unsigned int*)&buf[OFS_TM_LINK_RES]=DEF_TM_LINK_RES;       //dobavka
    719             
    720             *(unsigned int*)&buf[OFS_NAT_R]=DEF_CNTR_NAT_R;
    721             
    722             *(unsigned int*)&buf[OFS_C_PAR_CRC]=crc_m1(&buf[0],L_C_PAR-2,0xffff);
    723               WrArrayToFlesh(A_C_PAR, &buf[0],L_C_PAR,0,0);
    724            }
    725          
    726          
    727          
    728          RdFromFleshToArr(A_SEQ_PAR,&buf[0],L_SEQ_PAR);
   \                     ??CrossCallReturnLabel_418:
   \   00000088   E04B               LDI     R20, 11
   \   0000008A   ....               RCALL   ??Subroutine84_0
   \                     ??CrossCallReturnLabel_106:
   \   0000008C   EA04               LDI     R16, 164
   \   0000008E   ....               RCALL   ??Subroutine29_0
    729          if(*(unsigned int*)&buf[OFS_SEQ_PAR_CRC]!=crc_m1(&buf[0],L_SEQ_PAR-2,0xffff))
   \                     ??CrossCallReturnLabel_383:
   \   00000090   8589               LDD     R24, Y+9
   \   00000092   859A               LDD     R25, Y+10
   \   00000094   ........           CALL    ?Subroutine67
   \                     ??CrossCallReturnLabel_315:
   \   00000098   ....               RCALL   ??Subroutine147_1
   \                     ??CrossCallReturnLabel_403:
   \   0000009A   F019               BREQ    ??CrossCallReturnLabel_420
    730            {
    731            
    732            
    733             buf[OFS_DES_SEQ]=~DEF_DES_SEQ; 
   \   0000009C   EF0F               LDI     R16, 255
   \   0000009E   8308               ST      Y, R16
    734             *(unsigned int*)&buf[OFS_NUM_CL]=DEF_NUM_DST_SEQ;
   \   000000A0   ....               RCALL   ?Subroutine8
    735             *(unsigned int*)&buf[OFS_TM_VZ]=DEF_VOL_TM_VZAT;
    736             *(unsigned int*)&buf[OFS_TM_CL]=DEF_TM_CNTR_CL;
    737             buf[OFS_TP_TS]=DEF_TP_TS1;
    738             buf[OFS_TP_TS+1]=DEF_TP_TS2;
    739             *(unsigned int*)&buf[OFS_SEQ_PAR_CRC]=crc_m1(&buf[0],L_SEQ_PAR-2,0xffff);
    740               WrArrayToFlesh(A_SEQ_PAR, &buf[0],L_SEQ_PAR,0,0);
    741            }
    742          
    743          
    744          
    745          
    746          
    747          /*
    748          RdFromFleshToArr(A_PORT_GPRS,&buf[0],L_PORT_GPRS);
    749          if(*(unsigned int*)&buf[OFS_PORT_GPRS_CRC]!=crc_m1(&buf[0],L_PORT_GPRS-2,0xffff))
    750            {
    751           
    752            
    753             buf[OFS_GPRS_DES]=~DEF_DES_PORT_GPRS; 
    754             *(unsigned long int*)&buf[OFS_GPRS_S]=DEF_PORT_GPRS_S;
    755          
    756             *(unsigned int*)&buf[OFS_PORT_GPRS_CRC]=crc_m1(&buf[0],L_PORT_GPRS-2,0xffff);
    757               WrArrayToFlesh(A_PORT_GPRS, &buf[0],L_PORT_GPRS,0,0);
    758            }
    759          */
    760          
    761          RdFromFleshToArr(A_KOD_SIM1,&buf[0],L_KOD_SIM1);
   \                     ??CrossCallReturnLabel_420:
   \   000000A2   E046               LDI     R20, 6
   \   000000A4   ....               RCALL   ??Subroutine84_0
   \                     ??CrossCallReturnLabel_107:
   \   000000A6   EA0F               LDI     R16, 175
   \   000000A8   ....               RCALL   ?Subroutine17
    762          if(*(unsigned int*)&buf[OFS_KOD_SIM1_CRC]!=crc_m1(&buf[0],L_KOD_SIM1-2,0xffff))
   \                     ??CrossCallReturnLabel_405:
   \   000000AA   F009               BREQ    ??CrossCallReturnLabel_430
    763            {
    764             buf[OFS_PIN_SIM1]='.';
   \   000000AC   ....               RCALL   ?Subroutine24
    765             buf[OFS_PIN_SIM1+1]='.';
    766             buf[OFS_PIN_SIM1+2]='.';
    767             buf[OFS_PIN_SIM1+3]='.';
    768             *(unsigned int*)&buf[OFS_KOD_SIM1_CRC]=crc_m1(&buf[0],L_KOD_SIM1-2,0xffff);
    769               WrArrayToFlesh(A_KOD_SIM1, &buf[0],L_KOD_SIM1,0,0);
    770            }
    771          
    772          
    773          
    774          RdFromFleshToArr(A_KOD_SIM2,&buf[0],L_KOD_SIM2);
   \                     ??CrossCallReturnLabel_430:
   \   000000AE   E046               LDI     R20, 6
   \   000000B0   ....               RCALL   ??Subroutine84_0
   \                     ??CrossCallReturnLabel_108:
   \   000000B2   EB05               LDI     R16, 181
   \   000000B4   ....               RCALL   ?Subroutine17
    775          if(*(unsigned int*)&buf[OFS_KOD_SIM2_CRC]!=crc_m1(&buf[0],L_KOD_SIM2-2,0xffff))
   \                     ??CrossCallReturnLabel_406:
   \   000000B6   F011               BREQ    ??CrossCallReturnLabel_424
    776            {
    777             buf[OFS_PIN_SIM2]='.';
   \   000000B8   ....               RCALL   ?Subroutine63
    778             buf[OFS_PIN_SIM2+1]='.';
    779             buf[OFS_PIN_SIM2+2]='.';
    780             buf[OFS_PIN_SIM2+3]='.';
    781             *(unsigned int*)&buf[OFS_KOD_SIM2_CRC]=crc_m1(&buf[0],L_KOD_SIM2-2,0xffff);
    782               WrArrayToFlesh(A_KOD_SIM2, &buf[0],L_KOD_SIM2,0,0);
   \                     ??CrossCallReturnLabel_73:
   \   000000BA   ....               RCALL   ?Subroutine171
    783            }
    784          
    785          
    786          RdFromFleshToArr(A_C1_GPRS,&buf[0],L_C1_GPRS_MAX);
   \                     ??CrossCallReturnLabel_424:
   \   000000BC   ....               RCALL   ?Subroutine84
   \                     ??CrossCallReturnLabel_109:
   \   000000BE   EF0A               LDI     R16, 250
   \   000000C0   ....               RCALL   ?Subroutine16
    787          if(*(unsigned int*)&buf[L_C1_GPRS_MAX-2]!=crc_m1(&buf[0],L_C1_GPRS_MAX-2,0xffff))
   \                     ??CrossCallReturnLabel_410:
   \   000000C2   F041               BREQ    ??CrossCallReturnLabel_423
    788              {
    789              
    790              
    791              
    792              //çŕăđóçęŕ ďîóěîë÷ŕíčţ
    793               j=0;
    794               temp=sizeof(def_apn1)-1;
    795               buf[0]=temp;
   \   000000C4   E00F               LDI     R16, 15
   \   000000C6   ....               RCALL   ?Subroutine152
    796               j=1;
    797               for(i=0;i<temp;i++){buf[j]=def_apn1[i];j++;}
   \                     ??CrossCallReturnLabel_294:
   \   000000C8   ....               LDI     R30, LOW((map_vers + 30))
   \   000000CA   ....               LDI     R31, HIGH((map_vers + 30))
   \   000000CC   ....               RCALL   ??Subroutine13_0
   \                     ??CrossCallReturnLabel_7:
   \   000000CE   F3E0               BRCS    ??CrossCallReturnLabel_294
    798          
    799               temp=sizeof(def_usname1)-1;
    800               buf[j]=temp;
   \   000000D0   ....               RCALL   ?Subroutine45
    801               j++;
    802               for(i=0;i<temp;i++){buf[j]=def_usname1[i];j++;}
    803               
    804               temp=sizeof(def_uspsw1)-1;
    805               buf[j]=temp;
    806               j++;
    807               for(i=0;i<temp;i++){buf[j]=def_uspsw1[i];j++;}
    808          
    809               for(i=0;i<L_C1_GPRS_MAX;i++){buf[j]=0;j++;}
    810          
    811               *(unsigned int*)&buf[L_C1_GPRS_MAX-2]=crc_m1(&buf[0],L_C1_GPRS_MAX-2,0xffff);
    812               WrArrayToFlesh(A_C1_GPRS, &buf[0],L_C1_GPRS_MAX,0,0);
   \                     ??CrossCallReturnLabel_56:
   \   000000D2   ....               RCALL   ?Subroutine171
    813              }
    814          
    815          RdFromFleshToArr(A_C2_GPRS,&buf[0],L_C2_GPRS_MAX);
   \                     ??CrossCallReturnLabel_423:
   \   000000D4   ....               RCALL   ?Subroutine84
   \                     ??CrossCallReturnLabel_110:
   \   000000D6   E306               LDI     R16, 54
   \   000000D8   E011               LDI     R17, 1
   \   000000DA   ....               RCALL   ?Subroutine170
    816          if(*(unsigned int*)&buf[L_C2_GPRS_MAX-2]!=crc_m1(&buf[0],L_C2_GPRS_MAX-2,0xffff))
   \                     ??CrossCallReturnLabel_412:
   \   000000DC   F039               BREQ    ??CrossCallReturnLabel_434
    817              {
    818              
    819              
    820              
    821              //çŕăđóçęŕ ďîóěîë÷ŕíčţ
    822               j=0;
    823               temp=sizeof(def_apn2)-1;
    824               buf[0]=temp;
   \   000000DE   E103               LDI     R16, 19
   \   000000E0   ....               RCALL   ?Subroutine152
    825               j=1;
    826               for(i=0;i<temp;i++){buf[j]=def_apn2[i];j++;}
   \                     ??CrossCallReturnLabel_295:
   \   000000E2   ....               LDI     R30, LOW((def_apnr + 20))
   \   000000E4   ....               LDI     R31, HIGH((def_apnr + 20))
   \   000000E6   ....               RCALL   ??Subroutine14_0
   \                     ??CrossCallReturnLabel_11:
   \   000000E8   F3E0               BRCS    ??CrossCallReturnLabel_295
    827          
    828               temp=sizeof(def_usname2)-1;
    829               buf[j]=temp;
   \   000000EA   ....               RCALL   ?Subroutine41
    830               j++;
    831               for(i=0;i<temp;i++){buf[j]=def_usname2[i];j++;}
    832               
    833               temp=sizeof(def_uspsw2)-1;
    834               buf[j]=temp;
    835               j++;
    836               for(i=0;i<temp;i++){buf[j]=def_uspsw2[i];j++;}
    837          
    838               for(i=0;i<L_C2_GPRS_MAX;i++){buf[j]=0;j++;}
    839          
    840               *(unsigned int*)&buf[L_C2_GPRS_MAX-2]=crc_m1(&buf[0],L_C2_GPRS_MAX-2,0xffff);
    841               WrArrayToFlesh(A_C2_GPRS, &buf[0],L_C2_GPRS_MAX,0,0);
    842              }
    843          
    844          
    845          RdFromFleshToArr(A_C3_GPRS,&buf[0],L_C3_GPRS_MAX);
   \                     ??CrossCallReturnLabel_434:
   \   000000EC   ....               RCALL   ?Subroutine84
   \                     ??CrossCallReturnLabel_111:
   \   000000EE   ....               RCALL   ??Subroutine52_0
    846          if(*(unsigned int*)&buf[L_C3_GPRS_MAX-2]!=crc_m1(&buf[0],L_C3_GPRS_MAX-2,0xffff))
   \                     ??CrossCallReturnLabel_389:
   \   000000F0   ....               RCALL   ?Subroutine147
   \                     ??CrossCallReturnLabel_413:
   \   000000F2   F021               BREQ    ??CrossCallReturnLabel_436
    847              {
    848              
    849              //çŕăđóçęŕ ďîóěîë÷ŕíčţ
    850               j=0;
    851               temp=sizeof(def_apn3)-1;
    852               buf[0]=temp;
   \   000000F4   ....               RCALL   ?Subroutine91
    853               j=1;
    854               for(i=0;i<temp;i++){buf[j]=def_apn3[i];j++;}
   \                     ??CrossCallReturnLabel_291:
   \   000000F6   ....               RCALL   ?Subroutine21
   \                     ??CrossCallReturnLabel_30:
   \   000000F8   F3F0               BRCS    ??CrossCallReturnLabel_291
    855          
    856               temp=sizeof(def_usname3)-1;
    857               buf[j]=temp;
   \   000000FA   ....               RCALL   ?Subroutine42
    858               j++;
    859               for(i=0;i<temp;i++){buf[j]=def_usname3[i];j++;}
    860               
    861               temp=sizeof(def_uspsw3)-1;
    862               buf[j]=temp;
    863               j++;
    864               for(i=0;i<temp;i++){buf[j]=def_uspsw3[i];j++;}
    865          
    866               for(i=0;i<L_C3_GPRS_MAX;i++){buf[j]=0;j++;}
    867          
    868               *(unsigned int*)&buf[L_C3_GPRS_MAX-2]=crc_m1(&buf[0],L_C3_GPRS_MAX-2,0xffff);
    869               WrArrayToFlesh(A_C3_GPRS, &buf[0],L_C3_GPRS_MAX,0,0);
    870              }
    871          
    872          
    873          RdFromFleshToArr(A_TRAF,&buf[0],L_TRAF);
   \                     ??CrossCallReturnLabel_436:
   \   000000FC   E04E               LDI     R20, 14
   \   000000FE   ....               RCALL   ??Subroutine84_0
   \                     ??CrossCallReturnLabel_112:
   \   00000100   EF0E               LDI     R16, 254
   \   00000102   E714               LDI     R17, 116
   \   00000104   ....               RCALL   ?Subroutine168
    874          if(*(unsigned int*)&buf[L_TRAF-2]!=crc_m1(&buf[0],L_TRAF-2,0xffff))
   \                     ??CrossCallReturnLabel_394:
   \   00000106   ....               RCALL   ?Subroutine65
   \                     ??CrossCallReturnLabel_408:
   \   00000108   F009               BREQ    ??CrossCallReturnLabel_432
    875          {
    876               *(unsigned long int*)&buf[0]=burst_ds_r();
   \   0000010A   ....               RCALL   ?Subroutine60
    877               *(unsigned long int*)&buf[4]=0;
    878               *(unsigned long int*)&buf[8]=0;
    879               *(unsigned int*)&buf[L_TRAF-2]=crc_m1(&buf[0],L_TRAF-2,0xffff);
    880               WrArrayToFlesh(A_TRAF, &buf[0],L_TRAF,0,0);
    881          }
    882          
    883          
    884          return(0);  
   \                     ??CrossCallReturnLabel_432:
   \   0000010C   E000               LDI     R16, 0
   \                     ??check_memory_map_2:
   \   0000010E   96EF               ADIW    R29:R28, 63
   \   00000110   9627               ADIW    R29:R28, 7
   \   00000112   9189               LD      R24, Y+
   \   00000114   9199               LD      R25, Y+
   \   00000116   9508               RET
    885          }

   \                                 In segment FARCODE, align 2, keep-with-next
   \                     ?Subroutine65:
   \   00000000   858C               LDD     R24, Y+12
   \   00000002   859D               LDD     R25, Y+13
   \   00000004   EF4F               LDI     R20, 255
   \   00000006   EF5F               LDI     R21, 255
   \   00000008   E02C               LDI     R18, 12
   \   0000000A   ....               RJMP    ??Subroutine147_0

   \                                 In segment FARCODE, align 2, keep-with-next
   \                     ?Subroutine147:
   \   00000000   AD8A               LDD     R24, Y+58
   \   00000002   AD9B               LDD     R25, Y+59
   \   00000004   EF4F               LDI     R20, 255
   \   00000006   EF5F               LDI     R21, 255
   \   00000008   E32A               LDI     R18, 58
   \                     ??Subroutine147_0:
   \   0000000A   E030               LDI     R19, 0
   \   0000000C   018E               MOVW    R17:R16, R29:R28
   \                     ??Subroutine147_1:
   \   0000000E   ........           CALL    crc_m1
   \   00000012   1780               CP      R24, R16
   \   00000014   0791               CPC     R25, R17
   \   00000016   9508               RET

   \                                 In segment FARCODE, align 2, keep-with-next
   \                     ?Subroutine170:
   \   00000000   ........           CALL    RdFromFleshToArr
   \   00000004   ....               RJMP    ?Subroutine147

   \                                 In segment FARCODE, align 2, keep-with-next
   \                     ?Subroutine17:
   \   00000000   E010               LDI     R17, 0
   \   00000002   ........           CALL    RdFromFleshToArr
   \   00000006   818C               LDD     R24, Y+4
   \   00000008   819D               LDD     R25, Y+5
   \   0000000A   EF4F               LDI     R20, 255
   \   0000000C   EF5F               LDI     R21, 255
   \   0000000E   E024               LDI     R18, 4
   \   00000010   ....               RJMP    ??Subroutine147_0

   \                                 In segment FARCODE, align 2, keep-with-next
   \                     ?Subroutine16:
   \   00000000   E010               LDI     R17, 0
   \   00000002   ....               RJMP    ?Subroutine170

   \                                 In segment FARCODE, align 2, keep-with-next
   \                     ?Subroutine68:
   \   00000000   EF4F               LDI     R20, 255
   \   00000002   EF5F               LDI     R21, 255
   \   00000004   E028               LDI     R18, 8
   \   00000006   E030               LDI     R19, 0
   \   00000008   9508               RET

   \                                 In segment FARCODE, align 2, keep-with-next
   \                     ?Subroutine157:
   \   00000000   E030               LDI     R19, 0
   \   00000002   018E               MOVW    R17:R16, R29:R28
   \   00000004   9508               RET

   \                                 In segment FARCODE, align 2, keep-with-next
   \                     ?Subroutine52:
   \   00000000   4F3F               SBCI    R19, 255
   \                     ??Subroutine52_0:
   \   00000002   E702               LDI     R16, 114
   \   00000004   E011               LDI     R17, 1
   \   00000006   ....               RJMP    ?Subroutine168

   \                                 In segment FARCODE, align 2, keep-with-next
   \                     ?Subroutine67:
   \   00000000   EF4F               LDI     R20, 255
   \   00000002   EF5F               LDI     R21, 255
   \   00000004   E029               LDI     R18, 9
   \   00000006   ....               RJMP    ?Subroutine157
    886          
    887          
    888          
    889          

   \                                 In segment FARCODE, align 2, keep-with-next
    890          void load_par_first(void)
   \                     load_par_first:
    891          {
    892          if (e_first_on==0xff)
   \   00000000   E020               LDI     R18, 0
   \   00000002   E030               LDI     R19, 0
   \   00000004   01A9               MOVW    R21:R20, R19:R18
   \   00000006   ........           CALL    __eeget8_16
   \   0000000A   3F0F               CPI     R16, 255
   \   0000000C   F439               BRNE    ??CrossCallReturnLabel_398
    893                {
    894                __watchdog_reset();
   \   0000000E   95A8               WDR
    895                WrArrayToFlesh(BEG_BUF_LOG,0,(L_LOG*6),0x01,0x00);
   \   00000010   ....               RCALL   ?Subroutine75
   \                     ??CrossCallReturnLabel_84:
   \   00000012   ....               RCALL   ?Subroutine97
    896                __watchdog_reset();    
   \                     ??CrossCallReturnLabel_417:
   \   00000014   95A8               WDR
    897                e_first_on=0;    
   \   00000016   E000               LDI     R16, 0
   \   00000018   E040               LDI     R20, 0
   \   0000001A   ....               RCALL   ?Subroutine169
    898                }
    899           if(e_debug>4)e_debug=RG_WORK; //dobavka
   \                     ??CrossCallReturnLabel_398:
   \   0000001C   ....               RCALL   ?Subroutine79
   \                     ??CrossCallReturnLabel_92:
   \   0000001E   3005               CPI     R16, 5
   \   00000020   F010               BRCS    ??CrossCallReturnLabel_400
   \   00000022   ........           CALL    ?Subroutine4
    900           Regim=e_debug;
   \                     ??CrossCallReturnLabel_400:
   \   00000026   ....               RCALL   ?Subroutine79
   \                     ??CrossCallReturnLabel_93:
   \   00000028   9300....           STS     Regim, R16
    901          }
   \   0000002C   9508               RET

   \                                 In segment FARCODE, align 2, keep-with-next
   \                     ?Subroutine97:
   \   00000000   EF04               LDI     R16, 244
   \   00000002   E011               LDI     R17, 1
   \   00000004   ....               RJMP    ??Subroutine163_0

   \                                 In segment FARCODE, align 2, keep-with-next
   \                     ?Subroutine79:
   \   00000000   E043               LDI     R20, 3
   \   00000002   E050               LDI     R21, 0
   \   00000004   ........           JMP     __eeget8_16

   \                                 In segment FARCODE, align 2, keep-with-next
   \                     ?Subroutine169:
   \   00000000   E050               LDI     R21, 0
   \   00000002   ........           JMP     __eeput8_16

   \                                 In segment FARCODE, align 2, keep-with-next
   \                     ?Subroutine75:
   \   00000000   E070               LDI     R23, 0
   \   00000002   E061               LDI     R22, 1
   \   00000004   EF40               LDI     R20, 240
   \   00000006   E050               LDI     R21, 0
   \   00000008   9508               RET

   \                                 In segment FARCODE, align 2, keep-with-next
   \                     ?Subroutine4:
   \   00000000   E000               LDI     R16, 0
   \   00000002   E043               LDI     R20, 3
   \   00000004   ....               RJMP    ?Subroutine169
    902          
    903          
    904          
    905          

   \                                 In segment FARCODE, align 2, keep-with-next
    906          unsigned char check_keys(void)
   \                     check_keys:
    907          {
   \   00000000   ........           CALL    ?Subroutine109
    908          /*unsigned char i,buf[11];
    909          
    910          
    911          RdFromFleshToArr(A_KEYS,&buf[0],L_KEYS);
    912          
    913          if(*(unsigned int*)&buf[L_KEYS-2]==crc_m1(&buf[0],L_KEYS-2,0xffff))
    914           {
    915            for(i=0;i<L_KEYS;i++) keys[i]=buf[i];//çŕăđóçęŕ ęëţ÷ĺé â ěŕńńčâ ęëţ÷ĺé  
    916            return(0);
    917           }
    918           
    919          else return(1);
    920          */
    921          
    922          RdFromFleshToArr(A_KEYS,&keys[0],L_KEYS);
   \                     ??CrossCallReturnLabel_130:
   \   00000004   ....               LDI     R26, LOW(keys)
   \   00000006   ....               LDI     R27, (keys) >> 8
   \   00000008   E04A               LDI     R20, 10
   \   0000000A   E050               LDI     R21, 0
   \   0000000C   019D               MOVW    R19:R18, R27:R26
   \   0000000E   ....               RCALL   ?Subroutine110
   \                     ??CrossCallReturnLabel_134:
   \   00000010   ....               RCALL   ?Subroutine168
    923          if(*(unsigned int*)&keys[L_KEYS-2]!=crc_m1(&keys[0],L_KEYS-2,0xffff))return(1);
   \                     ??CrossCallReturnLabel_393:
   \   00000012   9618               ADIW    R27:R26, 8
   \   00000014   918D               LD      R24, X+
   \   00000016   919C               LD      R25, X
   \   00000018   9719               SBIW    R27:R26, 9
   \   0000001A   ....               RCALL   ?Subroutine68
   \                     ??CrossCallReturnLabel_77:
   \   0000001C   018D               MOVW    R17:R16, R27:R26
   \   0000001E   ....               RCALL   ??Subroutine147_1
   \                     ??CrossCallReturnLabel_404:
   \   00000020   F011               BREQ    ??check_keys_0
   \   00000022   E001               LDI     R16, 1
   \   00000024   C001               RJMP    ??check_keys_1
    924          return(0);
   \                     ??check_keys_0:
   \   00000026   E000               LDI     R16, 0
   \                     ??check_keys_1:
   \   00000028   ........           JMP     ?Subroutine164
    925          }

   \                                 In segment FARCODE, align 2, keep-with-next
   \                     ?Subroutine110:
   \   00000000   E300               LDI     R16, 48
   \   00000002   E715               LDI     R17, 117
   \   00000004   9508               RET

   \                                 In segment FARCODE, align 2, keep-with-next
   \                     ?Subroutine164:
   \   00000000   E0E4               LDI     R30, 4
   \   00000002   ........           JMP     ?EPILOGUE_B4_L09

   \                                 In segment FARCODE, align 2, keep-with-next
   \                     ?Subroutine109:
   \   00000000   ........           JMP     ?PROLOGUE4_L09
    926          
    927          
    928          
    929          
    930          ///đŕáîňŕ ń ňĺđěčíŕëîěđŕáîňŕ ń ňĺđěčíŕëîěđŕáîňŕ ń ňĺđěčíŕëîěđŕáîňŕ ń ňĺđěčíŕëîěŕáîňŕ ń ňĺđěčíŕëîěđŕáîňŕ ń ňĺđěčíŕëîěđŕáîňŕ ń ňĺđěčíŕëîěđŕáîňŕ ń ňĺđěčíŕëîě
    931          

   \                                 In segment FARCODE, align 2, keep-with-next
   \                     ?Subroutine173:
   \   00000000   ........           JMP     ??Subroutine167_0

   \                                 In segment FARCODE, align 2, keep-with-next
    932          void    mov_massiv (char size, char *p)
   \                     mov_massiv:
    933                {     
   \   00000000   ........           CALL    ?Subroutine109
   \                     ??CrossCallReturnLabel_131:
   \   00000004   2F80               MOV     R24, R16
   \   00000006   01D9               MOVW    R27:R26, R19:R18
   \   00000008   C002               RJMP    ??CrossCallReturnLabel_507
    934                 while(size--) s_port(*p++);
   \                     ??mov_massiv_0:
   \   0000000A   910D               LD      R16, X+
   \   0000000C   ....               RCALL   ?Subroutine173
   \                     ??CrossCallReturnLabel_507:
   \   0000000E   2F08               MOV     R16, R24
   \   00000010   958A               DEC     R24
   \   00000012   2300               TST     R16
   \   00000014   F7D1               BRNE    ??mov_massiv_0
    935                } 
   \   00000016   ........           JMP     ?Subroutine164

   \                                 In segment FARCODE, align 2, keep-with-next
   \                     ?Subroutine167:
   \   00000000   E20E               LDI     R16, 46
   \                     ??Subroutine167_0:
   \   00000002   ........           JMP     s_port
    936           
    937          

   \                                 In segment FARCODE, align 2, keep-with-next
   \                     ?Subroutine174:
   \   00000000   ........           JMP     ?Subroutine165

   \                                 In segment FARCODE, align 2, keep-with-next
    938           void read_menu(unsigned char index_menu)
   \                     read_menu:
    939               {
   \   00000000   ........           CALL    ?PROLOGUE5_L09
   \   00000004                      REQUIRE ?Register_R4_is_cg_reg
   \   00000004   97EF               SBIW    R29:R28, 63
   \   00000006   9764               SBIW    R29:R28, 20
   \   00000008   2E40               MOV     R4, R16
    940             char massiv[13];
    941             unsigned char buf[70];  
    942             
    943             unsigned char i,k; 
    944              
    945             
    946             memset(massiv,0,13); 
   \   0000000A   E04D               LDI     R20, 13
   \   0000000C   ....               RCALL   ?Subroutine86
   \                     ??CrossCallReturnLabel_317:
   \   0000000E   ........           CALL    memset
    947                  
    948              if( index_menu    ==25) SET_TEN;
   \   00000012   E109               LDI     R16, 25
   \   00000014   1640               CP      R4, R16
   \   00000016   91000105           LDS     R16, 261
   \   0000001A   F509               BRNE    ??read_menu_0
   \   0000001C   6008               ORI     R16, 0x08
   \   0000001E   ........           CALL    ?Subroutine117
    949              if( index_menu    !=25)CLR_TEN;                                 // äë˙ ďđîâĺđęč íŕăđĺâŕňĺë˙ â ýňîě ďóíęňĺ îí âęëţ÷ŕĺňń˙
    950              
    951               switch (index_menu) 
    952                  
    953                  {
    954                  case 0:
    955                                        
    956                  menu_beg:
    957                         mov_lf();
    958                         s_port('1');
    959                         s_port('.');
    960                         mov_s ( sizeof(versia),versia);  
    961                       //  read_boot_ver();
    962                       //  mov_buf ( 7,buf_boot_ver); 
    963             
    964                         
    965                         mov_lf(); 
    966                         s_port('>');      
    967                         break;  
    968                         
    969          #ifdef SCENARIO_TEST_MTC_ENABLE               
    970                  case 1: 
    971                         mov_lf();
    972                         s_port('2');
    973                         s_port('.');
    974                         mov_s ( sizeof(map_test_mtc),map_test_mtc);                              
    975                         mov_lf(); 
    976                         s_port('>');  
    977                         break;  
    978          #else   
    979                         case 1: 
    980                         mov_lf();
    981                         s_port('2');
    982                         s_port('.');
    983                         mov_s ( sizeof(map_vers),map_vers);                              
    984                         mov_lf(); 
    985                         s_port('>');  
    986                         break; 
    987          #endif               
    988                         
    989                         
    990                  case 2: 
    991                         mov_lf(); 
    992                         s_port('3');
    993                         s_port('.');
    994                         mov_s ( sizeof(ozu_vers),ozu_vers);                              
    995                         mov_lf(); 
    996                         s_port('>');  
    997                         break;
    998                         
    999                  case 3:        
   1000                         
   1001                         RdFromFleshToArr(A_C_GPRS,&buf[0],L_C_GPRS_MAX);
   1002                         mov_lf();
   1003                        // s_port('B');
   1004                        // s_port(':');
   1005                         mov_s ( sizeof(zp_apn1),zp_apn1);
   1006          
   1007          
   1008          povt_1:            
   1009                         
   1010                         
   1011                         if((buf[0]!=0)&&(buf[0]<31))
   1012                         {
   1013                          s_port('"');
   1014                          i=0;
   1015                          k=0;
   1016                          while(i<buf[k]){s_port(buf[k+1+i]);i++;}   
   1017                          s_port('"');
   1018                         
   1019                          s_port('"');           
   1020                          k=k+i+1;
   1021                          i=0; 
   1022                          while(i<buf[k]){s_port(buf[k+1+i]);i++;} 
   1023                          s_port('"');
   1024                   
   1025                          s_port('"');
   1026                          k=k+i+1;
   1027                          i=0; 
   1028                          while(i<buf[k]){s_port(buf[k+1+i]);i++;}
   1029                          s_port('"');
   1030                          }else 
   1031                         {
   1032                         s_port('-');
   1033                         s_port('-');
   1034                         s_port('-');
   1035                         s_port('-');
   1036                         s_port('-');
   1037                         }
   1038                        
   1039           
   1040                         mov_lf(); 
   1041                         s_port('>');
   1042                         break;        
   1043           
   1044                   case 4:        
   1045                         
   1046                         RdFromFleshToArr(A_CR_GPRS,&buf[0],L_CR_GPRS_MAX);
   1047                         mov_lf();
   1048                        // s_port('R');
   1049                        // s_port(':');
   1050                         mov_s ( sizeof(zp_apn2),zp_apn2);
   1051                         goto povt_1;
   1052                         
   1053                   case 5:    
   1054            
   1055                         RdFromFleshToArr(A_IP,&buf[0],4);
   1056                         mov_lf(); 
   1057                         
   1058                         mov_s ( sizeof(zp_ip),zp_ip);
   1059                                        
   1060                         sprintf(massiv,"%d\0",buf[0]);
   1061                         mov_massiv(strlen(massiv),massiv); 
   1062                         s_port('.');     
   1063                         sprintf(massiv,"%d\0",buf[1]);
   1064                         mov_massiv(strlen(massiv),massiv); 
   1065                         s_port('.');
   1066                         sprintf(massiv,"%d\0",buf[2]);
   1067                         mov_massiv(strlen(massiv),massiv); 
   1068                         s_port('.');
   1069                         sprintf(massiv,"%d\0",buf[3]);
   1070                         mov_massiv(strlen(massiv),massiv); 
   1071                         
   1072                         mov_lf(); 
   1073                         s_port('>');
   1074                         break;     
   1075               
   1076                case 6:    
   1077            
   1078                         RdFromFleshToArr(A_PORT,&buf[0],2);
   1079                         mov_lf();        
   1080                         mov_s ( sizeof(zp_udp),zp_udp);
   1081                         sprintf(massiv,"%u\0",*(unsigned int*)&buf[0]);         
   1082                         mov_massiv(strlen(massiv),massiv);      
   1083                         mov_lf(); 
   1084                         s_port('>');
   1085                         break; 
   1086                
   1087               case 7:      
   1088                         RdFromFleshToArr(A_NUM,&buf[0],2);
   1089                         mov_lf();        
   1090                         mov_s ( sizeof(zp_num),zp_num);
   1091                         sprintf(massiv,"%u\0",*(unsigned int*)&buf[0]);
   1092                         mov_massiv(strlen(massiv),massiv);      
   1093                         mov_lf(); 
   1094                         s_port('>');
   1095                         break;               
   1096          
   1097            
   1098                  
   1099               case 8:        
   1100                         RdFromFleshToArr(A_NAT,&buf[0],2);
   1101                         mov_lf();        
   1102                         mov_s ( sizeof(zp_nat),zp_nat);
   1103                         sprintf(massiv,"%u\0",*(unsigned int*)&buf[0]);
   1104                         mov_massiv(strlen(massiv),massiv);      
   1105                         mov_lf(); 
   1106                         s_port('>');
   1107                         break;        
   1108                case 9:        
   1109                         RdFromFleshToArr(A_NAT_R,&buf[0],2);
   1110                         mov_lf();        
   1111                         mov_s ( sizeof(zp_nat_r),zp_nat_r);
   1112                         sprintf(massiv,"%u\0",*(unsigned int*)&buf[0]);
   1113                         mov_massiv(strlen(massiv),massiv);      
   1114                         mov_lf(); 
   1115                         s_port('>');
   1116                         break;    
   1117                         
   1118                         
   1119                   case 10:      
   1120                         RdFromFleshToArr(A_CCH,&buf[0],2);
   1121                         mov_lf();        
   1122                         mov_s ( sizeof(zp_link),zp_link);
   1123                         sprintf(massiv,"%u\0",*(unsigned int*)&buf[0]);
   1124                         mov_massiv(strlen(massiv),massiv);      
   1125                         mov_lf(); 
   1126                         s_port('>');
   1127                         break; 
   1128                 case 11:      
   1129                         RdFromFleshToArr(A_TM_CH,&buf[0],2);
   1130                         mov_lf();        
   1131                         mov_s ( sizeof(zp_tm_link),zp_tm_link);
   1132                         sprintf(massiv,"%u\0",*(unsigned int*)&buf[0]);
   1133                         mov_massiv(strlen(massiv),massiv);      
   1134                         mov_lf(); 
   1135                         s_port('>');
   1136                         break; 
   1137                 
   1138                       //!!!!!!!!!!!!!!! dobavka!!!!!!!!!!        
   1139                 case 12:      
   1140                         RdFromFleshToArr(A_TM_NO_LINK,&buf[0],2);
   1141                         mov_lf();        
   1142                         mov_s ( sizeof(zp_tm_no_link),zp_tm_no_link);
   1143                         sprintf(massiv,"%u\0",*(unsigned int*)&buf[0]);
   1144                         mov_massiv(strlen(massiv),massiv);      
   1145                         mov_lf(); 
   1146                         s_port('>');
   1147                         break; 
   1148                         
   1149                         
   1150                   case 13:      
   1151                         RdFromFleshToArr(A_TM_LINK_RES,&buf[0],2);
   1152                         mov_lf();        
   1153                         mov_s ( sizeof(zp_tm_link_res),zp_tm_link_res);
   1154                         sprintf(massiv,"%u\0",*(unsigned int*)&buf[0]);
   1155                         mov_massiv(strlen(massiv),massiv);      
   1156                         mov_lf(); 
   1157                         s_port('>');
   1158                         break;        
   1159                  //EEEEEEEEEEEEEEEEE dobavka                
   1160                         
   1161                         
   1162                         
   1163                 case 14: 
   1164                            RdFromFleshToArr(A_DES_SEQ,&buf[0],1);
   1165                            mov_lf(); 
   1166                            mov_s ( sizeof(zp_des_seq),zp_des_seq);   
   1167                            if(buf[0]==1)
   1168                              {
   1169                              s_port('o');
   1170                              s_port('n');
   1171                              } 
   1172                              else
   1173                               { 
   1174                                  s_port('o');
   1175                                  s_port('f');
   1176                                  s_port('f');
   1177                               }
   1178                            mov_lf(); 
   1179                            s_port('>');                 
   1180                            break;
   1181           
   1182                 case 15:     
   1183             
   1184                         RdFromFleshToArr(A_NUM_CL,&buf[0],2);
   1185                         mov_lf();        
   1186                         mov_s ( sizeof(zp_num_seq),zp_num_seq);
   1187                         sprintf(massiv,"%u\0",*(unsigned int*)&buf[0]);
   1188                         mov_massiv(strlen(massiv),massiv);      
   1189                         mov_lf(); 
   1190                         s_port('>');
   1191                         break; 
   1192                
   1193                
   1194                case 16:     
   1195            
   1196                         RdFromFleshToArr(A_TM_VZ,&buf[0],2);
   1197                         mov_lf();        
   1198                         mov_s ( sizeof(zp_tm_vz),zp_tm_vz);
   1199                         sprintf(massiv,"%u\0",*(unsigned int*)&buf[0]);
   1200                         mov_massiv(strlen(massiv),massiv);      
   1201                         mov_lf(); 
   1202                         s_port('>');
   1203                         break; 
   1204           
   1205               case 17:     
   1206            
   1207                         RdFromFleshToArr(A_TM_CL,&buf[0],2);
   1208                         mov_lf();        
   1209                         mov_s ( sizeof(zp_tm_cl),zp_tm_cl);
   1210                         sprintf(massiv,"%u\0",*(unsigned int*)&buf[0]);
   1211                         mov_massiv(strlen(massiv),massiv);      
   1212                         mov_lf(); 
   1213                         s_port('>');
   1214                         break; 
   1215                         
   1216               case 18:  RdFromFleshToArr(A_TP_TS,&buf[0],1);
   1217                         mov_lf();        
   1218                         mov_s ( sizeof(zp_type_tc1),zp_type_tc1);
   1219                         sprintf(massiv,"%u\0",*(unsigned char*)&buf[0]);
   1220                         mov_massiv(strlen(massiv),massiv);      
   1221                         mov_lf(); 
   1222                         s_port('>');
   1223                         break;
   1224                 
   1225              case 19:  RdFromFleshToArr(A_TP_TS+1,&buf[0],1);
   1226                         mov_lf();        
   1227                         mov_s ( sizeof(zp_type_tc2),zp_type_tc2);
   1228                         sprintf(massiv,"%u\0",*(unsigned char*)&buf[0]);
   1229                         mov_massiv(strlen(massiv),massiv);      
   1230                         mov_lf(); 
   1231                         s_port('>'); 
   1232                         break;
   1233                                  
   1234           
   1235              case 20: 
   1236                     
   1237                            buf[0]=e_debug;
   1238                            buf[1]=0;
   1239                            mov_lf(); 
   1240                            mov_s ( sizeof(zp_dbg),zp_dbg);
   1241                            sprintf(massiv,"%u\0",*(unsigned int*)&buf[0]);
   1242                            mov_massiv(strlen(massiv),massiv); 
   1243                            mov_lf(); 
   1244                            s_port('>');                 
   1245                            break;
   1246                  
   1247              
   1248                
   1249                case 21:      
   1250                         RdFromFleshToArr(A_C1_GPRS,&buf[0],L_C1_GPRS_MAX);
   1251                         mov_lf();
   1252                         //s_port('1');
   1253                        // s_port(':');
   1254                         mov_s ( sizeof(zp_db1),zp_db1);
   1255                         goto povt_1;
   1256                                   
   1257                  
   1258                case 22:  
   1259                         RdFromFleshToArr(A_C2_GPRS,&buf[0],L_C2_GPRS_MAX);
   1260                         mov_lf(); 
   1261                       
   1262                         //s_port('2');
   1263                        // s_port(':');
   1264                          mov_s ( sizeof(zp_db2),zp_db2);
   1265                         goto povt_1;  
   1266           
   1267                case 23:      
   1268                        RdFromFleshToArr(A_C3_GPRS,&buf[0],L_C3_GPRS_MAX);
   1269                        mov_lf();
   1270                        //s_port('3');
   1271                       // s_port(':');
   1272                         mov_s ( sizeof(zp_db3),zp_db3);
   1273                        goto povt_1; 
   1274              
   1275               case 24:
   1276                          mov_lf();
   1277                          mov_s ( sizeof(zp_ts1),zp_ts1);
   1278                          if(struct_tcc1.tek_pin==1)s_port('0');else s_port('1');
   1279                          if(struct_tcc2.tek_pin==1)s_port('0');else s_port('1'); 
   1280                          
   1281                      //    #ifdef version_loop_485
   1282                      //    mov_lf(); 
   1283                      //    test_loop();
   1284                      //    test_loop2();                31 01 23
   1285                      //    #endif
   1286                          
   1287                          mov_lf(); 
   1288                          s_port('>');  
   1289                          break;
   1290               case 25:
   1291                         
   1292                          
   1293                          mov_lf();
   \                     ??CrossCallReturnLabel_149:
   \   00000022   ....               RCALL   ?Subroutine174
   1294                          mov_s ( sizeof(zp_temp),zp_temp);     
   \                     ??CrossCallReturnLabel_545:
   \   00000024   ....               LDI     R18, LOW((versia + 486))
   \   00000026   ....               LDI     R19, HIGH((versia + 486))
   \   00000028   E100               LDI     R16, 16
   \   0000002A   ....               RCALL   ?Subroutine166
   1295                          sprintf(massiv,"%hhi\0",temp_to_grad(temperatura));
   \                     ??CrossCallReturnLabel_374:
   \   0000002C   ....               RCALL   ?Subroutine122
   \                     ??CrossCallReturnLabel_308:
   \   0000002E   ........           CALL    temp_to_grad
   \   00000032   E010               LDI     R17, 0
   \   00000034   931A               ST      -Y, R17
   \   00000036   930A               ST      -Y, R16
   \   00000038   ....               LDI     R18, LOW(`?<Constant "%hhi\\000">`)
   \   0000003A   ....               LDI     R19, (`?<Constant "%hhi\\000">`) >> 8
   \   0000003C   ........           CALL    ??Subroutine49_0
   1296                          mov_massiv(strlen(massiv),massiv); 
   1297                          s_port(' ');
   1298                          s_port('A');
   \                     ??CrossCallReturnLabel_467:
   \   00000040   E401               LDI     R16, 65
   \   00000042   ....               RCALL   ?Subroutine173
   1299                          s_port('D');
   \                     ??CrossCallReturnLabel_506:
   \   00000044   E404               LDI     R16, 68
   \   00000046   ....               RCALL   ?Subroutine173
   1300                          s_port('C');
   \                     ??CrossCallReturnLabel_505:
   \   00000048   E403               LDI     R16, 67
   \   0000004A   ....               RCALL   ?Subroutine173
   1301                          s_port(':');
   \                     ??CrossCallReturnLabel_504:
   \   0000004C   ....               RCALL   ?Subroutine114
   1302                          sprintf(massiv,"%u\0",temperatura);
   \                     ??CrossCallReturnLabel_509:
   \   0000004E   ....               RCALL   ?Subroutine122
   \                     ??CrossCallReturnLabel_309:
   \   00000050   ........           CALL    ?Subroutine127
   \                     ??CrossCallReturnLabel_162:
   \   00000054   ........           CALL    ?Subroutine71
   1303                          mov_massiv(strlen(massiv),massiv); 
   \                     ??CrossCallReturnLabel_80:
   \   00000058   ........           CALL    ?Subroutine70
   \                     ??CrossCallReturnLabel_79:
   \   0000005C   C052               RJMP    ??CrossCallReturnLabel_501
   \                     ??read_menu_0:
   \   0000005E   7F07               ANDI    R16, 0xF7
   \   00000060   ........           CALL    ?Subroutine117
   \                     ??CrossCallReturnLabel_150:
   \   00000064   ....               LDI     R24, LOW(real_time)
   \   00000066   ....               LDI     R25, (real_time) >> 8
   \   00000068   ....               LDI     R26, LOW(modbus_mem1)
   \   0000006A   ....               LDI     R27, (modbus_mem1) >> 8
   \   0000006C   2D04               MOV     R16, R4
   \   0000006E   ....               LDI     R30, LOW(`?<Jumptable for read_menu>_0`)
   \   00000070   ....               LDI     R31, (`?<Jumptable for read_menu>_0`) >> 16
   \   00000072   BFFB               OUT     0x3B, R31
   \   00000074   ....               LDI     R31, HIGH(`?<Jumptable for read_menu>_0`)
   \   00000076   ........           JMP     ?CV_SWITCH_L06
   \                     ??read_menu_1:
   \   0000007A   ....               RCALL   ?Subroutine174
   \                     ??CrossCallReturnLabel_544:
   \   0000007C   E301               LDI     R16, 49
   \   0000007E   ....               RCALL   ?Subroutine104
   \                     ??CrossCallReturnLabel_517:
   \   00000080   ....               LDI     R18, LOW(versia)
   \   00000082   ....               LDI     R19, (versia) >> 8
   \   00000084   E106               LDI     R16, 22
   \                     ??read_menu_2:
   \   00000086   ....               RCALL   ?Subroutine166
   \                     ??CrossCallReturnLabel_373:
   \   00000088   C03C               RJMP    ??CrossCallReturnLabel_501
   \                     ??read_menu_3:
   \   0000008A   ....               RCALL   ?Subroutine174
   \                     ??CrossCallReturnLabel_543:
   \   0000008C   E302               LDI     R16, 50
   \   0000008E   ....               RCALL   ?Subroutine104
   \                     ??CrossCallReturnLabel_516:
   \   00000090   ....               LDI     R18, LOW((versia + 142))
   \   00000092   ....               LDI     R19, HIGH((versia + 142))
   \                     ??read_menu_4:
   \   00000094   E00E               LDI     R16, 14
   \   00000096   CFF7               RJMP    ??read_menu_2
   \                     ??read_menu_5:
   \   00000098   ....               RCALL   ?Subroutine174
   \                     ??CrossCallReturnLabel_542:
   \   0000009A   E303               LDI     R16, 51
   \   0000009C   ....               RCALL   ?Subroutine104
   \                     ??CrossCallReturnLabel_515:
   \   0000009E   ....               LDI     R18, LOW((versia + 30))
   \   000000A0   ....               LDI     R19, HIGH((versia + 30))
   \   000000A2   CFF8               RJMP    ??read_menu_4
   \                     ??read_menu_6:
   \   000000A4   E34C               LDI     R20, 60
   \   000000A6   ....               RCALL   ??Subroutine77_0
   \                     ??CrossCallReturnLabel_231:
   \   000000A8   E104               LDI     R16, 20
   \   000000AA   ....               RCALL   ?Subroutine6
   \                     ??CrossCallReturnLabel_563:
   \   000000AC   ....               LDI     R18, LOW((versia + 44))
   \   000000AE   ....               LDI     R19, HIGH((versia + 44))
   \                     ??read_menu_7:
   \   000000B0   E00C               LDI     R16, 12
   \                     ??read_menu_8:
   \   000000B2   ....               RCALL   ?Subroutine120
   \                     ??CrossCallReturnLabel_158:
   \   000000B4   2300               TST     R16
   \   000000B6   F109               BREQ    ??read_menu_9
   \   000000B8   310F               CPI     R16, 31
   \   000000BA   F4F8               BRCC    ??read_menu_9
   \   000000BC   E202               LDI     R16, 34
   \   000000BE   ....               RCALL   ?Subroutine173
   \                     ??CrossCallReturnLabel_503:
   \   000000C0   E080               LDI     R24, 0
   \   000000C2   C008               RJMP    ??read_menu_10
   \                     ??read_menu_11:
   \   000000C4   01FE               MOVW    R31:R30, R29:R28
   \   000000C6   963D               ADIW    R31:R30, 13
   \   000000C8   E090               LDI     R25, 0
   \   000000CA   0FE8               ADD     R30, R24
   \   000000CC   1FF9               ADC     R31, R25
   \   000000CE   8101               LDD     R16, Z+1
   \   000000D0   ....               RCALL   ?Subroutine173
   \                     ??CrossCallReturnLabel_502:
   \   000000D2   9583               INC     R24
   \                     ??read_menu_10:
   \   000000D4   850D               LDD     R16, Y+13
   \   000000D6   1780               CP      R24, R16
   \   000000D8   F3A8               BRCS    ??read_menu_11
   \   000000DA   ....               RCALL   ?Subroutine112
   \                     ??CrossCallReturnLabel_298:
   \   000000DC   2FA8               MOV     R26, R24
   \   000000DE   E080               LDI     R24, 0
   \   000000E0   C001               RJMP    ??CrossCallReturnLabel_296
   \                     ??read_menu_12:
   \   000000E2   ....               RCALL   ?Subroutine19
   \                     ??CrossCallReturnLabel_296:
   \   000000E4   ....               RCALL   ?Subroutine57
   \                     ??CrossCallReturnLabel_70:
   \   000000E6   F3E8               BRCS    ??read_menu_12
   \   000000E8   ....               RCALL   ?Subroutine112
   \                     ??CrossCallReturnLabel_299:
   \   000000EA   0FA8               ADD     R26, R24
   \   000000EC   E080               LDI     R24, 0
   \   000000EE   C001               RJMP    ??CrossCallReturnLabel_297
   \                     ??read_menu_13:
   \   000000F0   ....               RCALL   ?Subroutine19
   \                     ??CrossCallReturnLabel_297:
   \   000000F2   ....               RCALL   ?Subroutine57
   \                     ??CrossCallReturnLabel_71:
   \   000000F4   F3E8               BRCS    ??read_menu_13
   \   000000F6   E202               LDI     R16, 34
   \   000000F8   C003               RJMP    ??read_menu_14
   \                     ??read_menu_9:
   \   000000FA   ....               RCALL   ?Subroutine100
   \                     ??CrossCallReturnLabel_511:
   \   000000FC   ....               RCALL   ?Subroutine100
   \                     ??CrossCallReturnLabel_510:
   \   000000FE   E20D               LDI     R16, 45
   \                     ??read_menu_14:
   \   00000100   ....               RCALL   ?Subroutine173
   \                     ??CrossCallReturnLabel_501:
   \   00000102   ........           CALL    ?Subroutine103
   \                     ??CrossCallReturnLabel_478:
   \   00000106   C198               RJMP    ??read_menu_15
   \                     ??read_menu_16:
   \   00000108   E34C               LDI     R20, 60
   \   0000010A   ....               RCALL   ??Subroutine77_0
   \                     ??CrossCallReturnLabel_232:
   \   0000010C   E500               LDI     R16, 80
   \   0000010E   ....               RCALL   ?Subroutine6
   \                     ??CrossCallReturnLabel_562:
   \   00000110   ....               LDI     R18, LOW((versia + 56))
   \   00000112   ....               LDI     R19, HIGH((versia + 56))
   \   00000114   CFCD               RJMP    ??read_menu_7
   \                     ??read_menu_17:
   \   00000116   E044               LDI     R20, 4
   \   00000118   ....               RCALL   ??Subroutine77_0
   \                     ??CrossCallReturnLabel_233:
   \   0000011A   E80C               LDI     R16, 140
   \   0000011C   ....               RCALL   ?Subroutine6
   \                     ??CrossCallReturnLabel_561:
   \   0000011E   ....               LDI     R18, LOW((versia + 68))
   \   00000120   ....               LDI     R19, HIGH((versia + 68))
   \   00000122   E101               LDI     R16, 17
   \   00000124   ....               RCALL   ?Subroutine120
   \                     ??CrossCallReturnLabel_159:
   \   00000126   ....               RCALL   ?Subroutine11
   \                     ??CrossCallReturnLabel_514:
   \   00000128   850E               LDD     R16, Y+14
   \   0000012A   ....               RCALL   ?Subroutine11
   \                     ??CrossCallReturnLabel_513:
   \   0000012C   850F               LDD     R16, Y+15
   \   0000012E   ....               RCALL   ?Subroutine11
   \                     ??CrossCallReturnLabel_512:
   \   00000130   8908               LDD     R16, Y+16
   \                     ??read_menu_18:
   \   00000132   E010               LDI     R17, 0
   \   00000134   931A               ST      -Y, R17
   \   00000136   930A               ST      -Y, R16
   \   00000138   ....               LDI     R18, LOW((`?<Constant "%hhi\\000">` + 11))
   \   0000013A   ....               LDI     R19, HIGH((`?<Constant "%hhi\\000">` + 11))
   \   0000013C   CF8B               RJMP    ??CrossCallReturnLabel_162
   \                     ??read_menu_19:
   \   0000013E   ....               RCALL   ?Subroutine77
   \                     ??CrossCallReturnLabel_234:
   \   00000140   E900               LDI     R16, 144
   \   00000142   ....               RCALL   ?Subroutine6
   \                     ??CrossCallReturnLabel_560:
   \   00000144   ....               LDI     R18, LOW((versia + 156))
   \   00000146   ....               LDI     R19, HIGH((versia + 156))
   \                     ??read_menu_20:
   \   00000148   E00F               LDI     R16, 15
   \                     ??read_menu_21:
   \   0000014A   ....               RCALL   ?Subroutine120
   \                     ??CrossCallReturnLabel_160:
   \   0000014C   851E               LDD     R17, Y+14
   \   0000014E   CF80               RJMP    ??CrossCallReturnLabel_309
   \                     ??read_menu_22:
   \   00000150   ....               RCALL   ?Subroutine77
   \                     ??CrossCallReturnLabel_235:
   \   00000152   E902               LDI     R16, 146
   \   00000154   ....               RCALL   ?Subroutine6
   \                     ??CrossCallReturnLabel_559:
   \   00000156   ....               LDI     R18, LOW((versia + 171))
   \   00000158   ....               LDI     R19, HIGH((versia + 171))
   \   0000015A   CFF6               RJMP    ??read_menu_20
   \                     ??read_menu_23:
   \   0000015C   ....               RCALL   ?Subroutine77
   \                     ??CrossCallReturnLabel_236:
   \   0000015E   E906               LDI     R16, 150
   \   00000160   ....               RCALL   ?Subroutine6
   \                     ??CrossCallReturnLabel_558:
   \   00000162   ....               LDI     R18, LOW((versia + 214))
   \   00000164   ....               LDI     R19, HIGH((versia + 214))
   \   00000166   E107               LDI     R16, 23
   \   00000168   CFF0               RJMP    ??read_menu_21
   \                     ??read_menu_24:
   \   0000016A   ....               RCALL   ?Subroutine77
   \                     ??CrossCallReturnLabel_237:
   \   0000016C   EA00               LDI     R16, 160
   \   0000016E   ....               RCALL   ?Subroutine6
   \                     ??CrossCallReturnLabel_557:
   \   00000170   ....               LDI     R18, LOW((versia + 237))
   \   00000172   ....               LDI     R19, HIGH((versia + 237))
   \   00000174   E108               LDI     R16, 24
   \   00000176   CFE9               RJMP    ??read_menu_21
   \                     ??read_menu_25:
   \   00000178   ....               RCALL   ?Subroutine77
   \                     ??CrossCallReturnLabel_238:
   \   0000017A   E908               LDI     R16, 152
   \   0000017C   ....               RCALL   ?Subroutine6
   \                     ??CrossCallReturnLabel_556:
   \   0000017E   ....               LDI     R18, LOW((versia + 261))
   \   00000180   ....               LDI     R19, HIGH((versia + 261))
   \   00000182   E10B               LDI     R16, 27
   \   00000184   CFE2               RJMP    ??read_menu_21
   \                     ??read_menu_26:
   \   00000186   ....               RCALL   ?Subroutine77
   \                     ??CrossCallReturnLabel_239:
   \   00000188   E90A               LDI     R16, 154
   \   0000018A   ....               RCALL   ?Subroutine6
   \                     ??CrossCallReturnLabel_555:
   \   0000018C   ....               LDI     R18, LOW((versia + 288))
   \   0000018E   ....               LDI     R19, HIGH((versia + 288))
   \   00000190   E104               LDI     R16, 20
   \   00000192   CFDB               RJMP    ??read_menu_21
   \                     ??read_menu_27:
   \   00000194   ....               RCALL   ?Subroutine77
   \                     ??CrossCallReturnLabel_240:
   \   00000196   E90C               LDI     R16, 156
   \   00000198   ....               RCALL   ?Subroutine6
   \                     ??CrossCallReturnLabel_554:
   \   0000019A   ....               LDI     R18, LOW((versia + 308))
   \   0000019C   ....               LDI     R19, HIGH((versia + 308))
   \   0000019E   E105               LDI     R16, 21
   \   000001A0   CFD4               RJMP    ??read_menu_21
   \                     ??read_menu_28:
   \   000001A2   ....               RCALL   ?Subroutine77
   \                     ??CrossCallReturnLabel_241:
   \   000001A4   E90E               LDI     R16, 158
   \   000001A6   ....               RCALL   ?Subroutine6
   \                     ??CrossCallReturnLabel_553:
   \   000001A8   ....               LDI     R18, LOW((versia + 329))
   \   000001AA   ....               LDI     R19, HIGH((versia + 329))
   \                     ??read_menu_29:
   \   000001AC   E10A               LDI     R16, 26
   \   000001AE   CFCD               RJMP    ??read_menu_21
   \                     ??read_menu_30:
   \   000001B0   E041               LDI     R20, 1
   \   000001B2   ....               RCALL   ??Subroutine77_0
   \                     ??CrossCallReturnLabel_242:
   \   000001B4   EA04               LDI     R16, 164
   \   000001B6   ....               RCALL   ?Subroutine6
   \                     ??CrossCallReturnLabel_552:
   \   000001B8   ....               LDI     R18, LOW((versia + 417))
   \   000001BA   ....               LDI     R19, HIGH((versia + 417))
   \   000001BC   E101               LDI     R16, 17
   \   000001BE   ....               RCALL   ?Subroutine119
   \                     ??CrossCallReturnLabel_156:
   \   000001C0   E60F               LDI     R16, 111
   \   000001C2   F419               BRNE    ??read_menu_31
   \   000001C4   ....               RCALL   ?Subroutine173
   \                     ??CrossCallReturnLabel_500:
   \   000001C6   E60E               LDI     R16, 110
   \   000001C8   CF9B               RJMP    ??read_menu_14
   \                     ??read_menu_31:
   \   000001CA   ....               RCALL   ?Subroutine173
   \                     ??CrossCallReturnLabel_499:
   \   000001CC   E606               LDI     R16, 102
   \                     ??read_menu_32:
   \   000001CE   ....               RCALL   ?Subroutine173
   \                     ??CrossCallReturnLabel_498:
   \   000001D0   E606               LDI     R16, 102
   \   000001D2   CF96               RJMP    ??read_menu_14
   \                     ??read_menu_33:
   \   000001D4   ....               RCALL   ?Subroutine77
   \                     ??CrossCallReturnLabel_243:
   \   000001D6   EA05               LDI     R16, 165
   \   000001D8   ....               RCALL   ?Subroutine6
   \                     ??CrossCallReturnLabel_551:
   \   000001DA   ....               LDI     R18, LOW((versia + 399))
   \   000001DC   ....               LDI     R19, HIGH((versia + 399))
   \                     ??read_menu_34:
   \   000001DE   E102               LDI     R16, 18
   \   000001E0   CFB4               RJMP    ??read_menu_21
   \                     ??read_menu_35:
   \   000001E2   ....               RCALL   ?Subroutine77
   \                     ??CrossCallReturnLabel_244:
   \   000001E4   EA07               LDI     R16, 167
   \   000001E6   ....               RCALL   ?Subroutine6
   \                     ??CrossCallReturnLabel_550:
   \   000001E8   ....               LDI     R18, LOW((versia + 355))
   \   000001EA   ....               LDI     R19, HIGH((versia + 355))
   \   000001EC   CFF8               RJMP    ??read_menu_34
   \                     ??read_menu_36:
   \   000001EE   ....               RCALL   ?Subroutine77
   \                     ??CrossCallReturnLabel_245:
   \   000001F0   EA09               LDI     R16, 169
   \   000001F2   ....               RCALL   ?Subroutine6
   \                     ??CrossCallReturnLabel_549:
   \   000001F4   ....               LDI     R18, LOW((versia + 373))
   \   000001F6   ....               LDI     R19, HIGH((versia + 373))
   \   000001F8   CFD9               RJMP    ??read_menu_29
   \                     ??read_menu_37:
   \   000001FA   E041               LDI     R20, 1
   \   000001FC   ....               RCALL   ??Subroutine77_0
   \                     ??CrossCallReturnLabel_246:
   \   000001FE   EA0B               LDI     R16, 171
   \   00000200   ....               RCALL   ?Subroutine6
   \                     ??CrossCallReturnLabel_548:
   \   00000202   ....               LDI     R18, LOW((versia + 434))
   \   00000204   ....               LDI     R19, HIGH((versia + 434))
   \                     ??read_menu_38:
   \   00000206   E00D               LDI     R16, 13
   \   00000208   ....               RCALL   ?Subroutine120
   \                     ??CrossCallReturnLabel_161:
   \   0000020A   E010               LDI     R17, 0
   \   0000020C   CF21               RJMP    ??CrossCallReturnLabel_309
   \                     ??read_menu_39:
   \   0000020E   E041               LDI     R20, 1
   \   00000210   ....               RCALL   ??Subroutine77_0
   \                     ??CrossCallReturnLabel_247:
   \   00000212   EA0C               LDI     R16, 172
   \   00000214   ....               RCALL   ?Subroutine6
   \                     ??CrossCallReturnLabel_547:
   \   00000216   ....               LDI     R18, LOW((versia + 447))
   \   00000218   ....               LDI     R19, HIGH((versia + 447))
   \   0000021A   CFF5               RJMP    ??read_menu_38
   \                     ??read_menu_40:
   \   0000021C   E030               LDI     R19, 0
   \   0000021E   ....               RCALL   ?Subroutine79
   \                     ??CrossCallReturnLabel_94:
   \   00000220   870D               STD     Y+13, R16
   \   00000222   873E               STD     Y+14, R19
   \   00000224   ....               RCALL   ?Subroutine174
   \                     ??CrossCallReturnLabel_541:
   \   00000226   ....               LDI     R18, LOW((versia + 460))
   \   00000228   ....               LDI     R19, HIGH((versia + 460))
   \   0000022A   E100               LDI     R16, 16
   \   0000022C   CF8E               RJMP    ??read_menu_21
   \                     ??read_menu_41:
   \   0000022E   E34C               LDI     R20, 60
   \   00000230   ....               RCALL   ??Subroutine77_0
   \                     ??CrossCallReturnLabel_248:
   \   00000232   EF0A               LDI     R16, 250
   \   00000234   ....               RCALL   ?Subroutine6
   \                     ??CrossCallReturnLabel_546:
   \   00000236   ....               LDI     R18, LOW((versia + 85))
   \   00000238   ....               LDI     R19, HIGH((versia + 85))
   \                     ??read_menu_42:
   \   0000023A   E00D               LDI     R16, 13
   \   0000023C   CF3A               RJMP    ??read_menu_8
   \                     ??read_menu_43:
   \   0000023E   E34C               LDI     R20, 60
   \   00000240   ....               RCALL   ??Subroutine77_0
   \                     ??CrossCallReturnLabel_249:
   \   00000242   ....               RCALL   ?Subroutine99
   \                     ??CrossCallReturnLabel_397:
   \   00000244   ....               RCALL   ?Subroutine174
   \                     ??CrossCallReturnLabel_540:
   \   00000246   ....               LDI     R18, LOW((versia + 98))
   \   00000248   ....               LDI     R19, HIGH((versia + 98))
   \   0000024A   CFF7               RJMP    ??read_menu_42
   \                     ??read_menu_44:
   \   0000024C   ....               RCALL   ?Subroutine84
   \                     ??CrossCallReturnLabel_113:
   \   0000024E   5F23               SUBI    R18, 243
   \   00000250   ....               RCALL   ?Subroutine52
   \                     ??CrossCallReturnLabel_391:
   \   00000252   ....               RCALL   ?Subroutine174
   \                     ??CrossCallReturnLabel_539:
   \   00000254   ....               LDI     R18, LOW((versia + 111))
   \   00000256   ....               LDI     R19, HIGH((versia + 111))
   \   00000258   CFF0               RJMP    ??read_menu_42
   \                     ??read_menu_45:
   \   0000025A   ....               RCALL   ?Subroutine174
   \                     ??CrossCallReturnLabel_538:
   \   0000025C   ....               LDI     R18, LOW((versia + 476))
   \   0000025E   ....               LDI     R19, HIGH((versia + 476))
   \   00000260   ....               RCALL   ?Subroutine105
   \                     ??CrossCallReturnLabel_379:
   \   00000262   9100....           LDS     R16, struct_tcc1
   \   00000266   FF00               SBRS    R16, 0
   \   00000268   C002               RJMP    ??read_menu_46
   \   0000026A   E300               LDI     R16, 48
   \   0000026C   C001               RJMP    ??read_menu_47
   \                     ??read_menu_46:
   \   0000026E   E301               LDI     R16, 49
   \                     ??read_menu_47:
   \   00000270   ....               RCALL   ?Subroutine173
   \                     ??CrossCallReturnLabel_497:
   \   00000272   9100....           LDS     R16, struct_tcc2
   \   00000276   FF00               SBRS    R16, 0
   \   00000278   C0B2               RJMP    ??read_menu_48
   \                     ??read_menu_49:
   \   0000027A   E300               LDI     R16, 48
   \   0000027C   CF41               RJMP    ??read_menu_14
   1304                          mov_lf(); 
   1305                          s_port('>');
   1306                          break;
   1307                          
   1308              case 26:     
   1309            
   1310                         mov_lf();        
   \                     ??read_menu_50:
   \   0000027E   ....               RCALL   ?Subroutine174
   1311                         mov_s ( sizeof(zp_vosst),zp_vosst);     
   \                     ??CrossCallReturnLabel_537:
   \   00000280   ....               LDI     R18, LOW((versia + 502))
   \   00000282   ....               LDI     R19, HIGH((versia + 502))
   \   00000284   E100               LDI     R16, 16
   \   00000286   CEFF               RJMP    ??read_menu_2
   1312                         mov_lf(); 
   1313                         s_port('>');
   1314                         break; 
   1315             case 27:
   1316                     burst_ds_r();
   \                     ??read_menu_51:
   \   00000288   ....               RCALL   ?Subroutine106
   1317                     mov_lf();                                   
   1318                     mov_s ( sizeof(zp_time),zp_time);                              
   \                     ??CrossCallReturnLabel_565:
   \   0000028A   ....               LDI     R18, LOW((versia + 518))
   \   0000028C   ....               LDI     R19, HIGH((versia + 518))
   \   0000028E   ....               RCALL   ?Subroutine121
   1319                     i=(unsigned char)real_time.r_hor;
   1320                     sprintf(massiv,"%d\0",i);
   \                     ??CrossCallReturnLabel_377:
   \   00000290   01FC               MOVW    R31:R30, R25:R24
   \   00000292   8102               LDD     R16, Z+2
   \   00000294   ....               RCALL   ?Subroutine12
   1321                     mov_massiv(strlen(massiv),massiv);
   1322                     s_port(':');
   1323                     i=(unsigned char)real_time.r_min;
   1324                     sprintf(massiv,"%d\0",i);
   \                     ??CrossCallReturnLabel_302:
   \   00000296   8101               LDD     R16, Z+1
   \   00000298   ....               RCALL   ?Subroutine12
   1325                     mov_massiv(strlen(massiv),massiv);
   1326                     s_port(':');
   1327                     i=(unsigned char)real_time.r_sec;
   1328                     sprintf(massiv,"%d\0",i);
   \                     ??CrossCallReturnLabel_303:
   \   0000029A   8100               LD      R16, Z
   \   0000029C   CF4A               RJMP    ??read_menu_18
   1329                     mov_massiv(strlen(massiv),massiv);
   1330                     mov_lf(); 
   1331                     s_port('>'); 
   1332                     break; 
   1333           
   1334             case 28:
   1335                     burst_ds_r();
   \                     ??read_menu_52:
   \   0000029E   ....               RCALL   ?Subroutine106
   1336                     mov_lf();                                   
   1337                     mov_s ( sizeof(zp_date),zp_date);                              
   \                     ??CrossCallReturnLabel_564:
   \   000002A0   ....               LDI     R18, LOW((versia + 527))
   \   000002A2   ....               LDI     R19, HIGH((versia + 527))
   \   000002A4   ....               RCALL   ?Subroutine121
   1338                     i=(unsigned char)real_time.r_date;
   1339                     sprintf(massiv,"%d\0",i);
   \                     ??CrossCallReturnLabel_376:
   \   000002A6   01FC               MOVW    R31:R30, R25:R24
   \   000002A8   8104               LDD     R16, Z+4
   \   000002AA   ....               RCALL   ?Subroutine10
   1340                     mov_massiv(strlen(massiv),massiv);
   1341                     s_port('.'); 
   1342                     i=(unsigned char)real_time.r_month;
   1343                     sprintf(massiv,"%d\0",i);
   \                     ??CrossCallReturnLabel_300:
   \   000002AC   8105               LDD     R16, Z+5
   \   000002AE   ....               RCALL   ?Subroutine10
   1344                     mov_massiv(strlen(massiv),massiv);
   1345                     s_port('.');
   1346                     i=(unsigned char)real_time.r_year;
   1347                     sprintf(massiv,"%d\0",i);
   \                     ??CrossCallReturnLabel_301:
   \   000002B0   8106               LDD     R16, Z+6
   \   000002B2   CF3F               RJMP    ??read_menu_18
   1348                     mov_massiv(strlen(massiv),massiv);
   1349                     mov_lf(); 
   1350                     s_port('>'); 
   1351                     break;            
   1352                      
   1353            case 29:      
   1354                      mov_lf(); 
   \                     ??read_menu_53:
   \   000002B4   ....               RCALL   ?Subroutine174
   1355                      mov_s ( sizeof(zp_log_file),zp_log_file);                                  
   \                     ??CrossCallReturnLabel_536:
   \   000002B6   ....               LDI     R18, LOW((versia + 536))
   \   000002B8   ....               LDI     R19, HIGH((versia + 536))
   \   000002BA   E00D               LDI     R16, 13
   \   000002BC   ....               RCALL   ?Subroutine166
   1356                      for(i=0;i<=6;i++) s_port('-');                                          
   \                     ??CrossCallReturnLabel_372:
   \   000002BE   E087               LDI     R24, 7
   \                     ??read_menu_54:
   \   000002C0   E20D               LDI     R16, 45
   \   000002C2   ....               RCALL   ?Subroutine173
   \                     ??CrossCallReturnLabel_496:
   \   000002C4   958A               DEC     R24
   \   000002C6   F409               BRNE    $+2+2
   \   000002C8   CF1C               RJMP    ??CrossCallReturnLabel_501
   \   000002CA   CFFA               RJMP    ??read_menu_54
   1357                      mov_lf(); 
   1358                      s_port('>');     
   1359                      break;          
   1360            case 30:  
   1361                      mov_lf(); 
   \                     ??read_menu_55:
   \   000002CC   ....               RCALL   ?Subroutine174
   1362                      mov_s ( sizeof(zp_keys),zp_keys);                                  
   \                     ??CrossCallReturnLabel_535:
   \   000002CE   ....               LDI     R18, LOW((versia + 549))
   \   000002D0   ....               LDI     R19, HIGH((versia + 549))
   \   000002D2   E00C               LDI     R16, 12
   \   000002D4   ....               RCALL   ?Subroutine166
   1363                   //   for(i=0;i<=6;i++) s_port('-');                                          
   1364                   //   mov_lf(); 
   1365                   //   s_port('>');  
   1366                      RdFromFleshToArr(A_KEYS,&buf[0],L_KEYS); 
   \                     ??CrossCallReturnLabel_371:
   \   000002D6   E04A               LDI     R20, 10
   \   000002D8   ....               RCALL   ??Subroutine77_0
   \                     ??CrossCallReturnLabel_250:
   \   000002DA   ....               RCALL   ?Subroutine110
   \                     ??CrossCallReturnLabel_135:
   \   000002DC   ....               RCALL   ?Subroutine168
   1367                     
   1368                      for(i=0;i<8;i++)buf[20+i]=keys_def[i];
   \                     ??CrossCallReturnLabel_392:
   \   000002DE   E080               LDI     R24, 0
   \                     ??read_menu_56:
   \   000002E0   E010               LDI     R17, 0
   \   000002E2   ....               LDI     R30, LOW((versia + 22))
   \   000002E4   ....               LDI     R31, HIGH((versia + 22))
   \   000002E6   0FE8               ADD     R30, R24
   \   000002E8   1FF1               ADC     R31, R17
   \   000002EA   9124               LPM     R18, Z
   \   000002EC   01FE               MOVW    R31:R30, R29:R28
   \   000002EE   96B1               ADIW    R31:R30, 33
   \   000002F0   0FE8               ADD     R30, R24
   \   000002F2   1FF1               ADC     R31, R17
   \   000002F4   8320               ST      Z, R18
   \   000002F6   9583               INC     R24
   \   000002F8   3088               CPI     R24, 8
   \   000002FA   F390               BRCS    ??read_menu_56
   1369                      
   1370                      if(memcmp(&buf[0],&buf[20],8)==0)
   \   000002FC   E048               LDI     R20, 8
   \   000002FE   ....               RCALL   ??Subroutine84_0
   \                     ??CrossCallReturnLabel_114:
   \   00000300   5D2F               SUBI    R18, 223
   \   00000302   4F3F               SBCI    R19, 255
   \   00000304   018E               MOVW    R17:R16, R29:R28
   \   00000306   5F03               SUBI    R16, 243
   \   00000308   4F1F               SBCI    R17, 255
   \   0000030A   ........           CALL    memcmp
   \   0000030E   2B01               OR      R16, R17
   \   00000310   F421               BRNE    ??read_menu_57
   1371                      {
   1372                        s_port('d');
   \   00000312   E604               LDI     R16, 100
   \   00000314   ....               RCALL   ?Subroutine173
   1373                        s_port('e');
   \                     ??CrossCallReturnLabel_495:
   \   00000316   E605               LDI     R16, 101
   \   00000318   CF5A               RJMP    ??read_menu_32
   1374                        s_port('f');
   1375                      }
   1376                      else
   1377                      {
   1378                        s_port('*');
   \                     ??read_menu_57:
   \   0000031A   E20A               LDI     R16, 42
   \   0000031C   ....               RCALL   ?Subroutine173
   1379                        s_port('*');
   \                     ??CrossCallReturnLabel_494:
   \   0000031E   E20A               LDI     R16, 42
   \   00000320   ....               RCALL   ?Subroutine173
   1380                        s_port('*');
   \                     ??CrossCallReturnLabel_493:
   \   00000322   E20A               LDI     R16, 42
   \   00000324   CEED               RJMP    ??read_menu_14
   1381                      }
   1382                         
   1383                     // s_port(buf[0]);
   1384                     // s_port(buf[1]);
   1385                     // s_port(buf[2]);
   1386                     // s_port(buf[3]);
   1387                     // s_port(buf[4]);
   1388                     // s_port(buf[5]);
   1389                     // s_port(buf[6]);
   1390                     // s_port(buf[7]);
   1391                     // s_port(buf[8]);
   1392                     // s_port(buf[9]);
   1393                      
   1394                      mov_lf(); 
   1395                      s_port('>');
   1396                      break;       
   1397                      
   1398             case 31:
   1399                    mov_lf();
   \                     ??read_menu_58:
   \   00000326   ....               RCALL   ?Subroutine165
   1400                    mov_s ( sizeof(zp_pinsim1),zp_pinsim1);
   \                     ??CrossCallReturnLabel_534:
   \   00000328   ....               LDI     R18, LOW((versia + 561))
   \   0000032A   ....               LDI     R19, HIGH((versia + 561))
   \   0000032C   ....               RCALL   ?Subroutine118
   1401                    RdFromFleshToArr(A_PIN_SIM1,&buf[0],4);
   \                     ??CrossCallReturnLabel_153:
   \   0000032E   ....               RCALL   ??Subroutine77_0
   \                     ??CrossCallReturnLabel_251:
   \   00000330   EA0F               LDI     R16, 175
   \                     ??read_menu_59:
   \   00000332   ....               RCALL   ??Subroutine29_0
   1402                    s_port(buf[0]);
   \                     ??CrossCallReturnLabel_382:
   \   00000334   850D               LDD     R16, Y+13
   \   00000336   ....               RCALL   ?Subroutine173
   1403                    s_port(buf[1]);
   \                     ??CrossCallReturnLabel_492:
   \   00000338   850E               LDD     R16, Y+14
   \   0000033A   ....               RCALL   ?Subroutine173
   1404                    s_port(buf[2]);
   \                     ??CrossCallReturnLabel_491:
   \   0000033C   850F               LDD     R16, Y+15
   \   0000033E   ....               RCALL   ?Subroutine173
   1405                    s_port(buf[3]);
   \                     ??CrossCallReturnLabel_490:
   \   00000340   8908               LDD     R16, Y+16
   \   00000342   CEDE               RJMP    ??read_menu_14
   1406                    mov_lf(); 
   1407                    s_port('>');
   1408                    break;
   1409           
   1410             case 32:
   1411                    mov_lf();
   \                     ??read_menu_60:
   \   00000344   ....               RCALL   ?Subroutine165
   1412                    mov_s ( sizeof(zp_pinsim2),zp_pinsim2);
   \                     ??CrossCallReturnLabel_533:
   \   00000346   ....               LDI     R18, LOW((versia + 574))
   \   00000348   ....               LDI     R19, HIGH((versia + 574))
   \   0000034A   ....               RCALL   ?Subroutine118
   1413                    RdFromFleshToArr(A_PIN_SIM2,&buf[0],4);
   \                     ??CrossCallReturnLabel_154:
   \   0000034C   ....               RCALL   ??Subroutine77_0
   \                     ??CrossCallReturnLabel_252:
   \   0000034E   EB05               LDI     R16, 181
   \   00000350   CFF0               RJMP    ??read_menu_59
   1414                    s_port(buf[0]);
   1415                    s_port(buf[1]);
   1416                    s_port(buf[2]);
   1417                    s_port(buf[3]);
   1418                    mov_lf(); 
   1419                    s_port('>');
   1420                    break;
   1421            
   1422             case 33:
   1423                  
   1424                  mov_lf();
   \                     ??read_menu_61:
   \   00000352   ....               RCALL   ?Subroutine165
   1425                  mov_s ( sizeof(zp_traffic),zp_traffic);
   \                     ??CrossCallReturnLabel_532:
   \   00000354   ....               LDI     R18, LOW((versia + 587))
   \   00000356   ....               LDI     R19, HIGH((versia + 587))
   \   00000358   E106               LDI     R16, 22
   \   0000035A   ....               RCALL   ??Subroutine118_0
   1426          
   1427                  RdFromFleshToArr(A_TRAF+4,&buf[0],4);        
   \                     ??CrossCallReturnLabel_155:
   \   0000035C   ....               RCALL   ??Subroutine77_0
   \                     ??CrossCallReturnLabel_253:
   \   0000035E   E002               LDI     R16, 2
   \   00000360   ....               RCALL   ?Subroutine72
   1428                  sprintf(massiv,"%lu\0",*(unsigned long int*)&buf[0]);
   1429                  mov_massiv(strlen(massiv),massiv);      
   \                     ??CrossCallReturnLabel_82:
   \   00000362   ........           CALL    ??Subroutine49_1
   1430          
   1431                  
   1432                  s_port(' '); 
   1433                  s_port(':'); 
   \                     ??CrossCallReturnLabel_466:
   \   00000366   ....               RCALL   ?Subroutine114
   1434                  s_port(' '); 
   \                     ??CrossCallReturnLabel_508:
   \   00000368   ........           CALL    ??Subroutine49_2
   1435                  
   1436                  memset(buf,0,70);
   \                     ??CrossCallReturnLabel_465:
   \   0000036C   E446               LDI     R20, 70
   \   0000036E   ....               RCALL   ?Subroutine86
   \                     ??CrossCallReturnLabel_318:
   \   00000370   5F03               SUBI    R16, 243
   \   00000372   4F1F               SBCI    R17, 255
   \   00000374   ........           CALL    memset
   1437                  RdFromFleshToArr(A_TRAF+8,&buf[0],4);        
   \   00000378   E044               LDI     R20, 4
   \   0000037A   ....               RCALL   ??Subroutine77_0
   \                     ??CrossCallReturnLabel_254:
   \   0000037C   E006               LDI     R16, 6
   \   0000037E   ....               RCALL   ?Subroutine72
   1438                  sprintf(massiv,"%lu\0",*(unsigned long int*)&buf[0]);
   1439                  mov_massiv(strlen(massiv),massiv);   
   \                     ??CrossCallReturnLabel_83:
   \   00000380   CE6B               RJMP    ??CrossCallReturnLabel_80
   1440                  
   1441                  mov_lf(); 
   1442                  s_port('>');      
   1443                         
   1444                  break;
   1445                  
   1446           
   1447           case 34:
   1448                          mov_lf();
   \                     ??read_menu_62:
   \   00000382   ....               RCALL   ?Subroutine165
   1449                          mov_s ( sizeof(zp_ts_dop),zp_ts_dop);           
   \                     ??CrossCallReturnLabel_531:
   \   00000384   ....               LDI     R18, LOW((versia + 609))
   \   00000386   ....               LDI     R19, HIGH((versia + 609))
   \   00000388   E007               LDI     R16, 7
   \   0000038A   ....               RCALL   ?Subroutine166
   1450                          for(i=0;i<8;i++)if ((modbus_mem1[AD_TS]>>i)&0x01)s_port('1');else s_port('0');
   \                     ??CrossCallReturnLabel_370:
   \   0000038C   E080               LDI     R24, 0
   \   0000038E   C005               RJMP    ??read_menu_63
   \                     ??read_menu_64:
   \   00000390   E300               LDI     R16, 48
   \                     ??read_menu_65:
   \   00000392   ........           CALL    ?Subroutine111
   \                     ??CrossCallReturnLabel_138:
   \   00000396   F008               BRCS    $+2+2
   \   00000398   CEB4               RJMP    ??CrossCallReturnLabel_501
   \                     ??read_menu_63:
   \   0000039A   01FD               MOVW    R31:R30, R27:R26
   \   0000039C   ........           CALL    ??Subroutine130_0
   \                     ??CrossCallReturnLabel_170:
   \   000003A0   2F48               MOV     R20, R24
   \   000003A2   ........           CALL    ?US_SHR_L02
   \   000003A6   7001               ANDI    R16, 0x01
   \   000003A8   F399               BREQ    ??read_menu_64
   \   000003AA   E301               LDI     R16, 49
   \   000003AC   CFF2               RJMP    ??read_menu_65
   1451                          mov_lf();
   1452                          s_port('>');  
   1453                          break; 
   1454            
   1455           case 35:
   1456                         
   1457                          
   1458                          mov_lf();
   \                     ??read_menu_66:
   \   000003AE   ....               RCALL   ?Subroutine165
   1459                          mov_s ( sizeof(zp_tit),zp_tit);     
   \                     ??CrossCallReturnLabel_530:
   \   000003B0   ....               LDI     R18, LOW((versia + 616))
   \   000003B2   ....               LDI     R19, HIGH((versia + 616))
   \   000003B4   E007               LDI     R16, 7
   \   000003B6   ....               RCALL   ?Subroutine166
   1460                          sprintf(massiv,"%u\0",modbus_mem1[AD_TIT1]);
   \                     ??CrossCallReturnLabel_369:
   \   000003B8   01FD               MOVW    R31:R30, R27:R26
   \   000003BA   ........           CALL    ?Subroutine49
   1461                          mov_massiv(strlen(massiv),massiv);
   1462                          s_port(' ');
   1463                          sprintf(massiv,"%u\0",modbus_mem1[AD_TIT2]);
   \                     ??CrossCallReturnLabel_469:
   \   000003BE   01FD               MOVW    R31:R30, R27:R26
   \   000003C0   A102               LDD     R16, Z+34
   \   000003C2   A113               LDD     R17, Z+35
   \   000003C4   CE45               RJMP    ??CrossCallReturnLabel_309
   1464                          mov_massiv(strlen(massiv),massiv);
   1465                          mov_lf(); 
   1466                          s_port('>');
   1467                          break;             
   1468           case 36:      
   1469                      mov_lf(); 
   \                     ??read_menu_67:
   \   000003C6   ....               RCALL   ?Subroutine165
   1470                      mov_s ( sizeof(zp_tu),zp_tu);                                  
   \                     ??CrossCallReturnLabel_529:
   \   000003C8   ....               LDI     R18, LOW((versia + 623))
   \   000003CA   ....               LDI     R19, HIGH((versia + 623))
   \   000003CC   ....               RCALL   ?Subroutine105
   1471                      if(PORTA & IO11)s_port('1');else s_port('0');
   \                     ??CrossCallReturnLabel_378:
   \   000003CE   9B14               SBIS    0x02, 0x04
   \   000003D0   C002               RJMP    ??read_menu_68
   \   000003D2   E301               LDI     R16, 49
   \   000003D4   C001               RJMP    ??read_menu_69
   \                     ??read_menu_68:
   \   000003D6   E300               LDI     R16, 48
   \                     ??read_menu_69:
   \   000003D8   ....               RCALL   ??Subroutine167_0
   1472                      if(PORTA & IO12)s_port('1');else s_port('0');
   \                     ??CrossCallReturnLabel_489:
   \   000003DA   9B13               SBIS    0x02, 0x03
   \   000003DC   CF4E               RJMP    ??read_menu_49
   \                     ??read_menu_48:
   \   000003DE   E301               LDI     R16, 49
   \   000003E0   CE8F               RJMP    ??read_menu_14
   1473                      mov_lf(); 
   1474                      s_port('>');     
   1475                      break; 
   1476           
   1477          case 37:     
   1478             
   1479                         mov_lf();        
   \                     ??read_menu_70:
   \   000003E2   ....               RCALL   ?Subroutine165
   1480                         mov_s ( sizeof(zp_tii1),zp_tii1);
   \                     ??CrossCallReturnLabel_528:
   \   000003E4   ....               LDI     R18, LOW((versia + 633))
   \   000003E6   ....               LDI     R19, HIGH((versia + 633))
   \   000003E8   ....               RCALL   ?Subroutine121
   1481                         sprintf(massiv,"%u\0",modbus_mem1[AD_TII1]);
   \                     ??CrossCallReturnLabel_375:
   \   000003EA   910D               LD      R16, X+
   \   000003EC   911C               LD      R17, X
   \   000003EE   CE30               RJMP    ??CrossCallReturnLabel_309
   1482                         mov_massiv(strlen(massiv),massiv);      
   1483                         mov_lf(); 
   1484                         s_port('>');
   1485                         break;         
   1486          
   1487          case 38: 
   1488                          //  RdFromFleshToArr(A_SEL_MODUL,&buf[0],1);
   1489                            buf[0]=sel_modul;
   \                     ??read_menu_71:
   \   000003F0   9100....           LDS     R16, sel_modul
   \   000003F4   870D               STD     Y+13, R16
   1490                            mov_lf(); 
   \   000003F6   ....               RCALL   ?Subroutine165
   1491                            mov_s ( sizeof(zp_sel_mod),zp_sel_mod);   
   \                     ??CrossCallReturnLabel_527:
   \   000003F8   ....               LDI     R18, LOW((versia + 642))
   \   000003FA   ....               LDI     R19, HIGH((versia + 642))
   \   000003FC   E009               LDI     R16, 9
   \   000003FE   ....               RCALL   ?Subroutine119
   1492                            if(buf[0]==1)
   \                     ??CrossCallReturnLabel_157:
   \   00000400   E40D               LDI     R16, 77
   \   00000402   F429               BRNE    ??read_menu_72
   1493                              {
   1494                              s_port('M');
   \   00000404   ....               RCALL   ??Subroutine167_0
   1495                              s_port('K');
   \                     ??CrossCallReturnLabel_488:
   \   00000406   E40B               LDI     R16, 75
   \   00000408   ....               RCALL   ??Subroutine167_0
   1496                              s_port('D');
   \                     ??CrossCallReturnLabel_487:
   \   0000040A   E404               LDI     R16, 68
   \   0000040C   CE79               RJMP    ??read_menu_14
   1497                              } 
   1498                              else
   1499                               { 
   1500                                  s_port('M');
   \                     ??read_menu_72:
   \   0000040E   ....               RCALL   ??Subroutine167_0
   1501                                  s_port('T');
   \                     ??CrossCallReturnLabel_486:
   \   00000410   E504               LDI     R16, 84
   \   00000412   ....               RCALL   ??Subroutine167_0
   1502                                  s_port('S');
   \                     ??CrossCallReturnLabel_485:
   \   00000414   E503               LDI     R16, 83
   \   00000416   CE74               RJMP    ??read_menu_14
   1503                               }
   1504                            mov_lf(); 
   1505                            s_port('>');                 
   1506                            break;        
   1507            
   1508           case 39:     
   1509             
   1510                         mov_lf();        
   \                     ??read_menu_73:
   \   00000418   ....               RCALL   ?Subroutine165
   1511                         mov_s ( sizeof(init_sim900),init_sim900);
   \                     ??CrossCallReturnLabel_526:
   \   0000041A   ....               LDI     R18, LOW((versia + 186))
   \   0000041C   ....               LDI     R19, HIGH((versia + 186))
   \   0000041E   E00F               LDI     R16, 15
   \   00000420   ....               RCALL   ?Subroutine166
   1512                         fun_init_sim900();
   \                     ??CrossCallReturnLabel_368:
   \   00000422   ........           CALL    fun_init_sim900
   1513                           
   1514                         mov_lf(); 
   \   00000426   ....               RCALL   ?Subroutine103
   1515                         s_port('>');
   1516                         
   1517                        mov_s ( sizeof(term_900),term_900);
   \                     ??CrossCallReturnLabel_477:
   \   00000428   ....               LDI     R18, LOW((versia + 201))
   \   0000042A   ....               LDI     R19, HIGH((versia + 201))
   \   0000042C   E00D               LDI     R16, 13
   \   0000042E   ....               RCALL   ?Subroutine166
   1518                        mov_lf();
   \                     ??CrossCallReturnLabel_367:
   \   00000430   ....               RCALL   ?Subroutine165
   1519                        index_pa=41;
   \                     ??CrossCallReturnLabel_525:
   \   00000432   E209               LDI     R16, 41
   \   00000434   9300....           STS     (fl_at_mom_232 + 1), R16
   1520                         break;   
   1521                         
   1522            case 40:     
   1523             
   1524                     //    mov_lf();        
   1525                     //    mov_s ( sizeof(command_900),command_900);
   1526                         
   1527                        
   1528                         break;                
   1529                         
   1530                    
   1531            default: goto menu_beg;                    
   1532                                           
   1533               }
   1534            vol_tx_ppp=0;
   \                     ??read_menu_15:
   \   00000438   ....               RCALL   ?Subroutine2
   1535            }
   \                     ??CrossCallReturnLabel_319:
   \   0000043A   96EF               ADIW    R29:R28, 63
   \   0000043C   9664               ADIW    R29:R28, 20
   \   0000043E   E0E5               LDI     R30, 5
   \   00000440   ........           JMP     ?EPILOGUE_B5_L09

   \                                 In segment FARCODE, align 2, keep-with-next
   \                     ?Subroutine122:
   \   00000000   ....               LDI     R30, LOW(temperatura)
   \   00000002   ....               LDI     R31, (temperatura) >> 8
   \   00000004                      REQUIRE ?Subroutine156
   \   00000004                      ;               // Fall through to label ?Subroutine156

   \                                 In segment FARCODE, align 2, keep-with-next
   \                     ?Subroutine156:
   \   00000000   8100               LD      R16, Z
   \   00000002   8111               LDD     R17, Z+1
   \   00000004   9508               RET

   \                                 In segment FARCODE, align 2, keep-with-next
   \                     ?Subroutine120:
   \   00000000   ........           CALL    mov_s
   \   00000004   850D               LDD     R16, Y+13
   \   00000006   9508               RET

   \                                 In segment FARCODE, align 2, keep-with-next
   \                     ?Subroutine119:
   \   00000000   ........           CALL    mov_s
   \   00000004   850D               LDD     R16, Y+13
   \   00000006   3001               CPI     R16, 1
   \   00000008   9508               RET

   \                                 In segment FARCODE, align 2, keep-with-next
   \                     ?Subroutine118:
   \   00000000   E00D               LDI     R16, 13
   \                     ??Subroutine118_0:
   \   00000002   ........           CALL    mov_s
   \   00000006   E044               LDI     R20, 4
   \   00000008   9508               RET

   \                                 In segment FARCODE, align 2, keep-with-next
   \                     ?Subroutine112:
   \   00000000   E202               LDI     R16, 34
   \   00000002   ........           CALL    s_port
   \   00000006   E202               LDI     R16, 34
   \   00000008                      REQUIRE ?Subroutine153
   \   00000008                      ;               // Fall through to label ?Subroutine153

   \                                 In segment FARCODE, align 2, keep-with-next
   \                     ?Subroutine153:
   \   00000000   ........           CALL    s_port
   \   00000004   9583               INC     R24
   \   00000006   9508               RET

   \                                 In segment FARCODE, align 2, keep-with-next
   \                     ?Subroutine106:
   \   00000000   ........           CALL    burst_ds_r
   \   00000004   ....               RJMP    ?Subroutine165

   \                                 In segment FARCODE, align 2, keep-with-next
   \                     ?Subroutine105:
   \   00000000   E00A               LDI     R16, 10
   \   00000002                      REQUIRE ?Subroutine166
   \   00000002                      ;               // Fall through to label ?Subroutine166

   \                                 In segment FARCODE, align 2, keep-with-next
   \                     ?Subroutine166:
   \   00000000   ........           JMP     mov_s

   \                                 In segment FARCODE, align 2, keep-with-next
   \                     ?Subroutine104:
   \   00000000   ........           CALL    s_port
   \   00000004   ....               RJMP    ?Subroutine167

   \                                 In segment FARCODE, align 2, keep-with-next
   \                     ?Subroutine100:
   \   00000000   E20D               LDI     R16, 45
   \   00000002   ........           CALL    s_port
   \   00000006   E20D               LDI     R16, 45
   \   00000008   ....               RJMP    ??Subroutine167_0

   \                                 In segment FARCODE, align 2, keep-with-next
   \                     ?Subroutine99:
   \   00000000   E306               LDI     R16, 54
   \                     ??Subroutine99_0:
   \   00000002   E011               LDI     R17, 1
   \   00000004                      REQUIRE ?Subroutine168
   \   00000004                      ;               // Fall through to label ?Subroutine168

   \                                 In segment FARCODE, align 2, keep-with-next
   \                     ?Subroutine86:
   \   00000000   E050               LDI     R21, 0
   \   00000002   E020               LDI     R18, 0
   \   00000004                      REQUIRE ?Subroutine157
   \   00000004                      ;               // Fall through to label ?Subroutine157

   \                                 In segment FARCODE, align 2, keep-with-next
   \                     ?Subroutine77:
   \   00000000   E042               LDI     R20, 2
   \                     ??Subroutine77_0:
   \   00000002   E050               LDI     R21, 0
   \   00000004   019E               MOVW    R19:R18, R29:R28
   \   00000006   5F23               SUBI    R18, 243
   \   00000008   ....               RJMP    ??Subroutine146_2

   \                                 In segment FARCODE, align 2, keep-with-next
   \                     ?Subroutine72:
   \   00000000   E715               LDI     R17, 117
   \   00000002   ........           CALL    RdFromFleshToArr
   \   00000006   850D               LDD     R16, Y+13
   \   00000008   851E               LDD     R17, Y+14
   \   0000000A   852F               LDD     R18, Y+15
   \   0000000C   8938               LDD     R19, Y+16
   \   0000000E   933A               ST      -Y, R19
   \   00000010   932A               ST      -Y, R18
   \   00000012   931A               ST      -Y, R17
   \   00000014   930A               ST      -Y, R16
   \   00000016   ....               LDI     R18, LOW((`?<Constant "%hhi\\000">` + 6))
   \   00000018   ....               LDI     R19, HIGH((`?<Constant "%hhi\\000">` + 6))
   \   0000001A   018E               MOVW    R17:R16, R29:R28
   \   0000001C   5F0C               SUBI    R16, 252
   \   0000001E   4F1F               SBCI    R17, 255
   \   00000020   ........           CALL    sprintf
   \   00000024   9624               ADIW    R29:R28, 4
   \   00000026   9508               RET

   \                                 In segment FARCODE, align 2, keep-with-next
   \                     ?Subroutine57:
   \   00000000   E030               LDI     R19, 0
   \   00000002   01FE               MOVW    R31:R30, R29:R28
   \   00000004   963D               ADIW    R31:R30, 13
   \   00000006   0FEA               ADD     R30, R26
   \   00000008   1FF3               ADC     R31, R19
   \   0000000A   8100               LD      R16, Z
   \   0000000C   1780               CP      R24, R16
   \   0000000E   9508               RET

   \                                 In segment FARCODE, align 2, keep-with-next
   \                     ?Subroutine19:
   \   00000000   01FE               MOVW    R31:R30, R29:R28
   \   00000002   963D               ADIW    R31:R30, 13
   \   00000004   2F08               MOV     R16, R24
   \   00000006   E010               LDI     R17, 0
   \   00000008   0F0A               ADD     R16, R26
   \   0000000A   1F13               ADC     R17, R19
   \   0000000C   0FE0               ADD     R30, R16
   \   0000000E   1FF1               ADC     R31, R17
   \   00000010   8101               LDD     R16, Z+1
   \   00000012   ....               RJMP    ?Subroutine153

   \                                 In segment FARCODE, align 2, keep-with-next
   \                     ?Subroutine12:
   \   00000000   E010               LDI     R17, 0
   \   00000002   931A               ST      -Y, R17
   \   00000004   930A               ST      -Y, R16
   \   00000006   ....               LDI     R18, LOW((`?<Constant "%hhi\\000">` + 11))
   \   00000008   ....               LDI     R19, HIGH((`?<Constant "%hhi\\000">` + 11))
   \   0000000A   018E               MOVW    R17:R16, R29:R28
   \   0000000C   5F0E               SUBI    R16, 254
   \   0000000E   4F1F               SBCI    R17, 255
   \   00000010   ........           CALL    sprintf
   \   00000014   9622               ADIW    R29:R28, 2
   \   00000016   018E               MOVW    R17:R16, R29:R28
   \   00000018   ........           CALL    strlen
   \   0000001C   019E               MOVW    R19:R18, R29:R28
   \   0000001E   ....               RCALL   mov_massiv
   \   00000020   E30A               LDI     R16, 58
   \   00000022                      REQUIRE ?Subroutine154
   \   00000022                      ;               // Fall through to label ?Subroutine154

   \                                 In segment FARCODE, align 2, keep-with-next
   \                     ?Subroutine154:
   \   00000000   ........           CALL    s_port
   \   00000004   01FC               MOVW    R31:R30, R25:R24
   \   00000006   9508               RET

   \                                 In segment FARCODE, align 2, keep-with-next
   \                     ?Subroutine11:
   \   00000000   E010               LDI     R17, 0
   \   00000002   931A               ST      -Y, R17
   \   00000004   930A               ST      -Y, R16
   \   00000006   ....               LDI     R18, LOW((`?<Constant "%hhi\\000">` + 11))
   \   00000008   ....               LDI     R19, HIGH((`?<Constant "%hhi\\000">` + 11))
   \   0000000A   018E               MOVW    R17:R16, R29:R28
   \   0000000C   5F0E               SUBI    R16, 254
   \   0000000E   4F1F               SBCI    R17, 255
   \   00000010   ........           CALL    sprintf
   \   00000014   9622               ADIW    R29:R28, 2
   \   00000016   018E               MOVW    R17:R16, R29:R28
   \   00000018   ........           CALL    strlen
   \   0000001C   019E               MOVW    R19:R18, R29:R28
   \   0000001E   ....               RCALL   mov_massiv
   \   00000020   ....               RJMP    ?Subroutine167

   \                                 In segment FARCODE, align 2, keep-with-next
   \                     ?Subroutine10:
   \   00000000   E010               LDI     R17, 0
   \   00000002   931A               ST      -Y, R17
   \   00000004   930A               ST      -Y, R16
   \   00000006   ....               LDI     R18, LOW((`?<Constant "%hhi\\000">` + 11))
   \   00000008   ....               LDI     R19, HIGH((`?<Constant "%hhi\\000">` + 11))
   \   0000000A   018E               MOVW    R17:R16, R29:R28
   \   0000000C   5F0E               SUBI    R16, 254
   \   0000000E   4F1F               SBCI    R17, 255
   \   00000010   ........           CALL    sprintf
   \   00000014   9622               ADIW    R29:R28, 2
   \   00000016   018E               MOVW    R17:R16, R29:R28
   \   00000018   ........           CALL    strlen
   \   0000001C   019E               MOVW    R19:R18, R29:R28
   \   0000001E   ....               RCALL   mov_massiv
   \   00000020   E20E               LDI     R16, 46
   \   00000022   ....               RJMP    ?Subroutine154

   \                                 In segment FARCODE, align 2, keep-with-next
   \                     ?Subroutine6:
   \   00000000   E010               LDI     R17, 0
   \   00000002   ........           CALL    RdFromFleshToArr
   \   00000006   ....               RJMP    ?Subroutine165

   \                                 In segment FARCODE, align 2, keep-with-next
   \                     ?Subroutine121:
   \   00000000   E009               LDI     R16, 9
   \   00000002   ....               RJMP    ?Subroutine166

   \                                 In segment FARCODE, align 2, keep-with-next
   \                     ?Subroutine114:
   \   00000000   E30A               LDI     R16, 58
   \   00000002   ....               RJMP    ??Subroutine167_0

   \                                 In segment FARCODE, align 2, keep-with-next
   \                     ?Subroutine146:
   \   00000000   EF4F               LDI     R20, 255
   \   00000002   EF5F               LDI     R21, 255
   \   00000004   E32A               LDI     R18, 58
   \   00000006   E030               LDI     R19, 0
   \   00000008   018E               MOVW    R17:R16, R29:R28
   \   0000000A   5F0C               SUBI    R16, 252
   \   0000000C   4F1F               SBCI    R17, 255
   \   0000000E   ........           CALL    crc_m1
   \   00000012   AF0E               STD     Y+62, R16
   \   00000014   AF1F               STD     Y+63, R17
   \   00000016   E070               LDI     R23, 0
   \   00000018   E060               LDI     R22, 0
   \   0000001A   E34C               LDI     R20, 60
   \                     ??Subroutine146_0:
   \   0000001C   E050               LDI     R21, 0
   \                     ??Subroutine146_1:
   \   0000001E   019E               MOVW    R19:R18, R29:R28
   \   00000020   5F2C               SUBI    R18, 252
   \                     ??Subroutine146_2:
   \   00000022   4F3F               SBCI    R19, 255
   \   00000024   9508               RET

   \                                 In segment FARCODE, align 2, keep-with-next
   \                     ?Subroutine2:
   \   00000000   E000               LDI     R16, 0
   \   00000002   ....               LDI     R30, LOW(vol_tx_ppp)
   \   00000004   ....               LDI     R31, (vol_tx_ppp) >> 8
   \   00000006                      REQUIRE ?Subroutine158
   \   00000006                      ;               // Fall through to label ?Subroutine158

   \                                 In segment FARCODE, align 2, keep-with-next
   \                     ?Subroutine158:
   \   00000000   8300               ST      Z, R16
   \   00000002   8301               STD     Z+1, R16
   \   00000004   9508               RET

   \                                 In segment FARCODE, align 2, keep-with-next
   \                     ?Subroutine165:
   \   00000000   ........           JMP     mov_lf

   \                                 In segment FARCODE, align 2, keep-with-next
   \                     ?Subroutine117:
   \   00000000   93000105           STS     261, R16
   \   00000004   9508               RET

   \                                 In segment FARCODE, align 2, keep-with-next
   \                     ?Subroutine103:
   \   00000000   ........           CALL    mov_lf
   \   00000004   E30E               LDI     R16, 62
   \   00000006   ....               RJMP    ??Subroutine167_0

   \                                 In segment FARCODE, align 2, keep-with-next
   \                     ?Subroutine130:
   \   00000000   ....               LDI     R30, LOW(modbus_mem1)
   \   00000002   ....               LDI     R31, (modbus_mem1) >> 8
   \                     ??Subroutine130_0:
   \   00000004   A900               LDD     R16, Z+48
   \   00000006   A911               LDD     R17, Z+49
   \   00000008   9508               RET

   \                                 In segment FARCODE, align 2, keep-with-next
   \                     ?Subroutine127:
   \   00000000   931A               ST      -Y, R17
   \   00000002   930A               ST      -Y, R16
   \   00000004   ....               LDI     R18, LOW((`?<Constant "%hhi\\000">` + 15))
   \   00000006   ....               LDI     R19, HIGH((`?<Constant "%hhi\\000">` + 15))
   \   00000008   9508               RET

   \                                 In segment FARCODE, align 2, keep-with-next
   \                     ?Subroutine111:
   \   00000000   ........           CALL    s_port
   \   00000004   9583               INC     R24
   \   00000006   3088               CPI     R24, 8
   \   00000008   9508               RET

   \                                 In segment FARCODE, align 2, keep-with-next
   \                     ?Subroutine71:
   \   00000000   018E               MOVW    R17:R16, R29:R28
   \   00000002   5F0E               SUBI    R16, 254
   \   00000004   4F1F               SBCI    R17, 255
   \   00000006   ........           CALL    sprintf
   \   0000000A   9622               ADIW    R29:R28, 2
   \   0000000C   9508               RET

   \                                 In segment FARCODE, align 2, keep-with-next
   \                     ?Subroutine70:
   \   00000000   018E               MOVW    R17:R16, R29:R28
   \   00000002   ........           CALL    strlen
   \   00000006   019E               MOVW    R19:R18, R29:R28
   \   00000008   ........           JMP     mov_massiv

   \                                 In segment FARCODE, align 2, keep-with-next
   \                     ?Subroutine49:
   \   00000000   A100               LDD     R16, Z+32
   \   00000002   A111               LDD     R17, Z+33
   \   00000004   931A               ST      -Y, R17
   \   00000006   930A               ST      -Y, R16
   \   00000008   ....               LDI     R18, LOW((`?<Constant "%hhi\\000">` + 15))
   \   0000000A   ....               LDI     R19, HIGH((`?<Constant "%hhi\\000">` + 15))
   \                     ??Subroutine49_0:
   \   0000000C   018E               MOVW    R17:R16, R29:R28
   \   0000000E   5F0E               SUBI    R16, 254
   \   00000010   4F1F               SBCI    R17, 255
   \   00000012   ........           CALL    sprintf
   \   00000016   9622               ADIW    R29:R28, 2
   \                     ??Subroutine49_1:
   \   00000018   018E               MOVW    R17:R16, R29:R28
   \   0000001A   ........           CALL    strlen
   \   0000001E   019E               MOVW    R19:R18, R29:R28
   \   00000020   ........           CALL    mov_massiv
   \                     ??Subroutine49_2:
   \   00000024   E200               LDI     R16, 32
   \   00000026   ....               RJMP    ??Subroutine167_0
   1536          
   1537          
   1538          
   1539          

   \                                 In segment FARCODE, align 2, keep-with-next
   1540            void write_menu(unsigned char index_menu)
   \                     write_menu:
   1541               {
   \   00000000   ........           CALL    ?PROLOGUE9_L09
   \   00000004                      REQUIRE ?Register_R4_is_cg_reg
   \   00000004                      REQUIRE ?Register_R5_is_cg_reg
   \   00000004                      REQUIRE ?Register_R6_is_cg_reg
   \   00000004                      REQUIRE ?Register_R7_is_cg_reg
   \   00000004                      REQUIRE ?Register_R8_is_cg_reg
   \   00000004   97EF               SBIW    R29:R28, 63
   \   00000006   972B               SBIW    R29:R28, 11
   1542          
   1543                 union
   1544             {
   1545             unsigned char bytes[4]; 
   1546             unsigned long int word;
   1547             } cifra_long;  
   1548            
   1549             unsigned char i,j,k,m,n;
   1550             unsigned char jj;    
   1551              unsigned char buf[70];
   1552                 
   1553                 switch(index_menu)
   \   00000008   ....               LDI     R26, LOW(buf_tx_232)
   \   0000000A   ....               LDI     R27, (buf_tx_232) >> 8
   \   0000000C   ....               RCALL   ?Subroutine132
   \                     ??CrossCallReturnLabel_178:
   \   0000000E   8120               LD      R18, Z
   \   00000010   8131               LDD     R19, Z+1
   \   00000012   013D               MOVW    R7:R6, R27:R26
   \   00000014   0E62               ADD     R6, R18
   \   00000016   1E73               ADC     R7, R19
   \   00000018   EF1E               LDI     R17, 254
   \   0000001A   0E61               ADD     R6, R17
   \   0000001C   EF1F               LDI     R17, 255
   \   0000001E   1E71               ADC     R7, R17
   \   00000020   01FD               MOVW    R31:R30, R27:R26
   \   00000022   8083               LDD     R8, Z+3
   \   00000024   8192               LDD     R25, Z+2
   \   00000026   8181               LDD     R24, Z+1
   \   00000028   ....               LDI     R30, LOW(`?<Jumptable for write_menu>_0`)
   \   0000002A   ....               LDI     R31, (`?<Jumptable for write_menu>_0`) >> 16
   \   0000002C   BFFB               OUT     0x3B, R31
   \   0000002E   ....               LDI     R31, HIGH(`?<Jumptable for write_menu>_0`)
   \   00000030   ........           JMP     ?CV_SWITCH_L06
   1554                  {      
   1555                           
   1556                         
   1557           #ifdef SCENARIO_TEST_MTC_ENABLE 
   1558                    // çŕďóńňčňü ńöĺíŕđčé ňĺńňčđîâŕíč˙ ěîäóë˙ ń ńďĺöčŕëüíî đŕńęŕđ˙÷ĺííűě đŕ
   1559             case 1:    
   1560                     if ( buf_tx_232[0] == '1') 
   \                     ??write_menu_0:
   \   00000034   ....               RCALL   ?Subroutine136
   \                     ??CrossCallReturnLabel_188:
   \   00000036   F431               BRNE    ??write_menu_1
   1561                    {
   1562                    test_mtc.enable = 1;
   \   00000038   ....               LDI     R30, LOW(test_mtc)
   \   0000003A   ....               LDI     R31, (test_mtc) >> 8
   \   0000003C   E001               LDI     R16, 1
   \   0000003E   8301               STD     Z+1, R16
   1563                    test_mtc.step = 0;
   \   00000040   E000               LDI     R16, 0
   \   00000042   8300               ST      Z, R16
   1564                  }
   1565                    vol_tx_ppp=0;
   \                     ??write_menu_1:
   \   00000044   ....               RCALL   ?Subroutine2
   1566                    return;
   \                     ??CrossCallReturnLabel_320:
   \   00000046   C014               RJMP    ??CrossCallReturnLabel_366
   1567          #endif
   1568                                       
   1569                          
   1570                          
   1571                           case 3: 
   1572                                  if(vol_tx_ppp!=2)goto bad_com_232;
   \                     ??write_menu_2:
   \   00000048   ....               RCALL   ?Subroutine3
   \                     ??CrossCallReturnLabel_329:
   \   0000004A   F469               BRNE    ??write_menu_3
   1573                                   
   1574                                   
   1575                                switch(buf_tx_232[0])
   \   0000004C   910C               LD      R16, X
   \   0000004E   5301               SUBI    R16, 49
   \   00000050   F029               BREQ    ??write_menu_4
   \   00000052   950A               DEC     R16
   \   00000054   F091               BREQ    ??write_menu_5
   \   00000056   950A               DEC     R16
   \   00000058   F0A1               BREQ    ??write_menu_6
   \   0000005A   C005               RJMP    ??write_menu_3
   1576                                   
   1577                                     {
   1578                                      case '1':
   1579                                            RdFromFleshToArr(A_C1_GPRS,&buf[0],L_C1_GPRS_MAX);
   \                     ??write_menu_4:
   \   0000005C   ....               RCALL   ?Subroutine28
   1580                                            if((buf[0]==0)||(buf[0]>30))goto bad_com_232;
   \                     ??CrossCallReturnLabel_279:
   \   0000005E   F019               BREQ    ??write_menu_3
   \                     ??write_menu_7:
   \   00000060   810C               LDD     R16, Y+4
   \   00000062   310F               CPI     R16, 31
   \   00000064   F080               BRCS    ??write_menu_8
   1581                                           break;
   1582                                      case '2':
   1583                                           RdFromFleshToArr(A_C2_GPRS,&buf[0],L_C2_GPRS_MAX);
   1584                                           if((buf[0]==0)||(buf[0]>30))goto bad_com_232;
   1585                                           break;
   1586                                      case '3': 
   1587                                           RdFromFleshToArr(A_C3_GPRS,&buf[0],L_C3_GPRS_MAX); 
   1588                                           if((buf[0]==0)||(buf[0]>30))goto bad_com_232;                              
   1589                                           break;
   1590                                     default: goto bad_com_232;
   1591                                     }
   1592                                      
   1593                                  *(unsigned int*)&buf[L_C_GPRS_MAX-2]=crc_m1(&buf[0],L_C_GPRS_MAX-2,0xffff);             
   1594                                  WrArrayToFlesh(A_C_GPRS, &buf[0],L_C_GPRS_MAX,0,0);   
   1595                                  
   1596                                  vol_tx_ppp=0;                                                                                      
   1597                                  mov_s ( sizeof(ok_t),ok_t); 
   1598                                  return;                 
   1599                          
   1600                          case 4: 
   1601                                  if(vol_tx_ppp!=2)goto bad_com_232;
   1602                                   
   1603                                   
   1604                                switch(buf_tx_232[0])
   1605                                   
   1606                                     {
   1607                                      case '1':
   1608                                            RdFromFleshToArr(A_C1_GPRS,&buf[0],L_C1_GPRS_MAX);
   1609                                            if((buf[0]==0)||(buf[0]>30))goto bad_com_232;
   1610                                           break;
   1611                                      case '2':
   1612                                           RdFromFleshToArr(A_C2_GPRS,&buf[0],L_C2_GPRS_MAX);
   1613                                           if((buf[0]==0)||(buf[0]>30))goto bad_com_232;
   1614                                           break;
   1615                                      case '3': 
   1616                                           RdFromFleshToArr(A_C3_GPRS,&buf[0],L_C3_GPRS_MAX); 
   1617                                           if((buf[0]==0)||(buf[0]>30))goto bad_com_232;                              
   1618                                           break;
   1619                                     default: goto bad_com_232;
   1620                                     }
   1621                                      
   1622                                  *(unsigned int*)&buf[L_CR_GPRS_MAX-2]=crc_m1(&buf[0],L_CR_GPRS_MAX-2,0xffff);             
   1623                                  WrArrayToFlesh(A_CR_GPRS, &buf[0],L_CR_GPRS_MAX,0,0);   
   1624                                  
   1625                                  vol_tx_ppp=0;                                                                                      
   1626                                  mov_s ( sizeof(ok_t),ok_t); 
   1627                                  return;         
   1628                                  
   1629                                  
   1630                           case 5:
   1631                                   if(vol_tx_ppp!=16)goto bad_com_232;
   1632                                   if(buf_tx_232[3]!='.')goto bad_com_232;
   1633                                   if(buf_tx_232[7]!='.')goto bad_com_232;
   1634                                   if(buf_tx_232[11]!='.')goto bad_com_232;
   1635                                   
   1636                                   RdFromFleshToArr(A_IP_PAR,&buf[0],L_IP_PAR); 
   1637           
   1638                                   
   1639                                   cifra_long.word=atol((char *)&buf_tx_232[0]); 
   1640                                   if(cifra_long.word>255)goto bad_com_232;
   1641                                      else buf[OFS_IP]=cifra_long.bytes[0];
   1642                 
   1643                                   cifra_long.word=atol((char *)&buf_tx_232[4]);  
   1644                                   if(cifra_long.word>255)goto bad_com_232;
   1645                                      else buf[OFS_IP+1]=cifra_long.bytes[0];
   1646                                   
   1647                                   cifra_long.word=atol((char *)&buf_tx_232[8]); 
   1648                                    if(cifra_long.word>255)goto bad_com_232;
   1649                                        else buf[OFS_IP+2]=cifra_long.bytes[0];
   1650                                   
   1651                                      
   1652                                   cifra_long.word=atol((char *)&buf_tx_232[12]); 
   1653                                    if(cifra_long.word>255)goto bad_com_232;
   1654                                        else buf[OFS_IP+3]=cifra_long.bytes[0];
   1655           
   1656                                *(unsigned int*)&buf[OFS_IP_PAR_CRC]=crc_m1(&buf[0],L_IP_PAR-2,0xffff);
   1657                                WrArrayToFlesh(A_IP_PAR, &buf[0],L_IP_PAR,0,0);
   1658                                   
   1659                                      
   1660                                vol_tx_ppp=0;                                                                                      
   1661                                mov_s ( sizeof(ok_t),ok_t); 
   1662                                return; 
   1663                           
   1664                           
   1665                           case 6:
   1666                                cifra_long.word=atol((char *)&buf_tx_232[0]);                                                                                      
   1667                                if (cifra_long.word>65535) goto bad_com_232;
   1668            
   1669                                RdFromFleshToArr(A_IP_PAR,&buf[0],L_IP_PAR); 
   1670                                *(unsigned int*)&buf[OFS_PORT]=cifra_long.word;//UDP ďîđň
   1671                                *(unsigned int*)&buf[OFS_IP_PAR_CRC]=crc_m1(&buf[0],L_IP_PAR-2,0xffff);
   1672                                WrArrayToFlesh(A_IP_PAR, &buf[0],L_IP_PAR,0,0);
   1673                                
   1674                                vol_tx_ppp=0;                                                                                      
   1675                                mov_s ( sizeof(ok_t),ok_t);  
   1676                                return;
   1677                         
   1678                           case 7:
   1679                                cifra_long.word=atol((char *)&buf_tx_232[0]);                                                                                      
   1680                                if (cifra_long.word<3)goto bad_com_232;
   1681                                if (cifra_long.word>65535) goto bad_com_232;
   1682                                for (i=0;i<12;i++) 
   1683                                {
   1684                                  if ( (buf_tx_232[i]==0xd))  {
   1685                                           if (  ( buf_tx_232[i-1]== '*' )  && ( buf_tx_232[i-2]== '*' )  && ( buf_tx_232[i-3]== '*' ) ) goto enable_wri; 
   1686                                             vol_tx_ppp=0;                                                                                      
   1687                                             mov_s ( sizeof(dis),dis);  
   1688                                             return; 
   1689                                  }
   1690                                }
   1691                                 vol_tx_ppp=0;                                                                                      
   1692                                mov_s ( sizeof(dis),dis);  
   1693                                return;      
   1694                  enable_wri:      
   1695                                RdFromFleshToArr(A_IP_PAR,&buf[0],L_IP_PAR); 
   1696                                *(unsigned int*)&buf[OFS_NUM]=cifra_long.word;
   1697                                *(unsigned int*)&buf[OFS_IP_PAR_CRC]=crc_m1(&buf[0],L_IP_PAR-2,0xffff);
   1698                                WrArrayToFlesh(A_IP_PAR, &buf[0],L_IP_PAR,0,0);
   1699                                
   1700                                vol_tx_ppp=0;                                                                                      
   1701                                mov_s ( sizeof(ok_t),ok_t);  
   1702                                return;
   1703                           
   1704                           case 8:
   1705                                
   1706                                cifra_long.word=atol((char *)&buf_tx_232[0]);                                                                                      
   1707                                if (cifra_long.word<10)goto bad_com_232;
   1708                                if (cifra_long.word>65535) goto bad_com_232;
   1709            
   1710                                RdFromFleshToArr(A_C_PAR,&buf[0],L_C_PAR); 
   1711                                *(unsigned int*)&buf[OFS_NAT]=cifra_long.word;
   1712                                *(unsigned int*)&buf[OFS_C_PAR_CRC]=crc_m1(&buf[0],L_C_PAR-2,0xffff);
   1713                                WrArrayToFlesh(A_C_PAR, &buf[0],L_C_PAR,0,0);
   1714                                
   1715                                vol_tx_ppp=0;                                                                                      
   1716                                mov_s ( sizeof(ok_t),ok_t);  
   1717                                return;
   1718                                
   1719                         case 9:
   1720                                
   1721                                cifra_long.word=atol((char *)&buf_tx_232[0]);                                                                                      
   1722                                if (cifra_long.word<10)goto bad_com_232;
   1723                                if (cifra_long.word>65535) goto bad_com_232;
   1724            
   1725                                RdFromFleshToArr(A_C_PAR,&buf[0],L_C_PAR); 
   1726                                *(unsigned int*)&buf[OFS_NAT_R]=cifra_long.word;
   1727                                *(unsigned int*)&buf[OFS_C_PAR_CRC]=crc_m1(&buf[0],L_C_PAR-2,0xffff);
   1728                                WrArrayToFlesh(A_C_PAR, &buf[0],L_C_PAR,0,0);
   1729                                
   1730                                vol_tx_ppp=0;                                                                                      
   1731                                mov_s ( sizeof(ok_t),ok_t);  
   1732                                return;       
   1733                          
   1734                          case 10:
   1735                                
   1736                                cifra_long.word=atol((char *)&buf_tx_232[0]);                                                                                      
   1737                                if (cifra_long.word<10)goto bad_com_232;
   1738                                if (cifra_long.word>65535) goto bad_com_232;
   1739            
   1740                                RdFromFleshToArr(A_C_PAR,&buf[0],L_C_PAR); 
   1741                                *(unsigned int*)&buf[OFS_CCH]=cifra_long.word;
   1742                                *(unsigned int*)&buf[OFS_C_PAR_CRC]=crc_m1(&buf[0],L_C_PAR-2,0xffff);
   1743                                WrArrayToFlesh(A_C_PAR, &buf[0],L_C_PAR,0,0);
   1744                                
   1745                                vol_tx_ppp=0;                                                                                      
   1746                                mov_s ( sizeof(ok_t),ok_t);  
   1747                                return;
   1748                          
   1749                          case 11:
   1750                                
   1751                                cifra_long.word=atol((char *)&buf_tx_232[0]);                                                                                      
   1752                                if (cifra_long.word<5)goto bad_com_232;
   1753                                if (cifra_long.word>65535) goto bad_com_232;
   1754            
   1755                                RdFromFleshToArr(A_C_PAR,&buf[0],L_C_PAR); 
   1756                                *(unsigned int*)&buf[OFS_TM_CH]=cifra_long.word;
   1757                                *(unsigned int*)&buf[OFS_C_PAR_CRC]=crc_m1(&buf[0],L_C_PAR-2,0xffff);
   1758                                WrArrayToFlesh(A_C_PAR, &buf[0],L_C_PAR,0,0);
   1759                                
   1760                                vol_tx_ppp=0;                                                                                      
   1761                                mov_s ( sizeof(ok_t),ok_t);  
   1762                                return;
   1763          
   1764               //!!!!!!!!!!! dobavka        
   1765                         case 12:
   1766                                
   1767                                cifra_long.word=atol((char *)&buf_tx_232[0]);                                                                                      
   1768          
   1769                                if (cifra_long.word>65535) goto bad_com_232;
   1770                                
   1771                                RdFromFleshToArr(A_C_PAR,&buf[0],L_C_PAR); 
   1772                                
   1773                                if(cifra_long.word!=0)                                                       
   1774                                if((cifra_long.word *60) <= (*(unsigned int*)&buf[OFS_CCH]))goto bad_com_232;
   1775                                
   1776                                *(unsigned int*)&buf[OFS_TM_NO_LINK]=cifra_long.word;
   1777                                *(unsigned int*)&buf[OFS_C_PAR_CRC]=crc_m1(&buf[0],L_C_PAR-2,0xffff);
   1778                                WrArrayToFlesh(A_C_PAR, &buf[0],L_C_PAR,0,0);
   1779                                
   1780                                vol_tx_ppp=0;                                                                                      
   1781                                mov_s ( sizeof(ok_t),ok_t);  
   1782                                return;
   1783                       
   1784                                
   1785                        case 13:
   1786                                
   1787                                cifra_long.word=atol((char *)&buf_tx_232[0]);                                                                                      
   1788                                if (cifra_long.word<MIN_TM_LINK_RES) goto bad_com_232;
   1789                                if (cifra_long.word>65535) goto bad_com_232;
   1790                                
   1791                                RdFromFleshToArr(A_C_PAR,&buf[0],L_C_PAR); 
   1792                                                                                         
   1793                                if((cifra_long.word *60) <=  (*(unsigned int*)&buf[OFS_CCH]))goto bad_com_232;
   1794                                
   1795                                *(unsigned int*)&buf[OFS_TM_LINK_RES]=cifra_long.word;
   1796                                *(unsigned int*)&buf[OFS_C_PAR_CRC]=crc_m1(&buf[0],L_C_PAR-2,0xffff);
   1797                                WrArrayToFlesh(A_C_PAR, &buf[0],L_C_PAR,0,0);
   1798                                
   1799                                vol_tx_ppp=0;                                                                                      
   1800                                mov_s ( sizeof(ok_t),ok_t);  
   1801                                return;         
   1802                       //EEEEEEEEEEEEEEEEE dobavka                           
   1803                                
   1804                        
   1805                        case 14: 
   1806                                   if(vol_tx_ppp!=2)goto bad_com_232;
   1807                                   if((buf_tx_232[0]=='0')||(buf_tx_232[0]=='1'))cifra_long.bytes[0]=buf_tx_232[0]-0x30;
   1808                                      else goto bad_com_232;
   1809                                
   1810                                RdFromFleshToArr(A_SEQ_PAR,&buf[0],L_SEQ_PAR); 
   1811                                buf[OFS_DES_SEQ]=cifra_long.bytes[0];
   1812                                *(unsigned int*)&buf[OFS_SEQ_PAR_CRC]=crc_m1(&buf[0],L_SEQ_PAR-2,0xffff);
   1813                                WrArrayToFlesh(A_SEQ_PAR, &buf[0],L_SEQ_PAR,0,0);
   1814                                
   1815                                vol_tx_ppp=0;                                                                                      
   1816                                mov_s ( sizeof(ok_t),ok_t);  
   1817                                return;    
   1818                         
   1819                         
   1820                         
   1821                          case 15:
   1822                                
   1823                                cifra_long.word=atol((char *)&buf_tx_232[0]);                                                                                      
   1824                                if (cifra_long.word<3) goto bad_com_232;
   1825                                if (cifra_long.word>65535) goto bad_com_232;
   1826          
   1827                                RdFromFleshToArr(A_SEQ_PAR,&buf[0],L_SEQ_PAR); 
   1828                                *(unsigned int*)&buf[OFS_NUM_CL]=cifra_long.word;
   1829                                *(unsigned int*)&buf[OFS_SEQ_PAR_CRC]=crc_m1(&buf[0],L_SEQ_PAR-2,0xffff);
   1830                                WrArrayToFlesh(A_SEQ_PAR, &buf[0],L_SEQ_PAR,0,0);
   1831                                
   1832                                vol_tx_ppp=0;                                                                                      
   1833                                mov_s ( sizeof(ok_t),ok_t);  
   1834                                return;
   1835                          
   1836                          case 16:
   1837                                
   1838                                cifra_long.word=atol((char *)&buf_tx_232[0]);                                                                                      
   1839                                if (cifra_long.word==0)goto bad_com_232;
   1840                                if (cifra_long.word>65535) goto bad_com_232;
   1841          
   1842                                RdFromFleshToArr(A_SEQ_PAR,&buf[0],L_SEQ_PAR); 
   1843                                *(unsigned int*)&buf[OFS_TM_VZ]=cifra_long.word;
   1844                                *(unsigned int*)&buf[OFS_SEQ_PAR_CRC]=crc_m1(&buf[0],L_SEQ_PAR-2,0xffff);
   1845                                WrArrayToFlesh(A_SEQ_PAR, &buf[0],L_SEQ_PAR,0,0);
   1846                                
   1847                                vol_tx_ppp=0;                                                                                      
   1848                                mov_s ( sizeof(ok_t),ok_t);  
   1849                                return;
   1850                                
   1851                          case 17:
   1852                                
   1853                                cifra_long.word=atol((char *)&buf_tx_232[0]);                                                                                      
   1854                                if (cifra_long.word<5)goto bad_com_232;
   1855                                if (cifra_long.word>65535) goto bad_com_232;
   1856          
   1857                                RdFromFleshToArr(A_SEQ_PAR,&buf[0],L_SEQ_PAR); 
   1858                                *(unsigned int*)&buf[OFS_TM_CL]=cifra_long.word;
   1859                                *(unsigned int*)&buf[OFS_SEQ_PAR_CRC]=crc_m1(&buf[0],L_SEQ_PAR-2,0xffff);
   1860                                WrArrayToFlesh(A_SEQ_PAR, &buf[0],L_SEQ_PAR,0,0);
   1861                                
   1862                                vol_tx_ppp=0;                                                                                      
   1863                                mov_s ( sizeof(ok_t),ok_t);  
   1864                                return;      
   1865                          
   1866                                
   1867                           case 18:
   1868                                
   1869                                cifra_long.word=atol((char *)&buf_tx_232[0]);                                                                                      
   1870                                if (cifra_long.word>2) goto bad_com_232;
   1871                                RdFromFleshToArr(A_SEQ_PAR,&buf[0],L_SEQ_PAR); 
   1872                                *(unsigned char*)&buf[OFS_TP_TS]=cifra_long.word;
   1873                                *(unsigned int*)&buf[OFS_SEQ_PAR_CRC]=crc_m1(&buf[0],L_SEQ_PAR-2,0xffff);
   1874                                WrArrayToFlesh(A_SEQ_PAR, &buf[0],L_SEQ_PAR,0,0);
   1875                                
   1876                                vol_tx_ppp=0;                                                                                      
   1877                                mov_s ( sizeof(ok_t),ok_t);  
   1878                                return;         
   1879                                
   1880                          case 19:
   1881                                
   1882                                cifra_long.word=atol((char *)&buf_tx_232[0]);                                                                                      
   1883                                if (cifra_long.word>1) goto bad_com_232;
   1884                                RdFromFleshToArr(A_SEQ_PAR,&buf[0],L_SEQ_PAR); 
   1885                                *(unsigned char*)&buf[OFS_TP_TS+1]=cifra_long.word;
   1886                                *(unsigned int*)&buf[OFS_SEQ_PAR_CRC]=crc_m1(&buf[0],L_SEQ_PAR-2,0xffff);
   1887                                WrArrayToFlesh(A_SEQ_PAR, &buf[0],L_SEQ_PAR,0,0);
   1888                                
   1889                                vol_tx_ppp=0;                                                                                      
   1890                                mov_s ( sizeof(ok_t),ok_t);  
   1891                                return;        
   1892                                
   1893                                
   1894                                
   1895                          
   1896                         case 20: 
   1897                                   cifra_long.word=atol((char *)&buf_tx_232[0]);
   1898                                    if (cifra_long.word>3)goto bad_com_232;   //dobavka 
   1899                                   e_debug=cifra_long.bytes[0];
   1900          
   1901                                vol_tx_ppp=0;                                                                                      
   1902                                mov_s ( sizeof(ok_t),ok_t);  
   1903                                return;    
   1904                          
   1905                          
   1906          
   1907                         case 21:
   1908                               if((vol_tx_ppp<7)||(vol_tx_ppp>60))goto bad_com_232;
   1909                               
   1910                               if(buf_tx_232[0]!='"')goto bad_com_232;
   1911                               if(buf_tx_232[vol_tx_ppp-2]!='"')goto bad_com_232;
   1912                               
   1913                               RdFromFleshToArr(A_C1_GPRS,&buf[0],L_C1_GPRS_MAX);
   1914                                
   1915                               i=0;
   1916                               j=1;
   1917                               n=i;
   1918                               m=j;
   1919                               while(buf_tx_232[j]!='"'){j++;i++;}
   1920                               if (j>=vol_tx_ppp-2)goto bad_com_232;
   1921                               j++;
   1922                               if (buf_tx_232[j]!='"')goto bad_com_232;
   1923                               if (j>=vol_tx_ppp-1)goto bad_com_232;
   1924                               buf[n]=i;
   1925                               for(k=0;k<buf[n];k++)buf[n+1+k]=buf_tx_232[m+k];
   1926                                    
   1927                               n=n+buf[n]+1;
   1928                               i=0;
   1929                               j++;
   1930                               m=j;
   1931                               while(buf_tx_232[j]!='"'){j++;i++;}
   1932                               if (j>=vol_tx_ppp-2)goto bad_com_232;
   1933                               j++;
   1934                               if (buf_tx_232[j]!='"')goto bad_com_232;
   1935                               if (j>=vol_tx_ppp-1)goto bad_com_232;
   1936                               buf[n]=i;
   1937                               for(k=0;k<buf[n];k++)buf[n+1+k]=buf_tx_232[m+k];
   1938                               
   1939                               
   1940                               n=n+buf[n]+1;
   1941                               i=0;
   1942                               j++;
   1943                               m=j;
   1944                               while(buf_tx_232[j]!='"'){j++;i++;}
   1945                               if (j>=vol_tx_ppp-1)goto bad_com_232;
   1946                               buf[n]=i;
   1947                               for(k=0;k<buf[n];k++)buf[n+1+k]=buf_tx_232[m+k];   
   1948                               
   1949                               *(unsigned int*)&buf[L_C1_GPRS_MAX-2]=crc_m1(&buf[0],L_C1_GPRS_MAX-2,0xffff);             
   1950                               WrArrayToFlesh(A_C1_GPRS, &buf[0],L_C1_GPRS_MAX,0,0);
   1951                               
   1952                                vol_tx_ppp=0;
   1953                                mov_s ( sizeof(ok_t),ok_t);  
   1954                                return; 
   1955                       
   1956                       case 22:
   1957                               if((vol_tx_ppp<7)||(vol_tx_ppp>60))goto bad_com_232;
   1958                               
   1959                               if(buf_tx_232[0]!='"')goto bad_com_232;
   1960                               if(buf_tx_232[vol_tx_ppp-2]!='"')goto bad_com_232;
   1961                               
   1962                               RdFromFleshToArr(A_C2_GPRS,&buf[0],L_C2_GPRS_MAX);
   1963                                
   1964                               i=0;
   1965                               j=1;
   1966                               n=i;
   1967                               m=j;
   1968                               while(buf_tx_232[j]!='"'){j++;i++;}
   1969                               if (j>=vol_tx_ppp-2)goto bad_com_232;
   1970                               j++;
   1971                               if (buf_tx_232[j]!='"')goto bad_com_232;
   1972                               if (j>=vol_tx_ppp-1)goto bad_com_232;
   1973                               buf[n]=i;
   1974                               for(k=0;k<buf[n];k++)buf[n+1+k]=buf_tx_232[m+k];
   1975                                    
   1976                               n=n+buf[n]+1;
   1977                               i=0;
   1978                               j++;
   1979                               m=j;
   1980                               while(buf_tx_232[j]!='"'){j++;i++;}
   1981                               if (j>=vol_tx_ppp-2)goto bad_com_232;
   1982                               j++;
   1983                               if (buf_tx_232[j]!='"')goto bad_com_232;
   1984                               if (j>=vol_tx_ppp-1)goto bad_com_232;
   1985                               buf[n]=i;
   1986                               for(k=0;k<buf[n];k++)buf[n+1+k]=buf_tx_232[m+k];
   1987                               
   1988                               
   1989                               n=n+buf[n]+1;
   1990                               i=0;
   1991                               j++;
   1992                               m=j;
   1993                               while(buf_tx_232[j]!='"'){j++;i++;}
   1994                               if (j>=vol_tx_ppp-1)goto bad_com_232;
   1995                               buf[n]=i;
   1996                               for(k=0;k<buf[n];k++)buf[n+1+k]=buf_tx_232[m+k];   
   1997                               
   1998                               *(unsigned int*)&buf[L_C2_GPRS_MAX-2]=crc_m1(&buf[0],L_C2_GPRS_MAX-2,0xffff);               
   1999                               WrArrayToFlesh(A_C2_GPRS, &buf[0],L_C2_GPRS_MAX,0,0);
   2000                               
   2001                                vol_tx_ppp=0;
   2002                                mov_s ( sizeof(ok_t),ok_t);  
   2003                                return;                      
   2004             
   2005                          case 23:
   2006                               if((vol_tx_ppp<7)||(vol_tx_ppp>60))goto bad_com_232;
   2007                               
   2008                               if(buf_tx_232[0]!='"')goto bad_com_232;
   2009                               if(buf_tx_232[vol_tx_ppp-2]!='"')goto bad_com_232;
   2010                               
   2011                               RdFromFleshToArr(A_C3_GPRS,&buf[0],L_C3_GPRS_MAX);
   2012                                
   2013                               i=0;
   2014                               j=1;
   2015                               n=i;
   2016                               m=j;
   2017                               while(buf_tx_232[j]!='"'){j++;i++;}
   2018                               if (j>=vol_tx_ppp-2)goto bad_com_232;
   2019                               j++;
   2020                               if (buf_tx_232[j]!='"')goto bad_com_232;
   2021                               if (j>=vol_tx_ppp-1)goto bad_com_232;
   2022                               buf[n]=i;
   2023                               for(k=0;k<buf[n];k++)buf[n+1+k]=buf_tx_232[m+k];
   2024                                    
   2025                               n=n+buf[n]+1;
   2026                               i=0;
   2027                               j++;
   2028                               m=j;
   2029                               while(buf_tx_232[j]!='"'){j++;i++;}
   2030                               if (j>=vol_tx_ppp-2)goto bad_com_232;
   2031                               j++;
   2032                               if (buf_tx_232[j]!='"')goto bad_com_232;
   2033                               if (j>=vol_tx_ppp-1)goto bad_com_232;
   2034                               buf[n]=i;
   2035                               for(k=0;k<buf[n];k++)buf[n+1+k]=buf_tx_232[m+k];
   2036                               
   2037                               
   2038                               n=n+buf[n]+1;
   2039                               i=0;
   2040                               j++;
   2041                               m=j;
   2042                               while(buf_tx_232[j]!='"'){j++;i++;}
   2043                               if (j>=vol_tx_ppp-1)goto bad_com_232;
   2044                               buf[n]=i;
   2045                               for(k=0;k<buf[n];k++)buf[n+1+k]=buf_tx_232[m+k];   
   2046                               
   2047                               *(unsigned int*)&buf[L_C3_GPRS_MAX-2]=crc_m1(&buf[0],L_C3_GPRS_MAX-2,0xffff);               
   2048                               WrArrayToFlesh(A_C3_GPRS, &buf[0],L_C3_GPRS_MAX,0,0);
   2049                               
   2050                                vol_tx_ppp=0;
   2051                                mov_s ( sizeof(ok_t),ok_t);  
   2052                                return;  
   2053                                
   2054                                
   2055          
   2056                                 case 24: 
   2057                         if ( buf_tx_232[0] == '1') 
   2058                                {
   2059                                 mov_lf(); 
   2060                          test_loop();
   2061                          test_loop2();
   2062                          
   2063                          
   2064                          mov_lf(); 
   2065                          s_port('>');  
   2066                  }
   2067                    vol_tx_ppp=0;
   2068                    return;
   2069                                
   2070                                
   2071                                
   2072             
   2073             
   2074              case 26: 
   2075                                   if(vol_tx_ppp!=2)goto bad_com_232;
   2076                                   if(buf_tx_232[0]!='1')goto bad_com_232;
   2077                                  
   2078                                
   2079                                e_debug=RG_WORK;  
   2080                                vosstan_memory();
   2081                                
   2082                                vol_tx_ppp=0;                                                                                      
   2083                                mov_s ( sizeof(ok_t),ok_t);  
   2084                                return;    
   2085             case 27:
   2086                        if(vol_tx_ppp!=9)goto bad_com_232; 
   2087                        if((buf_tx_232[2]!=':')&&(buf_tx_232[2]!='.'))goto bad_com_232;
   2088                        if((buf_tx_232[5]!=':')&&(buf_tx_232[5]!='.'))goto bad_com_232;
   2089                        
   2090                        
   2091                       burst_ds_r();
   2092                       buf[3]=real_time.r_date;
   2093                       buf[4]=real_time.r_month;
   2094                       buf[5]=real_time.r_year;
   2095                      
   2096                      
   2097                        cifra_long.word=atol(( char *)&buf_tx_232[6]); 
   2098                        if(cifra_long.word>59)goto bad_com_232;
   2099                        else buf[0]=cifra_long.bytes[0];
   2100                        
   2101               
   2102                        cifra_long.word=atol((char *)&buf_tx_232[3]); 
   2103                        if(cifra_long.word>59)goto bad_com_232;
   2104                        else buf[1]=cifra_long.bytes[0];
   2105                 
   2106                        cifra_long.word=atol((char *)&buf_tx_232[0]); 
   2107                        if(cifra_long.word>23)goto bad_com_232;
   2108                        else buf[2]=cifra_long.bytes[0];
   2109          
   2110          
   2111                                   
   2112                      set_rlt(2,&buf[0]);
   2113                      vol_tx_ppp=0;                                                                                      
   2114                      mov_s ( sizeof(ok_t),ok_t);  
   2115                      return;
   2116                      
   2117                      
   2118             case 28:
   2119                        if(vol_tx_ppp!=9)goto bad_com_232; 
   2120                        if(buf_tx_232[2]!='.')goto bad_com_232;
   2121                        if(buf_tx_232[5]!='.')goto bad_com_232;
   2122                        
   2123                        
   2124                       burst_ds_r();
   2125                       buf[0]=real_time.r_sec;
   2126                       buf[1]=real_time.r_min;
   2127                       buf[2]=real_time.r_hor;
   2128                      
   2129                      
   2130                        cifra_long.word=atol(( char *)&buf_tx_232[0]); 
   2131                        if(cifra_long.word==0)goto bad_com_232;
   2132                        if(cifra_long.word>31)goto bad_com_232;
   2133                        else buf[3]=cifra_long.bytes[0];
   2134                        
   2135               
   2136                        cifra_long.word=atol((char *)&buf_tx_232[3]); 
   2137                        if(cifra_long.word==0)goto bad_com_232;
   2138                        if(cifra_long.word>12)goto bad_com_232;
   2139                        else buf[4]=cifra_long.bytes[0];
   2140                 
   2141                      
   2142                        cifra_long.word=atol((char *)&buf_tx_232[6]); 
   2143                        buf[5]=cifra_long.bytes[0];
   2144                      
   2145                      set_rlt(2,&buf[0]);
   2146                      vol_tx_ppp=0;                                                                                      
   2147                      mov_s ( sizeof(ok_t),ok_t);  
   2148                      return;
   2149           
   2150             
   2151             case 29: 
   2152                                   if((vol_tx_ppp==2)&&(buf_tx_232[0]=='0'))
   2153                                   {
   2154                                   WrArrayToFlesh(BEG_BUF_LOG,0,(L_LOG*6),0x01,0x00);
   2155                                   point_log_buf=0;      
   2156                                   vol_tx_ppp=0; 
   2157                                   mov_s ( sizeof(ok_t),ok_t);  
   2158                                   return;                         
   2159                                   }
   2160                                   
   2161                                   
   2162                                   if(vol_tx_ppp!=4)goto bad_com_232;
   2163                                   if(buf_tx_232[0]!='l')goto bad_com_232;
   2164                                   if(buf_tx_232[1]!='o')goto bad_com_232;
   2165                                   if(buf_tx_232[2]!='g')goto bad_com_232;
   2166                                   
   2167                                   RdFromFleshToArr(BEG_BUF_LOG,&buf_tx_232[0],(L_LOG*6));                      
   2168                                   
   2169                                   s_port(0xd);
   2170                                   s_port(0xa);
   2171                                   for(jj=0;jj<(L_LOG*6);jj++) s_port(buf_tx_232[jj]);
   2172                                   vol_tx_ppp=0; 
   2173                                   mov_s ( sizeof(ok_t),ok_t);  
   2174                                   return;       
   2175           
   2176             case 30:      
   2177                                if((vol_tx_ppp==2)&&(buf_tx_232[0]=='1'))
   2178                                   { 
   2179                                   for(i=0;i<(L_KEYS-2);i++)buf[i]=keys_def[i];
   2180                                   *(unsigned int*)&buf[L_KEYS-2]=crc_m1(&buf[0],L_KEYS-2,0xffff);
   2181                                   WrArrayToFlesh(A_KEYS,&buf[0],L_KEYS,0,0); 
   2182                                   
   2183                                   if(check_keys()==1)goto bad_com_232;
   2184                                   
   2185                                   vol_tx_ppp=0; 
   2186                                   mov_s ( sizeof(ok_t),ok_t); 
   2187                                   return;
   2188                                   }else goto bad_com_232;
   2189              
   2190                                
   2191            case 31:            if(vol_tx_ppp!=5)goto bad_com_232;
   2192                                if((buf_tx_232[0]!='.') &&((buf_tx_232[0]<0x30)||(buf_tx_232[0]>0x39)))goto bad_com_232;
   2193                                if((buf_tx_232[1]!='.') &&((buf_tx_232[1]<0x30)||(buf_tx_232[1]>0x39)))goto bad_com_232;
   2194                                if((buf_tx_232[2]!='.') &&((buf_tx_232[2]<0x30)||(buf_tx_232[2]>0x39)))goto bad_com_232;
   2195                                if((buf_tx_232[3]!='.') &&((buf_tx_232[3]<0x30)||(buf_tx_232[3]>0x39)))goto bad_com_232;
   2196                               
   2197                                 buf[OFS_PIN_SIM1]=buf_tx_232[0];
   2198                                 buf[OFS_PIN_SIM1+1]=buf_tx_232[1];
   2199                                 buf[OFS_PIN_SIM1+2]=buf_tx_232[2];
   2200                                 buf[OFS_PIN_SIM1+3]=buf_tx_232[3];
   2201                                 *(unsigned int*)&buf[OFS_KOD_SIM1_CRC]=crc_m1(&buf[0],L_KOD_SIM1-2,0xffff);
   2202                                  WrArrayToFlesh(A_KOD_SIM1, &buf[0],L_KOD_SIM1,0,0);
   2203                                vol_tx_ppp=0; 
   2204                                mov_s ( sizeof(ok_t),ok_t); 
   2205                                return;
   2206                                
   2207                                 
   2208           case 32:            if(vol_tx_ppp!=5)goto bad_com_232;
   2209                                if((buf_tx_232[0]!='.') &&((buf_tx_232[0]<0x30)||(buf_tx_232[0]>0x39)))goto bad_com_232;
   2210                                if((buf_tx_232[1]!='.') &&((buf_tx_232[1]<0x30)||(buf_tx_232[1]>0x39)))goto bad_com_232;
   2211                                if((buf_tx_232[2]!='.') &&((buf_tx_232[2]<0x30)||(buf_tx_232[2]>0x39)))goto bad_com_232;
   2212                                if((buf_tx_232[3]!='.') &&((buf_tx_232[3]<0x30)||(buf_tx_232[3]>0x39)))goto bad_com_232;
   2213                                 buf[OFS_PIN_SIM2]=buf_tx_232[0];
   2214                                 buf[OFS_PIN_SIM2+1]=buf_tx_232[1];
   2215                                 buf[OFS_PIN_SIM2+2]=buf_tx_232[2];
   2216                                 buf[OFS_PIN_SIM2+3]=buf_tx_232[3];
   2217                                 *(unsigned int*)&buf[OFS_KOD_SIM2_CRC]=crc_m1(&buf[0],L_KOD_SIM2-2,0xffff);
   2218                                  WrArrayToFlesh(A_KOD_SIM2, &buf[0],L_KOD_SIM2,0,0);
   2219                                vol_tx_ppp=0; 
   2220                                mov_s ( sizeof(ok_t),ok_t); 
   2221                                return;
   2222             
   2223           case 33: 
   2224                                   if(vol_tx_ppp!=2)goto bad_com_232;
   2225                                   if(buf_tx_232[0]!='0')goto bad_com_232;                    
   2226          
   2227                                   *(unsigned long int*)&buf[0]=burst_ds_r();
   2228                                   for(i=4;i<12;i++)buf[i]=0;
   2229                                   *(unsigned int*)&buf[L_TRAF-2]=crc_m1(&buf[0],L_TRAF-2,0xffff);
   2230                                   WrArrayToFlesh(A_TRAF, &buf[0],L_TRAF,0,0); 
   2231                                   vol_tx_ppp=0; 
   2232                                   mov_s ( sizeof(ok_t),ok_t); 
   2233                                   return;
   2234                                   
   2235           case 36: 
   2236                                 
   2237                                   
   2238                                   if(vol_tx_ppp!=3)goto bad_com_232;
   2239                                   if((buf_tx_232[0]!='0')&& (buf_tx_232[0]!='1')&&(buf_tx_232[0]!='i'))goto bad_com_232;
   2240                                   if((buf_tx_232[1]!='0')&&(buf_tx_232[1]!='1')&&(buf_tx_232[1]!='i'))goto bad_com_232;
   2241                                   
   2242                                   if(buf_tx_232[0]=='0') {TU1_OFF;} else {TU1_ON; if(buf_tx_232[0]=='i')cnt_tu1=TM_TU_IMP;}
   2243                                   if(buf_tx_232[1]=='0') {TU2_OFF;} else {TU2_ON; if(buf_tx_232[1]=='i')cnt_tu2=TM_TU_IMP;} 
   2244                                   vol_tx_ppp=0; 
   2245                                   mov_s ( sizeof(ok_t),ok_t);
   2246                                   return;                              
   2247            case 37: 
   2248                                   if(vol_tx_ppp!=2)goto bad_com_232;
   2249                                   if(buf_tx_232[0]!='0')goto bad_com_232;                    
   2250                                   modbus_mem1[AD_TII1]=0;
   2251                                   vol_tx_ppp=0; 
   2252                                   mov_s ( sizeof(ok_t),ok_t); 
   2253                                   return;                                                
   2254            
   2255           case 38: 
   2256                                   if(vol_tx_ppp!=2)goto bad_com_232;
   2257                                   if((buf_tx_232[0]=='0')||(buf_tx_232[0]=='1'))buf_tx_232[0]=buf_tx_232[0]-0x30;
   2258                                      else goto bad_com_232;
   2259                                   WrArrayToFlesh(A_SEL_MODUL, &buf_tx_232[0],1,0,0);   
   2260                                   vol_tx_ppp=0;                                                                                      
   2261                                   mov_s ( sizeof(ok_t),ok_t);  
   2262                                   lock_it(); 
   2263                                    // return;                          
   2264           
   2265           case 39:                {
   2266                                          vol_tx_ppp=0;
   2267                                           return;
   2268                                           }
   2269                                          
   2270                  case 40:               {
   2271                                        mov_lf();
   2272                                        //  buf_tx_232[0]='A';
   2273                                        //  buf_tx_232[1]='T';
   2274                                        //  buf_tx_232[2]=0xd;
   2275                                        send_to_sim900(vol_tx_ppp);
   2276                                         vol_tx_ppp=0;
   2277                                           return;
   2278                  }
   2279                                          
   2280            default:goto bad_com_232;
   2281                                                                         
   2282                   }                                                                     
   2283          
   2284            
   2285            //***//*************************************************************
   2286            
   2287            bad_com_232:                        
   2288                    vol_tx_ppp=0;                                   
   \                     ??write_menu_3:
   \   00000066   ....               RCALL   ?Subroutine2
   2289                    mov_s ( sizeof(err_t),err_t);
   \                     ??CrossCallReturnLabel_321:
   \   00000068   ....               LDI     R18, LOW((versia + 124))
   \   0000006A   ....               LDI     R19, HIGH((versia + 124))
   \   0000006C   E005               LDI     R16, 5
   \                     ??write_menu_9:
   \   0000006E   ....               RCALL   ?Subroutine166
   2290                   // read_menu(index_menu);
   2291                    return;  
   \                     ??CrossCallReturnLabel_366:
   \   00000070   96EF               ADIW    R29:R28, 63
   \   00000072   962B               ADIW    R29:R28, 11
   \   00000074   E0E9               LDI     R30, 9
   \   00000076   ........           JMP     ?EPILOGUE_B9_L09
   \                     ??write_menu_5:
   \   0000007A   ....               RCALL   ?Subroutine80
   \                     ??CrossCallReturnLabel_95:
   \   0000007C   ....               RCALL   ?Subroutine98
   \                     ??CrossCallReturnLabel_281:
   \   0000007E   F781               BRNE    ??write_menu_7
   \   00000080   CFF2               RJMP    ??write_menu_3
   \                     ??write_menu_6:
   \   00000082   ....               RCALL   ?Subroutine81
   \                     ??CrossCallReturnLabel_97:
   \   00000084   CFFB               RJMP    ??CrossCallReturnLabel_95
   \                     ??write_menu_8:
   \   00000086   ....               RCALL   ?Subroutine146
   \                     ??CrossCallReturnLabel_227:
   \   00000088   E104               LDI     R16, 20
   \                     ??write_menu_10:
   \   0000008A   E010               LDI     R17, 0
   \                     ??write_menu_11:
   \   0000008C   ....               RCALL   ??Subroutine163_0
   \                     ??CrossCallReturnLabel_415:
   \   0000008E   C28C               RJMP    ??write_menu_12
   \                     ??write_menu_13:
   \   00000090   ....               RCALL   ?Subroutine3
   \                     ??CrossCallReturnLabel_330:
   \   00000092   F749               BRNE    ??write_menu_3
   \   00000094   910C               LD      R16, X
   \   00000096   5301               SUBI    R16, 49
   \   00000098   F029               BREQ    ??write_menu_14
   \   0000009A   950A               DEC     R16
   \   0000009C   F059               BREQ    ??write_menu_15
   \   0000009E   950A               DEC     R16
   \   000000A0   F069               BREQ    ??write_menu_16
   \   000000A2   CFE1               RJMP    ??write_menu_3
   \                     ??write_menu_14:
   \   000000A4   ....               RCALL   ?Subroutine28
   \                     ??CrossCallReturnLabel_280:
   \   000000A6   F2F9               BREQ    ??write_menu_3
   \                     ??write_menu_17:
   \   000000A8   810C               LDD     R16, Y+4
   \   000000AA   310F               CPI     R16, 31
   \   000000AC   F6E0               BRCC    ??write_menu_3
   \   000000AE   ....               RCALL   ?Subroutine146
   \                     ??CrossCallReturnLabel_228:
   \   000000B0   E500               LDI     R16, 80
   \   000000B2   CFEB               RJMP    ??write_menu_10
   \                     ??write_menu_15:
   \   000000B4   ....               RCALL   ?Subroutine80
   \                     ??CrossCallReturnLabel_96:
   \   000000B6   ....               RCALL   ?Subroutine98
   \                     ??CrossCallReturnLabel_282:
   \   000000B8   F7B9               BRNE    ??write_menu_17
   \   000000BA   CFD5               RJMP    ??write_menu_3
   \                     ??write_menu_16:
   \   000000BC   ....               RCALL   ?Subroutine81
   \                     ??CrossCallReturnLabel_98:
   \   000000BE   CFFB               RJMP    ??CrossCallReturnLabel_96
   \                     ??write_menu_18:
   \   000000C0   ....               RCALL   ?Subroutine126
   \                     ??CrossCallReturnLabel_310:
   \   000000C2   3100               CPI     R16, 16
   \   000000C4   E050               LDI     R21, 0
   \   000000C6   4010               SBCI    R17, 0
   \   000000C8   F671               BRNE    ??write_menu_3
   \   000000CA   E20E               LDI     R16, 46
   \   000000CC   1680               CP      R8, R16
   \   000000CE   F659               BRNE    ??write_menu_3
   \   000000D0   01FD               MOVW    R31:R30, R27:R26
   \   000000D2   8107               LDD     R16, Z+7
   \   000000D4   320E               CPI     R16, 46
   \   000000D6   F639               BRNE    ??write_menu_3
   \   000000D8   8503               LDD     R16, Z+11
   \   000000DA   320E               CPI     R16, 46
   \   000000DC   F621               BRNE    ??write_menu_3
   \   000000DE   E04A               LDI     R20, 10
   \   000000E0   ....               RCALL   ??Subroutine146_1
   \                     ??CrossCallReturnLabel_229:
   \   000000E2   ....               RCALL   ?Subroutine29
   \                     ??CrossCallReturnLabel_387:
   \   000000E4   ....               RCALL   ?Subroutine88
   \                     ??CrossCallReturnLabel_438:
   \   000000E6   F008               BRCS    $+2+2
   \   000000E8   CFBE               RJMP    ??write_menu_3
   \   000000EA   830C               STD     Y+4, R16
   \   000000EC   018D               MOVW    R17:R16, R27:R26
   \   000000EE   5F0C               SUBI    R16, 252
   \   000000F0   4F1F               SBCI    R17, 255
   \   000000F2   ....               RCALL   ??Subroutine88_0
   \                     ??CrossCallReturnLabel_440:
   \   000000F4   F008               BRCS    $+2+2
   \   000000F6   CFB7               RJMP    ??write_menu_3
   \   000000F8   830D               STD     Y+5, R16
   \   000000FA   018D               MOVW    R17:R16, R27:R26
   \   000000FC   5F08               SUBI    R16, 248
   \   000000FE   4F1F               SBCI    R17, 255
   \   00000100   ....               RCALL   ??Subroutine88_0
   \                     ??CrossCallReturnLabel_441:
   \   00000102   F008               BRCS    $+2+2
   \   00000104   CFB0               RJMP    ??write_menu_3
   \   00000106   830E               STD     Y+6, R16
   \   00000108   961C               ADIW    R27:R26, 12
   \   0000010A   ....               RCALL   ?Subroutine88
   \                     ??CrossCallReturnLabel_439:
   \   0000010C   F008               BRCS    $+2+2
   \   0000010E   CFAB               RJMP    ??write_menu_3
   \   00000110   830F               STD     Y+7, R16
   \                     ??write_menu_19:
   \   00000112   ....               RCALL   ?Subroutine58
   \                     ??CrossCallReturnLabel_218:
   \   00000114   E80C               LDI     R16, 140
   \   00000116   CFB9               RJMP    ??write_menu_10
   \                     ??write_menu_20:
   \   00000118   ....               RCALL   ?Subroutine94
   \                     ??CrossCallReturnLabel_444:
   \   0000011A   F008               BRCS    $+2+2
   \   0000011C   CFA4               RJMP    ??write_menu_3
   \   0000011E   ....               RCALL   ?Subroutine82
   \                     ??CrossCallReturnLabel_327:
   \   00000120   ....               RCALL   ?Subroutine25
   \                     ??CrossCallReturnLabel_304:
   \   00000122   CFF7               RJMP    ??write_menu_19
   \                     ??write_menu_21:
   \   00000124   ....               RCALL   ?Subroutine92
   \                     ??CrossCallReturnLabel_275:
   \   00000126   F408               BRCC    $+2+2
   \   00000128   CF9E               RJMP    ??write_menu_3
   \   0000012A   ....               RCALL   ?Subroutine149
   \                     ??CrossCallReturnLabel_446:
   \   0000012C   F008               BRCS    $+2+2
   \   0000012E   CF9B               RJMP    ??write_menu_3
   \   00000130   E020               LDI     R18, 0
   \   00000132   C003               RJMP    ??write_menu_22
   \                     ??write_menu_23:
   \   00000134   9523               INC     R18
   \   00000136   302C               CPI     R18, 12
   \   00000138   F4A8               BRCC    ??write_menu_24
   \                     ??write_menu_22:
   \   0000013A   01FD               MOVW    R31:R30, R27:R26
   \   0000013C   0FE2               ADD     R30, R18
   \   0000013E   1FF4               ADC     R31, R20
   \   00000140   8100               LD      R16, Z
   \   00000142   300D               CPI     R16, 13
   \   00000144   F7B9               BRNE    ??write_menu_23
   \   00000146   9733               SBIW    R31:R30, 3
   \   00000148   8102               LDD     R16, Z+2
   \   0000014A   320A               CPI     R16, 42
   \   0000014C   F459               BRNE    ??write_menu_24
   \   0000014E   8101               LDD     R16, Z+1
   \   00000150   320A               CPI     R16, 42
   \   00000152   F441               BRNE    ??write_menu_24
   \   00000154   8100               LD      R16, Z
   \   00000156   320A               CPI     R16, 42
   \   00000158   F429               BRNE    ??write_menu_24
   \   0000015A   ....               RCALL   ?Subroutine82
   \                     ??CrossCallReturnLabel_328:
   \   0000015C   ....               RCALL   ??Subroutine26_0
   \                     ??CrossCallReturnLabel_35:
   \   0000015E   870A               STD     Y+10, R16
   \   00000160   871B               STD     Y+11, R17
   \   00000162   CFD7               RJMP    ??write_menu_19
   \                     ??write_menu_24:
   \   00000164   ....               RCALL   ?Subroutine132
   \                     ??CrossCallReturnLabel_179:
   \   00000166   8340               ST      Z, R20
   \   00000168   8341               STD     Z+1, R20
   \   0000016A   ....               LDI     R18, LOW((versia + 133))
   \   0000016C   ....               LDI     R19, HIGH((versia + 133))
   \   0000016E   E009               LDI     R16, 9
   \   00000170   CF7E               RJMP    ??write_menu_9
   \                     ??write_menu_25:
   \   00000172   ....               RCALL   ?Subroutine89
   \                     ??CrossCallReturnLabel_272:
   \   00000174   F408               BRCC    $+2+2
   \   00000176   CF77               RJMP    ??write_menu_3
   \   00000178   ....               RCALL   ?Subroutine149
   \                     ??CrossCallReturnLabel_447:
   \   0000017A   F008               BRCS    $+2+2
   \   0000017C   CF74               RJMP    ??write_menu_3
   \   0000017E   ....               RCALL   ?Subroutine26
   \                     ??CrossCallReturnLabel_31:
   \   00000180   830C               STD     Y+4, R16
   \   00000182   831D               STD     Y+5, R17
   \                     ??write_menu_26:
   \   00000184   EF4F               LDI     R20, 255
   \   00000186   EF5F               LDI     R21, 255
   \   00000188   E02C               LDI     R18, 12
   \   0000018A   E030               LDI     R19, 0
   \   0000018C   ....               RCALL   ?Subroutine69
   \                     ??CrossCallReturnLabel_222:
   \   0000018E   E906               LDI     R16, 150
   \   00000190   CF7C               RJMP    ??write_menu_10
   \                     ??write_menu_27:
   \   00000192   ....               RCALL   ?Subroutine89
   \                     ??CrossCallReturnLabel_273:
   \   00000194   F408               BRCC    $+2+2
   \   00000196   CF67               RJMP    ??write_menu_3
   \   00000198   ....               RCALL   ?Subroutine149
   \                     ??CrossCallReturnLabel_448:
   \   0000019A   F008               BRCS    $+2+2
   \   0000019C   CF64               RJMP    ??write_menu_3
   \   0000019E   ....               RCALL   ?Subroutine26
   \                     ??CrossCallReturnLabel_32:
   \   000001A0   870E               STD     Y+14, R16
   \   000001A2   871F               STD     Y+15, R17
   \   000001A4   CFEF               RJMP    ??write_menu_26
   \                     ??write_menu_28:
   \   000001A6   ....               RCALL   ?Subroutine89
   \                     ??CrossCallReturnLabel_274:
   \   000001A8   F408               BRCC    $+2+2
   \   000001AA   CF5D               RJMP    ??write_menu_3
   \   000001AC   ....               RCALL   ?Subroutine149
   \                     ??CrossCallReturnLabel_449:
   \   000001AE   F008               BRCS    $+2+2
   \   000001B0   CF5A               RJMP    ??write_menu_3
   \   000001B2   ....               RCALL   ?Subroutine26
   \                     ??CrossCallReturnLabel_33:
   \   000001B4   830E               STD     Y+6, R16
   \   000001B6   831F               STD     Y+7, R17
   \   000001B8   CFE5               RJMP    ??write_menu_26
   \                     ??write_menu_29:
   \   000001BA   ....               RCALL   ?Subroutine93
   \                     ??CrossCallReturnLabel_277:
   \   000001BC   F408               BRCC    $+2+2
   \   000001BE   CF53               RJMP    ??write_menu_3
   \   000001C0   ....               RCALL   ?Subroutine149
   \                     ??CrossCallReturnLabel_450:
   \   000001C2   F008               BRCS    $+2+2
   \   000001C4   CF50               RJMP    ??write_menu_3
   \   000001C6   ....               RCALL   ?Subroutine83
   \                     ??CrossCallReturnLabel_99:
   \   000001C8   ....               RCALL   ?Subroutine25
   \                     ??CrossCallReturnLabel_305:
   \   000001CA   CFDC               RJMP    ??write_menu_26
   \                     ??write_menu_30:
   \   000001CC   ....               RCALL   ?Subroutine94
   \                     ??CrossCallReturnLabel_445:
   \   000001CE   F008               BRCS    $+2+2
   \   000001D0   CF4A               RJMP    ??write_menu_3
   \   000001D2   ....               RCALL   ?Subroutine26
   \                     ??CrossCallReturnLabel_34:
   \   000001D4   812A               LDD     R18, Y+2
   \   000001D6   813B               LDD     R19, Y+3
   \   000001D8   2B01               OR      R16, R17
   \   000001DA   2B02               OR      R16, R18
   \   000001DC   2B03               OR      R16, R19
   \   000001DE   F031               BREQ    ??write_menu_31
   \   000001E0   ....               RCALL   ?Subroutine137
   \                     ??CrossCallReturnLabel_192:
   \   000001E2   2F51               MOV     R21, R17
   \   000001E4   01B9               MOVW    R23:R22, R19:R18
   \   000001E6   ....               RCALL   ?Subroutine20
   \                     ??CrossCallReturnLabel_27:
   \   000001E8   F008               BRCS    $+2+2
   \   000001EA   CF3D               RJMP    ??write_menu_3
   \                     ??write_menu_31:
   \   000001EC   8108               LD      R16, Y
   \   000001EE   8119               LDD     R17, Y+1
   \   000001F0   870A               STD     Y+10, R16
   \   000001F2   871B               STD     Y+11, R17
   \   000001F4   CFC7               RJMP    ??write_menu_26
   \                     ??write_menu_32:
   \   000001F6   ....               RCALL   ?Subroutine96
   \                     ??CrossCallReturnLabel_118:
   \   000001F8   310E               CPI     R16, 30
   \   000001FA   E040               LDI     R20, 0
   \   000001FC   0714               CPC     R17, R20
   \   000001FE   0724               CPC     R18, R20
   \   00000200   0734               CPC     R19, R20
   \   00000202   F408               BRCC    $+2+2
   \   00000204   CF30               RJMP    ??write_menu_3
   \   00000206   ....               RCALL   ?Subroutine149
   \                     ??CrossCallReturnLabel_451:
   \   00000208   F008               BRCS    $+2+2
   \   0000020A   CF2D               RJMP    ??write_menu_3
   \   0000020C   ....               RCALL   ?Subroutine83
   \                     ??CrossCallReturnLabel_100:
   \   0000020E   ....               RCALL   ??Subroutine29_0
   \                     ??CrossCallReturnLabel_381:
   \   00000210   ....               RCALL   ?Subroutine137
   \                     ??CrossCallReturnLabel_193:
   \   00000212   8159               LDD     R21, Y+1
   \   00000214   816A               LDD     R22, Y+2
   \   00000216   817B               LDD     R23, Y+3
   \   00000218   ....               RCALL   ?Subroutine20
   \                     ??CrossCallReturnLabel_28:
   \   0000021A   F008               BRCS    $+2+2
   \   0000021C   CF24               RJMP    ??write_menu_3
   \   0000021E   874C               STD     Y+12, R20
   \   00000220   875D               STD     Y+13, R21
   \   00000222   CFB0               RJMP    ??write_menu_26
   \                     ??write_menu_33:
   \   00000224   ....               RCALL   ?Subroutine126
   \                     ??CrossCallReturnLabel_311:
   \   00000226   3002               CPI     R16, 2
   \   00000228   E050               LDI     R21, 0
   \   0000022A   4010               SBCI    R17, 0
   \   0000022C   F009               BREQ    $+2+2
   \   0000022E   CF1B               RJMP    ??write_menu_3
   \   00000230   ....               RCALL   ?Subroutine135
   \                     ??CrossCallReturnLabel_182:
   \   00000232   F019               BREQ    ??write_menu_34
   \   00000234   3301               CPI     R16, 49
   \   00000236   F009               BREQ    $+2+2
   \   00000238   CF16               RJMP    ??write_menu_3
   \                     ??write_menu_34:
   \   0000023A   5300               SUBI    R16, 48
   \   0000023C   8308               ST      Y, R16
   \   0000023E   E04B               LDI     R20, 11
   \   00000240   ....               RCALL   ??Subroutine27_0
   \                     ??CrossCallReturnLabel_41:
   \   00000242   830C               STD     Y+4, R16
   \                     ??write_menu_35:
   \   00000244   ....               RCALL   ?Subroutine67
   \                     ??CrossCallReturnLabel_316:
   \   00000246   5F0C               SUBI    R16, 252
   \   00000248   4F1F               SBCI    R17, 255
   \   0000024A   ........           CALL    crc_m1
   \   0000024E   870D               STD     Y+13, R16
   \   00000250   871E               STD     Y+14, R17
   \   00000252   E070               LDI     R23, 0
   \   00000254   E060               LDI     R22, 0
   \   00000256   ....               RCALL   ?Subroutine78
   \                     ??CrossCallReturnLabel_88:
   \   00000258   CF18               RJMP    ??write_menu_10
   \                     ??write_menu_36:
   \   0000025A   ....               RCALL   ?Subroutine92
   \                     ??CrossCallReturnLabel_276:
   \   0000025C   F408               BRCC    $+2+2
   \   0000025E   CF03               RJMP    ??write_menu_3
   \   00000260   ....               RCALL   ?Subroutine149
   \                     ??CrossCallReturnLabel_452:
   \   00000262   F008               BRCS    $+2+2
   \   00000264   CF00               RJMP    ??write_menu_3
   \   00000266   ....               RCALL   ?Subroutine78
   \                     ??CrossCallReturnLabel_89:
   \   00000268   ....               RCALL   ??Subroutine26_0
   \                     ??CrossCallReturnLabel_36:
   \   0000026A   830D               STD     Y+5, R16
   \   0000026C   831E               STD     Y+6, R17
   \   0000026E   CFEA               RJMP    ??write_menu_35
   \                     ??write_menu_37:
   \   00000270   ....               RCALL   ?Subroutine90
   \                     ??CrossCallReturnLabel_115:
   \   00000272   F409               BRNE    $+2+2
   \   00000274   CEF8               RJMP    ??write_menu_3
   \   00000276   8108               LD      R16, Y
   \   00000278   ....               RCALL   ?Subroutine149
   \                     ??CrossCallReturnLabel_453:
   \   0000027A   F008               BRCS    $+2+2
   \   0000027C   CEF4               RJMP    ??write_menu_3
   \   0000027E   ....               RCALL   ?Subroutine78
   \                     ??CrossCallReturnLabel_90:
   \   00000280   ....               RCALL   ??Subroutine26_0
   \                     ??CrossCallReturnLabel_37:
   \   00000282   830F               STD     Y+7, R16
   \   00000284   8718               STD     Y+8, R17
   \   00000286   CFDE               RJMP    ??write_menu_35
   \                     ??write_menu_38:
   \   00000288   ....               RCALL   ?Subroutine93
   \                     ??CrossCallReturnLabel_278:
   \   0000028A   F408               BRCC    $+2+2
   \   0000028C   CEEC               RJMP    ??write_menu_3
   \   0000028E   ....               RCALL   ?Subroutine149
   \                     ??CrossCallReturnLabel_454:
   \   00000290   F008               BRCS    $+2+2
   \   00000292   CEE9               RJMP    ??write_menu_3
   \   00000294   ....               RCALL   ?Subroutine78
   \                     ??CrossCallReturnLabel_91:
   \   00000296   ....               RCALL   ??Subroutine26_0
   \                     ??CrossCallReturnLabel_38:
   \   00000298   8709               STD     Y+9, R16
   \   0000029A   871A               STD     Y+10, R17
   \   0000029C   CFD3               RJMP    ??write_menu_35
   \                     ??write_menu_39:
   \   0000029E   ....               RCALL   ?Subroutine96
   \                     ??CrossCallReturnLabel_119:
   \   000002A0   3003               CPI     R16, 3
   \   000002A2   ....               RCALL   ?Subroutine172
   \                     ??CrossCallReturnLabel_455:
   \   000002A4   F008               BRCS    $+2+2
   \   000002A6   CEDF               RJMP    ??write_menu_3
   \   000002A8   ....               RCALL   ?Subroutine27
   \                     ??CrossCallReturnLabel_39:
   \   000002AA   870B               STD     Y+11, R16
   \   000002AC   CFCB               RJMP    ??write_menu_35
   \                     ??write_menu_40:
   \   000002AE   ....               RCALL   ?Subroutine96
   \                     ??CrossCallReturnLabel_120:
   \   000002B0   ....               RCALL   ??Subroutine3_0
   \                     ??CrossCallReturnLabel_331:
   \   000002B2   4020               SBCI    R18, 0
   \   000002B4   4030               SBCI    R19, 0
   \   000002B6   F008               BRCS    $+2+2
   \   000002B8   CED6               RJMP    ??write_menu_3
   \   000002BA   ....               RCALL   ?Subroutine27
   \                     ??CrossCallReturnLabel_40:
   \   000002BC   870C               STD     Y+12, R16
   \   000002BE   CFC2               RJMP    ??write_menu_35
   \                     ??write_menu_41:
   \   000002C0   ....               RCALL   ?Subroutine96
   \                     ??CrossCallReturnLabel_121:
   \   000002C2   3004               CPI     R16, 4
   \   000002C4   ....               RCALL   ?Subroutine172
   \                     ??CrossCallReturnLabel_456:
   \   000002C6   F008               BRCS    $+2+2
   \   000002C8   CECE               RJMP    ??write_menu_3
   \   000002CA   E043               LDI     R20, 3
   \   000002CC   ....               RCALL   ?Subroutine169
   \                     ??CrossCallReturnLabel_399:
   \   000002CE   C16C               RJMP    ??write_menu_12
   \                     ??write_menu_42:
   \   000002D0   ....               RCALL   ?Subroutine131
   \                     ??CrossCallReturnLabel_175:
   \   000002D2   F408               BRCC    $+2+2
   \   000002D4   CEC8               RJMP    ??write_menu_3
   \   000002D6   ....               RCALL   ?Subroutine36
   \                     ??CrossCallReturnLabel_335:
   \   000002D8   F008               BRCS    $+2+2
   \   000002DA   CEC5               RJMP    ??write_menu_3
   \   000002DC   910C               LD      R16, X
   \   000002DE   3202               CPI     R16, 34
   \   000002E0   F009               BREQ    $+2+2
   \   000002E2   CEC1               RJMP    ??write_menu_3
   \   000002E4   ....               RCALL   ?Subroutine139
   \                     ??CrossCallReturnLabel_194:
   \   000002E6   F009               BREQ    $+2+2
   \   000002E8   CEBE               RJMP    ??write_menu_3
   \   000002EA   ....               RCALL   ?Subroutine87
   \                     ??CrossCallReturnLabel_255:
   \   000002EC   EF0A               LDI     R16, 250
   \   000002EE   ....               RCALL   ??Subroutine29_0
   \                     ??CrossCallReturnLabel_380:
   \   000002F0   E020               LDI     R18, 0
   \   000002F2   E001               LDI     R16, 1
   \   000002F4   C001               RJMP    ??CrossCallReturnLabel_352
   \                     ??write_menu_43:
   \   000002F6   ....               RCALL   ?Subroutine46
   \                     ??CrossCallReturnLabel_352:
   \   000002F8   ....               RCALL   ?Subroutine9
   \                     ??CrossCallReturnLabel_263:
   \   000002FA   F7E9               BRNE    ??write_menu_43
   \   000002FC   ....               RCALL   ?Subroutine18
   \                     ??CrossCallReturnLabel_21:
   \   000002FE   F008               BRCS    $+2+2
   \   00000300   CEB2               RJMP    ??write_menu_3
   \   00000302   ....               RCALL   ?Subroutine33
   \                     ??CrossCallReturnLabel_257:
   \   00000304   F009               BREQ    $+2+2
   \   00000306   CEAF               RJMP    ??write_menu_3
   \   00000308   ....               RCALL   ?Subroutine15
   \                     ??CrossCallReturnLabel_12:
   \   0000030A   F008               BRCS    $+2+2
   \   0000030C   CEAC               RJMP    ??write_menu_3
   \   0000030E   832C               STD     Y+4, R18
   \   00000310   E020               LDI     R18, 0
   \   00000312   C001               RJMP    ??CrossCallReturnLabel_349
   \                     ??write_menu_44:
   \   00000314   ....               RCALL   ?Subroutine34
   \                     ??CrossCallReturnLabel_349:
   \   00000316   811C               LDD     R17, Y+4
   \   00000318   1721               CP      R18, R17
   \   0000031A   F3E0               BRCS    ??write_menu_44
   \   0000031C   ....               RCALL   ?Subroutine47
   \                     ??CrossCallReturnLabel_57:
   \   0000031E   C001               RJMP    ??CrossCallReturnLabel_353
   \                     ??write_menu_45:
   \   00000320   ....               RCALL   ?Subroutine46
   \                     ??CrossCallReturnLabel_353:
   \   00000322   ....               RCALL   ?Subroutine9
   \                     ??CrossCallReturnLabel_264:
   \   00000324   F7E9               BRNE    ??write_menu_45
   \   00000326   ....               RCALL   ??Subroutine18_0
   \                     ??CrossCallReturnLabel_22:
   \   00000328   F008               BRCS    $+2+2
   \   0000032A   CE9D               RJMP    ??write_menu_3
   \   0000032C   ....               RCALL   ?Subroutine33
   \                     ??CrossCallReturnLabel_258:
   \   0000032E   F009               BREQ    $+2+2
   \   00000330   CE9A               RJMP    ??write_menu_3
   \   00000332   ....               RCALL   ??Subroutine15_0
   \                     ??CrossCallReturnLabel_13:
   \   00000334   F008               BRCS    $+2+2
   \   00000336   CE97               RJMP    ??write_menu_3
   \   00000338   ....               RCALL   ?Subroutine138
   \                     ??CrossCallReturnLabel_283:
   \   0000033A   C001               RJMP    ??CrossCallReturnLabel_346
   \                     ??write_menu_46:
   \   0000033C   ....               RCALL   ?Subroutine32
   \                     ??CrossCallReturnLabel_346:
   \   0000033E   ....               RCALL   ?Subroutine140
   \                     ??CrossCallReturnLabel_197:
   \   00000340   F3E8               BRCS    ??write_menu_46
   \   00000342   9513               INC     R17
   \   00000344   0F41               ADD     R20, R17
   \   00000346   ....               RCALL   ??Subroutine47_0
   \                     ??CrossCallReturnLabel_60:
   \   00000348   C001               RJMP    ??CrossCallReturnLabel_354
   \                     ??write_menu_47:
   \   0000034A   ....               RCALL   ?Subroutine46
   \                     ??CrossCallReturnLabel_354:
   \   0000034C   ....               RCALL   ?Subroutine35
   \                     ??CrossCallReturnLabel_269:
   \   0000034E   F7E9               BRNE    ??write_menu_47
   \   00000350   ....               RCALL   ??Subroutine15_0
   \                     ??CrossCallReturnLabel_14:
   \   00000352   F008               BRCS    $+2+2
   \   00000354   CE88               RJMP    ??write_menu_3
   \   00000356   ....               RCALL   ?Subroutine31
   \                     ??CrossCallReturnLabel_224:
   \   00000358   EF0A               LDI     R16, 250
   \   0000035A   CE97               RJMP    ??write_menu_10
   \                     ??write_menu_48:
   \   0000035C   ....               RCALL   ?Subroutine131
   \                     ??CrossCallReturnLabel_176:
   \   0000035E   F408               BRCC    $+2+2
   \   00000360   CE82               RJMP    ??write_menu_3
   \   00000362   ....               RCALL   ?Subroutine36
   \                     ??CrossCallReturnLabel_336:
   \   00000364   F008               BRCS    $+2+2
   \   00000366   CE7F               RJMP    ??write_menu_3
   \   00000368   910C               LD      R16, X
   \   0000036A   3202               CPI     R16, 34
   \   0000036C   F009               BREQ    $+2+2
   \   0000036E   CE7B               RJMP    ??write_menu_3
   \   00000370   ....               RCALL   ?Subroutine139
   \                     ??CrossCallReturnLabel_195:
   \   00000372   F009               BREQ    $+2+2
   \   00000374   CE78               RJMP    ??write_menu_3
   \   00000376   ....               RCALL   ?Subroutine87
   \                     ??CrossCallReturnLabel_256:
   \   00000378   ....               RCALL   ?Subroutine99
   \                     ??CrossCallReturnLabel_396:
   \   0000037A   E020               LDI     R18, 0
   \   0000037C   E001               LDI     R16, 1
   \   0000037E   C001               RJMP    ??CrossCallReturnLabel_355
   \                     ??write_menu_49:
   \   00000380   ....               RCALL   ?Subroutine46
   \                     ??CrossCallReturnLabel_355:
   \   00000382   ....               RCALL   ?Subroutine9
   \                     ??CrossCallReturnLabel_265:
   \   00000384   F7E9               BRNE    ??write_menu_49
   \   00000386   ....               RCALL   ?Subroutine18
   \                     ??CrossCallReturnLabel_23:
   \   00000388   F008               BRCS    $+2+2
   \   0000038A   CE6D               RJMP    ??write_menu_3
   \   0000038C   ....               RCALL   ?Subroutine33
   \                     ??CrossCallReturnLabel_259:
   \   0000038E   F009               BREQ    $+2+2
   \   00000390   CE6A               RJMP    ??write_menu_3
   \   00000392   ....               RCALL   ?Subroutine15
   \                     ??CrossCallReturnLabel_15:
   \   00000394   F008               BRCS    $+2+2
   \   00000396   CE67               RJMP    ??write_menu_3
   \   00000398   832C               STD     Y+4, R18
   \   0000039A   E020               LDI     R18, 0
   \   0000039C   C001               RJMP    ??CrossCallReturnLabel_350
   \                     ??write_menu_50:
   \   0000039E   ....               RCALL   ?Subroutine34
   \                     ??CrossCallReturnLabel_350:
   \   000003A0   811C               LDD     R17, Y+4
   \   000003A2   1721               CP      R18, R17
   \   000003A4   F3E0               BRCS    ??write_menu_50
   \   000003A6   ....               RCALL   ?Subroutine47
   \                     ??CrossCallReturnLabel_58:
   \   000003A8   C001               RJMP    ??CrossCallReturnLabel_356
   \                     ??write_menu_51:
   \   000003AA   ....               RCALL   ?Subroutine46
   \                     ??CrossCallReturnLabel_356:
   \   000003AC   ....               RCALL   ?Subroutine9
   \                     ??CrossCallReturnLabel_266:
   \   000003AE   F7E9               BRNE    ??write_menu_51
   \   000003B0   ....               RCALL   ??Subroutine18_0
   \                     ??CrossCallReturnLabel_24:
   \   000003B2   F008               BRCS    $+2+2
   \   000003B4   CE58               RJMP    ??write_menu_3
   \   000003B6   ....               RCALL   ?Subroutine33
   \                     ??CrossCallReturnLabel_260:
   \   000003B8   F009               BREQ    $+2+2
   \   000003BA   CE55               RJMP    ??write_menu_3
   \   000003BC   ....               RCALL   ??Subroutine15_0
   \                     ??CrossCallReturnLabel_16:
   \   000003BE   F008               BRCS    $+2+2
   \   000003C0   CE52               RJMP    ??write_menu_3
   \   000003C2   ....               RCALL   ?Subroutine138
   \                     ??CrossCallReturnLabel_284:
   \   000003C4   C001               RJMP    ??CrossCallReturnLabel_347
   \                     ??write_menu_52:
   \   000003C6   ....               RCALL   ?Subroutine32
   \                     ??CrossCallReturnLabel_347:
   \   000003C8   ....               RCALL   ?Subroutine140
   \                     ??CrossCallReturnLabel_198:
   \   000003CA   F3E8               BRCS    ??write_menu_52
   \   000003CC   9513               INC     R17
   \   000003CE   0F41               ADD     R20, R17
   \   000003D0   ....               RCALL   ??Subroutine47_0
   \                     ??CrossCallReturnLabel_61:
   \   000003D2   C001               RJMP    ??CrossCallReturnLabel_357
   \                     ??write_menu_53:
   \   000003D4   ....               RCALL   ?Subroutine46
   \                     ??CrossCallReturnLabel_357:
   \   000003D6   ....               RCALL   ?Subroutine35
   \                     ??CrossCallReturnLabel_270:
   \   000003D8   F7E9               BRNE    ??write_menu_53
   \   000003DA   ....               RCALL   ??Subroutine15_0
   \                     ??CrossCallReturnLabel_17:
   \   000003DC   F008               BRCS    $+2+2
   \   000003DE   CE43               RJMP    ??write_menu_3
   \   000003E0   ....               RCALL   ?Subroutine31
   \                     ??CrossCallReturnLabel_225:
   \   000003E2   E306               LDI     R16, 54
   \                     ??write_menu_54:
   \   000003E4   E011               LDI     R17, 1
   \   000003E6   CE52               RJMP    ??write_menu_11
   \                     ??write_menu_55:
   \   000003E8   ....               RCALL   ?Subroutine131
   \                     ??CrossCallReturnLabel_177:
   \   000003EA   F408               BRCC    $+2+2
   \   000003EC   CE3C               RJMP    ??write_menu_3
   \   000003EE   ....               RCALL   ?Subroutine36
   \                     ??CrossCallReturnLabel_337:
   \   000003F0   F008               BRCS    $+2+2
   \   000003F2   CE39               RJMP    ??write_menu_3
   \   000003F4   910C               LD      R16, X
   \   000003F6   3202               CPI     R16, 34
   \   000003F8   F009               BREQ    $+2+2
   \   000003FA   CE35               RJMP    ??write_menu_3
   \   000003FC   ....               RCALL   ?Subroutine139
   \                     ??CrossCallReturnLabel_196:
   \   000003FE   F009               BREQ    $+2+2
   \   00000400   CE32               RJMP    ??write_menu_3
   \   00000402   E34C               LDI     R20, 60
   \   00000404   019E               MOVW    R19:R18, R29:R28
   \   00000406   5F2C               SUBI    R18, 252
   \   00000408   ....               RCALL   ?Subroutine52
   \                     ??CrossCallReturnLabel_390:
   \   0000040A   E020               LDI     R18, 0
   \   0000040C   E001               LDI     R16, 1
   \   0000040E   C001               RJMP    ??CrossCallReturnLabel_358
   \                     ??write_menu_56:
   \   00000410   ....               RCALL   ?Subroutine46
   \                     ??CrossCallReturnLabel_358:
   \   00000412   ....               RCALL   ?Subroutine9
   \                     ??CrossCallReturnLabel_267:
   \   00000414   F7E9               BRNE    ??write_menu_56
   \   00000416   ....               RCALL   ?Subroutine18
   \                     ??CrossCallReturnLabel_25:
   \   00000418   F008               BRCS    $+2+2
   \   0000041A   CE25               RJMP    ??write_menu_3
   \   0000041C   ....               RCALL   ?Subroutine33
   \                     ??CrossCallReturnLabel_261:
   \   0000041E   F009               BREQ    $+2+2
   \   00000420   CE22               RJMP    ??write_menu_3
   \   00000422   ....               RCALL   ?Subroutine15
   \                     ??CrossCallReturnLabel_18:
   \   00000424   F008               BRCS    $+2+2
   \   00000426   CE1F               RJMP    ??write_menu_3
   \   00000428   832C               STD     Y+4, R18
   \   0000042A   E020               LDI     R18, 0
   \   0000042C   C001               RJMP    ??CrossCallReturnLabel_351
   \                     ??write_menu_57:
   \   0000042E   ....               RCALL   ?Subroutine34
   \                     ??CrossCallReturnLabel_351:
   \   00000430   811C               LDD     R17, Y+4
   \   00000432   1721               CP      R18, R17
   \   00000434   F3E0               BRCS    ??write_menu_57
   \   00000436   ....               RCALL   ?Subroutine47
   \                     ??CrossCallReturnLabel_59:
   \   00000438   C001               RJMP    ??CrossCallReturnLabel_359
   \                     ??write_menu_58:
   \   0000043A   ....               RCALL   ?Subroutine46
   \                     ??CrossCallReturnLabel_359:
   \   0000043C   ....               RCALL   ?Subroutine9
   \                     ??CrossCallReturnLabel_268:
   \   0000043E   F7E9               BRNE    ??write_menu_58
   \   00000440   ....               RCALL   ??Subroutine18_0
   \                     ??CrossCallReturnLabel_26:
   \   00000442   F008               BRCS    $+2+2
   \   00000444   CE10               RJMP    ??write_menu_3
   \   00000446   ....               RCALL   ?Subroutine33
   \                     ??CrossCallReturnLabel_262:
   \   00000448   F009               BREQ    $+2+2
   \   0000044A   CE0D               RJMP    ??write_menu_3
   \   0000044C   ....               RCALL   ??Subroutine15_0
   \                     ??CrossCallReturnLabel_19:
   \   0000044E   F008               BRCS    $+2+2
   \   00000450   CE0A               RJMP    ??write_menu_3
   \   00000452   ....               RCALL   ?Subroutine138
   \                     ??CrossCallReturnLabel_285:
   \   00000454   C001               RJMP    ??CrossCallReturnLabel_348
   \                     ??write_menu_59:
   \   00000456   ....               RCALL   ?Subroutine32
   \                     ??CrossCallReturnLabel_348:
   \   00000458   ....               RCALL   ?Subroutine140
   \                     ??CrossCallReturnLabel_199:
   \   0000045A   F3E8               BRCS    ??write_menu_59
   \   0000045C   9513               INC     R17
   \   0000045E   0F41               ADD     R20, R17
   \   00000460   ....               RCALL   ??Subroutine47_0
   \                     ??CrossCallReturnLabel_62:
   \   00000462   C001               RJMP    ??CrossCallReturnLabel_360
   \                     ??write_menu_60:
   \   00000464   ....               RCALL   ?Subroutine46
   \                     ??CrossCallReturnLabel_360:
   \   00000466   ....               RCALL   ?Subroutine35
   \                     ??CrossCallReturnLabel_271:
   \   00000468   F7E9               BRNE    ??write_menu_60
   \   0000046A   ....               RCALL   ??Subroutine15_0
   \                     ??CrossCallReturnLabel_20:
   \   0000046C   F008               BRCS    $+2+2
   \   0000046E   CDFB               RJMP    ??write_menu_3
   \   00000470   ....               RCALL   ?Subroutine31
   \                     ??CrossCallReturnLabel_226:
   \   00000472   E702               LDI     R16, 114
   \   00000474   CFB7               RJMP    ??write_menu_54
   \                     ??write_menu_61:
   \   00000476   ....               RCALL   ?Subroutine136
   \                     ??CrossCallReturnLabel_189:
   \   00000478   F009               BREQ    $+2+2
   \   0000047A   CDE4               RJMP    ??write_menu_1
   \   0000047C   ....               RCALL   ?Subroutine165
   \                     ??CrossCallReturnLabel_524:
   \   0000047E   ....               RCALL   test_loop
   \   00000480   ....               RCALL   test_loop2
   \   00000482   ....               RCALL   ?Subroutine103
   \                     ??CrossCallReturnLabel_476:
   \   00000484   CDDF               RJMP    ??write_menu_1
   \                     ??write_menu_62:
   \   00000486   ....               RCALL   ?Subroutine3
   \                     ??CrossCallReturnLabel_332:
   \   00000488   F009               BREQ    $+2+2
   \   0000048A   CDED               RJMP    ??write_menu_3
   \   0000048C   ....               RCALL   ?Subroutine136
   \                     ??CrossCallReturnLabel_190:
   \   0000048E   F009               BREQ    $+2+2
   \   00000490   CDEA               RJMP    ??write_menu_3
   \   00000492   ....               RCALL   ?Subroutine4
   \                     ??CrossCallReturnLabel_401:
   \   00000494   ....               RCALL   vosstan_memory
   \   00000496   C088               RJMP    ??write_menu_12
   \                     ??write_menu_63:
   \   00000498   ....               RCALL   ?Subroutine123
   \                     ??CrossCallReturnLabel_340:
   \   0000049A   F009               BREQ    $+2+2
   \   0000049C   CDE4               RJMP    ??write_menu_3
   \   0000049E   339A               CPI     R25, 58
   \   000004A0   F019               BREQ    ??write_menu_64
   \   000004A2   329E               CPI     R25, 46
   \   000004A4   F009               BREQ    $+2+2
   \   000004A6   CDDF               RJMP    ??write_menu_3
   \                     ??write_menu_64:
   \   000004A8   01FD               MOVW    R31:R30, R27:R26
   \   000004AA   8105               LDD     R16, Z+5
   \   000004AC   330A               CPI     R16, 58
   \   000004AE   F019               BREQ    ??write_menu_65
   \   000004B0   320E               CPI     R16, 46
   \   000004B2   F009               BREQ    $+2+2
   \   000004B4   CDD8               RJMP    ??write_menu_3
   \                     ??write_menu_65:
   \   000004B6   ....               RCALL   ?Subroutine107
   \                     ??CrossCallReturnLabel_128:
   \   000004B8   8104               LDD     R16, Z+4
   \   000004BA   830F               STD     Y+7, R16
   \   000004BC   8105               LDD     R16, Z+5
   \   000004BE   8708               STD     Y+8, R16
   \   000004C0   8106               LDD     R16, Z+6
   \   000004C2   8709               STD     Y+9, R16
   \   000004C4   018D               MOVW    R17:R16, R27:R26
   \   000004C6   5F0A               SUBI    R16, 250
   \   000004C8   ....               RCALL   ?Subroutine95
   \                     ??CrossCallReturnLabel_442:
   \   000004CA   F008               BRCS    $+2+2
   \   000004CC   CDCC               RJMP    ??write_menu_3
   \   000004CE   830C               STD     Y+4, R16
   \   000004D0   018D               MOVW    R17:R16, R27:R26
   \   000004D2   5F0D               SUBI    R16, 253
   \   000004D4   ....               RCALL   ?Subroutine95
   \                     ??CrossCallReturnLabel_443:
   \   000004D6   F008               BRCS    $+2+2
   \   000004D8   CDC6               RJMP    ??write_menu_3
   \   000004DA   830D               STD     Y+5, R16
   \   000004DC   ....               RCALL   ?Subroutine96
   \                     ??CrossCallReturnLabel_122:
   \   000004DE   3108               CPI     R16, 24
   \   000004E0   ....               RCALL   ?Subroutine172
   \                     ??CrossCallReturnLabel_457:
   \   000004E2   F008               BRCS    $+2+2
   \   000004E4   CDC0               RJMP    ??write_menu_3
   \   000004E6   830E               STD     Y+6, R16
   \                     ??write_menu_66:
   \   000004E8   ....               RCALL   ??Subroutine146_1
   \                     ??CrossCallReturnLabel_230:
   \   000004EA   E002               LDI     R16, 2
   \   000004EC   ........           CALL    set_rlt
   \   000004F0   C05B               RJMP    ??write_menu_12
   \                     ??write_menu_67:
   \   000004F2   ....               RCALL   ?Subroutine123
   \                     ??CrossCallReturnLabel_341:
   \   000004F4   F009               BREQ    $+2+2
   \   000004F6   CDB7               RJMP    ??write_menu_3
   \   000004F8   329E               CPI     R25, 46
   \   000004FA   F009               BREQ    $+2+2
   \   000004FC   CDB4               RJMP    ??write_menu_3
   \   000004FE   01FD               MOVW    R31:R30, R27:R26
   \   00000500   8105               LDD     R16, Z+5
   \   00000502   320E               CPI     R16, 46
   \   00000504   F009               BREQ    $+2+2
   \   00000506   CDAF               RJMP    ??write_menu_3
   \   00000508   ....               RCALL   ?Subroutine107
   \                     ??CrossCallReturnLabel_129:
   \   0000050A   8100               LD      R16, Z
   \   0000050C   830C               STD     Y+4, R16
   \   0000050E   8101               LDD     R16, Z+1
   \   00000510   830D               STD     Y+5, R16
   \   00000512   8102               LDD     R16, Z+2
   \   00000514   830E               STD     Y+6, R16
   \   00000516   ....               RCALL   ?Subroutine90
   \                     ??CrossCallReturnLabel_116:
   \   00000518   F409               BRNE    $+2+2
   \   0000051A   CDA5               RJMP    ??write_menu_3
   \   0000051C   8108               LD      R16, Y
   \   0000051E   3200               CPI     R16, 32
   \   00000520   ....               RCALL   ?Subroutine172
   \                     ??CrossCallReturnLabel_458:
   \   00000522   F008               BRCS    $+2+2
   \   00000524   CDA0               RJMP    ??write_menu_3
   \   00000526   830F               STD     Y+7, R16
   \   00000528   018D               MOVW    R17:R16, R27:R26
   \   0000052A   5F0D               SUBI    R16, 253
   \   0000052C   4F1F               SBCI    R17, 255
   \   0000052E   ....               RCALL   ??Subroutine90_0
   \                     ??CrossCallReturnLabel_117:
   \   00000530   F409               BRNE    $+2+2
   \   00000532   CD99               RJMP    ??write_menu_3
   \   00000534   8108               LD      R16, Y
   \   00000536   300D               CPI     R16, 13
   \   00000538   ....               RCALL   ?Subroutine172
   \                     ??CrossCallReturnLabel_459:
   \   0000053A   F008               BRCS    $+2+2
   \   0000053C   CD94               RJMP    ??write_menu_3
   \   0000053E   8708               STD     Y+8, R16
   \   00000540   9616               ADIW    R27:R26, 6
   \   00000542   ....               RCALL   ?Subroutine96
   \                     ??CrossCallReturnLabel_123:
   \   00000544   8709               STD     Y+9, R16
   \   00000546   CFD0               RJMP    ??write_menu_66
   \                     ??write_menu_68:
   \   00000548   ....               RCALL   ?Subroutine126
   \                     ??CrossCallReturnLabel_312:
   \   0000054A   3002               CPI     R16, 2
   \   0000054C   E020               LDI     R18, 0
   \   0000054E   0712               CPC     R17, R18
   \   00000550   F451               BRNE    ??write_menu_69
   \   00000552   ....               RCALL   ?Subroutine135
   \                     ??CrossCallReturnLabel_183:
   \   00000554   F009               BREQ    $+2+2
   \   00000556   CD87               RJMP    ??write_menu_3
   \   00000558   ....               RCALL   ?Subroutine75
   \                     ??CrossCallReturnLabel_85:
   \   0000055A   E030               LDI     R19, 0
   \   0000055C   ....               RCALL   ?Subroutine97
   \                     ??CrossCallReturnLabel_416:
   \   0000055E   E000               LDI     R16, 0
   \   00000560   9300....           STS     point_log_buf, R16
   \   00000564   C021               RJMP    ??write_menu_12
   \                     ??write_menu_69:
   \   00000566   3004               CPI     R16, 4
   \   00000568   4010               SBCI    R17, 0
   \   0000056A   F009               BREQ    $+2+2
   \   0000056C   CD7C               RJMP    ??write_menu_3
   \   0000056E   910C               LD      R16, X
   \   00000570   360C               CPI     R16, 108
   \   00000572   F009               BREQ    $+2+2
   \   00000574   CD78               RJMP    ??write_menu_3
   \   00000576   368F               CPI     R24, 111
   \   00000578   F009               BREQ    $+2+2
   \   0000057A   CD75               RJMP    ??write_menu_3
   \   0000057C   3697               CPI     R25, 103
   \   0000057E   F009               BREQ    $+2+2
   \   00000580   CD72               RJMP    ??write_menu_3
   \   00000582   EF40               LDI     R20, 240
   \   00000584   E050               LDI     R21, 0
   \   00000586   019D               MOVW    R19:R18, R27:R26
   \   00000588   EF04               LDI     R16, 244
   \   0000058A   ....               RCALL   ??Subroutine99_0
   \                     ??CrossCallReturnLabel_395:
   \   0000058C   E00D               LDI     R16, 13
   \   0000058E   ....               RCALL   ??Subroutine167_0
   \                     ??CrossCallReturnLabel_484:
   \   00000590   E00A               LDI     R16, 10
   \   00000592   ....               RCALL   ??Subroutine167_0
   \                     ??CrossCallReturnLabel_483:
   \   00000594   E080               LDI     R24, 0
   \                     ??write_menu_70:
   \   00000596   E090               LDI     R25, 0
   \   00000598   01FD               MOVW    R31:R30, R27:R26
   \   0000059A   0FE8               ADD     R30, R24
   \   0000059C   1FF9               ADC     R31, R25
   \   0000059E   8100               LD      R16, Z
   \   000005A0   ....               RCALL   ??Subroutine167_0
   \                     ??CrossCallReturnLabel_482:
   \   000005A2   9583               INC     R24
   \   000005A4   3F80               CPI     R24, 240
   \   000005A6   F3B8               BRCS    ??write_menu_70
   \                     ??write_menu_12:
   \   000005A8   ....               RCALL   ?Subroutine1
   \                     ??CrossCallReturnLabel_2:
   \   000005AA   CD61               RJMP    ??write_menu_9
   \                     ??write_menu_71:
   \   000005AC   ....               RCALL   ?Subroutine39
   \                     ??CrossCallReturnLabel_338:
   \   000005AE   F009               BREQ    $+2+2
   \   000005B0   CD5A               RJMP    ??write_menu_3
   \   000005B2   ....               RCALL   ?Subroutine136
   \                     ??CrossCallReturnLabel_191:
   \   000005B4   F009               BREQ    $+2+2
   \   000005B6   CD57               RJMP    ??write_menu_3
   \                     ??write_menu_72:
   \   000005B8   E010               LDI     R17, 0
   \   000005BA   ....               LDI     R30, LOW((versia + 22))
   \   000005BC   ....               LDI     R31, HIGH((versia + 22))
   \   000005BE   0FE2               ADD     R30, R18
   \   000005C0   1FF1               ADC     R31, R17
   \   000005C2   9134               LPM     R19, Z
   \   000005C4   01FE               MOVW    R31:R30, R29:R28
   \   000005C6   9634               ADIW    R31:R30, 4
   \   000005C8   ....               RCALL   ?Subroutine56
   \                     ??CrossCallReturnLabel_362:
   \   000005CA   3028               CPI     R18, 8
   \   000005CC   F3A8               BRCS    ??write_menu_72
   \   000005CE   ....               RCALL   ?Subroutine58
   \                     ??CrossCallReturnLabel_219:
   \   000005D0   ....               RCALL   ?Subroutine110
   \                     ??CrossCallReturnLabel_136:
   \   000005D2   ....               RCALL   ??Subroutine163_0
   \                     ??CrossCallReturnLabel_414:
   \   000005D4   ....               RCALL   check_keys
   \   000005D6   3001               CPI     R16, 1
   \   000005D8   F739               BRNE    ??write_menu_12
   \   000005DA   CD45               RJMP    ??write_menu_3
   \                     ??write_menu_73:
   \   000005DC   ....               RCALL   ?Subroutine124
   \                     ??CrossCallReturnLabel_342:
   \   000005DE   F009               BREQ    $+2+2
   \   000005E0   CD42               RJMP    ??write_menu_3
   \   000005E2   910C               LD      R16, X
   \   000005E4   320E               CPI     R16, 46
   \   000005E6   F031               BREQ    ??write_menu_74
   \   000005E8   3300               CPI     R16, 48
   \   000005EA   F408               BRCC    $+2+2
   \   000005EC   CD3C               RJMP    ??write_menu_3
   \   000005EE   330A               CPI     R16, 58
   \   000005F0   F008               BRCS    $+2+2
   \   000005F2   CD39               RJMP    ??write_menu_3
   \                     ??write_menu_74:
   \   000005F4   328E               CPI     R24, 46
   \   000005F6   F031               BREQ    ??write_menu_75
   \   000005F8   3380               CPI     R24, 48
   \   000005FA   F408               BRCC    $+2+2
   \   000005FC   CD34               RJMP    ??write_menu_3
   \   000005FE   338A               CPI     R24, 58
   \   00000600   F008               BRCS    $+2+2
   \   00000602   CD31               RJMP    ??write_menu_3
   \                     ??write_menu_75:
   \   00000604   329E               CPI     R25, 46
   \   00000606   F031               BREQ    ??write_menu_76
   \   00000608   3390               CPI     R25, 48
   \   0000060A   F408               BRCC    $+2+2
   \   0000060C   CD2C               RJMP    ??write_menu_3
   \   0000060E   339A               CPI     R25, 58
   \   00000610   F008               BRCS    $+2+2
   \   00000612   CD29               RJMP    ??write_menu_3
   \                     ??write_menu_76:
   \   00000614   E20E               LDI     R16, 46
   \   00000616   1680               CP      R8, R16
   \   00000618   F041               BREQ    ??write_menu_77
   \   0000061A   E300               LDI     R16, 48
   \   0000061C   1680               CP      R8, R16
   \   0000061E   F408               BRCC    $+2+2
   \   00000620   CD22               RJMP    ??write_menu_3
   \   00000622   E30A               LDI     R16, 58
   \   00000624   1680               CP      R8, R16
   \   00000626   F008               BRCS    $+2+2
   \   00000628   CD1E               RJMP    ??write_menu_3
   \                     ??write_menu_77:
   \   0000062A   ....               RCALL   ?Subroutine59
   \                     ??CrossCallReturnLabel_220:
   \   0000062C   EA0F               LDI     R16, 175
   \   0000062E   CD2D               RJMP    ??write_menu_10
   \                     ??write_menu_78:
   \   00000630   ....               RCALL   ?Subroutine124
   \                     ??CrossCallReturnLabel_343:
   \   00000632   F009               BREQ    $+2+2
   \   00000634   CD18               RJMP    ??write_menu_3
   \   00000636   910C               LD      R16, X
   \   00000638   320E               CPI     R16, 46
   \   0000063A   F031               BREQ    ??write_menu_79
   \   0000063C   3300               CPI     R16, 48
   \   0000063E   F408               BRCC    $+2+2
   \   00000640   CD12               RJMP    ??write_menu_3
   \   00000642   330A               CPI     R16, 58
   \   00000644   F008               BRCS    $+2+2
   \   00000646   CD0F               RJMP    ??write_menu_3
   \                     ??write_menu_79:
   \   00000648   328E               CPI     R24, 46
   \   0000064A   F031               BREQ    ??write_menu_80
   \   0000064C   3380               CPI     R24, 48
   \   0000064E   F408               BRCC    $+2+2
   \   00000650   CD0A               RJMP    ??write_menu_3
   \   00000652   338A               CPI     R24, 58
   \   00000654   F008               BRCS    $+2+2
   \   00000656   CD07               RJMP    ??write_menu_3
   \                     ??write_menu_80:
   \   00000658   329E               CPI     R25, 46
   \   0000065A   F031               BREQ    ??write_menu_81
   \   0000065C   3390               CPI     R25, 48
   \   0000065E   F408               BRCC    $+2+2
   \   00000660   CD02               RJMP    ??write_menu_3
   \   00000662   339A               CPI     R25, 58
   \   00000664   F008               BRCS    $+2+2
   \   00000666   CCFF               RJMP    ??write_menu_3
   \                     ??write_menu_81:
   \   00000668   E20E               LDI     R16, 46
   \   0000066A   1680               CP      R8, R16
   \   0000066C   F041               BREQ    ??write_menu_82
   \   0000066E   E300               LDI     R16, 48
   \   00000670   1680               CP      R8, R16
   \   00000672   F408               BRCC    $+2+2
   \   00000674   CCF8               RJMP    ??write_menu_3
   \   00000676   E30A               LDI     R16, 58
   \   00000678   1680               CP      R8, R16
   \   0000067A   F008               BRCS    $+2+2
   \   0000067C   CCF4               RJMP    ??write_menu_3
   \                     ??write_menu_82:
   \   0000067E   ....               RCALL   ?Subroutine59
   \                     ??CrossCallReturnLabel_221:
   \   00000680   EB05               LDI     R16, 181
   \   00000682   CD03               RJMP    ??write_menu_10
   \                     ??write_menu_83:
   \   00000684   ....               RCALL   ?Subroutine3
   \                     ??CrossCallReturnLabel_333:
   \   00000686   F009               BREQ    $+2+2
   \   00000688   CCEE               RJMP    ??write_menu_3
   \   0000068A   ....               RCALL   ?Subroutine135
   \                     ??CrossCallReturnLabel_184:
   \   0000068C   F009               BREQ    $+2+2
   \   0000068E   CCEB               RJMP    ??write_menu_3
   \   00000690   ........           CALL    burst_ds_r
   \   00000694   830C               STD     Y+4, R16
   \   00000696   831D               STD     Y+5, R17
   \   00000698   832E               STD     Y+6, R18
   \   0000069A   833F               STD     Y+7, R19
   \   0000069C   E024               LDI     R18, 4
   \                     ??write_menu_84:
   \   0000069E   01FE               MOVW    R31:R30, R29:R28
   \   000006A0   9634               ADIW    R31:R30, 4
   \   000006A2   E030               LDI     R19, 0
   \   000006A4   0FE2               ADD     R30, R18
   \   000006A6   1FF3               ADC     R31, R19
   \   000006A8   8330               ST      Z, R19
   \   000006AA   9523               INC     R18
   \   000006AC   302C               CPI     R18, 12
   \   000006AE   F3B8               BRCS    ??write_menu_84
   \   000006B0   EF4F               LDI     R20, 255
   \   000006B2   EF5F               LDI     R21, 255
   \   000006B4   E02C               LDI     R18, 12
   \   000006B6   ....               RCALL   ?Subroutine69
   \                     ??CrossCallReturnLabel_223:
   \   000006B8   EF0E               LDI     R16, 254
   \   000006BA   E714               LDI     R17, 116
   \   000006BC   CCE7               RJMP    ??write_menu_11
   \                     ??write_menu_85:
   \   000006BE   ....               RCALL   ?Subroutine126
   \                     ??CrossCallReturnLabel_313:
   \   000006C0   3003               CPI     R16, 3
   \   000006C2   4010               SBCI    R17, 0
   \   000006C4   F009               BREQ    $+2+2
   \   000006C6   CCCF               RJMP    ??write_menu_3
   \   000006C8   ....               RCALL   ?Subroutine135
   \                     ??CrossCallReturnLabel_185:
   \   000006CA   F029               BREQ    ??write_menu_86
   \   000006CC   3301               CPI     R16, 49
   \   000006CE   F019               BREQ    ??write_menu_86
   \   000006D0   3609               CPI     R16, 105
   \   000006D2   F009               BREQ    $+2+2
   \   000006D4   CCC8               RJMP    ??write_menu_3
   \                     ??write_menu_86:
   \   000006D6   3380               CPI     R24, 48
   \   000006D8   F029               BREQ    ??write_menu_87
   \   000006DA   3381               CPI     R24, 49
   \   000006DC   F019               BREQ    ??write_menu_87
   \   000006DE   3689               CPI     R24, 105
   \   000006E0   F009               BREQ    $+2+2
   \   000006E2   CCC1               RJMP    ??write_menu_3
   \                     ??write_menu_87:
   \   000006E4   3300               CPI     R16, 48
   \   000006E6   F411               BRNE    ??write_menu_88
   \   000006E8   9814               CBI     0x02, 0x04
   \   000006EA   C007               RJMP    ??write_menu_89
   \                     ??write_menu_88:
   \   000006EC   9A14               SBI     0x02, 0x04
   \   000006EE   910C               LD      R16, X
   \   000006F0   3609               CPI     R16, 105
   \   000006F2   F419               BRNE    ??write_menu_89
   \   000006F4   E008               LDI     R16, 8
   \   000006F6   9300....           STS     cnt_tu1, R16
   \                     ??write_menu_89:
   \   000006FA   3380               CPI     R24, 48
   \   000006FC   F411               BRNE    ??write_menu_90
   \   000006FE   9813               CBI     0x02, 0x03
   \   00000700   CF53               RJMP    ??write_menu_12
   \                     ??write_menu_90:
   \   00000702   9A13               SBI     0x02, 0x03
   \   00000704   3689               CPI     R24, 105
   \   00000706   F009               BREQ    $+2+2
   \   00000708   CF4F               RJMP    ??write_menu_12
   \   0000070A   E008               LDI     R16, 8
   \   0000070C   9300....           STS     cnt_tu2, R16
   \   00000710   CF4B               RJMP    ??write_menu_12
   \                     ??write_menu_91:
   \   00000712   ....               RCALL   ?Subroutine39
   \                     ??CrossCallReturnLabel_339:
   \   00000714   F009               BREQ    $+2+2
   \   00000716   CCA7               RJMP    ??write_menu_3
   \   00000718   ....               RCALL   ?Subroutine135
   \                     ??CrossCallReturnLabel_186:
   \   0000071A   F009               BREQ    $+2+2
   \   0000071C   CCA4               RJMP    ??write_menu_3
   \   0000071E   ....               RCALL   ?Subroutine143
   \                     ??CrossCallReturnLabel_204:
   \   00000720   8320               ST      Z, R18
   \   00000722   8321               STD     Z+1, R18
   \   00000724   CF41               RJMP    ??write_menu_12
   \                     ??write_menu_92:
   \   00000726   ....               RCALL   ?Subroutine3
   \                     ??CrossCallReturnLabel_334:
   \   00000728   F009               BREQ    $+2+2
   \   0000072A   CC9D               RJMP    ??write_menu_3
   \   0000072C   ....               RCALL   ?Subroutine135
   \                     ??CrossCallReturnLabel_187:
   \   0000072E   F019               BREQ    ??write_menu_93
   \   00000730   3301               CPI     R16, 49
   \   00000732   F009               BREQ    $+2+2
   \   00000734   CC98               RJMP    ??write_menu_3
   \                     ??write_menu_93:
   \   00000736   5300               SUBI    R16, 48
   \   00000738   930C               ST      X, R16
   \   0000073A   E070               LDI     R23, 0
   \   0000073C   E060               LDI     R22, 0
   \   0000073E   E041               LDI     R20, 1
   \   00000740   E050               LDI     R21, 0
   \   00000742   019D               MOVW    R19:R18, R27:R26
   \   00000744   EF06               LDI     R16, 246
   \   00000746   ....               RCALL   ?Subroutine171
   \                     ??CrossCallReturnLabel_422:
   \   00000748   ....               RCALL   ?Subroutine1
   \                     ??CrossCallReturnLabel_3:
   \   0000074A   ....               RCALL   ?Subroutine166
   \                     ??CrossCallReturnLabel_365:
   \   0000074C   ........           CALL    lock_it
   \   00000750   CC79               RJMP    ??write_menu_1
   \                     ??write_menu_94:
   \   00000752   ....               RCALL   ?Subroutine165
   \                     ??CrossCallReturnLabel_523:
   \   00000754   9100....           LDS     R16, vol_tx_ppp
   \   00000758   ........           CALL    send_to_sim900
   \   0000075C   CC73               RJMP    ??write_menu_1
   2292              
   2293              
   2294                }

   \                                 In segment FARCODE, align 2, keep-with-next
   \                     ?Subroutine140:
   \   00000000   01F0               MOVW    R31:R30, R1:R0
   \   00000002   8110               LD      R17, Z
   \   00000004   1721               CP      R18, R17
   \   00000006   9508               RET

   \                                 In segment FARCODE, align 2, keep-with-next
   \                     ?Subroutine139:
   \   00000000   01F3               MOVW    R31:R30, R7:R6
   \   00000002   8100               LD      R16, Z
   \   00000004   3202               CPI     R16, 34
   \   00000006   9508               RET

   \                                 In segment FARCODE, align 2, keep-with-next
   \                     ?Subroutine138:
   \   00000000   2433               CLR     R3
   \   00000002   010E               MOVW    R1:R0, R29:R28
   \   00000004   E014               LDI     R17, 4
   \   00000006   0E01               ADD     R0, R17
   \   00000008   1C13               ADC     R1, R3
   \   0000000A   0E04               ADD     R0, R20
   \   0000000C   1C13               ADC     R1, R3
   \   0000000E   01F0               MOVW    R31:R30, R1:R0
   \   00000010   8320               ST      Z, R18
   \   00000012   ........           JMP     ??Subroutine152_0

   \                                 In segment FARCODE, align 2, keep-with-next
   \                     ?Subroutine137:
   \   00000000   818E               LDD     R24, Y+6
   \   00000002   819F               LDD     R25, Y+7
   \   00000004   E0A0               LDI     R26, 0
   \   00000006   E0B0               LDI     R27, 0
   \   00000008   8148               LD      R20, Y
   \   0000000A   9508               RET

   \                                 In segment FARCODE, align 2, keep-with-next
   \                     ?Subroutine136:
   \   00000000   910C               LD      R16, X
   \   00000002   3301               CPI     R16, 49
   \   00000004   9508               RET

   \                                 In segment FARCODE, align 2, keep-with-next
   \                     ?Subroutine135:
   \   00000000   910C               LD      R16, X
   \   00000002   3300               CPI     R16, 48
   \   00000004   9508               RET

   \                                 In segment FARCODE, align 2, keep-with-next
   \                     ?Subroutine172:
   \   00000000   4010               SBCI    R17, 0
   \                     ??Subroutine172_0:
   \   00000002   4020               SBCI    R18, 0
   \   00000004   ....               RJMP    ??Subroutine149_0

   \                                 In segment FARCODE, align 2, keep-with-next
   \                     ?Subroutine149:
   \   00000000   3000               CPI     R16, 0
   \   00000002   4010               SBCI    R17, 0
   \   00000004   4021               SBCI    R18, 1
   \                     ??Subroutine149_0:
   \   00000006   4030               SBCI    R19, 0
   \   00000008   9508               RET

   \                                 In segment FARCODE, align 2, keep-with-next
   \                     ?Subroutine131:
   \   00000000   ....               LDI     R30, LOW(vol_tx_ppp)
   \   00000002   ....               LDI     R31, (vol_tx_ppp) >> 8
   \   00000004   8180               LD      R24, Z
   \   00000006   8191               LDD     R25, Z+1
   \   00000008   3087               CPI     R24, 7
   \   0000000A   4090               SBCI    R25, 0
   \   0000000C   9508               RET

   \                                 In segment FARCODE, align 2, keep-with-next
   \                     ?Subroutine124:
   \   00000000   ....               LDI     R30, LOW(vol_tx_ppp)
   \   00000002   ....               LDI     R31, (vol_tx_ppp) >> 8
   \   00000004   8100               LD      R16, Z
   \   00000006   8111               LDD     R17, Z+1
   \   00000008   3005               CPI     R16, 5
   \   0000000A   ....               RJMP    ?Subroutine160

   \                                 In segment FARCODE, align 2, keep-with-next
   \                     ?Subroutine123:
   \   00000000   ....               LDI     R30, LOW(vol_tx_ppp)
   \   00000002   ....               LDI     R31, (vol_tx_ppp) >> 8
   \   00000004   8100               LD      R16, Z
   \   00000006   8111               LDD     R17, Z+1
   \   00000008   3009               CPI     R16, 9
   \   0000000A   ....               RJMP    ?Subroutine160

   \                                 In segment FARCODE, align 2, keep-with-next
   \                     ?Subroutine107:
   \   00000000   ........           CALL    burst_ds_r
   \   00000004   ....               LDI     R30, LOW(real_time)
   \   00000006   ....               LDI     R31, (real_time) >> 8
   \   00000008   9508               RET

   \                                 In segment FARCODE, align 2, keep-with-next
   \                     ?Subroutine98:
   \   00000000   E011               LDI     R17, 1
   \   00000002                      REQUIRE ?Subroutine151
   \   00000002                      ;               // Fall through to label ?Subroutine151

   \                                 In segment FARCODE, align 2, keep-with-next
   \                     ?Subroutine151:
   \   00000000   ........           CALL    RdFromFleshToArr
   \   00000004   810C               LDD     R16, Y+4
   \   00000006   2300               TST     R16
   \   00000008   9508               RET

   \                                 In segment FARCODE, align 2, keep-with-next
   \                     ?Subroutine96:
   \   00000000   018D               MOVW    R17:R16, R27:R26
   \   00000002   ........           CALL    atol
   \   00000006   8308               ST      Y, R16
   \   00000008   8319               STD     Y+1, R17
   \   0000000A   832A               STD     Y+2, R18
   \   0000000C   833B               STD     Y+3, R19
   \   0000000E   9508               RET

   \                                 In segment FARCODE, align 2, keep-with-next
   \                     ?Subroutine95:
   \   00000000   4F1F               SBCI    R17, 255
   \   00000002   ........           CALL    atol
   \   00000006   8308               ST      Y, R16
   \   00000008   8319               STD     Y+1, R17
   \   0000000A   832A               STD     Y+2, R18
   \   0000000C   833B               STD     Y+3, R19
   \   0000000E   330C               CPI     R16, 60
   \   00000010   ....               RJMP    ?Subroutine172

   \                                 In segment FARCODE, align 2, keep-with-next
   \                     ?Subroutine94:
   \   00000000   018D               MOVW    R17:R16, R27:R26
   \   00000002   ........           CALL    atol
   \   00000006   8308               ST      Y, R16
   \   00000008   8319               STD     Y+1, R17
   \   0000000A   832A               STD     Y+2, R18
   \   0000000C   833B               STD     Y+3, R19
   \   0000000E   ....               RJMP    ?Subroutine149

   \                                 In segment FARCODE, align 2, keep-with-next
   \                     ?Subroutine93:
   \   00000000   018D               MOVW    R17:R16, R27:R26
   \   00000002   ........           CALL    atol
   \   00000006   8308               ST      Y, R16
   \   00000008   8319               STD     Y+1, R17
   \   0000000A   832A               STD     Y+2, R18
   \   0000000C   833B               STD     Y+3, R19
   \   0000000E   3005               CPI     R16, 5
   \   00000010                      REQUIRE ?Subroutine150
   \   00000010                      ;               // Fall through to label ?Subroutine150

   \                                 In segment FARCODE, align 2, keep-with-next
   \                     ?Subroutine150:
   \   00000000   E040               LDI     R20, 0
   \   00000002   0714               CPC     R17, R20
   \   00000004   0724               CPC     R18, R20
   \   00000006   0734               CPC     R19, R20
   \   00000008   9508               RET

   \                                 In segment FARCODE, align 2, keep-with-next
   \                     ?Subroutine92:
   \   00000000   018D               MOVW    R17:R16, R27:R26
   \   00000002   ........           CALL    atol
   \   00000006   8308               ST      Y, R16
   \   00000008   8319               STD     Y+1, R17
   \   0000000A   832A               STD     Y+2, R18
   \   0000000C   833B               STD     Y+3, R19
   \   0000000E   3003               CPI     R16, 3
   \   00000010   ....               RJMP    ?Subroutine150

   \                                 In segment FARCODE, align 2, keep-with-next
   \                     ?Subroutine90:
   \   00000000   018D               MOVW    R17:R16, R27:R26
   \                     ??Subroutine90_0:
   \   00000002   ........           CALL    atol
   \   00000006   8308               ST      Y, R16
   \   00000008   8319               STD     Y+1, R17
   \   0000000A   832A               STD     Y+2, R18
   \   0000000C   833B               STD     Y+3, R19
   \   0000000E   2B01               OR      R16, R17
   \   00000010   2B02               OR      R16, R18
   \   00000012   2B03               OR      R16, R19
   \   00000014   9508               RET

   \                                 In segment FARCODE, align 2, keep-with-next
   \                     ?Subroutine89:
   \   00000000   018D               MOVW    R17:R16, R27:R26
   \   00000002   ........           CALL    atol
   \   00000006   8308               ST      Y, R16
   \   00000008   8319               STD     Y+1, R17
   \   0000000A   832A               STD     Y+2, R18
   \   0000000C   833B               STD     Y+3, R19
   \   0000000E   300A               CPI     R16, 10
   \   00000010   ....               RJMP    ?Subroutine150

   \                                 In segment FARCODE, align 2, keep-with-next
   \                     ?Subroutine88:
   \   00000000   018D               MOVW    R17:R16, R27:R26
   \                     ??Subroutine88_0:
   \   00000002   ........           CALL    atol
   \   00000006   8308               ST      Y, R16
   \   00000008   8319               STD     Y+1, R17
   \   0000000A   832A               STD     Y+2, R18
   \   0000000C   833B               STD     Y+3, R19
   \   0000000E   3000               CPI     R16, 0
   \   00000010   4011               SBCI    R17, 1
   \   00000012   ....               RJMP    ??Subroutine172_0

   \                                 In segment FARCODE, align 2, keep-with-next
   \                     ?Subroutine87:
   \   00000000   E34C               LDI     R20, 60
   \   00000002   ....               RJMP    ??Subroutine146_1

   \                                 In segment FARCODE, align 2, keep-with-next
   \                     ?Subroutine83:
   \   00000000   E04E               LDI     R20, 14
   \   00000002   E050               LDI     R21, 0
   \   00000004   019E               MOVW    R19:R18, R29:R28
   \   00000006   5F2C               SUBI    R18, 252
   \   00000008   4F3F               SBCI    R19, 255
   \   0000000A   E906               LDI     R16, 150
   \   0000000C   9508               RET

   \                                 In segment FARCODE, align 2, keep-with-next
   \                     ?Subroutine82:
   \   00000000   E04A               LDI     R20, 10
   \   00000002   E050               LDI     R21, 0
   \   00000004   019E               MOVW    R19:R18, R29:R28
   \   00000006   5F2C               SUBI    R18, 252
   \   00000008   4F3F               SBCI    R19, 255
   \   0000000A   ........           JMP     ?Subroutine159

   \                                 In segment FARCODE, align 2, keep-with-next
   \                     ?Subroutine81:
   \   00000000   E34C               LDI     R20, 60
   \   00000002   E050               LDI     R21, 0
   \   00000004   019E               MOVW    R19:R18, R29:R28
   \   00000006   5F2C               SUBI    R18, 252
   \   00000008   4F3F               SBCI    R19, 255
   \   0000000A   E702               LDI     R16, 114
   \   0000000C   9508               RET

   \                                 In segment FARCODE, align 2, keep-with-next
   \                     ?Subroutine80:
   \   00000000   E34C               LDI     R20, 60
   \   00000002   E050               LDI     R21, 0
   \   00000004   019E               MOVW    R19:R18, R29:R28
   \   00000006   5F2C               SUBI    R18, 252
   \   00000008   4F3F               SBCI    R19, 255
   \   0000000A   E306               LDI     R16, 54
   \   0000000C   9508               RET

   \                                 In segment FARCODE, align 2, keep-with-next
   \                     ?Subroutine78:
   \   00000000   E04B               LDI     R20, 11
   \   00000002   E050               LDI     R21, 0
   \   00000004   019E               MOVW    R19:R18, R29:R28
   \   00000006   5F2C               SUBI    R18, 252
   \   00000008   4F3F               SBCI    R19, 255
   \   0000000A   EA04               LDI     R16, 164
   \   0000000C   9508               RET

   \                                 In segment FARCODE, align 2, keep-with-next
   \                     ?Subroutine69:
   \   00000000   018E               MOVW    R17:R16, R29:R28
   \   00000002   5F0C               SUBI    R16, 252
   \   00000004   4F1F               SBCI    R17, 255
   \   00000006   ........           CALL    crc_m1
   \   0000000A   8B08               STD     Y+16, R16
   \   0000000C   8B19               STD     Y+17, R17
   \   0000000E   E070               LDI     R23, 0
   \   00000010   E060               LDI     R22, 0
   \   00000012   E04E               LDI     R20, 14
   \   00000014   ....               RJMP    ??Subroutine146_0

   \                                 In segment FARCODE, align 2, keep-with-next
   \                     ?Subroutine59:
   \   00000000   910C               LD      R16, X
   \   00000002   830C               STD     Y+4, R16
   \   00000004   838D               STD     Y+5, R24
   \   00000006   839E               STD     Y+6, R25
   \   00000008   828F               STD     Y+7, R8
   \   0000000A   EF4F               LDI     R20, 255
   \   0000000C   EF5F               LDI     R21, 255
   \   0000000E   E024               LDI     R18, 4
   \   00000010   E030               LDI     R19, 0
   \   00000012   018E               MOVW    R17:R16, R29:R28
   \   00000014   5F0C               SUBI    R16, 252
   \   00000016   4F1F               SBCI    R17, 255
   \   00000018   ........           CALL    crc_m1
   \   0000001C   8708               STD     Y+8, R16
   \   0000001E   8719               STD     Y+9, R17
   \   00000020   E070               LDI     R23, 0
   \   00000022   E060               LDI     R22, 0
   \   00000024   E046               LDI     R20, 6
   \   00000026   ....               RJMP    ??Subroutine146_0

   \                                 In segment FARCODE, align 2, keep-with-next
   \                     ?Subroutine58:
   \   00000000   EF4F               LDI     R20, 255
   \   00000002   EF5F               LDI     R21, 255
   \   00000004   E028               LDI     R18, 8
   \   00000006   E030               LDI     R19, 0
   \   00000008   018E               MOVW    R17:R16, R29:R28
   \   0000000A   5F0C               SUBI    R16, 252
   \   0000000C   4F1F               SBCI    R17, 255
   \   0000000E   ........           CALL    crc_m1
   \   00000012   870C               STD     Y+12, R16
   \   00000014   871D               STD     Y+13, R17
   \   00000016   E070               LDI     R23, 0
   \   00000018   E060               LDI     R22, 0
   \   0000001A   E04A               LDI     R20, 10
   \   0000001C   ....               RJMP    ??Subroutine146_0

   \                                 In segment FARCODE, align 2, keep-with-next
   \                     ?Subroutine47:
   \   00000000   2F41               MOV     R20, R17
   \   00000002   9543               INC     R20
   \                     ??Subroutine47_0:
   \   00000004   E020               LDI     R18, 0
   \   00000006   9503               INC     R16
   \   00000008   2F60               MOV     R22, R16
   \   0000000A   9508               RET

   \                                 In segment FARCODE, align 2, keep-with-next
   \                     ?Subroutine46:
   \   00000000   9503               INC     R16
   \   00000002   ....               RJMP    ?Subroutine161

   \                                 In segment FARCODE, align 2, keep-with-next
   \                     ?Subroutine39:
   \   00000000   ....               LDI     R30, LOW(vol_tx_ppp)
   \   00000002   ....               LDI     R31, (vol_tx_ppp) >> 8
   \   00000004   8100               LD      R16, Z
   \   00000006   8111               LDD     R17, Z+1
   \   00000008   3002               CPI     R16, 2
   \   0000000A   E020               LDI     R18, 0
   \   0000000C   ....               RJMP    ?Subroutine160

   \                                 In segment FARCODE, align 2, keep-with-next
   \                     ?Subroutine36:
   \   00000000   8111               LDD     R17, Z+1
   \   00000002   338D               CPI     R24, 61
   \   00000004   E050               LDI     R21, 0
   \   00000006                      REQUIRE ?Subroutine160
   \   00000006                      ;               // Fall through to label ?Subroutine160

   \                                 In segment FARCODE, align 2, keep-with-next
   \                     ?Subroutine160:
   \   00000000   4010               SBCI    R17, 0
   \   00000002   9508               RET

   \                                 In segment FARCODE, align 2, keep-with-next
   \                     ?Subroutine35:
   \   00000000   01FD               MOVW    R31:R30, R27:R26
   \   00000002   0FE0               ADD     R30, R16
   \   00000004   1DF3               ADC     R31, R3
   \   00000006   ....               RJMP    ??Subroutine148_0

   \                                 In segment FARCODE, align 2, keep-with-next
   \                     ?Subroutine34:
   \   00000000   E050               LDI     R21, 0
   \   00000002   01FD               MOVW    R31:R30, R27:R26
   \   00000004   0FE2               ADD     R30, R18
   \   00000006   1FF5               ADC     R31, R21
   \   00000008   8111               LDD     R17, Z+1
   \   0000000A   01FE               MOVW    R31:R30, R29:R28
   \   0000000C   9634               ADIW    R31:R30, 4
   \   0000000E   0FE2               ADD     R30, R18
   \   00000010   1FF5               ADC     R31, R21
   \   00000012   8311               STD     Z+1, R17
   \   00000014                      REQUIRE ?Subroutine161
   \   00000014                      ;               // Fall through to label ?Subroutine161

   \                                 In segment FARCODE, align 2, keep-with-next
   \                     ?Subroutine33:
   \   00000000   9503               INC     R16
   \   00000002                      REQUIRE ?Subroutine148
   \   00000002                      ;               // Fall through to label ?Subroutine148

   \                                 In segment FARCODE, align 2, keep-with-next
   \                     ?Subroutine148:
   \   00000000   01FD               MOVW    R31:R30, R27:R26
   \   00000002   0FE0               ADD     R30, R16
   \   00000004   1FF1               ADC     R31, R17
   \                     ??Subroutine148_0:
   \   00000006   8110               LD      R17, Z
   \   00000008   3212               CPI     R17, 34
   \   0000000A   9508               RET

   \                                 In segment FARCODE, align 2, keep-with-next
   \                     ?Subroutine32:
   \   00000000   2E42               MOV     R4, R18
   \   00000002   2455               CLR     R5
   \   00000004   2E66               MOV     R6, R22
   \   00000006   2477               CLR     R7
   \   00000008   0E62               ADD     R6, R18
   \   0000000A   1C73               ADC     R7, R3
   \   0000000C   01FD               MOVW    R31:R30, R27:R26
   \   0000000E   0DE6               ADD     R30, R6
   \   00000010   1DF7               ADC     R31, R7
   \   00000012   8130               LD      R19, Z
   \   00000014   01FE               MOVW    R31:R30, R29:R28
   \   00000016   9634               ADIW    R31:R30, 4
   \   00000018   0E44               ADD     R4, R20
   \   0000001A   1C53               ADC     R5, R3
   \   0000001C   0DE4               ADD     R30, R4
   \   0000001E   1DF5               ADC     R31, R5
   \   00000020   8331               STD     Z+1, R19
   \   00000022   ....               RJMP    ?Subroutine161

   \                                 In segment FARCODE, align 2, keep-with-next
   \                     ?Subroutine31:
   \   00000000   E050               LDI     R21, 0
   \   00000002   018E               MOVW    R17:R16, R29:R28
   \   00000004   5F0C               SUBI    R16, 252
   \   00000006   4F1F               SBCI    R17, 255
   \   00000008   0F04               ADD     R16, R20
   \   0000000A   1D13               ADC     R17, R3
   \   0000000C   01F8               MOVW    R31:R30, R17:R16
   \   0000000E   8320               ST      Z, R18
   \   00000010   E020               LDI     R18, 0
   \   00000012   C012               RJMP    ??Subroutine31_0
   \                     ??Subroutine31_1:
   \   00000014   2E02               MOV     R0, R18
   \   00000016   2411               CLR     R1
   \   00000018   2E26               MOV     R2, R22
   \   0000001A   2433               CLR     R3
   \   0000001C   0E22               ADD     R2, R18
   \   0000001E   1E35               ADC     R3, R21
   \   00000020   01FD               MOVW    R31:R30, R27:R26
   \   00000022   0DE2               ADD     R30, R2
   \   00000024   1DF3               ADC     R31, R3
   \   00000026   8130               LD      R19, Z
   \   00000028   01FE               MOVW    R31:R30, R29:R28
   \   0000002A   9634               ADIW    R31:R30, 4
   \   0000002C   0E04               ADD     R0, R20
   \   0000002E   1E15               ADC     R1, R21
   \   00000030   0DE0               ADD     R30, R0
   \   00000032   1DF1               ADC     R31, R1
   \   00000034   8331               STD     Z+1, R19
   \   00000036   9523               INC     R18
   \                     ??Subroutine31_0:
   \   00000038   01F8               MOVW    R31:R30, R17:R16
   \   0000003A   8130               LD      R19, Z
   \   0000003C   1723               CP      R18, R19
   \   0000003E   F350               BRCS    ??Subroutine31_1
   \   00000040   ....               RJMP    ?Subroutine146

   \                                 In segment FARCODE, align 2, keep-with-next
   \                     ?Subroutine28:
   \   00000000   E34C               LDI     R20, 60
   \   00000002   E050               LDI     R21, 0
   \   00000004   019E               MOVW    R19:R18, R29:R28
   \   00000006   5F2C               SUBI    R18, 252
   \   00000008   4F3F               SBCI    R19, 255
   \   0000000A   EF0A               LDI     R16, 250
   \   0000000C   E010               LDI     R17, 0
   \   0000000E   ....               RJMP    ?Subroutine151

   \                                 In segment FARCODE, align 2, keep-with-next
   \                     ?Subroutine27:
   \   00000000   E04B               LDI     R20, 11
   \   00000002   E050               LDI     R21, 0
   \                     ??Subroutine27_0:
   \   00000004   019E               MOVW    R19:R18, R29:R28
   \   00000006   5F2C               SUBI    R18, 252
   \   00000008   4F3F               SBCI    R19, 255
   \   0000000A   EA04               LDI     R16, 164
   \   0000000C   E010               LDI     R17, 0
   \   0000000E   ........           CALL    RdFromFleshToArr
   \   00000012   8108               LD      R16, Y
   \   00000014   9508               RET

   \                                 In segment FARCODE, align 2, keep-with-next
   \                     ?Subroutine26:
   \   00000000   E04E               LDI     R20, 14
   \   00000002   E050               LDI     R21, 0
   \   00000004   019E               MOVW    R19:R18, R29:R28
   \   00000006   5F2C               SUBI    R18, 252
   \   00000008   4F3F               SBCI    R19, 255
   \   0000000A   E906               LDI     R16, 150
   \                     ??Subroutine26_0:
   \   0000000C   E010               LDI     R17, 0
   \   0000000E   ........           CALL    RdFromFleshToArr
   \   00000012   8108               LD      R16, Y
   \   00000014   8119               LDD     R17, Y+1
   \   00000016   9508               RET

   \                                 In segment FARCODE, align 2, keep-with-next
   \                     ?Subroutine25:
   \   00000000   E010               LDI     R17, 0
   \   00000002   ........           CALL    RdFromFleshToArr
   \   00000006   8108               LD      R16, Y
   \   00000008   8119               LDD     R17, Y+1
   \   0000000A   ........           JMP     ?Subroutine155

   \                                 In segment FARCODE, align 2, keep-with-next
   \                     ?Subroutine20:
   \   00000000   E30C               LDI     R16, 60
   \   00000002   E010               LDI     R17, 0
   \   00000004   E020               LDI     R18, 0
   \   00000006   E030               LDI     R19, 0
   \   00000008   ........           CALL    ?L_EC_MUL_L03
   \   0000000C   1780               CP      R24, R16
   \   0000000E   0791               CPC     R25, R17
   \   00000010   07A2               CPC     R26, R18
   \   00000012   07B3               CPC     R27, R19
   \   00000014   9508               RET

   \                                 In segment FARCODE, align 2, keep-with-next
   \                     ?Subroutine18:
   \   00000000   ....               LDI     R30, LOW(vol_tx_ppp)
   \   00000002   ....               LDI     R31, (vol_tx_ppp) >> 8
   \   00000004   8000               LD      R0, Z
   \   00000006   8011               LDD     R1, Z+1
   \   00000008   EF1E               LDI     R17, 254
   \   0000000A   0E01               ADD     R0, R17
   \   0000000C   EF1F               LDI     R17, 255
   \   0000000E   1E11               ADC     R1, R17
   \                     ??Subroutine18_0:
   \   00000010   E010               LDI     R17, 0
   \   00000012   1500               CP      R16, R0
   \   00000014   0511               CPC     R17, R1
   \   00000016   9508               RET

   \                                 In segment FARCODE, align 2, keep-with-next
   \                     ?Subroutine15:
   \   00000000   ....               LDI     R30, LOW(vol_tx_ppp)
   \   00000002   ....               LDI     R31, (vol_tx_ppp) >> 8
   \   00000004   8180               LD      R24, Z
   \   00000006   8191               LDD     R25, Z+1
   \   00000008   9701               SBIW    R25:R24, 1
   \                     ??Subroutine15_0:
   \   0000000A   E010               LDI     R17, 0
   \   0000000C   1708               CP      R16, R24
   \   0000000E   0719               CPC     R17, R25
   \   00000010   9508               RET

   \                                 In segment FARCODE, align 2, keep-with-next
   \                     ?Subroutine9:
   \   00000000   E010               LDI     R17, 0
   \   00000002   ....               RJMP    ?Subroutine148

   \                                 In segment FARCODE, align 2, keep-with-next
   \                     ?Subroutine3:
   \   00000000   ....               LDI     R30, LOW(vol_tx_ppp)
   \   00000002   ....               LDI     R31, (vol_tx_ppp) >> 8
   \   00000004   8100               LD      R16, Z
   \   00000006   8111               LDD     R17, Z+1
   \                     ??Subroutine3_0:
   \   00000008   3002               CPI     R16, 2
   \   0000000A   ....               RJMP    ?Subroutine160

   \                                 In segment FARCODE, align 2, keep-with-next
   \                     ?Subroutine1:
   \   00000000   E000               LDI     R16, 0
   \   00000002   ....               LDI     R30, LOW(vol_tx_ppp)
   \   00000004   ....               LDI     R31, (vol_tx_ppp) >> 8
   \   00000006   8300               ST      Z, R16
   \   00000008   8301               STD     Z+1, R16
   \   0000000A   ....               LDI     R18, LOW((versia + 129))
   \   0000000C   ....               LDI     R19, HIGH((versia + 129))
   \   0000000E   E004               LDI     R16, 4
   \   00000010   9508               RET

   \                                 In segment FARCODE, align 2, keep-with-next
   \                     ?Subroutine126:
   \   00000000   ....               LDI     R30, LOW(vol_tx_ppp)
   \   00000002   ....               LDI     R31, (vol_tx_ppp) >> 8
   \   00000004   ....               RJMP    ?Subroutine156

   \                                 In segment FARCODE, align 2, keep-with-next
   \                     ?Subroutine143:
   \   00000000   ....               LDI     R30, LOW(modbus_mem1)
   \   00000002   ....               LDI     R31, (modbus_mem1) >> 8
   \   00000004   9508               RET

   \                                 In segment FARCODE, align 2, keep-with-next
   \                     ?Subroutine132:
   \   00000000   ....               LDI     R30, LOW(vol_tx_ppp)
   \   00000002   ....               LDI     R31, (vol_tx_ppp) >> 8
   \   00000004   9508               RET
   2295          
   2296          
   2297          
   2298          
   2299          
   2300          
   2301          
   2302          
   2303          
   2304          
   2305          
   2306          
   2307          
   2308          
   2309          

   \                                 In segment FARCODE, align 2, keep-with-next
   2310             void at_mon_232(void)
   \                     at_mon_232:
   2311              { 
   \   00000000   ....               RCALL   ?Subroutine109
   \                     ??CrossCallReturnLabel_132:
   \   00000002   9722               SBIW    R29:R28, 2
   2312                unsigned int volatile local;
   2313                
   2314                
   2315               // * â ôîíîâîě đĺćčěĺ âűâîäčě âńĺ ÷ňî ďđčřëî ń ńčě ěîäóë˙
   2316                 if ( (UCSR2A & 0x20) ==0) goto no_Ready_com2;
   \   00000004   ....               LDI     R26, LOW(fl_at_mom_232)
   \   00000006   ....               LDI     R27, (fl_at_mom_232) >> 8
   \   00000008   910000D0           LDS     R16, 208
   \   0000000C   FF05               SBRS    R16, 5
   \   0000000E   C010               RJMP    ??at_mon_232_0
   2317                 if(point_Tail !=point_Head) {
   \   00000010   01FD               MOVW    R31:R30, R27:R26
   \   00000012   8102               LDD     R16, Z+2
   \   00000014   9110....           LDS     R17, point_Head
   \   00000018   1701               CP      R16, R17
   \   0000001A   F051               BREQ    ??at_mon_232_0
   2318                                               UDR2=Appl_seq_buf[point_Tail];
   \   0000001C   ....               RCALL   ?Subroutine30
   \                     ??CrossCallReturnLabel_569:
   \   0000001E   ....               SUBI    R30, LOW((-(Appl_seq_buf) & 0xFFFF))
   \   00000020   ....               SBCI    R31, (-(Appl_seq_buf) & 0xFFFF) >> 8
   \   00000022   8110               LD      R17, Z
   \   00000024   931000D6           STS     214, R17
   2319                                               point_Tail++;
   2320                                               point_Tail=point_Tail & 0x3f;
   \   00000028   9503               INC     R16
   \   0000002A   730F               ANDI    R16, 0x3F
   \   0000002C   01FD               MOVW    R31:R30, R27:R26
   \   0000002E   8302               STD     Z+2, R16
   2321                 }
   2322                 
   2323                                                 
   2324                // * 
   2325                                                 
   2326                                                 
   2327                                                 
   2328              no_Ready_com2:                                      
   2329            
   2330                /*
   2331                if ( (vol_tx_ppp >= 3 ) {
   2332                for (i = 0; i < vol_tx_ppp - 1; i++) {
   2333                 if( buf_tx_232[i] == 0x54  && buf_tx_232[i] == 0x2b
   2334                
   2335              }
   2336              }
   2337                */
   2338                
   2339            local = vol_tx_ppp;    
   \                     ??at_mon_232_0:
   \   00000030   ....               RCALL   ?Subroutine126
   \                     ??CrossCallReturnLabel_314:
   \   00000032   8308               ST      Y, R16
   \   00000034   8319               STD     Y+1, R17
   2340                
   2341            if ( (local >= 3 )  && (buf_tx_232[local-1]==0x2b) && ((buf_tx_232[local-2]=='T') || (buf_tx_232[local-2]=='t')) ) return;   // at+ ďđîďóńňčňü
   \   00000036   8188               LD      R24, Y
   \   00000038   8199               LDD     R25, Y+1
   \   0000003A   3083               CPI     R24, 3
   \   0000003C   4090               SBCI    R25, 0
   \   0000003E   F080               BRCS    ??at_mon_232_1
   \   00000040   8108               LD      R16, Y
   \   00000042   8119               LDD     R17, Y+1
   \   00000044   01F8               MOVW    R31:R30, R17:R16
   \   00000046   ....               SUBI    R30, LOW((-(buf_tx_232 - 1) & 0xFFFF))
   \   00000048   ....               SBCI    R31, HIGH((-(buf_tx_232 - 1) & 0xFFFF))
   \   0000004A   8100               LD      R16, Z
   \   0000004C   320B               CPI     R16, 43
   \   0000004E   F441               BRNE    ??at_mon_232_1
   \   00000050   ....               RCALL   ?Subroutine38
   \                     ??CrossCallReturnLabel_45:
   \   00000052   3504               CPI     R16, 84
   \   00000054   F409               BRNE    $+2+2
   \   00000056   C054               RJMP    ??at_mon_232_2
   \   00000058   ....               RCALL   ?Subroutine38
   \                     ??CrossCallReturnLabel_46:
   \   0000005A   3704               CPI     R16, 116
   \   0000005C   F409               BRNE    $+2+2
   \   0000005E   C050               RJMP    ??at_mon_232_2
   2342          
   2343            // ňóň áóäĺň ńöĺíŕđčé ďđîâĺđęč ŇŃ ďëŕňű đŕńřčđĺíč˙
   2344          #ifdef  SCENARIO_TEST_MTC_ENABLE
   2345              scenario_test_mtc();
   \                     ??at_mon_232_1:
   \   00000060   ....               RCALL   scenario_test_mtc
   2346          #endif  
   2347            // ňóň áóäĺň ńöĺíŕđčé ďđîâĺđęč ŇŃ ďëŕňű đŕńřčđĺíč˙
   2348            if ( local == 0 ) return;   /// çŕďëŕňęŕ îň 23 06 22
   \   00000062   8108               LD      R16, Y
   \   00000064   8119               LDD     R17, Y+1
   \   00000066   2B01               OR      R16, R17
   \   00000068   F409               BRNE    $+2+2
   \   0000006A   C04A               RJMP    ??at_mon_232_2
   2349           //************************    
   2350                       
   2351          switch (buf_tx_232[local-1])
   \   0000006C   ....               RCALL   ?Subroutine40
   \                     ??CrossCallReturnLabel_47:
   \   0000006E   ....               RCALL   ?Subroutine141
   \                     ??CrossCallReturnLabel_200:
   \   00000070   8110               LD      R17, Z
   \   00000072   501D               SUBI    R17, 13
   \   00000074   F159               BREQ    ??at_mon_232_3
   \   00000076   501E               SUBI    R17, 14
   \   00000078   F029               BREQ    ??at_mon_232_4
   \   0000007A   5110               SUBI    R17, 16
   \   0000007C   F049               BREQ    ??at_mon_232_5
   \   0000007E   5012               SUBI    R17, 2
   \   00000080   F0A1               BREQ    ??at_mon_232_6
   \   00000082   C03E               RJMP    ??at_mon_232_2
   2352                {
   2353                 case 0x1b:
   2354                            {  
   2355                                         
   2356                            UCSR0B=UCSR0B & ~0x90;                   
   \                     ??at_mon_232_4:
   \   00000084   ....               RCALL   ?Subroutine142
   2357                            index_pa=1;
   \                     ??CrossCallReturnLabel_202:
   \   00000086   E001               LDI     R16, 1
   \   00000088   01FD               MOVW    R31:R30, R27:R26
   \   0000008A   8301               STD     Z+1, R16
   2358                            read_menu(index_pa-1);
   \   0000008C   E000               LDI     R16, 0
   \   0000008E   C02D               RJMP    ??at_mon_232_7
   2359                            buf_tx_232[local-1]=0xff;  
   2360                            vol_tx_ppp=0;                                  
   2361                            UCSR0B=UCSR0B | 0x90; 
   2362                            break;
   2363                            
   2364          
   2365                            }
   2366                  case 0x2b:   // âĺđő
   2367                            {    
   2368                              
   2369                            UCSR0B=UCSR0B & ~0x90;
   \                     ??at_mon_232_5:
   \   00000090   ....               RCALL   ?Subroutine142
   2370                              
   2371          pusto:            
   2372          
   2373          
   2374                             index_pa++;  
   \                     ??CrossCallReturnLabel_203:
   \   00000092   ....               RCALL   ?Subroutine40
   \                     ??CrossCallReturnLabel_48:
   \   00000094   9503               INC     R16
   \   00000096   8301               STD     Z+1, R16
   2375                             if ((index_pa-1) > VOL_PUNKT) index_pa=1;
   \   00000098   2F80               MOV     R24, R16
   \   0000009A   E090               LDI     R25, 0
   \   0000009C   9701               SBIW    R25:R24, 1
   \   0000009E   328A               CPI     R24, 42
   \   000000A0   4090               SBCI    R25, 0
   \   000000A2   F10C               BRLT    ??at_mon_232_8
   \   000000A4   E001               LDI     R16, 1
   \                     ??at_mon_232_9:
   \   000000A6   8301               STD     Z+1, R16
   2376                             read_menu(index_pa-1);                                    
   \   000000A8   C01E               RJMP    ??at_mon_232_8
   2377                             buf_tx_232[local-1]=0xff;  
   2378                             vol_tx_ppp=0; 
   2379                             UCSR0B=UCSR0B | 0x90; 
   2380                             break;
   2381                            }                  
   2382                             
   2383                   case 0x2d:   // âíčç
   2384                            { 
   2385                              UCSR0B=UCSR0B & ~0x90;
   \                     ??at_mon_232_6:
   \   000000AA   ....               RCALL   ?Subroutine145
   2386                              if(index_pa==0)index_pa=1;  
   \                     ??CrossCallReturnLabel_216:
   \   000000AC   2300               TST     R16
   \   000000AE   F419               BRNE    ??at_mon_232_10
   \   000000B0   E001               LDI     R16, 1
   \   000000B2   01FD               MOVW    R31:R30, R27:R26
   \   000000B4   8301               STD     Z+1, R16
   2387                              if ((index_pa-1) != 0) index_pa--;else index_pa=VOL_PUNKT+1;    
   \                     ??at_mon_232_10:
   \   000000B6   ....               RCALL   ?Subroutine40
   \                     ??CrossCallReturnLabel_49:
   \   000000B8   2FE0               MOV     R30, R16
   \   000000BA   E0F0               LDI     R31, 0
   \   000000BC   9731               SBIW    R31:R30, 1
   \   000000BE   F019               BREQ    ??at_mon_232_11
   \   000000C0   01FD               MOVW    R31:R30, R27:R26
   \   000000C2   950A               DEC     R16
   \   000000C4   CFF0               RJMP    ??at_mon_232_9
   \                     ??at_mon_232_11:
   \   000000C6   E20A               LDI     R16, 42
   \   000000C8   01FD               MOVW    R31:R30, R27:R26
   \   000000CA   CFED               RJMP    ??at_mon_232_9
   2388                          //     if ((index_pa-1) != 0) index_pa--;else index_pa=VOL_PUNKT-1;    
   2389                              
   2390                              read_menu(index_pa-1);  
   2391                              buf_tx_232[local-1]=0xff;  
   2392                              vol_tx_ppp=0; 
   2393                              UCSR0B=UCSR0B | 0x90; 
   2394                              break;                     
   2395                            }           
   2396                            
   2397                     case 0x0d:   // ââîä
   2398                            {  
   2399                        
   2400                             UCSR0B=UCSR0B & ~0x90;  
   \                     ??at_mon_232_3:
   \   000000CC   ....               RCALL   ?Subroutine145
   2401                             if(index_pa==41) goto nene_pusto; 
   \                     ??CrossCallReturnLabel_217:
   \   000000CE   3209               CPI     R16, 41
   \   000000D0   F039               BREQ    ??at_mon_232_12
   2402                             if ((local==1)||(index_pa==0)) goto pusto; 
   \   000000D2   8128               LD      R18, Y
   \   000000D4   8139               LDD     R19, Y+1
   \   000000D6   3021               CPI     R18, 1
   \   000000D8   4030               SBCI    R19, 0
   \   000000DA   F2D9               BREQ    ??CrossCallReturnLabel_203
   \   000000DC   2300               TST     R16
   \   000000DE   F2C9               BREQ    ??CrossCallReturnLabel_203
   2403                  nene_pusto:
   2404                             write_menu(index_pa-1); 
   \                     ??at_mon_232_12:
   \   000000E0   950A               DEC     R16
   \   000000E2   ....               RCALL   write_menu
   2405                             read_menu(index_pa-1);
   \   000000E4   01FD               MOVW    R31:R30, R27:R26
   \                     ??at_mon_232_8:
   \   000000E6   8101               LDD     R16, Z+1
   \   000000E8   950A               DEC     R16
   \                     ??at_mon_232_7:
   \   000000EA   ........           CALL    read_menu
   2406                             buf_tx_232[local-1]=0xff;  
   \   000000EE   EF0F               LDI     R16, 255
   \   000000F0   ....               RCALL   ?Subroutine141
   \                     ??CrossCallReturnLabel_201:
   \   000000F2   8300               ST      Z, R16
   2407                             vol_tx_ppp=0;   
   \   000000F4   ....               RCALL   ?Subroutine2
   2408                             UCSR0B=UCSR0B | 0x90;
   \                     ??CrossCallReturnLabel_322:
   \   000000F6   910000C1           LDS     R16, 193
   \   000000FA   6900               ORI     R16, 0x90
   \   000000FC   930000C1           STS     193, R16
   2409                             break;                                     
   \                     ??at_mon_232_2:
   \   00000100   9622               ADIW    R29:R28, 2
   \   00000102                      REQUIRE ?Subroutine164
   \   00000102                      ;               // Fall through to label ?Subroutine164
   2410                            }                 
   2411                    
   2412                  
   2413                }                     
   2414          
   2415              }

   \                                 In segment FARCODE, align 2, keep-with-next
   \                     ?Subroutine145:
   \   00000000   911000C1           LDS     R17, 193
   \   00000004   761F               ANDI    R17, 0x6F
   \   00000006   931000C1           STS     193, R17
   \   0000000A   9508               RET

   \                                 In segment FARCODE, align 2, keep-with-next
   \                     ?Subroutine142:
   \   00000000   910000C1           LDS     R16, 193
   \   00000004   760F               ANDI    R16, 0x6F
   \   00000006   930000C1           STS     193, R16
   \   0000000A   9508               RET

   \                                 In segment FARCODE, align 2, keep-with-next
   \                     ?Subroutine141:
   \   00000000   8128               LD      R18, Y
   \   00000002   8139               LDD     R19, Y+1
   \   00000004   01F9               MOVW    R31:R30, R19:R18
   \   00000006   ....               SUBI    R30, LOW((-(buf_tx_232 - 1) & 0xFFFF))
   \   00000008   ....               SBCI    R31, HIGH((-(buf_tx_232 - 1) & 0xFFFF))
   \   0000000A   9508               RET

   \                                 In segment FARCODE, align 2, keep-with-next
   \                     ?Subroutine38:
   \   00000000   8108               LD      R16, Y
   \   00000002   8119               LDD     R17, Y+1
   \   00000004   01F8               MOVW    R31:R30, R17:R16
   \   00000006   ....               SUBI    R30, LOW((-(buf_tx_232 - 2) & 0xFFFF))
   \   00000008   ....               SBCI    R31, HIGH((-(buf_tx_232 - 2) & 0xFFFF))
   \   0000000A   8100               LD      R16, Z
   \   0000000C   9508               RET

   \                                 In segment FARCODE, align 2, keep-with-next
   \                     ?Subroutine40:
   \   00000000   01FD               MOVW    R31:R30, R27:R26
   \   00000002   8101               LDD     R16, Z+1
   \   00000004   9508               RET
   2416          
   2417          
   2418          
   2419          
   2420          
   2421          
   2422          
   2423          
   2424          
   2425          
   2426          
   2427          

   \                                 In segment FARCODE, align 2, keep-with-next
   2428          void monitor_terminal(void)
   \                     monitor_terminal:
   2429                      {
   \   00000000   ....               RCALL   ?Subroutine109
   2430             
   2431             union
   2432               {
   2433                unsigned char bytes[4]; 
   2434                unsigned long int word;
   2435               }temp_long;   
   2436          
   2437          
   2438                      
   2439          
   2440          //
   2441          //        rts invers
   2442          //
   2443             
   2444             
   2445                      if((PINB & CTS2)==CTS2)
   \                     ??CrossCallReturnLabel_133:
   \   00000002   9B19               SBIS    0x03, 0x01
   \   00000004   C064               RJMP    ??monitor_terminal_0
   2446                              { 
   2447                                fl_at_mom_232=1;      
   \   00000006   ....               LDI     R30, LOW(fl_at_mom_232)
   \   00000008   ....               LDI     R31, (fl_at_mom_232) >> 8
   \   0000000A   E001               LDI     R16, 1
   \   0000000C   8300               ST      Z, R16
   2448                                index_pa=0;
   \   0000000E   E000               LDI     R16, 0
   \   00000010   8301               STD     Z+1, R16
   2449                                temp_long.word=0; 
   \   00000012   ....               RCALL   ?Subroutine128
   2450                                vol_tx_ppp=1;                     
   \                     ??CrossCallReturnLabel_164:
   \   00000014   E001               LDI     R16, 1
   \   00000016   ....               RCALL   ?Subroutine132
   \                     ??CrossCallReturnLabel_180:
   \   00000018   8300               ST      Z, R16
   \   0000001A   8381               STD     Z+1, R24
   2451                                buf_tx_232[0]=0x0d;
   \   0000001C   E00D               LDI     R16, 13
   \   0000001E   9300....           STS     buf_tx_232, R16
   2452                                UCSR2B=0; 
   \   00000022   938000D1           STS     209, R24
   2453                                UBRR2H = R4800_H;
   \   00000026   938000D5           STS     213, R24
   2454                                UBRR2L = R4800_L;      /* the baud rate */
   \   0000002A   EC0F               LDI     R16, 207
   \   0000002C   930000D4           STS     212, R16
   2455                                UCSR2B=UCSR2B | RXCIE | RXEN | TXEN;
   \   00000030   910000D1           LDS     R16, 209
   \   00000034   6908               ORI     R16, 0x98
   \   00000036   930000D1           STS     209, R16
   2456                                         
   2457                                 WDTCSR=0x18; 
   \   0000003A   E108               LDI     R16, 24
   \   0000003C   93000060           STS     96, R16
   2458                                 WDTCSR=0x0f;
   \   00000040   E00F               LDI     R16, 15
   \   00000042   93000060           STS     96, R16
   2459                                 __watchdog_reset(); 
   \   00000046   95A8               WDR
   2460                               
   2461                              __enable_interrupt();                
   \   00000048   9478               SEI
   2462                               delay(30000);
   \   0000004A   ....               RCALL   ?Subroutine110
   \                     ??CrossCallReturnLabel_137:
   \   0000004C   ........           CALL    delay
   2463                               
   2464                               if(PINK & IO1)modbus_mem1[AD_TS]=modbus_mem1[AD_TS] & (~0x01); else modbus_mem1[AD_TS]=modbus_mem1[AD_TS] | 0x01;
   \   00000050   91000106           LDS     R16, 262
   \   00000054   ....               RCALL   ?Subroutine143
   \                     ??CrossCallReturnLabel_205:
   \   00000056   FF07               SBRS    R16, 7
   \   00000058   C003               RJMP    ??monitor_terminal_1
   \   0000005A   A900               LDD     R16, Z+48
   \   0000005C   7F0E               ANDI    R16, 0xFE
   \   0000005E   C002               RJMP    ??monitor_terminal_2
   \                     ??monitor_terminal_1:
   \   00000060   A900               LDD     R16, Z+48
   \   00000062   6001               ORI     R16, 0x01
   \                     ??monitor_terminal_2:
   \   00000064   AB00               STD     Z+48, R16
   2465                               
   2466                               S1_RD;
   \   00000066   9AA0               SBI     0x14, 0x00
   \   00000068   98A1               CBI     0x14, 0x01
   2467                               S2_GR;
   \   0000006A   9840               CBI     0x08, 0x00
   \   0000006C   9A41               SBI     0x08, 0x01
   2468                               S4_RD;
   \   0000006E   9A42               SBI     0x08, 0x02
   \   00000070   9843               CBI     0x08, 0x03
   2469                               S3_GR;
   \   00000072   9844               CBI     0x08, 0x04
   \   00000074   9A45               SBI     0x08, 0x05
   2470                               S5_RD;
   \   00000076   9A46               SBI     0x08, 0x06
   \   00000078   9847               CBI     0x08, 0x07
   2471                               
   2472                                do
   2473                                    {   
   2474                                    __watchdog_reset(); 
   \                     ??monitor_terminal_3:
   \   0000007A   95A8               WDR
   2475                                    
   2476                                 //   control_temperatura();    09 11 2016
   2477                                      
   2478                                    temp_long.word++;
   \   0000007C   5F8F               SUBI    R24, 255
   \   0000007E   4F9F               SBCI    R25, 255
   \   00000080   4FAF               SBCI    R26, 255
   \   00000082   4FBF               SBCI    R27, 255
   2479                                    if(temp_long.word>=30000)
   \   00000084   3380               CPI     R24, 48
   \   00000086   E705               LDI     R16, 117
   \   00000088   0790               CPC     R25, R16
   \   0000008A   E000               LDI     R16, 0
   \   0000008C   07A0               CPC     R26, R16
   \   0000008E   07B0               CPC     R27, R16
   \   00000090   F0C8               BRCS    ??CrossCallReturnLabel_165
   2480                                       {
   2481                                         S1_CH;
   \   00000092   E001               LDI     R16, 1
   \   00000094   B314               IN      R17, 0x14
   \   00000096   2710               EOR     R17, R16
   \   00000098   BB14               OUT     0x14, R17
   \   0000009A   E002               LDI     R16, 2
   \   0000009C   B314               IN      R17, 0x14
   \   0000009E   2710               EOR     R17, R16
   \   000000A0   BB14               OUT     0x14, R17
   2482                                         S2_CH;
   \   000000A2   E001               LDI     R16, 1
   \   000000A4   ....               RCALL   ?Subroutine144
   \                     ??CrossCallReturnLabel_208:
   \   000000A6   E002               LDI     R16, 2
   \   000000A8   ....               RCALL   ?Subroutine144
   2483                                         S3_CH;
   \                     ??CrossCallReturnLabel_209:
   \   000000AA   E100               LDI     R16, 16
   \   000000AC   ....               RCALL   ?Subroutine144
   \                     ??CrossCallReturnLabel_210:
   \   000000AE   E200               LDI     R16, 32
   \   000000B0   ....               RCALL   ?Subroutine144
   2484                                         S4_CH;
   \                     ??CrossCallReturnLabel_211:
   \   000000B2   E004               LDI     R16, 4
   \   000000B4   ....               RCALL   ?Subroutine144
   \                     ??CrossCallReturnLabel_212:
   \   000000B6   E008               LDI     R16, 8
   \   000000B8   ....               RCALL   ?Subroutine144
   2485                                         S5_CH;
   \                     ??CrossCallReturnLabel_213:
   \   000000BA   E400               LDI     R16, 64
   \   000000BC   ....               RCALL   ?Subroutine144
   \                     ??CrossCallReturnLabel_214:
   \   000000BE   E800               LDI     R16, 128
   \   000000C0   ....               RCALL   ?Subroutine144
   2486                                         temp_long.word=0;
   \                     ??CrossCallReturnLabel_215:
   \   000000C2   ....               RCALL   ?Subroutine128
   2487                                       }
   2488                                       
   2489                                       
   2490                                       at_mon_232();
   \                     ??CrossCallReturnLabel_165:
   \   000000C4   ....               RCALL   at_mon_232
   2491             
   2492                                  }     while((PINB & CTS2)!=0);//
   \   000000C6   9919               SBIC    0x03, 0x01
   \   000000C8   CFD8               RJMP    ??monitor_terminal_3
   2493                                 
   2494                                lock_it(); //äîëćíŕ áűňü ôóíęöč˙ ďĺđĺçŕăđóçęč
   \   000000CA   ........           CALL    lock_it
   2495                     
   2496                }
   2497          
   2498          }
   \                     ??monitor_terminal_0:
   \   000000CE   ....               RJMP    ?Subroutine164

   \                                 In segment FARCODE, align 2, keep-with-next
   \                     ?Subroutine144:
   \   00000000   B118               IN      R17, 0x08
   \   00000002   2710               EOR     R17, R16
   \   00000004   B918               OUT     0x08, R17
   \   00000006   9508               RET

   \                                 In segment FARCODE, align 2, keep-with-next
   \                     ?Subroutine128:
   \   00000000   E080               LDI     R24, 0
   \   00000002   E090               LDI     R25, 0
   \   00000004   E0A0               LDI     R26, 0
   \   00000006   E0B0               LDI     R27, 0
   \   00000008   9508               RET
   2499          
   2500          
   2501          //////
   2502          
   2503          // ňĺńňčđîâíčĺ 485 â ňĺđěčíŕëĺ
   2504          
   2505          

   \                                 In segment FARCODE, align 2, keep-with-next
   2506          void test_loop(void)
   \                     test_loop:
   2507          {
   \   00000000   ....               RCALL   ?Subroutine108
   2508          char i,dummy;
   2509                         mov_lf();
   2510                         mov_s ( sizeof(str_loop_ok),str_loop_ok);                              
   \                     ??CrossCallReturnLabel_519:
   \   00000002   ....               LDI     R18, LOW(str_loop_ok)
   \   00000004   ....               LDI     R19, (str_loop_ok) >> 8
   \   00000006   ....               RCALL   ?Subroutine0
   2511                         mov_lf();
   2512                           
   2513          
   2514          
   2515                                UBRR1H = R4800_H;
   2516                                UBRR1L = R4800_L;      
   2517                                UCSR1B=UCSR1B  | RXEN | TXEN;   // đŕçđĺřčňü ďđčĺě č ďĺđĺäŕ÷ó áĺç ďđĺđűâŕíčé
   2518          
   2519                                UBRR3H = R4800_H;
   2520                                UBRR3L = R4800_L;      
   2521                                UCSR3B=UCSR3B  | RXEN | TXEN;   // đŕçđĺřčňü ďđčĺě č ďĺđĺäŕ÷ó áĺç ďđĺđűâŕíčé
   2522          
   2523          // î÷čńňčňü ďîđňű 
   2524          //
   2525                dummy=UDR1;
   2526                dummy=UDR3;
   2527          
   2528                 SET_RTS3;  // !!!!!
   \                     ??CrossCallReturnLabel_0:
   \   00000008   9A5C               SBI     0x0B, 0x04
   2529          
   2530                  for (i=0;i<10;i++)
   \   0000000A   E080               LDI     R24, 0
   2531               {
   2532                 __watchdog_reset(); 
   \                     ??test_loop_0:
   \   0000000C   ....               RCALL   ?Subroutine51
   2533                 s_port('s');
   2534                 s_port(i + 0x30);
   2535                 UDR1=i;
   \                     ??CrossCallReturnLabel_471:
   \   0000000E   938000CE           STS     206, R24
   2536          //
   2537          // áđîńŕĺě â ďîđň 485_1 
   2538          //
   2539                  term.time_out_loop=0;           // â ěčëčńĺęóíäíîě ňŕéěĺđĺ äîëćíŕ óâĺëč÷čâŕňüń˙ 
   \   00000012   ....               RCALL   ?Subroutine5
   2540          LoopWait_rs485_1:
   2541                      if(term.time_out_loop > 200 ) 
   \                     ??CrossCallReturnLabel_323:
   \   00000014   ....               RCALL   ?Subroutine125
   \                     ??CrossCallReturnLabel_344:
   \   00000016   F010               BRCS    ??test_loop_1
   2542                          {
   2543                 s_port('r');
   \   00000018   ....               RCALL   ?Subroutine53
   2544                 s_port('x');
   \                     ??CrossCallReturnLabel_66:
   \   0000001A   C008               RJMP    ??test_loop_2
   2545               // goto tutu;
   2546                 continue;
   2547                          }
   2548          //
   2549          // ďđčíčěŕţ ń 485_2
   2550          //
   2551                       if ( (UCSR3A & 0x80) ==0) goto LoopWait_rs485_1;
   \                     ??test_loop_1:
   \   0000001C   91000130           LDS     R16, 304
   \   00000020   FF07               SBRS    R16, 7
   \   00000022   CFF8               RJMP    ??CrossCallReturnLabel_323
   2552                       s_port('r');
   \   00000024   ....               RCALL   ?Subroutine54
   2553                       dummy=UDR3;
   \                     ??CrossCallReturnLabel_473:
   \   00000026   91000136           LDS     R16, 310
   2554                       s_port(dummy + 0x30);
   \   0000002A   5D00               SUBI    R16, 208
   \                     ??test_loop_2:
   \   0000002C   ....               RCALL   ?Subroutine113
   2555          //     tutu:
   2556           //             _NOP();
   2557                 }
   \                     ??CrossCallReturnLabel_143:
   \   0000002E   F370               BRCS    ??test_loop_0
   2558          
   2559                                                      
   2560                         mov_lf();
   \   00000030   ....               RCALL   ?Subroutine165
   2561                   //      s_port('>');
   2562                         CLR_RTS3;
   \                     ??CrossCallReturnLabel_522:
   \   00000032   985C               CBI     0x0B, 0x04
   2563          }               
   \   00000034                      REQUIRE ?Subroutine162
   \   00000034                      ;               // Fall through to label ?Subroutine162

   \                                 In segment FARCODE, align 2, keep-with-next
   \                     ?Subroutine162:
   \   00000000   9189               LD      R24, Y+
   \   00000002   9508               RET

   \                                 In segment FARCODE, align 2, keep-with-next
   \                     ?Subroutine125:
   \   00000000   8100               LD      R16, Z
   \   00000002   8111               LDD     R17, Z+1
   \   00000004   3C09               CPI     R16, 201
   \   00000006   ....               RJMP    ?Subroutine160

   \                                 In segment FARCODE, align 2, keep-with-next
   \                     ?Subroutine113:
   \   00000000   ........           CALL    s_port
   \   00000004   9583               INC     R24
   \   00000006   308A               CPI     R24, 10
   \   00000008   9508               RET

   \                                 In segment FARCODE, align 2, keep-with-next
   \                     ?Subroutine108:
   \   00000000   938A               ST      -Y, R24
   \   00000002   ....               RJMP    ?Subroutine165

   \                                 In segment FARCODE, align 2, keep-with-next
   \                     ?Subroutine54:
   \   00000000   E702               LDI     R16, 114
   \   00000002   ....               RJMP    ??Subroutine167_0

   \                                 In segment FARCODE, align 2, keep-with-next
   \                     ?Subroutine53:
   \   00000000   E702               LDI     R16, 114
   \   00000002   ........           CALL    s_port
   \   00000006   E708               LDI     R16, 120
   \   00000008   9508               RET

   \                                 In segment FARCODE, align 2, keep-with-next
   \                     ?Subroutine51:
   \   00000000   95A8               WDR
   \   00000002   E703               LDI     R16, 115
   \   00000004   ........           CALL    s_port
   \   00000008   2F08               MOV     R16, R24
   \   0000000A   5D00               SUBI    R16, 208
   \   0000000C   ....               RJMP    ??Subroutine167_0

   \                                 In segment FARCODE, align 2, keep-with-next
   \                     ?Subroutine5:
   \   00000000   E000               LDI     R16, 0
   \   00000002   ....               LDI     R30, LOW(term)
   \   00000004   ....               LDI     R31, (term) >> 8
   \   00000006   ....               RJMP    ?Subroutine158

   \                                 In segment FARCODE, align 2, keep-with-next
   \                     ?Subroutine0:
   \   00000000   E00B               LDI     R16, 11
   \   00000002   ........           CALL    mov_s
   \   00000006   ........           CALL    mov_lf
   \   0000000A   E000               LDI     R16, 0
   \   0000000C   930000CD           STS     205, R16
   \   00000010   EC0F               LDI     R16, 207
   \   00000012   930000CC           STS     204, R16
   \   00000016   910000C9           LDS     R16, 201
   \   0000001A   6108               ORI     R16, 0x18
   \   0000001C   930000C9           STS     201, R16
   \   00000020   E000               LDI     R16, 0
   \   00000022   93000135           STS     309, R16
   \   00000026   EC0F               LDI     R16, 207
   \   00000028   93000134           STS     308, R16
   \   0000002C   91000131           LDS     R16, 305
   \   00000030   6108               ORI     R16, 0x18
   \   00000032   93000131           STS     305, R16
   \   00000036   910000CE           LDS     R16, 206
   \   0000003A   91000136           LDS     R16, 310
   \   0000003E   9508               RET
   2564          
   2565          //

   \                                 In segment FARCODE, align 2, keep-with-next
   2566          void test_loop2(void)
   \                     test_loop2:
   2567          {
   \   00000000   ....               RCALL   ?Subroutine108
   2568          char i,dummy;
   2569                         mov_lf();
   2570                         mov_s ( sizeof(str_loop2_ok),str_loop2_ok);                              
   \                     ??CrossCallReturnLabel_518:
   \   00000002   ....               LDI     R18, LOW(str_loop2_ok)
   \   00000004   ....               LDI     R19, (str_loop2_ok) >> 8
   \   00000006   ....               RCALL   ?Subroutine0
   2571                         mov_lf();
   2572                           
   2573          
   2574          
   2575                                UBRR1H = R4800_H;
   2576                                UBRR1L = R4800_L;      
   2577                                UCSR1B=UCSR1B  | RXEN | TXEN;   // đŕçđĺřčňü ďđčĺě č ďĺđĺäŕ÷ó áĺç ďđĺđűâŕíčé
   2578          
   2579                                UBRR3H = R4800_H;
   2580                                UBRR3L = R4800_L;      
   2581                                UCSR3B=UCSR3B  | RXEN | TXEN;   // đŕçđĺřčňü ďđčĺě č ďĺđĺäŕ÷ó áĺç ďđĺđűâŕíčé
   2582          
   2583          // î÷čńňčňü ďîđňű 
   2584          //
   2585                dummy=UDR1;
   2586                dummy=UDR3;
   2587          
   2588                 SET_RTS1;  // !!!!!
   \                     ??CrossCallReturnLabel_1:
   \   00000008   91000105           LDS     R16, 261
   \   0000000C   6004               ORI     R16, 0x04
   \   0000000E   ....               RCALL   ?Subroutine117
   2589          
   2590                  for (i=0;i<10;i++)
   \                     ??CrossCallReturnLabel_151:
   \   00000010   E080               LDI     R24, 0
   2591               {
   2592                 __watchdog_reset(); 
   \                     ??test_loop2_0:
   \   00000012   ....               RCALL   ?Subroutine51
   2593                 s_port('s');
   2594                 s_port(i + 0x30);
   2595                 UDR3=i;
   \                     ??CrossCallReturnLabel_470:
   \   00000014   93800136           STS     310, R24
   2596          //
   2597          // áđîńŕĺě â ďîđň 485_2
   2598          //
   2599                  term.time_out_loop=0;           // â ěčëčńĺęóíäíîě ňŕéěĺđĺ äîëćíŕ óâĺëč÷čâŕňüń˙ 
   \   00000018   ....               RCALL   ?Subroutine5
   2600          LoopWait_rs485_1:
   2601                      if(term.time_out_loop > 200 ) 
   \                     ??CrossCallReturnLabel_324:
   \   0000001A   ....               RCALL   ?Subroutine125
   \                     ??CrossCallReturnLabel_345:
   \   0000001C   F010               BRCS    ??test_loop2_1
   2602                          {
   2603                 s_port('r');
   \   0000001E   ....               RCALL   ?Subroutine53
   2604                 s_port('x');
   \                     ??CrossCallReturnLabel_67:
   \   00000020   C008               RJMP    ??test_loop2_2
   2605               // goto tutu;
   2606                 continue;
   2607                          }
   2608          //
   2609          // ďđčíčěŕţ ń 485_1
   2610          //
   2611                       if ( (UCSR1A & 0x80) ==0) goto LoopWait_rs485_1;
   \                     ??test_loop2_1:
   \   00000022   910000C8           LDS     R16, 200
   \   00000026   FF07               SBRS    R16, 7
   \   00000028   CFF8               RJMP    ??CrossCallReturnLabel_324
   2612                       s_port('r');
   \   0000002A   ....               RCALL   ?Subroutine54
   2613                       dummy=UDR1;
   \                     ??CrossCallReturnLabel_472:
   \   0000002C   910000CE           LDS     R16, 206
   2614                       s_port(dummy + 0x30);
   \   00000030   5D00               SUBI    R16, 208
   \                     ??test_loop2_2:
   \   00000032   ....               RCALL   ?Subroutine113
   2615          //     tutu:
   2616           //             _NOP();
   2617                 }
   \                     ??CrossCallReturnLabel_144:
   \   00000034   F370               BRCS    ??test_loop2_0
   2618          
   2619                                                      
   2620                         mov_lf();
   \   00000036   ....               RCALL   ?Subroutine103
   2621                         s_port('>');
   2622                         CLR_RTS1;
   \                     ??CrossCallReturnLabel_475:
   \   00000038   91000105           LDS     R16, 261
   \   0000003C   7F0B               ANDI    R16, 0xFB
   \   0000003E   ....               RCALL   ?Subroutine117
   2623          }               
   \                     ??CrossCallReturnLabel_152:
   \   00000040   ....               RJMP    ?Subroutine162
   2624          
   2625          
   2626          /////////////////////////////////////////////////  
   2627          #ifdef  SCENARIO_TEST_MTC_ENABLE

   \                                 In segment FARCODE, align 2, keep-with-next
   2628          void scenario_test_mtc(void)
   \                     scenario_test_mtc:
   2629          {
   \   00000000   ........           CALL    ?PROLOGUE6_L09
   \   00000004                      REQUIRE ?Register_R4_is_cg_reg
   \   00000004                      REQUIRE ?Register_R5_is_cg_reg
   \   00000004   972D               SBIW    R29:R28, 13
   2630            char massiv[13];
   2631            char i;
   2632          if( test_mtc.enable ==0) return;
   \   00000006   ....               LDI     R26, LOW(test_mtc)
   \   00000008   ....               LDI     R27, (test_mtc) >> 8
   \   0000000A   ....               RCALL   ?Subroutine40
   \                     ??CrossCallReturnLabel_50:
   \   0000000C   2300               TST     R16
   \   0000000E   F409               BRNE    $+2+2
   \   00000010   C08F               RJMP    ??scenario_test_mtc_0
   2633          switch( test_mtc.step)
   \   00000012   8102               LDD     R16, Z+2
   \   00000014   8113               LDD     R17, Z+3
   \   00000016   ....               LDI     R18, LOW(modbus_mem1)
   \   00000018   2E42               MOV     R4, R18
   \   0000001A   ....               LDI     R18, (modbus_mem1) >> 8
   \   0000001C   2E52               MOV     R5, R18
   \   0000001E   912C               LD      R18, X
   \   00000020   2322               TST     R18
   \   00000022   F099               BREQ    ??scenario_test_mtc_1
   \   00000024   952A               DEC     R18
   \   00000026   F0D1               BREQ    ??scenario_test_mtc_2
   \   00000028   952A               DEC     R18
   \   0000002A   F109               BREQ    ??scenario_test_mtc_3
   \   0000002C   952A               DEC     R18
   \   0000002E   F161               BREQ    ??scenario_test_mtc_4
   \   00000030   952A               DEC     R18
   \   00000032   F171               BREQ    ??scenario_test_mtc_5
   \   00000034   952A               DEC     R18
   \   00000036   F1C9               BREQ    ??scenario_test_mtc_6
   \   00000038   952A               DEC     R18
   \   0000003A   F1D9               BREQ    ??scenario_test_mtc_7
   \   0000003C   952A               DEC     R18
   \   0000003E   F409               BRNE    $+2+2
   \   00000040   C045               RJMP    ??scenario_test_mtc_8
   \   00000042   952A               DEC     R18
   \   00000044   F409               BRNE    $+2+2
   \   00000046   C046               RJMP    ??scenario_test_mtc_9
   \   00000048   C06C               RJMP    ??CrossCallReturnLabel_474
   2634          {
   2635          
   2636          case 0:
   2637                            TU1_OFF;
   \                     ??scenario_test_mtc_1:
   \   0000004A   9814               CBI     0x02, 0x04
   2638                            TU2_OFF;
   \   0000004C   9813               CBI     0x02, 0x03
   2639                            test_mtc.step = 1;
   \   0000004E   E001               LDI     R16, 1
   \   00000050   930C               ST      X, R16
   2640                            test_mtc.delay = 1000;
   \   00000052   EE08               LDI     R16, 232
   \   00000054   E013               LDI     R17, 3
   \                     ??scenario_test_mtc_10:
   \   00000056   8302               STD     Z+2, R16
   \   00000058   8313               STD     Z+3, R17
   \   0000005A   C06A               RJMP    ??scenario_test_mtc_0
   2641                            break;
   2642          case 1:
   2643                           
   2644                            if(test_mtc.delay) {test_mtc.delay --;break;}
   \                     ??scenario_test_mtc_2:
   \   0000005C   2B01               OR      R16, R17
   \   0000005E   F021               BREQ    ??scenario_test_mtc_11
   \                     ??scenario_test_mtc_12:
   \   00000060   8102               LDD     R16, Z+2
   \   00000062   5001               SUBI    R16, 1
   \   00000064   4010               SBCI    R17, 0
   \   00000066   CFF7               RJMP    ??scenario_test_mtc_10
   2645                             else 
   2646                                 test_mtc.step = 2;
   \                     ??scenario_test_mtc_11:
   \   00000068   E002               LDI     R16, 2
   \                     ??scenario_test_mtc_13:
   \   0000006A   930C               ST      X, R16
   \   0000006C   C061               RJMP    ??scenario_test_mtc_0
   2647                            break;
   2648          
   2649          case 2:
   2650                          mov_lf();
   \                     ??scenario_test_mtc_3:
   \   0000006E   ....               RCALL   ?Subroutine115
   2651                          mov_s ( sizeof(zp_ts_dop) - 3,zp_ts_dop + 3);           
   2652                          for(i=0;i<8;i++)if ((modbus_mem1[AD_TS]>>i)&0x01)s_port('1');else s_port('0');
   \                     ??CrossCallReturnLabel_145:
   \   00000070   ....               RCALL   ?Subroutine129
   \                     ??CrossCallReturnLabel_166:
   \   00000072   ....               RCALL   ?Subroutine111
   \                     ??CrossCallReturnLabel_139:
   \   00000074   F3E8               BRCS    ??CrossCallReturnLabel_145
   2653                          if( modbus_mem1[AD_TS] == 0x0) { s_port(' ');s_port('O'); s_port('K'); }
   \   00000076   ....               RCALL   ?Subroutine130
   \                     ??CrossCallReturnLabel_171:
   \   00000078   2B01               OR      R16, R17
   \   0000007A   F409               BRNE    ??CrossCallReturnLabel_463
   \   0000007C   ....               RCALL   ?Subroutine48
   2654                          mov_lf();
   \                     ??CrossCallReturnLabel_463:
   \   0000007E   ....               RCALL   ?Subroutine101
   2655                          s_port('>'); 
   2656          
   2657                            TU1_ON;
   2658                            TU2_OFF;
   \                     ??CrossCallReturnLabel_124:
   \   00000080   9813               CBI     0x02, 0x03
   2659                          test_mtc.delay = 1000;
   \   00000082   ....               RCALL   ??Subroutine37_0
   2660                          test_mtc.step = 3;
   \                     ??CrossCallReturnLabel_44:
   \   00000084   931C               ST      X, R17
   \   00000086   C054               RJMP    ??scenario_test_mtc_0
   2661                          break; 
   2662          
   2663          case 3:
   2664                           
   2665                            if(test_mtc.delay) {test_mtc.delay --;break;}
   \                     ??scenario_test_mtc_4:
   \   00000088   2B01               OR      R16, R17
   \   0000008A   F751               BRNE    ??scenario_test_mtc_12
   2666                             else 
   2667                                 test_mtc.step = 4;
   \   0000008C   E004               LDI     R16, 4
   \   0000008E   CFED               RJMP    ??scenario_test_mtc_13
   2668                            break;
   2669          
   2670          
   2671          case 4:
   2672                          mov_lf();
   \                     ??scenario_test_mtc_5:
   \   00000090   ....               RCALL   ?Subroutine115
   2673                          mov_s ( sizeof(zp_ts_dop) - 3,zp_ts_dop + 3);            
   2674                          for(i=0;i<8;i++)if ((modbus_mem1[AD_TS]>>i)&0x01)s_port('1');else s_port('0');
   \                     ??CrossCallReturnLabel_146:
   \   00000092   ....               RCALL   ?Subroutine129
   \                     ??CrossCallReturnLabel_167:
   \   00000094   ....               RCALL   ?Subroutine111
   \                     ??CrossCallReturnLabel_140:
   \   00000096   F3E8               BRCS    ??CrossCallReturnLabel_146
   2675                         if( modbus_mem1[AD_TS] == 0xa5) {s_port(' '); s_port('O'); s_port('K'); }
   \   00000098   ....               RCALL   ?Subroutine130
   \                     ??CrossCallReturnLabel_172:
   \   0000009A   3A05               CPI     R16, 165
   \   0000009C   4010               SBCI    R17, 0
   \   0000009E   F409               BRNE    ??CrossCallReturnLabel_462
   \   000000A0   ....               RCALL   ?Subroutine48
   2676                          mov_lf();
   \                     ??CrossCallReturnLabel_462:
   \   000000A2   ....               RCALL   ?Subroutine102
   2677                          s_port('>'); 
   2678          
   2679                            TU1_OFF;
   2680                            TU2_ON;
   \                     ??CrossCallReturnLabel_126:
   \   000000A4   ....               RCALL   ?Subroutine37
   2681                          test_mtc.delay = 1000;
   2682                          test_mtc.step = 5;
   \                     ??CrossCallReturnLabel_42:
   \   000000A6   E005               LDI     R16, 5
   \   000000A8   CFE0               RJMP    ??scenario_test_mtc_13
   2683                          break; 
   2684          
   2685          case 5:
   2686                           
   2687                            if(test_mtc.delay) {test_mtc.delay --;break;}
   \                     ??scenario_test_mtc_6:
   \   000000AA   2B01               OR      R16, R17
   \   000000AC   F6C9               BRNE    ??scenario_test_mtc_12
   2688                             else 
   2689                                 test_mtc.step = 6;
   \   000000AE   E006               LDI     R16, 6
   \   000000B0   CFDC               RJMP    ??scenario_test_mtc_13
   2690                            break;
   2691          
   2692          
   2693          case 6:
   2694                          mov_lf();
   \                     ??scenario_test_mtc_7:
   \   000000B2   ....               RCALL   ?Subroutine115
   2695                          mov_s ( sizeof(zp_ts_dop) - 3,zp_ts_dop + 3);            
   2696                          for(i=0;i<8;i++)if ((modbus_mem1[AD_TS]>>i)&0x01)s_port('1');else s_port('0');
   \                     ??CrossCallReturnLabel_147:
   \   000000B4   ....               RCALL   ?Subroutine129
   \                     ??CrossCallReturnLabel_168:
   \   000000B6   ....               RCALL   ?Subroutine111
   \                     ??CrossCallReturnLabel_141:
   \   000000B8   F3E8               BRCS    ??CrossCallReturnLabel_147
   2697                          if( modbus_mem1[AD_TS] == 0x52) { s_port(' ');s_port('O'); s_port('K'); }
   \   000000BA   ....               RCALL   ?Subroutine130
   \                     ??CrossCallReturnLabel_173:
   \   000000BC   3502               CPI     R16, 82
   \   000000BE   4010               SBCI    R17, 0
   \   000000C0   F409               BRNE    ??CrossCallReturnLabel_461
   \   000000C2   ....               RCALL   ?Subroutine48
   2698                          mov_lf();
   \                     ??CrossCallReturnLabel_461:
   \   000000C4   ....               RCALL   ?Subroutine101
   2699                          s_port('>'); 
   2700          
   2701                            TU1_ON;
   2702                            TU2_ON;
   \                     ??CrossCallReturnLabel_125:
   \   000000C6   ....               RCALL   ?Subroutine37
   2703                          test_mtc.delay = 1000;
   2704                          test_mtc.step = 7;
   \                     ??CrossCallReturnLabel_43:
   \   000000C8   E007               LDI     R16, 7
   \   000000CA   CFCF               RJMP    ??scenario_test_mtc_13
   2705                          break; 
   2706          
   2707          
   2708          case 7:
   2709                           
   2710                            if(test_mtc.delay) {test_mtc.delay --;break;}
   \                     ??scenario_test_mtc_8:
   \   000000CC   2B01               OR      R16, R17
   \   000000CE   F641               BRNE    ??scenario_test_mtc_12
   2711                             else 
   2712                                 test_mtc.step = 8;
   \   000000D0   E008               LDI     R16, 8
   \   000000D2   CFCB               RJMP    ??scenario_test_mtc_13
   2713                            break;
   2714          
   2715          
   2716          case 8:
   2717                          mov_lf();
   \                     ??scenario_test_mtc_9:
   \   000000D4   ....               RCALL   ?Subroutine115
   2718                          mov_s ( sizeof(zp_ts_dop) - 3,zp_ts_dop + 3);           
   2719                          for(i=0;i<8;i++)if ((modbus_mem1[AD_TS]>>i)&0x01)s_port('1');else s_port('0');
   \                     ??CrossCallReturnLabel_148:
   \   000000D6   ....               RCALL   ?Subroutine129
   \                     ??CrossCallReturnLabel_169:
   \   000000D8   ....               RCALL   ?Subroutine111
   \                     ??CrossCallReturnLabel_142:
   \   000000DA   F3E8               BRCS    ??CrossCallReturnLabel_148
   2720                          if( modbus_mem1[AD_TS] == 0xf7) {s_port(' '); s_port('O'); s_port('K'); }
   \   000000DC   ....               RCALL   ?Subroutine130
   \                     ??CrossCallReturnLabel_174:
   \   000000DE   3F07               CPI     R16, 247
   \   000000E0   4010               SBCI    R17, 0
   \   000000E2   F409               BRNE    ??CrossCallReturnLabel_460
   \   000000E4   ....               RCALL   ?Subroutine48
   2721                          mov_lf();
   \                     ??CrossCallReturnLabel_460:
   \   000000E6   ....               RCALL   ?Subroutine102
   2722                          s_port('>'); 
   2723          
   2724                            TU1_OFF;
   2725                            TU2_OFF;
   \                     ??CrossCallReturnLabel_127:
   \   000000E8   9813               CBI     0x02, 0x03
   2726          
   2727          
   2728                          mov_lf();
   \   000000EA   ....               RCALL   ?Subroutine165
   2729                          mov_s ( sizeof(zp_tit) - 3,zp_tit + 3);     
   \                     ??CrossCallReturnLabel_521:
   \   000000EC   ....               LDI     R18, LOW((versia + 619))
   \   000000EE   ....               LDI     R19, HIGH((versia + 619))
   \   000000F0   E004               LDI     R16, 4
   \   000000F2   ........           CALL    ?Subroutine166
   2730                          sprintf(massiv,"%u\0",modbus_mem1[AD_TIT1]);
   \                     ??CrossCallReturnLabel_364:
   \   000000F6   ....               RCALL   ?Subroutine143
   \                     ??CrossCallReturnLabel_206:
   \   000000F8   ....               RCALL   ?Subroutine49
   2731                          mov_massiv(strlen(massiv),massiv);
   2732                          s_port(' ');
   2733                          sprintf(massiv,"%u\0",modbus_mem1[AD_TIT2]);
   \                     ??CrossCallReturnLabel_468:
   \   000000FA   ....               RCALL   ?Subroutine143
   \                     ??CrossCallReturnLabel_207:
   \   000000FC   A102               LDD     R16, Z+34
   \   000000FE   A113               LDD     R17, Z+35
   \   00000100   ....               RCALL   ?Subroutine127
   \                     ??CrossCallReturnLabel_163:
   \   00000102   ....               RCALL   ?Subroutine71
   2734                          mov_massiv(strlen(massiv),massiv);
   \                     ??CrossCallReturnLabel_81:
   \   00000104   ....               RCALL   ?Subroutine70
   2735                          mov_lf(); 
   \                     ??CrossCallReturnLabel_78:
   \   00000106   ....               RCALL   ?Subroutine165
   2736                          mov_s ( sizeof(map_test_mtc),map_test_mtc); 
   \                     ??CrossCallReturnLabel_520:
   \   00000108   ....               LDI     R18, LOW((versia + 142))
   \   0000010A   ....               LDI     R19, HIGH((versia + 142))
   \   0000010C   E00E               LDI     R16, 14
   \   0000010E   ........           CALL    ?Subroutine166
   2737                          s_port(' ');
   \                     ??CrossCallReturnLabel_363:
   \   00000112   ....               RCALL   ??Subroutine49_2
   2738                          s_port('F');
   \                     ??CrossCallReturnLabel_464:
   \   00000114   E406               LDI     R16, 70
   \   00000116   ....               RCALL   ??Subroutine167_0
   2739                          s_port('I');
   \                     ??CrossCallReturnLabel_481:
   \   00000118   E409               LDI     R16, 73
   \   0000011A   ....               RCALL   ??Subroutine167_0
   2740                          s_port('N');
   \                     ??CrossCallReturnLabel_480:
   \   0000011C   E40E               LDI     R16, 78
   \   0000011E   ....               RCALL   ??Subroutine167_0
   2741                          mov_lf(); 
   \                     ??CrossCallReturnLabel_479:
   \   00000120   ....               RCALL   ?Subroutine103
   2742                          s_port('>');
   2743          
   2744                          test_mtc.enable = 0;
   2745                          test_mtc.step = 0;
   2746                          vol_tx_ppp=0;
   2747                          break; 
   2748          
   2749          default:   
   2750                          test_mtc.enable = 0;
   \                     ??CrossCallReturnLabel_474:
   \   00000122   E000               LDI     R16, 0
   \   00000124   01FD               MOVW    R31:R30, R27:R26
   \   00000126   8301               STD     Z+1, R16
   2751                          test_mtc.step = 0;
   \   00000128   930C               ST      X, R16
   2752                          vol_tx_ppp=0;
   \   0000012A   ....               RCALL   ?Subroutine132
   \                     ??CrossCallReturnLabel_181:
   \   0000012C   8300               ST      Z, R16
   \   0000012E   8301               STD     Z+1, R16
   \                     ??scenario_test_mtc_0:
   \   00000130   962D               ADIW    R29:R28, 13
   \   00000132   E0E6               LDI     R30, 6
   \   00000134   ........           JMP     ?EPILOGUE_B6_L09
   2753                          break; 
   2754          }
   2755          }

   \                                 In segment FARCODE, align 2, keep-with-next
   \                     ?Subroutine129:
   \   00000000   01F2               MOVW    R31:R30, R5:R4
   \   00000002   A900               LDD     R16, Z+48
   \   00000004   A911               LDD     R17, Z+49
   \   00000006   2F48               MOV     R20, R24
   \   00000008   ........           CALL    ?US_SHR_L02
   \   0000000C   7001               ANDI    R16, 0x01
   \   0000000E   F011               BREQ    ??Subroutine129_0
   \   00000010   E301               LDI     R16, 49
   \   00000012   9508               RET
   \                     ??Subroutine129_0:
   \   00000014   E300               LDI     R16, 48
   \   00000016   9508               RET

   \                                 In segment FARCODE, align 2, keep-with-next
   \                     ?Subroutine115:
   \   00000000   ........           CALL    mov_lf
   \   00000004   ....               LDI     R18, LOW((versia + 612))
   \   00000006   ....               LDI     R19, HIGH((versia + 612))
   \   00000008   E004               LDI     R16, 4
   \   0000000A   ........           CALL    mov_s
   \   0000000E   E080               LDI     R24, 0
   \   00000010   9508               RET

   \                                 In segment FARCODE, align 2, keep-with-next
   \                     ?Subroutine102:
   \   00000000   ........           CALL    mov_lf
   \   00000004   E30E               LDI     R16, 62
   \   00000006   ........           CALL    s_port
   \   0000000A   9814               CBI     0x02, 0x04
   \   0000000C   9508               RET

   \                                 In segment FARCODE, align 2, keep-with-next
   \                     ?Subroutine101:
   \   00000000   ........           CALL    mov_lf
   \   00000004   E30E               LDI     R16, 62
   \   00000006   ........           CALL    s_port
   \   0000000A   9A14               SBI     0x02, 0x04
   \   0000000C   9508               RET

   \                                 In segment FARCODE, align 2, keep-with-next
   \                     ?Subroutine48:
   \   00000000   E200               LDI     R16, 32
   \   00000002   ........           CALL    s_port
   \   00000006   E40F               LDI     R16, 79
   \   00000008   ........           CALL    s_port
   \   0000000C   E40B               LDI     R16, 75
   \   0000000E   ....               RJMP    ??Subroutine167_0

   \                                 In segment FARCODE, align 2, keep-with-next
   \                     ?Subroutine37:
   \   00000000   9A13               SBI     0x02, 0x03
   \                     ??Subroutine37_0:
   \   00000002   EE08               LDI     R16, 232
   \   00000004   E013               LDI     R17, 3
   \   00000006   01FD               MOVW    R31:R30, R27:R26
   \   00000008   8302               STD     Z+2, R16
   \   0000000A   8313               STD     Z+3, R17
   \   0000000C   9508               RET

   \                                 In segment NEAR_ID, align 1, keep-with-next
   \                     `?<Initializer for <Constant "%hhi\\000">>`:
   \   00000000   682569680000       DB 25H, 68H, 68H, 69H, 0, 0
   \                     `?<Initializer for <Constant "%lu\\000">>`:
   \   00000006   6C25007500         DB 25H, 6CH, 75H, 0, 0
   \                     `?<Initializer for <Constant "%d\\000">>`:
   \   0000000B   64250000           DB 25H, 64H, 0, 0
   \                     `?<Initializer for <Constant "%u\\000">>`:
   \   0000000F   75250000           DB 25H, 75H, 0, 0

   \                                 In segment SWITCH, align 2, keep-with-next
   \                     `?<Jumptable for read_menu>_0`:
   \   00000000   01                 DB      1
   \   00000001   00                 DB      0
   \   00000002   ......             DP      (??read_menu_1) /2
   \   00000005   0028               DW      40
   \   00000007   ......             DP      (??read_menu_3) /2
   \   0000000A   ......             DP      (??read_menu_5) /2
   \   0000000D   ......             DP      (??read_menu_6) /2
   \   00000010   ......             DP      (??read_menu_16) /2
   \   00000013   ......             DP      (??read_menu_17) /2
   \   00000016   ......             DP      (??read_menu_19) /2
   \   00000019   ......             DP      (??read_menu_22) /2
   \   0000001C   ......             DP      (??read_menu_23) /2
   \   0000001F   ......             DP      (??read_menu_24) /2
   \   00000022   ......             DP      (??read_menu_25) /2
   \   00000025   ......             DP      (??read_menu_26) /2
   \   00000028   ......             DP      (??read_menu_27) /2
   \   0000002B   ......             DP      (??read_menu_28) /2
   \   0000002E   ......             DP      (??read_menu_30) /2
   \   00000031   ......             DP      (??read_menu_33) /2
   \   00000034   ......             DP      (??read_menu_35) /2
   \   00000037   ......             DP      (??read_menu_36) /2
   \   0000003A   ......             DP      (??read_menu_37) /2
   \   0000003D   ......             DP      (??read_menu_39) /2
   \   00000040   ......             DP      (??read_menu_40) /2
   \   00000043   ......             DP      (??read_menu_41) /2
   \   00000046   ......             DP      (??read_menu_43) /2
   \   00000049   ......             DP      (??read_menu_44) /2
   \   0000004C   ......             DP      (??read_menu_45) /2
   \   0000004F   ......             DP      (??CrossCallReturnLabel_149) /2
   \   00000052   ......             DP      (??read_menu_50) /2
   \   00000055   ......             DP      (??read_menu_51) /2
   \   00000058   ......             DP      (??read_menu_52) /2
   \   0000005B   ......             DP      (??read_menu_53) /2
   \   0000005E   ......             DP      (??read_menu_55) /2
   \   00000061   ......             DP      (??read_menu_58) /2
   \   00000064   ......             DP      (??read_menu_60) /2
   \   00000067   ......             DP      (??read_menu_61) /2
   \   0000006A   ......             DP      (??read_menu_62) /2
   \   0000006D   ......             DP      (??read_menu_66) /2
   \   00000070   ......             DP      (??read_menu_67) /2
   \   00000073   ......             DP      (??read_menu_70) /2
   \   00000076   ......             DP      (??read_menu_71) /2
   \   00000079   ......             DP      (??read_menu_73) /2
   \   0000007C   ......             DP      (??read_menu_15) /2
   \   0000007F   00                 DB      0

   \                                 In segment SWITCH, align 2, keep-with-next
   \                     `?<Jumptable for write_menu>_0`:
   \   00000000   01                 DB      1
   \   00000001   00                 DB      0
   \   00000002   ......             DP      (??write_menu_3) /2
   \   00000005   0028               DW      40
   \   00000007   ......             DP      (??write_menu_0) /2
   \   0000000A   ......             DP      (??write_menu_3) /2
   \   0000000D   ......             DP      (??write_menu_2) /2
   \   00000010   ......             DP      (??write_menu_13) /2
   \   00000013   ......             DP      (??write_menu_18) /2
   \   00000016   ......             DP      (??write_menu_20) /2
   \   00000019   ......             DP      (??write_menu_21) /2
   \   0000001C   ......             DP      (??write_menu_25) /2
   \   0000001F   ......             DP      (??write_menu_27) /2
   \   00000022   ......             DP      (??write_menu_28) /2
   \   00000025   ......             DP      (??write_menu_29) /2
   \   00000028   ......             DP      (??write_menu_30) /2
   \   0000002B   ......             DP      (??write_menu_32) /2
   \   0000002E   ......             DP      (??write_menu_33) /2
   \   00000031   ......             DP      (??write_menu_36) /2
   \   00000034   ......             DP      (??write_menu_37) /2
   \   00000037   ......             DP      (??write_menu_38) /2
   \   0000003A   ......             DP      (??write_menu_39) /2
   \   0000003D   ......             DP      (??write_menu_40) /2
   \   00000040   ......             DP      (??write_menu_41) /2
   \   00000043   ......             DP      (??write_menu_42) /2
   \   00000046   ......             DP      (??write_menu_48) /2
   \   00000049   ......             DP      (??write_menu_55) /2
   \   0000004C   ......             DP      (??write_menu_61) /2
   \   0000004F   ......             DP      (??write_menu_3) /2
   \   00000052   ......             DP      (??write_menu_62) /2
   \   00000055   ......             DP      (??write_menu_63) /2
   \   00000058   ......             DP      (??write_menu_67) /2
   \   0000005B   ......             DP      (??write_menu_68) /2
   \   0000005E   ......             DP      (??write_menu_71) /2
   \   00000061   ......             DP      (??write_menu_73) /2
   \   00000064   ......             DP      (??write_menu_78) /2
   \   00000067   ......             DP      (??write_menu_83) /2
   \   0000006A   ......             DP      (??write_menu_3) /2
   \   0000006D   ......             DP      (??write_menu_3) /2
   \   00000070   ......             DP      (??write_menu_85) /2
   \   00000073   ......             DP      (??write_menu_91) /2
   \   00000076   ......             DP      (??write_menu_92) /2
   \   00000079   ......             DP      (??write_menu_1) /2
   \   0000007C   ......             DP      (??write_menu_94) /2
   \   0000007F   00                 DB      0

   \                                 In segment NEAR_I, align 1, keep-with-next
   \   00000000                      REQUIRE `?<Segment init: NEAR_I>`
   \                     `?<Constant "%hhi\\000">`:
   \   00000000                      DS 6
   \   00000006                      REQUIRE `?<Initializer for <Constant "%hhi\\000">>`
   \   00000006                      DS 5
   \   0000000B                      REQUIRE `?<Initializer for <Constant "%lu\\000">>`
   \   0000000B                      DS 4
   \   0000000F                      REQUIRE `?<Initializer for <Constant "%d\\000">>`
   \   0000000F                      DS 4
   \   00000013                      REQUIRE `?<Initializer for <Constant "%u\\000">>`
   2756          #endif

   Maximum stack usage in bytes:

     Function               CSTACK RSTACK
     --------               ------ ------
     at_mon_232                 6      3
       -> scenario_test_mtc     6      3
       -> read_menu             6      3
       -> read_menu             6      3
       -> read_menu             6      3
       -> write_menu            6      3
       -> read_menu             6      3
     atol                       0      3
       -> _Stoul                0      3
     check_keys                 4      3
       -> RdFromFleshToArr      4      3
       -> crc_m1                4      3
     check_memory_map          72      3
       -> RdFromFleshToArr     72      3
       -> crc_m1               72      3
       -> RdFromFleshToArr     72      3
       -> crc_m1               72      3
       -> crc_m1               72      3
       -> WrArrayToFlesh       72      3
       -> RdFromFleshToArr     72      3
       -> crc_m1               72      3
       -> crc_m1               72      3
       -> WrArrayToFlesh       72      3
       -> RdFromFleshToArr     72      3
       -> crc_m1               72      3
       -> crc_m1               72      3
       -> WrArrayToFlesh       72      3
       -> RdFromFleshToArr     72      3
       -> crc_m1               72      3
       -> crc_m1               72      3
       -> WrArrayToFlesh       72      3
       -> RdFromFleshToArr     72      3
       -> crc_m1               72      3
       -> crc_m1               72      3
       -> WrArrayToFlesh       72      3
       -> RdFromFleshToArr     72      3
       -> crc_m1               72      3
       -> crc_m1               72      3
       -> WrArrayToFlesh       72      3
       -> RdFromFleshToArr     72      3
       -> crc_m1               72      3
       -> crc_m1               72      3
       -> WrArrayToFlesh       72      3
       -> RdFromFleshToArr     72      3
       -> crc_m1               72      3
       -> crc_m1               72      3
       -> WrArrayToFlesh       72      3
       -> RdFromFleshToArr     72      3
       -> crc_m1               72      3
       -> crc_m1               72      3
       -> WrArrayToFlesh       72      3
       -> RdFromFleshToArr     72      3
       -> crc_m1               72      3
       -> crc_m1               72      3
       -> WrArrayToFlesh       72      3
       -> RdFromFleshToArr     72      3
       -> crc_m1               72      3
       -> burst_ds_r           72      3
       -> crc_m1               72      3
       -> WrArrayToFlesh       72      3
     load_par_first             0      6
       -> WrArrayToFlesh        0      3
     monitor_terminal           4      3
       -> delay                 4      3
       -> at_mon_232            4      3
       -> lock_it               4      3
     mov_massiv                 4      3
       -> s_port                4      3
     read_menu                 92      6
       -> memset               88      3
       -> mov_lf               88      3
       -> mov_s                88      3
       -> temp_to_grad         88      3
       -> sprintf              90      3
       -> strlen               88      3
       -> mov_massiv           88      3
       -> s_port               88      3
       -> s_port               88      3
       -> s_port               88      3
       -> s_port               88      3
       -> s_port               88      3
       -> sprintf              90      3
       -> strlen               88      3
       -> mov_massiv           88      3
       -> mov_lf               88      3
       -> s_port               88      3
       -> s_port               88      3
       -> mov_s                88      3
       -> mov_lf               88      3
       -> s_port               88      3
       -> s_port               88      3
       -> mov_s                88      3
       -> mov_lf               88      3
       -> s_port               88      3
       -> s_port               88      3
       -> mov_s                88      3
       -> RdFromFleshToArr     88      3
       -> mov_lf               88      3
       -> mov_s                88      3
       -> s_port               88      3
       -> s_port               88      3
       -> s_port               88      3
       -> s_port               88      3
       -> s_port               88      3
       -> s_port               88      3
       -> s_port               88      3
       -> s_port               88      3
       -> s_port               88      3
       -> s_port               88      3
       -> s_port               88      3
       -> s_port               88      3
       -> s_port               88      3
       -> s_port               88      3
       -> mov_lf               88      3
       -> s_port               88      3
       -> RdFromFleshToArr     88      3
       -> mov_lf               88      3
       -> mov_s                88      3
       -> RdFromFleshToArr     88      3
       -> mov_lf               88      3
       -> mov_s                88      3
       -> sprintf              90      3
       -> strlen               88      3
       -> mov_massiv           88      3
       -> s_port               88      3
       -> sprintf              90      3
       -> strlen               88      3
       -> mov_massiv           88      3
       -> s_port               88      3
       -> sprintf              90      3
       -> strlen               88      3
       -> mov_massiv           88      3
       -> s_port               88      3
       -> sprintf              90      3
       -> strlen               88      3
       -> mov_massiv           88      3
       -> RdFromFleshToArr     88      3
       -> mov_lf               88      3
       -> mov_s                88      3
       -> sprintf              90      3
       -> strlen               88      3
       -> mov_massiv           88      3
       -> RdFromFleshToArr     88      3
       -> mov_lf               88      3
       -> mov_s                88      3
       -> sprintf              90      3
       -> strlen               88      3
       -> mov_massiv           88      3
       -> RdFromFleshToArr     88      3
       -> mov_lf               88      3
       -> mov_s                88      3
       -> sprintf              90      3
       -> strlen               88      3
       -> mov_massiv           88      3
       -> RdFromFleshToArr     88      3
       -> mov_lf               88      3
       -> mov_s                88      3
       -> sprintf              90      3
       -> strlen               88      3
       -> mov_massiv           88      3
       -> RdFromFleshToArr     88      3
       -> mov_lf               88      3
       -> mov_s                88      3
       -> sprintf              90      3
       -> strlen               88      3
       -> mov_massiv           88      3
       -> RdFromFleshToArr     88      3
       -> mov_lf               88      3
       -> mov_s                88      3
       -> sprintf              90      3
       -> strlen               88      3
       -> mov_massiv           88      3
       -> RdFromFleshToArr     88      3
       -> mov_lf               88      3
       -> mov_s                88      3
       -> sprintf              90      3
       -> strlen               88      3
       -> mov_massiv           88      3
       -> RdFromFleshToArr     88      3
       -> mov_lf               88      3
       -> mov_s                88      3
       -> sprintf              90      3
       -> strlen               88      3
       -> mov_massiv           88      3
       -> RdFromFleshToArr     88      3
       -> mov_lf               88      3
       -> mov_s                88      3
       -> s_port               88      3
       -> s_port               88      3
       -> s_port               88      3
       -> s_port               88      3
       -> s_port               88      3
       -> RdFromFleshToArr     88      3
       -> mov_lf               88      3
       -> mov_s                88      3
       -> sprintf              90      3
       -> strlen               88      3
       -> mov_massiv           88      3
       -> RdFromFleshToArr     88      3
       -> mov_lf               88      3
       -> mov_s                88      3
       -> sprintf              90      3
       -> strlen               88      3
       -> mov_massiv           88      3
       -> RdFromFleshToArr     88      3
       -> mov_lf               88      3
       -> mov_s                88      3
       -> sprintf              90      3
       -> strlen               88      3
       -> mov_massiv           88      3
       -> RdFromFleshToArr     88      3
       -> mov_lf               88      3
       -> mov_s                88      3
       -> sprintf              90      3
       -> strlen               88      3
       -> mov_massiv           88      3
       -> RdFromFleshToArr     88      3
       -> mov_lf               88      3
       -> mov_s                88      3
       -> sprintf              90      3
       -> strlen               88      3
       -> mov_massiv           88      3
       -> mov_lf               88      3
       -> mov_s                88      3
       -> sprintf              90      3
       -> strlen               88      3
       -> mov_massiv           88      3
       -> RdFromFleshToArr     88      3
       -> mov_lf               88      3
       -> mov_s                88      3
       -> RdFromFleshToArr     88      3
       -> mov_lf               88      3
       -> mov_s                88      3
       -> RdFromFleshToArr     88      3
       -> mov_lf               88      3
       -> mov_s                88      3
       -> mov_lf               88      3
       -> mov_s                88      3
       -> s_port               88      3
       -> s_port               88      3
       -> s_port               88      3
       -> mov_lf               88      3
       -> mov_s                88      3
       -> burst_ds_r           88      3
       -> mov_lf               88      3
       -> mov_s                88      3
       -> sprintf              90      3
       -> strlen               88      3
       -> mov_massiv           88      3
       -> s_port               88      3
       -> sprintf              90      3
       -> strlen               88      3
       -> mov_massiv           88      3
       -> s_port               88      3
       -> sprintf              90      3
       -> strlen               88      3
       -> mov_massiv           88      3
       -> burst_ds_r           88      3
       -> mov_lf               88      3
       -> mov_s                88      3
       -> sprintf              90      3
       -> strlen               88      3
       -> mov_massiv           88      3
       -> s_port               88      3
       -> sprintf              90      3
       -> strlen               88      3
       -> mov_massiv           88      3
       -> s_port               88      3
       -> sprintf              90      3
       -> strlen               88      3
       -> mov_massiv           88      3
       -> mov_lf               88      3
       -> mov_s                88      3
       -> s_port               88      3
       -> mov_lf               88      3
       -> mov_s                88      3
       -> RdFromFleshToArr     88      3
       -> memcmp               88      3
       -> s_port               88      3
       -> s_port               88      3
       -> s_port               88      3
       -> s_port               88      3
       -> s_port               88      3
       -> s_port               88      3
       -> mov_lf               88      3
       -> mov_s                88      3
       -> RdFromFleshToArr     88      3
       -> s_port               88      3
       -> s_port               88      3
       -> s_port               88      3
       -> s_port               88      3
       -> mov_lf               88      3
       -> mov_s                88      3
       -> RdFromFleshToArr     88      3
       -> s_port               88      3
       -> s_port               88      3
       -> s_port               88      3
       -> s_port               88      3
       -> mov_lf               88      3
       -> mov_s                88      3
       -> RdFromFleshToArr     88      3
       -> sprintf              92      3
       -> strlen               88      3
       -> mov_massiv           88      3
       -> s_port               88      3
       -> s_port               88      3
       -> s_port               88      3
       -> memset               88      3
       -> RdFromFleshToArr     88      3
       -> sprintf              92      3
       -> strlen               88      3
       -> mov_massiv           88      3
       -> mov_lf               88      3
       -> mov_s                88      3
       -> s_port               88      3
       -> s_port               88      3
       -> mov_lf               88      3
       -> mov_s                88      3
       -> sprintf              90      3
       -> strlen               88      3
       -> mov_massiv           88      3
       -> s_port               88      3
       -> sprintf              90      3
       -> strlen               88      3
       -> mov_massiv           88      3
       -> mov_lf               88      3
       -> mov_s                88      3
       -> s_port               88      3
       -> s_port               88      3
       -> s_port               88      3
       -> mov_lf               88      3
       -> mov_s                88      3
       -> sprintf              90      3
       -> strlen               88      3
       -> mov_massiv           88      3
       -> mov_lf               88      3
       -> mov_s                88      3
       -> s_port               88      3
       -> s_port               88      3
       -> s_port               88      3
       -> s_port               88      3
       -> s_port               88      3
       -> s_port               88      3
       -> mov_lf               88      3
       -> mov_s                88      3
       -> fun_init_sim900      88      3
       -> mov_lf               88      3
       -> s_port               88      3
       -> mov_s                88      3
       -> mov_lf               88      3
     ret_version                0      3
     scenario_test_mtc         21      6
       -> mov_lf               19      3
       -> mov_s                19      3
       -> s_port               19      3
       -> s_port               19      3
       -> s_port               19      3
       -> s_port               19      3
       -> s_port               19      3
       -> mov_lf               19      3
       -> s_port               19      3
       -> mov_lf               19      3
       -> mov_s                19      3
       -> s_port               19      3
       -> s_port               19      3
       -> s_port               19      3
       -> s_port               19      3
       -> s_port               19      3
       -> mov_lf               19      3
       -> s_port               19      3
       -> mov_lf               19      3
       -> mov_s                19      3
       -> s_port               19      3
       -> s_port               19      3
       -> s_port               19      3
       -> s_port               19      3
       -> s_port               19      3
       -> mov_lf               19      3
       -> s_port               19      3
       -> mov_lf               19      3
       -> mov_s                19      3
       -> s_port               19      3
       -> s_port               19      3
       -> s_port               19      3
       -> s_port               19      3
       -> s_port               19      3
       -> mov_lf               19      3
       -> s_port               19      3
       -> mov_lf               19      3
       -> mov_s                19      3
       -> sprintf              21      3
       -> strlen               19      3
       -> mov_massiv           19      3
       -> s_port               19      3
       -> sprintf              21      3
       -> strlen               19      3
       -> mov_massiv           19      3
       -> mov_lf               19      3
       -> mov_s                19      3
       -> s_port               19      3
       -> s_port               19      3
       -> s_port               19      3
       -> s_port               19      3
       -> mov_lf               19      3
       -> s_port               19      3
     test_loop                  1      3
       -> mov_lf                1      3
       -> mov_s                 1      3
       -> mov_lf                1      3
       -> s_port                1      3
       -> s_port                1      3
       -> s_port                1      3
       -> s_port                1      3
       -> s_port                1      3
       -> s_port                1      3
       -> mov_lf                1      3
     test_loop2                 1      3
       -> mov_lf                1      3
       -> mov_s                 1      3
       -> mov_lf                1      3
       -> s_port                1      3
       -> s_port                1      3
       -> s_port                1      3
       -> s_port                1      3
       -> s_port                1      3
       -> s_port                1      3
       -> mov_lf                1      3
       -> s_port                1      3
     vosstan_memory            70      3
       -> crc_m1               70      3
       -> WrArrayToFlesh       70      3
       -> crc_m1               70      3
       -> WrArrayToFlesh       70      3
       -> crc_m1               70      3
       -> WrArrayToFlesh       70      3
       -> RdFromFleshToArr     70      3
       -> crc_m1               70      3
       -> WrArrayToFlesh       70      3
       -> crc_m1               70      3
       -> WrArrayToFlesh       70      3
       -> crc_m1               70      3
       -> WrArrayToFlesh       70      3
       -> crc_m1               70      3
       -> WrArrayToFlesh       70      3
       -> crc_m1               70      3
       -> WrArrayToFlesh       70      3
       -> crc_m1               70      3
       -> WrArrayToFlesh       70      3
       -> crc_m1               70      3
       -> WrArrayToFlesh       70      3
       -> crc_m1               70      3
       -> WrArrayToFlesh       70      3
       -> burst_ds_r           70      3
       -> crc_m1               70      3
       -> WrArrayToFlesh       70      3
     write_menu                83      6
       -> RdFromFleshToArr     83      3
       -> mov_s                83      3
       -> RdFromFleshToArr     83      3
       -> RdFromFleshToArr     83      3
       -> crc_m1               83      3
       -> WrArrayToFlesh       83      3
       -> RdFromFleshToArr     83      3
       -> crc_m1               83      3
       -> WrArrayToFlesh       83      3
       -> RdFromFleshToArr     83      3
       -> RdFromFleshToArr     83      3
       -> RdFromFleshToArr     83      3
       -> atol                 83      3
       -> atol                 83      3
       -> atol                 83      3
       -> atol                 83      3
       -> crc_m1               83      3
       -> WrArrayToFlesh       83      3
       -> atol                 83      3
       -> RdFromFleshToArr     83      3
       -> crc_m1               83      3
       -> WrArrayToFlesh       83      3
       -> atol                 83      3
       -> RdFromFleshToArr     83      3
       -> crc_m1               83      3
       -> WrArrayToFlesh       83      3
       -> mov_s                83      3
       -> atol                 83      3
       -> RdFromFleshToArr     83      3
       -> crc_m1               83      3
       -> WrArrayToFlesh       83      3
       -> atol                 83      3
       -> RdFromFleshToArr     83      3
       -> crc_m1               83      3
       -> WrArrayToFlesh       83      3
       -> atol                 83      3
       -> RdFromFleshToArr     83      3
       -> crc_m1               83      3
       -> WrArrayToFlesh       83      3
       -> atol                 83      3
       -> RdFromFleshToArr     83      3
       -> crc_m1               83      3
       -> WrArrayToFlesh       83      3
       -> atol                 83      3
       -> RdFromFleshToArr     83      3
       -> crc_m1               83      3
       -> WrArrayToFlesh       83      3
       -> atol                 83      3
       -> RdFromFleshToArr     83      3
       -> crc_m1               83      3
       -> WrArrayToFlesh       83      3
       -> RdFromFleshToArr     83      3
       -> crc_m1               83      3
       -> WrArrayToFlesh       83      3
       -> atol                 83      3
       -> RdFromFleshToArr     83      3
       -> crc_m1               83      3
       -> WrArrayToFlesh       83      3
       -> atol                 83      3
       -> RdFromFleshToArr     83      3
       -> crc_m1               83      3
       -> WrArrayToFlesh       83      3
       -> atol                 83      3
       -> RdFromFleshToArr     83      3
       -> crc_m1               83      3
       -> WrArrayToFlesh       83      3
       -> atol                 83      3
       -> RdFromFleshToArr     83      3
       -> crc_m1               83      3
       -> WrArrayToFlesh       83      3
       -> atol                 83      3
       -> RdFromFleshToArr     83      3
       -> crc_m1               83      3
       -> WrArrayToFlesh       83      3
       -> atol                 83      3
       -> RdFromFleshToArr     83      3
       -> crc_m1               83      3
       -> WrArrayToFlesh       83      3
       -> RdFromFleshToArr     83      3
       -> crc_m1               83      3
       -> WrArrayToFlesh       83      3
       -> RdFromFleshToArr     83      3
       -> crc_m1               83      3
       -> WrArrayToFlesh       83      3
       -> mov_lf               83      3
       -> test_loop            83      3
       -> test_loop2           83      3
       -> mov_lf               83      3
       -> s_port               83      3
       -> vosstan_memory       83      3
       -> burst_ds_r           83      3
       -> atol                 83      3
       -> atol                 83      3
       -> atol                 83      3
       -> set_rlt              83      3
       -> burst_ds_r           83      3
       -> atol                 83      3
       -> atol                 83      3
       -> atol                 83      3
       -> set_rlt              83      3
       -> WrArrayToFlesh       83      3
       -> RdFromFleshToArr     83      3
       -> s_port               83      3
       -> s_port               83      3
       -> s_port               83      3
       -> mov_s                83      3
       -> crc_m1               83      3
       -> WrArrayToFlesh       83      3
       -> check_keys           83      3
       -> crc_m1               83      3
       -> WrArrayToFlesh       83      3
       -> crc_m1               83      3
       -> WrArrayToFlesh       83      3
       -> burst_ds_r           83      3
       -> crc_m1               83      3
       -> WrArrayToFlesh       83      3
       -> WrArrayToFlesh       83      3
       -> mov_s                83      3
       -> lock_it              83      3
       -> mov_lf               83      3
       -> send_to_sim900       83      3


   Segment part sizes:

     Function/Label                 Bytes
     --------------                 -----
     _A_UDR3                           1
     _A_UBRR3                          2
     _A_UCSR3B                         1
     _A_UCSR3A                         1
     _A_PINK                           1
     _A_PORTJ                          1
     _A_UDR2                           1
     _A_UBRR2                          2
     _A_UCSR2B                         1
     _A_UCSR2A                         1
     _A_UDR1                           1
     _A_UBRR1                          2
     _A_UCSR1B                         1
     _A_UCSR1A                         1
     _A_UCSR0B                         1
     _A_WDTCSR                         1
     _A_PORTG                          1
     _A_PORTD                          1
     _A_PORTC                          1
     _A_PINB                           1
     _A_PORTA                          1
     atol                             12
     test_mtc                          4
     e_first_on                        1
     e_debug                           1
     term                              2
     buf_boot_ver                     10
     versia                          651
     map_vers                         55
     str_loop_ok                      11
     str_loop2_ok                     11
     command_900                       8
     def_usname                        1
     def_uspsw                         1
     def_apnr                         40
     def_usnamer                       1
     def_uspswr                        1
     def_usname1                       1
     def_uspsw1                        1
     def_usname2                       1
     def_uspsw2                        1
     def_usname3                       1
     def_uspsw3                        1
     fl_at_mom_232                     3
     Regim                             1
     keys                             10
     ret_version                     242
     ?Subroutine175                    4
     ?Subroutine50                     8
     ?Subroutine30                     6
     vosstan_memory                  124
     ?Subroutine91                     4
     ?Subroutine23                    10
     ?Subroutine22                     8
     ?Subroutine152                    8
     ?Subroutine84                     8
     ?Subroutine76                    10
     ?Subroutine74                    10
     ?Subroutine159                    4
     ?Subroutine66                    14
     ?Subroutine64                    38
     ?Subroutine155                    6
     ?Subroutine63                    42
     ?Subroutine60                    62
     ?Subroutine55                    10
     ?Subroutine45                    68
     ?Subroutine44                    68
     ?Subroutine43                    68
     ?Subroutine42                    68
     ?Subroutine41                    68
     ?Subroutine24                    40
     ?Subroutine171                    4
     ?Subroutine163                    6
     ?Subroutine21                    30
     ?Subroutine14                    30
     ?Subroutine13                    30
     ?Subroutine8                     56
     ?Subroutine7                     68
     ?Subroutine168                    4
     ?Subroutine29                     6
     ?Subroutine56                     8
     ?Subroutine161                    4
     check_memory_map                280
     ?Subroutine65                    12
     ?Subroutine147                   24
     ?Subroutine170                    6
     ?Subroutine17                    18
     ?Subroutine16                     4
     ?Subroutine68                    10
     ?Subroutine157                    6
     ?Subroutine52                     8
     ?Subroutine67                     8
     load_par_first                   46
     ?Subroutine97                     6
     ?Subroutine79                     8
     ?Subroutine169                    6
     ?Subroutine75                    10
     ?Subroutine4                      6
     check_keys                       44
     ?Subroutine110                    6
     ?Subroutine164                    6
     ?Subroutine109                    4
     ?Subroutine173                    4
     mov_massiv                       26
     ?Subroutine167                    6
     ?Subroutine174                    4
     read_menu                      1092
     ?Subroutine122                    4
     ?Subroutine156                    6
     ?Subroutine120                    8
     ?Subroutine119                   10
     ?Subroutine118                   10
     ?Subroutine112                    8
     ?Subroutine153                    8
     ?Subroutine106                    6
     ?Subroutine105                    2
     ?Subroutine166                    4
     ?Subroutine104                    6
     ?Subroutine100                   10
     ?Subroutine99                     4
     ?Subroutine86                     4
     ?Subroutine77                    10
     ?Subroutine72                    40
     ?Subroutine57                    16
     ?Subroutine19                    20
     ?Subroutine12                    34
     ?Subroutine154                    8
     ?Subroutine11                    34
     ?Subroutine10                    36
     ?Subroutine6                      8
     ?Subroutine121                    4
     ?Subroutine114                    4
     ?Subroutine146                   38
     ?Subroutine2                      6
     ?Subroutine158                    6
     ?Subroutine165                    4
     ?Subroutine117                    6
     ?Subroutine103                    8
     ?Subroutine130                   10
     ?Subroutine127                   10
     ?Subroutine111                   10
     ?Subroutine71                    14
     ?Subroutine70                    12
     ?Subroutine49                    40
     write_menu                     1886
     ?Subroutine140                    8
     ?Subroutine139                    8
     ?Subroutine138                   22
     ?Subroutine137                   12
     ?Subroutine136                    6
     ?Subroutine135                    6
     ?Subroutine172                    6
     ?Subroutine149                   10
     ?Subroutine131                   14
     ?Subroutine124                   12
     ?Subroutine123                   12
     ?Subroutine107                   10
     ?Subroutine98                     2
     ?Subroutine151                   10
     ?Subroutine96                    16
     ?Subroutine95                    18
     ?Subroutine94                    16
     ?Subroutine93                    16
     ?Subroutine150                   10
     ?Subroutine92                    18
     ?Subroutine90                    22
     ?Subroutine89                    18
     ?Subroutine88                    20
     ?Subroutine87                     4
     ?Subroutine83                    14
     ?Subroutine82                    14
     ?Subroutine81                    14
     ?Subroutine80                    14
     ?Subroutine78                    14
     ?Subroutine69                    22
     ?Subroutine59                    40
     ?Subroutine58                    30
     ?Subroutine47                    12
     ?Subroutine46                     4
     ?Subroutine39                    14
     ?Subroutine36                     6
     ?Subroutine160                    4
     ?Subroutine35                     8
     ?Subroutine34                    20
     ?Subroutine33                     2
     ?Subroutine148                   12
     ?Subroutine32                    36
     ?Subroutine31                    66
     ?Subroutine28                    16
     ?Subroutine27                    22
     ?Subroutine26                    24
     ?Subroutine25                    14
     ?Subroutine20                    22
     ?Subroutine18                    24
     ?Subroutine15                    18
     ?Subroutine9                      4
     ?Subroutine3                     12
     ?Subroutine1                     18
     ?Subroutine126                    6
     ?Subroutine143                    6
     ?Subroutine132                    6
     at_mon_232                      258
     ?Subroutine145                   12
     ?Subroutine142                   12
     ?Subroutine141                   12
     ?Subroutine38                    14
     ?Subroutine40                     6
     monitor_terminal                208
     ?Subroutine144                    8
     ?Subroutine128                   10
     test_loop                        52
     ?Subroutine162                    4
     ?Subroutine125                    8
     ?Subroutine113                   10
     ?Subroutine108                    4
     ?Subroutine54                     4
     ?Subroutine53                    10
     ?Subroutine51                    14
     ?Subroutine5                      8
     ?Subroutine0                     64
     test_loop2                       66
     scenario_test_mtc               312
     ?Subroutine129                   24
     ?Subroutine115                   18
     ?Subroutine102                   14
     ?Subroutine101                   14
     ?Subroutine48                    16
     ?Subroutine37                    14
     ?<Initializer for <Constant "%hhi\000">>
                                      19
     ?<Jumptable for read_menu>_0    128
     ?<Jumptable for write_menu>_0   128
     ?<Constant "%hhi\000">           19
      Others                          14

 
    24 bytes in segment ABSOLUTE
     2 bytes in segment EEPROM_AN
 7 290 bytes in segment FARCODE
    14 bytes in segment INITTAB
   786 bytes in segment NEAR_F
    19 bytes in segment NEAR_I
    19 bytes in segment NEAR_ID
    30 bytes in segment NEAR_Z
   256 bytes in segment SWITCH
 
 8 339 bytes of CODE  memory (+ 26 bytes shared)
    49 bytes of DATA  memory (+ 24 bytes shared)
     0 bytes of XDATA memory (+  2 bytes shared)

Errors: none
Warnings: none
