##############################################################################
#                                                                            #
#                                                      19/Nov/2007  12:15:49 #
# IAR Atmel AVR C/C++ Compiler V4.12A/W32, Evaluation Version                #
# Copyright 1996-2005 IAR Systems. All rights reserved.                      #
#                                                                            #
#    Source file  =  D:\PRJIAR\NSS_BETA\ldterm.c                             #
#    Command line =  D:\PRJIAR\NSS_BETA\ldterm.c --cpu=m1280 -ms -o          #
#                    D:\PRJIAR\NSS_BETA\Debug\Obj\ -lCN                      #
#                    D:\PRJIAR\NSS_BETA\Debug\List\ -lA                      #
#                    D:\PRJIAR\NSS_BETA\Debug\List\ -y                       #
#                    --initializers_in_flash -z6 --no_inline                 #
#                    --no_cross_call --no_tbaa --debug -e -I "D:\Program     #
#                    Files\IAR Systems\Embedded Workbench 4.0                #
#                    Evaluation\avr\INC\" -I "D:\Program Files\IAR           #
#                    Systems\Embedded Workbench 4.0                          #
#                    Evaluation\avr\INC\DLIB\" --eeprom_size 4096            #
#                    --dlib_config "D:\Program Files\IAR Systems\Embedded    #
#                    Workbench 4.0 Evaluation\avr\LIB\DLIB\dlAVR-3s-ec-n.h"  #
#    List file    =  D:\PRJIAR\NSS_BETA\Debug\List\ldterm.lst                #
#    Object file  =  D:\PRJIAR\NSS_BETA\Debug\Obj\ldterm.r90                 #
#                                                                            #
#                                                                            #
##############################################################################

D:\PRJIAR\NSS_BETA\ldterm.c
      1          #include <iom1280.h>

   \                                 In segment ABSOLUTE, at 0xd4
   \   union <unnamed> volatile __io _A_UBRR2
   \                     _A_UBRR2:
   \   00000000                      DS 2

   \                                 In segment ABSOLUTE, at 0xd1
   \   union <unnamed> volatile __io _A_UCSR2B
   \                     _A_UCSR2B:
   \   00000000                      DS 1

   \                                 In segment ABSOLUTE, at 0xc1
   \   union <unnamed> volatile __io _A_UCSR0B
   \                     _A_UCSR0B:
   \   00000000                      DS 1

   \                                 In segment ABSOLUTE, at 0x60
   \   union <unnamed> volatile __io _A_WDTCSR
   \                     _A_WDTCSR:
   \   00000000                      DS 1

   \                                 In segment ABSOLUTE, at 0x34
   \   union <unnamed> volatile __io _A_PORTG
   \                     _A_PORTG:
   \   00000000                      DS 1

   \                                 In segment ABSOLUTE, at 0x28
   \   union <unnamed> volatile __io _A_PORTC
   \                     _A_PORTC:
   \   00000000                      DS 1

   \                                 In segment ABSOLUTE, at 0x23
   \   union <unnamed> volatile __io _A_PINB
   \                     _A_PINB:
   \   00000000                      DS 1
      2          #include <string.h>
      3          #include <stdio.h>
      4          #include <inavr.h>
      5          #include <stdlib.h>

   \                                 In segment CODE, align 2, keep-with-next
   \   __intrinsic __nearfunc __version_3 long atol(char const *)
   \                     atol:
   \   00000000   E04A               LDI     R20, 10
   \   00000002   E050               LDI     R21, 0
   \   00000004   E020               LDI     R18, 0
   \   00000006   E030               LDI     R19, 0
   \   00000008   ........           CALL    _Stoul
   \   0000000C   9508               RET
      6          #include "ozu_map.h"
      7          #include "map_ef.h"
      8          #include "def_conf.h"
      9          //#include "def_link.h"
     10          //#include "def_log.h"
     11          #include "dfpin.h"
     12          #include "dfproc.h"
     13          #include "map_ad.h"
     14          #include "dfcnst.h"
     15          
     16          #define VOL_PUNKT 30 //(ěĺíţ îň 0 äî VOL_PUNKT)  //dobavka
     17          
     18          
     19          #ifdef VERS_BASE
     20          __flash char ozu_vers[]  =   {'O','K','0','1','.','0','1',':','1','4','0','5','0','7'};
     21          #endif
     22          
     23          #ifdef VERS_LUFKIN
     24          __flash char ozu_vers[]  =   {'O','K','0','2','.','0','1',':','1','4','0','5','0','7'};
     25          #endif
     26          
     27          #ifdef VERS_UNKNOWN
     28          __flash char ozu_vers[]  =   {'O','K','0','0','.','0','1',':','1','4','0','5','0','7'};
     29          #endif
     30          
     31          
     32           #pragma location=FIRST_ON 

   \                                 In segment EEPROM_AN, at 0x0
     33          __eeprom __no_init unsigned char e_first_on; 
   \                     e_first_on:
   \   00000000                      DS 1
     34          
     35           #pragma location=A_DEBUG 

   \                                 In segment EEPROM_AN, at 0x3
     36          __eeprom __no_init unsigned char e_debug;
   \                     e_debug:
   \   00000000                      DS 1

   \                                 In segment NEAR_F, align 1, keep-with-next
   \                     ozu_vers:
   \   00000000   4B4F3130302E       DB 79, 75, 48, 49, 46, 48, 49, 58, 49, 52, 48, 53, 48, 55
   \              3A3134313530
   \              3730        
     37          
     38          extern unsigned int temperatura;
     39          
     40          
     41          
     42          extern struct
     43          {
     44           
     45            unsigned char tek_pin :1;
     46            unsigned char old_pin :1;
     47            unsigned char fl_ch_tc :1;
     48            unsigned char real_tc;
     49            unsigned int count_tc; 
     50            unsigned char type;
     51            unsigned char cnt_block_tc;
     52          }struct_tcc1,struct_tcc2;
     53          
     54          
     55          void control_temperatura(void);
     56          
     57          
     58          unsigned char fl_at_mom_232;
     59          unsigned char Regim;
     60          
     61          extern void WrArrayToFlesh(unsigned int adres_flesh,  unsigned char *adres_ozu, unsigned int num,unsigned char flag,unsigned char znach);   
     62          extern void RdFromFleshToArr(unsigned int adres_flesh, unsigned char *adres_ozu,unsigned int num);
     63          
     64          extern unsigned long int burst_ds_r(void);
     65          extern void set_rlt(unsigned char address, unsigned char * data);
     66          
     67          extern void lock_it(void);
     68          
     69          
     70          
     71          extern void s_port(unsigned char ch);
     72          extern void    mov_lf (void);
     73          extern void    mov_s (char size, char __flash* p);
     74          
     75          
     76          
     77          extern struct
     78                  { // â äâîč÷íîě ęîäĺ
     79                    char r_sec;
     80                    char r_min;
     81                    char r_hor;
     82                    char r_day;
     83                    char r_date;
     84                    char r_month;
     85                    char r_year;
     86                    char r_control;
     87                  }  real_time;
     88          
     89          
     90          extern unsigned char point_log_buf;
     91          
     92          
     93          __flash char err_t[] = {0xd,0xa,'E','R','R'};
     94          __flash char ok_t[] = {0xd,0xa,'O','K'};
     95          
     96          __flash char map_vers[]  =   {'F','K','0','2','.','0','1',':','2','7','0','9','0','7'};
     97          __flash char versia[] = {'V','K','0','2','.','0','1',':','1','4','1','1','0','7'};
   \                     versia:
   \   0000000E   4B563230302E       DB 86, 75, 48, 50, 46, 48, 49, 58, 49, 52, 49, 49, 48, 55
   \              3A3134313131
   \              3730        
     98          
     99          __flash char zp_udp[]=        {'U','D','P','p','o','r','t','-','>'};
   \                     zp_udp:
   \   0000001C   44557050726F       DB 85, 68, 80, 112, 111, 114, 116, 45, 62
   \              2D743E      
    100          __flash char zp_num[]=        {'N','u','m','-','>'};
   \                     zp_num:
   \   00000025   754E2D6D3E         DB 78, 117, 109, 45, 62
    101          __flash char zp_nat[]=        {'S','e','s',' ','S','I','M','1','-','>'};
   \                     zp_nat:
   \   0000002A   655320734953       DB 83, 101, 115, 32, 83, 73, 77, 49, 45, 62
   \              314D3E2D    
    102          __flash char zp_nat_r[]=      {'S','e','s',' ','S','I','M','2','-','>'};
   \                     zp_nat_r:
   \   00000034   655320734953       DB 83, 101, 115, 32, 83, 73, 77, 50, 45, 62
   \              324D3E2D    
    103          
    104          __flash char zp_link[]=       {'T','m',' ','c','c','h','-','>'};
   \                     zp_link:
   \   0000003E   6D5463206863       DB 84, 109, 32, 99, 99, 104, 45, 62
   \              3E2D        
    105          __flash char zp_tm_link[]=    {'T','m',' ','a','n','s','-','>'};
   \                     zp_tm_link:
   \   00000046   6D546120736E       DB 84, 109, 32, 97, 110, 115, 45, 62
   \              3E2D        
    106          
    107          __flash char zp_tm_no_link[]= {'T','m',' ','d','c','n','-','>'};        //!!!!!!!!!!!!!!!!dobavka
   \                     zp_tm_no_link:
   \   0000004E   6D5464206E63       DB 84, 109, 32, 100, 99, 110, 45, 62
   \              3E2D        
    108          __flash char zp_tm_link_res[]={'T','m',' ','r','e','s','-','>'};    //!!!!!!!!!!!!!!!!dobavka
   \                     zp_tm_link_res:
   \   00000056   6D5472207365       DB 84, 109, 32, 114, 101, 115, 45, 62
   \              3E2D        
    109          
    110          __flash char zp_tm_vz[]=      {'T','m',' ','t','a','k','e','-','>'};
   \                     zp_tm_vz:
   \   0000005E   6D5474206B61       DB 84, 109, 32, 116, 97, 107, 101, 45, 62
   \              2D653E      
    111          __flash char zp_tm_cl[]=      {'T','m',' ','c','l','-','>'};
   \                     zp_tm_cl:
   \   00000067   6D5463202D6C       DB 84, 109, 32, 99, 108, 45, 62
   \              3E          
    112          __flash char zp_num_seq[]=    {'C','l',' ','m','s','q','-','>'};
   \                     zp_num_seq:
   \   0000006E   6C436D207173       DB 67, 108, 32, 109, 115, 113, 45, 62
   \              3E2D        
    113          __flash char zp_des_seq[]=    {'D','e','s',' ','m','s','g','-','>'};
   \                     zp_des_seq:
   \   00000076   65442073736D       DB 68, 101, 115, 32, 109, 115, 103, 45, 62
   \              2D673E      
    114          
    115          __flash char zp_type_tc1[]={'T','y','p','e',' ','T','S','1','-','>'};
   \                     zp_type_tc1:
   \   0000007F   795465705420       DB 84, 121, 112, 101, 32, 84, 83, 49, 45, 62
   \              31533E2D    
    116          __flash char zp_type_tc2[]={'T','y','p','e',' ','T','S','2','-','>'};
   \                     zp_type_tc2:
   \   00000089   795465705420       DB 84, 121, 112, 101, 32, 84, 83, 50, 45, 62
   \              32533E2D    
    117          
    118          __flash char zp_dbg[]=        {'D','B','G','-','>'};
   \                     zp_dbg:
   \   00000093   42442D473E         DB 68, 66, 71, 45, 62
    119          //__flash char zp_gprs_s[]=     {'S','.','r','s','2','3','2','-','>'};
    120          __flash char zp_ts1[]=        {'T','S','1','-','2','-','>'};
   \                     zp_ts1:
   \   00000098   53542D312D32       DB 84, 83, 49, 45, 50, 45, 62
   \              3E          
    121          __flash char zp_temp[]=       {'t','-','>'};
   \                     zp_temp:
   \   0000009F   2D743E             DB 116, 45, 62
    122          __flash char zp_vosst[]=      {'S','e','t',' ','d','e','f','-','>'};
   \                     zp_vosst:
   \   000000A2   655320746564       DB 83, 101, 116, 32, 100, 101, 102, 45, 62
   \              2D663E      
    123          __flash char zp_time[]=       {'T','i','m','e','-','>'};
   \                     zp_time:
   \   000000AB   6954656D3E2D       DB 84, 105, 109, 101, 45, 62
    124          __flash char zp_date[]=       {'D','a','t','e','-','>'};
   \                     zp_date:
   \   000000B1   614465743E2D       DB 68, 97, 116, 101, 45, 62
    125          __flash char zp_log_file[]=   {'L','o','g',' ','f','i','l','e','-','>'};
   \                     zp_log_file:
   \   000000B7   6F4C20676966       DB 76, 111, 103, 32, 102, 105, 108, 101, 45, 62
   \              656C3E2D    
    126          __flash char zp_keys[]=       {'K','e','y',' ','d','e','f','-','>'};
   \                     zp_keys:
   \   000000C1   654B20796564       DB 75, 101, 121, 32, 100, 101, 102, 45, 62
   \              2D663E      

   \                                 In segment NEAR_F, align 1, keep-with-next
    127          
    128          __flash unsigned char keys_def[]={'s','m','a','r','t','p','l','u'};
   \                     keys_def:
   \   00000000   6D7372617074       DB 115, 109, 97, 114, 116, 112, 108, 117
   \              756C        
   \                     err_t:
   \   00000008   0A0D524552         DB 13, 10, 69, 82, 82
   \                     ok_t:
   \   0000000D   0A0D4B4F           DB 13, 10, 79, 75

   \                                 In segment NEAR_F, align 1, keep-with-next
   \                     map_vers:
   \   00000000   4B463230302E       DB 70, 75, 48, 50, 46, 48, 49, 58, 50, 55, 48, 57, 48, 55
   \              3A3137323930
   \              3730        
    129          
    130          
    131          __flash unsigned char def_apn[] = {'i','n','t','e','r','n','e','t','.','m','t','s','.','r','u',0x00};
    132          __flash unsigned char def_usname[] = {0x00};   
    133          __flash unsigned char def_uspsw[] = {0x00}; 
    134          
    135          __flash unsigned char def_apnr[] = {'i','n','t','e','r','n','e','t','.','b','e','e','l','i','n','e','.','r','u',0x00};
    136          __flash unsigned char def_usnamer[] = {'b','e','e','l','i','n','e',0x00};   
   \                     def_usnamer:
   \   0000000E   65626C656E69       DB 98, 101, 101, 108, 105, 110, 101, 0
   \              0065        
    137          __flash unsigned char def_uspswr[] = {'b','e','e','l','i','n','e',0x00};
   \                     def_uspswr:
   \   00000016   65626C656E69       DB 98, 101, 101, 108, 105, 110, 101, 0
   \              0065        
    138          
    139          
    140          __flash unsigned char def_apn1[] = {'i','n','t','e','r','n','e','t','.','m','t','s','.','r','u',0x00};
    141          __flash unsigned char def_usname1[] = {0x00};   
    142          __flash unsigned char def_uspsw1[] = {0x00}; 
    143          
    144          __flash unsigned char def_apn2[] = {'i','n','t','e','r','n','e','t','.','b','e','e','l','i','n','e','.','r','u',0x00};
    145          __flash unsigned char def_usname2[] = {'b','e','e','l','i','n','e',0x00};   
   \                     def_usname2:
   \   0000001E   65626C656E69       DB 98, 101, 101, 108, 105, 110, 101, 0
   \              0065        
    146          __flash unsigned char def_uspsw2[] = {'b','e','e','l','i','n','e',0x00}; 
   \                     def_uspsw2:
   \   00000026   65626C656E69       DB 98, 101, 101, 108, 105, 110, 101, 0
   \              0065        
    147          
    148          __flash unsigned char def_apn3[] = {'i','n','t','e','r','n','e','t',0x00};
   \                     def_apn3:
   \   0000002E   6E6965746E72       DB 105, 110, 116, 101, 114, 110, 101, 116, 0
   \              746500      

   \                                 In segment NEAR_F, align 1, keep-with-next
   \                     def_apn:
   \   00000000   6E6965746E72       DB 105, 110, 116, 101, 114, 110, 101, 116, 46, 109, 116, 115, 46, 114
   \              74656D2E7374
   \              722E        
   \   0000000E   0075               DB 117, 0
   \                     def_apnr:
   \   00000010   6E6965746E72       DB 105, 110, 116, 101, 114, 110, 101, 116, 46, 98, 101, 101, 108, 105
   \              7465622E6565
   \              696C        
   \   0000001E   656E722E0075       DB 110, 101, 46, 114, 117, 0
   \                     def_apn1:
   \   00000024   6E6965746E72       DB 105, 110, 116, 101, 114, 110, 101, 116, 46, 109, 116, 115, 46, 114
   \              74656D2E7374
   \              722E        
   \   00000032   0075               DB 117, 0

   \                                 In segment NEAR_F, align 1, keep-with-next
   \                     def_usname:
   \   00000000   00                 DB 0

   \                                 In segment NEAR_F, align 1, keep-with-next
   \                     def_uspsw:
   \   00000000   00                 DB 0

   \                                 In segment NEAR_F, align 1, keep-with-next
   \                     def_usname1:
   \   00000000   00                 DB 0

   \                                 In segment NEAR_F, align 1, keep-with-next
   \                     def_uspsw1:
   \   00000000   00                 DB 0

   \                                 In segment NEAR_F, align 1, keep-with-next
   \                     def_apn2:
   \   00000000   6E6965746E72       DB 105, 110, 116, 101, 114, 110, 101, 116, 46, 98, 101, 101, 108, 105
   \              7465622E6565
   \              696C        
   \   0000000E   656E722E0075       DB 110, 101, 46, 114, 117, 0

   \                                 In segment NEAR_F, align 1, keep-with-next
    149          __flash unsigned char def_usname3[] = {0x00};   
   \                     def_usname3:
   \   00000000   00                 DB 0

   \                                 In segment NEAR_F, align 1, keep-with-next
    150          __flash unsigned char def_uspsw3[] = {0x00}; 
   \                     def_uspsw3:
   \   00000000   00                 DB 0

   \                                 In segment NEAR_Z, align 1, keep-with-next
   \   00000000                      REQUIRE `?<Segment init: NEAR_Z>`
   \                     fl_at_mom_232:
   \   00000000                      DS 1
    151          
    152          
    153          unsigned char keys[10];
    154          
    155          extern unsigned int crc_m1(unsigned char *ka,unsigned int num,unsigned int crc);
    156          extern void delay(unsigned int period);
    157          
    158          unsigned char index_pa;
   \                     index_pa:
   \   00000001                      DS 1

   \                                 In segment NEAR_Z, align 1, keep-with-next
   \   00000000                      REQUIRE `?<Segment init: NEAR_Z>`
   \                     Regim:
   \   00000000                      DS 1

   \                                 In segment NEAR_Z, align 1, keep-with-next
   \   00000000                      REQUIRE `?<Segment init: NEAR_Z>`
   \                     keys:
   \   00000000                      DS 10
    159          
    160          extern unsigned char buf_tx_232[VOL_TX_PPP];
    161          extern unsigned int vol_tx_ppp;
    162          
    163          
    164          
    165          
    166          
    167          

   \                                 In segment CODE, align 2, keep-with-next
    168          unsigned char ret_version(unsigned char unit,unsigned char *ptr)
   \                     ret_version:
    169          {
   \   00000000   01AD               MOVW    R21:R20, R27:R26
   \   00000002   01D9               MOVW    R27:R26, R19:R18
    170           unsigned char i;
    171           
    172           if(unit==2)
   \   00000004   3002               CPI     R16, 2
   \   00000006   F489               BRNE    ??ret_version_0
    173              {
    174              for (i=0;i<sizeof(ozu_vers);i++){*ptr=ozu_vers[i];ptr++;}
   \   00000008   E000               LDI     R16, 0
   \   0000000A   C008               RJMP    ??ret_version_1
   \                     ??ret_version_2:
   \   0000000C   ....               LDI     R30, LOW(ozu_vers)
   \   0000000E   ....               LDI     R31, (ozu_vers) >> 8
   \   00000010   E010               LDI     R17, 0
   \   00000012   0FE0               ADD     R30, R16
   \   00000014   1FF1               ADC     R31, R17
   \   00000016   9114               LPM     R17, Z
   \   00000018   931D               ST      X+, R17
   \   0000001A   9503               INC     R16
   \                     ??ret_version_1:
   \   0000001C   300E               CPI     R16, 14
   \   0000001E   F3B0               BRCS    ??ret_version_2
    175              *ptr=0;
   \                     ??ret_version_3:
   \   00000020   E000               LDI     R16, 0
   \   00000022   930C               ST      X, R16
    176              return(sizeof(ozu_vers)+1);
   \   00000024   E00F               LDI     R16, 15
   \   00000026   01DA               MOVW    R27:R26, R21:R20
   \   00000028   9508               RET
    177              }
    178           
    179           if(unit==0)
   \                     ??ret_version_0:
   \   0000002A   2300               TST     R16
   \   0000002C   E000               LDI     R16, 0
   \   0000002E   F459               BRNE    ??ret_version_4
    180              {
    181              for (i=0;i<sizeof(versia);i++){*ptr=versia[i];ptr++;}
   \                     ??ret_version_5:
   \   00000030   300E               CPI     R16, 14
   \   00000032   F7B0               BRCC    ??ret_version_3
   \   00000034   ....               LDI     R30, LOW((ozu_vers + 14))
   \   00000036   ....               LDI     R31, HIGH((ozu_vers + 14))
   \   00000038   E010               LDI     R17, 0
   \   0000003A   0FE0               ADD     R30, R16
   \   0000003C   1FF1               ADC     R31, R17
   \   0000003E   9114               LPM     R17, Z
   \   00000040   931D               ST      X+, R17
   \   00000042   9503               INC     R16
   \   00000044   CFF5               RJMP    ??ret_version_5
    182              *ptr=0;
    183              return(sizeof(versia)+1);
    184              }
    185              else
    186              {
    187              for (i=0;i<sizeof(versia);i++){*ptr=map_vers[i];ptr++;}
   \                     ??ret_version_4:
   \   00000046   300E               CPI     R16, 14
   \   00000048   F758               BRCC    ??ret_version_3
   \   0000004A   ....               LDI     R30, LOW(map_vers)
   \   0000004C   ....               LDI     R31, (map_vers) >> 8
   \   0000004E   E010               LDI     R17, 0
   \   00000050   0FE0               ADD     R30, R16
   \   00000052   1FF1               ADC     R31, R17
   \   00000054   9114               LPM     R17, Z
   \   00000056   931D               ST      X+, R17
   \   00000058   9503               INC     R16
   \   0000005A   CFF5               RJMP    ??ret_version_4
    188              *ptr=0;
    189              return(sizeof(map_vers)+1);
    190              }
    191          }
    192          
    193          
    194          
    195          
    196          
    197          

   \                                 In segment CODE, align 2, keep-with-next
    198          void vosstan_memory(void)
   \                     vosstan_memory:
    199          {
   \   00000000   93BA               ST      -Y, R27
   \   00000002   93AA               ST      -Y, R26
   \   00000004   97EF               SBIW    R29:R28, 63
   \   00000006   9727               SBIW    R29:R28, 7
    200          unsigned char i,j,buf[70],temp;
    201          
    202          
    203             j=sizeof(map_vers);
    204             for(i=0;i<j;i++)buf[i]=map_vers[i];
   \   00000008   E000               LDI     R16, 0
   \   0000000A   C00C               RJMP    ??vosstan_memory_0
   \                     ??vosstan_memory_1:
   \   0000000C   2F20               MOV     R18, R16
   \   0000000E   E030               LDI     R19, 0
   \   00000010   ....               LDI     R30, LOW(map_vers)
   \   00000012   ....               LDI     R31, (map_vers) >> 8
   \   00000014   0FE2               ADD     R30, R18
   \   00000016   1FF3               ADC     R31, R19
   \   00000018   9114               LPM     R17, Z
   \   0000001A   01FE               MOVW    R31:R30, R29:R28
   \   0000001C   0FE2               ADD     R30, R18
   \   0000001E   1FF3               ADC     R31, R19
   \   00000020   8310               ST      Z, R17
   \   00000022   9503               INC     R16
   \                     ??vosstan_memory_0:
   \   00000024   300E               CPI     R16, 14
   \   00000026   F390               BRCS    ??vosstan_memory_1
    205             *(unsigned int*)&buf[j]=crc_m1(&buf[0],j,0xffff);
   \   00000028   EF4F               LDI     R20, 255
   \   0000002A   EF5F               LDI     R21, 255
   \   0000002C   E02E               LDI     R18, 14
   \   0000002E   E030               LDI     R19, 0
   \   00000030   018E               MOVW    R17:R16, R29:R28
   \   00000032   ........           CALL    crc_m1
   \   00000036   870E               STD     Y+14, R16
   \   00000038   871F               STD     Y+15, R17
    206             WrArrayToFlesh(A_VER_MAP, &buf[0],j+2,0,0);
   \   0000003A   E070               LDI     R23, 0
   \   0000003C   E060               LDI     R22, 0
   \   0000003E   E140               LDI     R20, 16
   \   00000040   E050               LDI     R21, 0
   \   00000042   019E               MOVW    R19:R18, R29:R28
   \   00000044   E000               LDI     R16, 0
   \   00000046   E010               LDI     R17, 0
   \   00000048   ........           CALL    WrArrayToFlesh
    207          
    208          
    209          //çŕăđóçęŕ ďîóěîë÷ŕíčţ
    210               temp=sizeof(def_apn)-1;
    211               j=0;
    212               buf[0]=temp;
   \   0000004C   E00F               LDI     R16, 15
   \   0000004E   8308               ST      Y, R16
    213               j=1;
   \   00000050   E021               LDI     R18, 1
    214               for(i=0;i<temp;i++){buf[j]=def_apn[i];j++;}
   \   00000052   E000               LDI     R16, 0
   \   00000054   C009               RJMP    ??vosstan_memory_2
   \                     ??vosstan_memory_3:
   \   00000056   ....               LDI     R30, LOW(def_apn)
   \   00000058   ....               LDI     R31, (def_apn) >> 8
   \   0000005A   0FE0               ADD     R30, R16
   \   0000005C   1FF3               ADC     R31, R19
   \   0000005E   9114               LPM     R17, Z
   \   00000060   01FD               MOVW    R31:R30, R27:R26
   \   00000062   8310               ST      Z, R17
   \   00000064   9523               INC     R18
   \   00000066   9503               INC     R16
   \                     ??vosstan_memory_2:
   \   00000068   01DE               MOVW    R27:R26, R29:R28
   \   0000006A   E030               LDI     R19, 0
   \   0000006C   0FA2               ADD     R26, R18
   \   0000006E   1FB3               ADC     R27, R19
   \   00000070   300F               CPI     R16, 15
   \   00000072   F388               BRCS    ??vosstan_memory_3
    215               
    216               temp=sizeof(def_usname)-1;
    217               buf[j]=temp;
   \   00000074   E000               LDI     R16, 0
   \   00000076   933C               ST      X, R19
    218               j++;
   \   00000078   9523               INC     R18
    219               for(i=0;i<temp;i++){buf[j]=def_usname[i];j++;} 
    220               
    221               temp=sizeof(def_uspsw)-1;
    222               buf[j]=temp;
   \   0000007A   01FE               MOVW    R31:R30, R29:R28
   \   0000007C   0FE2               ADD     R30, R18
   \   0000007E   1FF3               ADC     R31, R19
   \   00000080   8330               ST      Z, R19
    223               j++;
   \   00000082   9523               INC     R18
    224               for(i=0;i<temp;i++){buf[j]=def_uspsw[i];j++;}
    225               
    226               for(i=0;i<L_C_GPRS_MAX;i++){buf[j]=0;j++;}
   \   00000084   C006               RJMP    ??vosstan_memory_4
   \                     ??vosstan_memory_5:
   \   00000086   01FE               MOVW    R31:R30, R29:R28
   \   00000088   0FE2               ADD     R30, R18
   \   0000008A   1FF3               ADC     R31, R19
   \   0000008C   8330               ST      Z, R19
   \   0000008E   9523               INC     R18
   \   00000090   9503               INC     R16
   \                     ??vosstan_memory_4:
   \   00000092   330C               CPI     R16, 60
   \   00000094   F3C0               BRCS    ??vosstan_memory_5
    227               *(unsigned int*)&buf[L_C_GPRS_MAX-2]=crc_m1(&buf[0],L_C_GPRS_MAX-2,0xffff);
   \   00000096   EF4F               LDI     R20, 255
   \   00000098   EF5F               LDI     R21, 255
   \   0000009A   E32A               LDI     R18, 58
   \   0000009C   018E               MOVW    R17:R16, R29:R28
   \   0000009E   ........           CALL    crc_m1
   \   000000A2   AF0A               STD     Y+58, R16
   \   000000A4   AF1B               STD     Y+59, R17
    228               WrArrayToFlesh(A_C_GPRS, &buf[0],L_C_GPRS_MAX,0,0);
   \   000000A6   E070               LDI     R23, 0
   \   000000A8   E060               LDI     R22, 0
   \   000000AA   E34C               LDI     R20, 60
   \   000000AC   E050               LDI     R21, 0
   \   000000AE   019E               MOVW    R19:R18, R29:R28
   \   000000B0   E104               LDI     R16, 20
   \   000000B2   E010               LDI     R17, 0
   \   000000B4   ........           CALL    WrArrayToFlesh
    229               
    230              
    231               temp=sizeof(def_apnr)-1;
    232               j=0;
    233               buf[0]=temp;
   \   000000B8   E103               LDI     R16, 19
   \   000000BA   8308               ST      Y, R16
    234               j=1;
   \   000000BC   E021               LDI     R18, 1
    235               for(i=0;i<temp;i++){buf[j]=def_apnr[i];j++;}
   \   000000BE   E000               LDI     R16, 0
   \   000000C0   C009               RJMP    ??vosstan_memory_6
   \                     ??vosstan_memory_7:
   \   000000C2   ....               LDI     R30, LOW((def_apn + 16))
   \   000000C4   ....               LDI     R31, HIGH((def_apn + 16))
   \   000000C6   0FE0               ADD     R30, R16
   \   000000C8   1FF3               ADC     R31, R19
   \   000000CA   9114               LPM     R17, Z
   \   000000CC   01FD               MOVW    R31:R30, R27:R26
   \   000000CE   8310               ST      Z, R17
   \   000000D0   9523               INC     R18
   \   000000D2   9503               INC     R16
   \                     ??vosstan_memory_6:
   \   000000D4   01DE               MOVW    R27:R26, R29:R28
   \   000000D6   E030               LDI     R19, 0
   \   000000D8   0FA2               ADD     R26, R18
   \   000000DA   1FB3               ADC     R27, R19
   \   000000DC   3103               CPI     R16, 19
   \   000000DE   F388               BRCS    ??vosstan_memory_7
    236               
    237               temp=sizeof(def_usnamer)-1;
    238               buf[j]=temp;
   \   000000E0   E007               LDI     R16, 7
   \   000000E2   930C               ST      X, R16
    239               j++;
   \   000000E4   9523               INC     R18
    240               for(i=0;i<temp;i++){buf[j]=def_usnamer[i];j++;} 
   \   000000E6   E000               LDI     R16, 0
   \   000000E8   C009               RJMP    ??vosstan_memory_8
   \                     ??vosstan_memory_9:
   \   000000EA   ....               LDI     R30, LOW((map_vers + 14))
   \   000000EC   ....               LDI     R31, HIGH((map_vers + 14))
   \   000000EE   0FE0               ADD     R30, R16
   \   000000F0   1FF3               ADC     R31, R19
   \   000000F2   9114               LPM     R17, Z
   \   000000F4   01FD               MOVW    R31:R30, R27:R26
   \   000000F6   8310               ST      Z, R17
   \   000000F8   9523               INC     R18
   \   000000FA   9503               INC     R16
   \                     ??vosstan_memory_8:
   \   000000FC   01DE               MOVW    R27:R26, R29:R28
   \   000000FE   0FA2               ADD     R26, R18
   \   00000100   1FB3               ADC     R27, R19
   \   00000102   3007               CPI     R16, 7
   \   00000104   F390               BRCS    ??vosstan_memory_9
    241               
    242               temp=sizeof(def_uspswr)-1;
    243               buf[j]=temp;
   \   00000106   E007               LDI     R16, 7
   \   00000108   930C               ST      X, R16
    244               j++;
   \   0000010A   9523               INC     R18
    245               for(i=0;i<temp;i++){buf[j]=def_uspswr[i];j++;}
   \   0000010C   E000               LDI     R16, 0
   \   0000010E   C00B               RJMP    ??vosstan_memory_10
   \                     ??vosstan_memory_11:
   \   00000110   ....               LDI     R30, LOW((map_vers + 22))
   \   00000112   ....               LDI     R31, HIGH((map_vers + 22))
   \   00000114   0FE0               ADD     R30, R16
   \   00000116   1FF3               ADC     R31, R19
   \   00000118   9114               LPM     R17, Z
   \   0000011A   01FE               MOVW    R31:R30, R29:R28
   \   0000011C   0FE2               ADD     R30, R18
   \   0000011E   1FF3               ADC     R31, R19
   \   00000120   8310               ST      Z, R17
   \   00000122   9523               INC     R18
   \   00000124   9503               INC     R16
   \                     ??vosstan_memory_10:
   \   00000126   3007               CPI     R16, 7
   \   00000128   F398               BRCS    ??vosstan_memory_11
    246               
    247               for(i=0;i<L_CR_GPRS_MAX;i++){buf[j]=0;j++;}
   \   0000012A   E000               LDI     R16, 0
   \   0000012C   C006               RJMP    ??vosstan_memory_12
   \                     ??vosstan_memory_13:
   \   0000012E   01FE               MOVW    R31:R30, R29:R28
   \   00000130   0FE2               ADD     R30, R18
   \   00000132   1FF3               ADC     R31, R19
   \   00000134   8330               ST      Z, R19
   \   00000136   9523               INC     R18
   \   00000138   9503               INC     R16
   \                     ??vosstan_memory_12:
   \   0000013A   330C               CPI     R16, 60
   \   0000013C   F3C0               BRCS    ??vosstan_memory_13
    248               *(unsigned int*)&buf[L_CR_GPRS_MAX-2]=crc_m1(&buf[0],L_CR_GPRS_MAX-2,0xffff);
   \   0000013E   EF4F               LDI     R20, 255
   \   00000140   EF5F               LDI     R21, 255
   \   00000142   E32A               LDI     R18, 58
   \   00000144   018E               MOVW    R17:R16, R29:R28
   \   00000146   ........           CALL    crc_m1
   \   0000014A   AF0A               STD     Y+58, R16
   \   0000014C   AF1B               STD     Y+59, R17
    249               WrArrayToFlesh(A_CR_GPRS, &buf[0],L_CR_GPRS_MAX,0,0);
   \   0000014E   E070               LDI     R23, 0
   \   00000150   E060               LDI     R22, 0
   \   00000152   E34C               LDI     R20, 60
   \   00000154   E050               LDI     R21, 0
   \   00000156   019E               MOVW    R19:R18, R29:R28
   \   00000158   E500               LDI     R16, 80
   \   0000015A   E010               LDI     R17, 0
   \   0000015C   ........           CALL    WrArrayToFlesh
    250               
    251               
    252               
    253               
    254               buf[OFS_IP]=DEF_IP_SRV_0;
   \   00000160   E508               LDI     R16, 88
   \   00000162   8308               ST      Y, R16
    255               buf[OFS_IP+1]=DEF_IP_SRV_1;
   \   00000164   E502               LDI     R16, 82
   \   00000166   8309               STD     Y+1, R16
    256               buf[OFS_IP+2]=DEF_IP_SRV_2;
   \   00000168   E405               LDI     R16, 69
   \   0000016A   830A               STD     Y+2, R16
    257               buf[OFS_IP+3]=DEF_IP_SRV_3;
   \   0000016C   EE04               LDI     R16, 228
   \   0000016E   830B               STD     Y+3, R16
    258             *(unsigned int*)&buf[OFS_PORT]=DEF_UDP_PORT;//UDP ďîđň
   \   00000170   E808               LDI     R16, 136
   \   00000172   E113               LDI     R17, 19
   \   00000174   830C               STD     Y+4, R16
   \   00000176   831D               STD     Y+5, R17
    259             *(unsigned int*)&buf[OFS_NUM]=DEF_NUM_SELF;//ńâîé íîěĺđ ďî óěîë÷ŕíčţ  
   \   00000178   E002               LDI     R16, 2
   \   0000017A   E010               LDI     R17, 0
   \   0000017C   830E               STD     Y+6, R16
   \   0000017E   831F               STD     Y+7, R17
    260             *(unsigned int*)&buf[OFS_IP_PAR_CRC]=crc_m1(&buf[0],L_IP_PAR-2,0xffff);
   \   00000180   EF4F               LDI     R20, 255
   \   00000182   EF5F               LDI     R21, 255
   \   00000184   E028               LDI     R18, 8
   \   00000186   E030               LDI     R19, 0
   \   00000188   018E               MOVW    R17:R16, R29:R28
   \   0000018A   ........           CALL    crc_m1
   \   0000018E   8708               STD     Y+8, R16
   \   00000190   8719               STD     Y+9, R17
    261               WrArrayToFlesh(A_IP_PAR, &buf[0],L_IP_PAR,0,0);
   \   00000192   E070               LDI     R23, 0
   \   00000194   E060               LDI     R22, 0
   \   00000196   E04A               LDI     R20, 10
   \   00000198   E050               LDI     R21, 0
   \   0000019A   019E               MOVW    R19:R18, R29:R28
   \   0000019C   E80C               LDI     R16, 140
   \   0000019E   E010               LDI     R17, 0
   \   000001A0   ........           CALL    WrArrayToFlesh
    262               
    263               
    264             *(unsigned int*)&buf[OFS_NAT]=DEF_CNTR_NAT;
   \   000001A4   E302               LDI     R16, 50
   \   000001A6   E010               LDI     R17, 0
   \   000001A8   8308               ST      Y, R16
   \   000001AA   8319               STD     Y+1, R17
    265             *(unsigned int*)&buf[OFS_CCH]=DEF_CNTR_LINK;
   \   000001AC   E708               LDI     R16, 120
   \   000001AE   830A               STD     Y+2, R16
   \   000001B0   831B               STD     Y+3, R17
    266             *(unsigned int*)&buf[OFS_TM_CH]=DEF_TM_CNTR_LINK;
   \   000001B2   E30E               LDI     R16, 62
   \   000001B4   830C               STD     Y+4, R16
   \   000001B6   831D               STD     Y+5, R17
    267             
    268             *(unsigned int*)&buf[OFS_TM_NO_LINK]=DEF_TM_NO_LINK;       //dobavka
   \   000001B8   E00A               LDI     R16, 10
   \   000001BA   830E               STD     Y+6, R16
   \   000001BC   831F               STD     Y+7, R17
    269             *(unsigned int*)&buf[OFS_TM_LINK_RES]=DEF_TM_LINK_RES;       //dobavka
   \   000001BE   E30C               LDI     R16, 60
   \   000001C0   8708               STD     Y+8, R16
   \   000001C2   8719               STD     Y+9, R17
    270             
    271             *(unsigned int*)&buf[OFS_NAT_R]=DEF_CNTR_NAT_R;
   \   000001C4   E20D               LDI     R16, 45
   \   000001C6   870A               STD     Y+10, R16
   \   000001C8   871B               STD     Y+11, R17
    272             
    273             *(unsigned int*)&buf[OFS_C_PAR_CRC]=crc_m1(&buf[0],L_C_PAR-2,0xffff);
   \   000001CA   EF4F               LDI     R20, 255
   \   000001CC   EF5F               LDI     R21, 255
   \   000001CE   E02C               LDI     R18, 12
   \   000001D0   E030               LDI     R19, 0
   \   000001D2   018E               MOVW    R17:R16, R29:R28
   \   000001D4   ........           CALL    crc_m1
   \   000001D8   870C               STD     Y+12, R16
   \   000001DA   871D               STD     Y+13, R17
    274               WrArrayToFlesh(A_C_PAR, &buf[0],L_C_PAR,0,0);
   \   000001DC   E070               LDI     R23, 0
   \   000001DE   E060               LDI     R22, 0
   \   000001E0   E04E               LDI     R20, 14
   \   000001E2   E050               LDI     R21, 0
   \   000001E4   019E               MOVW    R19:R18, R29:R28
   \   000001E6   E906               LDI     R16, 150
   \   000001E8   E010               LDI     R17, 0
   \   000001EA   ........           CALL    WrArrayToFlesh
    275               
    276                buf[OFS_DES_SEQ]=(~DEF_DES_SEQ)&0x01; 
   \   000001EE   E000               LDI     R16, 0
   \   000001F0   8308               ST      Y, R16
    277             *(unsigned int*)&buf[OFS_NUM_CL]=DEF_NUM_DST_SEQ;
   \   000001F2   EF0F               LDI     R16, 255
   \   000001F4   8309               STD     Y+1, R16
   \   000001F6   830A               STD     Y+2, R16
    278             *(unsigned int*)&buf[OFS_TM_VZ]=DEF_VOL_TM_VZAT;
   \   000001F8   E10E               LDI     R16, 30
   \   000001FA   E010               LDI     R17, 0
   \   000001FC   830B               STD     Y+3, R16
   \   000001FE   831C               STD     Y+4, R17
    279             *(unsigned int*)&buf[OFS_TM_CL]=DEF_TM_CNTR_CL;
   \   00000200   E00A               LDI     R16, 10
   \   00000202   830D               STD     Y+5, R16
   \   00000204   831E               STD     Y+6, R17
    280              buf[OFS_TP_TS]=DEF_TP_TS1;
   \   00000206   E001               LDI     R16, 1
   \   00000208   830F               STD     Y+7, R16
    281              buf[OFS_TP_TS+1]=DEF_TP_TS2;
   \   0000020A   8708               STD     Y+8, R16
    282             *(unsigned int*)&buf[OFS_SEQ_PAR_CRC]=crc_m1(&buf[0],L_SEQ_PAR-2,0xffff);
   \   0000020C   EF4F               LDI     R20, 255
   \   0000020E   EF5F               LDI     R21, 255
   \   00000210   E029               LDI     R18, 9
   \   00000212   E030               LDI     R19, 0
   \   00000214   018E               MOVW    R17:R16, R29:R28
   \   00000216   ........           CALL    crc_m1
   \   0000021A   8709               STD     Y+9, R16
   \   0000021C   871A               STD     Y+10, R17
    283               WrArrayToFlesh(A_SEQ_PAR, &buf[0],L_SEQ_PAR,0,0);
   \   0000021E   E070               LDI     R23, 0
   \   00000220   E060               LDI     R22, 0
   \   00000222   E04B               LDI     R20, 11
   \   00000224   E050               LDI     R21, 0
   \   00000226   019E               MOVW    R19:R18, R29:R28
   \   00000228   EA04               LDI     R16, 164
   \   0000022A   E010               LDI     R17, 0
   \   0000022C   ........           CALL    WrArrayToFlesh
    284               
    285               buf[OFS_GPRS_DES]=~DEF_DES_PORT_GPRS; 
   \   00000230   EF0E               LDI     R16, 254
   \   00000232   8308               ST      Y, R16
    286             *(unsigned long int*)&buf[OFS_GPRS_S]=DEF_PORT_GPRS_S;
   \   00000234   E800               LDI     R16, 128
   \   00000236   E215               LDI     R17, 37
   \   00000238   E030               LDI     R19, 0
   \   0000023A   8309               STD     Y+1, R16
   \   0000023C   831A               STD     Y+2, R17
   \   0000023E   833B               STD     Y+3, R19
   \   00000240   833C               STD     Y+4, R19
    287             *(unsigned int*)&buf[OFS_PORT_GPRS_CRC]=crc_m1(&buf[0],L_PORT_GPRS-2,0xffff);
   \   00000242   EF4F               LDI     R20, 255
   \   00000244   EF5F               LDI     R21, 255
   \   00000246   E025               LDI     R18, 5
   \   00000248   018E               MOVW    R17:R16, R29:R28
   \   0000024A   ........           CALL    crc_m1
   \   0000024E   830D               STD     Y+5, R16
   \   00000250   831E               STD     Y+6, R17
    288               WrArrayToFlesh(A_PORT_GPRS, &buf[0],L_PORT_GPRS,0,0);
   \   00000252   E070               LDI     R23, 0
   \   00000254   E060               LDI     R22, 0
   \   00000256   E047               LDI     R20, 7
   \   00000258   E050               LDI     R21, 0
   \   0000025A   019E               MOVW    R19:R18, R29:R28
   \   0000025C   EA0F               LDI     R16, 175
   \   0000025E   E010               LDI     R17, 0
   \   00000260   ........           CALL    WrArrayToFlesh
    289           
    290               j=0;
    291               temp=sizeof(def_apn1)-1;    
    292               buf[0]=temp;
   \   00000264   E00F               LDI     R16, 15
   \   00000266   8308               ST      Y, R16
    293               j=1;
   \   00000268   E021               LDI     R18, 1
    294               for(i=0;i<temp;i++){buf[j]=def_apn1[i];j++;}
   \   0000026A   E000               LDI     R16, 0
   \   0000026C   C009               RJMP    ??vosstan_memory_14
   \                     ??vosstan_memory_15:
   \   0000026E   ....               LDI     R30, LOW((def_apn + 36))
   \   00000270   ....               LDI     R31, HIGH((def_apn + 36))
   \   00000272   0FE0               ADD     R30, R16
   \   00000274   1FF3               ADC     R31, R19
   \   00000276   9114               LPM     R17, Z
   \   00000278   01FD               MOVW    R31:R30, R27:R26
   \   0000027A   8310               ST      Z, R17
   \   0000027C   9523               INC     R18
   \   0000027E   9503               INC     R16
   \                     ??vosstan_memory_14:
   \   00000280   01DE               MOVW    R27:R26, R29:R28
   \   00000282   E030               LDI     R19, 0
   \   00000284   0FA2               ADD     R26, R18
   \   00000286   1FB3               ADC     R27, R19
   \   00000288   300F               CPI     R16, 15
   \   0000028A   F388               BRCS    ??vosstan_memory_15
    295              
    296               temp=sizeof(def_usname1)-1;
    297               buf[j]=temp;
   \   0000028C   E000               LDI     R16, 0
   \   0000028E   933C               ST      X, R19
    298               j++;
   \   00000290   9523               INC     R18
    299               for(i=0;i<temp;i++){buf[j]=def_usname1[i];j++;} 
    300              
    301               temp=sizeof(def_uspsw1)-1;
    302               buf[j]=temp;
   \   00000292   01FE               MOVW    R31:R30, R29:R28
   \   00000294   0FE2               ADD     R30, R18
   \   00000296   1FF3               ADC     R31, R19
   \   00000298   8330               ST      Z, R19
    303               j++;
   \   0000029A   9523               INC     R18
    304               for(i=0;i<temp;i++){buf[j]=def_uspsw1[i];j++;}
    305              
    306               for(i=0;i<L_C1_GPRS_MAX;i++){buf[j]=0;j++;}
   \   0000029C   C006               RJMP    ??vosstan_memory_16
   \                     ??vosstan_memory_17:
   \   0000029E   01FE               MOVW    R31:R30, R29:R28
   \   000002A0   0FE2               ADD     R30, R18
   \   000002A2   1FF3               ADC     R31, R19
   \   000002A4   8330               ST      Z, R19
   \   000002A6   9523               INC     R18
   \   000002A8   9503               INC     R16
   \                     ??vosstan_memory_16:
   \   000002AA   330C               CPI     R16, 60
   \   000002AC   F3C0               BRCS    ??vosstan_memory_17
    307               *(unsigned int*)&buf[L_C1_GPRS_MAX-2]=crc_m1(&buf[0],L_C1_GPRS_MAX-2,0xffff);
   \   000002AE   EF4F               LDI     R20, 255
   \   000002B0   EF5F               LDI     R21, 255
   \   000002B2   E32A               LDI     R18, 58
   \   000002B4   018E               MOVW    R17:R16, R29:R28
   \   000002B6   ........           CALL    crc_m1
   \   000002BA   AF0A               STD     Y+58, R16
   \   000002BC   AF1B               STD     Y+59, R17
    308               WrArrayToFlesh(A_C1_GPRS, &buf[0],L_C1_GPRS_MAX,0,0);
   \   000002BE   E070               LDI     R23, 0
   \   000002C0   E060               LDI     R22, 0
   \   000002C2   E34C               LDI     R20, 60
   \   000002C4   E050               LDI     R21, 0
   \   000002C6   019E               MOVW    R19:R18, R29:R28
   \   000002C8   EC08               LDI     R16, 200
   \   000002CA   E010               LDI     R17, 0
   \   000002CC   ........           CALL    WrArrayToFlesh
    309           
    310               j=0;
    311               temp=sizeof(def_apn2)-1;
    312               buf[0]=temp;
   \   000002D0   E103               LDI     R16, 19
   \   000002D2   8308               ST      Y, R16
    313               j=1;
   \   000002D4   E021               LDI     R18, 1
    314               for(i=0;i<temp;i++){buf[j]=def_apn2[i];j++;}
   \   000002D6   E000               LDI     R16, 0
   \   000002D8   C009               RJMP    ??vosstan_memory_18
   \                     ??vosstan_memory_19:
   \   000002DA   ....               LDI     R30, LOW(def_apn2)
   \   000002DC   ....               LDI     R31, (def_apn2) >> 8
   \   000002DE   0FE0               ADD     R30, R16
   \   000002E0   1FF3               ADC     R31, R19
   \   000002E2   9114               LPM     R17, Z
   \   000002E4   01FD               MOVW    R31:R30, R27:R26
   \   000002E6   8310               ST      Z, R17
   \   000002E8   9523               INC     R18
   \   000002EA   9503               INC     R16
   \                     ??vosstan_memory_18:
   \   000002EC   01DE               MOVW    R27:R26, R29:R28
   \   000002EE   E030               LDI     R19, 0
   \   000002F0   0FA2               ADD     R26, R18
   \   000002F2   1FB3               ADC     R27, R19
   \   000002F4   3103               CPI     R16, 19
   \   000002F6   F388               BRCS    ??vosstan_memory_19
    315               
    316               temp=sizeof(def_usname2)-1;
    317               buf[j]=temp;
   \   000002F8   E007               LDI     R16, 7
   \   000002FA   930C               ST      X, R16
    318               j++;
   \   000002FC   9523               INC     R18
    319               for(i=0;i<temp;i++){buf[j]=def_usname2[i];j++;} 
   \   000002FE   E000               LDI     R16, 0
   \   00000300   C009               RJMP    ??vosstan_memory_20
   \                     ??vosstan_memory_21:
   \   00000302   ....               LDI     R30, LOW((map_vers + 30))
   \   00000304   ....               LDI     R31, HIGH((map_vers + 30))
   \   00000306   0FE0               ADD     R30, R16
   \   00000308   1FF3               ADC     R31, R19
   \   0000030A   9114               LPM     R17, Z
   \   0000030C   01FD               MOVW    R31:R30, R27:R26
   \   0000030E   8310               ST      Z, R17
   \   00000310   9523               INC     R18
   \   00000312   9503               INC     R16
   \                     ??vosstan_memory_20:
   \   00000314   01DE               MOVW    R27:R26, R29:R28
   \   00000316   0FA2               ADD     R26, R18
   \   00000318   1FB3               ADC     R27, R19
   \   0000031A   3007               CPI     R16, 7
   \   0000031C   F390               BRCS    ??vosstan_memory_21
    320               
    321               temp=sizeof(def_uspsw2)-1;
    322               buf[j]=temp;
   \   0000031E   E007               LDI     R16, 7
   \   00000320   930C               ST      X, R16
    323               j++;
   \   00000322   9523               INC     R18
    324               for(i=0;i<temp;i++){buf[j]=def_uspsw2[i];j++;}
   \   00000324   E000               LDI     R16, 0
   \   00000326   C00B               RJMP    ??vosstan_memory_22
   \                     ??vosstan_memory_23:
   \   00000328   ....               LDI     R30, LOW((map_vers + 38))
   \   0000032A   ....               LDI     R31, HIGH((map_vers + 38))
   \   0000032C   0FE0               ADD     R30, R16
   \   0000032E   1FF3               ADC     R31, R19
   \   00000330   9114               LPM     R17, Z
   \   00000332   01FE               MOVW    R31:R30, R29:R28
   \   00000334   0FE2               ADD     R30, R18
   \   00000336   1FF3               ADC     R31, R19
   \   00000338   8310               ST      Z, R17
   \   0000033A   9523               INC     R18
   \   0000033C   9503               INC     R16
   \                     ??vosstan_memory_22:
   \   0000033E   3007               CPI     R16, 7
   \   00000340   F398               BRCS    ??vosstan_memory_23
    325               
    326               for(i=0;i<L_C2_GPRS_MAX;i++){buf[j]=0;j++;}
   \   00000342   E000               LDI     R16, 0
   \   00000344   C006               RJMP    ??vosstan_memory_24
   \                     ??vosstan_memory_25:
   \   00000346   01FE               MOVW    R31:R30, R29:R28
   \   00000348   0FE2               ADD     R30, R18
   \   0000034A   1FF3               ADC     R31, R19
   \   0000034C   8330               ST      Z, R19
   \   0000034E   9523               INC     R18
   \   00000350   9503               INC     R16
   \                     ??vosstan_memory_24:
   \   00000352   330C               CPI     R16, 60
   \   00000354   F3C0               BRCS    ??vosstan_memory_25
    327               *(unsigned int*)&buf[L_C2_GPRS_MAX-2]=crc_m1(&buf[0],L_C2_GPRS_MAX-2,0xffff);
   \   00000356   EF4F               LDI     R20, 255
   \   00000358   EF5F               LDI     R21, 255
   \   0000035A   E32A               LDI     R18, 58
   \   0000035C   018E               MOVW    R17:R16, R29:R28
   \   0000035E   ........           CALL    crc_m1
   \   00000362   AF0A               STD     Y+58, R16
   \   00000364   AF1B               STD     Y+59, R17
    328               WrArrayToFlesh(A_C2_GPRS, &buf[0],L_C2_GPRS_MAX,0,0);
   \   00000366   E070               LDI     R23, 0
   \   00000368   E060               LDI     R22, 0
   \   0000036A   E34C               LDI     R20, 60
   \   0000036C   E050               LDI     R21, 0
   \   0000036E   019E               MOVW    R19:R18, R29:R28
   \   00000370   E004               LDI     R16, 4
   \   00000372   E011               LDI     R17, 1
   \   00000374   ........           CALL    WrArrayToFlesh
    329           
    330           
    331               j=0;
    332               temp=sizeof(def_apn3)-1;
    333               buf[0]=temp;
   \   00000378   E008               LDI     R16, 8
   \   0000037A   8308               ST      Y, R16
    334               j=1;
   \   0000037C   E021               LDI     R18, 1
    335               for(i=0;i<temp;i++){buf[j]=def_apn3[i];j++;}
   \   0000037E   E000               LDI     R16, 0
   \   00000380   C009               RJMP    ??vosstan_memory_26
   \                     ??vosstan_memory_27:
   \   00000382   ....               LDI     R30, LOW((map_vers + 46))
   \   00000384   ....               LDI     R31, HIGH((map_vers + 46))
   \   00000386   0FE0               ADD     R30, R16
   \   00000388   1FF3               ADC     R31, R19
   \   0000038A   9114               LPM     R17, Z
   \   0000038C   01FD               MOVW    R31:R30, R27:R26
   \   0000038E   8310               ST      Z, R17
   \   00000390   9523               INC     R18
   \   00000392   9503               INC     R16
   \                     ??vosstan_memory_26:
   \   00000394   01DE               MOVW    R27:R26, R29:R28
   \   00000396   E030               LDI     R19, 0
   \   00000398   0FA2               ADD     R26, R18
   \   0000039A   1FB3               ADC     R27, R19
   \   0000039C   3008               CPI     R16, 8
   \   0000039E   F388               BRCS    ??vosstan_memory_27
    336               
    337               temp=sizeof(def_usname3)-1;
    338               buf[j]=temp;
   \   000003A0   E000               LDI     R16, 0
   \   000003A2   933C               ST      X, R19
    339               j++;
   \   000003A4   9523               INC     R18
    340               for(i=0;i<temp;i++){buf[j]=def_usname3[i];j++;} 
    341               
    342               temp=sizeof(def_uspsw3)-1;
    343               buf[j]=temp;
   \   000003A6   01FE               MOVW    R31:R30, R29:R28
   \   000003A8   0FE2               ADD     R30, R18
   \   000003AA   1FF3               ADC     R31, R19
   \   000003AC   8330               ST      Z, R19
    344               j++;
   \   000003AE   9523               INC     R18
    345               for(i=0;i<temp;i++){buf[j]=def_uspsw3[i];j++;}
    346               
    347               for(i=0;i<L_C3_GPRS_MAX;i++){buf[j]=0;j++;}
   \   000003B0   C006               RJMP    ??vosstan_memory_28
   \                     ??vosstan_memory_29:
   \   000003B2   01FE               MOVW    R31:R30, R29:R28
   \   000003B4   0FE2               ADD     R30, R18
   \   000003B6   1FF3               ADC     R31, R19
   \   000003B8   8330               ST      Z, R19
   \   000003BA   9523               INC     R18
   \   000003BC   9503               INC     R16
   \                     ??vosstan_memory_28:
   \   000003BE   330C               CPI     R16, 60
   \   000003C0   F3C0               BRCS    ??vosstan_memory_29
    348               *(unsigned int*)&buf[L_C3_GPRS_MAX-2]=crc_m1(&buf[0],L_C3_GPRS_MAX-2,0xffff);
   \   000003C2   EF4F               LDI     R20, 255
   \   000003C4   EF5F               LDI     R21, 255
   \   000003C6   E32A               LDI     R18, 58
   \   000003C8   018E               MOVW    R17:R16, R29:R28
   \   000003CA   ........           CALL    crc_m1
   \   000003CE   AF0A               STD     Y+58, R16
   \   000003D0   AF1B               STD     Y+59, R17
    349               WrArrayToFlesh(A_C3_GPRS, &buf[0],L_C3_GPRS_MAX,0,0);
   \   000003D2   E070               LDI     R23, 0
   \   000003D4   E060               LDI     R22, 0
   \   000003D6   E34C               LDI     R20, 60
   \   000003D8   E050               LDI     R21, 0
   \   000003DA   019E               MOVW    R19:R18, R29:R28
   \   000003DC   E400               LDI     R16, 64
   \   000003DE   E011               LDI     R17, 1
   \   000003E0   ........           CALL    WrArrayToFlesh
    350          }
   \   000003E4   96EF               ADIW    R29:R28, 63
   \   000003E6   9627               ADIW    R29:R28, 7
   \   000003E8   91A9               LD      R26, Y+
   \   000003EA   91B9               LD      R27, Y+
   \   000003EC   9508               RET
    351          
    352          
    353          
    354          
    355          

   \                                 In segment CODE, align 2, keep-with-next
    356          unsigned char check_memory_map(void)
   \                     check_memory_map:
    357          {
   \   00000000   ........           CALL    ?PROLOGUE4_L09
   \   00000004   97EF               SBIW    R29:R28, 63
   \   00000006   9727               SBIW    R29:R28, 7
    358          unsigned char i,j,buf[70],temp;
    359          
    360          
    361          j=sizeof(map_vers);
    362           
    363          RdFromFleshToArr(A_VER_MAP,&buf[0],j+2);
   \   00000008   E140               LDI     R20, 16
   \   0000000A   E050               LDI     R21, 0
   \   0000000C   019E               MOVW    R19:R18, R29:R28
   \   0000000E   E000               LDI     R16, 0
   \   00000010   E010               LDI     R17, 0
   \   00000012   ........           CALL    RdFromFleshToArr
    364          if(*(unsigned int*)&buf[j]!=crc_m1(&buf[0],j,0xffff))return(1);
   \   00000016   858E               LDD     R24, Y+14
   \   00000018   859F               LDD     R25, Y+15
   \   0000001A   EF4F               LDI     R20, 255
   \   0000001C   EF5F               LDI     R21, 255
   \   0000001E   E02E               LDI     R18, 14
   \   00000020   E030               LDI     R19, 0
   \   00000022   018E               MOVW    R17:R16, R29:R28
   \   00000024   ........           CALL    crc_m1
   \   00000028   1780               CP      R24, R16
   \   0000002A   0791               CPC     R25, R17
   \   0000002C   F011               BREQ    ??check_memory_map_0
   \                     ??check_memory_map_1:
   \   0000002E   E001               LDI     R16, 1
   \   00000030   C28A               RJMP    ??check_memory_map_2
    365          for(i=0;i<j;i++)if(buf[i]==map_vers[i])continue;else return(1);
   \                     ??check_memory_map_0:
   \   00000032   E000               LDI     R16, 0
   \   00000034   C00E               RJMP    ??check_memory_map_3
   \                     ??check_memory_map_4:
   \   00000036   2F20               MOV     R18, R16
   \   00000038   E030               LDI     R19, 0
   \   0000003A   01FE               MOVW    R31:R30, R29:R28
   \   0000003C   0FE2               ADD     R30, R18
   \   0000003E   1FF3               ADC     R31, R19
   \   00000040   8110               LD      R17, Z
   \   00000042   ....               LDI     R30, LOW(map_vers)
   \   00000044   ....               LDI     R31, (map_vers) >> 8
   \   00000046   0FE2               ADD     R30, R18
   \   00000048   1FF3               ADC     R31, R19
   \   0000004A   9124               LPM     R18, Z
   \   0000004C   1712               CP      R17, R18
   \   0000004E   F779               BRNE    ??check_memory_map_1
   \   00000050   9503               INC     R16
   \                     ??check_memory_map_3:
   \   00000052   300E               CPI     R16, 14
   \   00000054   F380               BRCS    ??check_memory_map_4
    366          
    367          
    368           
    369            
    370          RdFromFleshToArr(A_C_GPRS,&buf[0],L_C_GPRS_MAX);
   \   00000056   E34C               LDI     R20, 60
   \   00000058   E050               LDI     R21, 0
   \   0000005A   019E               MOVW    R19:R18, R29:R28
   \   0000005C   E104               LDI     R16, 20
   \   0000005E   E010               LDI     R17, 0
   \   00000060   ........           CALL    RdFromFleshToArr
    371          if(*(unsigned int*)&buf[L_C_GPRS_MAX-2]!=crc_m1(&buf[0],L_C_GPRS_MAX-2,0xffff))
   \   00000064   AD8A               LDD     R24, Y+58
   \   00000066   AD9B               LDD     R25, Y+59
   \   00000068   EF4F               LDI     R20, 255
   \   0000006A   EF5F               LDI     R21, 255
   \   0000006C   E32A               LDI     R18, 58
   \   0000006E   E030               LDI     R19, 0
   \   00000070   018E               MOVW    R17:R16, R29:R28
   \   00000072   ........           CALL    crc_m1
   \   00000076   1780               CP      R24, R16
   \   00000078   0791               CPC     R25, R17
   \   0000007A   F1B1               BREQ    ??check_memory_map_5
    372              {
    373               
    374              //çŕăđóçęŕ ďîóěîë÷ŕíčţ
    375               j=0;
    376               temp=sizeof(def_apn)-1;
    377               buf[0]=temp;
   \   0000007C   E00F               LDI     R16, 15
   \   0000007E   8308               ST      Y, R16
    378               j=1;
   \   00000080   E021               LDI     R18, 1
    379               for(i=0;i<temp;i++){buf[j]=def_apn[i];j++;}
   \   00000082   E000               LDI     R16, 0
   \   00000084   C009               RJMP    ??check_memory_map_6
   \                     ??check_memory_map_7:
   \   00000086   ....               LDI     R30, LOW(def_apn)
   \   00000088   ....               LDI     R31, (def_apn) >> 8
   \   0000008A   0FE0               ADD     R30, R16
   \   0000008C   1FF3               ADC     R31, R19
   \   0000008E   9114               LPM     R17, Z
   \   00000090   01FD               MOVW    R31:R30, R27:R26
   \   00000092   8310               ST      Z, R17
   \   00000094   9523               INC     R18
   \   00000096   9503               INC     R16
   \                     ??check_memory_map_6:
   \   00000098   01DE               MOVW    R27:R26, R29:R28
   \   0000009A   E030               LDI     R19, 0
   \   0000009C   0FA2               ADD     R26, R18
   \   0000009E   1FB3               ADC     R27, R19
   \   000000A0   300F               CPI     R16, 15
   \   000000A2   F388               BRCS    ??check_memory_map_7
    380          
    381               temp=sizeof(def_usname)-1;
    382               buf[j]=temp;
   \   000000A4   E000               LDI     R16, 0
   \   000000A6   933C               ST      X, R19
    383               j++;
   \   000000A8   9523               INC     R18
    384               for(i=0;i<temp;i++){buf[j]=def_usname[i];j++;}
    385               
    386               temp=sizeof(def_uspsw)-1;
    387               buf[j]=temp;
   \   000000AA   01FE               MOVW    R31:R30, R29:R28
   \   000000AC   0FE2               ADD     R30, R18
   \   000000AE   1FF3               ADC     R31, R19
   \   000000B0   8330               ST      Z, R19
    388               j++;
   \   000000B2   9523               INC     R18
    389               for(i=0;i<temp;i++){buf[j]=def_uspsw[i];j++;}
    390          
    391               for(i=0;i<L_C_GPRS_MAX;i++){buf[j]=0;j++;}
   \   000000B4   C006               RJMP    ??check_memory_map_8
   \                     ??check_memory_map_9:
   \   000000B6   01FE               MOVW    R31:R30, R29:R28
   \   000000B8   0FE2               ADD     R30, R18
   \   000000BA   1FF3               ADC     R31, R19
   \   000000BC   8330               ST      Z, R19
   \   000000BE   9523               INC     R18
   \   000000C0   9503               INC     R16
   \                     ??check_memory_map_8:
   \   000000C2   330C               CPI     R16, 60
   \   000000C4   F3C0               BRCS    ??check_memory_map_9
    392          
    393               *(unsigned int*)&buf[L_C_GPRS_MAX-2]=crc_m1(&buf[0],L_C_GPRS_MAX-2,0xffff);
   \   000000C6   EF4F               LDI     R20, 255
   \   000000C8   EF5F               LDI     R21, 255
   \   000000CA   E32A               LDI     R18, 58
   \   000000CC   018E               MOVW    R17:R16, R29:R28
   \   000000CE   ........           CALL    crc_m1
   \   000000D2   AF0A               STD     Y+58, R16
   \   000000D4   AF1B               STD     Y+59, R17
    394               WrArrayToFlesh(A_C_GPRS, &buf[0],L_C_GPRS_MAX,0,0);
   \   000000D6   E070               LDI     R23, 0
   \   000000D8   E060               LDI     R22, 0
   \   000000DA   E34C               LDI     R20, 60
   \   000000DC   E050               LDI     R21, 0
   \   000000DE   019E               MOVW    R19:R18, R29:R28
   \   000000E0   E104               LDI     R16, 20
   \   000000E2   E010               LDI     R17, 0
   \   000000E4   ........           CALL    WrArrayToFlesh
    395              }
    396          
    397          
    398          
    399          RdFromFleshToArr(A_CR_GPRS,&buf[0],L_CR_GPRS_MAX);
   \                     ??check_memory_map_5:
   \   000000E8   E34C               LDI     R20, 60
   \   000000EA   E050               LDI     R21, 0
   \   000000EC   019E               MOVW    R19:R18, R29:R28
   \   000000EE   E500               LDI     R16, 80
   \   000000F0   E010               LDI     R17, 0
   \   000000F2   ........           CALL    RdFromFleshToArr
    400          if(*(unsigned int*)&buf[L_CR_GPRS_MAX-2]!=crc_m1(&buf[0],L_CR_GPRS_MAX-2,0xffff))
   \   000000F6   AD8A               LDD     R24, Y+58
   \   000000F8   AD9B               LDD     R25, Y+59
   \   000000FA   EF4F               LDI     R20, 255
   \   000000FC   EF5F               LDI     R21, 255
   \   000000FE   E32A               LDI     R18, 58
   \   00000100   E030               LDI     R19, 0
   \   00000102   018E               MOVW    R17:R16, R29:R28
   \   00000104   ........           CALL    crc_m1
   \   00000108   1780               CP      R24, R16
   \   0000010A   0791               CPC     R25, R17
   \   0000010C   F409               BRNE    $+2+2
   \   0000010E   C054               RJMP    ??check_memory_map_10
    401              {
    402               
    403              //çŕăđóçęŕ ďîóěîë÷ŕíčţ
    404               j=0;
    405               temp=sizeof(def_apnr)-1;
    406               buf[0]=temp;
   \   00000110   E103               LDI     R16, 19
   \   00000112   8308               ST      Y, R16
    407               j=1;
   \   00000114   E021               LDI     R18, 1
    408               for(i=0;i<temp;i++){buf[j]=def_apnr[i];j++;}
   \   00000116   E000               LDI     R16, 0
   \   00000118   C009               RJMP    ??check_memory_map_11
   \                     ??check_memory_map_12:
   \   0000011A   ....               LDI     R30, LOW((def_apn + 16))
   \   0000011C   ....               LDI     R31, HIGH((def_apn + 16))
   \   0000011E   0FE0               ADD     R30, R16
   \   00000120   1FF3               ADC     R31, R19
   \   00000122   9114               LPM     R17, Z
   \   00000124   01FD               MOVW    R31:R30, R27:R26
   \   00000126   8310               ST      Z, R17
   \   00000128   9523               INC     R18
   \   0000012A   9503               INC     R16
   \                     ??check_memory_map_11:
   \   0000012C   01DE               MOVW    R27:R26, R29:R28
   \   0000012E   E030               LDI     R19, 0
   \   00000130   0FA2               ADD     R26, R18
   \   00000132   1FB3               ADC     R27, R19
   \   00000134   3103               CPI     R16, 19
   \   00000136   F388               BRCS    ??check_memory_map_12
    409          
    410               temp=sizeof(def_usnamer)-1;
    411               buf[j]=temp;
   \   00000138   E007               LDI     R16, 7
   \   0000013A   930C               ST      X, R16
    412               j++;
   \   0000013C   9523               INC     R18
    413               for(i=0;i<temp;i++){buf[j]=def_usnamer[i];j++;}
   \   0000013E   E000               LDI     R16, 0
   \   00000140   C009               RJMP    ??check_memory_map_13
   \                     ??check_memory_map_14:
   \   00000142   ....               LDI     R30, LOW((map_vers + 14))
   \   00000144   ....               LDI     R31, HIGH((map_vers + 14))
   \   00000146   0FE0               ADD     R30, R16
   \   00000148   1FF3               ADC     R31, R19
   \   0000014A   9114               LPM     R17, Z
   \   0000014C   01FD               MOVW    R31:R30, R27:R26
   \   0000014E   8310               ST      Z, R17
   \   00000150   9523               INC     R18
   \   00000152   9503               INC     R16
   \                     ??check_memory_map_13:
   \   00000154   01DE               MOVW    R27:R26, R29:R28
   \   00000156   0FA2               ADD     R26, R18
   \   00000158   1FB3               ADC     R27, R19
   \   0000015A   3007               CPI     R16, 7
   \   0000015C   F390               BRCS    ??check_memory_map_14
    414               
    415               temp=sizeof(def_uspswr)-1;
    416               buf[j]=temp;
   \   0000015E   E007               LDI     R16, 7
   \   00000160   930C               ST      X, R16
    417               j++;
   \   00000162   9523               INC     R18
    418               for(i=0;i<temp;i++){buf[j]=def_uspswr[i];j++;}
   \   00000164   E000               LDI     R16, 0
   \   00000166   C00B               RJMP    ??check_memory_map_15
   \                     ??check_memory_map_16:
   \   00000168   ....               LDI     R30, LOW((map_vers + 22))
   \   0000016A   ....               LDI     R31, HIGH((map_vers + 22))
   \   0000016C   0FE0               ADD     R30, R16
   \   0000016E   1FF3               ADC     R31, R19
   \   00000170   9114               LPM     R17, Z
   \   00000172   01FE               MOVW    R31:R30, R29:R28
   \   00000174   0FE2               ADD     R30, R18
   \   00000176   1FF3               ADC     R31, R19
   \   00000178   8310               ST      Z, R17
   \   0000017A   9523               INC     R18
   \   0000017C   9503               INC     R16
   \                     ??check_memory_map_15:
   \   0000017E   3007               CPI     R16, 7
   \   00000180   F398               BRCS    ??check_memory_map_16
    419          
    420               for(i=0;i<L_CR_GPRS_MAX;i++){buf[j]=0;j++;}
   \   00000182   E000               LDI     R16, 0
   \   00000184   C006               RJMP    ??check_memory_map_17
   \                     ??check_memory_map_18:
   \   00000186   01FE               MOVW    R31:R30, R29:R28
   \   00000188   0FE2               ADD     R30, R18
   \   0000018A   1FF3               ADC     R31, R19
   \   0000018C   8330               ST      Z, R19
   \   0000018E   9523               INC     R18
   \   00000190   9503               INC     R16
   \                     ??check_memory_map_17:
   \   00000192   330C               CPI     R16, 60
   \   00000194   F3C0               BRCS    ??check_memory_map_18
    421          
    422               *(unsigned int*)&buf[L_CR_GPRS_MAX-2]=crc_m1(&buf[0],L_CR_GPRS_MAX-2,0xffff);
   \   00000196   EF4F               LDI     R20, 255
   \   00000198   EF5F               LDI     R21, 255
   \   0000019A   E32A               LDI     R18, 58
   \   0000019C   018E               MOVW    R17:R16, R29:R28
   \   0000019E   ........           CALL    crc_m1
   \   000001A2   AF0A               STD     Y+58, R16
   \   000001A4   AF1B               STD     Y+59, R17
    423               WrArrayToFlesh(A_CR_GPRS, &buf[0],L_CR_GPRS_MAX,0,0);
   \   000001A6   E070               LDI     R23, 0
   \   000001A8   E060               LDI     R22, 0
   \   000001AA   E34C               LDI     R20, 60
   \   000001AC   E050               LDI     R21, 0
   \   000001AE   019E               MOVW    R19:R18, R29:R28
   \   000001B0   E500               LDI     R16, 80
   \   000001B2   E010               LDI     R17, 0
   \   000001B4   ........           CALL    WrArrayToFlesh
    424              }
    425          
    426          
    427          
    428          
    429          
    430          
    431          RdFromFleshToArr(A_IP_PAR,&buf[0],L_IP_PAR);
   \                     ??check_memory_map_10:
   \   000001B8   E04A               LDI     R20, 10
   \   000001BA   E050               LDI     R21, 0
   \   000001BC   019E               MOVW    R19:R18, R29:R28
   \   000001BE   E80C               LDI     R16, 140
   \   000001C0   E010               LDI     R17, 0
   \   000001C2   ........           CALL    RdFromFleshToArr
    432          if(*(unsigned int*)&buf[OFS_IP_PAR_CRC]!=crc_m1(&buf[0],L_IP_PAR-2,0xffff))
   \   000001C6   8588               LDD     R24, Y+8
   \   000001C8   8599               LDD     R25, Y+9
   \   000001CA   EF4F               LDI     R20, 255
   \   000001CC   EF5F               LDI     R21, 255
   \   000001CE   E028               LDI     R18, 8
   \   000001D0   E030               LDI     R19, 0
   \   000001D2   018E               MOVW    R17:R16, R29:R28
   \   000001D4   ........           CALL    crc_m1
   \   000001D8   1780               CP      R24, R16
   \   000001DA   0791               CPC     R25, R17
   \   000001DC   F101               BREQ    ??check_memory_map_19
    433            {
    434           
    435            
    436             buf[OFS_IP]=DEF_IP_SRV_0;
   \   000001DE   E508               LDI     R16, 88
   \   000001E0   8308               ST      Y, R16
    437             buf[OFS_IP+1]=DEF_IP_SRV_1;
   \   000001E2   E502               LDI     R16, 82
   \   000001E4   8309               STD     Y+1, R16
    438             buf[OFS_IP+2]=DEF_IP_SRV_2;
   \   000001E6   E405               LDI     R16, 69
   \   000001E8   830A               STD     Y+2, R16
    439             buf[OFS_IP+3]=DEF_IP_SRV_3;
   \   000001EA   EE04               LDI     R16, 228
   \   000001EC   830B               STD     Y+3, R16
    440             
    441             *(unsigned int*)&buf[OFS_PORT]=DEF_UDP_PORT;//UDP ďîđň
   \   000001EE   E808               LDI     R16, 136
   \   000001F0   E113               LDI     R17, 19
   \   000001F2   830C               STD     Y+4, R16
   \   000001F4   831D               STD     Y+5, R17
    442             *(unsigned int*)&buf[OFS_NUM]=//ńâîé íîěĺđ ďî óěîë÷ŕíčţ
    443             
    444             *(unsigned int*)&buf[OFS_IP_PAR_CRC]=crc_m1(&buf[0],L_IP_PAR-2,0xffff);
   \   000001F6   EF4F               LDI     R20, 255
   \   000001F8   EF5F               LDI     R21, 255
   \   000001FA   E028               LDI     R18, 8
   \   000001FC   E030               LDI     R19, 0
   \   000001FE   018E               MOVW    R17:R16, R29:R28
   \   00000200   ........           CALL    crc_m1
   \   00000204   8708               STD     Y+8, R16
   \   00000206   8719               STD     Y+9, R17
   \   00000208   830E               STD     Y+6, R16
   \   0000020A   831F               STD     Y+7, R17
    445               WrArrayToFlesh(A_IP_PAR, &buf[0],L_IP_PAR,0,0);
   \   0000020C   E070               LDI     R23, 0
   \   0000020E   E060               LDI     R22, 0
   \   00000210   E04A               LDI     R20, 10
   \   00000212   E050               LDI     R21, 0
   \   00000214   019E               MOVW    R19:R18, R29:R28
   \   00000216   E80C               LDI     R16, 140
   \   00000218   E010               LDI     R17, 0
   \   0000021A   ........           CALL    WrArrayToFlesh
    446            }
    447          
    448          
    449          RdFromFleshToArr(A_C_PAR,&buf[0],L_C_PAR);
   \                     ??check_memory_map_19:
   \   0000021E   E04E               LDI     R20, 14
   \   00000220   E050               LDI     R21, 0
   \   00000222   019E               MOVW    R19:R18, R29:R28
   \   00000224   E906               LDI     R16, 150
   \   00000226   E010               LDI     R17, 0
   \   00000228   ........           CALL    RdFromFleshToArr
    450          if(*(unsigned int*)&buf[OFS_C_PAR_CRC]!=crc_m1(&buf[0],L_C_PAR-2,0xffff))
   \   0000022C   858C               LDD     R24, Y+12
   \   0000022E   859D               LDD     R25, Y+13
   \   00000230   EF4F               LDI     R20, 255
   \   00000232   EF5F               LDI     R21, 255
   \   00000234   E02C               LDI     R18, 12
   \   00000236   E030               LDI     R19, 0
   \   00000238   018E               MOVW    R17:R16, R29:R28
   \   0000023A   ........           CALL    crc_m1
   \   0000023E   1780               CP      R24, R16
   \   00000240   0791               CPC     R25, R17
   \   00000242   F129               BREQ    ??check_memory_map_20
    451            {
    452            
    453            
    454          
    455             *(unsigned int*)&buf[OFS_NAT]=DEF_CNTR_NAT;
   \   00000244   E302               LDI     R16, 50
   \   00000246   E010               LDI     R17, 0
   \   00000248   8308               ST      Y, R16
   \   0000024A   8319               STD     Y+1, R17
    456             *(unsigned int*)&buf[OFS_CCH]=DEF_CNTR_LINK;
   \   0000024C   E708               LDI     R16, 120
   \   0000024E   830A               STD     Y+2, R16
   \   00000250   831B               STD     Y+3, R17
    457             *(unsigned int*)&buf[OFS_TM_CH]=DEF_TM_CNTR_LINK;
   \   00000252   E30E               LDI     R16, 62
   \   00000254   830C               STD     Y+4, R16
   \   00000256   831D               STD     Y+5, R17
    458             
    459             *(unsigned int*)&buf[OFS_TM_NO_LINK]=DEF_TM_NO_LINK;       //dobavka
   \   00000258   E00A               LDI     R16, 10
   \   0000025A   830E               STD     Y+6, R16
   \   0000025C   831F               STD     Y+7, R17
    460             *(unsigned int*)&buf[OFS_TM_LINK_RES]=DEF_TM_LINK_RES;       //dobavka
   \   0000025E   E30C               LDI     R16, 60
   \   00000260   8708               STD     Y+8, R16
   \   00000262   8719               STD     Y+9, R17
    461             
    462             *(unsigned int*)&buf[OFS_NAT_R]=DEF_CNTR_NAT_R;
   \   00000264   E20D               LDI     R16, 45
   \   00000266   870A               STD     Y+10, R16
   \   00000268   871B               STD     Y+11, R17
    463             
    464             *(unsigned int*)&buf[OFS_C_PAR_CRC]=crc_m1(&buf[0],L_C_PAR-2,0xffff);
   \   0000026A   EF4F               LDI     R20, 255
   \   0000026C   EF5F               LDI     R21, 255
   \   0000026E   E02C               LDI     R18, 12
   \   00000270   E030               LDI     R19, 0
   \   00000272   018E               MOVW    R17:R16, R29:R28
   \   00000274   ........           CALL    crc_m1
   \   00000278   870C               STD     Y+12, R16
   \   0000027A   871D               STD     Y+13, R17
    465               WrArrayToFlesh(A_C_PAR, &buf[0],L_C_PAR,0,0);
   \   0000027C   E070               LDI     R23, 0
   \   0000027E   E060               LDI     R22, 0
   \   00000280   E04E               LDI     R20, 14
   \   00000282   E050               LDI     R21, 0
   \   00000284   019E               MOVW    R19:R18, R29:R28
   \   00000286   E906               LDI     R16, 150
   \   00000288   E010               LDI     R17, 0
   \   0000028A   ........           CALL    WrArrayToFlesh
    466            }
    467          
    468          
    469          
    470          RdFromFleshToArr(A_SEQ_PAR,&buf[0],L_SEQ_PAR);
   \                     ??check_memory_map_20:
   \   0000028E   E04B               LDI     R20, 11
   \   00000290   E050               LDI     R21, 0
   \   00000292   019E               MOVW    R19:R18, R29:R28
   \   00000294   EA04               LDI     R16, 164
   \   00000296   E010               LDI     R17, 0
   \   00000298   ........           CALL    RdFromFleshToArr
    471          if(*(unsigned int*)&buf[OFS_SEQ_PAR_CRC]!=crc_m1(&buf[0],L_SEQ_PAR-2,0xffff))
   \   0000029C   8589               LDD     R24, Y+9
   \   0000029E   859A               LDD     R25, Y+10
   \   000002A0   EF4F               LDI     R20, 255
   \   000002A2   EF5F               LDI     R21, 255
   \   000002A4   E029               LDI     R18, 9
   \   000002A6   E030               LDI     R19, 0
   \   000002A8   018E               MOVW    R17:R16, R29:R28
   \   000002AA   ........           CALL    crc_m1
   \   000002AE   1780               CP      R24, R16
   \   000002B0   0791               CPC     R25, R17
   \   000002B2   F109               BREQ    ??check_memory_map_21
    472            {
    473            
    474            
    475             buf[OFS_DES_SEQ]=~DEF_DES_SEQ; 
   \   000002B4   EF0E               LDI     R16, 254
   \   000002B6   8308               ST      Y, R16
    476             *(unsigned int*)&buf[OFS_NUM_CL]=DEF_NUM_DST_SEQ;
   \   000002B8   EF0F               LDI     R16, 255
   \   000002BA   8309               STD     Y+1, R16
   \   000002BC   830A               STD     Y+2, R16
    477             *(unsigned int*)&buf[OFS_TM_VZ]=DEF_VOL_TM_VZAT;
   \   000002BE   E10E               LDI     R16, 30
   \   000002C0   E010               LDI     R17, 0
   \   000002C2   830B               STD     Y+3, R16
   \   000002C4   831C               STD     Y+4, R17
    478             *(unsigned int*)&buf[OFS_TM_CL]=DEF_TM_CNTR_CL;
   \   000002C6   E00A               LDI     R16, 10
   \   000002C8   830D               STD     Y+5, R16
   \   000002CA   831E               STD     Y+6, R17
    479             buf[OFS_TP_TS]=DEF_TP_TS1;
   \   000002CC   E001               LDI     R16, 1
   \   000002CE   830F               STD     Y+7, R16
    480             buf[OFS_TP_TS+1]=DEF_TP_TS2;
   \   000002D0   8708               STD     Y+8, R16
    481             *(unsigned int*)&buf[OFS_SEQ_PAR_CRC]=crc_m1(&buf[0],L_SEQ_PAR-2,0xffff);
   \   000002D2   EF4F               LDI     R20, 255
   \   000002D4   EF5F               LDI     R21, 255
   \   000002D6   E029               LDI     R18, 9
   \   000002D8   E030               LDI     R19, 0
   \   000002DA   018E               MOVW    R17:R16, R29:R28
   \   000002DC   ........           CALL    crc_m1
   \   000002E0   8709               STD     Y+9, R16
   \   000002E2   871A               STD     Y+10, R17
    482               WrArrayToFlesh(A_SEQ_PAR, &buf[0],L_SEQ_PAR,0,0);
   \   000002E4   E070               LDI     R23, 0
   \   000002E6   E060               LDI     R22, 0
   \   000002E8   E04B               LDI     R20, 11
   \   000002EA   E050               LDI     R21, 0
   \   000002EC   019E               MOVW    R19:R18, R29:R28
   \   000002EE   EA04               LDI     R16, 164
   \   000002F0   E010               LDI     R17, 0
   \   000002F2   ........           CALL    WrArrayToFlesh
    483            }
    484          
    485          
    486          
    487          RdFromFleshToArr(A_PORT_GPRS,&buf[0],L_PORT_GPRS);
   \                     ??check_memory_map_21:
   \   000002F6   E047               LDI     R20, 7
   \   000002F8   E050               LDI     R21, 0
   \   000002FA   019E               MOVW    R19:R18, R29:R28
   \   000002FC   EA0F               LDI     R16, 175
   \   000002FE   E010               LDI     R17, 0
   \   00000300   ........           CALL    RdFromFleshToArr
    488          if(*(unsigned int*)&buf[OFS_PORT_GPRS_CRC]!=crc_m1(&buf[0],L_PORT_GPRS-2,0xffff))
   \   00000304   818D               LDD     R24, Y+5
   \   00000306   819E               LDD     R25, Y+6
   \   00000308   EF4F               LDI     R20, 255
   \   0000030A   EF5F               LDI     R21, 255
   \   0000030C   E025               LDI     R18, 5
   \   0000030E   E030               LDI     R19, 0
   \   00000310   018E               MOVW    R17:R16, R29:R28
   \   00000312   ........           CALL    crc_m1
   \   00000316   1780               CP      R24, R16
   \   00000318   0791               CPC     R25, R17
   \   0000031A   F0D1               BREQ    ??check_memory_map_22
    489            {
    490           
    491            
    492             buf[OFS_GPRS_DES]=~DEF_DES_PORT_GPRS; 
   \   0000031C   EF0E               LDI     R16, 254
   \   0000031E   8308               ST      Y, R16
    493             *(unsigned long int*)&buf[OFS_GPRS_S]=DEF_PORT_GPRS_S;
   \   00000320   E800               LDI     R16, 128
   \   00000322   E215               LDI     R17, 37
   \   00000324   E030               LDI     R19, 0
   \   00000326   8309               STD     Y+1, R16
   \   00000328   831A               STD     Y+2, R17
   \   0000032A   833B               STD     Y+3, R19
   \   0000032C   833C               STD     Y+4, R19
    494          
    495             *(unsigned int*)&buf[OFS_PORT_GPRS_CRC]=crc_m1(&buf[0],L_PORT_GPRS-2,0xffff);
   \   0000032E   EF4F               LDI     R20, 255
   \   00000330   EF5F               LDI     R21, 255
   \   00000332   E025               LDI     R18, 5
   \   00000334   018E               MOVW    R17:R16, R29:R28
   \   00000336   ........           CALL    crc_m1
   \   0000033A   830D               STD     Y+5, R16
   \   0000033C   831E               STD     Y+6, R17
    496               WrArrayToFlesh(A_PORT_GPRS, &buf[0],L_PORT_GPRS,0,0);
   \   0000033E   E070               LDI     R23, 0
   \   00000340   E060               LDI     R22, 0
   \   00000342   E047               LDI     R20, 7
   \   00000344   E050               LDI     R21, 0
   \   00000346   019E               MOVW    R19:R18, R29:R28
   \   00000348   EA0F               LDI     R16, 175
   \   0000034A   E010               LDI     R17, 0
   \   0000034C   ........           CALL    WrArrayToFlesh
    497            }
    498          
    499          
    500          
    501          RdFromFleshToArr(A_C1_GPRS,&buf[0],L_C1_GPRS_MAX);
   \                     ??check_memory_map_22:
   \   00000350   E34C               LDI     R20, 60
   \   00000352   E050               LDI     R21, 0
   \   00000354   019E               MOVW    R19:R18, R29:R28
   \   00000356   EC08               LDI     R16, 200
   \   00000358   E010               LDI     R17, 0
   \   0000035A   ........           CALL    RdFromFleshToArr
    502          if(*(unsigned int*)&buf[L_C1_GPRS_MAX-2]!=crc_m1(&buf[0],L_C1_GPRS_MAX-2,0xffff))
   \   0000035E   AD8A               LDD     R24, Y+58
   \   00000360   AD9B               LDD     R25, Y+59
   \   00000362   EF4F               LDI     R20, 255
   \   00000364   EF5F               LDI     R21, 255
   \   00000366   E32A               LDI     R18, 58
   \   00000368   E030               LDI     R19, 0
   \   0000036A   018E               MOVW    R17:R16, R29:R28
   \   0000036C   ........           CALL    crc_m1
   \   00000370   1780               CP      R24, R16
   \   00000372   0791               CPC     R25, R17
   \   00000374   F1B1               BREQ    ??check_memory_map_23
    503              {
    504              
    505              
    506              
    507              //çŕăđóçęŕ ďîóěîë÷ŕíčţ
    508               j=0;
    509               temp=sizeof(def_apn1)-1;
    510               buf[0]=temp;
   \   00000376   E00F               LDI     R16, 15
   \   00000378   8308               ST      Y, R16
    511               j=1;
   \   0000037A   E021               LDI     R18, 1
    512               for(i=0;i<temp;i++){buf[j]=def_apn1[i];j++;}
   \   0000037C   E000               LDI     R16, 0
   \   0000037E   C009               RJMP    ??check_memory_map_24
   \                     ??check_memory_map_25:
   \   00000380   ....               LDI     R30, LOW((def_apn + 36))
   \   00000382   ....               LDI     R31, HIGH((def_apn + 36))
   \   00000384   0FE0               ADD     R30, R16
   \   00000386   1FF3               ADC     R31, R19
   \   00000388   9114               LPM     R17, Z
   \   0000038A   01FD               MOVW    R31:R30, R27:R26
   \   0000038C   8310               ST      Z, R17
   \   0000038E   9523               INC     R18
   \   00000390   9503               INC     R16
   \                     ??check_memory_map_24:
   \   00000392   01DE               MOVW    R27:R26, R29:R28
   \   00000394   E030               LDI     R19, 0
   \   00000396   0FA2               ADD     R26, R18
   \   00000398   1FB3               ADC     R27, R19
   \   0000039A   300F               CPI     R16, 15
   \   0000039C   F388               BRCS    ??check_memory_map_25
    513          
    514               temp=sizeof(def_usname1)-1;
    515               buf[j]=temp;
   \   0000039E   E000               LDI     R16, 0
   \   000003A0   933C               ST      X, R19
    516               j++;
   \   000003A2   9523               INC     R18
    517               for(i=0;i<temp;i++){buf[j]=def_usname1[i];j++;}
    518               
    519               temp=sizeof(def_uspsw1)-1;
    520               buf[j]=temp;
   \   000003A4   01FE               MOVW    R31:R30, R29:R28
   \   000003A6   0FE2               ADD     R30, R18
   \   000003A8   1FF3               ADC     R31, R19
   \   000003AA   8330               ST      Z, R19
    521               j++;
   \   000003AC   9523               INC     R18
    522               for(i=0;i<temp;i++){buf[j]=def_uspsw1[i];j++;}
    523          
    524               for(i=0;i<L_C1_GPRS_MAX;i++){buf[j]=0;j++;}
   \   000003AE   C006               RJMP    ??check_memory_map_26
   \                     ??check_memory_map_27:
   \   000003B0   01FE               MOVW    R31:R30, R29:R28
   \   000003B2   0FE2               ADD     R30, R18
   \   000003B4   1FF3               ADC     R31, R19
   \   000003B6   8330               ST      Z, R19
   \   000003B8   9523               INC     R18
   \   000003BA   9503               INC     R16
   \                     ??check_memory_map_26:
   \   000003BC   330C               CPI     R16, 60
   \   000003BE   F3C0               BRCS    ??check_memory_map_27
    525          
    526               *(unsigned int*)&buf[L_C1_GPRS_MAX-2]=crc_m1(&buf[0],L_C1_GPRS_MAX-2,0xffff);
   \   000003C0   EF4F               LDI     R20, 255
   \   000003C2   EF5F               LDI     R21, 255
   \   000003C4   E32A               LDI     R18, 58
   \   000003C6   018E               MOVW    R17:R16, R29:R28
   \   000003C8   ........           CALL    crc_m1
   \   000003CC   AF0A               STD     Y+58, R16
   \   000003CE   AF1B               STD     Y+59, R17
    527               WrArrayToFlesh(A_C1_GPRS, &buf[0],L_C1_GPRS_MAX,0,0);
   \   000003D0   E070               LDI     R23, 0
   \   000003D2   E060               LDI     R22, 0
   \   000003D4   E34C               LDI     R20, 60
   \   000003D6   E050               LDI     R21, 0
   \   000003D8   019E               MOVW    R19:R18, R29:R28
   \   000003DA   EC08               LDI     R16, 200
   \   000003DC   E010               LDI     R17, 0
   \   000003DE   ........           CALL    WrArrayToFlesh
    528              }
    529          
    530          RdFromFleshToArr(A_C2_GPRS,&buf[0],L_C2_GPRS_MAX);
   \                     ??check_memory_map_23:
   \   000003E2   E34C               LDI     R20, 60
   \   000003E4   E050               LDI     R21, 0
   \   000003E6   019E               MOVW    R19:R18, R29:R28
   \   000003E8   E004               LDI     R16, 4
   \   000003EA   E011               LDI     R17, 1
   \   000003EC   ........           CALL    RdFromFleshToArr
    531          if(*(unsigned int*)&buf[L_C2_GPRS_MAX-2]!=crc_m1(&buf[0],L_C2_GPRS_MAX-2,0xffff))
   \   000003F0   AD8A               LDD     R24, Y+58
   \   000003F2   AD9B               LDD     R25, Y+59
   \   000003F4   EF4F               LDI     R20, 255
   \   000003F6   EF5F               LDI     R21, 255
   \   000003F8   E32A               LDI     R18, 58
   \   000003FA   E030               LDI     R19, 0
   \   000003FC   018E               MOVW    R17:R16, R29:R28
   \   000003FE   ........           CALL    crc_m1
   \   00000402   1780               CP      R24, R16
   \   00000404   0791               CPC     R25, R17
   \   00000406   F409               BRNE    $+2+2
   \   00000408   C054               RJMP    ??check_memory_map_28
    532              {
    533              
    534              
    535              
    536              //çŕăđóçęŕ ďîóěîë÷ŕíčţ
    537               j=0;
    538               temp=sizeof(def_apn2)-1;
    539               buf[0]=temp;
   \   0000040A   E103               LDI     R16, 19
   \   0000040C   8308               ST      Y, R16
    540               j=1;
   \   0000040E   E021               LDI     R18, 1
    541               for(i=0;i<temp;i++){buf[j]=def_apn2[i];j++;}
   \   00000410   E000               LDI     R16, 0
   \   00000412   C009               RJMP    ??check_memory_map_29
   \                     ??check_memory_map_30:
   \   00000414   ....               LDI     R30, LOW(def_apn2)
   \   00000416   ....               LDI     R31, (def_apn2) >> 8
   \   00000418   0FE0               ADD     R30, R16
   \   0000041A   1FF3               ADC     R31, R19
   \   0000041C   9114               LPM     R17, Z
   \   0000041E   01FD               MOVW    R31:R30, R27:R26
   \   00000420   8310               ST      Z, R17
   \   00000422   9523               INC     R18
   \   00000424   9503               INC     R16
   \                     ??check_memory_map_29:
   \   00000426   01DE               MOVW    R27:R26, R29:R28
   \   00000428   E030               LDI     R19, 0
   \   0000042A   0FA2               ADD     R26, R18
   \   0000042C   1FB3               ADC     R27, R19
   \   0000042E   3103               CPI     R16, 19
   \   00000430   F388               BRCS    ??check_memory_map_30
    542          
    543               temp=sizeof(def_usname2)-1;
    544               buf[j]=temp;
   \   00000432   E007               LDI     R16, 7
   \   00000434   930C               ST      X, R16
    545               j++;
   \   00000436   9523               INC     R18
    546               for(i=0;i<temp;i++){buf[j]=def_usname2[i];j++;}
   \   00000438   E000               LDI     R16, 0
   \   0000043A   C009               RJMP    ??check_memory_map_31
   \                     ??check_memory_map_32:
   \   0000043C   ....               LDI     R30, LOW((map_vers + 30))
   \   0000043E   ....               LDI     R31, HIGH((map_vers + 30))
   \   00000440   0FE0               ADD     R30, R16
   \   00000442   1FF3               ADC     R31, R19
   \   00000444   9114               LPM     R17, Z
   \   00000446   01FD               MOVW    R31:R30, R27:R26
   \   00000448   8310               ST      Z, R17
   \   0000044A   9523               INC     R18
   \   0000044C   9503               INC     R16
   \                     ??check_memory_map_31:
   \   0000044E   01DE               MOVW    R27:R26, R29:R28
   \   00000450   0FA2               ADD     R26, R18
   \   00000452   1FB3               ADC     R27, R19
   \   00000454   3007               CPI     R16, 7
   \   00000456   F390               BRCS    ??check_memory_map_32
    547               
    548               temp=sizeof(def_uspsw2)-1;
    549               buf[j]=temp;
   \   00000458   E007               LDI     R16, 7
   \   0000045A   930C               ST      X, R16
    550               j++;
   \   0000045C   9523               INC     R18
    551               for(i=0;i<temp;i++){buf[j]=def_uspsw2[i];j++;}
   \   0000045E   E000               LDI     R16, 0
   \   00000460   C00B               RJMP    ??check_memory_map_33
   \                     ??check_memory_map_34:
   \   00000462   ....               LDI     R30, LOW((map_vers + 38))
   \   00000464   ....               LDI     R31, HIGH((map_vers + 38))
   \   00000466   0FE0               ADD     R30, R16
   \   00000468   1FF3               ADC     R31, R19
   \   0000046A   9114               LPM     R17, Z
   \   0000046C   01FE               MOVW    R31:R30, R29:R28
   \   0000046E   0FE2               ADD     R30, R18
   \   00000470   1FF3               ADC     R31, R19
   \   00000472   8310               ST      Z, R17
   \   00000474   9523               INC     R18
   \   00000476   9503               INC     R16
   \                     ??check_memory_map_33:
   \   00000478   3007               CPI     R16, 7
   \   0000047A   F398               BRCS    ??check_memory_map_34
    552          
    553               for(i=0;i<L_C2_GPRS_MAX;i++){buf[j]=0;j++;}
   \   0000047C   E000               LDI     R16, 0
   \   0000047E   C006               RJMP    ??check_memory_map_35
   \                     ??check_memory_map_36:
   \   00000480   01FE               MOVW    R31:R30, R29:R28
   \   00000482   0FE2               ADD     R30, R18
   \   00000484   1FF3               ADC     R31, R19
   \   00000486   8330               ST      Z, R19
   \   00000488   9523               INC     R18
   \   0000048A   9503               INC     R16
   \                     ??check_memory_map_35:
   \   0000048C   330C               CPI     R16, 60
   \   0000048E   F3C0               BRCS    ??check_memory_map_36
    554          
    555               *(unsigned int*)&buf[L_C2_GPRS_MAX-2]=crc_m1(&buf[0],L_C2_GPRS_MAX-2,0xffff);
   \   00000490   EF4F               LDI     R20, 255
   \   00000492   EF5F               LDI     R21, 255
   \   00000494   E32A               LDI     R18, 58
   \   00000496   018E               MOVW    R17:R16, R29:R28
   \   00000498   ........           CALL    crc_m1
   \   0000049C   AF0A               STD     Y+58, R16
   \   0000049E   AF1B               STD     Y+59, R17
    556               WrArrayToFlesh(A_C2_GPRS, &buf[0],L_C2_GPRS_MAX,0,0);
   \   000004A0   E070               LDI     R23, 0
   \   000004A2   E060               LDI     R22, 0
   \   000004A4   E34C               LDI     R20, 60
   \   000004A6   E050               LDI     R21, 0
   \   000004A8   019E               MOVW    R19:R18, R29:R28
   \   000004AA   E004               LDI     R16, 4
   \   000004AC   E011               LDI     R17, 1
   \   000004AE   ........           CALL    WrArrayToFlesh
    557              }
    558          
    559          
    560          RdFromFleshToArr(A_C3_GPRS,&buf[0],L_C3_GPRS_MAX);
   \                     ??check_memory_map_28:
   \   000004B2   E34C               LDI     R20, 60
   \   000004B4   E050               LDI     R21, 0
   \   000004B6   019E               MOVW    R19:R18, R29:R28
   \   000004B8   E400               LDI     R16, 64
   \   000004BA   E011               LDI     R17, 1
   \   000004BC   ........           CALL    RdFromFleshToArr
    561          if(*(unsigned int*)&buf[L_C3_GPRS_MAX-2]!=crc_m1(&buf[0],L_C3_GPRS_MAX-2,0xffff))
   \   000004C0   AD8A               LDD     R24, Y+58
   \   000004C2   AD9B               LDD     R25, Y+59
   \   000004C4   EF4F               LDI     R20, 255
   \   000004C6   EF5F               LDI     R21, 255
   \   000004C8   E32A               LDI     R18, 58
   \   000004CA   E030               LDI     R19, 0
   \   000004CC   018E               MOVW    R17:R16, R29:R28
   \   000004CE   ........           CALL    crc_m1
   \   000004D2   1780               CP      R24, R16
   \   000004D4   0791               CPC     R25, R17
   \   000004D6   F1B1               BREQ    ??check_memory_map_37
    562              {
    563              
    564              //çŕăđóçęŕ ďîóěîë÷ŕíčţ
    565               j=0;
    566               temp=sizeof(def_apn3)-1;
    567               buf[0]=temp;
   \   000004D8   E008               LDI     R16, 8
   \   000004DA   8308               ST      Y, R16
    568               j=1;
   \   000004DC   E021               LDI     R18, 1
    569               for(i=0;i<temp;i++){buf[j]=def_apn3[i];j++;}
   \   000004DE   E000               LDI     R16, 0
   \   000004E0   C009               RJMP    ??check_memory_map_38
   \                     ??check_memory_map_39:
   \   000004E2   ....               LDI     R30, LOW((map_vers + 46))
   \   000004E4   ....               LDI     R31, HIGH((map_vers + 46))
   \   000004E6   0FE0               ADD     R30, R16
   \   000004E8   1FF3               ADC     R31, R19
   \   000004EA   9114               LPM     R17, Z
   \   000004EC   01FD               MOVW    R31:R30, R27:R26
   \   000004EE   8310               ST      Z, R17
   \   000004F0   9523               INC     R18
   \   000004F2   9503               INC     R16
   \                     ??check_memory_map_38:
   \   000004F4   01DE               MOVW    R27:R26, R29:R28
   \   000004F6   E030               LDI     R19, 0
   \   000004F8   0FA2               ADD     R26, R18
   \   000004FA   1FB3               ADC     R27, R19
   \   000004FC   3008               CPI     R16, 8
   \   000004FE   F388               BRCS    ??check_memory_map_39
    570          
    571               temp=sizeof(def_usname3)-1;
    572               buf[j]=temp;
   \   00000500   E000               LDI     R16, 0
   \   00000502   933C               ST      X, R19
    573               j++;
   \   00000504   9523               INC     R18
    574               for(i=0;i<temp;i++){buf[j]=def_usname3[i];j++;}
    575               
    576               temp=sizeof(def_uspsw3)-1;
    577               buf[j]=temp;
   \   00000506   01FE               MOVW    R31:R30, R29:R28
   \   00000508   0FE2               ADD     R30, R18
   \   0000050A   1FF3               ADC     R31, R19
   \   0000050C   8330               ST      Z, R19
    578               j++;
   \   0000050E   9523               INC     R18
    579               for(i=0;i<temp;i++){buf[j]=def_uspsw3[i];j++;}
    580          
    581               for(i=0;i<L_C3_GPRS_MAX;i++){buf[j]=0;j++;}
   \   00000510   C006               RJMP    ??check_memory_map_40
   \                     ??check_memory_map_41:
   \   00000512   01FE               MOVW    R31:R30, R29:R28
   \   00000514   0FE2               ADD     R30, R18
   \   00000516   1FF3               ADC     R31, R19
   \   00000518   8330               ST      Z, R19
   \   0000051A   9523               INC     R18
   \   0000051C   9503               INC     R16
   \                     ??check_memory_map_40:
   \   0000051E   330C               CPI     R16, 60
   \   00000520   F3C0               BRCS    ??check_memory_map_41
    582          
    583               *(unsigned int*)&buf[L_C3_GPRS_MAX-2]=crc_m1(&buf[0],L_C3_GPRS_MAX-2,0xffff);
   \   00000522   EF4F               LDI     R20, 255
   \   00000524   EF5F               LDI     R21, 255
   \   00000526   E32A               LDI     R18, 58
   \   00000528   018E               MOVW    R17:R16, R29:R28
   \   0000052A   ........           CALL    crc_m1
   \   0000052E   AF0A               STD     Y+58, R16
   \   00000530   AF1B               STD     Y+59, R17
    584               WrArrayToFlesh(A_C3_GPRS, &buf[0],L_C3_GPRS_MAX,0,0);
   \   00000532   E070               LDI     R23, 0
   \   00000534   E060               LDI     R22, 0
   \   00000536   E34C               LDI     R20, 60
   \   00000538   E050               LDI     R21, 0
   \   0000053A   019E               MOVW    R19:R18, R29:R28
   \   0000053C   E400               LDI     R16, 64
   \   0000053E   E011               LDI     R17, 1
   \   00000540   ........           CALL    WrArrayToFlesh
    585              }
    586          return(0);  
   \                     ??check_memory_map_37:
   \   00000544   E000               LDI     R16, 0
   \                     ??check_memory_map_2:
   \   00000546   96EF               ADIW    R29:R28, 63
   \   00000548   9627               ADIW    R29:R28, 7
   \   0000054A   E0E4               LDI     R30, 4
   \   0000054C   ........           JMP     ?EPILOGUE_B4_L09
    587          }
    588          
    589          
    590          
    591          

   \                                 In segment CODE, align 2, keep-with-next
    592          void load_par_first(void)
   \                     load_par_first:
    593          {
    594          if (e_first_on==0xff)
   \   00000000   E020               LDI     R18, 0
   \   00000002   E030               LDI     R19, 0
   \   00000004   01A9               MOVW    R21:R20, R19:R18
   \   00000006   ........           CALL    __eeget8_16
   \   0000000A   3F0F               CPI     R16, 255
   \   0000000C   F481               BRNE    ??load_par_first_0
    595                {
    596                __watchdog_reset();
   \   0000000E   95A8               WDR
    597                WrArrayToFlesh(BEG_BUF_LOG,0,(L_LOG*6),0x01,0x00);
   \   00000010   E070               LDI     R23, 0
   \   00000012   E061               LDI     R22, 1
   \   00000014   EF40               LDI     R20, 240
   \   00000016   E050               LDI     R21, 0
   \   00000018   EF04               LDI     R16, 244
   \   0000001A   E011               LDI     R17, 1
   \   0000001C   ........           CALL    WrArrayToFlesh
    598                __watchdog_reset();    
   \   00000020   95A8               WDR
    599                e_first_on=0;    
   \   00000022   E000               LDI     R16, 0
   \   00000024   E020               LDI     R18, 0
   \   00000026   E030               LDI     R19, 0
   \   00000028   01A9               MOVW    R21:R20, R19:R18
   \   0000002A   ........           CALL    __eeput8_16
    600                }
    601           if(e_debug>3)e_debug=RG_WORK; //dobavka
   \                     ??load_par_first_0:
   \   0000002E   E023               LDI     R18, 3
   \   00000030   01A9               MOVW    R21:R20, R19:R18
   \   00000032   ........           CALL    __eeget8_16
   \   00000036   3004               CPI     R16, 4
   \   00000038   F020               BRCS    ??load_par_first_1
   \   0000003A   E000               LDI     R16, 0
   \   0000003C   01A9               MOVW    R21:R20, R19:R18
   \   0000003E   ........           CALL    __eeput8_16
    602           Regim=e_debug;
   \                     ??load_par_first_1:
   \   00000042   01A9               MOVW    R21:R20, R19:R18
   \   00000044   ........           CALL    __eeget8_16
   \   00000048   9300....           STS     Regim, R16
    603          }
   \   0000004C   9508               RET
    604          
    605          
    606          
    607          

   \                                 In segment CODE, align 2, keep-with-next
    608          unsigned char check_keys(void)
   \                     check_keys:
    609          {
   \   00000000   ........           CALL    ?PROLOGUE4_L09
    610          /*unsigned char i,buf[11];
    611          
    612          
    613          RdFromFleshToArr(A_KEYS,&buf[0],L_KEYS);
    614          
    615          if(*(unsigned int*)&buf[L_KEYS-2]==crc_m1(&buf[0],L_KEYS-2,0xffff))
    616           {
    617            for(i=0;i<L_KEYS;i++) keys[i]=buf[i];//çŕăđóçęŕ ęëţ÷ĺé â ěŕńńčâ ęëţ÷ĺé  
    618            return(0);
    619           }
    620           
    621          else return(1);
    622          */
    623          
    624          RdFromFleshToArr(A_KEYS,&keys[0],L_KEYS);
   \   00000004   ....               LDI     R26, LOW(keys)
   \   00000006   ....               LDI     R27, (keys) >> 8
   \   00000008   E04A               LDI     R20, 10
   \   0000000A   E050               LDI     R21, 0
   \   0000000C   019D               MOVW    R19:R18, R27:R26
   \   0000000E   E300               LDI     R16, 48
   \   00000010   E715               LDI     R17, 117
   \   00000012   ........           CALL    RdFromFleshToArr
    625          if(*(unsigned int*)&keys[L_KEYS-2]!=crc_m1(&keys[0],L_KEYS-2,0xffff))return(1);
   \   00000016   9618               ADIW    R27:R26, 8
   \   00000018   918D               LD      R24, X+
   \   0000001A   919C               LD      R25, X
   \   0000001C   9719               SBIW    R27:R26, 9
   \   0000001E   EF4F               LDI     R20, 255
   \   00000020   EF5F               LDI     R21, 255
   \   00000022   E028               LDI     R18, 8
   \   00000024   E030               LDI     R19, 0
   \   00000026   018D               MOVW    R17:R16, R27:R26
   \   00000028   ........           CALL    crc_m1
   \   0000002C   1780               CP      R24, R16
   \   0000002E   0791               CPC     R25, R17
   \   00000030   F011               BREQ    ??check_keys_0
   \   00000032   E001               LDI     R16, 1
   \   00000034   C001               RJMP    ??check_keys_1
    626          return(0);
   \                     ??check_keys_0:
   \   00000036   E000               LDI     R16, 0
   \                     ??check_keys_1:
   \   00000038   E0E4               LDI     R30, 4
   \   0000003A   ........           JMP     ?EPILOGUE_B4_L09
    627          }
    628          
    629          
    630          
    631          
    632          ///đŕáîňŕ ń ňĺđěčíŕëîěđŕáîňŕ ń ňĺđěčíŕëîěđŕáîňŕ ń ňĺđěčíŕëîěđŕáîňŕ ń ňĺđěčíŕëîěŕáîňŕ ń ňĺđěčíŕëîěđŕáîňŕ ń ňĺđěčíŕëîěđŕáîňŕ ń ňĺđěčíŕëîěđŕáîňŕ ń ňĺđěčíŕëîě
    633          

   \                                 In segment CODE, align 2, keep-with-next
    634          void    mov_massiv (char size, char *p)
   \                     mov_massiv:
    635                {     
   \   00000000   ........           CALL    ?PROLOGUE4_L09
   \   00000004   2F80               MOV     R24, R16
   \   00000006   01D9               MOVW    R27:R26, R19:R18
   \   00000008   C003               RJMP    ??mov_massiv_0
    636                 while(size--) s_port(*p++);
   \                     ??mov_massiv_1:
   \   0000000A   910D               LD      R16, X+
   \   0000000C   ........           CALL    s_port
   \                     ??mov_massiv_0:
   \   00000010   2F08               MOV     R16, R24
   \   00000012   958A               DEC     R24
   \   00000014   2300               TST     R16
   \   00000016   F7C9               BRNE    ??mov_massiv_1
    637                } 
   \   00000018   E0E4               LDI     R30, 4
   \   0000001A   ........           JMP     ?EPILOGUE_B4_L09
    638           
    639          

   \                                 In segment CODE, align 2, keep-with-next
    640           void read_menu(unsigned char index_menu)
   \                     read_menu:
    641               {
   \   00000000   ........           CALL    ?PROLOGUE4_L09
   \   00000004   97EF               SBIW    R29:R28, 63
   \   00000006   972F               SBIW    R29:R28, 15
   \   00000008   2F80               MOV     R24, R16
    642             char massiv[8];
    643             unsigned char buf[70];  
    644             
    645             unsigned char i,k; 
    646              
    647             
    648             memset(massiv,0,8); 
   \   0000000A   E048               LDI     R20, 8
   \   0000000C   E050               LDI     R21, 0
   \   0000000E   E020               LDI     R18, 0
   \   00000010   E030               LDI     R19, 0
   \   00000012   018E               MOVW    R17:R16, R29:R28
   \   00000014   ........           CALL    memset
    649                  
    650                  
    651               switch (index_menu) 
   \   00000018   ....               LDI     R26, LOW(real_time)
   \   0000001A   ....               LDI     R27, (real_time) >> 8
   \   0000001C   2F08               MOV     R16, R24
   \   0000001E   ....               LDI     R30, LOW(`?<Jumptable for read_menu>_0`)
   \   00000020   ....               LDI     R31, (`?<Jumptable for read_menu>_0`) >> 16
   \   00000022   BFFB               OUT     0x3B, R31
   \   00000024   ....               LDI     R31, HIGH(`?<Jumptable for read_menu>_0`)
   \   00000026   ........           JMP     ?CV_SWITCH_L06
    652                  
    653                  {
    654                  case 0:
    655                                        
    656                  menu_beg:
    657                         mov_lf();                                   
   \                     ??read_menu_0:
   \   0000002A   ........           CALL    mov_lf
    658                         mov_s ( sizeof(versia),versia);                              
   \   0000002E   ....               LDI     R18, LOW((ozu_vers + 14))
   \   00000030   ....               LDI     R19, HIGH((ozu_vers + 14))
   \                     ??read_menu_1:
   \   00000032   E00E               LDI     R16, 14
   \                     ??read_menu_2:
   \   00000034   ........           CALL    mov_s
   \   00000038   C081               RJMP    ??read_menu_3
    659                         mov_lf(); 
    660                         s_port('>');      
    661                         break;                  
    662                  case 1: 
    663                         mov_lf();                                   
   \                     ??read_menu_4:
   \   0000003A   ........           CALL    mov_lf
    664                         mov_s ( sizeof(map_vers),map_vers);                              
   \   0000003E   ....               LDI     R18, LOW(map_vers)
   \   00000040   ....               LDI     R19, (map_vers) >> 8
   \   00000042   CFF7               RJMP    ??read_menu_1
    665                         mov_lf(); 
    666                         s_port('>');  
    667                         break;  
    668                  case 2: 
    669                         mov_lf();                                   
   \                     ??read_menu_5:
   \   00000044   ........           CALL    mov_lf
    670                         mov_s ( sizeof(ozu_vers),ozu_vers);                              
   \   00000048   ....               LDI     R18, LOW(ozu_vers)
   \   0000004A   ....               LDI     R19, (ozu_vers) >> 8
   \   0000004C   CFF2               RJMP    ??read_menu_1
    671                         mov_lf(); 
    672                         s_port('>');  
    673                         break;
    674                         
    675                  case 3:        
    676                         
    677                         RdFromFleshToArr(A_C_GPRS,&buf[0],L_C_GPRS_MAX);
   \                     ??read_menu_6:
   \   0000004E   E34C               LDI     R20, 60
   \   00000050   E050               LDI     R21, 0
   \   00000052   019E               MOVW    R19:R18, R29:R28
   \   00000054   5F28               SUBI    R18, 248
   \   00000056   4F3F               SBCI    R19, 255
   \   00000058   E104               LDI     R16, 20
   \   0000005A   E010               LDI     R17, 0
   \   0000005C   ........           CALL    RdFromFleshToArr
    678                         mov_lf();
   \   00000060   ........           CALL    mov_lf
    679                         s_port('B');
   \   00000064   E402               LDI     R16, 66
   \                     ??read_menu_7:
   \   00000066   ........           CALL    s_port
    680                         s_port(':');
   \   0000006A   E30A               LDI     R16, 58
   \   0000006C   ........           CALL    s_port
    681          povt_1:            
    682                         
    683                         
    684                         if((buf[0]!=0)&&(buf[0]<31))
   \   00000070   8508               LDD     R16, Y+8
   \   00000072   2300               TST     R16
   \   00000074   F409               BRNE    $+2+2
   \   00000076   C053               RJMP    ??read_menu_8
   \   00000078   8508               LDD     R16, Y+8
   \   0000007A   310F               CPI     R16, 31
   \   0000007C   F008               BRCS    $+2+2
   \   0000007E   C04F               RJMP    ??read_menu_8
    685                         {
    686                          s_port('"');
   \   00000080   E202               LDI     R16, 34
   \   00000082   ........           CALL    s_port
    687                          i=0;
   \   00000086   E080               LDI     R24, 0
    688                          k=0;
   \   00000088   C009               RJMP    ??read_menu_9
    689                          while(i<buf[k]){s_port(buf[k+1+i]);i++;}   
   \                     ??read_menu_10:
   \   0000008A   01FE               MOVW    R31:R30, R29:R28
   \   0000008C   9638               ADIW    R31:R30, 8
   \   0000008E   E090               LDI     R25, 0
   \   00000090   0FE8               ADD     R30, R24
   \   00000092   1FF9               ADC     R31, R25
   \   00000094   8101               LDD     R16, Z+1
   \   00000096   ........           CALL    s_port
   \   0000009A   9583               INC     R24
   \                     ??read_menu_9:
   \   0000009C   8508               LDD     R16, Y+8
   \   0000009E   1780               CP      R24, R16
   \   000000A0   F3A0               BRCS    ??read_menu_10
    690                          s_port('"');
   \   000000A2   E202               LDI     R16, 34
   \   000000A4   ........           CALL    s_port
    691                         
    692                          s_port('"');           
   \   000000A8   E202               LDI     R16, 34
   \   000000AA   ........           CALL    s_port
    693                          k=k+i+1;
   \   000000AE   9583               INC     R24
   \   000000B0   2FA8               MOV     R26, R24
    694                          i=0; 
   \   000000B2   E080               LDI     R24, 0
   \   000000B4   C00C               RJMP    ??read_menu_11
    695                          while(i<buf[k]){s_port(buf[k+1+i]);i++;} 
   \                     ??read_menu_12:
   \   000000B6   01FE               MOVW    R31:R30, R29:R28
   \   000000B8   9638               ADIW    R31:R30, 8
   \   000000BA   2F08               MOV     R16, R24
   \   000000BC   E010               LDI     R17, 0
   \   000000BE   0F0A               ADD     R16, R26
   \   000000C0   1F13               ADC     R17, R19
   \   000000C2   0FE0               ADD     R30, R16
   \   000000C4   1FF1               ADC     R31, R17
   \   000000C6   8101               LDD     R16, Z+1
   \   000000C8   ........           CALL    s_port
   \   000000CC   9583               INC     R24
   \                     ??read_menu_11:
   \   000000CE   E030               LDI     R19, 0
   \   000000D0   01FE               MOVW    R31:R30, R29:R28
   \   000000D2   9638               ADIW    R31:R30, 8
   \   000000D4   0FEA               ADD     R30, R26
   \   000000D6   1FF3               ADC     R31, R19
   \   000000D8   8100               LD      R16, Z
   \   000000DA   1780               CP      R24, R16
   \   000000DC   F360               BRCS    ??read_menu_12
    696                          s_port('"');
   \   000000DE   E202               LDI     R16, 34
   \   000000E0   ........           CALL    s_port
    697                   
    698                          s_port('"');
   \   000000E4   E202               LDI     R16, 34
   \   000000E6   ........           CALL    s_port
    699                          k=k+i+1;
   \   000000EA   9583               INC     R24
   \   000000EC   0FA8               ADD     R26, R24
    700                          i=0; 
   \   000000EE   E080               LDI     R24, 0
   \   000000F0   C00C               RJMP    ??read_menu_13
    701                          while(i<buf[k]){s_port(buf[k+1+i]);i++;}
   \                     ??read_menu_14:
   \   000000F2   01FE               MOVW    R31:R30, R29:R28
   \   000000F4   9638               ADIW    R31:R30, 8
   \   000000F6   2F08               MOV     R16, R24
   \   000000F8   E010               LDI     R17, 0
   \   000000FA   0F0A               ADD     R16, R26
   \   000000FC   1F13               ADC     R17, R19
   \   000000FE   0FE0               ADD     R30, R16
   \   00000100   1FF1               ADC     R31, R17
   \   00000102   8101               LDD     R16, Z+1
   \   00000104   ........           CALL    s_port
   \   00000108   9583               INC     R24
   \                     ??read_menu_13:
   \   0000010A   E030               LDI     R19, 0
   \   0000010C   01FE               MOVW    R31:R30, R29:R28
   \   0000010E   9638               ADIW    R31:R30, 8
   \   00000110   0FEA               ADD     R30, R26
   \   00000112   1FF3               ADC     R31, R19
   \   00000114   8100               LD      R16, Z
   \   00000116   1780               CP      R24, R16
   \   00000118   F360               BRCS    ??read_menu_14
    702                          s_port('"');
   \   0000011A   E202               LDI     R16, 34
   \   0000011C   C00D               RJMP    ??read_menu_15
    703                          }else 
    704                         {
    705                         s_port('-');
   \                     ??read_menu_8:
   \   0000011E   E20D               LDI     R16, 45
   \   00000120   ........           CALL    s_port
    706                         s_port('-');
   \   00000124   E20D               LDI     R16, 45
   \   00000126   ........           CALL    s_port
    707                         s_port('-');
   \   0000012A   E20D               LDI     R16, 45
   \   0000012C   ........           CALL    s_port
    708                         s_port('-');
   \   00000130   E20D               LDI     R16, 45
   \   00000132   ........           CALL    s_port
    709                         s_port('-');
   \   00000136   E20D               LDI     R16, 45
   \                     ??read_menu_15:
   \   00000138   ........           CALL    s_port
    710                         }
    711                        
    712           
    713                         mov_lf(); 
   \                     ??read_menu_3:
   \   0000013C   ........           CALL    mov_lf
    714                         s_port('>');
   \   00000140   E30E               LDI     R16, 62
   \   00000142   C260               RJMP    ??read_menu_16
    715                         break;        
    716           
    717                   case 4:        
    718                         
    719                         RdFromFleshToArr(A_CR_GPRS,&buf[0],L_CR_GPRS_MAX);
   \                     ??read_menu_17:
   \   00000144   E34C               LDI     R20, 60
   \   00000146   E050               LDI     R21, 0
   \   00000148   019E               MOVW    R19:R18, R29:R28
   \   0000014A   5F28               SUBI    R18, 248
   \   0000014C   4F3F               SBCI    R19, 255
   \   0000014E   E500               LDI     R16, 80
   \   00000150   E010               LDI     R17, 0
   \   00000152   ........           CALL    RdFromFleshToArr
    720                         mov_lf();
   \   00000156   ........           CALL    mov_lf
    721                         s_port('R');
   \   0000015A   E502               LDI     R16, 82
   \   0000015C   CF84               RJMP    ??read_menu_7
    722                         s_port(':');
    723                         goto povt_1;
    724                         
    725                   case 5:    
    726            
    727                         RdFromFleshToArr(A_IP,&buf[0],4);
   \                     ??read_menu_18:
   \   0000015E   E044               LDI     R20, 4
   \   00000160   E050               LDI     R21, 0
   \   00000162   019E               MOVW    R19:R18, R29:R28
   \   00000164   5F28               SUBI    R18, 248
   \   00000166   4F3F               SBCI    R19, 255
   \   00000168   E80C               LDI     R16, 140
   \   0000016A   E010               LDI     R17, 0
   \   0000016C   ........           CALL    RdFromFleshToArr
    728                         mov_lf();        
   \   00000170   ........           CALL    mov_lf
    729                                        
    730                         sprintf(massiv,"%d\0",buf[0]);
   \   00000174   8508               LDD     R16, Y+8
   \   00000176   E010               LDI     R17, 0
   \   00000178   931A               ST      -Y, R17
   \   0000017A   930A               ST      -Y, R16
   \   0000017C   ....               LDI     R18, LOW((`?<Constant "%u\\000">` + 4))
   \   0000017E   ....               LDI     R19, HIGH((`?<Constant "%u\\000">` + 4))
   \   00000180   018E               MOVW    R17:R16, R29:R28
   \   00000182   5F0E               SUBI    R16, 254
   \   00000184   4F1F               SBCI    R17, 255
   \   00000186   ........           CALL    sprintf
   \   0000018A   9622               ADIW    R29:R28, 2
    731                         mov_massiv(strlen(massiv),massiv); 
   \   0000018C   018E               MOVW    R17:R16, R29:R28
   \   0000018E   ........           CALL    strlen
   \   00000192   019E               MOVW    R19:R18, R29:R28
   \   00000194   ....               RCALL   mov_massiv
    732                         s_port('.');     
   \   00000196   E20E               LDI     R16, 46
   \   00000198   ........           CALL    s_port
    733                         sprintf(massiv,"%d\0",buf[1]);
   \   0000019C   8509               LDD     R16, Y+9
   \   0000019E   E010               LDI     R17, 0
   \   000001A0   931A               ST      -Y, R17
   \   000001A2   930A               ST      -Y, R16
   \   000001A4   ....               LDI     R18, LOW((`?<Constant "%u\\000">` + 4))
   \   000001A6   ....               LDI     R19, HIGH((`?<Constant "%u\\000">` + 4))
   \   000001A8   018E               MOVW    R17:R16, R29:R28
   \   000001AA   5F0E               SUBI    R16, 254
   \   000001AC   4F1F               SBCI    R17, 255
   \   000001AE   ........           CALL    sprintf
   \   000001B2   9622               ADIW    R29:R28, 2
    734                         mov_massiv(strlen(massiv),massiv); 
   \   000001B4   018E               MOVW    R17:R16, R29:R28
   \   000001B6   ........           CALL    strlen
   \   000001BA   019E               MOVW    R19:R18, R29:R28
   \   000001BC   ....               RCALL   mov_massiv
    735                         s_port('.');
   \   000001BE   E20E               LDI     R16, 46
   \   000001C0   ........           CALL    s_port
    736                         sprintf(massiv,"%d\0",buf[2]);
   \   000001C4   850A               LDD     R16, Y+10
   \   000001C6   E010               LDI     R17, 0
   \   000001C8   931A               ST      -Y, R17
   \   000001CA   930A               ST      -Y, R16
   \   000001CC   ....               LDI     R18, LOW((`?<Constant "%u\\000">` + 4))
   \   000001CE   ....               LDI     R19, HIGH((`?<Constant "%u\\000">` + 4))
   \   000001D0   018E               MOVW    R17:R16, R29:R28
   \   000001D2   5F0E               SUBI    R16, 254
   \   000001D4   4F1F               SBCI    R17, 255
   \   000001D6   ........           CALL    sprintf
   \   000001DA   9622               ADIW    R29:R28, 2
    737                         mov_massiv(strlen(massiv),massiv); 
   \   000001DC   018E               MOVW    R17:R16, R29:R28
   \   000001DE   ........           CALL    strlen
   \   000001E2   019E               MOVW    R19:R18, R29:R28
   \   000001E4   ....               RCALL   mov_massiv
    738                         s_port('.');
   \   000001E6   E20E               LDI     R16, 46
   \   000001E8   ........           CALL    s_port
    739                         sprintf(massiv,"%d\0",buf[3]);
   \   000001EC   850B               LDD     R16, Y+11
   \                     ??read_menu_19:
   \   000001EE   E010               LDI     R17, 0
   \   000001F0   931A               ST      -Y, R17
   \   000001F2   930A               ST      -Y, R16
   \   000001F4   ....               LDI     R18, LOW((`?<Constant "%u\\000">` + 4))
   \   000001F6   ....               LDI     R19, HIGH((`?<Constant "%u\\000">` + 4))
   \                     ??read_menu_20:
   \   000001F8   018E               MOVW    R17:R16, R29:R28
   \   000001FA   5F0E               SUBI    R16, 254
   \   000001FC   4F1F               SBCI    R17, 255
   \   000001FE   ........           CALL    sprintf
   \   00000202   9622               ADIW    R29:R28, 2
    740                         mov_massiv(strlen(massiv),massiv); 
   \   00000204   018E               MOVW    R17:R16, R29:R28
   \   00000206   ........           CALL    strlen
   \   0000020A   019E               MOVW    R19:R18, R29:R28
   \   0000020C   ....               RCALL   mov_massiv
   \   0000020E   CF96               RJMP    ??read_menu_3
    741                         
    742                         mov_lf(); 
    743                         s_port('>');
    744                         break;     
    745               
    746                case 6:    
    747            
    748                         RdFromFleshToArr(A_PORT,&buf[0],2);
   \                     ??read_menu_21:
   \   00000210   E042               LDI     R20, 2
   \   00000212   E050               LDI     R21, 0
   \   00000214   019E               MOVW    R19:R18, R29:R28
   \   00000216   5F28               SUBI    R18, 248
   \   00000218   4F3F               SBCI    R19, 255
   \   0000021A   E900               LDI     R16, 144
   \   0000021C   E010               LDI     R17, 0
   \   0000021E   ........           CALL    RdFromFleshToArr
    749                         mov_lf();        
   \   00000222   ........           CALL    mov_lf
    750                         mov_s ( sizeof(zp_udp),zp_udp);
   \   00000226   ....               LDI     R18, LOW((ozu_vers + 28))
   \   00000228   ....               LDI     R19, HIGH((ozu_vers + 28))
   \                     ??read_menu_22:
   \   0000022A   E009               LDI     R16, 9
   \                     ??read_menu_23:
   \   0000022C   ........           CALL    mov_s
    751                         sprintf(massiv,"%u\0",*(unsigned int*)&buf[0]);         
   \   00000230   8508               LDD     R16, Y+8
   \   00000232   8519               LDD     R17, Y+9
   \                     ??read_menu_24:
   \   00000234   931A               ST      -Y, R17
   \   00000236   930A               ST      -Y, R16
   \   00000238   ....               LDI     R18, LOW(`?<Constant "%u\\000">`)
   \   0000023A   ....               LDI     R19, (`?<Constant "%u\\000">`) >> 8
   \   0000023C   CFDD               RJMP    ??read_menu_20
    752                         mov_massiv(strlen(massiv),massiv);      
    753                         mov_lf(); 
    754                         s_port('>');
    755                         break; 
    756                
    757               case 7:      
    758                         RdFromFleshToArr(A_NUM,&buf[0],2);
   \                     ??read_menu_25:
   \   0000023E   E042               LDI     R20, 2
   \   00000240   E050               LDI     R21, 0
   \   00000242   019E               MOVW    R19:R18, R29:R28
   \   00000244   5F28               SUBI    R18, 248
   \   00000246   4F3F               SBCI    R19, 255
   \   00000248   E902               LDI     R16, 146
   \   0000024A   E010               LDI     R17, 0
   \   0000024C   ........           CALL    RdFromFleshToArr
    759                         mov_lf();        
   \   00000250   ........           CALL    mov_lf
    760                         mov_s ( sizeof(zp_num),zp_num);
   \   00000254   ....               LDI     R18, LOW((ozu_vers + 37))
   \   00000256   ....               LDI     R19, HIGH((ozu_vers + 37))
   \                     ??read_menu_26:
   \   00000258   E005               LDI     R16, 5
   \   0000025A   CFE8               RJMP    ??read_menu_23
    761                         sprintf(massiv,"%u\0",*(unsigned int*)&buf[0]);
    762                         mov_massiv(strlen(massiv),massiv);      
    763                         mov_lf(); 
    764                         s_port('>');
    765                         break;               
    766          
    767            
    768                  
    769               case 8:        
    770                         RdFromFleshToArr(A_NAT,&buf[0],2);
   \                     ??read_menu_27:
   \   0000025C   E042               LDI     R20, 2
   \   0000025E   E050               LDI     R21, 0
   \   00000260   019E               MOVW    R19:R18, R29:R28
   \   00000262   5F28               SUBI    R18, 248
   \   00000264   4F3F               SBCI    R19, 255
   \   00000266   E906               LDI     R16, 150
   \   00000268   E010               LDI     R17, 0
   \   0000026A   ........           CALL    RdFromFleshToArr
    771                         mov_lf();        
   \   0000026E   ........           CALL    mov_lf
    772                         mov_s ( sizeof(zp_nat),zp_nat);
   \   00000272   ....               LDI     R18, LOW((ozu_vers + 42))
   \   00000274   ....               LDI     R19, HIGH((ozu_vers + 42))
   \                     ??read_menu_28:
   \   00000276   E00A               LDI     R16, 10
   \   00000278   CFD9               RJMP    ??read_menu_23
    773                         sprintf(massiv,"%u\0",*(unsigned int*)&buf[0]);
    774                         mov_massiv(strlen(massiv),massiv);      
    775                         mov_lf(); 
    776                         s_port('>');
    777                         break;        
    778                case 9:        
    779                         RdFromFleshToArr(A_NAT_R,&buf[0],2);
   \                     ??read_menu_29:
   \   0000027A   E042               LDI     R20, 2
   \   0000027C   E050               LDI     R21, 0
   \   0000027E   019E               MOVW    R19:R18, R29:R28
   \   00000280   5F28               SUBI    R18, 248
   \   00000282   4F3F               SBCI    R19, 255
   \   00000284   EA00               LDI     R16, 160
   \   00000286   E010               LDI     R17, 0
   \   00000288   ........           CALL    RdFromFleshToArr
    780                         mov_lf();        
   \   0000028C   ........           CALL    mov_lf
    781                         mov_s ( sizeof(zp_nat_r),zp_nat_r);
   \   00000290   ....               LDI     R18, LOW((ozu_vers + 52))
   \   00000292   ....               LDI     R19, HIGH((ozu_vers + 52))
   \   00000294   CFF0               RJMP    ??read_menu_28
    782                         sprintf(massiv,"%u\0",*(unsigned int*)&buf[0]);
    783                         mov_massiv(strlen(massiv),massiv);      
    784                         mov_lf(); 
    785                         s_port('>');
    786                         break;    
    787                         
    788                         
    789                   case 10:      
    790                         RdFromFleshToArr(A_CCH,&buf[0],2);
   \                     ??read_menu_30:
   \   00000296   E042               LDI     R20, 2
   \   00000298   E050               LDI     R21, 0
   \   0000029A   019E               MOVW    R19:R18, R29:R28
   \   0000029C   5F28               SUBI    R18, 248
   \   0000029E   4F3F               SBCI    R19, 255
   \   000002A0   E908               LDI     R16, 152
   \   000002A2   E010               LDI     R17, 0
   \   000002A4   ........           CALL    RdFromFleshToArr
    791                         mov_lf();        
   \   000002A8   ........           CALL    mov_lf
    792                         mov_s ( sizeof(zp_link),zp_link);
   \   000002AC   ....               LDI     R18, LOW((ozu_vers + 62))
   \   000002AE   ....               LDI     R19, HIGH((ozu_vers + 62))
   \                     ??read_menu_31:
   \   000002B0   E008               LDI     R16, 8
   \   000002B2   CFBC               RJMP    ??read_menu_23
    793                         sprintf(massiv,"%u\0",*(unsigned int*)&buf[0]);
    794                         mov_massiv(strlen(massiv),massiv);      
    795                         mov_lf(); 
    796                         s_port('>');
    797                         break; 
    798                 case 11:      
    799                         RdFromFleshToArr(A_TM_CH,&buf[0],2);
   \                     ??read_menu_32:
   \   000002B4   E042               LDI     R20, 2
   \   000002B6   E050               LDI     R21, 0
   \   000002B8   019E               MOVW    R19:R18, R29:R28
   \   000002BA   5F28               SUBI    R18, 248
   \   000002BC   4F3F               SBCI    R19, 255
   \   000002BE   E90A               LDI     R16, 154
   \   000002C0   E010               LDI     R17, 0
   \   000002C2   ........           CALL    RdFromFleshToArr
    800                         mov_lf();        
   \   000002C6   ........           CALL    mov_lf
    801                         mov_s ( sizeof(zp_tm_link),zp_tm_link);
   \   000002CA   ....               LDI     R18, LOW((ozu_vers + 70))
   \   000002CC   ....               LDI     R19, HIGH((ozu_vers + 70))
   \   000002CE   CFF0               RJMP    ??read_menu_31
    802                         sprintf(massiv,"%u\0",*(unsigned int*)&buf[0]);
    803                         mov_massiv(strlen(massiv),massiv);      
    804                         mov_lf(); 
    805                         s_port('>');
    806                         break; 
    807                 
    808                       //!!!!!!!!!!!!!!! dobavka!!!!!!!!!!        
    809                 case 12:      
    810                         RdFromFleshToArr(A_TM_NO_LINK,&buf[0],2);
   \                     ??read_menu_33:
   \   000002D0   E042               LDI     R20, 2
   \   000002D2   E050               LDI     R21, 0
   \   000002D4   019E               MOVW    R19:R18, R29:R28
   \   000002D6   5F28               SUBI    R18, 248
   \   000002D8   4F3F               SBCI    R19, 255
   \   000002DA   E90C               LDI     R16, 156
   \   000002DC   E010               LDI     R17, 0
   \   000002DE   ........           CALL    RdFromFleshToArr
    811                         mov_lf();        
   \   000002E2   ........           CALL    mov_lf
    812                         mov_s ( sizeof(zp_tm_no_link),zp_tm_no_link);
   \   000002E6   ....               LDI     R18, LOW((ozu_vers + 78))
   \   000002E8   ....               LDI     R19, HIGH((ozu_vers + 78))
   \   000002EA   CFE2               RJMP    ??read_menu_31
    813                         sprintf(massiv,"%u\0",*(unsigned int*)&buf[0]);
    814                         mov_massiv(strlen(massiv),massiv);      
    815                         mov_lf(); 
    816                         s_port('>');
    817                         break; 
    818                         
    819                         
    820                   case 13:      
    821                         RdFromFleshToArr(A_TM_LINK_RES,&buf[0],2);
   \                     ??read_menu_34:
   \   000002EC   E042               LDI     R20, 2
   \   000002EE   E050               LDI     R21, 0
   \   000002F0   019E               MOVW    R19:R18, R29:R28
   \   000002F2   5F28               SUBI    R18, 248
   \   000002F4   4F3F               SBCI    R19, 255
   \   000002F6   E90E               LDI     R16, 158
   \   000002F8   E010               LDI     R17, 0
   \   000002FA   ........           CALL    RdFromFleshToArr
    822                         mov_lf();        
   \   000002FE   ........           CALL    mov_lf
    823                         mov_s ( sizeof(zp_tm_link_res),zp_tm_link_res);
   \   00000302   ....               LDI     R18, LOW((ozu_vers + 86))
   \   00000304   ....               LDI     R19, HIGH((ozu_vers + 86))
   \   00000306   CFD4               RJMP    ??read_menu_31
    824                         sprintf(massiv,"%u\0",*(unsigned int*)&buf[0]);
    825                         mov_massiv(strlen(massiv),massiv);      
    826                         mov_lf(); 
    827                         s_port('>');
    828                         break;        
    829                  //EEEEEEEEEEEEEEEEE dobavka                
    830                         
    831                         
    832                         
    833                 case 14: 
    834                            RdFromFleshToArr(A_DES_SEQ,&buf[0],1);
   \                     ??read_menu_35:
   \   00000308   E041               LDI     R20, 1
   \   0000030A   E050               LDI     R21, 0
   \   0000030C   019E               MOVW    R19:R18, R29:R28
   \   0000030E   5F28               SUBI    R18, 248
   \   00000310   4F3F               SBCI    R19, 255
   \   00000312   EA04               LDI     R16, 164
   \   00000314   E010               LDI     R17, 0
   \   00000316   ........           CALL    RdFromFleshToArr
    835                            mov_lf(); 
   \   0000031A   ........           CALL    mov_lf
    836                            mov_s ( sizeof(zp_des_seq),zp_des_seq);   
   \   0000031E   ....               LDI     R18, LOW((ozu_vers + 118))
   \   00000320   ....               LDI     R19, HIGH((ozu_vers + 118))
   \   00000322   E009               LDI     R16, 9
   \   00000324   ........           CALL    mov_s
    837                            if(buf[0]==1)
   \   00000328   8508               LDD     R16, Y+8
   \   0000032A   3001               CPI     R16, 1
   \   0000032C   E60F               LDI     R16, 111
   \   0000032E   F421               BRNE    ??read_menu_36
    838                              {
    839                              s_port('o');
   \   00000330   ........           CALL    s_port
    840                              s_port('n');
   \   00000334   E60E               LDI     R16, 110
   \   00000336   CF00               RJMP    ??read_menu_15
    841                              } 
    842                              else
    843                               { 
    844                                  s_port('o');
   \                     ??read_menu_36:
   \   00000338   ........           CALL    s_port
    845                                  s_port('f');
   \   0000033C   E606               LDI     R16, 102
   \   0000033E   ........           CALL    s_port
    846                                  s_port('f');
   \   00000342   E606               LDI     R16, 102
   \   00000344   CEF9               RJMP    ??read_menu_15
    847                               }
    848                            mov_lf(); 
    849                            s_port('>');                 
    850                            break;
    851           
    852                 case 15:     
    853             
    854                         RdFromFleshToArr(A_NUM_CL,&buf[0],2);
   \                     ??read_menu_37:
   \   00000346   E042               LDI     R20, 2
   \   00000348   E050               LDI     R21, 0
   \   0000034A   019E               MOVW    R19:R18, R29:R28
   \   0000034C   5F28               SUBI    R18, 248
   \   0000034E   4F3F               SBCI    R19, 255
   \   00000350   EA05               LDI     R16, 165
   \   00000352   E010               LDI     R17, 0
   \   00000354   ........           CALL    RdFromFleshToArr
    855                         mov_lf();        
   \   00000358   ........           CALL    mov_lf
    856                         mov_s ( sizeof(zp_num_seq),zp_num_seq);
   \   0000035C   ....               LDI     R18, LOW((ozu_vers + 110))
   \   0000035E   ....               LDI     R19, HIGH((ozu_vers + 110))
   \   00000360   CFA7               RJMP    ??read_menu_31
    857                         sprintf(massiv,"%u\0",*(unsigned int*)&buf[0]);
    858                         mov_massiv(strlen(massiv),massiv);      
    859                         mov_lf(); 
    860                         s_port('>');
    861                         break; 
    862                
    863                
    864                case 16:     
    865            
    866                         RdFromFleshToArr(A_TM_VZ,&buf[0],2);
   \                     ??read_menu_38:
   \   00000362   E042               LDI     R20, 2
   \   00000364   E050               LDI     R21, 0
   \   00000366   019E               MOVW    R19:R18, R29:R28
   \   00000368   5F28               SUBI    R18, 248
   \   0000036A   4F3F               SBCI    R19, 255
   \   0000036C   EA07               LDI     R16, 167
   \   0000036E   E010               LDI     R17, 0
   \   00000370   ........           CALL    RdFromFleshToArr
    867                         mov_lf();        
   \   00000374   ........           CALL    mov_lf
    868                         mov_s ( sizeof(zp_tm_vz),zp_tm_vz);
   \   00000378   ....               LDI     R18, LOW((ozu_vers + 94))
   \   0000037A   ....               LDI     R19, HIGH((ozu_vers + 94))
   \   0000037C   CF56               RJMP    ??read_menu_22
    869                         sprintf(massiv,"%u\0",*(unsigned int*)&buf[0]);
    870                         mov_massiv(strlen(massiv),massiv);      
    871                         mov_lf(); 
    872                         s_port('>');
    873                         break; 
    874           
    875               case 17:     
    876            
    877                         RdFromFleshToArr(A_TM_CL,&buf[0],2);
   \                     ??read_menu_39:
   \   0000037E   E042               LDI     R20, 2
   \   00000380   E050               LDI     R21, 0
   \   00000382   019E               MOVW    R19:R18, R29:R28
   \   00000384   5F28               SUBI    R18, 248
   \   00000386   4F3F               SBCI    R19, 255
   \   00000388   EA09               LDI     R16, 169
   \   0000038A   E010               LDI     R17, 0
   \   0000038C   ........           CALL    RdFromFleshToArr
    878                         mov_lf();        
   \   00000390   ........           CALL    mov_lf
    879                         mov_s ( sizeof(zp_tm_cl),zp_tm_cl);
   \   00000394   ....               LDI     R18, LOW((ozu_vers + 103))
   \   00000396   ....               LDI     R19, HIGH((ozu_vers + 103))
   \   00000398   E007               LDI     R16, 7
   \   0000039A   CF48               RJMP    ??read_menu_23
    880                         sprintf(massiv,"%u\0",*(unsigned int*)&buf[0]);
    881                         mov_massiv(strlen(massiv),massiv);      
    882                         mov_lf(); 
    883                         s_port('>');
    884                         break; 
    885                         
    886               case 18:  RdFromFleshToArr(A_TP_TS,&buf[0],1);
   \                     ??read_menu_40:
   \   0000039C   E041               LDI     R20, 1
   \   0000039E   E050               LDI     R21, 0
   \   000003A0   019E               MOVW    R19:R18, R29:R28
   \   000003A2   5F28               SUBI    R18, 248
   \   000003A4   4F3F               SBCI    R19, 255
   \   000003A6   EA0B               LDI     R16, 171
   \   000003A8   E010               LDI     R17, 0
   \   000003AA   ........           CALL    RdFromFleshToArr
    887                         mov_lf();        
   \   000003AE   ........           CALL    mov_lf
    888                         mov_s ( sizeof(zp_type_tc1),zp_type_tc1);
   \   000003B2   ....               LDI     R18, LOW((ozu_vers + 127))
   \   000003B4   ....               LDI     R19, HIGH((ozu_vers + 127))
   \                     ??read_menu_41:
   \   000003B6   E00A               LDI     R16, 10
   \   000003B8   ........           CALL    mov_s
    889                         sprintf(massiv,"%u\0",*(unsigned char*)&buf[0]);
   \   000003BC   8508               LDD     R16, Y+8
   \   000003BE   E010               LDI     R17, 0
   \   000003C0   CF39               RJMP    ??read_menu_24
    890                         mov_massiv(strlen(massiv),massiv);      
    891                         mov_lf(); 
    892                         s_port('>');
    893                         break;
    894                 
    895              case 19:  RdFromFleshToArr(A_TP_TS+1,&buf[0],1);
   \                     ??read_menu_42:
   \   000003C2   E041               LDI     R20, 1
   \   000003C4   E050               LDI     R21, 0
   \   000003C6   019E               MOVW    R19:R18, R29:R28
   \   000003C8   5F28               SUBI    R18, 248
   \   000003CA   4F3F               SBCI    R19, 255
   \   000003CC   EA0C               LDI     R16, 172
   \   000003CE   E010               LDI     R17, 0
   \   000003D0   ........           CALL    RdFromFleshToArr
    896                         mov_lf();        
   \   000003D4   ........           CALL    mov_lf
    897                         mov_s ( sizeof(zp_type_tc2),zp_type_tc2);
   \   000003D8   ....               LDI     R18, LOW((ozu_vers + 137))
   \   000003DA   ....               LDI     R19, HIGH((ozu_vers + 137))
   \   000003DC   CFEC               RJMP    ??read_menu_41
    898                         sprintf(massiv,"%u\0",*(unsigned char*)&buf[0]);
    899                         mov_massiv(strlen(massiv),massiv);      
    900                         mov_lf(); 
    901                         s_port('>'); 
    902                         break;
    903                                  
    904           
    905              case 20: 
    906                     
    907                            buf[0]=e_debug;
   \                     ??read_menu_43:
   \   000003DE   E030               LDI     R19, 0
   \   000003E0   E043               LDI     R20, 3
   \   000003E2   E050               LDI     R21, 0
   \   000003E4   ........           CALL    __eeget8_16
   \   000003E8   8708               STD     Y+8, R16
    908                            buf[1]=0;
   \   000003EA   8739               STD     Y+9, R19
    909                            mov_lf(); 
   \   000003EC   ........           CALL    mov_lf
    910                            mov_s ( sizeof(zp_dbg),zp_dbg);
   \   000003F0   ....               LDI     R18, LOW((ozu_vers + 147))
   \   000003F2   ....               LDI     R19, HIGH((ozu_vers + 147))
   \   000003F4   CF31               RJMP    ??read_menu_26
    911                            sprintf(massiv,"%u\0",*(unsigned int*)&buf[0]);
    912                            mov_massiv(strlen(massiv),massiv); 
    913                            mov_lf(); 
    914                            s_port('>');                 
    915                            break;
    916                  
    917              
    918                
    919                case 21:      
    920                         RdFromFleshToArr(A_C1_GPRS,&buf[0],L_C1_GPRS_MAX);
   \                     ??read_menu_44:
   \   000003F6   E34C               LDI     R20, 60
   \   000003F8   E050               LDI     R21, 0
   \   000003FA   019E               MOVW    R19:R18, R29:R28
   \   000003FC   5F28               SUBI    R18, 248
   \   000003FE   4F3F               SBCI    R19, 255
   \   00000400   EC08               LDI     R16, 200
   \   00000402   E010               LDI     R17, 0
   \   00000404   ........           CALL    RdFromFleshToArr
    921                         mov_lf();
   \   00000408   ........           CALL    mov_lf
    922                         s_port('1');
   \   0000040C   E301               LDI     R16, 49
   \   0000040E   CE2B               RJMP    ??read_menu_7
    923                         s_port(':');
    924                         goto povt_1;
    925                                   
    926                  
    927                case 22:  
    928                         RdFromFleshToArr(A_C2_GPRS,&buf[0],L_C2_GPRS_MAX);
   \                     ??read_menu_45:
   \   00000410   E34C               LDI     R20, 60
   \   00000412   E050               LDI     R21, 0
   \   00000414   019E               MOVW    R19:R18, R29:R28
   \   00000416   5F28               SUBI    R18, 248
   \   00000418   4F3F               SBCI    R19, 255
   \   0000041A   E004               LDI     R16, 4
   \   0000041C   E011               LDI     R17, 1
   \   0000041E   ........           CALL    RdFromFleshToArr
    929                         mov_lf(); 
   \   00000422   ........           CALL    mov_lf
    930                         s_port('2');
   \   00000426   E302               LDI     R16, 50
   \   00000428   CE1E               RJMP    ??read_menu_7
    931                         s_port(':');   
    932                         goto povt_1;  
    933           
    934                case 23:      
    935                        RdFromFleshToArr(A_C3_GPRS,&buf[0],L_C3_GPRS_MAX);
   \                     ??read_menu_46:
   \   0000042A   E34C               LDI     R20, 60
   \   0000042C   E050               LDI     R21, 0
   \   0000042E   019E               MOVW    R19:R18, R29:R28
   \   00000430   5F28               SUBI    R18, 248
   \   00000432   4F3F               SBCI    R19, 255
   \   00000434   E400               LDI     R16, 64
   \   00000436   E011               LDI     R17, 1
   \   00000438   ........           CALL    RdFromFleshToArr
    936                        mov_lf();
   \   0000043C   ........           CALL    mov_lf
    937                        s_port('3');
   \   00000440   E303               LDI     R16, 51
   \   00000442   CE11               RJMP    ??read_menu_7
    938                        s_port(':');
    939                        goto povt_1; 
    940              
    941               case 24:
    942                          mov_lf();
   \                     ??read_menu_47:
   \   00000444   ........           CALL    mov_lf
    943                          mov_s ( sizeof(zp_ts1),zp_ts1);
   \   00000448   ....               LDI     R18, LOW((ozu_vers + 152))
   \   0000044A   ....               LDI     R19, HIGH((ozu_vers + 152))
   \   0000044C   E007               LDI     R16, 7
   \   0000044E   ........           CALL    mov_s
    944                          if(struct_tcc1.tek_pin==1)s_port('0');else s_port('1');
   \   00000452   ....               LDI     R30, LOW(struct_tcc1)
   \   00000454   ....               LDI     R31, (struct_tcc1) >> 8
   \   00000456   8100               LD      R16, Z
   \   00000458   FF00               SBRS    R16, 0
   \   0000045A   C002               RJMP    ??read_menu_48
   \   0000045C   E300               LDI     R16, 48
   \   0000045E   C001               RJMP    ??read_menu_49
   \                     ??read_menu_48:
   \   00000460   E301               LDI     R16, 49
   \                     ??read_menu_49:
   \   00000462   ........           CALL    s_port
    945                          if(struct_tcc2.tek_pin==1)s_port('0');else s_port('1');               
   \   00000466   ....               LDI     R30, LOW(struct_tcc2)
   \   00000468   ....               LDI     R31, (struct_tcc2) >> 8
   \   0000046A   8100               LD      R16, Z
   \   0000046C   FF00               SBRS    R16, 0
   \   0000046E   C002               RJMP    ??read_menu_50
   \   00000470   E300               LDI     R16, 48
   \   00000472   CE62               RJMP    ??read_menu_15
   \                     ??read_menu_50:
   \   00000474   E301               LDI     R16, 49
   \   00000476   CE60               RJMP    ??read_menu_15
    946                          mov_lf(); 
    947                          s_port('>');  
    948                          break;
    949               case 25:
    950          
    951                          mov_lf();
   \                     ??read_menu_51:
   \   00000478   ........           CALL    mov_lf
    952                          mov_s ( sizeof(zp_temp),zp_temp);
   \   0000047C   ....               LDI     R18, LOW((ozu_vers + 159))
   \   0000047E   ....               LDI     R19, HIGH((ozu_vers + 159))
   \   00000480   E003               LDI     R16, 3
   \   00000482   ........           CALL    mov_s
    953                          sprintf(massiv,"%u\0",temperatura);         
   \   00000486   ....               LDI     R30, LOW(temperatura)
   \   00000488   ....               LDI     R31, (temperatura) >> 8
   \   0000048A   8100               LD      R16, Z
   \   0000048C   8111               LDD     R17, Z+1
   \   0000048E   CED2               RJMP    ??read_menu_24
    954                          mov_massiv(strlen(massiv),massiv); 
    955                          mov_lf(); 
    956                          s_port('>');
    957                          break;
    958                          
    959              case 26:     
    960            
    961                         mov_lf();        
   \                     ??read_menu_52:
   \   00000490   ........           CALL    mov_lf
    962                         mov_s ( sizeof(zp_vosst),zp_vosst);     
   \   00000494   ....               LDI     R18, LOW((ozu_vers + 162))
   \   00000496   ....               LDI     R19, HIGH((ozu_vers + 162))
   \   00000498   E009               LDI     R16, 9
   \   0000049A   CDCC               RJMP    ??read_menu_2
    963                         mov_lf(); 
    964                         s_port('>');
    965                         break; 
    966             case 27:
    967                     burst_ds_r();
   \                     ??read_menu_53:
   \   0000049C   ........           CALL    burst_ds_r
    968                     mov_lf();                                   
   \   000004A0   ........           CALL    mov_lf
    969                     mov_s ( sizeof(zp_time),zp_time);                              
   \   000004A4   ....               LDI     R18, LOW((ozu_vers + 171))
   \   000004A6   ....               LDI     R19, HIGH((ozu_vers + 171))
   \   000004A8   E006               LDI     R16, 6
   \   000004AA   ........           CALL    mov_s
    970                     i=(unsigned char)real_time.r_hor;
    971                     sprintf(massiv,"%d\0",i);
   \   000004AE   01FD               MOVW    R31:R30, R27:R26
   \   000004B0   8102               LDD     R16, Z+2
   \   000004B2   E010               LDI     R17, 0
   \   000004B4   931A               ST      -Y, R17
   \   000004B6   930A               ST      -Y, R16
   \   000004B8   ....               LDI     R18, LOW((`?<Constant "%u\\000">` + 4))
   \   000004BA   ....               LDI     R19, HIGH((`?<Constant "%u\\000">` + 4))
   \   000004BC   018E               MOVW    R17:R16, R29:R28
   \   000004BE   5F0E               SUBI    R16, 254
   \   000004C0   4F1F               SBCI    R17, 255
   \   000004C2   ........           CALL    sprintf
   \   000004C6   9622               ADIW    R29:R28, 2
    972                     mov_massiv(strlen(massiv),massiv);
   \   000004C8   018E               MOVW    R17:R16, R29:R28
   \   000004CA   ........           CALL    strlen
   \   000004CE   019E               MOVW    R19:R18, R29:R28
   \   000004D0   ....               RCALL   mov_massiv
    973                     s_port(':');
   \   000004D2   E30A               LDI     R16, 58
   \   000004D4   ........           CALL    s_port
    974                     i=(unsigned char)real_time.r_min;
    975                     sprintf(massiv,"%d\0",i);
   \   000004D8   01FD               MOVW    R31:R30, R27:R26
   \   000004DA   8101               LDD     R16, Z+1
   \   000004DC   E010               LDI     R17, 0
   \   000004DE   931A               ST      -Y, R17
   \   000004E0   930A               ST      -Y, R16
   \   000004E2   ....               LDI     R18, LOW((`?<Constant "%u\\000">` + 4))
   \   000004E4   ....               LDI     R19, HIGH((`?<Constant "%u\\000">` + 4))
   \   000004E6   018E               MOVW    R17:R16, R29:R28
   \   000004E8   5F0E               SUBI    R16, 254
   \   000004EA   4F1F               SBCI    R17, 255
   \   000004EC   ........           CALL    sprintf
   \   000004F0   9622               ADIW    R29:R28, 2
    976                     mov_massiv(strlen(massiv),massiv);
   \   000004F2   018E               MOVW    R17:R16, R29:R28
   \   000004F4   ........           CALL    strlen
   \   000004F8   019E               MOVW    R19:R18, R29:R28
   \   000004FA   ....               RCALL   mov_massiv
    977                     s_port(':');
   \   000004FC   E30A               LDI     R16, 58
   \   000004FE   ........           CALL    s_port
    978                     i=(unsigned char)real_time.r_sec;
    979                     sprintf(massiv,"%d\0",i);
   \   00000502   910C               LD      R16, X
   \   00000504   CE74               RJMP    ??read_menu_19
    980                     mov_massiv(strlen(massiv),massiv);
    981                     mov_lf(); 
    982                     s_port('>'); 
    983                     break; 
    984           
    985             case 28:
    986                     burst_ds_r();
   \                     ??read_menu_54:
   \   00000506   ........           CALL    burst_ds_r
    987                     mov_lf();                                   
   \   0000050A   ........           CALL    mov_lf
    988                     mov_s ( sizeof(zp_date),zp_date);                              
   \   0000050E   ....               LDI     R18, LOW((ozu_vers + 177))
   \   00000510   ....               LDI     R19, HIGH((ozu_vers + 177))
   \   00000512   E006               LDI     R16, 6
   \   00000514   ........           CALL    mov_s
    989                     i=(unsigned char)real_time.r_date;
    990                     sprintf(massiv,"%d\0",i);
   \   00000518   01FD               MOVW    R31:R30, R27:R26
   \   0000051A   8104               LDD     R16, Z+4
   \   0000051C   E010               LDI     R17, 0
   \   0000051E   931A               ST      -Y, R17
   \   00000520   930A               ST      -Y, R16
   \   00000522   ....               LDI     R18, LOW((`?<Constant "%u\\000">` + 4))
   \   00000524   ....               LDI     R19, HIGH((`?<Constant "%u\\000">` + 4))
   \   00000526   018E               MOVW    R17:R16, R29:R28
   \   00000528   5F0E               SUBI    R16, 254
   \   0000052A   4F1F               SBCI    R17, 255
   \   0000052C   ........           CALL    sprintf
   \   00000530   9622               ADIW    R29:R28, 2
    991                     mov_massiv(strlen(massiv),massiv);
   \   00000532   018E               MOVW    R17:R16, R29:R28
   \   00000534   ........           CALL    strlen
   \   00000538   019E               MOVW    R19:R18, R29:R28
   \   0000053A   ....               RCALL   mov_massiv
    992                     s_port('.'); 
   \   0000053C   E20E               LDI     R16, 46
   \   0000053E   ........           CALL    s_port
    993                     i=(unsigned char)real_time.r_month;
    994                     sprintf(massiv,"%d\0",i);
   \   00000542   01FD               MOVW    R31:R30, R27:R26
   \   00000544   8105               LDD     R16, Z+5
   \   00000546   E010               LDI     R17, 0
   \   00000548   931A               ST      -Y, R17
   \   0000054A   930A               ST      -Y, R16
   \   0000054C   ....               LDI     R18, LOW((`?<Constant "%u\\000">` + 4))
   \   0000054E   ....               LDI     R19, HIGH((`?<Constant "%u\\000">` + 4))
   \   00000550   018E               MOVW    R17:R16, R29:R28
   \   00000552   5F0E               SUBI    R16, 254
   \   00000554   4F1F               SBCI    R17, 255
   \   00000556   ........           CALL    sprintf
   \   0000055A   9622               ADIW    R29:R28, 2
    995                     mov_massiv(strlen(massiv),massiv);
   \   0000055C   018E               MOVW    R17:R16, R29:R28
   \   0000055E   ........           CALL    strlen
   \   00000562   019E               MOVW    R19:R18, R29:R28
   \   00000564   ....               RCALL   mov_massiv
    996                     s_port('.');
   \   00000566   E20E               LDI     R16, 46
   \   00000568   ........           CALL    s_port
    997                     i=(unsigned char)real_time.r_year;
    998                     sprintf(massiv,"%d\0",i);
   \   0000056C   01FD               MOVW    R31:R30, R27:R26
   \   0000056E   8106               LDD     R16, Z+6
   \   00000570   CE3E               RJMP    ??read_menu_19
    999                     mov_massiv(strlen(massiv),massiv);
   1000                     mov_lf(); 
   1001                     s_port('>'); 
   1002                     break;            
   1003                      
   1004            case 29:      
   1005                      mov_lf(); 
   \                     ??read_menu_55:
   \   00000572   ........           CALL    mov_lf
   1006                      mov_s ( sizeof(zp_log_file),zp_log_file);                                  
   \   00000576   ....               LDI     R18, LOW((ozu_vers + 183))
   \   00000578   ....               LDI     R19, HIGH((ozu_vers + 183))
   \   0000057A   E00A               LDI     R16, 10
   \   0000057C   ........           CALL    mov_s
   1007                      for(i=0;i<=6;i++) s_port('-');                                          
   \   00000580   E080               LDI     R24, 0
   \                     ??read_menu_56:
   \   00000582   3087               CPI     R24, 7
   \   00000584   F008               BRCS    $+2+2
   \   00000586   CDDA               RJMP    ??read_menu_3
   \   00000588   E20D               LDI     R16, 45
   \   0000058A   ........           CALL    s_port
   \   0000058E   9583               INC     R24
   \   00000590   CFF8               RJMP    ??read_menu_56
   1008                      mov_lf(); 
   1009                      s_port('>');     
   1010                      break;          
   1011            case 30:  
   1012                      mov_lf(); 
   \                     ??read_menu_57:
   \   00000592   ........           CALL    mov_lf
   1013                      mov_s ( sizeof(zp_keys),zp_keys);                                  
   \   00000596   ....               LDI     R18, LOW((ozu_vers + 193))
   \   00000598   ....               LDI     R19, HIGH((ozu_vers + 193))
   \   0000059A   E009               LDI     R16, 9
   \   0000059C   ........           CALL    mov_s
   1014                      for(i=0;i<=6;i++) s_port('-');                                          
   \   000005A0   E080               LDI     R24, 0
   \   000005A2   C004               RJMP    ??read_menu_58
   \                     ??read_menu_59:
   \   000005A4   E20D               LDI     R16, 45
   \   000005A6   ........           CALL    s_port
   \   000005AA   9583               INC     R24
   \                     ??read_menu_58:
   \   000005AC   3087               CPI     R24, 7
   \   000005AE   F3D0               BRCS    ??read_menu_59
   1015                      mov_lf(); 
   \   000005B0   ........           CALL    mov_lf
   1016                      s_port('>');  
   \   000005B4   E30E               LDI     R16, 62
   \   000005B6   ........           CALL    s_port
   1017                      RdFromFleshToArr(A_KEYS,&buf[0],L_KEYS); 
   \   000005BA   E04A               LDI     R20, 10
   \   000005BC   E050               LDI     R21, 0
   \   000005BE   019E               MOVW    R19:R18, R29:R28
   \   000005C0   5F28               SUBI    R18, 248
   \   000005C2   4F3F               SBCI    R19, 255
   \   000005C4   E300               LDI     R16, 48
   \   000005C6   E715               LDI     R17, 117
   \   000005C8   ........           CALL    RdFromFleshToArr
   1018                      s_port(buf[0]);
   \   000005CC   8508               LDD     R16, Y+8
   \   000005CE   ........           CALL    s_port
   1019                      s_port(buf[1]);
   \   000005D2   8509               LDD     R16, Y+9
   \   000005D4   ........           CALL    s_port
   1020                      s_port(buf[2]);
   \   000005D8   850A               LDD     R16, Y+10
   \   000005DA   ........           CALL    s_port
   1021                      s_port(buf[3]);
   \   000005DE   850B               LDD     R16, Y+11
   \   000005E0   ........           CALL    s_port
   1022                      s_port(buf[4]);
   \   000005E4   850C               LDD     R16, Y+12
   \   000005E6   ........           CALL    s_port
   1023                      s_port(buf[5]);
   \   000005EA   850D               LDD     R16, Y+13
   \   000005EC   ........           CALL    s_port
   1024                      s_port(buf[6]);
   \   000005F0   850E               LDD     R16, Y+14
   \   000005F2   ........           CALL    s_port
   1025                      s_port(buf[7]);
   \   000005F6   850F               LDD     R16, Y+15
   \   000005F8   ........           CALL    s_port
   1026                      s_port(buf[8]);
   \   000005FC   8908               LDD     R16, Y+16
   \   000005FE   ........           CALL    s_port
   1027                      s_port(buf[9]);
   \   00000602   8909               LDD     R16, Y+17
   \                     ??read_menu_16:
   \   00000604   ........           CALL    s_port
   1028                      break;       
   1029                      
   1030            default: goto menu_beg;                    
   1031                                           
   1032               }
   1033            vol_tx_ppp=0;
   \   00000608   E000               LDI     R16, 0
   \   0000060A   ....               LDI     R30, LOW(vol_tx_ppp)
   \   0000060C   ....               LDI     R31, (vol_tx_ppp) >> 8
   \   0000060E   8300               ST      Z, R16
   \   00000610   8301               STD     Z+1, R16
   1034            }
   \   00000612   96EF               ADIW    R29:R28, 63
   \   00000614   962F               ADIW    R29:R28, 15
   \   00000616   E0E4               LDI     R30, 4
   \   00000618   ........           JMP     ?EPILOGUE_B4_L09
   1035          
   1036          
   1037          
   1038          

   \                                 In segment CODE, align 2, keep-with-next
   1039            void write_menu(unsigned char index_menu)
   \                     write_menu:
   1040               {
   \   00000000   ........           CALL    ?PROLOGUE8_L09
   \   00000004                      REQUIRE ?Register_R4_is_cg_reg
   \   00000004                      REQUIRE ?Register_R5_is_cg_reg
   \   00000004                      REQUIRE ?Register_R6_is_cg_reg
   \   00000004                      REQUIRE ?Register_R7_is_cg_reg
   \   00000004   97EF               SBIW    R29:R28, 63
   \   00000006   972B               SBIW    R29:R28, 11
   1041          
   1042                 union
   1043             {
   1044             unsigned char bytes[4]; 
   1045             unsigned long int word;
   1046             } cifra_long;  
   1047            
   1048             unsigned char i,j,k,m,n;
   1049             unsigned char jj;    
   1050              unsigned char buf[70];
   1051                 
   1052                 switch(index_menu)
   \   00000008   ....               LDI     R26, LOW(buf_tx_232)
   \   0000000A   ....               LDI     R27, (buf_tx_232) >> 8
   \   0000000C   ....               LDI     R30, LOW(vol_tx_ppp)
   \   0000000E   ....               LDI     R31, (vol_tx_ppp) >> 8
   \   00000010   8120               LD      R18, Z
   \   00000012   8131               LDD     R19, Z+1
   \   00000014   012D               MOVW    R5:R4, R27:R26
   \   00000016   0E42               ADD     R4, R18
   \   00000018   1E53               ADC     R5, R19
   \   0000001A   EF1E               LDI     R17, 254
   \   0000001C   0E41               ADD     R4, R17
   \   0000001E   EF1F               LDI     R17, 255
   \   00000020   1E51               ADC     R5, R17
   \   00000022   01FD               MOVW    R31:R30, R27:R26
   \   00000024   8062               LDD     R6, Z+2
   \   00000026   ....               LDI     R24, LOW(real_time)
   \   00000028   ....               LDI     R25, (real_time) >> 8
   \   0000002A   ....               LDI     R30, LOW(`?<Jumptable for write_menu>_0`)
   \   0000002C   ....               LDI     R31, (`?<Jumptable for write_menu>_0`) >> 16
   \   0000002E   BFFB               OUT     0x3B, R31
   \   00000030   ....               LDI     R31, HIGH(`?<Jumptable for write_menu>_0`)
   \   00000032   ........           JMP     ?CV_SWITCH_L06
   1053                  {      
   1054                           
   1055                         
   1056                            
   1057                                       
   1058                          
   1059                          
   1060                           case 3: 
   1061                                  if(vol_tx_ppp!=2)goto bad_com_232;
   \                     ??write_menu_0:
   \   00000036   ....               LDI     R30, LOW(vol_tx_ppp)
   \   00000038   ....               LDI     R31, (vol_tx_ppp) >> 8
   \   0000003A   8100               LD      R16, Z
   \   0000003C   8111               LDD     R17, Z+1
   \   0000003E   3002               CPI     R16, 2
   \   00000040   E020               LDI     R18, 0
   \   00000042   0712               CPC     R17, R18
   \   00000044   F4B9               BRNE    ??write_menu_1
   1062                                   
   1063                                   
   1064                                switch(buf_tx_232[0])
   \   00000046   910C               LD      R16, X
   \   00000048   5301               SUBI    R16, 49
   \   0000004A   F029               BREQ    ??write_menu_2
   \   0000004C   950A               DEC     R16
   \   0000004E   F109               BREQ    ??write_menu_3
   \   00000050   950A               DEC     R16
   \   00000052   F161               BREQ    ??write_menu_4
   \   00000054   C00F               RJMP    ??write_menu_1
   1065                                   
   1066                                     {
   1067                                      case '1':
   1068                                            RdFromFleshToArr(A_C1_GPRS,&buf[0],L_C1_GPRS_MAX);
   \                     ??write_menu_2:
   \   00000056   E34C               LDI     R20, 60
   \   00000058   E050               LDI     R21, 0
   \   0000005A   019E               MOVW    R19:R18, R29:R28
   \   0000005C   5F2C               SUBI    R18, 252
   \   0000005E   4F3F               SBCI    R19, 255
   \   00000060   EC08               LDI     R16, 200
   \   00000062   E010               LDI     R17, 0
   \   00000064   ........           CALL    RdFromFleshToArr
   1069                                            if((buf[0]==0)||(buf[0]>30))goto bad_com_232;
   \   00000068   810C               LDD     R16, Y+4
   \   0000006A   2300               TST     R16
   \   0000006C   F019               BREQ    ??write_menu_1
   \                     ??write_menu_5:
   \   0000006E   810C               LDD     R16, Y+4
   \   00000070   310F               CPI     R16, 31
   \   00000072   F118               BRCS    ??write_menu_6
   1070                                           break;
   1071                                      case '2':
   1072                                           RdFromFleshToArr(A_C2_GPRS,&buf[0],L_C2_GPRS_MAX);
   1073                                           if((buf[0]==0)||(buf[0]>30))goto bad_com_232;
   1074                                           break;
   1075                                      case '3': 
   1076                                           RdFromFleshToArr(A_C3_GPRS,&buf[0],L_C3_GPRS_MAX); 
   1077                                           if((buf[0]==0)||(buf[0]>30))goto bad_com_232;                              
   1078                                           break;
   1079                                     default: goto bad_com_232;
   1080                                     }
   1081                                      
   1082                                  *(unsigned int*)&buf[L_C_GPRS_MAX-2]=crc_m1(&buf[0],L_C_GPRS_MAX-2,0xffff);             
   1083                                  WrArrayToFlesh(A_C_GPRS, &buf[0],L_C_GPRS_MAX,0,0);   
   1084                                  
   1085                                  vol_tx_ppp=0;                                                                                      
   1086                                  mov_s ( sizeof(ok_t),ok_t); 
   1087                                  return;                 
   1088                          
   1089                          case 4: 
   1090                                  if(vol_tx_ppp!=2)goto bad_com_232;
   1091                                   
   1092                                   
   1093                                switch(buf_tx_232[0])
   1094                                   
   1095                                     {
   1096                                      case '1':
   1097                                            RdFromFleshToArr(A_C1_GPRS,&buf[0],L_C1_GPRS_MAX);
   1098                                            if((buf[0]==0)||(buf[0]>30))goto bad_com_232;
   1099                                           break;
   1100                                      case '2':
   1101                                           RdFromFleshToArr(A_C2_GPRS,&buf[0],L_C2_GPRS_MAX);
   1102                                           if((buf[0]==0)||(buf[0]>30))goto bad_com_232;
   1103                                           break;
   1104                                      case '3': 
   1105                                           RdFromFleshToArr(A_C3_GPRS,&buf[0],L_C3_GPRS_MAX); 
   1106                                           if((buf[0]==0)||(buf[0]>30))goto bad_com_232;                              
   1107                                           break;
   1108                                     default: goto bad_com_232;
   1109                                     }
   1110                                      
   1111                                  *(unsigned int*)&buf[L_CR_GPRS_MAX-2]=crc_m1(&buf[0],L_CR_GPRS_MAX-2,0xffff);             
   1112                                  WrArrayToFlesh(A_CR_GPRS, &buf[0],L_CR_GPRS_MAX,0,0);   
   1113                                  
   1114                                  vol_tx_ppp=0;                                                                                      
   1115                                  mov_s ( sizeof(ok_t),ok_t); 
   1116                                  return;         
   1117                                  
   1118                                  
   1119                           case 5:
   1120                                   if(vol_tx_ppp!=16)goto bad_com_232;
   1121                                   if(buf_tx_232[3]!='.')goto bad_com_232;
   1122                                   if(buf_tx_232[7]!='.')goto bad_com_232;
   1123                                   if(buf_tx_232[11]!='.')goto bad_com_232;
   1124                                   
   1125                                   RdFromFleshToArr(A_IP_PAR,&buf[0],L_IP_PAR); 
   1126           
   1127                                   
   1128                                   cifra_long.word=atol((char *)&buf_tx_232[0]); 
   1129                                   if(cifra_long.word>255)goto bad_com_232;
   1130                                      else buf[OFS_IP]=cifra_long.bytes[0];
   1131                 
   1132                                   cifra_long.word=atol((char *)&buf_tx_232[4]);  
   1133                                   if(cifra_long.word>255)goto bad_com_232;
   1134                                      else buf[OFS_IP+1]=cifra_long.bytes[0];
   1135                                   
   1136                                   cifra_long.word=atol((char *)&buf_tx_232[8]); 
   1137                                    if(cifra_long.word>255)goto bad_com_232;
   1138                                        else buf[OFS_IP+2]=cifra_long.bytes[0];
   1139                                   
   1140                                      
   1141                                   cifra_long.word=atol((char *)&buf_tx_232[12]); 
   1142                                    if(cifra_long.word>255)goto bad_com_232;
   1143                                        else buf[OFS_IP+3]=cifra_long.bytes[0];
   1144           
   1145                                *(unsigned int*)&buf[OFS_IP_PAR_CRC]=crc_m1(&buf[0],L_IP_PAR-2,0xffff);
   1146                                WrArrayToFlesh(A_IP_PAR, &buf[0],L_IP_PAR,0,0);
   1147                                   
   1148                                      
   1149                                vol_tx_ppp=0;                                                                                      
   1150                                mov_s ( sizeof(ok_t),ok_t); 
   1151                                return; 
   1152                           
   1153                           
   1154                           case 6:
   1155                                cifra_long.word=atol((char *)&buf_tx_232[0]);                                                                                      
   1156                                if (cifra_long.word>65535) goto bad_com_232;
   1157            
   1158                                RdFromFleshToArr(A_IP_PAR,&buf[0],L_IP_PAR); 
   1159                                *(unsigned int*)&buf[OFS_PORT]=cifra_long.word;//UDP ďîđň
   1160                                *(unsigned int*)&buf[OFS_IP_PAR_CRC]=crc_m1(&buf[0],L_IP_PAR-2,0xffff);
   1161                                WrArrayToFlesh(A_IP_PAR, &buf[0],L_IP_PAR,0,0);
   1162                                
   1163                                vol_tx_ppp=0;                                                                                      
   1164                                mov_s ( sizeof(ok_t),ok_t);  
   1165                                return;
   1166                         
   1167                           case 7:
   1168                                cifra_long.word=atol((char *)&buf_tx_232[0]);                                                                                      
   1169                                if (cifra_long.word<3)goto bad_com_232;
   1170                                if (cifra_long.word>65535) goto bad_com_232;
   1171            
   1172                                RdFromFleshToArr(A_IP_PAR,&buf[0],L_IP_PAR); 
   1173                                *(unsigned int*)&buf[OFS_NUM]=cifra_long.word;
   1174                                *(unsigned int*)&buf[OFS_IP_PAR_CRC]=crc_m1(&buf[0],L_IP_PAR-2,0xffff);
   1175                                WrArrayToFlesh(A_IP_PAR, &buf[0],L_IP_PAR,0,0);
   1176                                
   1177                                vol_tx_ppp=0;                                                                                      
   1178                                mov_s ( sizeof(ok_t),ok_t);  
   1179                                return;
   1180                           
   1181                           case 8:
   1182                                
   1183                                cifra_long.word=atol((char *)&buf_tx_232[0]);                                                                                      
   1184                                if (cifra_long.word<10)goto bad_com_232;
   1185                                if (cifra_long.word>65535) goto bad_com_232;
   1186            
   1187                                RdFromFleshToArr(A_C_PAR,&buf[0],L_C_PAR); 
   1188                                *(unsigned int*)&buf[OFS_NAT]=cifra_long.word;
   1189                                *(unsigned int*)&buf[OFS_C_PAR_CRC]=crc_m1(&buf[0],L_C_PAR-2,0xffff);
   1190                                WrArrayToFlesh(A_C_PAR, &buf[0],L_C_PAR,0,0);
   1191                                
   1192                                vol_tx_ppp=0;                                                                                      
   1193                                mov_s ( sizeof(ok_t),ok_t);  
   1194                                return;
   1195                                
   1196                         case 9:
   1197                                
   1198                                cifra_long.word=atol((char *)&buf_tx_232[0]);                                                                                      
   1199                                if (cifra_long.word<10)goto bad_com_232;
   1200                                if (cifra_long.word>65535) goto bad_com_232;
   1201            
   1202                                RdFromFleshToArr(A_C_PAR,&buf[0],L_C_PAR); 
   1203                                *(unsigned int*)&buf[OFS_NAT_R]=cifra_long.word;
   1204                                *(unsigned int*)&buf[OFS_C_PAR_CRC]=crc_m1(&buf[0],L_C_PAR-2,0xffff);
   1205                                WrArrayToFlesh(A_C_PAR, &buf[0],L_C_PAR,0,0);
   1206                                
   1207                                vol_tx_ppp=0;                                                                                      
   1208                                mov_s ( sizeof(ok_t),ok_t);  
   1209                                return;       
   1210                          
   1211                          case 10:
   1212                                
   1213                                cifra_long.word=atol((char *)&buf_tx_232[0]);                                                                                      
   1214                                if (cifra_long.word<10)goto bad_com_232;
   1215                                if (cifra_long.word>65535) goto bad_com_232;
   1216            
   1217                                RdFromFleshToArr(A_C_PAR,&buf[0],L_C_PAR); 
   1218                                *(unsigned int*)&buf[OFS_CCH]=cifra_long.word;
   1219                                *(unsigned int*)&buf[OFS_C_PAR_CRC]=crc_m1(&buf[0],L_C_PAR-2,0xffff);
   1220                                WrArrayToFlesh(A_C_PAR, &buf[0],L_C_PAR,0,0);
   1221                                
   1222                                vol_tx_ppp=0;                                                                                      
   1223                                mov_s ( sizeof(ok_t),ok_t);  
   1224                                return;
   1225                          
   1226                          case 11:
   1227                                
   1228                                cifra_long.word=atol((char *)&buf_tx_232[0]);                                                                                      
   1229                                if (cifra_long.word<5)goto bad_com_232;
   1230                                if (cifra_long.word>65535) goto bad_com_232;
   1231            
   1232                                RdFromFleshToArr(A_C_PAR,&buf[0],L_C_PAR); 
   1233                                *(unsigned int*)&buf[OFS_TM_CH]=cifra_long.word;
   1234                                *(unsigned int*)&buf[OFS_C_PAR_CRC]=crc_m1(&buf[0],L_C_PAR-2,0xffff);
   1235                                WrArrayToFlesh(A_C_PAR, &buf[0],L_C_PAR,0,0);
   1236                                
   1237                                vol_tx_ppp=0;                                                                                      
   1238                                mov_s ( sizeof(ok_t),ok_t);  
   1239                                return;
   1240          
   1241               //!!!!!!!!!!! dobavka        
   1242                         case 12:
   1243                                
   1244                                cifra_long.word=atol((char *)&buf_tx_232[0]);                                                                                      
   1245          
   1246                                if (cifra_long.word>65535) goto bad_com_232;
   1247                                
   1248                                RdFromFleshToArr(A_C_PAR,&buf[0],L_C_PAR); 
   1249                                
   1250                                if(cifra_long.word!=0)                                                       
   1251                                if((cifra_long.word *60) <= (*(unsigned int*)&buf[OFS_CCH]))goto bad_com_232;
   1252                                
   1253                                *(unsigned int*)&buf[OFS_TM_NO_LINK]=cifra_long.word;
   1254                                *(unsigned int*)&buf[OFS_C_PAR_CRC]=crc_m1(&buf[0],L_C_PAR-2,0xffff);
   1255                                WrArrayToFlesh(A_C_PAR, &buf[0],L_C_PAR,0,0);
   1256                                
   1257                                vol_tx_ppp=0;                                                                                      
   1258                                mov_s ( sizeof(ok_t),ok_t);  
   1259                                return;
   1260                       
   1261                                
   1262                        case 13:
   1263                                
   1264                                cifra_long.word=atol((char *)&buf_tx_232[0]);                                                                                      
   1265                                if (cifra_long.word<MIN_TM_LINK_RES) goto bad_com_232;
   1266                                if (cifra_long.word>65535) goto bad_com_232;
   1267                                
   1268                                RdFromFleshToArr(A_C_PAR,&buf[0],L_C_PAR); 
   1269                                                                                         
   1270                                if((cifra_long.word *60) <=  (*(unsigned int*)&buf[OFS_CCH]))goto bad_com_232;
   1271                                
   1272                                *(unsigned int*)&buf[OFS_TM_LINK_RES]=cifra_long.word;
   1273                                *(unsigned int*)&buf[OFS_C_PAR_CRC]=crc_m1(&buf[0],L_C_PAR-2,0xffff);
   1274                                WrArrayToFlesh(A_C_PAR, &buf[0],L_C_PAR,0,0);
   1275                                
   1276                                vol_tx_ppp=0;                                                                                      
   1277                                mov_s ( sizeof(ok_t),ok_t);  
   1278                                return;         
   1279                       //EEEEEEEEEEEEEEEEE dobavka                           
   1280                                
   1281                        
   1282                        case 14: 
   1283                                   if(vol_tx_ppp!=2)goto bad_com_232;
   1284                                   if((buf_tx_232[0]=='0')||(buf_tx_232[0]=='1'))cifra_long.bytes[0]=buf_tx_232[0]-0x30;
   1285                                      else goto bad_com_232;
   1286                                
   1287                                RdFromFleshToArr(A_SEQ_PAR,&buf[0],L_SEQ_PAR); 
   1288                                buf[OFS_DES_SEQ]=cifra_long.bytes[0];
   1289                                *(unsigned int*)&buf[OFS_SEQ_PAR_CRC]=crc_m1(&buf[0],L_SEQ_PAR-2,0xffff);
   1290                                WrArrayToFlesh(A_SEQ_PAR, &buf[0],L_SEQ_PAR,0,0);
   1291                                
   1292                                vol_tx_ppp=0;                                                                                      
   1293                                mov_s ( sizeof(ok_t),ok_t);  
   1294                                return;    
   1295                         
   1296                         
   1297                         
   1298                          case 15:
   1299                                
   1300                                cifra_long.word=atol((char *)&buf_tx_232[0]);                                                                                      
   1301                                if (cifra_long.word<3) goto bad_com_232;
   1302                                if (cifra_long.word>65535) goto bad_com_232;
   1303          
   1304                                RdFromFleshToArr(A_SEQ_PAR,&buf[0],L_SEQ_PAR); 
   1305                                *(unsigned int*)&buf[OFS_NUM_CL]=cifra_long.word;
   1306                                *(unsigned int*)&buf[OFS_SEQ_PAR_CRC]=crc_m1(&buf[0],L_SEQ_PAR-2,0xffff);
   1307                                WrArrayToFlesh(A_SEQ_PAR, &buf[0],L_SEQ_PAR,0,0);
   1308                                
   1309                                vol_tx_ppp=0;                                                                                      
   1310                                mov_s ( sizeof(ok_t),ok_t);  
   1311                                return;
   1312                          
   1313                          case 16:
   1314                                
   1315                                cifra_long.word=atol((char *)&buf_tx_232[0]);                                                                                      
   1316                                if (cifra_long.word==0)goto bad_com_232;
   1317                                if (cifra_long.word>65535) goto bad_com_232;
   1318          
   1319                                RdFromFleshToArr(A_SEQ_PAR,&buf[0],L_SEQ_PAR); 
   1320                                *(unsigned int*)&buf[OFS_TM_VZ]=cifra_long.word;
   1321                                *(unsigned int*)&buf[OFS_SEQ_PAR_CRC]=crc_m1(&buf[0],L_SEQ_PAR-2,0xffff);
   1322                                WrArrayToFlesh(A_SEQ_PAR, &buf[0],L_SEQ_PAR,0,0);
   1323                                
   1324                                vol_tx_ppp=0;                                                                                      
   1325                                mov_s ( sizeof(ok_t),ok_t);  
   1326                                return;
   1327                                
   1328                          case 17:
   1329                                
   1330                                cifra_long.word=atol((char *)&buf_tx_232[0]);                                                                                      
   1331                                if (cifra_long.word<5)goto bad_com_232;
   1332                                if (cifra_long.word>65535) goto bad_com_232;
   1333          
   1334                                RdFromFleshToArr(A_SEQ_PAR,&buf[0],L_SEQ_PAR); 
   1335                                *(unsigned int*)&buf[OFS_TM_CL]=cifra_long.word;
   1336                                *(unsigned int*)&buf[OFS_SEQ_PAR_CRC]=crc_m1(&buf[0],L_SEQ_PAR-2,0xffff);
   1337                                WrArrayToFlesh(A_SEQ_PAR, &buf[0],L_SEQ_PAR,0,0);
   1338                                
   1339                                vol_tx_ppp=0;                                                                                      
   1340                                mov_s ( sizeof(ok_t),ok_t);  
   1341                                return;      
   1342                          
   1343                                
   1344                           case 18:
   1345                                
   1346                                cifra_long.word=atol((char *)&buf_tx_232[0]);                                                                                      
   1347                                if (cifra_long.word>2) goto bad_com_232;
   1348                                RdFromFleshToArr(A_SEQ_PAR,&buf[0],L_SEQ_PAR); 
   1349                                *(unsigned char*)&buf[OFS_TP_TS]=cifra_long.word;
   1350                                *(unsigned int*)&buf[OFS_SEQ_PAR_CRC]=crc_m1(&buf[0],L_SEQ_PAR-2,0xffff);
   1351                                WrArrayToFlesh(A_SEQ_PAR, &buf[0],L_SEQ_PAR,0,0);
   1352                                
   1353                                vol_tx_ppp=0;                                                                                      
   1354                                mov_s ( sizeof(ok_t),ok_t);  
   1355                                return;         
   1356                                
   1357                          case 19:
   1358                                
   1359                                cifra_long.word=atol((char *)&buf_tx_232[0]);                                                                                      
   1360                                if (cifra_long.word>1) goto bad_com_232;
   1361                                RdFromFleshToArr(A_SEQ_PAR,&buf[0],L_SEQ_PAR); 
   1362                                *(unsigned char*)&buf[OFS_TP_TS+1]=cifra_long.word;
   1363                                *(unsigned int*)&buf[OFS_SEQ_PAR_CRC]=crc_m1(&buf[0],L_SEQ_PAR-2,0xffff);
   1364                                WrArrayToFlesh(A_SEQ_PAR, &buf[0],L_SEQ_PAR,0,0);
   1365                                
   1366                                vol_tx_ppp=0;                                                                                      
   1367                                mov_s ( sizeof(ok_t),ok_t);  
   1368                                return;        
   1369                                
   1370                                
   1371                                
   1372                          
   1373                         case 20: 
   1374                                   cifra_long.word=atol((char *)&buf_tx_232[0]);
   1375                                    if (cifra_long.word>3)goto bad_com_232;   //dobavka 
   1376                                   e_debug=cifra_long.bytes[0];
   1377          
   1378                                vol_tx_ppp=0;                                                                                      
   1379                                mov_s ( sizeof(ok_t),ok_t);  
   1380                                return;    
   1381                          
   1382                          
   1383          
   1384                         case 21:
   1385                               if((vol_tx_ppp<7)||(vol_tx_ppp>60))goto bad_com_232;
   1386                               
   1387                               if(buf_tx_232[0]!='"')goto bad_com_232;
   1388                               if(buf_tx_232[vol_tx_ppp-2]!='"')goto bad_com_232;
   1389                               
   1390                               RdFromFleshToArr(A_C1_GPRS,&buf[0],L_C1_GPRS_MAX);
   1391                                
   1392                               i=0;
   1393                               j=1;
   1394                               n=i;
   1395                               m=j;
   1396                               while(buf_tx_232[j]!='"'){j++;i++;}
   1397                               if (j>=vol_tx_ppp-2)goto bad_com_232;
   1398                               j++;
   1399                               if (buf_tx_232[j]!='"')goto bad_com_232;
   1400                               if (j>=vol_tx_ppp-1)goto bad_com_232;
   1401                               buf[n]=i;
   1402                               for(k=0;k<buf[n];k++)buf[n+1+k]=buf_tx_232[m+k];
   1403                                    
   1404                               n=n+buf[n]+1;
   1405                               i=0;
   1406                               j++;
   1407                               m=j;
   1408                               while(buf_tx_232[j]!='"'){j++;i++;}
   1409                               if (j>=vol_tx_ppp-2)goto bad_com_232;
   1410                               j++;
   1411                               if (buf_tx_232[j]!='"')goto bad_com_232;
   1412                               if (j>=vol_tx_ppp-1)goto bad_com_232;
   1413                               buf[n]=i;
   1414                               for(k=0;k<buf[n];k++)buf[n+1+k]=buf_tx_232[m+k];
   1415                               
   1416                               
   1417                               n=n+buf[n]+1;
   1418                               i=0;
   1419                               j++;
   1420                               m=j;
   1421                               while(buf_tx_232[j]!='"'){j++;i++;}
   1422                               if (j>=vol_tx_ppp-1)goto bad_com_232;
   1423                               buf[n]=i;
   1424                               for(k=0;k<buf[n];k++)buf[n+1+k]=buf_tx_232[m+k];   
   1425                               
   1426                               *(unsigned int*)&buf[L_C1_GPRS_MAX-2]=crc_m1(&buf[0],L_C1_GPRS_MAX-2,0xffff);             
   1427                               WrArrayToFlesh(A_C1_GPRS, &buf[0],L_C1_GPRS_MAX,0,0);
   1428                               
   1429                                vol_tx_ppp=0;
   1430                                mov_s ( sizeof(ok_t),ok_t);  
   1431                       
   1432                       case 22:
   1433                               if((vol_tx_ppp<7)||(vol_tx_ppp>60))goto bad_com_232;
   1434                               
   1435                               if(buf_tx_232[0]!='"')goto bad_com_232;
   1436                               if(buf_tx_232[vol_tx_ppp-2]!='"')goto bad_com_232;
   1437                               
   1438                               RdFromFleshToArr(A_C2_GPRS,&buf[0],L_C2_GPRS_MAX);
   1439                                
   1440                               i=0;
   1441                               j=1;
   1442                               n=i;
   1443                               m=j;
   1444                               while(buf_tx_232[j]!='"'){j++;i++;}
   1445                               if (j>=vol_tx_ppp-2)goto bad_com_232;
   1446                               j++;
   1447                               if (buf_tx_232[j]!='"')goto bad_com_232;
   1448                               if (j>=vol_tx_ppp-1)goto bad_com_232;
   1449                               buf[n]=i;
   1450                               for(k=0;k<buf[n];k++)buf[n+1+k]=buf_tx_232[m+k];
   1451                                    
   1452                               n=n+buf[n]+1;
   1453                               i=0;
   1454                               j++;
   1455                               m=j;
   1456                               while(buf_tx_232[j]!='"'){j++;i++;}
   1457                               if (j>=vol_tx_ppp-2)goto bad_com_232;
   1458                               j++;
   1459                               if (buf_tx_232[j]!='"')goto bad_com_232;
   1460                               if (j>=vol_tx_ppp-1)goto bad_com_232;
   1461                               buf[n]=i;
   1462                               for(k=0;k<buf[n];k++)buf[n+1+k]=buf_tx_232[m+k];
   1463                               
   1464                               
   1465                               n=n+buf[n]+1;
   1466                               i=0;
   1467                               j++;
   1468                               m=j;
   1469                               while(buf_tx_232[j]!='"'){j++;i++;}
   1470                               if (j>=vol_tx_ppp-1)goto bad_com_232;
   1471                               buf[n]=i;
   1472                               for(k=0;k<buf[n];k++)buf[n+1+k]=buf_tx_232[m+k];   
   1473                               
   1474                               *(unsigned int*)&buf[L_C2_GPRS_MAX-2]=crc_m1(&buf[0],L_C2_GPRS_MAX-2,0xffff);               
   1475                               WrArrayToFlesh(A_C2_GPRS, &buf[0],L_C2_GPRS_MAX,0,0);
   1476                               
   1477                                vol_tx_ppp=0;
   1478                                mov_s ( sizeof(ok_t),ok_t);  
   1479                                return;                      
   1480             
   1481                          case 23:
   1482                               if((vol_tx_ppp<7)||(vol_tx_ppp>60))goto bad_com_232;
   1483                               
   1484                               if(buf_tx_232[0]!='"')goto bad_com_232;
   1485                               if(buf_tx_232[vol_tx_ppp-2]!='"')goto bad_com_232;
   1486                               
   1487                               RdFromFleshToArr(A_C3_GPRS,&buf[0],L_C3_GPRS_MAX);
   1488                                
   1489                               i=0;
   1490                               j=1;
   1491                               n=i;
   1492                               m=j;
   1493                               while(buf_tx_232[j]!='"'){j++;i++;}
   1494                               if (j>=vol_tx_ppp-2)goto bad_com_232;
   1495                               j++;
   1496                               if (buf_tx_232[j]!='"')goto bad_com_232;
   1497                               if (j>=vol_tx_ppp-1)goto bad_com_232;
   1498                               buf[n]=i;
   1499                               for(k=0;k<buf[n];k++)buf[n+1+k]=buf_tx_232[m+k];
   1500                                    
   1501                               n=n+buf[n]+1;
   1502                               i=0;
   1503                               j++;
   1504                               m=j;
   1505                               while(buf_tx_232[j]!='"'){j++;i++;}
   1506                               if (j>=vol_tx_ppp-2)goto bad_com_232;
   1507                               j++;
   1508                               if (buf_tx_232[j]!='"')goto bad_com_232;
   1509                               if (j>=vol_tx_ppp-1)goto bad_com_232;
   1510                               buf[n]=i;
   1511                               for(k=0;k<buf[n];k++)buf[n+1+k]=buf_tx_232[m+k];
   1512                               
   1513                               
   1514                               n=n+buf[n]+1;
   1515                               i=0;
   1516                               j++;
   1517                               m=j;
   1518                               while(buf_tx_232[j]!='"'){j++;i++;}
   1519                               if (j>=vol_tx_ppp-1)goto bad_com_232;
   1520                               buf[n]=i;
   1521                               for(k=0;k<buf[n];k++)buf[n+1+k]=buf_tx_232[m+k];   
   1522                               
   1523                               *(unsigned int*)&buf[L_C3_GPRS_MAX-2]=crc_m1(&buf[0],L_C3_GPRS_MAX-2,0xffff);               
   1524                               WrArrayToFlesh(A_C3_GPRS, &buf[0],L_C3_GPRS_MAX,0,0);
   1525                               
   1526                                vol_tx_ppp=0;
   1527                                mov_s ( sizeof(ok_t),ok_t);  
   1528                                return;   
   1529             
   1530             
   1531              case 26: 
   1532                                   if(vol_tx_ppp!=2)goto bad_com_232;
   1533                                   if(buf_tx_232[0]!='1')goto bad_com_232;
   1534                                  
   1535                                
   1536                                e_debug=RG_WORK;  
   1537                                vosstan_memory();
   1538                                
   1539                                vol_tx_ppp=0;                                                                                      
   1540                                mov_s ( sizeof(ok_t),ok_t);  
   1541                                return;    
   1542             case 27:
   1543                        if(vol_tx_ppp!=9)goto bad_com_232; 
   1544                        if(buf_tx_232[2]!=':')goto bad_com_232;
   1545                        if(buf_tx_232[5]!=':')goto bad_com_232;
   1546                        
   1547                        
   1548                       burst_ds_r();
   1549                       buf[3]=real_time.r_date;
   1550                       buf[4]=real_time.r_month;
   1551                       buf[5]=real_time.r_year;
   1552                      
   1553                      
   1554                        cifra_long.word=atol(( char *)&buf_tx_232[6]); 
   1555                        if(cifra_long.word>59)goto bad_com_232;
   1556                        else buf[0]=cifra_long.bytes[0];
   1557                        
   1558               
   1559                        cifra_long.word=atol((char *)&buf_tx_232[3]); 
   1560                        if(cifra_long.word>59)goto bad_com_232;
   1561                        else buf[1]=cifra_long.bytes[0];
   1562                 
   1563                        cifra_long.word=atol((char *)&buf_tx_232[0]); 
   1564                        if(cifra_long.word>23)goto bad_com_232;
   1565                        else buf[2]=cifra_long.bytes[0];
   1566          
   1567          
   1568                                   
   1569                      set_rlt(2,&buf[0]);
   1570                      vol_tx_ppp=0;                                                                                      
   1571                      mov_s ( sizeof(ok_t),ok_t);  
   1572                      return;
   1573                      
   1574                      
   1575             case 28:
   1576                        if(vol_tx_ppp!=9)goto bad_com_232; 
   1577                        if(buf_tx_232[2]!='.')goto bad_com_232;
   1578                        if(buf_tx_232[5]!='.')goto bad_com_232;
   1579                        
   1580                        
   1581                       burst_ds_r();
   1582                       buf[0]=real_time.r_sec;
   1583                       buf[1]=real_time.r_min;
   1584                       buf[2]=real_time.r_hor;
   1585                      
   1586                      
   1587                        cifra_long.word=atol(( char *)&buf_tx_232[0]); 
   1588                        if(cifra_long.word==0)goto bad_com_232;
   1589                        if(cifra_long.word>31)goto bad_com_232;
   1590                        else buf[3]=cifra_long.bytes[0];
   1591                        
   1592               
   1593                        cifra_long.word=atol((char *)&buf_tx_232[3]); 
   1594                        if(cifra_long.word==0)goto bad_com_232;
   1595                        if(cifra_long.word>12)goto bad_com_232;
   1596                        else buf[4]=cifra_long.bytes[0];
   1597                 
   1598                      
   1599                        cifra_long.word=atol((char *)&buf_tx_232[6]); 
   1600                        buf[5]=cifra_long.bytes[0];
   1601                      
   1602                      set_rlt(2,&buf[0]);
   1603                      vol_tx_ppp=0;                                                                                      
   1604                      mov_s ( sizeof(ok_t),ok_t);  
   1605                      return;
   1606           
   1607             
   1608             case 29: 
   1609                                   if((vol_tx_ppp==2)&&(buf_tx_232[0]=='0'))
   1610                                   {
   1611                                   WrArrayToFlesh(BEG_BUF_LOG,0,(L_LOG*6),0x01,0x00);
   1612                                   point_log_buf=0;      
   1613                                   vol_tx_ppp=0; 
   1614                                   mov_s ( sizeof(ok_t),ok_t);  
   1615                                   return;                         
   1616                                   }
   1617                                   
   1618                                   
   1619                                   if(vol_tx_ppp!=4)goto bad_com_232;
   1620                                   if(buf_tx_232[0]!='l')goto bad_com_232;
   1621                                   if(buf_tx_232[1]!='o')goto bad_com_232;
   1622                                   if(buf_tx_232[2]!='g')goto bad_com_232;
   1623                                   
   1624                                   RdFromFleshToArr(BEG_BUF_LOG,&buf_tx_232[0],(L_LOG*6));                      
   1625                                   
   1626                                   s_port(0xd);
   1627                                   s_port(0xa);
   1628                                   for(jj=0;jj<(L_LOG*6);jj++) s_port(buf_tx_232[jj]);
   1629                                   vol_tx_ppp=0; 
   1630                                   mov_s ( sizeof(ok_t),ok_t);  
   1631                                   return;       
   1632           
   1633             case 30:      
   1634                                if((vol_tx_ppp==2)&&(buf_tx_232[0]=='1'))
   1635                                   { 
   1636                                   for(i=0;i<(L_KEYS-2);i++)buf[i]=keys_def[i];
   1637                                   *(unsigned int*)&buf[L_KEYS-2]=crc_m1(&buf[0],L_KEYS-2,0xffff);
   1638                                   WrArrayToFlesh(A_KEYS,&buf[0],L_KEYS,0,0); 
   1639                                   
   1640                                   if(check_keys()==1)goto bad_com_232;
   1641                                   
   1642                                   mov_s ( sizeof(ok_t),ok_t); 
   1643                                   return;
   1644                                   }else goto bad_com_232;
   1645                                
   1646           
   1647                                
   1648                                
   1649            default:goto bad_com_232;
   1650                                                                         
   1651                   }                                                                     
   1652          
   1653            
   1654            //***//*************************************************************
   1655            
   1656            bad_com_232:                        
   1657                    vol_tx_ppp=0;                                   
   \                     ??write_menu_1:
   \   00000074   E000               LDI     R16, 0
   \   00000076   ....               LDI     R30, LOW(vol_tx_ppp)
   \   00000078   ....               LDI     R31, (vol_tx_ppp) >> 8
   \   0000007A   8300               ST      Z, R16
   \   0000007C   8301               STD     Z+1, R16
   1658                    mov_s ( sizeof(err_t),err_t);
   \   0000007E   ....               LDI     R18, LOW((keys_def + 8))
   \   00000080   ....               LDI     R19, HIGH((keys_def + 8))
   \   00000082   E005               LDI     R16, 5
   \                     ??write_menu_7:
   \   00000084   ........           CALL    mov_s
   1659                   // read_menu(index_menu);
   1660                    return;  
   \   00000088   96EF               ADIW    R29:R28, 63
   \   0000008A   962B               ADIW    R29:R28, 11
   \   0000008C   E0E8               LDI     R30, 8
   \   0000008E   ........           JMP     ?EPILOGUE_B8_L09
   \                     ??write_menu_3:
   \   00000092   E34C               LDI     R20, 60
   \   00000094   E050               LDI     R21, 0
   \   00000096   019E               MOVW    R19:R18, R29:R28
   \   00000098   5F2C               SUBI    R18, 252
   \   0000009A   4F3F               SBCI    R19, 255
   \   0000009C   E004               LDI     R16, 4
   \                     ??write_menu_8:
   \   0000009E   E011               LDI     R17, 1
   \   000000A0   ........           CALL    RdFromFleshToArr
   \   000000A4   810C               LDD     R16, Y+4
   \   000000A6   2300               TST     R16
   \   000000A8   F711               BRNE    ??write_menu_5
   \   000000AA   CFE4               RJMP    ??write_menu_1
   \                     ??write_menu_4:
   \   000000AC   E34C               LDI     R20, 60
   \   000000AE   E050               LDI     R21, 0
   \   000000B0   019E               MOVW    R19:R18, R29:R28
   \   000000B2   5F2C               SUBI    R18, 252
   \   000000B4   4F3F               SBCI    R19, 255
   \   000000B6   E400               LDI     R16, 64
   \   000000B8   CFF2               RJMP    ??write_menu_8
   \                     ??write_menu_6:
   \   000000BA   EF4F               LDI     R20, 255
   \   000000BC   EF5F               LDI     R21, 255
   \   000000BE   E32A               LDI     R18, 58
   \   000000C0   E030               LDI     R19, 0
   \   000000C2   018E               MOVW    R17:R16, R29:R28
   \   000000C4   5F0C               SUBI    R16, 252
   \   000000C6   4F1F               SBCI    R17, 255
   \   000000C8   ........           CALL    crc_m1
   \   000000CC   AF0E               STD     Y+62, R16
   \   000000CE   AF1F               STD     Y+63, R17
   \   000000D0   E070               LDI     R23, 0
   \   000000D2   E060               LDI     R22, 0
   \   000000D4   E34C               LDI     R20, 60
   \   000000D6   E050               LDI     R21, 0
   \   000000D8   019E               MOVW    R19:R18, R29:R28
   \   000000DA   5F2C               SUBI    R18, 252
   \   000000DC   4F3F               SBCI    R19, 255
   \   000000DE   E104               LDI     R16, 20
   \                     ??write_menu_9:
   \   000000E0   E010               LDI     R17, 0
   \                     ??write_menu_10:
   \   000000E2   ........           CALL    WrArrayToFlesh
   \   000000E6   C752               RJMP    ??write_menu_11
   \                     ??write_menu_12:
   \   000000E8   ....               LDI     R30, LOW(vol_tx_ppp)
   \   000000EA   ....               LDI     R31, (vol_tx_ppp) >> 8
   \   000000EC   8100               LD      R16, Z
   \   000000EE   8111               LDD     R17, Z+1
   \   000000F0   3002               CPI     R16, 2
   \   000000F2   E020               LDI     R18, 0
   \   000000F4   0712               CPC     R17, R18
   \   000000F6   F009               BREQ    $+2+2
   \   000000F8   CFBD               RJMP    ??write_menu_1
   \   000000FA   910C               LD      R16, X
   \   000000FC   5301               SUBI    R16, 49
   \   000000FE   F029               BREQ    ??write_menu_13
   \   00000100   950A               DEC     R16
   \   00000102   F141               BREQ    ??write_menu_14
   \   00000104   950A               DEC     R16
   \   00000106   F199               BREQ    ??write_menu_15
   \   00000108   CFB5               RJMP    ??write_menu_1
   \                     ??write_menu_13:
   \   0000010A   E34C               LDI     R20, 60
   \   0000010C   E050               LDI     R21, 0
   \   0000010E   019E               MOVW    R19:R18, R29:R28
   \   00000110   5F2C               SUBI    R18, 252
   \   00000112   4F3F               SBCI    R19, 255
   \   00000114   EC08               LDI     R16, 200
   \   00000116   E010               LDI     R17, 0
   \   00000118   ........           CALL    RdFromFleshToArr
   \   0000011C   810C               LDD     R16, Y+4
   \   0000011E   2300               TST     R16
   \   00000120   F409               BRNE    $+2+2
   \   00000122   CFA8               RJMP    ??write_menu_1
   \                     ??write_menu_16:
   \   00000124   810C               LDD     R16, Y+4
   \   00000126   310F               CPI     R16, 31
   \   00000128   F008               BRCS    $+2+2
   \   0000012A   CFA4               RJMP    ??write_menu_1
   \   0000012C   EF4F               LDI     R20, 255
   \   0000012E   EF5F               LDI     R21, 255
   \   00000130   E32A               LDI     R18, 58
   \   00000132   E030               LDI     R19, 0
   \   00000134   018E               MOVW    R17:R16, R29:R28
   \   00000136   5F0C               SUBI    R16, 252
   \   00000138   4F1F               SBCI    R17, 255
   \   0000013A   ........           CALL    crc_m1
   \   0000013E   AF0E               STD     Y+62, R16
   \   00000140   AF1F               STD     Y+63, R17
   \   00000142   E070               LDI     R23, 0
   \   00000144   E060               LDI     R22, 0
   \   00000146   E34C               LDI     R20, 60
   \   00000148   E050               LDI     R21, 0
   \   0000014A   019E               MOVW    R19:R18, R29:R28
   \   0000014C   5F2C               SUBI    R18, 252
   \   0000014E   4F3F               SBCI    R19, 255
   \   00000150   E500               LDI     R16, 80
   \   00000152   CFC6               RJMP    ??write_menu_9
   \                     ??write_menu_14:
   \   00000154   E34C               LDI     R20, 60
   \   00000156   E050               LDI     R21, 0
   \   00000158   019E               MOVW    R19:R18, R29:R28
   \   0000015A   5F2C               SUBI    R18, 252
   \   0000015C   4F3F               SBCI    R19, 255
   \   0000015E   E004               LDI     R16, 4
   \                     ??write_menu_17:
   \   00000160   E011               LDI     R17, 1
   \   00000162   ........           CALL    RdFromFleshToArr
   \   00000166   810C               LDD     R16, Y+4
   \   00000168   2300               TST     R16
   \   0000016A   F6E1               BRNE    ??write_menu_16
   \   0000016C   CF83               RJMP    ??write_menu_1
   \                     ??write_menu_15:
   \   0000016E   E34C               LDI     R20, 60
   \   00000170   E050               LDI     R21, 0
   \   00000172   019E               MOVW    R19:R18, R29:R28
   \   00000174   5F2C               SUBI    R18, 252
   \   00000176   4F3F               SBCI    R19, 255
   \   00000178   E400               LDI     R16, 64
   \   0000017A   CFF2               RJMP    ??write_menu_17
   \                     ??write_menu_18:
   \   0000017C   ....               LDI     R30, LOW(vol_tx_ppp)
   \   0000017E   ....               LDI     R31, (vol_tx_ppp) >> 8
   \   00000180   8100               LD      R16, Z
   \   00000182   8111               LDD     R17, Z+1
   \   00000184   3100               CPI     R16, 16
   \   00000186   E020               LDI     R18, 0
   \   00000188   0712               CPC     R17, R18
   \   0000018A   F009               BREQ    $+2+2
   \   0000018C   CF73               RJMP    ??write_menu_1
   \   0000018E   01FD               MOVW    R31:R30, R27:R26
   \   00000190   8103               LDD     R16, Z+3
   \   00000192   320E               CPI     R16, 46
   \   00000194   F009               BREQ    $+2+2
   \   00000196   CF6E               RJMP    ??write_menu_1
   \   00000198   8107               LDD     R16, Z+7
   \   0000019A   320E               CPI     R16, 46
   \   0000019C   F009               BREQ    $+2+2
   \   0000019E   CF6A               RJMP    ??write_menu_1
   \   000001A0   8503               LDD     R16, Z+11
   \   000001A2   320E               CPI     R16, 46
   \   000001A4   F009               BREQ    $+2+2
   \   000001A6   CF66               RJMP    ??write_menu_1
   \   000001A8   E04A               LDI     R20, 10
   \   000001AA   E050               LDI     R21, 0
   \   000001AC   019E               MOVW    R19:R18, R29:R28
   \   000001AE   5F2C               SUBI    R18, 252
   \   000001B0   4F3F               SBCI    R19, 255
   \   000001B2   E80C               LDI     R16, 140
   \   000001B4   E010               LDI     R17, 0
   \   000001B6   ........           CALL    RdFromFleshToArr
   \   000001BA   018D               MOVW    R17:R16, R27:R26
   \   000001BC   ........           CALL    atol
   \   000001C0   8308               ST      Y, R16
   \   000001C2   8319               STD     Y+1, R17
   \   000001C4   832A               STD     Y+2, R18
   \   000001C6   833B               STD     Y+3, R19
   \   000001C8   8108               LD      R16, Y
   \   000001CA   8119               LDD     R17, Y+1
   \   000001CC   812A               LDD     R18, Y+2
   \   000001CE   813B               LDD     R19, Y+3
   \   000001D0   3000               CPI     R16, 0
   \   000001D2   E041               LDI     R20, 1
   \   000001D4   0714               CPC     R17, R20
   \   000001D6   E040               LDI     R20, 0
   \   000001D8   0724               CPC     R18, R20
   \   000001DA   0734               CPC     R19, R20
   \   000001DC   F008               BRCS    $+2+2
   \   000001DE   CF4A               RJMP    ??write_menu_1
   \   000001E0   8108               LD      R16, Y
   \   000001E2   830C               STD     Y+4, R16
   \   000001E4   018D               MOVW    R17:R16, R27:R26
   \   000001E6   5F0C               SUBI    R16, 252
   \   000001E8   4F1F               SBCI    R17, 255
   \   000001EA   ........           CALL    atol
   \   000001EE   8308               ST      Y, R16
   \   000001F0   8319               STD     Y+1, R17
   \   000001F2   832A               STD     Y+2, R18
   \   000001F4   833B               STD     Y+3, R19
   \   000001F6   8108               LD      R16, Y
   \   000001F8   8119               LDD     R17, Y+1
   \   000001FA   812A               LDD     R18, Y+2
   \   000001FC   813B               LDD     R19, Y+3
   \   000001FE   3000               CPI     R16, 0
   \   00000200   E041               LDI     R20, 1
   \   00000202   0714               CPC     R17, R20
   \   00000204   E040               LDI     R20, 0
   \   00000206   0724               CPC     R18, R20
   \   00000208   0734               CPC     R19, R20
   \   0000020A   F008               BRCS    $+2+2
   \   0000020C   CF33               RJMP    ??write_menu_1
   \   0000020E   8108               LD      R16, Y
   \   00000210   830D               STD     Y+5, R16
   \   00000212   018D               MOVW    R17:R16, R27:R26
   \   00000214   5F08               SUBI    R16, 248
   \   00000216   4F1F               SBCI    R17, 255
   \   00000218   ........           CALL    atol
   \   0000021C   8308               ST      Y, R16
   \   0000021E   8319               STD     Y+1, R17
   \   00000220   832A               STD     Y+2, R18
   \   00000222   833B               STD     Y+3, R19
   \   00000224   8108               LD      R16, Y
   \   00000226   8119               LDD     R17, Y+1
   \   00000228   812A               LDD     R18, Y+2
   \   0000022A   813B               LDD     R19, Y+3
   \   0000022C   3000               CPI     R16, 0
   \   0000022E   E041               LDI     R20, 1
   \   00000230   0714               CPC     R17, R20
   \   00000232   E040               LDI     R20, 0
   \   00000234   0724               CPC     R18, R20
   \   00000236   0734               CPC     R19, R20
   \   00000238   F008               BRCS    $+2+2
   \   0000023A   CF1C               RJMP    ??write_menu_1
   \   0000023C   8108               LD      R16, Y
   \   0000023E   830E               STD     Y+6, R16
   \   00000240   961C               ADIW    R27:R26, 12
   \   00000242   018D               MOVW    R17:R16, R27:R26
   \   00000244   ........           CALL    atol
   \   00000248   8308               ST      Y, R16
   \   0000024A   8319               STD     Y+1, R17
   \   0000024C   832A               STD     Y+2, R18
   \   0000024E   833B               STD     Y+3, R19
   \   00000250   8108               LD      R16, Y
   \   00000252   8119               LDD     R17, Y+1
   \   00000254   812A               LDD     R18, Y+2
   \   00000256   813B               LDD     R19, Y+3
   \   00000258   3000               CPI     R16, 0
   \   0000025A   E041               LDI     R20, 1
   \   0000025C   0714               CPC     R17, R20
   \   0000025E   E040               LDI     R20, 0
   \   00000260   0724               CPC     R18, R20
   \   00000262   0734               CPC     R19, R20
   \   00000264   F008               BRCS    $+2+2
   \   00000266   CF06               RJMP    ??write_menu_1
   \   00000268   8108               LD      R16, Y
   \   0000026A   830F               STD     Y+7, R16
   \                     ??write_menu_19:
   \   0000026C   EF4F               LDI     R20, 255
   \   0000026E   EF5F               LDI     R21, 255
   \   00000270   E028               LDI     R18, 8
   \   00000272   E030               LDI     R19, 0
   \   00000274   018E               MOVW    R17:R16, R29:R28
   \   00000276   5F0C               SUBI    R16, 252
   \   00000278   4F1F               SBCI    R17, 255
   \   0000027A   ........           CALL    crc_m1
   \   0000027E   870C               STD     Y+12, R16
   \   00000280   871D               STD     Y+13, R17
   \   00000282   E070               LDI     R23, 0
   \   00000284   E060               LDI     R22, 0
   \   00000286   E04A               LDI     R20, 10
   \   00000288   E050               LDI     R21, 0
   \   0000028A   019E               MOVW    R19:R18, R29:R28
   \   0000028C   5F2C               SUBI    R18, 252
   \   0000028E   4F3F               SBCI    R19, 255
   \   00000290   E80C               LDI     R16, 140
   \   00000292   CF26               RJMP    ??write_menu_9
   \                     ??write_menu_20:
   \   00000294   018D               MOVW    R17:R16, R27:R26
   \   00000296   ........           CALL    atol
   \   0000029A   8308               ST      Y, R16
   \   0000029C   8319               STD     Y+1, R17
   \   0000029E   832A               STD     Y+2, R18
   \   000002A0   833B               STD     Y+3, R19
   \   000002A2   8108               LD      R16, Y
   \   000002A4   8119               LDD     R17, Y+1
   \   000002A6   812A               LDD     R18, Y+2
   \   000002A8   813B               LDD     R19, Y+3
   \   000002AA   3000               CPI     R16, 0
   \   000002AC   E040               LDI     R20, 0
   \   000002AE   0714               CPC     R17, R20
   \   000002B0   E041               LDI     R20, 1
   \   000002B2   0724               CPC     R18, R20
   \   000002B4   E040               LDI     R20, 0
   \   000002B6   0734               CPC     R19, R20
   \   000002B8   F008               BRCS    $+2+2
   \   000002BA   CEDC               RJMP    ??write_menu_1
   \   000002BC   E04A               LDI     R20, 10
   \   000002BE   E050               LDI     R21, 0
   \   000002C0   019E               MOVW    R19:R18, R29:R28
   \   000002C2   5F2C               SUBI    R18, 252
   \   000002C4   4F3F               SBCI    R19, 255
   \   000002C6   E80C               LDI     R16, 140
   \   000002C8   E010               LDI     R17, 0
   \   000002CA   ........           CALL    RdFromFleshToArr
   \   000002CE   8108               LD      R16, Y
   \   000002D0   8119               LDD     R17, Y+1
   \   000002D2   8708               STD     Y+8, R16
   \   000002D4   8719               STD     Y+9, R17
   \   000002D6   CFCA               RJMP    ??write_menu_19
   \                     ??write_menu_21:
   \   000002D8   018D               MOVW    R17:R16, R27:R26
   \   000002DA   ........           CALL    atol
   \   000002DE   8308               ST      Y, R16
   \   000002E0   8319               STD     Y+1, R17
   \   000002E2   832A               STD     Y+2, R18
   \   000002E4   833B               STD     Y+3, R19
   \   000002E6   8108               LD      R16, Y
   \   000002E8   8119               LDD     R17, Y+1
   \   000002EA   812A               LDD     R18, Y+2
   \   000002EC   813B               LDD     R19, Y+3
   \   000002EE   3003               CPI     R16, 3
   \   000002F0   E040               LDI     R20, 0
   \   000002F2   0714               CPC     R17, R20
   \   000002F4   0724               CPC     R18, R20
   \   000002F6   0734               CPC     R19, R20
   \   000002F8   F408               BRCC    $+2+2
   \   000002FA   CEBC               RJMP    ??write_menu_1
   \   000002FC   8108               LD      R16, Y
   \   000002FE   8119               LDD     R17, Y+1
   \   00000300   812A               LDD     R18, Y+2
   \   00000302   813B               LDD     R19, Y+3
   \   00000304   3000               CPI     R16, 0
   \   00000306   0714               CPC     R17, R20
   \   00000308   E041               LDI     R20, 1
   \   0000030A   0724               CPC     R18, R20
   \   0000030C   E040               LDI     R20, 0
   \   0000030E   0734               CPC     R19, R20
   \   00000310   F008               BRCS    $+2+2
   \   00000312   CEB0               RJMP    ??write_menu_1
   \   00000314   E04A               LDI     R20, 10
   \   00000316   E050               LDI     R21, 0
   \   00000318   019E               MOVW    R19:R18, R29:R28
   \   0000031A   5F2C               SUBI    R18, 252
   \   0000031C   4F3F               SBCI    R19, 255
   \   0000031E   E80C               LDI     R16, 140
   \   00000320   E010               LDI     R17, 0
   \   00000322   ........           CALL    RdFromFleshToArr
   \   00000326   8108               LD      R16, Y
   \   00000328   8119               LDD     R17, Y+1
   \   0000032A   870A               STD     Y+10, R16
   \   0000032C   871B               STD     Y+11, R17
   \   0000032E   CF9E               RJMP    ??write_menu_19
   \                     ??write_menu_22:
   \   00000330   018D               MOVW    R17:R16, R27:R26
   \   00000332   ........           CALL    atol
   \   00000336   8308               ST      Y, R16
   \   00000338   8319               STD     Y+1, R17
   \   0000033A   832A               STD     Y+2, R18
   \   0000033C   833B               STD     Y+3, R19
   \   0000033E   8108               LD      R16, Y
   \   00000340   8119               LDD     R17, Y+1
   \   00000342   812A               LDD     R18, Y+2
   \   00000344   813B               LDD     R19, Y+3
   \   00000346   300A               CPI     R16, 10
   \   00000348   E040               LDI     R20, 0
   \   0000034A   0714               CPC     R17, R20
   \   0000034C   0724               CPC     R18, R20
   \   0000034E   0734               CPC     R19, R20
   \   00000350   F408               BRCC    $+2+2
   \   00000352   CE90               RJMP    ??write_menu_1
   \   00000354   8108               LD      R16, Y
   \   00000356   8119               LDD     R17, Y+1
   \   00000358   812A               LDD     R18, Y+2
   \   0000035A   813B               LDD     R19, Y+3
   \   0000035C   3000               CPI     R16, 0
   \   0000035E   0714               CPC     R17, R20
   \   00000360   E041               LDI     R20, 1
   \   00000362   0724               CPC     R18, R20
   \   00000364   E040               LDI     R20, 0
   \   00000366   0734               CPC     R19, R20
   \   00000368   F008               BRCS    $+2+2
   \   0000036A   CE84               RJMP    ??write_menu_1
   \   0000036C   E04E               LDI     R20, 14
   \   0000036E   E050               LDI     R21, 0
   \   00000370   019E               MOVW    R19:R18, R29:R28
   \   00000372   5F2C               SUBI    R18, 252
   \   00000374   4F3F               SBCI    R19, 255
   \   00000376   E906               LDI     R16, 150
   \   00000378   E010               LDI     R17, 0
   \   0000037A   ........           CALL    RdFromFleshToArr
   \   0000037E   8108               LD      R16, Y
   \   00000380   8119               LDD     R17, Y+1
   \   00000382   830C               STD     Y+4, R16
   \   00000384   831D               STD     Y+5, R17
   \                     ??write_menu_23:
   \   00000386   EF4F               LDI     R20, 255
   \   00000388   EF5F               LDI     R21, 255
   \   0000038A   E02C               LDI     R18, 12
   \   0000038C   E030               LDI     R19, 0
   \   0000038E   018E               MOVW    R17:R16, R29:R28
   \   00000390   5F0C               SUBI    R16, 252
   \   00000392   4F1F               SBCI    R17, 255
   \   00000394   ........           CALL    crc_m1
   \   00000398   8B08               STD     Y+16, R16
   \   0000039A   8B19               STD     Y+17, R17
   \   0000039C   E070               LDI     R23, 0
   \   0000039E   E060               LDI     R22, 0
   \   000003A0   E04E               LDI     R20, 14
   \   000003A2   E050               LDI     R21, 0
   \   000003A4   019E               MOVW    R19:R18, R29:R28
   \   000003A6   5F2C               SUBI    R18, 252
   \   000003A8   4F3F               SBCI    R19, 255
   \   000003AA   E906               LDI     R16, 150
   \   000003AC   CE99               RJMP    ??write_menu_9
   \                     ??write_menu_24:
   \   000003AE   018D               MOVW    R17:R16, R27:R26
   \   000003B0   ........           CALL    atol
   \   000003B4   8308               ST      Y, R16
   \   000003B6   8319               STD     Y+1, R17
   \   000003B8   832A               STD     Y+2, R18
   \   000003BA   833B               STD     Y+3, R19
   \   000003BC   8108               LD      R16, Y
   \   000003BE   8119               LDD     R17, Y+1
   \   000003C0   812A               LDD     R18, Y+2
   \   000003C2   813B               LDD     R19, Y+3
   \   000003C4   300A               CPI     R16, 10
   \   000003C6   E040               LDI     R20, 0
   \   000003C8   0714               CPC     R17, R20
   \   000003CA   0724               CPC     R18, R20
   \   000003CC   0734               CPC     R19, R20
   \   000003CE   F408               BRCC    $+2+2
   \   000003D0   CE51               RJMP    ??write_menu_1
   \   000003D2   8108               LD      R16, Y
   \   000003D4   8119               LDD     R17, Y+1
   \   000003D6   812A               LDD     R18, Y+2
   \   000003D8   813B               LDD     R19, Y+3
   \   000003DA   3000               CPI     R16, 0
   \   000003DC   0714               CPC     R17, R20
   \   000003DE   E041               LDI     R20, 1
   \   000003E0   0724               CPC     R18, R20
   \   000003E2   E040               LDI     R20, 0
   \   000003E4   0734               CPC     R19, R20
   \   000003E6   F008               BRCS    $+2+2
   \   000003E8   CE45               RJMP    ??write_menu_1
   \   000003EA   E04E               LDI     R20, 14
   \   000003EC   E050               LDI     R21, 0
   \   000003EE   019E               MOVW    R19:R18, R29:R28
   \   000003F0   5F2C               SUBI    R18, 252
   \   000003F2   4F3F               SBCI    R19, 255
   \   000003F4   E906               LDI     R16, 150
   \   000003F6   E010               LDI     R17, 0
   \   000003F8   ........           CALL    RdFromFleshToArr
   \   000003FC   8108               LD      R16, Y
   \   000003FE   8119               LDD     R17, Y+1
   \   00000400   870E               STD     Y+14, R16
   \   00000402   871F               STD     Y+15, R17
   \   00000404   CFC0               RJMP    ??write_menu_23
   \                     ??write_menu_25:
   \   00000406   018D               MOVW    R17:R16, R27:R26
   \   00000408   ........           CALL    atol
   \   0000040C   8308               ST      Y, R16
   \   0000040E   8319               STD     Y+1, R17
   \   00000410   832A               STD     Y+2, R18
   \   00000412   833B               STD     Y+3, R19
   \   00000414   8108               LD      R16, Y
   \   00000416   8119               LDD     R17, Y+1
   \   00000418   812A               LDD     R18, Y+2
   \   0000041A   813B               LDD     R19, Y+3
   \   0000041C   300A               CPI     R16, 10
   \   0000041E   E040               LDI     R20, 0
   \   00000420   0714               CPC     R17, R20
   \   00000422   0724               CPC     R18, R20
   \   00000424   0734               CPC     R19, R20
   \   00000426   F408               BRCC    $+2+2
   \   00000428   CE25               RJMP    ??write_menu_1
   \   0000042A   8108               LD      R16, Y
   \   0000042C   8119               LDD     R17, Y+1
   \   0000042E   812A               LDD     R18, Y+2
   \   00000430   813B               LDD     R19, Y+3
   \   00000432   3000               CPI     R16, 0
   \   00000434   0714               CPC     R17, R20
   \   00000436   E041               LDI     R20, 1
   \   00000438   0724               CPC     R18, R20
   \   0000043A   E040               LDI     R20, 0
   \   0000043C   0734               CPC     R19, R20
   \   0000043E   F008               BRCS    $+2+2
   \   00000440   CE19               RJMP    ??write_menu_1
   \   00000442   E04E               LDI     R20, 14
   \   00000444   E050               LDI     R21, 0
   \   00000446   019E               MOVW    R19:R18, R29:R28
   \   00000448   5F2C               SUBI    R18, 252
   \   0000044A   4F3F               SBCI    R19, 255
   \   0000044C   E906               LDI     R16, 150
   \   0000044E   E010               LDI     R17, 0
   \   00000450   ........           CALL    RdFromFleshToArr
   \   00000454   8108               LD      R16, Y
   \   00000456   8119               LDD     R17, Y+1
   \   00000458   830E               STD     Y+6, R16
   \   0000045A   831F               STD     Y+7, R17
   \   0000045C   CF94               RJMP    ??write_menu_23
   \                     ??write_menu_26:
   \   0000045E   018D               MOVW    R17:R16, R27:R26
   \   00000460   ........           CALL    atol
   \   00000464   8308               ST      Y, R16
   \   00000466   8319               STD     Y+1, R17
   \   00000468   832A               STD     Y+2, R18
   \   0000046A   833B               STD     Y+3, R19
   \   0000046C   8108               LD      R16, Y
   \   0000046E   8119               LDD     R17, Y+1
   \   00000470   812A               LDD     R18, Y+2
   \   00000472   813B               LDD     R19, Y+3
   \   00000474   3005               CPI     R16, 5
   \   00000476   E040               LDI     R20, 0
   \   00000478   0714               CPC     R17, R20
   \   0000047A   0724               CPC     R18, R20
   \   0000047C   0734               CPC     R19, R20
   \   0000047E   F408               BRCC    $+2+2
   \   00000480   CDF9               RJMP    ??write_menu_1
   \   00000482   8108               LD      R16, Y
   \   00000484   8119               LDD     R17, Y+1
   \   00000486   812A               LDD     R18, Y+2
   \   00000488   813B               LDD     R19, Y+3
   \   0000048A   3000               CPI     R16, 0
   \   0000048C   0714               CPC     R17, R20
   \   0000048E   E041               LDI     R20, 1
   \   00000490   0724               CPC     R18, R20
   \   00000492   E040               LDI     R20, 0
   \   00000494   0734               CPC     R19, R20
   \   00000496   F008               BRCS    $+2+2
   \   00000498   CDED               RJMP    ??write_menu_1
   \   0000049A   E04E               LDI     R20, 14
   \   0000049C   E050               LDI     R21, 0
   \   0000049E   019E               MOVW    R19:R18, R29:R28
   \   000004A0   5F2C               SUBI    R18, 252
   \   000004A2   4F3F               SBCI    R19, 255
   \   000004A4   E906               LDI     R16, 150
   \   000004A6   E010               LDI     R17, 0
   \   000004A8   ........           CALL    RdFromFleshToArr
   \   000004AC   8108               LD      R16, Y
   \   000004AE   8119               LDD     R17, Y+1
   \   000004B0   8708               STD     Y+8, R16
   \   000004B2   8719               STD     Y+9, R17
   \   000004B4   CF68               RJMP    ??write_menu_23
   \                     ??write_menu_27:
   \   000004B6   018D               MOVW    R17:R16, R27:R26
   \   000004B8   ........           CALL    atol
   \   000004BC   8308               ST      Y, R16
   \   000004BE   8319               STD     Y+1, R17
   \   000004C0   832A               STD     Y+2, R18
   \   000004C2   833B               STD     Y+3, R19
   \   000004C4   8108               LD      R16, Y
   \   000004C6   8119               LDD     R17, Y+1
   \   000004C8   812A               LDD     R18, Y+2
   \   000004CA   813B               LDD     R19, Y+3
   \   000004CC   3000               CPI     R16, 0
   \   000004CE   E040               LDI     R20, 0
   \   000004D0   0714               CPC     R17, R20
   \   000004D2   E041               LDI     R20, 1
   \   000004D4   0724               CPC     R18, R20
   \   000004D6   E040               LDI     R20, 0
   \   000004D8   0734               CPC     R19, R20
   \   000004DA   F008               BRCS    $+2+2
   \   000004DC   CDCB               RJMP    ??write_menu_1
   \   000004DE   E04E               LDI     R20, 14
   \   000004E0   E050               LDI     R21, 0
   \   000004E2   019E               MOVW    R19:R18, R29:R28
   \   000004E4   5F2C               SUBI    R18, 252
   \   000004E6   4F3F               SBCI    R19, 255
   \   000004E8   E906               LDI     R16, 150
   \   000004EA   E010               LDI     R17, 0
   \   000004EC   ........           CALL    RdFromFleshToArr
   \   000004F0   8108               LD      R16, Y
   \   000004F2   8119               LDD     R17, Y+1
   \   000004F4   812A               LDD     R18, Y+2
   \   000004F6   813B               LDD     R19, Y+3
   \   000004F8   2B01               OR      R16, R17
   \   000004FA   2B02               OR      R16, R18
   \   000004FC   2B03               OR      R16, R19
   \   000004FE   F0A1               BREQ    ??write_menu_28
   \   00000500   818E               LDD     R24, Y+6
   \   00000502   819F               LDD     R25, Y+7
   \   00000504   E0A0               LDI     R26, 0
   \   00000506   E0B0               LDI     R27, 0
   \   00000508   8148               LD      R20, Y
   \   0000050A   8159               LDD     R21, Y+1
   \   0000050C   816A               LDD     R22, Y+2
   \   0000050E   817B               LDD     R23, Y+3
   \   00000510   E30C               LDI     R16, 60
   \   00000512   E010               LDI     R17, 0
   \   00000514   E020               LDI     R18, 0
   \   00000516   E030               LDI     R19, 0
   \   00000518   ........           CALL    ?L_EC_MUL_L03
   \   0000051C   1780               CP      R24, R16
   \   0000051E   0791               CPC     R25, R17
   \   00000520   07A2               CPC     R26, R18
   \   00000522   07B3               CPC     R27, R19
   \   00000524   F008               BRCS    $+2+2
   \   00000526   CDA6               RJMP    ??write_menu_1
   \                     ??write_menu_28:
   \   00000528   8108               LD      R16, Y
   \   0000052A   8119               LDD     R17, Y+1
   \   0000052C   870A               STD     Y+10, R16
   \   0000052E   871B               STD     Y+11, R17
   \   00000530   CF2A               RJMP    ??write_menu_23
   \                     ??write_menu_29:
   \   00000532   018D               MOVW    R17:R16, R27:R26
   \   00000534   ........           CALL    atol
   \   00000538   8308               ST      Y, R16
   \   0000053A   8319               STD     Y+1, R17
   \   0000053C   832A               STD     Y+2, R18
   \   0000053E   833B               STD     Y+3, R19
   \   00000540   8108               LD      R16, Y
   \   00000542   8119               LDD     R17, Y+1
   \   00000544   812A               LDD     R18, Y+2
   \   00000546   813B               LDD     R19, Y+3
   \   00000548   310E               CPI     R16, 30
   \   0000054A   E040               LDI     R20, 0
   \   0000054C   0714               CPC     R17, R20
   \   0000054E   0724               CPC     R18, R20
   \   00000550   0734               CPC     R19, R20
   \   00000552   F408               BRCC    $+2+2
   \   00000554   CD8F               RJMP    ??write_menu_1
   \   00000556   8108               LD      R16, Y
   \   00000558   8119               LDD     R17, Y+1
   \   0000055A   812A               LDD     R18, Y+2
   \   0000055C   813B               LDD     R19, Y+3
   \   0000055E   3000               CPI     R16, 0
   \   00000560   0714               CPC     R17, R20
   \   00000562   E041               LDI     R20, 1
   \   00000564   0724               CPC     R18, R20
   \   00000566   E040               LDI     R20, 0
   \   00000568   0734               CPC     R19, R20
   \   0000056A   F008               BRCS    $+2+2
   \   0000056C   CD83               RJMP    ??write_menu_1
   \   0000056E   E04E               LDI     R20, 14
   \   00000570   E050               LDI     R21, 0
   \   00000572   019E               MOVW    R19:R18, R29:R28
   \   00000574   5F2C               SUBI    R18, 252
   \   00000576   4F3F               SBCI    R19, 255
   \   00000578   E906               LDI     R16, 150
   \   0000057A   E010               LDI     R17, 0
   \   0000057C   ........           CALL    RdFromFleshToArr
   \   00000580   818E               LDD     R24, Y+6
   \   00000582   819F               LDD     R25, Y+7
   \   00000584   E0A0               LDI     R26, 0
   \   00000586   E0B0               LDI     R27, 0
   \   00000588   8148               LD      R20, Y
   \   0000058A   8159               LDD     R21, Y+1
   \   0000058C   816A               LDD     R22, Y+2
   \   0000058E   817B               LDD     R23, Y+3
   \   00000590   E30C               LDI     R16, 60
   \   00000592   E010               LDI     R17, 0
   \   00000594   E020               LDI     R18, 0
   \   00000596   E030               LDI     R19, 0
   \   00000598   ........           CALL    ?L_EC_MUL_L03
   \   0000059C   1780               CP      R24, R16
   \   0000059E   0791               CPC     R25, R17
   \   000005A0   07A2               CPC     R26, R18
   \   000005A2   07B3               CPC     R27, R19
   \   000005A4   F008               BRCS    $+2+2
   \   000005A6   CD66               RJMP    ??write_menu_1
   \   000005A8   8108               LD      R16, Y
   \   000005AA   8119               LDD     R17, Y+1
   \   000005AC   870C               STD     Y+12, R16
   \   000005AE   871D               STD     Y+13, R17
   \   000005B0   CEEA               RJMP    ??write_menu_23
   \                     ??write_menu_30:
   \   000005B2   ....               LDI     R30, LOW(vol_tx_ppp)
   \   000005B4   ....               LDI     R31, (vol_tx_ppp) >> 8
   \   000005B6   8100               LD      R16, Z
   \   000005B8   8111               LDD     R17, Z+1
   \   000005BA   3002               CPI     R16, 2
   \   000005BC   E020               LDI     R18, 0
   \   000005BE   0712               CPC     R17, R18
   \   000005C0   F009               BREQ    $+2+2
   \   000005C2   CD58               RJMP    ??write_menu_1
   \   000005C4   910C               LD      R16, X
   \   000005C6   3300               CPI     R16, 48
   \   000005C8   F021               BREQ    ??write_menu_31
   \   000005CA   910C               LD      R16, X
   \   000005CC   3301               CPI     R16, 49
   \   000005CE   F009               BREQ    $+2+2
   \   000005D0   CD51               RJMP    ??write_menu_1
   \                     ??write_menu_31:
   \   000005D2   910C               LD      R16, X
   \   000005D4   5300               SUBI    R16, 48
   \   000005D6   8308               ST      Y, R16
   \   000005D8   E04B               LDI     R20, 11
   \   000005DA   E050               LDI     R21, 0
   \   000005DC   019E               MOVW    R19:R18, R29:R28
   \   000005DE   5F2C               SUBI    R18, 252
   \   000005E0   4F3F               SBCI    R19, 255
   \   000005E2   EA04               LDI     R16, 164
   \   000005E4   E010               LDI     R17, 0
   \   000005E6   ........           CALL    RdFromFleshToArr
   \   000005EA   8108               LD      R16, Y
   \   000005EC   830C               STD     Y+4, R16
   \                     ??write_menu_32:
   \   000005EE   EF4F               LDI     R20, 255
   \   000005F0   EF5F               LDI     R21, 255
   \   000005F2   E029               LDI     R18, 9
   \   000005F4   E030               LDI     R19, 0
   \   000005F6   018E               MOVW    R17:R16, R29:R28
   \   000005F8   5F0C               SUBI    R16, 252
   \   000005FA   4F1F               SBCI    R17, 255
   \   000005FC   ........           CALL    crc_m1
   \   00000600   870D               STD     Y+13, R16
   \   00000602   871E               STD     Y+14, R17
   \   00000604   E070               LDI     R23, 0
   \   00000606   E060               LDI     R22, 0
   \   00000608   E04B               LDI     R20, 11
   \   0000060A   E050               LDI     R21, 0
   \   0000060C   019E               MOVW    R19:R18, R29:R28
   \   0000060E   5F2C               SUBI    R18, 252
   \   00000610   4F3F               SBCI    R19, 255
   \   00000612   EA04               LDI     R16, 164
   \   00000614   CD65               RJMP    ??write_menu_9
   \                     ??write_menu_33:
   \   00000616   018D               MOVW    R17:R16, R27:R26
   \   00000618   ........           CALL    atol
   \   0000061C   8308               ST      Y, R16
   \   0000061E   8319               STD     Y+1, R17
   \   00000620   832A               STD     Y+2, R18
   \   00000622   833B               STD     Y+3, R19
   \   00000624   8108               LD      R16, Y
   \   00000626   8119               LDD     R17, Y+1
   \   00000628   812A               LDD     R18, Y+2
   \   0000062A   813B               LDD     R19, Y+3
   \   0000062C   3003               CPI     R16, 3
   \   0000062E   E040               LDI     R20, 0
   \   00000630   0714               CPC     R17, R20
   \   00000632   0724               CPC     R18, R20
   \   00000634   0734               CPC     R19, R20
   \   00000636   F408               BRCC    $+2+2
   \   00000638   CD1D               RJMP    ??write_menu_1
   \   0000063A   8108               LD      R16, Y
   \   0000063C   8119               LDD     R17, Y+1
   \   0000063E   812A               LDD     R18, Y+2
   \   00000640   813B               LDD     R19, Y+3
   \   00000642   3000               CPI     R16, 0
   \   00000644   0714               CPC     R17, R20
   \   00000646   E041               LDI     R20, 1
   \   00000648   0724               CPC     R18, R20
   \   0000064A   E040               LDI     R20, 0
   \   0000064C   0734               CPC     R19, R20
   \   0000064E   F008               BRCS    $+2+2
   \   00000650   CD11               RJMP    ??write_menu_1
   \   00000652   E04B               LDI     R20, 11
   \   00000654   E050               LDI     R21, 0
   \   00000656   019E               MOVW    R19:R18, R29:R28
   \   00000658   5F2C               SUBI    R18, 252
   \   0000065A   4F3F               SBCI    R19, 255
   \   0000065C   EA04               LDI     R16, 164
   \   0000065E   E010               LDI     R17, 0
   \   00000660   ........           CALL    RdFromFleshToArr
   \   00000664   8108               LD      R16, Y
   \   00000666   8119               LDD     R17, Y+1
   \   00000668   830D               STD     Y+5, R16
   \   0000066A   831E               STD     Y+6, R17
   \   0000066C   CFC0               RJMP    ??write_menu_32
   \                     ??write_menu_34:
   \   0000066E   018D               MOVW    R17:R16, R27:R26
   \   00000670   ........           CALL    atol
   \   00000674   8308               ST      Y, R16
   \   00000676   8319               STD     Y+1, R17
   \   00000678   832A               STD     Y+2, R18
   \   0000067A   833B               STD     Y+3, R19
   \   0000067C   8108               LD      R16, Y
   \   0000067E   8119               LDD     R17, Y+1
   \   00000680   812A               LDD     R18, Y+2
   \   00000682   813B               LDD     R19, Y+3
   \   00000684   2B01               OR      R16, R17
   \   00000686   2B02               OR      R16, R18
   \   00000688   2B03               OR      R16, R19
   \   0000068A   F409               BRNE    $+2+2
   \   0000068C   CCF3               RJMP    ??write_menu_1
   \   0000068E   8108               LD      R16, Y
   \   00000690   8119               LDD     R17, Y+1
   \   00000692   812A               LDD     R18, Y+2
   \   00000694   813B               LDD     R19, Y+3
   \   00000696   3000               CPI     R16, 0
   \   00000698   E040               LDI     R20, 0
   \   0000069A   0714               CPC     R17, R20
   \   0000069C   E041               LDI     R20, 1
   \   0000069E   0724               CPC     R18, R20
   \   000006A0   E040               LDI     R20, 0
   \   000006A2   0734               CPC     R19, R20
   \   000006A4   F008               BRCS    $+2+2
   \   000006A6   CCE6               RJMP    ??write_menu_1
   \   000006A8   E04B               LDI     R20, 11
   \   000006AA   E050               LDI     R21, 0
   \   000006AC   019E               MOVW    R19:R18, R29:R28
   \   000006AE   5F2C               SUBI    R18, 252
   \   000006B0   4F3F               SBCI    R19, 255
   \   000006B2   EA04               LDI     R16, 164
   \   000006B4   E010               LDI     R17, 0
   \   000006B6   ........           CALL    RdFromFleshToArr
   \   000006BA   8108               LD      R16, Y
   \   000006BC   8119               LDD     R17, Y+1
   \   000006BE   830F               STD     Y+7, R16
   \   000006C0   8718               STD     Y+8, R17
   \   000006C2   CF95               RJMP    ??write_menu_32
   \                     ??write_menu_35:
   \   000006C4   018D               MOVW    R17:R16, R27:R26
   \   000006C6   ........           CALL    atol
   \   000006CA   8308               ST      Y, R16
   \   000006CC   8319               STD     Y+1, R17
   \   000006CE   832A               STD     Y+2, R18
   \   000006D0   833B               STD     Y+3, R19
   \   000006D2   8108               LD      R16, Y
   \   000006D4   8119               LDD     R17, Y+1
   \   000006D6   812A               LDD     R18, Y+2
   \   000006D8   813B               LDD     R19, Y+3
   \   000006DA   3005               CPI     R16, 5
   \   000006DC   E040               LDI     R20, 0
   \   000006DE   0714               CPC     R17, R20
   \   000006E0   0724               CPC     R18, R20
   \   000006E2   0734               CPC     R19, R20
   \   000006E4   F408               BRCC    $+2+2
   \   000006E6   CCC6               RJMP    ??write_menu_1
   \   000006E8   8108               LD      R16, Y
   \   000006EA   8119               LDD     R17, Y+1
   \   000006EC   812A               LDD     R18, Y+2
   \   000006EE   813B               LDD     R19, Y+3
   \   000006F0   3000               CPI     R16, 0
   \   000006F2   0714               CPC     R17, R20
   \   000006F4   E041               LDI     R20, 1
   \   000006F6   0724               CPC     R18, R20
   \   000006F8   E040               LDI     R20, 0
   \   000006FA   0734               CPC     R19, R20
   \   000006FC   F008               BRCS    $+2+2
   \   000006FE   CCBA               RJMP    ??write_menu_1
   \   00000700   E04B               LDI     R20, 11
   \   00000702   E050               LDI     R21, 0
   \   00000704   019E               MOVW    R19:R18, R29:R28
   \   00000706   5F2C               SUBI    R18, 252
   \   00000708   4F3F               SBCI    R19, 255
   \   0000070A   EA04               LDI     R16, 164
   \   0000070C   E010               LDI     R17, 0
   \   0000070E   ........           CALL    RdFromFleshToArr
   \   00000712   8108               LD      R16, Y
   \   00000714   8119               LDD     R17, Y+1
   \   00000716   8709               STD     Y+9, R16
   \   00000718   871A               STD     Y+10, R17
   \   0000071A   CF69               RJMP    ??write_menu_32
   \                     ??write_menu_36:
   \   0000071C   018D               MOVW    R17:R16, R27:R26
   \   0000071E   ........           CALL    atol
   \   00000722   8308               ST      Y, R16
   \   00000724   8319               STD     Y+1, R17
   \   00000726   832A               STD     Y+2, R18
   \   00000728   833B               STD     Y+3, R19
   \   0000072A   8108               LD      R16, Y
   \   0000072C   8119               LDD     R17, Y+1
   \   0000072E   812A               LDD     R18, Y+2
   \   00000730   813B               LDD     R19, Y+3
   \   00000732   3003               CPI     R16, 3
   \   00000734   E040               LDI     R20, 0
   \   00000736   0714               CPC     R17, R20
   \   00000738   0724               CPC     R18, R20
   \   0000073A   0734               CPC     R19, R20
   \   0000073C   F008               BRCS    $+2+2
   \   0000073E   CC9A               RJMP    ??write_menu_1
   \   00000740   E04B               LDI     R20, 11
   \   00000742   E050               LDI     R21, 0
   \   00000744   019E               MOVW    R19:R18, R29:R28
   \   00000746   5F2C               SUBI    R18, 252
   \   00000748   4F3F               SBCI    R19, 255
   \   0000074A   EA04               LDI     R16, 164
   \   0000074C   E010               LDI     R17, 0
   \   0000074E   ........           CALL    RdFromFleshToArr
   \   00000752   8108               LD      R16, Y
   \   00000754   870B               STD     Y+11, R16
   \   00000756   CF4B               RJMP    ??write_menu_32
   \                     ??write_menu_37:
   \   00000758   018D               MOVW    R17:R16, R27:R26
   \   0000075A   ........           CALL    atol
   \   0000075E   8308               ST      Y, R16
   \   00000760   8319               STD     Y+1, R17
   \   00000762   832A               STD     Y+2, R18
   \   00000764   833B               STD     Y+3, R19
   \   00000766   8108               LD      R16, Y
   \   00000768   8119               LDD     R17, Y+1
   \   0000076A   812A               LDD     R18, Y+2
   \   0000076C   813B               LDD     R19, Y+3
   \   0000076E   3002               CPI     R16, 2
   \   00000770   E040               LDI     R20, 0
   \   00000772   0714               CPC     R17, R20
   \   00000774   0724               CPC     R18, R20
   \   00000776   0734               CPC     R19, R20
   \   00000778   F008               BRCS    $+2+2
   \   0000077A   CC7C               RJMP    ??write_menu_1
   \   0000077C   E04B               LDI     R20, 11
   \   0000077E   E050               LDI     R21, 0
   \   00000780   019E               MOVW    R19:R18, R29:R28
   \   00000782   5F2C               SUBI    R18, 252
   \   00000784   4F3F               SBCI    R19, 255
   \   00000786   EA04               LDI     R16, 164
   \   00000788   E010               LDI     R17, 0
   \   0000078A   ........           CALL    RdFromFleshToArr
   \   0000078E   8108               LD      R16, Y
   \   00000790   870C               STD     Y+12, R16
   \   00000792   CF2D               RJMP    ??write_menu_32
   \                     ??write_menu_38:
   \   00000794   018D               MOVW    R17:R16, R27:R26
   \   00000796   ........           CALL    atol
   \   0000079A   8308               ST      Y, R16
   \   0000079C   8319               STD     Y+1, R17
   \   0000079E   832A               STD     Y+2, R18
   \   000007A0   833B               STD     Y+3, R19
   \   000007A2   8108               LD      R16, Y
   \   000007A4   8119               LDD     R17, Y+1
   \   000007A6   812A               LDD     R18, Y+2
   \   000007A8   813B               LDD     R19, Y+3
   \   000007AA   3004               CPI     R16, 4
   \   000007AC   E040               LDI     R20, 0
   \   000007AE   0714               CPC     R17, R20
   \   000007B0   0724               CPC     R18, R20
   \   000007B2   0734               CPC     R19, R20
   \   000007B4   F008               BRCS    $+2+2
   \   000007B6   CC5E               RJMP    ??write_menu_1
   \   000007B8   8108               LD      R16, Y
   \   000007BA   E043               LDI     R20, 3
   \   000007BC   E050               LDI     R21, 0
   \   000007BE   ........           CALL    __eeput8_16
   \   000007C2   C3E4               RJMP    ??write_menu_11
   \                     ??write_menu_39:
   \   000007C4   ....               LDI     R30, LOW(vol_tx_ppp)
   \   000007C6   ....               LDI     R31, (vol_tx_ppp) >> 8
   \   000007C8   8180               LD      R24, Z
   \   000007CA   8191               LDD     R25, Z+1
   \   000007CC   3087               CPI     R24, 7
   \   000007CE   4090               SBCI    R25, 0
   \   000007D0   F408               BRCC    $+2+2
   \   000007D2   CC50               RJMP    ??write_menu_1
   \   000007D4   8100               LD      R16, Z
   \   000007D6   8111               LDD     R17, Z+1
   \   000007D8   330D               CPI     R16, 61
   \   000007DA   E020               LDI     R18, 0
   \   000007DC   0712               CPC     R17, R18
   \   000007DE   F008               BRCS    $+2+2
   \   000007E0   CC49               RJMP    ??write_menu_1
   \   000007E2   910C               LD      R16, X
   \   000007E4   3202               CPI     R16, 34
   \   000007E6   F009               BREQ    $+2+2
   \   000007E8   CC45               RJMP    ??write_menu_1
   \   000007EA   01F2               MOVW    R31:R30, R5:R4
   \   000007EC   8100               LD      R16, Z
   \   000007EE   3202               CPI     R16, 34
   \   000007F0   F009               BREQ    $+2+2
   \   000007F2   CC40               RJMP    ??write_menu_1
   \   000007F4   E34C               LDI     R20, 60
   \   000007F6   E050               LDI     R21, 0
   \   000007F8   019E               MOVW    R19:R18, R29:R28
   \   000007FA   5F2C               SUBI    R18, 252
   \   000007FC   4F3F               SBCI    R19, 255
   \   000007FE   EC08               LDI     R16, 200
   \   00000800   E010               LDI     R17, 0
   \   00000802   ........           CALL    RdFromFleshToArr
   \   00000806   E020               LDI     R18, 0
   \   00000808   E001               LDI     R16, 1
   \   0000080A   C002               RJMP    ??write_menu_40
   \                     ??write_menu_41:
   \   0000080C   9503               INC     R16
   \   0000080E   9523               INC     R18
   \                     ??write_menu_40:
   \   00000810   E010               LDI     R17, 0
   \   00000812   01FD               MOVW    R31:R30, R27:R26
   \   00000814   0FE0               ADD     R30, R16
   \   00000816   1FF1               ADC     R31, R17
   \   00000818   8110               LD      R17, Z
   \   0000081A   3212               CPI     R17, 34
   \   0000081C   F7B9               BRNE    ??write_menu_41
   \   0000081E   ....               LDI     R30, LOW(vol_tx_ppp)
   \   00000820   ....               LDI     R31, (vol_tx_ppp) >> 8
   \   00000822   8000               LD      R0, Z
   \   00000824   8011               LDD     R1, Z+1
   \   00000826   EF1E               LDI     R17, 254
   \   00000828   0E01               ADD     R0, R17
   \   0000082A   EF1F               LDI     R17, 255
   \   0000082C   1E11               ADC     R1, R17
   \   0000082E   E010               LDI     R17, 0
   \   00000830   1500               CP      R16, R0
   \   00000832   0511               CPC     R17, R1
   \   00000834   F008               BRCS    $+2+2
   \   00000836   CC1E               RJMP    ??write_menu_1
   \   00000838   9503               INC     R16
   \   0000083A   01FD               MOVW    R31:R30, R27:R26
   \   0000083C   0FE0               ADD     R30, R16
   \   0000083E   1FF1               ADC     R31, R17
   \   00000840   8110               LD      R17, Z
   \   00000842   3212               CPI     R17, 34
   \   00000844   F009               BREQ    $+2+2
   \   00000846   CC16               RJMP    ??write_menu_1
   \   00000848   ....               LDI     R30, LOW(vol_tx_ppp)
   \   0000084A   ....               LDI     R31, (vol_tx_ppp) >> 8
   \   0000084C   8180               LD      R24, Z
   \   0000084E   8191               LDD     R25, Z+1
   \   00000850   9701               SBIW    R25:R24, 1
   \   00000852   E010               LDI     R17, 0
   \   00000854   1708               CP      R16, R24
   \   00000856   0719               CPC     R17, R25
   \   00000858   F008               BRCS    $+2+2
   \   0000085A   CC0C               RJMP    ??write_menu_1
   \   0000085C   832C               STD     Y+4, R18
   \   0000085E   E020               LDI     R18, 0
   \   00000860   C00C               RJMP    ??write_menu_42
   \                     ??write_menu_43:
   \   00000862   2F42               MOV     R20, R18
   \   00000864   E050               LDI     R21, 0
   \   00000866   01FD               MOVW    R31:R30, R27:R26
   \   00000868   0FE4               ADD     R30, R20
   \   0000086A   1FF5               ADC     R31, R21
   \   0000086C   8111               LDD     R17, Z+1
   \   0000086E   01FE               MOVW    R31:R30, R29:R28
   \   00000870   9634               ADIW    R31:R30, 4
   \   00000872   0FE4               ADD     R30, R20
   \   00000874   1FF5               ADC     R31, R21
   \   00000876   8311               STD     Z+1, R17
   \   00000878   9523               INC     R18
   \                     ??write_menu_42:
   \   0000087A   811C               LDD     R17, Y+4
   \   0000087C   1721               CP      R18, R17
   \   0000087E   F388               BRCS    ??write_menu_43
   \   00000880   814C               LDD     R20, Y+4
   \   00000882   9543               INC     R20
   \   00000884   E020               LDI     R18, 0
   \   00000886   9503               INC     R16
   \   00000888   2F60               MOV     R22, R16
   \   0000088A   C002               RJMP    ??write_menu_44
   \                     ??write_menu_45:
   \   0000088C   9503               INC     R16
   \   0000088E   9523               INC     R18
   \                     ??write_menu_44:
   \   00000890   E010               LDI     R17, 0
   \   00000892   01FD               MOVW    R31:R30, R27:R26
   \   00000894   0FE0               ADD     R30, R16
   \   00000896   1FF1               ADC     R31, R17
   \   00000898   8110               LD      R17, Z
   \   0000089A   3212               CPI     R17, 34
   \   0000089C   F7B9               BRNE    ??write_menu_45
   \   0000089E   E010               LDI     R17, 0
   \   000008A0   1500               CP      R16, R0
   \   000008A2   0511               CPC     R17, R1
   \   000008A4   F008               BRCS    $+2+2
   \   000008A6   CBE6               RJMP    ??write_menu_1
   \   000008A8   9503               INC     R16
   \   000008AA   01FD               MOVW    R31:R30, R27:R26
   \   000008AC   0FE0               ADD     R30, R16
   \   000008AE   1FF1               ADC     R31, R17
   \   000008B0   8110               LD      R17, Z
   \   000008B2   3212               CPI     R17, 34
   \   000008B4   F009               BREQ    $+2+2
   \   000008B6   CBDE               RJMP    ??write_menu_1
   \   000008B8   E010               LDI     R17, 0
   \   000008BA   1708               CP      R16, R24
   \   000008BC   0719               CPC     R17, R25
   \   000008BE   F008               BRCS    $+2+2
   \   000008C0   CBD9               RJMP    ??write_menu_1
   \   000008C2   2433               CLR     R3
   \   000008C4   010E               MOVW    R1:R0, R29:R28
   \   000008C6   E014               LDI     R17, 4
   \   000008C8   0E01               ADD     R0, R17
   \   000008CA   1C13               ADC     R1, R3
   \   000008CC   0E04               ADD     R0, R20
   \   000008CE   1C13               ADC     R1, R3
   \   000008D0   01F0               MOVW    R31:R30, R1:R0
   \   000008D2   8320               ST      Z, R18
   \   000008D4   E020               LDI     R18, 0
   \   000008D6   C012               RJMP    ??write_menu_46
   \                     ??write_menu_47:
   \   000008D8   2E42               MOV     R4, R18
   \   000008DA   2455               CLR     R5
   \   000008DC   2E66               MOV     R6, R22
   \   000008DE   2477               CLR     R7
   \   000008E0   0C64               ADD     R6, R4
   \   000008E2   1C73               ADC     R7, R3
   \   000008E4   01FD               MOVW    R31:R30, R27:R26
   \   000008E6   0DE6               ADD     R30, R6
   \   000008E8   1DF7               ADC     R31, R7
   \   000008EA   8130               LD      R19, Z
   \   000008EC   01FE               MOVW    R31:R30, R29:R28
   \   000008EE   9634               ADIW    R31:R30, 4
   \   000008F0   0E44               ADD     R4, R20
   \   000008F2   1C53               ADC     R5, R3
   \   000008F4   0DE4               ADD     R30, R4
   \   000008F6   1DF5               ADC     R31, R5
   \   000008F8   8331               STD     Z+1, R19
   \   000008FA   9523               INC     R18
   \                     ??write_menu_46:
   \   000008FC   01F0               MOVW    R31:R30, R1:R0
   \   000008FE   8110               LD      R17, Z
   \   00000900   1721               CP      R18, R17
   \   00000902   F350               BRCS    ??write_menu_47
   \   00000904   9513               INC     R17
   \   00000906   0F41               ADD     R20, R17
   \   00000908   E020               LDI     R18, 0
   \   0000090A   9503               INC     R16
   \   0000090C   2F60               MOV     R22, R16
   \   0000090E   C002               RJMP    ??write_menu_48
   \                     ??write_menu_49:
   \   00000910   9503               INC     R16
   \   00000912   9523               INC     R18
   \                     ??write_menu_48:
   \   00000914   01FD               MOVW    R31:R30, R27:R26
   \   00000916   0FE0               ADD     R30, R16
   \   00000918   1DF3               ADC     R31, R3
   \   0000091A   8110               LD      R17, Z
   \   0000091C   3212               CPI     R17, 34
   \   0000091E   F7C1               BRNE    ??write_menu_49
   \   00000920   E010               LDI     R17, 0
   \   00000922   1708               CP      R16, R24
   \   00000924   0719               CPC     R17, R25
   \   00000926   F008               BRCS    $+2+2
   \   00000928   CBA5               RJMP    ??write_menu_1
   \   0000092A   E050               LDI     R21, 0
   \   0000092C   018E               MOVW    R17:R16, R29:R28
   \   0000092E   5F0C               SUBI    R16, 252
   \   00000930   4F1F               SBCI    R17, 255
   \   00000932   0F04               ADD     R16, R20
   \   00000934   1D13               ADC     R17, R3
   \   00000936   01F8               MOVW    R31:R30, R17:R16
   \   00000938   8320               ST      Z, R18
   \   0000093A   E020               LDI     R18, 0
   \   0000093C   C012               RJMP    ??write_menu_50
   \                     ??write_menu_51:
   \   0000093E   2E02               MOV     R0, R18
   \   00000940   2411               CLR     R1
   \   00000942   2E26               MOV     R2, R22
   \   00000944   2433               CLR     R3
   \   00000946   0C20               ADD     R2, R0
   \   00000948   1E35               ADC     R3, R21
   \   0000094A   01FD               MOVW    R31:R30, R27:R26
   \   0000094C   0DE2               ADD     R30, R2
   \   0000094E   1DF3               ADC     R31, R3
   \   00000950   8130               LD      R19, Z
   \   00000952   01FE               MOVW    R31:R30, R29:R28
   \   00000954   9634               ADIW    R31:R30, 4
   \   00000956   0E04               ADD     R0, R20
   \   00000958   1E15               ADC     R1, R21
   \   0000095A   0DE0               ADD     R30, R0
   \   0000095C   1DF1               ADC     R31, R1
   \   0000095E   8331               STD     Z+1, R19
   \   00000960   9523               INC     R18
   \                     ??write_menu_50:
   \   00000962   01F8               MOVW    R31:R30, R17:R16
   \   00000964   8130               LD      R19, Z
   \   00000966   1723               CP      R18, R19
   \   00000968   F350               BRCS    ??write_menu_51
   \   0000096A   EF4F               LDI     R20, 255
   \   0000096C   EF5F               LDI     R21, 255
   \   0000096E   E32A               LDI     R18, 58
   \   00000970   E030               LDI     R19, 0
   \   00000972   018E               MOVW    R17:R16, R29:R28
   \   00000974   5F0C               SUBI    R16, 252
   \   00000976   4F1F               SBCI    R17, 255
   \   00000978   ........           CALL    crc_m1
   \   0000097C   AF0E               STD     Y+62, R16
   \   0000097E   AF1F               STD     Y+63, R17
   \   00000980   E070               LDI     R23, 0
   \   00000982   E060               LDI     R22, 0
   \   00000984   E34C               LDI     R20, 60
   \   00000986   E050               LDI     R21, 0
   \   00000988   019E               MOVW    R19:R18, R29:R28
   \   0000098A   5F2C               SUBI    R18, 252
   \   0000098C   4F3F               SBCI    R19, 255
   \   0000098E   EC08               LDI     R16, 200
   \   00000990   E010               LDI     R17, 0
   \   00000992   ........           CALL    WrArrayToFlesh
   \   00000996   E000               LDI     R16, 0
   \   00000998   ....               LDI     R30, LOW(vol_tx_ppp)
   \   0000099A   ....               LDI     R31, (vol_tx_ppp) >> 8
   \   0000099C   8300               ST      Z, R16
   \   0000099E   8301               STD     Z+1, R16
   \   000009A0   ....               LDI     R18, LOW((keys_def + 13))
   \   000009A2   ....               LDI     R19, HIGH((keys_def + 13))
   \   000009A4   E004               LDI     R16, 4
   \   000009A6   ........           CALL    mov_s
   \                     ??write_menu_52:
   \   000009AA   ....               LDI     R30, LOW(vol_tx_ppp)
   \   000009AC   ....               LDI     R31, (vol_tx_ppp) >> 8
   \   000009AE   8180               LD      R24, Z
   \   000009B0   8191               LDD     R25, Z+1
   \   000009B2   3087               CPI     R24, 7
   \   000009B4   4090               SBCI    R25, 0
   \   000009B6   F408               BRCC    $+2+2
   \   000009B8   CB5D               RJMP    ??write_menu_1
   \   000009BA   8100               LD      R16, Z
   \   000009BC   8111               LDD     R17, Z+1
   \   000009BE   330D               CPI     R16, 61
   \   000009C0   E020               LDI     R18, 0
   \   000009C2   0712               CPC     R17, R18
   \   000009C4   F008               BRCS    $+2+2
   \   000009C6   CB56               RJMP    ??write_menu_1
   \   000009C8   910C               LD      R16, X
   \   000009CA   3202               CPI     R16, 34
   \   000009CC   F009               BREQ    $+2+2
   \   000009CE   CB52               RJMP    ??write_menu_1
   \   000009D0   8100               LD      R16, Z
   \   000009D2   8111               LDD     R17, Z+1
   \   000009D4   01FD               MOVW    R31:R30, R27:R26
   \   000009D6   0FE0               ADD     R30, R16
   \   000009D8   1FF1               ADC     R31, R17
   \   000009DA   9732               SBIW    R31:R30, 2
   \   000009DC   8100               LD      R16, Z
   \   000009DE   3202               CPI     R16, 34
   \   000009E0   F009               BREQ    $+2+2
   \   000009E2   CB48               RJMP    ??write_menu_1
   \   000009E4   E34C               LDI     R20, 60
   \   000009E6   E050               LDI     R21, 0
   \   000009E8   019E               MOVW    R19:R18, R29:R28
   \   000009EA   5F2C               SUBI    R18, 252
   \   000009EC   4F3F               SBCI    R19, 255
   \   000009EE   E004               LDI     R16, 4
   \   000009F0   E011               LDI     R17, 1
   \   000009F2   ........           CALL    RdFromFleshToArr
   \   000009F6   E020               LDI     R18, 0
   \   000009F8   E001               LDI     R16, 1
   \   000009FA   C002               RJMP    ??write_menu_53
   \                     ??write_menu_54:
   \   000009FC   9503               INC     R16
   \   000009FE   9523               INC     R18
   \                     ??write_menu_53:
   \   00000A00   E010               LDI     R17, 0
   \   00000A02   01FD               MOVW    R31:R30, R27:R26
   \   00000A04   0FE0               ADD     R30, R16
   \   00000A06   1FF1               ADC     R31, R17
   \   00000A08   8110               LD      R17, Z
   \   00000A0A   3212               CPI     R17, 34
   \   00000A0C   F7B9               BRNE    ??write_menu_54
   \   00000A0E   ....               LDI     R30, LOW(vol_tx_ppp)
   \   00000A10   ....               LDI     R31, (vol_tx_ppp) >> 8
   \   00000A12   8000               LD      R0, Z
   \   00000A14   8011               LDD     R1, Z+1
   \   00000A16   EF1E               LDI     R17, 254
   \   00000A18   0E01               ADD     R0, R17
   \   00000A1A   EF1F               LDI     R17, 255
   \   00000A1C   1E11               ADC     R1, R17
   \   00000A1E   E010               LDI     R17, 0
   \   00000A20   1500               CP      R16, R0
   \   00000A22   0511               CPC     R17, R1
   \   00000A24   F008               BRCS    $+2+2
   \   00000A26   CB26               RJMP    ??write_menu_1
   \   00000A28   9503               INC     R16
   \   00000A2A   01FD               MOVW    R31:R30, R27:R26
   \   00000A2C   0FE0               ADD     R30, R16
   \   00000A2E   1FF1               ADC     R31, R17
   \   00000A30   8110               LD      R17, Z
   \   00000A32   3212               CPI     R17, 34
   \   00000A34   F009               BREQ    $+2+2
   \   00000A36   CB1E               RJMP    ??write_menu_1
   \   00000A38   ....               LDI     R30, LOW(vol_tx_ppp)
   \   00000A3A   ....               LDI     R31, (vol_tx_ppp) >> 8
   \   00000A3C   8180               LD      R24, Z
   \   00000A3E   8191               LDD     R25, Z+1
   \   00000A40   9701               SBIW    R25:R24, 1
   \   00000A42   E010               LDI     R17, 0
   \   00000A44   1708               CP      R16, R24
   \   00000A46   0719               CPC     R17, R25
   \   00000A48   F008               BRCS    $+2+2
   \   00000A4A   CB14               RJMP    ??write_menu_1
   \   00000A4C   832C               STD     Y+4, R18
   \   00000A4E   E020               LDI     R18, 0
   \   00000A50   C00C               RJMP    ??write_menu_55
   \                     ??write_menu_56:
   \   00000A52   2F42               MOV     R20, R18
   \   00000A54   E050               LDI     R21, 0
   \   00000A56   01FD               MOVW    R31:R30, R27:R26
   \   00000A58   0FE4               ADD     R30, R20
   \   00000A5A   1FF5               ADC     R31, R21
   \   00000A5C   8111               LDD     R17, Z+1
   \   00000A5E   01FE               MOVW    R31:R30, R29:R28
   \   00000A60   9634               ADIW    R31:R30, 4
   \   00000A62   0FE4               ADD     R30, R20
   \   00000A64   1FF5               ADC     R31, R21
   \   00000A66   8311               STD     Z+1, R17
   \   00000A68   9523               INC     R18
   \                     ??write_menu_55:
   \   00000A6A   811C               LDD     R17, Y+4
   \   00000A6C   1721               CP      R18, R17
   \   00000A6E   F388               BRCS    ??write_menu_56
   \   00000A70   814C               LDD     R20, Y+4
   \   00000A72   9543               INC     R20
   \   00000A74   E020               LDI     R18, 0
   \   00000A76   9503               INC     R16
   \   00000A78   2F60               MOV     R22, R16
   \   00000A7A   C002               RJMP    ??write_menu_57
   \                     ??write_menu_58:
   \   00000A7C   9503               INC     R16
   \   00000A7E   9523               INC     R18
   \                     ??write_menu_57:
   \   00000A80   E010               LDI     R17, 0
   \   00000A82   01FD               MOVW    R31:R30, R27:R26
   \   00000A84   0FE0               ADD     R30, R16
   \   00000A86   1FF1               ADC     R31, R17
   \   00000A88   8110               LD      R17, Z
   \   00000A8A   3212               CPI     R17, 34
   \   00000A8C   F7B9               BRNE    ??write_menu_58
   \   00000A8E   E010               LDI     R17, 0
   \   00000A90   1500               CP      R16, R0
   \   00000A92   0511               CPC     R17, R1
   \   00000A94   F008               BRCS    $+2+2
   \   00000A96   CAEE               RJMP    ??write_menu_1
   \   00000A98   9503               INC     R16
   \   00000A9A   01FD               MOVW    R31:R30, R27:R26
   \   00000A9C   0FE0               ADD     R30, R16
   \   00000A9E   1FF1               ADC     R31, R17
   \   00000AA0   8110               LD      R17, Z
   \   00000AA2   3212               CPI     R17, 34
   \   00000AA4   F009               BREQ    $+2+2
   \   00000AA6   CAE6               RJMP    ??write_menu_1
   \   00000AA8   E010               LDI     R17, 0
   \   00000AAA   1708               CP      R16, R24
   \   00000AAC   0719               CPC     R17, R25
   \   00000AAE   F008               BRCS    $+2+2
   \   00000AB0   CAE1               RJMP    ??write_menu_1
   \   00000AB2   2433               CLR     R3
   \   00000AB4   010E               MOVW    R1:R0, R29:R28
   \   00000AB6   E014               LDI     R17, 4
   \   00000AB8   0E01               ADD     R0, R17
   \   00000ABA   1C13               ADC     R1, R3
   \   00000ABC   0E04               ADD     R0, R20
   \   00000ABE   1C13               ADC     R1, R3
   \   00000AC0   01F0               MOVW    R31:R30, R1:R0
   \   00000AC2   8320               ST      Z, R18
   \   00000AC4   E020               LDI     R18, 0
   \   00000AC6   C012               RJMP    ??write_menu_59
   \                     ??write_menu_60:
   \   00000AC8   2E42               MOV     R4, R18
   \   00000ACA   2455               CLR     R5
   \   00000ACC   2E66               MOV     R6, R22
   \   00000ACE   2477               CLR     R7
   \   00000AD0   0C64               ADD     R6, R4
   \   00000AD2   1C73               ADC     R7, R3
   \   00000AD4   01FD               MOVW    R31:R30, R27:R26
   \   00000AD6   0DE6               ADD     R30, R6
   \   00000AD8   1DF7               ADC     R31, R7
   \   00000ADA   8130               LD      R19, Z
   \   00000ADC   01FE               MOVW    R31:R30, R29:R28
   \   00000ADE   9634               ADIW    R31:R30, 4
   \   00000AE0   0E44               ADD     R4, R20
   \   00000AE2   1C53               ADC     R5, R3
   \   00000AE4   0DE4               ADD     R30, R4
   \   00000AE6   1DF5               ADC     R31, R5
   \   00000AE8   8331               STD     Z+1, R19
   \   00000AEA   9523               INC     R18
   \                     ??write_menu_59:
   \   00000AEC   01F0               MOVW    R31:R30, R1:R0
   \   00000AEE   8110               LD      R17, Z
   \   00000AF0   1721               CP      R18, R17
   \   00000AF2   F350               BRCS    ??write_menu_60
   \   00000AF4   9513               INC     R17
   \   00000AF6   0F41               ADD     R20, R17
   \   00000AF8   E020               LDI     R18, 0
   \   00000AFA   9503               INC     R16
   \   00000AFC   2F60               MOV     R22, R16
   \   00000AFE   C002               RJMP    ??write_menu_61
   \                     ??write_menu_62:
   \   00000B00   9503               INC     R16
   \   00000B02   9523               INC     R18
   \                     ??write_menu_61:
   \   00000B04   01FD               MOVW    R31:R30, R27:R26
   \   00000B06   0FE0               ADD     R30, R16
   \   00000B08   1DF3               ADC     R31, R3
   \   00000B0A   8110               LD      R17, Z
   \   00000B0C   3212               CPI     R17, 34
   \   00000B0E   F7C1               BRNE    ??write_menu_62
   \   00000B10   E010               LDI     R17, 0
   \   00000B12   1708               CP      R16, R24
   \   00000B14   0719               CPC     R17, R25
   \   00000B16   F008               BRCS    $+2+2
   \   00000B18   CAAD               RJMP    ??write_menu_1
   \   00000B1A   E050               LDI     R21, 0
   \   00000B1C   018E               MOVW    R17:R16, R29:R28
   \   00000B1E   5F0C               SUBI    R16, 252
   \   00000B20   4F1F               SBCI    R17, 255
   \   00000B22   0F04               ADD     R16, R20
   \   00000B24   1D13               ADC     R17, R3
   \   00000B26   01F8               MOVW    R31:R30, R17:R16
   \   00000B28   8320               ST      Z, R18
   \   00000B2A   E020               LDI     R18, 0
   \   00000B2C   C012               RJMP    ??write_menu_63
   \                     ??write_menu_64:
   \   00000B2E   2E02               MOV     R0, R18
   \   00000B30   2411               CLR     R1
   \   00000B32   2E26               MOV     R2, R22
   \   00000B34   2433               CLR     R3
   \   00000B36   0C20               ADD     R2, R0
   \   00000B38   1E35               ADC     R3, R21
   \   00000B3A   01FD               MOVW    R31:R30, R27:R26
   \   00000B3C   0DE2               ADD     R30, R2
   \   00000B3E   1DF3               ADC     R31, R3
   \   00000B40   8130               LD      R19, Z
   \   00000B42   01FE               MOVW    R31:R30, R29:R28
   \   00000B44   9634               ADIW    R31:R30, 4
   \   00000B46   0E04               ADD     R0, R20
   \   00000B48   1E15               ADC     R1, R21
   \   00000B4A   0DE0               ADD     R30, R0
   \   00000B4C   1DF1               ADC     R31, R1
   \   00000B4E   8331               STD     Z+1, R19
   \   00000B50   9523               INC     R18
   \                     ??write_menu_63:
   \   00000B52   01F8               MOVW    R31:R30, R17:R16
   \   00000B54   8130               LD      R19, Z
   \   00000B56   1723               CP      R18, R19
   \   00000B58   F350               BRCS    ??write_menu_64
   \   00000B5A   EF4F               LDI     R20, 255
   \   00000B5C   EF5F               LDI     R21, 255
   \   00000B5E   E32A               LDI     R18, 58
   \   00000B60   E030               LDI     R19, 0
   \   00000B62   018E               MOVW    R17:R16, R29:R28
   \   00000B64   5F0C               SUBI    R16, 252
   \   00000B66   4F1F               SBCI    R17, 255
   \   00000B68   ........           CALL    crc_m1
   \   00000B6C   AF0E               STD     Y+62, R16
   \   00000B6E   AF1F               STD     Y+63, R17
   \   00000B70   E070               LDI     R23, 0
   \   00000B72   E060               LDI     R22, 0
   \   00000B74   E34C               LDI     R20, 60
   \   00000B76   E050               LDI     R21, 0
   \   00000B78   019E               MOVW    R19:R18, R29:R28
   \   00000B7A   5F2C               SUBI    R18, 252
   \   00000B7C   4F3F               SBCI    R19, 255
   \   00000B7E   E004               LDI     R16, 4
   \                     ??write_menu_65:
   \   00000B80   E011               LDI     R17, 1
   \   00000B82   CAAF               RJMP    ??write_menu_10
   \                     ??write_menu_66:
   \   00000B84   ....               LDI     R30, LOW(vol_tx_ppp)
   \   00000B86   ....               LDI     R31, (vol_tx_ppp) >> 8
   \   00000B88   8180               LD      R24, Z
   \   00000B8A   8191               LDD     R25, Z+1
   \   00000B8C   3087               CPI     R24, 7
   \   00000B8E   4090               SBCI    R25, 0
   \   00000B90   F408               BRCC    $+2+2
   \   00000B92   CA70               RJMP    ??write_menu_1
   \   00000B94   8100               LD      R16, Z
   \   00000B96   8111               LDD     R17, Z+1
   \   00000B98   330D               CPI     R16, 61
   \   00000B9A   E020               LDI     R18, 0
   \   00000B9C   0712               CPC     R17, R18
   \   00000B9E   F008               BRCS    $+2+2
   \   00000BA0   CA69               RJMP    ??write_menu_1
   \   00000BA2   910C               LD      R16, X
   \   00000BA4   3202               CPI     R16, 34
   \   00000BA6   F009               BREQ    $+2+2
   \   00000BA8   CA65               RJMP    ??write_menu_1
   \   00000BAA   01F2               MOVW    R31:R30, R5:R4
   \   00000BAC   8100               LD      R16, Z
   \   00000BAE   3202               CPI     R16, 34
   \   00000BB0   F009               BREQ    $+2+2
   \   00000BB2   CA60               RJMP    ??write_menu_1
   \   00000BB4   E34C               LDI     R20, 60
   \   00000BB6   E050               LDI     R21, 0
   \   00000BB8   019E               MOVW    R19:R18, R29:R28
   \   00000BBA   5F2C               SUBI    R18, 252
   \   00000BBC   4F3F               SBCI    R19, 255
   \   00000BBE   E400               LDI     R16, 64
   \   00000BC0   E011               LDI     R17, 1
   \   00000BC2   ........           CALL    RdFromFleshToArr
   \   00000BC6   E020               LDI     R18, 0
   \   00000BC8   E001               LDI     R16, 1
   \   00000BCA   C002               RJMP    ??write_menu_67
   \                     ??write_menu_68:
   \   00000BCC   9503               INC     R16
   \   00000BCE   9523               INC     R18
   \                     ??write_menu_67:
   \   00000BD0   E010               LDI     R17, 0
   \   00000BD2   01FD               MOVW    R31:R30, R27:R26
   \   00000BD4   0FE0               ADD     R30, R16
   \   00000BD6   1FF1               ADC     R31, R17
   \   00000BD8   8110               LD      R17, Z
   \   00000BDA   3212               CPI     R17, 34
   \   00000BDC   F7B9               BRNE    ??write_menu_68
   \   00000BDE   ....               LDI     R30, LOW(vol_tx_ppp)
   \   00000BE0   ....               LDI     R31, (vol_tx_ppp) >> 8
   \   00000BE2   8000               LD      R0, Z
   \   00000BE4   8011               LDD     R1, Z+1
   \   00000BE6   EF1E               LDI     R17, 254
   \   00000BE8   0E01               ADD     R0, R17
   \   00000BEA   EF1F               LDI     R17, 255
   \   00000BEC   1E11               ADC     R1, R17
   \   00000BEE   E010               LDI     R17, 0
   \   00000BF0   1500               CP      R16, R0
   \   00000BF2   0511               CPC     R17, R1
   \   00000BF4   F008               BRCS    $+2+2
   \   00000BF6   CA3E               RJMP    ??write_menu_1
   \   00000BF8   9503               INC     R16
   \   00000BFA   01FD               MOVW    R31:R30, R27:R26
   \   00000BFC   0FE0               ADD     R30, R16
   \   00000BFE   1FF1               ADC     R31, R17
   \   00000C00   8110               LD      R17, Z
   \   00000C02   3212               CPI     R17, 34
   \   00000C04   F009               BREQ    $+2+2
   \   00000C06   CA36               RJMP    ??write_menu_1
   \   00000C08   ....               LDI     R30, LOW(vol_tx_ppp)
   \   00000C0A   ....               LDI     R31, (vol_tx_ppp) >> 8
   \   00000C0C   8180               LD      R24, Z
   \   00000C0E   8191               LDD     R25, Z+1
   \   00000C10   9701               SBIW    R25:R24, 1
   \   00000C12   E010               LDI     R17, 0
   \   00000C14   1708               CP      R16, R24
   \   00000C16   0719               CPC     R17, R25
   \   00000C18   F008               BRCS    $+2+2
   \   00000C1A   CA2C               RJMP    ??write_menu_1
   \   00000C1C   832C               STD     Y+4, R18
   \   00000C1E   E020               LDI     R18, 0
   \   00000C20   C00C               RJMP    ??write_menu_69
   \                     ??write_menu_70:
   \   00000C22   2F42               MOV     R20, R18
   \   00000C24   E050               LDI     R21, 0
   \   00000C26   01FD               MOVW    R31:R30, R27:R26
   \   00000C28   0FE4               ADD     R30, R20
   \   00000C2A   1FF5               ADC     R31, R21
   \   00000C2C   8111               LDD     R17, Z+1
   \   00000C2E   01FE               MOVW    R31:R30, R29:R28
   \   00000C30   9634               ADIW    R31:R30, 4
   \   00000C32   0FE4               ADD     R30, R20
   \   00000C34   1FF5               ADC     R31, R21
   \   00000C36   8311               STD     Z+1, R17
   \   00000C38   9523               INC     R18
   \                     ??write_menu_69:
   \   00000C3A   811C               LDD     R17, Y+4
   \   00000C3C   1721               CP      R18, R17
   \   00000C3E   F388               BRCS    ??write_menu_70
   \   00000C40   814C               LDD     R20, Y+4
   \   00000C42   9543               INC     R20
   \   00000C44   E020               LDI     R18, 0
   \   00000C46   9503               INC     R16
   \   00000C48   2F60               MOV     R22, R16
   \   00000C4A   C002               RJMP    ??write_menu_71
   \                     ??write_menu_72:
   \   00000C4C   9503               INC     R16
   \   00000C4E   9523               INC     R18
   \                     ??write_menu_71:
   \   00000C50   E010               LDI     R17, 0
   \   00000C52   01FD               MOVW    R31:R30, R27:R26
   \   00000C54   0FE0               ADD     R30, R16
   \   00000C56   1FF1               ADC     R31, R17
   \   00000C58   8110               LD      R17, Z
   \   00000C5A   3212               CPI     R17, 34
   \   00000C5C   F7B9               BRNE    ??write_menu_72
   \   00000C5E   E010               LDI     R17, 0
   \   00000C60   1500               CP      R16, R0
   \   00000C62   0511               CPC     R17, R1
   \   00000C64   F008               BRCS    $+2+2
   \   00000C66   CA06               RJMP    ??write_menu_1
   \   00000C68   9503               INC     R16
   \   00000C6A   01FD               MOVW    R31:R30, R27:R26
   \   00000C6C   0FE0               ADD     R30, R16
   \   00000C6E   1FF1               ADC     R31, R17
   \   00000C70   8110               LD      R17, Z
   \   00000C72   3212               CPI     R17, 34
   \   00000C74   F009               BREQ    $+2+2
   \   00000C76   C9FE               RJMP    ??write_menu_1
   \   00000C78   E010               LDI     R17, 0
   \   00000C7A   1708               CP      R16, R24
   \   00000C7C   0719               CPC     R17, R25
   \   00000C7E   F008               BRCS    $+2+2
   \   00000C80   C9F9               RJMP    ??write_menu_1
   \   00000C82   2433               CLR     R3
   \   00000C84   010E               MOVW    R1:R0, R29:R28
   \   00000C86   E014               LDI     R17, 4
   \   00000C88   0E01               ADD     R0, R17
   \   00000C8A   1C13               ADC     R1, R3
   \   00000C8C   0E04               ADD     R0, R20
   \   00000C8E   1C13               ADC     R1, R3
   \   00000C90   01F0               MOVW    R31:R30, R1:R0
   \   00000C92   8320               ST      Z, R18
   \   00000C94   E020               LDI     R18, 0
   \   00000C96   C012               RJMP    ??write_menu_73
   \                     ??write_menu_74:
   \   00000C98   2E42               MOV     R4, R18
   \   00000C9A   2455               CLR     R5
   \   00000C9C   2E66               MOV     R6, R22
   \   00000C9E   2477               CLR     R7
   \   00000CA0   0C64               ADD     R6, R4
   \   00000CA2   1C73               ADC     R7, R3
   \   00000CA4   01FD               MOVW    R31:R30, R27:R26
   \   00000CA6   0DE6               ADD     R30, R6
   \   00000CA8   1DF7               ADC     R31, R7
   \   00000CAA   8130               LD      R19, Z
   \   00000CAC   01FE               MOVW    R31:R30, R29:R28
   \   00000CAE   9634               ADIW    R31:R30, 4
   \   00000CB0   0E44               ADD     R4, R20
   \   00000CB2   1C53               ADC     R5, R3
   \   00000CB4   0DE4               ADD     R30, R4
   \   00000CB6   1DF5               ADC     R31, R5
   \   00000CB8   8331               STD     Z+1, R19
   \   00000CBA   9523               INC     R18
   \                     ??write_menu_73:
   \   00000CBC   01F0               MOVW    R31:R30, R1:R0
   \   00000CBE   8110               LD      R17, Z
   \   00000CC0   1721               CP      R18, R17
   \   00000CC2   F350               BRCS    ??write_menu_74
   \   00000CC4   9513               INC     R17
   \   00000CC6   0F41               ADD     R20, R17
   \   00000CC8   E020               LDI     R18, 0
   \   00000CCA   9503               INC     R16
   \   00000CCC   2F60               MOV     R22, R16
   \   00000CCE   C002               RJMP    ??write_menu_75
   \                     ??write_menu_76:
   \   00000CD0   9503               INC     R16
   \   00000CD2   9523               INC     R18
   \                     ??write_menu_75:
   \   00000CD4   01FD               MOVW    R31:R30, R27:R26
   \   00000CD6   0FE0               ADD     R30, R16
   \   00000CD8   1DF3               ADC     R31, R3
   \   00000CDA   8110               LD      R17, Z
   \   00000CDC   3212               CPI     R17, 34
   \   00000CDE   F7C1               BRNE    ??write_menu_76
   \   00000CE0   E010               LDI     R17, 0
   \   00000CE2   1708               CP      R16, R24
   \   00000CE4   0719               CPC     R17, R25
   \   00000CE6   F008               BRCS    $+2+2
   \   00000CE8   C9C5               RJMP    ??write_menu_1
   \   00000CEA   E050               LDI     R21, 0
   \   00000CEC   018E               MOVW    R17:R16, R29:R28
   \   00000CEE   5F0C               SUBI    R16, 252
   \   00000CF0   4F1F               SBCI    R17, 255
   \   00000CF2   0F04               ADD     R16, R20
   \   00000CF4   1D13               ADC     R17, R3
   \   00000CF6   01F8               MOVW    R31:R30, R17:R16
   \   00000CF8   8320               ST      Z, R18
   \   00000CFA   E020               LDI     R18, 0
   \   00000CFC   C012               RJMP    ??write_menu_77
   \                     ??write_menu_78:
   \   00000CFE   2E02               MOV     R0, R18
   \   00000D00   2411               CLR     R1
   \   00000D02   2E26               MOV     R2, R22
   \   00000D04   2433               CLR     R3
   \   00000D06   0C20               ADD     R2, R0
   \   00000D08   1E35               ADC     R3, R21
   \   00000D0A   01FD               MOVW    R31:R30, R27:R26
   \   00000D0C   0DE2               ADD     R30, R2
   \   00000D0E   1DF3               ADC     R31, R3
   \   00000D10   8130               LD      R19, Z
   \   00000D12   01FE               MOVW    R31:R30, R29:R28
   \   00000D14   9634               ADIW    R31:R30, 4
   \   00000D16   0E04               ADD     R0, R20
   \   00000D18   1E15               ADC     R1, R21
   \   00000D1A   0DE0               ADD     R30, R0
   \   00000D1C   1DF1               ADC     R31, R1
   \   00000D1E   8331               STD     Z+1, R19
   \   00000D20   9523               INC     R18
   \                     ??write_menu_77:
   \   00000D22   01F8               MOVW    R31:R30, R17:R16
   \   00000D24   8130               LD      R19, Z
   \   00000D26   1723               CP      R18, R19
   \   00000D28   F350               BRCS    ??write_menu_78
   \   00000D2A   EF4F               LDI     R20, 255
   \   00000D2C   EF5F               LDI     R21, 255
   \   00000D2E   E32A               LDI     R18, 58
   \   00000D30   E030               LDI     R19, 0
   \   00000D32   018E               MOVW    R17:R16, R29:R28
   \   00000D34   5F0C               SUBI    R16, 252
   \   00000D36   4F1F               SBCI    R17, 255
   \   00000D38   ........           CALL    crc_m1
   \   00000D3C   AF0E               STD     Y+62, R16
   \   00000D3E   AF1F               STD     Y+63, R17
   \   00000D40   E070               LDI     R23, 0
   \   00000D42   E060               LDI     R22, 0
   \   00000D44   E34C               LDI     R20, 60
   \   00000D46   E050               LDI     R21, 0
   \   00000D48   019E               MOVW    R19:R18, R29:R28
   \   00000D4A   5F2C               SUBI    R18, 252
   \   00000D4C   4F3F               SBCI    R19, 255
   \   00000D4E   E400               LDI     R16, 64
   \   00000D50   CF17               RJMP    ??write_menu_65
   \                     ??write_menu_79:
   \   00000D52   ....               LDI     R30, LOW(vol_tx_ppp)
   \   00000D54   ....               LDI     R31, (vol_tx_ppp) >> 8
   \   00000D56   8100               LD      R16, Z
   \   00000D58   8111               LDD     R17, Z+1
   \   00000D5A   3002               CPI     R16, 2
   \   00000D5C   E020               LDI     R18, 0
   \   00000D5E   0712               CPC     R17, R18
   \   00000D60   F009               BREQ    $+2+2
   \   00000D62   C988               RJMP    ??write_menu_1
   \   00000D64   910C               LD      R16, X
   \   00000D66   3301               CPI     R16, 49
   \   00000D68   F009               BREQ    $+2+2
   \   00000D6A   C984               RJMP    ??write_menu_1
   \   00000D6C   E000               LDI     R16, 0
   \   00000D6E   E043               LDI     R20, 3
   \   00000D70   E050               LDI     R21, 0
   \   00000D72   ........           CALL    __eeput8_16
   \   00000D76   ........           CALL    vosstan_memory
   \   00000D7A   C108               RJMP    ??write_menu_11
   \                     ??write_menu_80:
   \   00000D7C   ....               LDI     R30, LOW(vol_tx_ppp)
   \   00000D7E   ....               LDI     R31, (vol_tx_ppp) >> 8
   \   00000D80   8100               LD      R16, Z
   \   00000D82   8111               LDD     R17, Z+1
   \   00000D84   3009               CPI     R16, 9
   \   00000D86   E020               LDI     R18, 0
   \   00000D88   0712               CPC     R17, R18
   \   00000D8A   F009               BREQ    $+2+2
   \   00000D8C   C973               RJMP    ??write_menu_1
   \   00000D8E   E30A               LDI     R16, 58
   \   00000D90   1660               CP      R6, R16
   \   00000D92   F009               BREQ    $+2+2
   \   00000D94   C96F               RJMP    ??write_menu_1
   \   00000D96   01FD               MOVW    R31:R30, R27:R26
   \   00000D98   8105               LDD     R16, Z+5
   \   00000D9A   330A               CPI     R16, 58
   \   00000D9C   F009               BREQ    $+2+2
   \   00000D9E   C96A               RJMP    ??write_menu_1
   \   00000DA0   ........           CALL    burst_ds_r
   \   00000DA4   01FC               MOVW    R31:R30, R25:R24
   \   00000DA6   8104               LDD     R16, Z+4
   \   00000DA8   830F               STD     Y+7, R16
   \   00000DAA   8105               LDD     R16, Z+5
   \   00000DAC   8708               STD     Y+8, R16
   \   00000DAE   8106               LDD     R16, Z+6
   \   00000DB0   8709               STD     Y+9, R16
   \   00000DB2   018D               MOVW    R17:R16, R27:R26
   \   00000DB4   5F0A               SUBI    R16, 250
   \   00000DB6   4F1F               SBCI    R17, 255
   \   00000DB8   ........           CALL    atol
   \   00000DBC   8308               ST      Y, R16
   \   00000DBE   8319               STD     Y+1, R17
   \   00000DC0   832A               STD     Y+2, R18
   \   00000DC2   833B               STD     Y+3, R19
   \   00000DC4   8108               LD      R16, Y
   \   00000DC6   8119               LDD     R17, Y+1
   \   00000DC8   812A               LDD     R18, Y+2
   \   00000DCA   813B               LDD     R19, Y+3
   \   00000DCC   330C               CPI     R16, 60
   \   00000DCE   E040               LDI     R20, 0
   \   00000DD0   0714               CPC     R17, R20
   \   00000DD2   0724               CPC     R18, R20
   \   00000DD4   0734               CPC     R19, R20
   \   00000DD6   F008               BRCS    $+2+2
   \   00000DD8   C94D               RJMP    ??write_menu_1
   \   00000DDA   8108               LD      R16, Y
   \   00000DDC   830C               STD     Y+4, R16
   \   00000DDE   018D               MOVW    R17:R16, R27:R26
   \   00000DE0   5F0D               SUBI    R16, 253
   \   00000DE2   4F1F               SBCI    R17, 255
   \   00000DE4   ........           CALL    atol
   \   00000DE8   8308               ST      Y, R16
   \   00000DEA   8319               STD     Y+1, R17
   \   00000DEC   832A               STD     Y+2, R18
   \   00000DEE   833B               STD     Y+3, R19
   \   00000DF0   8108               LD      R16, Y
   \   00000DF2   8119               LDD     R17, Y+1
   \   00000DF4   812A               LDD     R18, Y+2
   \   00000DF6   813B               LDD     R19, Y+3
   \   00000DF8   330C               CPI     R16, 60
   \   00000DFA   E040               LDI     R20, 0
   \   00000DFC   0714               CPC     R17, R20
   \   00000DFE   0724               CPC     R18, R20
   \   00000E00   0734               CPC     R19, R20
   \   00000E02   F008               BRCS    $+2+2
   \   00000E04   C937               RJMP    ??write_menu_1
   \   00000E06   8108               LD      R16, Y
   \   00000E08   830D               STD     Y+5, R16
   \   00000E0A   018D               MOVW    R17:R16, R27:R26
   \   00000E0C   ........           CALL    atol
   \   00000E10   8308               ST      Y, R16
   \   00000E12   8319               STD     Y+1, R17
   \   00000E14   832A               STD     Y+2, R18
   \   00000E16   833B               STD     Y+3, R19
   \   00000E18   8108               LD      R16, Y
   \   00000E1A   8119               LDD     R17, Y+1
   \   00000E1C   812A               LDD     R18, Y+2
   \   00000E1E   813B               LDD     R19, Y+3
   \   00000E20   3108               CPI     R16, 24
   \   00000E22   E040               LDI     R20, 0
   \   00000E24   0714               CPC     R17, R20
   \   00000E26   0724               CPC     R18, R20
   \   00000E28   0734               CPC     R19, R20
   \   00000E2A   F008               BRCS    $+2+2
   \   00000E2C   C923               RJMP    ??write_menu_1
   \   00000E2E   8108               LD      R16, Y
   \   00000E30   830E               STD     Y+6, R16
   \                     ??write_menu_81:
   \   00000E32   019E               MOVW    R19:R18, R29:R28
   \   00000E34   5F2C               SUBI    R18, 252
   \   00000E36   4F3F               SBCI    R19, 255
   \   00000E38   E002               LDI     R16, 2
   \   00000E3A   ........           CALL    set_rlt
   \   00000E3E   C0A6               RJMP    ??write_menu_11
   \                     ??write_menu_82:
   \   00000E40   ....               LDI     R30, LOW(vol_tx_ppp)
   \   00000E42   ....               LDI     R31, (vol_tx_ppp) >> 8
   \   00000E44   8100               LD      R16, Z
   \   00000E46   8111               LDD     R17, Z+1
   \   00000E48   3009               CPI     R16, 9
   \   00000E4A   E020               LDI     R18, 0
   \   00000E4C   0712               CPC     R17, R18
   \   00000E4E   F009               BREQ    $+2+2
   \   00000E50   C911               RJMP    ??write_menu_1
   \   00000E52   E20E               LDI     R16, 46
   \   00000E54   1660               CP      R6, R16
   \   00000E56   F009               BREQ    $+2+2
   \   00000E58   C90D               RJMP    ??write_menu_1
   \   00000E5A   01FD               MOVW    R31:R30, R27:R26
   \   00000E5C   8105               LDD     R16, Z+5
   \   00000E5E   320E               CPI     R16, 46
   \   00000E60   F009               BREQ    $+2+2
   \   00000E62   C908               RJMP    ??write_menu_1
   \   00000E64   ........           CALL    burst_ds_r
   \   00000E68   01FC               MOVW    R31:R30, R25:R24
   \   00000E6A   8100               LD      R16, Z
   \   00000E6C   830C               STD     Y+4, R16
   \   00000E6E   8101               LDD     R16, Z+1
   \   00000E70   830D               STD     Y+5, R16
   \   00000E72   8102               LDD     R16, Z+2
   \   00000E74   830E               STD     Y+6, R16
   \   00000E76   018D               MOVW    R17:R16, R27:R26
   \   00000E78   ........           CALL    atol
   \   00000E7C   8308               ST      Y, R16
   \   00000E7E   8319               STD     Y+1, R17
   \   00000E80   832A               STD     Y+2, R18
   \   00000E82   833B               STD     Y+3, R19
   \   00000E84   8108               LD      R16, Y
   \   00000E86   8119               LDD     R17, Y+1
   \   00000E88   812A               LDD     R18, Y+2
   \   00000E8A   813B               LDD     R19, Y+3
   \   00000E8C   2B01               OR      R16, R17
   \   00000E8E   2B02               OR      R16, R18
   \   00000E90   2B03               OR      R16, R19
   \   00000E92   F409               BRNE    $+2+2
   \   00000E94   C8EF               RJMP    ??write_menu_1
   \   00000E96   8108               LD      R16, Y
   \   00000E98   8119               LDD     R17, Y+1
   \   00000E9A   812A               LDD     R18, Y+2
   \   00000E9C   813B               LDD     R19, Y+3
   \   00000E9E   3200               CPI     R16, 32
   \   00000EA0   E040               LDI     R20, 0
   \   00000EA2   0714               CPC     R17, R20
   \   00000EA4   0724               CPC     R18, R20
   \   00000EA6   0734               CPC     R19, R20
   \   00000EA8   F008               BRCS    $+2+2
   \   00000EAA   C8E4               RJMP    ??write_menu_1
   \   00000EAC   8108               LD      R16, Y
   \   00000EAE   830F               STD     Y+7, R16
   \   00000EB0   018D               MOVW    R17:R16, R27:R26
   \   00000EB2   5F0D               SUBI    R16, 253
   \   00000EB4   4F1F               SBCI    R17, 255
   \   00000EB6   ........           CALL    atol
   \   00000EBA   8308               ST      Y, R16
   \   00000EBC   8319               STD     Y+1, R17
   \   00000EBE   832A               STD     Y+2, R18
   \   00000EC0   833B               STD     Y+3, R19
   \   00000EC2   8108               LD      R16, Y
   \   00000EC4   8119               LDD     R17, Y+1
   \   00000EC6   812A               LDD     R18, Y+2
   \   00000EC8   813B               LDD     R19, Y+3
   \   00000ECA   2B01               OR      R16, R17
   \   00000ECC   2B02               OR      R16, R18
   \   00000ECE   2B03               OR      R16, R19
   \   00000ED0   F409               BRNE    $+2+2
   \   00000ED2   C8D0               RJMP    ??write_menu_1
   \   00000ED4   8108               LD      R16, Y
   \   00000ED6   8119               LDD     R17, Y+1
   \   00000ED8   812A               LDD     R18, Y+2
   \   00000EDA   813B               LDD     R19, Y+3
   \   00000EDC   300D               CPI     R16, 13
   \   00000EDE   E040               LDI     R20, 0
   \   00000EE0   0714               CPC     R17, R20
   \   00000EE2   0724               CPC     R18, R20
   \   00000EE4   0734               CPC     R19, R20
   \   00000EE6   F008               BRCS    $+2+2
   \   00000EE8   C8C5               RJMP    ??write_menu_1
   \   00000EEA   8108               LD      R16, Y
   \   00000EEC   8708               STD     Y+8, R16
   \   00000EEE   9616               ADIW    R27:R26, 6
   \   00000EF0   018D               MOVW    R17:R16, R27:R26
   \   00000EF2   ........           CALL    atol
   \   00000EF6   8308               ST      Y, R16
   \   00000EF8   8319               STD     Y+1, R17
   \   00000EFA   832A               STD     Y+2, R18
   \   00000EFC   833B               STD     Y+3, R19
   \   00000EFE   8108               LD      R16, Y
   \   00000F00   8709               STD     Y+9, R16
   \   00000F02   CF97               RJMP    ??write_menu_81
   \                     ??write_menu_83:
   \   00000F04   ....               LDI     R30, LOW(vol_tx_ppp)
   \   00000F06   ....               LDI     R31, (vol_tx_ppp) >> 8
   \   00000F08   8100               LD      R16, Z
   \   00000F0A   8111               LDD     R17, Z+1
   \   00000F0C   3002               CPI     R16, 2
   \   00000F0E   E020               LDI     R18, 0
   \   00000F10   0712               CPC     R17, R18
   \   00000F12   F481               BRNE    ??write_menu_84
   \   00000F14   910C               LD      R16, X
   \   00000F16   3300               CPI     R16, 48
   \   00000F18   F469               BRNE    ??write_menu_84
   \   00000F1A   E070               LDI     R23, 0
   \   00000F1C   E061               LDI     R22, 1
   \   00000F1E   EF40               LDI     R20, 240
   \   00000F20   E050               LDI     R21, 0
   \   00000F22   E030               LDI     R19, 0
   \   00000F24   EF04               LDI     R16, 244
   \   00000F26   E011               LDI     R17, 1
   \   00000F28   ........           CALL    WrArrayToFlesh
   \   00000F2C   E000               LDI     R16, 0
   \   00000F2E   9300....           STS     point_log_buf, R16
   \   00000F32   C02C               RJMP    ??write_menu_11
   \                     ??write_menu_84:
   \   00000F34   8100               LD      R16, Z
   \   00000F36   8111               LDD     R17, Z+1
   \   00000F38   3004               CPI     R16, 4
   \   00000F3A   0712               CPC     R17, R18
   \   00000F3C   F009               BREQ    $+2+2
   \   00000F3E   C89A               RJMP    ??write_menu_1
   \   00000F40   910C               LD      R16, X
   \   00000F42   360C               CPI     R16, 108
   \   00000F44   F009               BREQ    $+2+2
   \   00000F46   C896               RJMP    ??write_menu_1
   \   00000F48   01FD               MOVW    R31:R30, R27:R26
   \   00000F4A   8101               LDD     R16, Z+1
   \   00000F4C   360F               CPI     R16, 111
   \   00000F4E   F009               BREQ    $+2+2
   \   00000F50   C891               RJMP    ??write_menu_1
   \   00000F52   8102               LDD     R16, Z+2
   \   00000F54   3607               CPI     R16, 103
   \   00000F56   F009               BREQ    $+2+2
   \   00000F58   C88D               RJMP    ??write_menu_1
   \   00000F5A   EF40               LDI     R20, 240
   \   00000F5C   E050               LDI     R21, 0
   \   00000F5E   019D               MOVW    R19:R18, R27:R26
   \   00000F60   EF04               LDI     R16, 244
   \   00000F62   E011               LDI     R17, 1
   \   00000F64   ........           CALL    RdFromFleshToArr
   \   00000F68   E00D               LDI     R16, 13
   \   00000F6A   ........           CALL    s_port
   \   00000F6E   E00A               LDI     R16, 10
   \   00000F70   ........           CALL    s_port
   \   00000F74   E080               LDI     R24, 0
   \   00000F76   C008               RJMP    ??write_menu_85
   \                     ??write_menu_86:
   \   00000F78   E090               LDI     R25, 0
   \   00000F7A   01FD               MOVW    R31:R30, R27:R26
   \   00000F7C   0FE8               ADD     R30, R24
   \   00000F7E   1FF9               ADC     R31, R25
   \   00000F80   8100               LD      R16, Z
   \   00000F82   ........           CALL    s_port
   \   00000F86   9583               INC     R24
   \                     ??write_menu_85:
   \   00000F88   3F80               CPI     R24, 240
   \   00000F8A   F3B0               BRCS    ??write_menu_86
   \                     ??write_menu_11:
   \   00000F8C   E000               LDI     R16, 0
   \   00000F8E   ....               LDI     R30, LOW(vol_tx_ppp)
   \   00000F90   ....               LDI     R31, (vol_tx_ppp) >> 8
   \   00000F92   8300               ST      Z, R16
   \   00000F94   8301               STD     Z+1, R16
   \   00000F96   C038               RJMP    ??write_menu_87
   \                     ??write_menu_88:
   \   00000F98   ....               LDI     R30, LOW(vol_tx_ppp)
   \   00000F9A   ....               LDI     R31, (vol_tx_ppp) >> 8
   \   00000F9C   8100               LD      R16, Z
   \   00000F9E   8111               LDD     R17, Z+1
   \   00000FA0   3002               CPI     R16, 2
   \   00000FA2   E020               LDI     R18, 0
   \   00000FA4   0712               CPC     R17, R18
   \   00000FA6   F009               BREQ    $+2+2
   \   00000FA8   C865               RJMP    ??write_menu_1
   \   00000FAA   910C               LD      R16, X
   \   00000FAC   3301               CPI     R16, 49
   \   00000FAE   F009               BREQ    $+2+2
   \   00000FB0   C861               RJMP    ??write_menu_1
   \   00000FB2   C00D               RJMP    ??write_menu_89
   \                     ??write_menu_90:
   \   00000FB4   2F02               MOV     R16, R18
   \   00000FB6   E010               LDI     R17, 0
   \   00000FB8   ....               LDI     R30, LOW(keys_def)
   \   00000FBA   ....               LDI     R31, (keys_def) >> 8
   \   00000FBC   0FE0               ADD     R30, R16
   \   00000FBE   1FF1               ADC     R31, R17
   \   00000FC0   9134               LPM     R19, Z
   \   00000FC2   01FE               MOVW    R31:R30, R29:R28
   \   00000FC4   9634               ADIW    R31:R30, 4
   \   00000FC6   0FE0               ADD     R30, R16
   \   00000FC8   1FF1               ADC     R31, R17
   \   00000FCA   8330               ST      Z, R19
   \   00000FCC   9523               INC     R18
   \                     ??write_menu_89:
   \   00000FCE   3028               CPI     R18, 8
   \   00000FD0   F388               BRCS    ??write_menu_90
   \   00000FD2   EF4F               LDI     R20, 255
   \   00000FD4   EF5F               LDI     R21, 255
   \   00000FD6   E028               LDI     R18, 8
   \   00000FD8   E030               LDI     R19, 0
   \   00000FDA   018E               MOVW    R17:R16, R29:R28
   \   00000FDC   5F0C               SUBI    R16, 252
   \   00000FDE   4F1F               SBCI    R17, 255
   \   00000FE0   ........           CALL    crc_m1
   \   00000FE4   870C               STD     Y+12, R16
   \   00000FE6   871D               STD     Y+13, R17
   \   00000FE8   E070               LDI     R23, 0
   \   00000FEA   E060               LDI     R22, 0
   \   00000FEC   E04A               LDI     R20, 10
   \   00000FEE   E050               LDI     R21, 0
   \   00000FF0   019E               MOVW    R19:R18, R29:R28
   \   00000FF2   5F2C               SUBI    R18, 252
   \   00000FF4   4F3F               SBCI    R19, 255
   \   00000FF6   E300               LDI     R16, 48
   \   00000FF8   E715               LDI     R17, 117
   \   00000FFA   ........           CALL    WrArrayToFlesh
   \   00000FFE   ........           CALL    check_keys
   \   00001002   3001               CPI     R16, 1
   \   00001004   F409               BRNE    $+2+2
   \   00001006   C836               RJMP    ??write_menu_1
   \                     ??write_menu_87:
   \   00001008   ....               LDI     R18, LOW((keys_def + 13))
   \   0000100A   ....               LDI     R19, HIGH((keys_def + 13))
   \   0000100C   E004               LDI     R16, 4
   \   0000100E   C83A               RJMP    ??write_menu_7
   1661              
   1662              
   1663                }
   1664          
   1665          
   1666          
   1667          
   1668          
   1669          
   1670          
   1671          
   1672          
   1673          
   1674          
   1675          
   1676          
   1677          
   1678          

   \                                 In segment CODE, align 2, keep-with-next
   1679             void at_mon_232(void)
   \                     at_mon_232:
   1680              {             
   \   00000000   ........           CALL    ?PROLOGUE4_L09
   1681            
   1682          
   1683          
   1684           //************************    
   1685                       
   1686          switch (buf_tx_232[vol_tx_ppp-1])
   \   00000004   ....               LDI     R26, LOW(fl_at_mom_232)
   \   00000006   ....               LDI     R27, (fl_at_mom_232) >> 8
   \   00000008   01FD               MOVW    R31:R30, R27:R26
   \   0000000A   8101               LDD     R16, Z+1
   \   0000000C   ....               LDI     R30, LOW(vol_tx_ppp)
   \   0000000E   ....               LDI     R31, (vol_tx_ppp) >> 8
   \   00000010   8120               LD      R18, Z
   \   00000012   8131               LDD     R19, Z+1
   \   00000014   01F9               MOVW    R31:R30, R19:R18
   \   00000016   ....               SUBI    R30, LOW((-(buf_tx_232 - 1) & 0xFFFF))
   \   00000018   ....               SBCI    R31, HIGH((-(buf_tx_232 - 1) & 0xFFFF))
   \   0000001A   8110               LD      R17, Z
   \   0000001C   501D               SUBI    R17, 13
   \   0000001E   F1D1               BREQ    ??at_mon_232_0
   \   00000020   501E               SUBI    R17, 14
   \   00000022   F029               BREQ    ??at_mon_232_1
   \   00000024   5110               SUBI    R17, 16
   \   00000026   F069               BREQ    ??at_mon_232_2
   \   00000028   5012               SUBI    R17, 2
   \   0000002A   F0E9               BREQ    ??at_mon_232_3
   \   0000002C   C05D               RJMP    ??at_mon_232_4
   1687                {
   1688                 case 0x1b:
   1689                            {  
   1690                                         
   1691                            UCSR0B=UCSR0B & ~0x90;                   
   \                     ??at_mon_232_1:
   \   0000002E   910000C1           LDS     R16, 193
   \   00000032   760F               ANDI    R16, 0x6F
   \   00000034   930000C1           STS     193, R16
   1692                            index_pa=1;
   \   00000038   E001               LDI     R16, 1
   \   0000003A   01FD               MOVW    R31:R30, R27:R26
   \   0000003C   8301               STD     Z+1, R16
   1693                            read_menu(index_pa-1);
   \   0000003E   E000               LDI     R16, 0
   \   00000040   C03E               RJMP    ??at_mon_232_5
   1694                            buf_tx_232[vol_tx_ppp-1]=0xff;  
   1695                            vol_tx_ppp=0;                                  
   1696                            UCSR0B=UCSR0B | 0x90; 
   1697                            break;
   1698                            
   1699          
   1700                            }
   1701                  case 0x2b:   // âĺđő
   1702                            {    
   1703                              
   1704                            UCSR0B=UCSR0B & ~0x90;
   \                     ??at_mon_232_2:
   \   00000042   910000C1           LDS     R16, 193
   \   00000046   760F               ANDI    R16, 0x6F
   \   00000048   930000C1           STS     193, R16
   1705                              
   1706          pusto:            
   1707          
   1708          
   1709                             index_pa++;  
   \                     ??at_mon_232_6:
   \   0000004C   01FD               MOVW    R31:R30, R27:R26
   \   0000004E   8101               LDD     R16, Z+1
   \   00000050   9503               INC     R16
   \   00000052   8301               STD     Z+1, R16
   1710                             if ((index_pa-1) > VOL_PUNKT) index_pa=1;
   \   00000054   8181               LDD     R24, Z+1
   \   00000056   E090               LDI     R25, 0
   \   00000058   9701               SBIW    R25:R24, 1
   \   0000005A   318F               CPI     R24, 31
   \   0000005C   4090               SBCI    R25, 0
   \   0000005E   F16C               BRLT    ??at_mon_232_7
   \   00000060   E001               LDI     R16, 1
   \                     ??at_mon_232_8:
   \   00000062   8301               STD     Z+1, R16
   1711                             read_menu(index_pa-1);                                    
   \   00000064   C02A               RJMP    ??at_mon_232_7
   1712                             buf_tx_232[vol_tx_ppp-1]=0xff;  
   1713                             vol_tx_ppp=0; 
   1714                             UCSR0B=UCSR0B | 0x90; 
   1715                             break;
   1716                            }                  
   1717                             
   1718                   case 0x2d:   // âíčç
   1719                            { 
   1720                              UCSR0B=UCSR0B & ~0x90;
   \                     ??at_mon_232_3:
   \   00000066   911000C1           LDS     R17, 193
   \   0000006A   761F               ANDI    R17, 0x6F
   \   0000006C   931000C1           STS     193, R17
   1721                              if(index_pa==0)index_pa=1;  
   \   00000070   2300               TST     R16
   \   00000072   F419               BRNE    ??at_mon_232_9
   \   00000074   E001               LDI     R16, 1
   \   00000076   01FD               MOVW    R31:R30, R27:R26
   \   00000078   8301               STD     Z+1, R16
   1722                              if ((index_pa-1) != 0) index_pa--;else index_pa=VOL_PUNKT+1;                    
   \                     ??at_mon_232_9:
   \   0000007A   01FD               MOVW    R31:R30, R27:R26
   \   0000007C   8101               LDD     R16, Z+1
   \   0000007E   2FE0               MOV     R30, R16
   \   00000080   E0F0               LDI     R31, 0
   \   00000082   9731               SBIW    R31:R30, 1
   \   00000084   F021               BREQ    ??at_mon_232_10
   \   00000086   01FD               MOVW    R31:R30, R27:R26
   \   00000088   8101               LDD     R16, Z+1
   \   0000008A   950A               DEC     R16
   \   0000008C   CFEA               RJMP    ??at_mon_232_8
   \                     ??at_mon_232_10:
   \   0000008E   E10F               LDI     R16, 31
   \   00000090   01FD               MOVW    R31:R30, R27:R26
   \   00000092   CFE7               RJMP    ??at_mon_232_8
   1723                              read_menu(index_pa-1);  
   1724                              buf_tx_232[vol_tx_ppp-1]=0xff;  
   1725                              vol_tx_ppp=0; 
   1726                              UCSR0B=UCSR0B | 0x90; 
   1727                              break;                     
   1728                            }           
   1729                            
   1730                     case 0x0d:   // ââîä
   1731                            {  
   1732                        
   1733                             UCSR0B=UCSR0B & ~0x90;       
   \                     ??at_mon_232_0:
   \   00000094   911000C1           LDS     R17, 193
   \   00000098   761F               ANDI    R17, 0x6F
   \   0000009A   931000C1           STS     193, R17
   1734                             if ((vol_tx_ppp==1)||(index_pa==0)) goto pusto; 
   \   0000009E   ....               LDI     R30, LOW(vol_tx_ppp)
   \   000000A0   ....               LDI     R31, (vol_tx_ppp) >> 8
   \   000000A2   8120               LD      R18, Z
   \   000000A4   8131               LDD     R19, Z+1
   \   000000A6   3021               CPI     R18, 1
   \   000000A8   E010               LDI     R17, 0
   \   000000AA   0731               CPC     R19, R17
   \   000000AC   F279               BREQ    ??at_mon_232_6
   \   000000AE   2300               TST     R16
   \   000000B0   F269               BREQ    ??at_mon_232_6
   1735                             write_menu(index_pa-1); 
   \   000000B2   950A               DEC     R16
   \   000000B4   ........           CALL    write_menu
   1736                             read_menu(index_pa-1);
   \   000000B8   01FD               MOVW    R31:R30, R27:R26
   \                     ??at_mon_232_7:
   \   000000BA   8101               LDD     R16, Z+1
   \   000000BC   950A               DEC     R16
   \                     ??at_mon_232_5:
   \   000000BE   ........           CALL    read_menu
   1737                             buf_tx_232[vol_tx_ppp-1]=0xff;  
   \   000000C2   EF0F               LDI     R16, 255
   \   000000C4   ....               LDI     R30, LOW(vol_tx_ppp)
   \   000000C6   ....               LDI     R31, (vol_tx_ppp) >> 8
   \   000000C8   8120               LD      R18, Z
   \   000000CA   8131               LDD     R19, Z+1
   \   000000CC   01F9               MOVW    R31:R30, R19:R18
   \   000000CE   ....               SUBI    R30, LOW((-(buf_tx_232 - 1) & 0xFFFF))
   \   000000D0   ....               SBCI    R31, HIGH((-(buf_tx_232 - 1) & 0xFFFF))
   \   000000D2   8300               ST      Z, R16
   1738                             vol_tx_ppp=0;   
   \   000000D4   E000               LDI     R16, 0
   \   000000D6   ....               LDI     R30, LOW(vol_tx_ppp)
   \   000000D8   ....               LDI     R31, (vol_tx_ppp) >> 8
   \   000000DA   8300               ST      Z, R16
   \   000000DC   8301               STD     Z+1, R16
   1739                             UCSR0B=UCSR0B | 0x90;
   \   000000DE   910000C1           LDS     R16, 193
   \   000000E2   6900               ORI     R16, 0x90
   \   000000E4   930000C1           STS     193, R16
   1740                             break;                                     
   1741                            }                 
   1742                    
   1743                  
   1744                }                     
   1745          
   1746              }
   \                     ??at_mon_232_4:
   \   000000E8   E0E4               LDI     R30, 4
   \   000000EA   ........           JMP     ?EPILOGUE_B4_L09
   1747          
   1748          
   1749          
   1750          
   1751          
   1752          
   1753          
   1754          
   1755          
   1756          
   1757          
   1758          

   \                                 In segment CODE, align 2, keep-with-next
   1759          void monitor_terminal(void)
   \                     monitor_terminal:
   1760                      {
   \   00000000   ........           CALL    ?PROLOGUE4_L09
   1761             
   1762             union
   1763               {
   1764                unsigned char bytes[4]; 
   1765                unsigned long int word;
   1766               }temp_long;   
   1767          
   1768          
   1769                      
   1770          
   1771          //
   1772          //        rts invers
   1773          //
   1774                       if((PINB & CTS2)==CTS2)
   \   00000004   9B19               SBIS    0x03, 0x01
   \   00000006   C073               RJMP    ??monitor_terminal_0
   1775                              { 
   1776                                fl_at_mom_232=1;      
   \   00000008   ....               LDI     R30, LOW(fl_at_mom_232)
   \   0000000A   ....               LDI     R31, (fl_at_mom_232) >> 8
   \   0000000C   E001               LDI     R16, 1
   \   0000000E   8300               ST      Z, R16
   1777                                index_pa=0;
   \   00000010   E000               LDI     R16, 0
   \   00000012   8301               STD     Z+1, R16
   1778                                temp_long.word=0; 
   \   00000014   E080               LDI     R24, 0
   \   00000016   E090               LDI     R25, 0
   \   00000018   E0A0               LDI     R26, 0
   \   0000001A   E0B0               LDI     R27, 0
   1779                                vol_tx_ppp=1;                     
   \   0000001C   E001               LDI     R16, 1
   \   0000001E   ....               LDI     R30, LOW(vol_tx_ppp)
   \   00000020   ....               LDI     R31, (vol_tx_ppp) >> 8
   \   00000022   8300               ST      Z, R16
   \   00000024   8381               STD     Z+1, R24
   1780                                buf_tx_232[0]=0x0d;
   \   00000026   E00D               LDI     R16, 13
   \   00000028   9300....           STS     buf_tx_232, R16
   1781                                UCSR2B=0; 
   \   0000002C   938000D1           STS     209, R24
   1782                                UBRR2H = R4800_H;
   \   00000030   938000D5           STS     213, R24
   1783                                UBRR2L = R4800_L;      /* the baud rate */
   \   00000034   EC0F               LDI     R16, 207
   \   00000036   930000D4           STS     212, R16
   1784                                UCSR2B=UCSR2B | RXCIE | RXEN | TXEN;
   \   0000003A   910000D1           LDS     R16, 209
   \   0000003E   6908               ORI     R16, 0x98
   \   00000040   930000D1           STS     209, R16
   1785                                         
   1786                                 WDTCSR=0x18; 
   \   00000044   E108               LDI     R16, 24
   \   00000046   93000060           STS     96, R16
   1787                                 WDTCSR=0x0f;
   \   0000004A   E00F               LDI     R16, 15
   \   0000004C   93000060           STS     96, R16
   1788                                 __watchdog_reset(); 
   \   00000050   95A8               WDR
   1789                               
   1790                              __enable_interrupt();                
   \   00000052   9478               SEI
   1791                               delay(30000);
   \   00000054   E300               LDI     R16, 48
   \   00000056   E715               LDI     R17, 117
   \   00000058   ........           CALL    delay
   1792                               
   1793                               
   1794                               S1_RD;
   \   0000005C   9AA0               SBI     0x14, 0x00
   \   0000005E   98A1               CBI     0x14, 0x01
   1795                               S2_GR;
   \   00000060   9840               CBI     0x08, 0x00
   \   00000062   9A41               SBI     0x08, 0x01
   1796                               S4_RD;
   \   00000064   9A42               SBI     0x08, 0x02
   \   00000066   9843               CBI     0x08, 0x03
   1797                               S3_GR;
   \   00000068   9844               CBI     0x08, 0x04
   \   0000006A   9A45               SBI     0x08, 0x05
   1798                               S5_RD;
   \   0000006C   9A46               SBI     0x08, 0x06
   \   0000006E   9847               CBI     0x08, 0x07
   1799                               
   1800                                do
   1801                                    {   
   1802                                    __watchdog_reset(); 
   \                     ??monitor_terminal_1:
   \   00000070   95A8               WDR
   1803                                    
   1804                                    control_temperatura();
   \   00000072   ........           CALL    control_temperatura
   1805                                      
   1806                                    temp_long.word++;
   \   00000076   5F8F               SUBI    R24, 255
   \   00000078   4F9F               SBCI    R25, 255
   \   0000007A   4FAF               SBCI    R26, 255
   \   0000007C   4FBF               SBCI    R27, 255
   1807                                    if(temp_long.word>=30000)
   \   0000007E   3380               CPI     R24, 48
   \   00000080   E705               LDI     R16, 117
   \   00000082   0790               CPC     R25, R16
   \   00000084   E000               LDI     R16, 0
   \   00000086   07A0               CPC     R26, R16
   \   00000088   07B0               CPC     R27, R16
   \   0000008A   F160               BRCS    ??monitor_terminal_2
   1808                                       {
   1809                                         S1_CH;
   \   0000008C   E001               LDI     R16, 1
   \   0000008E   B314               IN      R17, 0x14
   \   00000090   2710               EOR     R17, R16
   \   00000092   BB14               OUT     0x14, R17
   \   00000094   E002               LDI     R16, 2
   \   00000096   B314               IN      R17, 0x14
   \   00000098   2710               EOR     R17, R16
   \   0000009A   BB14               OUT     0x14, R17
   1810                                         S2_CH;
   \   0000009C   E001               LDI     R16, 1
   \   0000009E   B118               IN      R17, 0x08
   \   000000A0   2710               EOR     R17, R16
   \   000000A2   B918               OUT     0x08, R17
   \   000000A4   E002               LDI     R16, 2
   \   000000A6   B118               IN      R17, 0x08
   \   000000A8   2710               EOR     R17, R16
   \   000000AA   B918               OUT     0x08, R17
   1811                                         S3_CH;
   \   000000AC   E100               LDI     R16, 16
   \   000000AE   B118               IN      R17, 0x08
   \   000000B0   2710               EOR     R17, R16
   \   000000B2   B918               OUT     0x08, R17
   \   000000B4   E200               LDI     R16, 32
   \   000000B6   B118               IN      R17, 0x08
   \   000000B8   2710               EOR     R17, R16
   \   000000BA   B918               OUT     0x08, R17
   1812                                         S4_CH;
   \   000000BC   E004               LDI     R16, 4
   \   000000BE   B118               IN      R17, 0x08
   \   000000C0   2710               EOR     R17, R16
   \   000000C2   B918               OUT     0x08, R17
   \   000000C4   E008               LDI     R16, 8
   \   000000C6   B118               IN      R17, 0x08
   \   000000C8   2710               EOR     R17, R16
   \   000000CA   B918               OUT     0x08, R17
   1813                                         S5_CH;
   \   000000CC   E400               LDI     R16, 64
   \   000000CE   B118               IN      R17, 0x08
   \   000000D0   2710               EOR     R17, R16
   \   000000D2   B918               OUT     0x08, R17
   \   000000D4   E800               LDI     R16, 128
   \   000000D6   B118               IN      R17, 0x08
   \   000000D8   2710               EOR     R17, R16
   \   000000DA   B918               OUT     0x08, R17
   1814                                         temp_long.word=0;
   \   000000DC   E080               LDI     R24, 0
   \   000000DE   E090               LDI     R25, 0
   \   000000E0   E0A0               LDI     R26, 0
   \   000000E2   E0B0               LDI     R27, 0
   1815                                       }
   1816                                       
   1817                                       
   1818                                       at_mon_232();
   \                     ??monitor_terminal_2:
   \   000000E4   ....               RCALL   at_mon_232
   1819             
   1820                                    } while((PINB & CTS2)!=0);//
   \   000000E6   9919               SBIC    0x03, 0x01
   \   000000E8   CFC3               RJMP    ??monitor_terminal_1
   1821                               
   1822                                lock_it(); //äîëćíŕ áűňü ôóíęöč˙ ďĺđĺçŕăđóçęč
   \   000000EA   ........           CALL    lock_it
   1823                     
   1824                }
   1825          
   1826          }
   \                     ??monitor_terminal_0:
   \   000000EE   E0E4               LDI     R30, 4
   \   000000F0   ........           JMP     ?EPILOGUE_B4_L09

   \                                 In segment NEAR_ID, align 1, keep-with-next
   \                     `?<Initializer for <Constant "%u\\000">>`:
   \   00000000   75250000           DB 25H, 75H, 0, 0
   \                     `?<Initializer for <Constant "%d\\000">>`:
   \   00000004   64250000           DB 25H, 64H, 0, 0

   \                                 In segment SWITCH, align 2, keep-with-next
   \                     `?<Jumptable for read_menu>_0`:
   \   00000000   01                 DB      1
   \   00000001   00                 DB      0
   \   00000002   ....               DW      (??read_menu_0) /2
   \   00000004   001E               DW      30
   \   00000006   ....               DW      (??read_menu_4) /2
   \   00000008   ....               DW      (??read_menu_5) /2
   \   0000000A   ....               DW      (??read_menu_6) /2
   \   0000000C   ....               DW      (??read_menu_17) /2
   \   0000000E   ....               DW      (??read_menu_18) /2
   \   00000010   ....               DW      (??read_menu_21) /2
   \   00000012   ....               DW      (??read_menu_25) /2
   \   00000014   ....               DW      (??read_menu_27) /2
   \   00000016   ....               DW      (??read_menu_29) /2
   \   00000018   ....               DW      (??read_menu_30) /2
   \   0000001A   ....               DW      (??read_menu_32) /2
   \   0000001C   ....               DW      (??read_menu_33) /2
   \   0000001E   ....               DW      (??read_menu_34) /2
   \   00000020   ....               DW      (??read_menu_35) /2
   \   00000022   ....               DW      (??read_menu_37) /2
   \   00000024   ....               DW      (??read_menu_38) /2
   \   00000026   ....               DW      (??read_menu_39) /2
   \   00000028   ....               DW      (??read_menu_40) /2
   \   0000002A   ....               DW      (??read_menu_42) /2
   \   0000002C   ....               DW      (??read_menu_43) /2
   \   0000002E   ....               DW      (??read_menu_44) /2
   \   00000030   ....               DW      (??read_menu_45) /2
   \   00000032   ....               DW      (??read_menu_46) /2
   \   00000034   ....               DW      (??read_menu_47) /2
   \   00000036   ....               DW      (??read_menu_51) /2
   \   00000038   ....               DW      (??read_menu_52) /2
   \   0000003A   ....               DW      (??read_menu_53) /2
   \   0000003C   ....               DW      (??read_menu_54) /2
   \   0000003E   ....               DW      (??read_menu_55) /2
   \   00000040   ....               DW      (??read_menu_57) /2

   \                                 In segment SWITCH, align 2, keep-with-next
   \                     `?<Jumptable for write_menu>_0`:
   \   00000000   03                 DB      3
   \   00000001   00                 DB      0
   \   00000002   ....               DW      (??write_menu_1) /2
   \   00000004   001C               DW      28
   \   00000006   ....               DW      (??write_menu_0) /2
   \   00000008   ....               DW      (??write_menu_12) /2
   \   0000000A   ....               DW      (??write_menu_18) /2
   \   0000000C   ....               DW      (??write_menu_20) /2
   \   0000000E   ....               DW      (??write_menu_21) /2
   \   00000010   ....               DW      (??write_menu_22) /2
   \   00000012   ....               DW      (??write_menu_24) /2
   \   00000014   ....               DW      (??write_menu_25) /2
   \   00000016   ....               DW      (??write_menu_26) /2
   \   00000018   ....               DW      (??write_menu_27) /2
   \   0000001A   ....               DW      (??write_menu_29) /2
   \   0000001C   ....               DW      (??write_menu_30) /2
   \   0000001E   ....               DW      (??write_menu_33) /2
   \   00000020   ....               DW      (??write_menu_34) /2
   \   00000022   ....               DW      (??write_menu_35) /2
   \   00000024   ....               DW      (??write_menu_36) /2
   \   00000026   ....               DW      (??write_menu_37) /2
   \   00000028   ....               DW      (??write_menu_38) /2
   \   0000002A   ....               DW      (??write_menu_39) /2
   \   0000002C   ....               DW      (??write_menu_52) /2
   \   0000002E   ....               DW      (??write_menu_66) /2
   \   00000030   ....               DW      (??write_menu_1) /2
   \   00000032   ....               DW      (??write_menu_1) /2
   \   00000034   ....               DW      (??write_menu_79) /2
   \   00000036   ....               DW      (??write_menu_80) /2
   \   00000038   ....               DW      (??write_menu_82) /2
   \   0000003A   ....               DW      (??write_menu_83) /2
   \   0000003C   ....               DW      (??write_menu_88) /2

   \                                 In segment NEAR_I, align 1, keep-with-next
   \   00000000                      REQUIRE `?<Segment init: NEAR_I>`
   \                     `?<Constant "%u\\000">`:
   \   00000000                      DS 4
   \   00000004                      REQUIRE `?<Initializer for <Constant "%u\\000">>`
   \   00000004                      DS 4
   \   00000008                      REQUIRE `?<Initializer for <Constant "%d\\000">>`
   1827          
   1828          
   1829          //////
   1830          
   1831          

   Maximum stack usage in bytes:

     Function                 CSTACK RSTACK
     --------                 ------ ------
     at_mon_232                   4      2
       -> read_menu               4      2
       -> read_menu               4      2
       -> read_menu               4      2
       -> write_menu              4      2
       -> read_menu               4      2
     atol                         0      2
       -> _Stoul                  0      2
     check_keys                   4      2
       -> RdFromFleshToArr        4      2
       -> crc_m1                  4      2
     check_memory_map            74      2
       -> RdFromFleshToArr       74      2
       -> crc_m1                 74      2
       -> RdFromFleshToArr       74      2
       -> crc_m1                 74      2
       -> crc_m1                 74      2
       -> WrArrayToFlesh         74      2
       -> RdFromFleshToArr       74      2
       -> crc_m1                 74      2
       -> crc_m1                 74      2
       -> WrArrayToFlesh         74      2
       -> RdFromFleshToArr       74      2
       -> crc_m1                 74      2
       -> crc_m1                 74      2
       -> WrArrayToFlesh         74      2
       -> RdFromFleshToArr       74      2
       -> crc_m1                 74      2
       -> crc_m1                 74      2
       -> WrArrayToFlesh         74      2
       -> RdFromFleshToArr       74      2
       -> crc_m1                 74      2
       -> crc_m1                 74      2
       -> WrArrayToFlesh         74      2
       -> RdFromFleshToArr       74      2
       -> crc_m1                 74      2
       -> crc_m1                 74      2
       -> WrArrayToFlesh         74      2
       -> RdFromFleshToArr       74      2
       -> crc_m1                 74      2
       -> crc_m1                 74      2
       -> WrArrayToFlesh         74      2
       -> RdFromFleshToArr       74      2
       -> crc_m1                 74      2
       -> crc_m1                 74      2
       -> WrArrayToFlesh         74      2
       -> RdFromFleshToArr       74      2
       -> crc_m1                 74      2
       -> crc_m1                 74      2
       -> WrArrayToFlesh         74      2
     load_par_first               0      4
       -> WrArrayToFlesh          0      2
     monitor_terminal             4      2
       -> delay                   4      2
       -> control_temperatura     4      2
       -> at_mon_232              4      2
       -> lock_it                 4      2
     mov_massiv                   4      2
       -> s_port                  4      2
     read_menu                   84      4
       -> memset                 82      2
       -> mov_lf                 82      2
       -> mov_s                  82      2
       -> mov_lf                 82      2
       -> mov_s                  82      2
       -> mov_lf                 82      2
       -> mov_s                  82      2
       -> RdFromFleshToArr       82      2
       -> mov_lf                 82      2
       -> s_port                 82      2
       -> s_port                 82      2
       -> s_port                 82      2
       -> s_port                 82      2
       -> s_port                 82      2
       -> s_port                 82      2
       -> s_port                 82      2
       -> s_port                 82      2
       -> s_port                 82      2
       -> s_port                 82      2
       -> s_port                 82      2
       -> s_port                 82      2
       -> s_port                 82      2
       -> s_port                 82      2
       -> s_port                 82      2
       -> s_port                 82      2
       -> mov_lf                 82      2
       -> s_port                 82      2
       -> RdFromFleshToArr       82      2
       -> mov_lf                 82      2
       -> s_port                 82      2
       -> s_port                 82      2
       -> RdFromFleshToArr       82      2
       -> mov_lf                 82      2
       -> sprintf                84      2
       -> strlen                 82      2
       -> mov_massiv             82      2
       -> s_port                 82      2
       -> sprintf                84      2
       -> strlen                 82      2
       -> mov_massiv             82      2
       -> s_port                 82      2
       -> sprintf                84      2
       -> strlen                 82      2
       -> mov_massiv             82      2
       -> s_port                 82      2
       -> sprintf                84      2
       -> strlen                 82      2
       -> mov_massiv             82      2
       -> RdFromFleshToArr       82      2
       -> mov_lf                 82      2
       -> mov_s                  82      2
       -> sprintf                84      2
       -> strlen                 82      2
       -> mov_massiv             82      2
       -> RdFromFleshToArr       82      2
       -> mov_lf                 82      2
       -> mov_s                  82      2
       -> sprintf                84      2
       -> strlen                 82      2
       -> mov_massiv             82      2
       -> RdFromFleshToArr       82      2
       -> mov_lf                 82      2
       -> mov_s                  82      2
       -> sprintf                84      2
       -> strlen                 82      2
       -> mov_massiv             82      2
       -> RdFromFleshToArr       82      2
       -> mov_lf                 82      2
       -> mov_s                  82      2
       -> sprintf                84      2
       -> strlen                 82      2
       -> mov_massiv             82      2
       -> RdFromFleshToArr       82      2
       -> mov_lf                 82      2
       -> mov_s                  82      2
       -> sprintf                84      2
       -> strlen                 82      2
       -> mov_massiv             82      2
       -> RdFromFleshToArr       82      2
       -> mov_lf                 82      2
       -> mov_s                  82      2
       -> sprintf                84      2
       -> strlen                 82      2
       -> mov_massiv             82      2
       -> RdFromFleshToArr       82      2
       -> mov_lf                 82      2
       -> mov_s                  82      2
       -> sprintf                84      2
       -> strlen                 82      2
       -> mov_massiv             82      2
       -> RdFromFleshToArr       82      2
       -> mov_lf                 82      2
       -> mov_s                  82      2
       -> sprintf                84      2
       -> strlen                 82      2
       -> mov_massiv             82      2
       -> RdFromFleshToArr       82      2
       -> mov_lf                 82      2
       -> mov_s                  82      2
       -> s_port                 82      2
       -> s_port                 82      2
       -> s_port                 82      2
       -> s_port                 82      2
       -> s_port                 82      2
       -> RdFromFleshToArr       82      2
       -> mov_lf                 82      2
       -> mov_s                  82      2
       -> sprintf                84      2
       -> strlen                 82      2
       -> mov_massiv             82      2
       -> RdFromFleshToArr       82      2
       -> mov_lf                 82      2
       -> mov_s                  82      2
       -> sprintf                84      2
       -> strlen                 82      2
       -> mov_massiv             82      2
       -> RdFromFleshToArr       82      2
       -> mov_lf                 82      2
       -> mov_s                  82      2
       -> sprintf                84      2
       -> strlen                 82      2
       -> mov_massiv             82      2
       -> RdFromFleshToArr       82      2
       -> mov_lf                 82      2
       -> mov_s                  82      2
       -> sprintf                84      2
       -> strlen                 82      2
       -> mov_massiv             82      2
       -> RdFromFleshToArr       82      2
       -> mov_lf                 82      2
       -> mov_s                  82      2
       -> sprintf                84      2
       -> strlen                 82      2
       -> mov_massiv             82      2
       -> mov_lf                 82      2
       -> mov_s                  82      2
       -> sprintf                84      2
       -> strlen                 82      2
       -> mov_massiv             82      2
       -> RdFromFleshToArr       82      2
       -> mov_lf                 82      2
       -> s_port                 82      2
       -> s_port                 82      2
       -> RdFromFleshToArr       82      2
       -> mov_lf                 82      2
       -> s_port                 82      2
       -> s_port                 82      2
       -> RdFromFleshToArr       82      2
       -> mov_lf                 82      2
       -> s_port                 82      2
       -> s_port                 82      2
       -> mov_lf                 82      2
       -> mov_s                  82      2
       -> s_port                 82      2
       -> s_port                 82      2
       -> s_port                 82      2
       -> s_port                 82      2
       -> mov_lf                 82      2
       -> mov_s                  82      2
       -> sprintf                84      2
       -> strlen                 82      2
       -> mov_massiv             82      2
       -> mov_lf                 82      2
       -> mov_s                  82      2
       -> burst_ds_r             82      2
       -> mov_lf                 82      2
       -> mov_s                  82      2
       -> sprintf                84      2
       -> strlen                 82      2
       -> mov_massiv             82      2
       -> s_port                 82      2
       -> sprintf                84      2
       -> strlen                 82      2
       -> mov_massiv             82      2
       -> s_port                 82      2
       -> sprintf                84      2
       -> strlen                 82      2
       -> mov_massiv             82      2
       -> burst_ds_r             82      2
       -> mov_lf                 82      2
       -> mov_s                  82      2
       -> sprintf                84      2
       -> strlen                 82      2
       -> mov_massiv             82      2
       -> s_port                 82      2
       -> sprintf                84      2
       -> strlen                 82      2
       -> mov_massiv             82      2
       -> s_port                 82      2
       -> sprintf                84      2
       -> strlen                 82      2
       -> mov_massiv             82      2
       -> mov_lf                 82      2
       -> mov_s                  82      2
       -> s_port                 82      2
       -> mov_lf                 82      2
       -> mov_s                  82      2
       -> s_port                 82      2
       -> mov_lf                 82      2
       -> s_port                 82      2
       -> RdFromFleshToArr       82      2
       -> s_port                 82      2
       -> s_port                 82      2
       -> s_port                 82      2
       -> s_port                 82      2
       -> s_port                 82      2
       -> s_port                 82      2
       -> s_port                 82      2
       -> s_port                 82      2
       -> s_port                 82      2
       -> s_port                 82      2
     ret_version                  0      2
     vosstan_memory              72      2
       -> crc_m1                 72      2
       -> WrArrayToFlesh         72      2
       -> crc_m1                 72      2
       -> WrArrayToFlesh         72      2
       -> crc_m1                 72      2
       -> WrArrayToFlesh         72      2
       -> crc_m1                 72      2
       -> WrArrayToFlesh         72      2
       -> crc_m1                 72      2
       -> WrArrayToFlesh         72      2
       -> crc_m1                 72      2
       -> WrArrayToFlesh         72      2
       -> crc_m1                 72      2
       -> WrArrayToFlesh         72      2
       -> crc_m1                 72      2
       -> WrArrayToFlesh         72      2
       -> crc_m1                 72      2
       -> WrArrayToFlesh         72      2
       -> crc_m1                 72      2
       -> WrArrayToFlesh         72      2
     write_menu                  82      4
       -> RdFromFleshToArr       82      2
       -> mov_s                  82      2
       -> RdFromFleshToArr       82      2
       -> RdFromFleshToArr       82      2
       -> crc_m1                 82      2
       -> WrArrayToFlesh         82      2
       -> RdFromFleshToArr       82      2
       -> crc_m1                 82      2
       -> WrArrayToFlesh         82      2
       -> RdFromFleshToArr       82      2
       -> RdFromFleshToArr       82      2
       -> RdFromFleshToArr       82      2
       -> atol                   82      2
       -> atol                   82      2
       -> atol                   82      2
       -> atol                   82      2
       -> crc_m1                 82      2
       -> WrArrayToFlesh         82      2
       -> atol                   82      2
       -> RdFromFleshToArr       82      2
       -> crc_m1                 82      2
       -> WrArrayToFlesh         82      2
       -> atol                   82      2
       -> RdFromFleshToArr       82      2
       -> crc_m1                 82      2
       -> WrArrayToFlesh         82      2
       -> atol                   82      2
       -> RdFromFleshToArr       82      2
       -> crc_m1                 82      2
       -> WrArrayToFlesh         82      2
       -> atol                   82      2
       -> RdFromFleshToArr       82      2
       -> crc_m1                 82      2
       -> WrArrayToFlesh         82      2
       -> atol                   82      2
       -> RdFromFleshToArr       82      2
       -> crc_m1                 82      2
       -> WrArrayToFlesh         82      2
       -> atol                   82      2
       -> RdFromFleshToArr       82      2
       -> crc_m1                 82      2
       -> WrArrayToFlesh         82      2
       -> atol                   82      2
       -> RdFromFleshToArr       82      2
       -> crc_m1                 82      2
       -> WrArrayToFlesh         82      2
       -> atol                   82      2
       -> RdFromFleshToArr       82      2
       -> crc_m1                 82      2
       -> WrArrayToFlesh         82      2
       -> RdFromFleshToArr       82      2
       -> crc_m1                 82      2
       -> WrArrayToFlesh         82      2
       -> atol                   82      2
       -> RdFromFleshToArr       82      2
       -> crc_m1                 82      2
       -> WrArrayToFlesh         82      2
       -> atol                   82      2
       -> RdFromFleshToArr       82      2
       -> crc_m1                 82      2
       -> WrArrayToFlesh         82      2
       -> atol                   82      2
       -> RdFromFleshToArr       82      2
       -> crc_m1                 82      2
       -> WrArrayToFlesh         82      2
       -> atol                   82      2
       -> RdFromFleshToArr       82      2
       -> crc_m1                 82      2
       -> WrArrayToFlesh         82      2
       -> atol                   82      2
       -> RdFromFleshToArr       82      2
       -> crc_m1                 82      2
       -> WrArrayToFlesh         82      2
       -> atol                   82      2
       -> RdFromFleshToArr       82      2
       -> crc_m1                 82      2
       -> WrArrayToFlesh         82      2
       -> mov_s                  82      2
       -> RdFromFleshToArr       82      2
       -> crc_m1                 82      2
       -> WrArrayToFlesh         82      2
       -> RdFromFleshToArr       82      2
       -> crc_m1                 82      2
       -> WrArrayToFlesh         82      2
       -> vosstan_memory         82      2
       -> burst_ds_r             82      2
       -> atol                   82      2
       -> atol                   82      2
       -> atol                   82      2
       -> set_rlt                82      2
       -> burst_ds_r             82      2
       -> atol                   82      2
       -> atol                   82      2
       -> atol                   82      2
       -> set_rlt                82      2
       -> WrArrayToFlesh         82      2
       -> RdFromFleshToArr       82      2
       -> s_port                 82      2
       -> s_port                 82      2
       -> s_port                 82      2
       -> crc_m1                 82      2
       -> WrArrayToFlesh         82      2
       -> check_keys             82      2
       -> mov_s                  82      2


   Segment part sizes:

     Function/Label                 Bytes
     --------------                 -----
     _A_UBRR2                          2
     _A_UCSR2B                         1
     _A_UCSR0B                         1
     _A_WDTCSR                         1
     _A_PORTG                          1
     _A_PORTC                          1
     _A_PINB                           1
     atol                             14
     e_first_on                        1
     e_debug                           1
     ozu_vers                        202
     keys_def                         17
     map_vers                         55
     def_apn                          52
     def_usname                        1
     def_uspsw                         1
     def_usname1                       1
     def_uspsw1                        1
     def_apn2                         20
     def_usname3                       1
     def_uspsw3                        1
     fl_at_mom_232                     2
     Regim                             1
     keys                             10
     ret_version                      92
     vosstan_memory                 1006
     check_memory_map               1360
     load_par_first                   78
     check_keys                       62
     mov_massiv                       30
     read_menu                      1564
     write_menu                     4112
     at_mon_232                      238
     monitor_terminal                244
     ?<Initializer for <Constant "%u\000">>
                                       8
     ?<Jumptable for read_menu>_0     66
     ?<Jumptable for write_menu>_0    62
     ?<Constant "%u\000">              8
      Others                          14

 
     8 bytes in segment ABSOLUTE
 8 800 bytes in segment CODE
     2 bytes in segment EEPROM_AN
    14 bytes in segment INITTAB
   352 bytes in segment NEAR_F
     8 bytes in segment NEAR_I
     8 bytes in segment NEAR_ID
    13 bytes in segment NEAR_Z
   128 bytes in segment SWITCH
 
 9 274 bytes of CODE  memory (+ 28 bytes shared)
    21 bytes of DATA  memory (+  8 bytes shared)
     0 bytes of XDATA memory (+  2 bytes shared)

Errors: none
Warnings: none
