//////////////////////////////////////////////////////////////////////////////
//                                                                           /
//                                                     24/Oct/2025  13:27:33 /
// IAR Atmel AVR C/C++ Compiler V4.12A/W32, Evaluation Version               /
// Copyright 1996-2005 IAR Systems. All rights reserved.                     /
//                                                                           /
//    Source file  =  E:\sim800Elam2560_bootnew_i2cerr_a7682e\ldterm1.c      /
//    Command line =  E:\sim800Elam2560_bootnew_i2cerr_a7682e\ldterm1.c      /
//                    --cpu=m2560 -ms -o E:\sim800Elam2560_bootnew_i2cerr_a7 /
//                    682e\Debug\Obj\ -lCN E:\sim800Elam2560_bootnew_i2cerr_ /
//                    a7682e\Debug\List\ -lA E:\sim800Elam2560_bootnew_i2cer /
//                    r_a7682e\Debug\List\ -y --initializers_in_flash -z9    /
//                    --no_inline --no_tbaa --cross_call_passes=1 --debug    /
//                    -e -I "E:\box\IAR Systems\Embedded Workbench 4.0       /
//                    Evaluation\avr\INC\" -I "E:\box\IAR Systems\Embedded   /
//                    Workbench 4.0 Evaluation\avr\INC\DLIB\" --eeprom_size  /
//                    4096 --dlib_config "E:\box\IAR Systems\Embedded        /
//                    Workbench 4.0 Evaluation\avr\LIB\DLIB\dlAVR-5s-ec-n.h" /
//    List file    =  E:\sim800Elam2560_bootnew_i2cerr_a7682e\Debug\List\ldt /
//                    erm1.s90                                               /
//                                                                           /
//                                                                           /
//////////////////////////////////////////////////////////////////////////////

        NAME ldterm1

        RTMODEL "__64bit_doubles", "disabled"
        RTMODEL "__cpu", "5"
        RTMODEL "__cpu_name", "ATmega2560"
        RTMODEL "__dlib_file_descriptor", "0"
        RTMODEL "__enhanced_core", "enabled"
        RTMODEL "__has_elpm", "true"
        RTMODEL "__memory_model", "2"
        RTMODEL "__no_rampd", "enabled"
        RTMODEL "__rt_version", "3"

        RSEG CSTACK:DATA:NOROOT(0)
        RSEG RSTACK:DATA:NOROOT(0)

        EXTERN ?CV_SWITCH_L06
        EXTERN ?EPILOGUE_B4_L09
        EXTERN ?EPILOGUE_B5_L09
        EXTERN ?EPILOGUE_B6_L09
        EXTERN ?EPILOGUE_B9_L09
        EXTERN ?L_EC_MUL_L03
        EXTERN ?PROLOGUE4_L09
        EXTERN ?PROLOGUE5_L09
        EXTERN ?PROLOGUE6_L09
        EXTERN ?PROLOGUE9_L09
        EXTERN ?Register_R4_is_cg_reg
        EXTERN ?Register_R5_is_cg_reg
        EXTERN ?Register_R6_is_cg_reg
        EXTERN ?Register_R7_is_cg_reg
        EXTERN ?Register_R8_is_cg_reg
        EXTERN ?US_SHR_L02
        EXTERN ?need_segment_init
        EXTERN __eeget8_16
        EXTERN __eeput8_16

        PUBWEAK `?<Segment init: NEAR_I>`
        PUBWEAK `?<Segment init: NEAR_Z>`
?Subroutine116 EQU 0
?Subroutine133 EQU 0
?Subroutine134 EQU 0
?Subroutine61 EQU 0
?Subroutine62 EQU 0
?Subroutine73 EQU 0
?Subroutine85 EQU 0
        PUBLIC Regim
        PUBWEAK _A_PINB
        PUBWEAK _A_PINK
        PUBWEAK _A_PORTA
        PUBWEAK _A_PORTC
        PUBWEAK _A_PORTD
        PUBWEAK _A_PORTG
        PUBWEAK _A_PORTJ
        PUBWEAK _A_UBRR1
        PUBWEAK _A_UBRR2
        PUBWEAK _A_UBRR3
        PUBWEAK _A_UCSR0B
        PUBWEAK _A_UCSR1A
        PUBWEAK _A_UCSR1B
        PUBWEAK _A_UCSR2A
        PUBWEAK _A_UCSR2B
        PUBWEAK _A_UCSR3A
        PUBWEAK _A_UCSR3B
        PUBWEAK _A_UDR1
        PUBWEAK _A_UDR2
        PUBWEAK _A_UDR3
        PUBWEAK _A_WDTCSR
        PUBWEAK __?EEARH
        PUBWEAK __?EEARL
        PUBWEAK __?EECR
        PUBWEAK __?EEDR
        PUBLIC at_mon_232
        FUNCTION at_mon_232,021203H
        LOCFRAME CSTACK, 6, STACK
        LOCFRAME RSTACK, 3, STACK
        PUBWEAK atol
        FUNCTION atol,031203H
        LOCFRAME RSTACK, 3, STACK
        PUBLIC buf_boot_ver
        PUBLIC check_keys
        FUNCTION check_keys,021203H
        LOCFRAME CSTACK, 4, STACK
        LOCFRAME RSTACK, 3, STACK
        PUBLIC check_memory_map
        FUNCTION check_memory_map,021203H
        LOCFRAME CSTACK, 72, STACK
        LOCFRAME RSTACK, 3, STACK
        PUBLIC command_900
        PUBLIC def_apn
        PUBLIC def_apn1
        PUBLIC def_apn2
        PUBLIC def_apn3
        PUBLIC def_apnr
        PUBLIC def_usname
        PUBLIC def_usname1
        PUBLIC def_usname2
        PUBLIC def_usname3
        PUBLIC def_usnamer
        PUBLIC def_uspsw
        PUBLIC def_uspsw1
        PUBLIC def_uspsw2
        PUBLIC def_uspsw3
        PUBLIC def_uspswr
        PUBLIC dis
        PUBWEAK e_debug
        PUBWEAK e_first_on
        PUBLIC err_t
        PUBLIC fl_at_mom_232
        PUBLIC index_pa
        PUBLIC init_sim900
        PUBLIC keys
        PUBLIC keys_def
        PUBLIC load_par_first
        FUNCTION load_par_first,021203H
        LOCFRAME RSTACK, 6, STACK
        PUBLIC map_test_mtc
        PUBLIC map_vers
        PUBLIC monitor_terminal
        FUNCTION monitor_terminal,021203H
        LOCFRAME CSTACK, 4, STACK
        LOCFRAME RSTACK, 3, STACK
        PUBLIC mov_massiv
        FUNCTION mov_massiv,021203H
        LOCFRAME CSTACK, 4, STACK
        LOCFRAME RSTACK, 3, STACK
        PUBLIC ok_t
        PUBLIC ozu_vers
        PUBLIC point_Tail
        PUBLIC read_menu
        FUNCTION read_menu,021203H
        LOCFRAME CSTACK, 92, STACK
        LOCFRAME RSTACK, 6, STACK
        PUBLIC ret_version
        FUNCTION ret_version,0203H
        LOCFRAME RSTACK, 3, STACK
        PUBLIC scenario_test_mtc
        FUNCTION scenario_test_mtc,021203H
        LOCFRAME CSTACK, 21, STACK
        LOCFRAME RSTACK, 6, STACK
        PUBLIC str_loop2_ok
        PUBLIC str_loop_ok
        PUBLIC term
        PUBLIC term_900
        PUBLIC test_loop
        FUNCTION test_loop,021203H
        LOCFRAME CSTACK, 1, STACK
        LOCFRAME RSTACK, 3, STACK
        PUBLIC test_loop2
        FUNCTION test_loop2,021203H
        LOCFRAME CSTACK, 1, STACK
        LOCFRAME RSTACK, 3, STACK
        PUBLIC test_mtc
        PUBLIC versia
        PUBLIC vosstan_memory
        FUNCTION vosstan_memory,021203H
        LOCFRAME CSTACK, 70, STACK
        LOCFRAME RSTACK, 3, STACK
        PUBLIC write_menu
        FUNCTION write_menu,021203H
        LOCFRAME CSTACK, 83, STACK
        LOCFRAME RSTACK, 6, STACK
        PUBLIC zp_apn1
        PUBLIC zp_apn2
        PUBLIC zp_date
        PUBLIC zp_db1
        PUBLIC zp_db2
        PUBLIC zp_db3
        PUBLIC zp_dbg
        PUBLIC zp_des_seq
        PUBLIC zp_ip
        PUBLIC zp_keys
        PUBLIC zp_link
        PUBLIC zp_log_file
        PUBLIC zp_nat
        PUBLIC zp_nat_r
        PUBLIC zp_num
        PUBLIC zp_num_seq
        PUBLIC zp_pinsim1
        PUBLIC zp_pinsim2
        PUBLIC zp_sel_mod
        PUBLIC zp_temp
        PUBLIC zp_tii1
        PUBLIC zp_time
        PUBLIC zp_tit
        PUBLIC zp_tm_cl
        PUBLIC zp_tm_link
        PUBLIC zp_tm_link_res
        PUBLIC zp_tm_no_link
        PUBLIC zp_tm_vz
        PUBLIC zp_traffic
        PUBLIC zp_ts1
        PUBLIC zp_ts_dop
        PUBLIC zp_tu
        PUBLIC zp_type_tc1
        PUBLIC zp_type_tc2
        PUBLIC zp_udp
        PUBLIC zp_vosst
        
        CFI Names cfiNames0
        CFI StackFrame CFA_Y Y DATA
        CFI StackFrame CFA_SP SP DATA
        CFI VirtualResource ?RetPad:1, ?RetByte3:8, ?RetHigh:8, ?RetLow:8
        CFI VirtualResource ?Ret:25
        CFI Resource R0:8, R1:8, R2:8, R3:8, R4:8, R5:8, R6:8, R7:8, R8:8, R9:8
        CFI Resource R10:8, R11:8, R12:8, R13:8, R14:8, R15:8, R16:8, R17:8
        CFI Resource R18:8, R19:8, R20:8, R21:8, R22:8, R23:8, R24:8, R25:8
        CFI Resource R26:8, R27:8, R28:8, R29:8, R30:8, R31:8
        CFI Resource ?RetHighByteMask:8, SP:16, SPH:8, SPL:8, Y:16
        CFI ResourceParts ?Ret ?RetByte3, ?RetHigh, ?RetLow, ?RetPad
        CFI ResourceParts SP SPH, SPL
        CFI ResourceParts Y R29, R28
        CFI EndNames cfiNames0
        
        CFI Common cfiCommon0 Using cfiNames0
        CFI CodeAlign 1
        CFI DataAlign 1
        CFI ReturnAddress ?Ret CODE
        CFI CFA_Y Y+0
        CFI CFA_SP SP+3
        CFI ?RetPad 0
        CFI ?RetByte3 and(load(1, DATA, sub(CFA_SP, 2)), ?RetHighByteMask)
        CFI ?RetHigh Frame(CFA_SP, -1)
        CFI ?RetLow Frame(CFA_SP, 0)
        CFI ?Ret Concat
        CFI R0 Undefined
        CFI R1 Undefined
        CFI R2 Undefined
        CFI R3 Undefined
        CFI R4 SameValue
        CFI R5 SameValue
        CFI R6 SameValue
        CFI R7 SameValue
        CFI R8 SameValue
        CFI R9 SameValue
        CFI R10 SameValue
        CFI R11 SameValue
        CFI R12 SameValue
        CFI R13 SameValue
        CFI R14 SameValue
        CFI R15 SameValue
        CFI R16 Undefined
        CFI R17 Undefined
        CFI R18 Undefined
        CFI R19 Undefined
        CFI R20 Undefined
        CFI R21 Undefined
        CFI R22 Undefined
        CFI R23 Undefined
        CFI R24 SameValue
        CFI R25 SameValue
        CFI R26 SameValue
        CFI R27 SameValue
        CFI R28 Undefined
        CFI R29 Undefined
        CFI R30 Undefined
        CFI R31 Undefined
        CFI ?RetHighByteMask SameValue
        CFI SPH Undefined
        CFI SPL Undefined
        CFI EndCommon cfiCommon0
        
        
        CFI Common cfiCommon1 Using cfiNames0
        CFI CodeAlign 1
        CFI DataAlign 1
        CFI ReturnAddress ?Ret CODE
        CFI CFA_Y Notused
        CFI CFA_SP SP+3
        CFI ?RetPad 0
        CFI ?RetByte3 and(load(1, DATA, sub(CFA_SP, 2)), ?RetHighByteMask)
        CFI ?RetHigh Frame(CFA_SP, -1)
        CFI ?RetLow Frame(CFA_SP, 0)
        CFI ?Ret Concat
        CFI R0 SameValue
        CFI R1 SameValue
        CFI R2 SameValue
        CFI R3 SameValue
        CFI R4 SameValue
        CFI R5 SameValue
        CFI R6 SameValue
        CFI R7 SameValue
        CFI R8 SameValue
        CFI R9 SameValue
        CFI R10 SameValue
        CFI R11 SameValue
        CFI R12 SameValue
        CFI R13 SameValue
        CFI R14 SameValue
        CFI R15 SameValue
        CFI R16 SameValue
        CFI R17 SameValue
        CFI R18 SameValue
        CFI R19 SameValue
        CFI R20 SameValue
        CFI R21 SameValue
        CFI R22 SameValue
        CFI R23 SameValue
        CFI R24 SameValue
        CFI R25 SameValue
        CFI R26 SameValue
        CFI R27 SameValue
        CFI R28 Undefined
        CFI R29 Undefined
        CFI R30 SameValue
        CFI R31 SameValue
        CFI ?RetHighByteMask SameValue
        CFI SPH Undefined
        CFI SPL Undefined
        CFI Y SameValue
        CFI EndCommon cfiCommon1
        
        EXTERN _Stoul
        FUNCTION _Stoul,010202H
        EXTERN crc_m1
        FUNCTION crc_m1,0202H
        EXTERN WrArrayToFlesh
        FUNCTION WrArrayToFlesh,0202H
        EXTERN RdFromFleshToArr
        FUNCTION RdFromFleshToArr,0202H
        EXTERN burst_ds_r
        FUNCTION burst_ds_r,0202H
        EXTERN s_port
        FUNCTION s_port,0202H
        EXTERN memset
        FUNCTION memset,010202H
        EXTERN mov_lf
        FUNCTION mov_lf,0202H
        EXTERN mov_s
        FUNCTION mov_s,0202H
        EXTERN temp_to_grad
        FUNCTION temp_to_grad,0202H
        EXTERN sprintf
        FUNCTION sprintf,010202H
        EXTERN strlen
        FUNCTION strlen,010202H
        EXTERN memcmp
        FUNCTION memcmp,010202H
        EXTERN fun_init_sim900
        FUNCTION fun_init_sim900,0202H
        EXTERN set_rlt
        FUNCTION set_rlt,0202H
        EXTERN lock_it
        FUNCTION lock_it,0202H
        EXTERN send_to_sim900
        FUNCTION send_to_sim900,0202H
        EXTERN delay
        FUNCTION delay,0202H
        EXTERN Appl_seq_buf
        EXTERN buf_tx_232
        EXTERN cnt_tu1
        EXTERN cnt_tu2
        EXTERN csq
        EXTERN emei
        EXTERN emei_emei
        EXTERN fl_at_com
        EXTERN modbus_mem1
        EXTERN point_Head
        EXTERN point_log_buf
        EXTERN real_time
        EXTERN sel_modul
        EXTERN simka
        EXTERN struct_tcc1
        EXTERN struct_tcc2
        EXTERN temperatura
        EXTERN vol_tx_ppp

// E:\sim800Elam2560_bootnew_i2cerr_a7682e\ldterm1.c
//    1 
//    2 
//    3 #include <iom2560.h>

        ASEGN ABSOLUTE:DATA:NOROOT,0136H
// union <unnamed> volatile __ext_io _A_UDR3
_A_UDR3:
        DS 1

        ASEGN ABSOLUTE:DATA:NOROOT,0134H
// union <unnamed> volatile __ext_io _A_UBRR3
_A_UBRR3:
        DS 2

        ASEGN ABSOLUTE:DATA:NOROOT,0131H
// union <unnamed> volatile __ext_io _A_UCSR3B
_A_UCSR3B:
        DS 1

        ASEGN ABSOLUTE:DATA:NOROOT,0130H
// union <unnamed> volatile __ext_io _A_UCSR3A
_A_UCSR3A:
        DS 1

        ASEGN ABSOLUTE:DATA:NOROOT,0106H
// union <unnamed> volatile __ext_io _A_PINK
_A_PINK:
        DS 1

        ASEGN ABSOLUTE:DATA:NOROOT,0105H
// union <unnamed> volatile __ext_io _A_PORTJ
_A_PORTJ:
        DS 1

        ASEGN ABSOLUTE:DATA:NOROOT,0d6H
// union <unnamed> volatile __io _A_UDR2
_A_UDR2:
        DS 1

        ASEGN ABSOLUTE:DATA:NOROOT,0d4H
// union <unnamed> volatile __io _A_UBRR2
_A_UBRR2:
        DS 2

        ASEGN ABSOLUTE:DATA:NOROOT,0d1H
// union <unnamed> volatile __io _A_UCSR2B
_A_UCSR2B:
        DS 1

        ASEGN ABSOLUTE:DATA:NOROOT,0d0H
// union <unnamed> volatile __io _A_UCSR2A
_A_UCSR2A:
        DS 1

        ASEGN ABSOLUTE:DATA:NOROOT,0ceH
// union <unnamed> volatile __io _A_UDR1
_A_UDR1:
        DS 1

        ASEGN ABSOLUTE:DATA:NOROOT,0ccH
// union <unnamed> volatile __io _A_UBRR1
_A_UBRR1:
        DS 2

        ASEGN ABSOLUTE:DATA:NOROOT,0c9H
// union <unnamed> volatile __io _A_UCSR1B
_A_UCSR1B:
        DS 1

        ASEGN ABSOLUTE:DATA:NOROOT,0c8H
// union <unnamed> volatile __io _A_UCSR1A
_A_UCSR1A:
        DS 1

        ASEGN ABSOLUTE:DATA:NOROOT,0c1H
// union <unnamed> volatile __io _A_UCSR0B
_A_UCSR0B:
        DS 1

        ASEGN ABSOLUTE:DATA:NOROOT,060H
// union <unnamed> volatile __io _A_WDTCSR
_A_WDTCSR:
        DS 1

        ASEGN ABSOLUTE:DATA:NOROOT,034H
// union <unnamed> volatile __io _A_PORTG
_A_PORTG:
        DS 1

        ASEGN ABSOLUTE:DATA:NOROOT,02bH
// union <unnamed> volatile __io _A_PORTD
_A_PORTD:
        DS 1

        ASEGN ABSOLUTE:DATA:NOROOT,028H
// union <unnamed> volatile __io _A_PORTC
_A_PORTC:
        DS 1

        ASEGN ABSOLUTE:DATA:NOROOT,023H
// union <unnamed> volatile __io _A_PINB
_A_PINB:
        DS 1

        ASEGN ABSOLUTE:DATA:NOROOT,022H
// union <unnamed> volatile __io _A_PORTA
_A_PORTA:
        DS 1
//    4 #include <string.h>
//    5 #include <stdio.h>
//    6 #include <inavr.h>
//    7 #include <stdlib.h>

        RSEG FARCODE:CODE:NOROOT(1)
// __intrinsic __farfunc __version_3 long atol(char const *)
atol:
        CFI Block cfiBlock0 Using cfiCommon0
        CFI Function atol
        FUNCALL atol, _Stoul
        LOCFRAME RSTACK, 3, STACK
        LDI	R20, 10
        LDI	R21, 0
        LDI	R18, 0
        LDI	R19, 0
        JMP	_Stoul
        CFI EndBlock cfiBlock0
//    8 #include "ozu_map.h"
//    9 #include "map_ef.h"
//   10 #include "def_conf.h"
//   11 //#include "def_link.h"
//   12 //#include "def_log.h"
//   13 #include "dfpin.h"
//   14 #include "dfproc.h"
//   15 #include "map_ad.h"
//   16 #include "dfcnst.h"
//   17 #include "map_mbus.h"
//   18 #include "idterm1.h"
//   19 #include "scenario_test_mtc.h"
//   20 #include "at_com.h"
//   21 
//   22 #ifdef SCENARIO_TEST_MTC_ENABLE

        RSEG NEAR_Z:DATA:NOROOT(0)
        REQUIRE `?<Segment init: NEAR_Z>`
//   23 TEST_MTC test_mtc;
test_mtc:
        DS 4
//   24 #endif
//   25 
//   26 //#define VOL_PUNKT 33 //(меню от 0 до VOL_PUNKT)  //dobavka
//   27 #define VOL_PUNKT 41 //(меню от 0 до VOL_PUNKT)  //dobavka
//   28 
//   29 #ifdef VERS_BASE
//   30 __flash char ozu_vers[]  =   {'R','M','0','1','.','0','1',':','1','9','1','1','0','7'};
//   31 #endif
//   32 
//   33 #ifdef VERS_LUFKIN
//   34 __flash char ozu_vers[]  =   {'R','M','0','2','.','0','1',':','1','9','1','1','0','7'};
//   35 #endif
//   36 
//   37 #ifdef VERS_UNKNOWN
//   38 __flash char ozu_vers[]  =   {'R','M','0','0','.','0','1',':','1','9','1','1','0','7'};
//   39 #endif
//   40 
//   41 
//   42  #pragma location=FIRST_ON 

        ASEGN EEPROM_AN:XDATA:NOROOT,00H
//   43 __eeprom __no_init unsigned char e_first_on; 
e_first_on:
        DS 1
//   44 
//   45  #pragma location=A_DEBUG 

        ASEGN EEPROM_AN:XDATA:NOROOT,03H
//   46 __eeprom __no_init unsigned char e_debug;
e_debug:
        DS 1
//   47 

        RSEG NEAR_Z:DATA:NOROOT(0)
        REQUIRE `?<Segment init: NEAR_Z>`
//   48 TERM term;
term:
        DS 2
//   49 
//   50 extern __no_init unsigned char simka; //dobavka
//   51 extern unsigned char sel_modul;
//   52 extern unsigned int temperatura;
//   53 char temp_to_grad(unsigned int t);
//   54 
//   55 
//   56 extern unsigned int num_self;

        RSEG NEAR_Z:DATA:NOROOT(0)
        REQUIRE `?<Segment init: NEAR_Z>`
//   57 unsigned char buf_boot_ver[10];
buf_boot_ver:
        DS 10

        RSEG NEAR_F:CODE:NOROOT(0)
//   58 void read_boot_ver(void);
//   59 
//   60 /*
//   61 extern struct
//   62 {
//   63 unsigned char ok :1;//требуемый ответ
//   64 unsigned char err :1;//ошибочный, нетребуемый ответ
//   65 unsigned char tm_out :1;//отсутствие ответа
//   66 unsigned char tx_en :1;//послать комманду
//   67 unsigned char rx_en :1;//принимать ответы
//   68 unsigned char rx_rec :1;//прин€т ответ
//   69 unsigned char greg_ereg :1;//пакетник GPRS or LTE
//   70 //unsigned char tm_out_en:1;//разрешение анализа по превышению времени ожидани€ ответа
//   71 }
//   72 fl_at_com;
//   73 */
//   74 extern struct
//   75 {
//   76  
//   77   unsigned char tek_pin :1;
//   78   unsigned char old_pin :1;
//   79   unsigned char fl_ch_tc :1;
//   80   unsigned char real_tc;
//   81   unsigned int count_tc; 
//   82   unsigned char type;
//   83   unsigned char cnt_block_tc;
//   84 }struct_tcc1,struct_tcc2;
//   85 
//   86 void    mov_buf (char size,unsigned char * p);
//   87 void control_temperatura(void);
//   88 void fun_init_sim900(void);
//   89 void send_to_sim900(char num);
//   90 
//   91 unsigned char fl_at_mom_232;
//   92 unsigned char Regim;
//   93 
//   94 extern void WrArrayToFlesh(unsigned int adres_flesh,  unsigned char *adres_ozu, unsigned int num,unsigned char flag,unsigned char znach);   
//   95 extern void RdFromFleshToArr(unsigned int adres_flesh, unsigned char *adres_ozu,unsigned int num);
//   96 
//   97 extern unsigned long int burst_ds_r(void);
//   98 extern void set_rlt(unsigned char address, unsigned char * data);
//   99 extern void RdFromFleshToArr(unsigned int adres_flesh, unsigned char *adres_ozu,unsigned int num);
//  100 extern void lock_it(void);
//  101 
//  102 
//  103 
//  104 extern void s_port(unsigned char ch);
//  105 extern void    mov_lf (void);
//  106 extern void    mov_s (char size, char __flash* p);
//  107 
//  108 
//  109 
//  110 extern struct
//  111         { // в двоичном коде
//  112           char r_sec;
//  113           char r_min;
//  114           char r_hor;
//  115           char r_day;
//  116           char r_date;
//  117           char r_month;
//  118           char r_year;
//  119           char r_control;
//  120         }  real_time;
//  121 
//  122 
//  123 extern unsigned char point_log_buf;
//  124 
//  125 __flash char zp_apn1[] = {'4','.','A','P','N',' ','S','I','M','1',':',' '};
//  126 __flash char zp_apn2[] = {'5','.','A','P','N',' ','S','I','M','2',':',' '};
//  127 __flash char zp_ip[] = {'6','.','I','P',' ','a','d','d','r','e','s','s',' ','L','S',':',' '};
//  128 
//  129 __flash char zp_db1[] = {'2','2','.','D','B',' ','A','P','N',':','1','.',' '};
//  130 __flash char zp_db2[] = {'2','3','.','D','B',' ','A','P','N',':','2','.',' '};
//  131 __flash char zp_db3[] = {'2','4','.','D','B',' ','A','P','N',':','3','.',' '};
//  132 
//  133 __flash char err_t[] = {0xd,0xa,'E','R','R'};
//  134 __flash char ok_t[] = {0xd,0xa,'O','K'};
//  135 __flash char dis[] = {0xd,0xa,'D','I','S','A','B','L','E'};
//  136 
//  137 
//  138 __flash char map_vers[]  =   {'F','M','0','2','.','0','1',':','1','9','1','1','0','7'};
//  139 __flash char map_test_mtc[]  =   {'T','E','C','T','.','M','T','C',' ','M','O','D','U','L'};
//  140 
//  141 __flash  char str_loop_ok[]= {"LOOP 485_1"};
//  142 __flash  char str_loop2_ok[]= {"LOOP 485_2"};
//  143 __flash char versia[] = {"M2560 A7682E 02-09-25"};                         //{'S','I','0','2','.','0','6',':','1','1','0','3','1','6'};
versia:
        DB "M2560 A7682E 02-09-25"
//  144 
//  145 //__flash char zp_udp[]=        {'U','D','P','p','o','r','t','-','>'};
//  146 __flash char zp_udp[]=        {'7','.','U','D','P',' ','p','o','r','t',' ','L','S',':',' '};
//  147 
//  148 //__flash char zp_num[]=        {'N','u','m','-','>'};
//  149 __flash char zp_num[]=        {'8','.','U','n','i','t',' ','n','u','m','b','e','r',':',' '};
//  150 
//  151 __flash char init_sim900[]=        {'I','N','I','T','_','S','I','M','x','0','0',' ','O','K','!'};
//  152 __flash char command_900[]=        {'C','O','M','M','A','N','D','>'};
//  153 __flash char term_900[]=        {"TERMINAL SIM"};
//  154 
//  155 //__flash char zp_nat[]=        {'S','e','s',' ','S','I','M','1','-','>'};
//  156 //__flash char zp_nat_r[]=      {'S','e','s',' ','S','I','M','2','-','>'};
//  157 __flash char zp_nat[]=        {'9','.','T','i','m','e',' ','s','e','s','s','i','o','n',' ','S','I','M','1',',','s',':',' '};
//  158 __flash char zp_nat_r[]=      {'1','0','.','T','i','m','e',' ','s','e','s','s','i','o','n',' ','S','I','M','2',',','s',':',' '};
//  159 
//  160 
//  161 
//  162 //__flash char zp_link[]=       {'T','m',' ','c','c','h','-','>'};
//  163 __flash char zp_link[]=       {'1','1','.','T','i','m','e',' ','c','o','n','t','r','o','l',' ','c','h','a','n','n','e','l',',','s',':',' '};
//  164 
//  165 //__flash char zp_tm_link[]=    {'T','m',' ','a','n','s','-','>'};
//  166 __flash char zp_tm_link[]=     {'1','2','.','T','i','m','e',' ','r','e','s','p','o','n','s','e',',','s',':',' '};
//  167 
//  168 
//  169 //__flash char zp_tm_no_link[]= {'T','m',' ','d','c','n','-','>'};        //!!!!!!!!!!!!!!!!dobavka
//  170 __flash char zp_tm_no_link[]=   {'1','3','.','T','i','m','e',' ','n','o',' ','l','i','n','k',',','m','i','n',':',' '};
//  171 
//  172 //__flash char zp_tm_link_res[]={'T','m',' ','r','e','s','-','>'};    //!!!!!!!!!!!!!!!!dobavka
//  173 __flash char zp_tm_link_res[]=  {'1','4','.','T','i','m','e',' ','r','e','s','e','r','v','e',' ','S','I','M','2',',','m','i','n',':',' '};
//  174 
//  175 
//  176 //__flash char zp_tm_vz[]=      {'T','m',' ','t','a','k','e','-','>'};
//  177 __flash char zp_tm_vz[]=        {'1','7','.','T','i','m','e',' ','t','a','k','i','n','g',',','s',':',' '};
//  178 
//  179 //__flash char zp_tm_cl[]=      {'T','m',' ','c','l','-','>'};
//  180 __flash char zp_tm_cl[]=      {'1','8','.','T','i','m','e',' ','c','o','n','t','r','o','l',' ','c','l','i','e','n','t',',','s',':',' '};
//  181 
//  182 //__flash char zp_num_seq[]=    {'C','l',' ','m','s','q','-','>'};
//  183 __flash char zp_num_seq[]=     {'1','6','.','C','l','i','e','n','t',' ','n','u','m','b','e','r',':',' '};   
//  184 
//  185 
//  186 //__flash char zp_des_seq[]=    {'D','e','s',' ','m','s','g','-','>'};
//  187 __flash char zp_des_seq[]=     {'1','5','.','D','e','s','.',' ','m','e','s','s','a','g','e',':',' '}; 
//  188 
//  189 
//  190 //__flash char zp_type_tc1[]={'T','y','p','e',' ','T','S','1','-','>'};
//  191 //__flash char zp_type_tc2[]={'T','y','p','e',' ','T','S','2','-','>'};
//  192 __flash char zp_type_tc1[]={'1','9','.','T','y','p','e',' ','T','S','1',':',' '};
//  193 __flash char zp_type_tc2[]={'2','0','.','T','y','p','e',' ','T','S','2',':',' '};
//  194 
//  195 //__flash char zp_dbg[]=        {'D','B','G','-','>'};
//  196 __flash char zp_dbg[]=        {'2','1','.','U','n','i','t',' ','r','e','g','i','m','e',':',' '};
//  197 
//  198 
//  199 
//  200 
//  201 //__flash char zp_ts1[]=        {'T','S','1','-','2','-','>'};
//  202 __flash char zp_ts1[]= {'2','5','.','T','S','1','-','2',':',' '};
//  203 
//  204 //__flash char zp_temp[]=       {'t','-','>'};
//  205 
//  206 //__flash char zp_temp[]= {'2','6','.','A','D',' ','c','o','n','v','e','r','t','e','r',':',' '}; 
//  207 __flash char zp_temp[]= {'2','6','.','T','e','m','p','e','r','a','t','u','r','e',':',' '};
//  208 
//  209 //__flash char zp_vosst[]=      {'S','e','t',' ','d','e','f','-','>'};
//  210 __flash char zp_vosst[]=      {'2','7','.','S','e','t',' ','d','e','f','a','u','l','t',':',' '};
//  211 
//  212 //__flash char zp_time[]=       {'T','i','m','e','-','>'};
//  213 //__flash char zp_date[]=       {'D','a','t','e','-','>'};
//  214 __flash char zp_time[]=       {'2','8','.','T','i','m','e',':',' '};
//  215 __flash char zp_date[]=       {'2','9','.','D','a','t','e',':',' '};
//  216 
//  217 //__flash char zp_log_file[]=   {'L','o','g',' ','f','i','l','e','-','>'};
//  218 __flash char zp_log_file[]=   {'3','0','.','L','o','g',' ','f','i','l','e',':',' '};
//  219 
//  220 //__flash char zp_keys[]=       {'K','e','y',' ','d','e','f','-','>'};
//  221 __flash char zp_keys[]=       {'3','1','.','K','e','y',' ','d','e','f',':',' '};
//  222 
//  223 
//  224 //__flash char zp_pinsim1[]=       {'P','I','N',' ','S','I','M','1','-','>'};
//  225 //__flash char zp_pinsim2[]=       {'P','I','N',' ','S','I','M','2','-','>'};
//  226 
//  227 __flash char zp_pinsim1[]=       {'3','2','.','P','I','N',' ','S','I','M','1','-','>'};
//  228 __flash char zp_pinsim2[]=       {'3','3','.','P','I','N',' ','S','I','M','2','-','>'};
//  229 
//  230 __flash char zp_traffic[]=      {'3','4','.','T','r','a','f','f','i','c',' ',' ','O','U','T',':','I','N',' ','-','>',' '};
//  231 
//  232 
//  233 __flash unsigned char keys_def[]={'s','m','a','r','t','p','l','u'};
keys_def:
        DB 115, 109, 97, 114, 116, 112, 108, 117
ozu_vers:
        DB 82, 77, 48, 49, 46, 48, 49, 58, 49, 57, 49, 49, 48, 55
zp_apn1:
        DB 52, 46, 65, 80, 78, 32, 83, 73, 77, 49, 58, 32
zp_apn2:
        DB 53, 46, 65, 80, 78, 32, 83, 73, 77, 50, 58, 32
zp_ip:
        DB 54, 46, 73, 80, 32, 97, 100, 100, 114, 101, 115, 115, 32, 76, 83, 58
        DB 32
zp_db1:
        DB 50, 50, 46, 68, 66, 32, 65, 80, 78, 58, 49, 46, 32
zp_db2:
        DB 50, 51, 46, 68, 66, 32, 65, 80, 78, 58, 50, 46, 32
zp_db3:
        DB 50, 52, 46, 68, 66, 32, 65, 80, 78, 58, 51, 46, 32
err_t:
        DB 13, 10, 69, 82, 82
ok_t:
        DB 13, 10, 79, 75
dis:
        DB 13, 10, 68, 73, 83, 65, 66, 76, 69
map_test_mtc:
        DB 84, 69, 67, 84, 46, 77, 84, 67, 32, 77, 79, 68, 85, 76
zp_udp:
        DB 55, 46, 85, 68, 80, 32, 112, 111, 114, 116, 32, 76, 83, 58, 32
zp_num:
        DB 56, 46, 85, 110, 105, 116, 32, 110, 117, 109, 98, 101, 114, 58, 32
init_sim900:
        DB 73, 78, 73, 84, 95, 83, 73, 77, 120, 48, 48, 32, 79, 75, 33
term_900:
        DB "TERMINAL SIM"
zp_nat:
        DB 57, 46, 84, 105, 109, 101, 32, 115, 101, 115, 115, 105, 111, 110, 32
        DB 83, 73, 77, 49, 44, 115, 58, 32
zp_nat_r:
        DB 49, 48, 46, 84, 105, 109, 101, 32, 115, 101, 115, 115, 105, 111, 110
        DB 32, 83, 73, 77, 50, 44, 115, 58, 32
zp_link:
        DB 49, 49, 46, 84, 105, 109, 101, 32, 99, 111, 110, 116, 114, 111, 108
        DB 32, 99, 104, 97, 110, 110, 101, 108, 44, 115, 58, 32
zp_tm_link:
        DB 49, 50, 46, 84, 105, 109, 101, 32, 114, 101, 115, 112, 111, 110, 115
        DB 101, 44, 115, 58, 32
zp_tm_no_link:
        DB 49, 51, 46, 84, 105, 109, 101, 32, 110, 111, 32, 108, 105, 110, 107
        DB 44, 109, 105, 110, 58, 32
zp_tm_link_res:
        DB 49, 52, 46, 84, 105, 109, 101, 32, 114, 101, 115, 101, 114, 118, 101
        DB 32, 83, 73, 77, 50, 44, 109, 105, 110, 58, 32
zp_tm_vz:
        DB 49, 55, 46, 84, 105, 109, 101, 32, 116, 97, 107, 105, 110, 103, 44
        DB 115, 58, 32
zp_tm_cl:
        DB 49, 56, 46, 84, 105, 109, 101, 32, 99, 111, 110, 116, 114, 111, 108
        DB 32, 99, 108, 105, 101, 110, 116, 44, 115, 58, 32
zp_num_seq:
        DB 49, 54, 46, 67, 108, 105, 101, 110, 116, 32, 110, 117, 109, 98, 101
        DB 114, 58, 32
zp_des_seq:
        DB 49, 53, 46, 68, 101, 115, 46, 32, 109, 101, 115, 115, 97, 103, 101
        DB 58, 32
zp_type_tc1:
        DB 49, 57, 46, 84, 121, 112, 101, 32, 84, 83, 49, 58, 32
zp_type_tc2:
        DB 50, 48, 46, 84, 121, 112, 101, 32, 84, 83, 50, 58, 32
zp_dbg:
        DB 50, 49, 46, 85, 110, 105, 116, 32, 114, 101, 103, 105, 109, 101, 58
        DB 32
zp_ts1:
        DB 50, 53, 46, 84, 83, 49, 45, 50, 58, 32
zp_temp:
        DB 50, 54, 46, 84, 101, 109, 112, 101, 114, 97, 116, 117, 114, 101, 58
        DB 32
zp_vosst:
        DB 50, 55, 46, 83, 101, 116, 32, 100, 101, 102, 97, 117, 108, 116, 58
        DB 32
zp_time:
        DB 50, 56, 46, 84, 105, 109, 101, 58, 32
zp_date:
        DB 50, 57, 46, 68, 97, 116, 101, 58, 32
zp_log_file:
        DB 51, 48, 46, 76, 111, 103, 32, 102, 105, 108, 101, 58, 32
zp_keys:
        DB 51, 49, 46, 75, 101, 121, 32, 100, 101, 102, 58, 32
zp_pinsim1:
        DB 51, 50, 46, 80, 73, 78, 32, 83, 73, 77, 49, 45, 62
zp_pinsim2:
        DB 51, 51, 46, 80, 73, 78, 32, 83, 73, 77, 50, 45, 62
zp_traffic:
        DB 51, 52, 46, 84, 114, 97, 102, 102, 105, 99, 32, 32, 79, 85, 84, 58
        DB 73, 78, 32, 45, 62, 32
//  234 
//  235 
//  236 __flash unsigned char def_apn[] = {'i','n','t','e','r','n','e','t','.','m','t','s','.','r','u',0x00};
//  237 __flash unsigned char def_usname[] = {0x00};   
//  238 __flash unsigned char def_uspsw[] = {0x00}; 
//  239 
//  240 __flash unsigned char def_apnr[] = {'i','n','t','e','r','n','e','t','.','b','e','e','l','i','n','e','.','r','u',0x00};
//  241 //__flash unsigned char def_usnamer[] = {'b','e','e','l','i','n','e',0x00};   
//  242 //__flash unsigned char def_uspswr[] = {'b','e','e','l','i','n','e',0x00};
//  243 __flash unsigned char def_usnamer[] = {0x00};   
//  244 __flash unsigned char def_uspswr[] = {0x00};
//  245 
//  246 __flash unsigned char def_apn1[] = {'i','n','t','e','r','n','e','t','.','m','t','s','.','r','u',0x00};
//  247 __flash unsigned char def_usname1[] = {0x00};   
//  248 __flash unsigned char def_uspsw1[] = {0x00}; 
//  249 
//  250 __flash unsigned char def_apn2[] = {'i','n','t','e','r','n','e','t','.','b','e','e','l','i','n','e','.','r','u',0x00};
//  251 //__flash unsigned char def_usname2[] = {'b','e','e','l','i','n','e',0x00};   
//  252 //__flash unsigned char def_uspsw2[] = {'b','e','e','l','i','n','e',0x00}; 
//  253 __flash unsigned char def_usname2[] = {0x00};   
//  254 __flash unsigned char def_uspsw2[] = {0x00}; 
//  255 
//  256 
//  257 __flash unsigned char def_apn3[] = {'i','n','t','e','r','n','e','t',0x00};
//  258 __flash unsigned char def_usname3[] = {0x00};   
//  259 __flash unsigned char def_uspsw3[] = {0x00}; 
//  260 
//  261 
//  262 
//  263 __flash char zp_ts_dop[]= {'3','5','.','T','S','e',':'};
zp_ts_dop:
        DB 51, 53, 46, 84, 83, 101, 58
//  264 __flash char zp_tit[]= {'3','6','.','T','I','T',':'};
zp_tit:
        DB 51, 54, 46, 84, 73, 84, 58
//  265 __flash char zp_tu[]= {'3','7','.','T','U','1','-','2',':',' '};
zp_tu:
        DB 51, 55, 46, 84, 85, 49, 45, 50, 58, 32
//  266 __flash char zp_tii1[]= {'3','8','.','T','I','I','1',':',' '};
zp_tii1:
        DB 51, 56, 46, 84, 73, 73, 49, 58, 32
//  267 __flash char zp_sel_mod[]= {'3','9','.','M','O','D','e',':',' '};
zp_sel_mod:
        DB 51, 57, 46, 77, 79, 68, 101, 58, 32

        RSEG NEAR_F:CODE:NOROOT(0)
map_vers:
        DB 70, 77, 48, 50, 46, 48, 49, 58, 49, 57, 49, 49, 48, 55
def_apn:
        DB 105, 110, 116, 101, 114, 110, 101, 116, 46, 109, 116, 115, 46, 114
        DB 117, 0
def_apn1:
        DB 105, 110, 116, 101, 114, 110, 101, 116, 46, 109, 116, 115, 46, 114
        DB 117, 0
def_apn3:
        DB 105, 110, 116, 101, 114, 110, 101, 116, 0

        RSEG NEAR_F:CODE:NOROOT(0)
str_loop_ok:
        DB "LOOP 485_1"

        RSEG NEAR_F:CODE:NOROOT(0)
str_loop2_ok:
        DB "LOOP 485_2"

        RSEG NEAR_F:CODE:NOROOT(0)
command_900:
        DB 67, 79, 77, 77, 65, 78, 68, 62

        RSEG NEAR_F:CODE:NOROOT(0)
def_usname:
        DB 0

        RSEG NEAR_F:CODE:NOROOT(0)
def_uspsw:
        DB 0

        RSEG NEAR_F:CODE:NOROOT(0)
def_apnr:
        DB 105, 110, 116, 101, 114, 110, 101, 116, 46, 98, 101, 101, 108, 105
        DB 110, 101, 46, 114, 117, 0
def_apn2:
        DB 105, 110, 116, 101, 114, 110, 101, 116, 46, 98, 101, 101, 108, 105
        DB 110, 101, 46, 114, 117, 0

        RSEG NEAR_F:CODE:NOROOT(0)
def_usnamer:
        DB 0

        RSEG NEAR_F:CODE:NOROOT(0)
def_uspswr:
        DB 0

        RSEG NEAR_F:CODE:NOROOT(0)
def_usname1:
        DB 0

        RSEG NEAR_F:CODE:NOROOT(0)
def_uspsw1:
        DB 0

        RSEG NEAR_F:CODE:NOROOT(0)
def_usname2:
        DB 0

        RSEG NEAR_F:CODE:NOROOT(0)
def_uspsw2:
        DB 0

        RSEG NEAR_F:CODE:NOROOT(0)
def_usname3:
        DB 0

        RSEG NEAR_F:CODE:NOROOT(0)
def_uspsw3:
        DB 0

        RSEG NEAR_Z:DATA:NOROOT(0)
        REQUIRE `?<Segment init: NEAR_Z>`
fl_at_mom_232:
        DS 1
//  268 
//  269 //__flash char zp_ts_dop_mtc[]= {'2','.','T','S',',':'};
//  270 
//  271 
//  272 unsigned char keys[10];
//  273 
//  274 extern unsigned int crc_m1(unsigned char *ka,unsigned int num,unsigned int crc);
//  275 extern void delay(unsigned int period);
//  276 
//  277 unsigned char index_pa;
index_pa:
        DS 1
//  278 
//  279 extern unsigned char buf_tx_232[VOL_TX_PPP];
//  280 extern unsigned int vol_tx_ppp;
//  281 
//  282 extern char emei[40], emei_emei[40], csq[20];
//  283 extern unsigned int modbus_mem1[SEG1];
//  284 
//  285 extern unsigned char cnt_tu1, cnt_tu2;
//  286 
//  287 extern unsigned char Appl_seq_buf[MAX_BUF_SEQ]; 
//  288 unsigned char point_Tail;
point_Tail:
        DS 1

        RSEG NEAR_Z:DATA:NOROOT(0)
        REQUIRE `?<Segment init: NEAR_Z>`
Regim:
        DS 1

        RSEG NEAR_Z:DATA:NOROOT(0)
        REQUIRE `?<Segment init: NEAR_Z>`
keys:
        DS 10
//  289 extern unsigned char point_Head;
//  290 

        RSEG FARCODE:CODE:NOROOT(1)
//  291 unsigned char ret_version(unsigned char unit,unsigned char *ptr)
ret_version:
        CFI Block cfiBlock1 Using cfiCommon0
        CFI Function ret_version
//  292 {
        MOVW	R21:R20, R27:R26
        MOVW	R27:R26, R19:R18
//  293  unsigned char i;
//  294  
//  295  if(unit==2)
        CPI	R16, 2
        BRNE	??ret_version_0
//  296     {
//  297       /*
//  298     for (i=0;i<sizeof(ozu_vers);i++){*ptr=ozu_vers[i];ptr++;}
//  299     *ptr=0;
//  300     return(sizeof(ozu_vers)+1);
//  301     */
//  302       
//  303       /*
//  304       *ptr++='I';
//  305       *ptr++='S';
//  306       *ptr++='I';
//  307       *ptr++='M';
//  308       *ptr++=':';
//  309       */
//  310       
//  311       /*
//  312       *ptr++='C';
//  313       *ptr++='C';
//  314       *ptr++='I';
//  315       *ptr++='D';
//  316       *ptr++=':';
//  317       */
//  318       
//  319   for (i=0;i<emei[0];i++){*ptr=emei[i+1];ptr++;}  // высвечивает emei симкки
        LDI	R16, 0
        RJMP	??ret_version_1
??ret_version_2:
        RCALL	?Subroutine175
??CrossCallReturnLabel_566:
        SUBI	R30, LOW((-(emei) & 0xFFFF))
        SBCI	R31, (-(emei) & 0xFFFF) >> 8
        LDD	R17, Z+1
        MOVW	R31:R30, R27:R26
        ST	Z+, R17
        MOVW	R27:R26, R31:R30
        INC	R16
??ret_version_1:
        LDS	R17, emei
        CP	R16, R17
        BRCS	??ret_version_2
//  320   
//  321   //
//  322   /*
//  323       *ptr++=' ';
//  324       *ptr++='I';
//  325       *ptr++='M';
//  326       *ptr++='E';
//  327       *ptr++='I';
//  328       *ptr++=':';
//  329     */  
//  330       
//  331       for (i=0;i<emei_emei[0];i++){*ptr=emei_emei[i+1];ptr++;}  // высвечивает emei симкки
        LDI	R16, 0
        RJMP	??ret_version_3
??ret_version_4:
        RCALL	?Subroutine175
??CrossCallReturnLabel_567:
        SUBI	R30, LOW((-(emei_emei) & 0xFFFF))
        SBCI	R31, (-(emei_emei) & 0xFFFF) >> 8
        LDD	R17, Z+1
        ST	X+, R17
        INC	R16
??ret_version_3:
        LDS	R17, emei_emei
        CP	R16, R17
        BRCS	??ret_version_4
//  332       *ptr=0;
        LDI	R16, 0
        ST	X, R16
//  333       return(emei[0] + emei_emei[0]  + 1);
        LDS	R17, emei
        LDS	R16, emei_emei
        ADD	R16, R17
        INC	R16
        RJMP	??ret_version_5
//  334   
//  335   //
//  336   
//  337   
//  338   
//  339    // *ptr=0;
//  340    // return(emei[0]+6);
//  341     }
//  342  
//  343  if(unit==0)
??ret_version_0:
        TST	R16
        LDI	R16, 0
        BRNE	??ret_version_6
//  344     {
//  345     for (i=0;i<sizeof(versia)-1;i++){*ptr=versia[i];ptr++;}
??ret_version_7:
        LDI	R30, LOW(versia)
        LDI	R31, (versia) >> 8
        LDI	R17, 0
        ADD	R30, R16
        ADC	R31, R17
        LPM	R17, Z
        ST	X+, R17
        INC	R16
        CPI	R16, 21
        BRCS	??ret_version_7
//  346     
//  347     /*
//  348     read_boot_ver();
//  349     for (i=0;i<7;i++){*ptr=buf_boot_ver[i];ptr++;}
//  350     */
//  351     
//  352     
//  353     *ptr=0;
        LDI	R16, 0
        ST	X, R16
//  354     return(sizeof(versia)+ 1 );
        LDI	R16, 23
        RJMP	??ret_version_5
//  355     
//  356     
//  357     /*
//  358     *ptr=0;
//  359     return(sizeof(versia)+1);
//  360     */
//  361     
//  362     }
//  363  
//  364  // map
//  365     else
//  366     {
//  367      /*
//  368       *ptr++='C';
//  369       *ptr++='S';
//  370       *ptr++='Q';
//  371       *ptr++='=';
//  372       */
//  373       for (i=0;i<csq[0];i++){*ptr=csq[i+1];ptr++;}  // высвечивает emei симкки
??ret_version_8:
        RCALL	?Subroutine175
??CrossCallReturnLabel_568:
        SUBI	R30, LOW((-(csq) & 0xFFFF))
        SBCI	R31, (-(csq) & 0xFFFF) >> 8
        LDD	R17, Z+1
        ST	X+, R17
        INC	R16
??ret_version_6:
        LDS	R17, csq
        CP	R16, R17
        BRCS	??ret_version_8
//  374       if ( fl_at_com.greg_ereg == 0)
        LDS	R16, fl_at_com
        SBRC	R16, 6
        RJMP	??ret_version_9
//  375       {
//  376       *ptr++=' ';
        LDI	R16, 32
        ST	X+, R16
//  377       *ptr++='G';
        LDI	R16, 71
        ST	X+, R16
//  378       *ptr++='P';
        LDI	R16, 80
        ST	X+, R16
//  379       *ptr++='R';
        LDI	R16, 82
        ST	X+, R16
//  380       *ptr++='S'; 
        LDI	R16, 83
        RJMP	??ret_version_10
//  381       }
//  382       else {
//  383       *ptr++=' ';
??ret_version_9:
        LDI	R16, 32
        ST	X+, R16
//  384       *ptr++='L';
        LDI	R16, 76
        ST	X+, R16
//  385       *ptr++='T';
        LDI	R16, 84
        ST	X+, R16
//  386       *ptr++='E'; 
        LDI	R16, 69
        ST	X+, R16
//  387       *ptr++=' ';
        LDI	R16, 32
??ret_version_10:
        ST	X+, R16
//  388       }
//  389  // симка основна€ или резервна€     
//  390       *ptr++=' ';
        LDI	R16, 32
        RCALL	?Subroutine50
//  391       *ptr++='s';
//  392       *ptr++='i';
??CrossCallReturnLabel_63:
        LDI	R16, 105
        ST	X+, R16
//  393       *ptr++='m'; 
        LDI	R16, 109
        ST	X+, R16
//  394       *ptr++='=';
        LDI	R16, 61
        ST	X+, R16
//  395       
//  396       if(simka & 1) {
        LDS	R16, simka
        SBRS	R16, 0
        RJMP	??ret_version_11
//  397       *ptr++='r';
        LDI	R16, 114
        ST	X+, R16
//  398       *ptr++='e';
        LDI	R16, 101
        RCALL	?Subroutine50
//  399       *ptr++='s'; 
//  400       *ptr++=' '; 
??CrossCallReturnLabel_64:
        LDI	R16, 32
        RJMP	??ret_version_12
//  401       } else {
//  402       *ptr++='b';
??ret_version_11:
        LDI	R16, 98
        ST	X+, R16
//  403       *ptr++='a';
        LDI	R16, 97
        RCALL	?Subroutine50
//  404       *ptr++='s'; 
//  405       *ptr++='e'; 
??CrossCallReturnLabel_65:
        LDI	R16, 101
??ret_version_12:
        ST	X+, R16
//  406       }
//  407       
//  408       
//  409       *ptr=0;
        LDI	R16, 0
        ST	X, R16
//  410       return(csq[0]  + 1 + 5 + 9);
        LDS	R16, csq
        SUBI	R16, 241
??ret_version_5:
        MOVW	R27:R26, R21:R20
        RET
        CFI EndBlock cfiBlock1
//  411       /*
//  412     for (i=0;i<sizeof(map_vers);i++){*ptr=map_vers[i];ptr++;}
//  413     *ptr=0;
//  414     return(sizeof(map_vers)+1);
//  415       */
//  416     
//  417     
//  418     }
//  419 }

        RSEG FARCODE:CODE:NOROOT(1)
?Subroutine175:
        CFI Block cfiCond2 Using cfiCommon0
        CFI NoFunction
        CFI Conditional ??CrossCallReturnLabel_566
        CFI CFA_SP SP+6
        CFI Block cfiCond3 Using cfiCommon0
        CFI (cfiCond3) NoFunction
        CFI (cfiCond3) Conditional ??CrossCallReturnLabel_567
        CFI (cfiCond3) CFA_SP SP+6
        CFI Block cfiCond4 Using cfiCommon0
        CFI (cfiCond4) NoFunction
        CFI (cfiCond4) Conditional ??CrossCallReturnLabel_568
        CFI (cfiCond4) CFA_SP SP+6
        CFI Block cfiPicker5 Using cfiCommon1
        CFI (cfiPicker5) NoFunction
        CFI (cfiPicker5) Picker
        JMP	?Subroutine30
        CFI EndBlock cfiCond2
        CFI EndBlock cfiCond3
        CFI EndBlock cfiCond4
        CFI EndBlock cfiPicker5
//  420 
//  421 
//  422 
//  423 
//  424 
//  425 
//  426 void vosstan_memory(void)
//  427 {
//  428 unsigned char i,j,buf[70],temp;
//  429 
//  430 
//  431    j=sizeof(map_vers);
//  432    for(i=0;i<j;i++)buf[i]=map_vers[i];
//  433    *(unsigned int*)&buf[j]=crc_m1(&buf[0],j,0xffff);
//  434    WrArrayToFlesh(A_VER_MAP, &buf[0],j+2,0,0);
//  435 
//  436 
//  437 //загрузка поумолчанию
//  438      temp=sizeof(def_apn)-1;
//  439      j=0;
//  440      buf[0]=temp;
//  441      j=1;
//  442      for(i=0;i<temp;i++){buf[j]=def_apn[i];j++;}
//  443      
//  444      temp=sizeof(def_usname)-1;
//  445      buf[j]=temp;
//  446      j++;
//  447      for(i=0;i<temp;i++){buf[j]=def_usname[i];j++;} 
//  448      
//  449      temp=sizeof(def_uspsw)-1;
//  450      buf[j]=temp;
//  451      j++;
//  452      for(i=0;i<temp;i++){buf[j]=def_uspsw[i];j++;}
//  453      
//  454      for(i=0;i<L_C_GPRS_MAX;i++){buf[j]=0;j++;}
//  455      *(unsigned int*)&buf[L_C_GPRS_MAX-2]=crc_m1(&buf[0],L_C_GPRS_MAX-2,0xffff);
//  456      WrArrayToFlesh(A_C_GPRS, &buf[0],L_C_GPRS_MAX,0,0);
//  457      
//  458     
//  459      temp=sizeof(def_apnr)-1;
//  460      j=0;
//  461      buf[0]=temp;
//  462      j=1;
//  463      for(i=0;i<temp;i++){buf[j]=def_apnr[i];j++;}
//  464      
//  465      temp=sizeof(def_usnamer)-1;
//  466      buf[j]=temp;
//  467      j++;
//  468      for(i=0;i<temp;i++){buf[j]=def_usnamer[i];j++;} 
//  469      
//  470      temp=sizeof(def_uspswr)-1;
//  471      buf[j]=temp;
//  472      j++;
//  473      for(i=0;i<temp;i++){buf[j]=def_uspswr[i];j++;}
//  474      
//  475      for(i=0;i<L_CR_GPRS_MAX;i++){buf[j]=0;j++;}
//  476      *(unsigned int*)&buf[L_CR_GPRS_MAX-2]=crc_m1(&buf[0],L_CR_GPRS_MAX-2,0xffff);
//  477      WrArrayToFlesh(A_CR_GPRS, &buf[0],L_CR_GPRS_MAX,0,0);
//  478      
//  479      
//  480      RdFromFleshToArr(A_NUM,&buf[OFS_NUM],2);
//  481      
//  482      buf[OFS_IP]=DEF_IP_SRV_0;
//  483      buf[OFS_IP+1]=DEF_IP_SRV_1;
//  484      buf[OFS_IP+2]=DEF_IP_SRV_2;
//  485      buf[OFS_IP+3]=DEF_IP_SRV_3;
//  486    *(unsigned int*)&buf[OFS_PORT]=DEF_UDP_PORT;//UDP порт
//  487    //*(unsigned int*)&buf[OFS_NUM]=*(unsigned int*)&buf[0];          //свой номер не мен€ть !!!! 
//  488    *(unsigned int*)&buf[OFS_IP_PAR_CRC]=crc_m1(&buf[0],L_IP_PAR-2,0xffff);
//  489      WrArrayToFlesh(A_IP_PAR, &buf[0],L_IP_PAR,0,0);
//  490      
//  491      
//  492    *(unsigned int*)&buf[OFS_NAT]=DEF_CNTR_NAT;
//  493    *(unsigned int*)&buf[OFS_CCH]=DEF_CNTR_LINK;
//  494    *(unsigned int*)&buf[OFS_TM_CH]=DEF_TM_CNTR_LINK;
//  495    
//  496    *(unsigned int*)&buf[OFS_TM_NO_LINK]=DEF_TM_NO_LINK;       //dobavka
//  497    *(unsigned int*)&buf[OFS_TM_LINK_RES]=DEF_TM_LINK_RES;       //dobavka
//  498    
//  499    *(unsigned int*)&buf[OFS_NAT_R]=DEF_CNTR_NAT_R;
//  500    
//  501    *(unsigned int*)&buf[OFS_C_PAR_CRC]=crc_m1(&buf[0],L_C_PAR-2,0xffff);
//  502      WrArrayToFlesh(A_C_PAR, &buf[0],L_C_PAR,0,0);
//  503      
//  504       buf[OFS_DES_SEQ]=(~DEF_DES_SEQ)&0x01; 
//  505    *(unsigned int*)&buf[OFS_NUM_CL]=DEF_NUM_DST_SEQ;
//  506    *(unsigned int*)&buf[OFS_TM_VZ]=DEF_VOL_TM_VZAT;
//  507    *(unsigned int*)&buf[OFS_TM_CL]=DEF_TM_CNTR_CL;
//  508     buf[OFS_TP_TS]=DEF_TP_TS1;
//  509     buf[OFS_TP_TS+1]=DEF_TP_TS2;
//  510    *(unsigned int*)&buf[OFS_SEQ_PAR_CRC]=crc_m1(&buf[0],L_SEQ_PAR-2,0xffff);
//  511      WrArrayToFlesh(A_SEQ_PAR, &buf[0],L_SEQ_PAR,0,0);
//  512      
//  513      /*
//  514      
//  515      buf[OFS_GPRS_DES]=~DEF_DES_PORT_GPRS; 
//  516    *(unsigned long int*)&buf[OFS_GPRS_S]=DEF_PORT_GPRS_S;
//  517    *(unsigned int*)&buf[OFS_PORT_GPRS_CRC]=crc_m1(&buf[0],L_PORT_GPRS-2,0xffff);
//  518      WrArrayToFlesh(A_PORT_GPRS, &buf[0],L_PORT_GPRS,0,0);
//  519  */
//  520     
//  521 
//  522    buf[OFS_PIN_SIM1]='.';
//  523    buf[OFS_PIN_SIM1+1]='.';
//  524    buf[OFS_PIN_SIM1+2]='.';
//  525    buf[OFS_PIN_SIM1+3]='.';
//  526    *(unsigned int*)&buf[OFS_KOD_SIM1_CRC]=crc_m1(&buf[0],L_KOD_SIM1-2,0xffff);
//  527      WrArrayToFlesh(A_KOD_SIM1, &buf[0],L_KOD_SIM1,0,0);
//  528 
//  529    buf[OFS_PIN_SIM2]='.';
//  530    buf[OFS_PIN_SIM2+1]='.';
//  531    buf[OFS_PIN_SIM2+2]='.';
//  532    buf[OFS_PIN_SIM2+3]='.';
//  533    *(unsigned int*)&buf[OFS_KOD_SIM2_CRC]=crc_m1(&buf[0],L_KOD_SIM2-2,0xffff);
//  534      WrArrayToFlesh(A_KOD_SIM2, &buf[0],L_KOD_SIM2,0,0);
//  535      
//  536      
//  537      
//  538      
//  539      
//  540      j=0;
//  541      temp=sizeof(def_apn1)-1;    
//  542      buf[0]=temp;
//  543      j=1;
//  544      for(i=0;i<temp;i++){buf[j]=def_apn1[i];j++;}
//  545     
//  546      temp=sizeof(def_usname1)-1;
//  547      buf[j]=temp;
//  548      j++;
//  549      for(i=0;i<temp;i++){buf[j]=def_usname1[i];j++;} 
//  550     
//  551      temp=sizeof(def_uspsw1)-1;
//  552      buf[j]=temp;
//  553      j++;
//  554      for(i=0;i<temp;i++){buf[j]=def_uspsw1[i];j++;}
//  555     
//  556      for(i=0;i<L_C1_GPRS_MAX;i++){buf[j]=0;j++;}
//  557      *(unsigned int*)&buf[L_C1_GPRS_MAX-2]=crc_m1(&buf[0],L_C1_GPRS_MAX-2,0xffff);
//  558      WrArrayToFlesh(A_C1_GPRS, &buf[0],L_C1_GPRS_MAX,0,0);
//  559  
//  560      j=0;
//  561      temp=sizeof(def_apn2)-1;
//  562      buf[0]=temp;
//  563      j=1;
//  564      for(i=0;i<temp;i++){buf[j]=def_apn2[i];j++;}
//  565      
//  566      temp=sizeof(def_usname2)-1;
//  567      buf[j]=temp;
//  568      j++;
//  569      for(i=0;i<temp;i++){buf[j]=def_usname2[i];j++;} 
//  570      
//  571      temp=sizeof(def_uspsw2)-1;
//  572      buf[j]=temp;
//  573      j++;
//  574      for(i=0;i<temp;i++){buf[j]=def_uspsw2[i];j++;}
//  575      
//  576      for(i=0;i<L_C2_GPRS_MAX;i++){buf[j]=0;j++;}
//  577      *(unsigned int*)&buf[L_C2_GPRS_MAX-2]=crc_m1(&buf[0],L_C2_GPRS_MAX-2,0xffff);
//  578      WrArrayToFlesh(A_C2_GPRS, &buf[0],L_C2_GPRS_MAX,0,0);
//  579  
//  580  
//  581      j=0;
//  582      temp=sizeof(def_apn3)-1;
//  583      buf[0]=temp;
//  584      j=1;
//  585      for(i=0;i<temp;i++){buf[j]=def_apn3[i];j++;}
//  586      
//  587      temp=sizeof(def_usname3)-1;
//  588      buf[j]=temp;
//  589      j++;
//  590      for(i=0;i<temp;i++){buf[j]=def_usname3[i];j++;} 
//  591      
//  592      temp=sizeof(def_uspsw3)-1;
//  593      buf[j]=temp;
//  594      j++;
//  595      for(i=0;i<temp;i++){buf[j]=def_uspsw3[i];j++;}
//  596      
//  597      for(i=0;i<L_C3_GPRS_MAX;i++){buf[j]=0;j++;}
//  598      *(unsigned int*)&buf[L_C3_GPRS_MAX-2]=crc_m1(&buf[0],L_C3_GPRS_MAX-2,0xffff);
//  599      WrArrayToFlesh(A_C3_GPRS, &buf[0],L_C3_GPRS_MAX,0,0);
//  600      
//  601 
//  602      *(unsigned long int*)&buf[0]=burst_ds_r();
//  603      *(unsigned long int*)&buf[4]=0;
//  604      *(unsigned long int*)&buf[8]=0;
//  605      *(unsigned int*)&buf[L_TRAF-2]=crc_m1(&buf[0],L_TRAF-2,0xffff);
//  606      WrArrayToFlesh(A_TRAF, &buf[0],L_TRAF,0,0);
//  607      
//  608 }
//  609 
//  610 
//  611 
//  612 
//  613 
//  614 unsigned char check_memory_map(void)
//  615 {
//  616 unsigned char i,j,buf[70],temp;
//  617 
//  618 
//  619 j=sizeof(map_vers);
//  620  
//  621 RdFromFleshToArr(A_VER_MAP,&buf[0],j+2);
//  622 if(*(unsigned int*)&buf[j]!=crc_m1(&buf[0],j,0xffff))return(1);
//  623 for(i=0;i<j;i++)if(buf[i]==map_vers[i])continue;else return(1);
//  624 
//  625 
//  626  
//  627   
//  628 RdFromFleshToArr(A_C_GPRS,&buf[0],L_C_GPRS_MAX);
//  629 if(*(unsigned int*)&buf[L_C_GPRS_MAX-2]!=crc_m1(&buf[0],L_C_GPRS_MAX-2,0xffff))
//  630     {
//  631      
//  632     //загрузка поумолчанию
//  633      j=0;
//  634      temp=sizeof(def_apn)-1;
//  635      buf[0]=temp;
//  636      j=1;
//  637      for(i=0;i<temp;i++){buf[j]=def_apn[i];j++;}
//  638 
//  639      temp=sizeof(def_usname)-1;
//  640      buf[j]=temp;
//  641      j++;
//  642      for(i=0;i<temp;i++){buf[j]=def_usname[i];j++;}
//  643      
//  644      temp=sizeof(def_uspsw)-1;
//  645      buf[j]=temp;
//  646      j++;
//  647      for(i=0;i<temp;i++){buf[j]=def_uspsw[i];j++;}
//  648 
//  649      for(i=0;i<L_C_GPRS_MAX;i++){buf[j]=0;j++;}
//  650 
//  651      *(unsigned int*)&buf[L_C_GPRS_MAX-2]=crc_m1(&buf[0],L_C_GPRS_MAX-2,0xffff);
//  652      WrArrayToFlesh(A_C_GPRS, &buf[0],L_C_GPRS_MAX,0,0);
//  653     }
//  654 
//  655 
//  656 
//  657 RdFromFleshToArr(A_CR_GPRS,&buf[0],L_CR_GPRS_MAX);
//  658 if(*(unsigned int*)&buf[L_CR_GPRS_MAX-2]!=crc_m1(&buf[0],L_CR_GPRS_MAX-2,0xffff))
//  659     {
//  660      
//  661     //загрузка поумолчанию
//  662      j=0;
//  663      temp=sizeof(def_apnr)-1;
//  664      buf[0]=temp;
//  665      j=1;
//  666      for(i=0;i<temp;i++){buf[j]=def_apnr[i];j++;}
//  667 
//  668      temp=sizeof(def_usnamer)-1;
//  669      buf[j]=temp;
//  670      j++;
//  671      for(i=0;i<temp;i++){buf[j]=def_usnamer[i];j++;}
//  672      
//  673      temp=sizeof(def_uspswr)-1;
//  674      buf[j]=temp;
//  675      j++;
//  676      for(i=0;i<temp;i++){buf[j]=def_uspswr[i];j++;}
//  677 
//  678      for(i=0;i<L_CR_GPRS_MAX;i++){buf[j]=0;j++;}
//  679 
//  680      *(unsigned int*)&buf[L_CR_GPRS_MAX-2]=crc_m1(&buf[0],L_CR_GPRS_MAX-2,0xffff);
//  681      WrArrayToFlesh(A_CR_GPRS, &buf[0],L_CR_GPRS_MAX,0,0);
//  682     }
//  683 
//  684 
//  685 
//  686 
//  687 
//  688 
//  689 RdFromFleshToArr(A_IP_PAR,&buf[0],L_IP_PAR);
//  690 if(*(unsigned int*)&buf[OFS_IP_PAR_CRC]!=crc_m1(&buf[0],L_IP_PAR-2,0xffff))
//  691   {
//  692  
//  693   
//  694    buf[OFS_IP]=DEF_IP_SRV_0;
//  695    buf[OFS_IP+1]=DEF_IP_SRV_1;
//  696    buf[OFS_IP+2]=DEF_IP_SRV_2;
//  697    buf[OFS_IP+3]=DEF_IP_SRV_3;
//  698    
//  699    *(unsigned int*)&buf[OFS_PORT]=DEF_UDP_PORT;//UDP порт
//  700    *(unsigned int*)&buf[OFS_NUM]=//свой номер по умолчанию
//  701    
//  702    *(unsigned int*)&buf[OFS_IP_PAR_CRC]=crc_m1(&buf[0],L_IP_PAR-2,0xffff);
//  703      WrArrayToFlesh(A_IP_PAR, &buf[0],L_IP_PAR,0,0);
//  704   }
//  705 
//  706 
//  707 RdFromFleshToArr(A_C_PAR,&buf[0],L_C_PAR);
//  708 if(*(unsigned int*)&buf[OFS_C_PAR_CRC]!=crc_m1(&buf[0],L_C_PAR-2,0xffff))
//  709   {
//  710   
//  711   
//  712 
//  713    *(unsigned int*)&buf[OFS_NAT]=DEF_CNTR_NAT;
//  714    *(unsigned int*)&buf[OFS_CCH]=DEF_CNTR_LINK;
//  715    *(unsigned int*)&buf[OFS_TM_CH]=DEF_TM_CNTR_LINK;
//  716    
//  717    *(unsigned int*)&buf[OFS_TM_NO_LINK]=DEF_TM_NO_LINK;       //dobavka
//  718    *(unsigned int*)&buf[OFS_TM_LINK_RES]=DEF_TM_LINK_RES;       //dobavka
//  719    
//  720    *(unsigned int*)&buf[OFS_NAT_R]=DEF_CNTR_NAT_R;
//  721    
//  722    *(unsigned int*)&buf[OFS_C_PAR_CRC]=crc_m1(&buf[0],L_C_PAR-2,0xffff);
//  723      WrArrayToFlesh(A_C_PAR, &buf[0],L_C_PAR,0,0);
//  724   }
//  725 
//  726 
//  727 
//  728 RdFromFleshToArr(A_SEQ_PAR,&buf[0],L_SEQ_PAR);
//  729 if(*(unsigned int*)&buf[OFS_SEQ_PAR_CRC]!=crc_m1(&buf[0],L_SEQ_PAR-2,0xffff))
//  730   {
//  731   
//  732   
//  733    buf[OFS_DES_SEQ]=~DEF_DES_SEQ; 
//  734    *(unsigned int*)&buf[OFS_NUM_CL]=DEF_NUM_DST_SEQ;
//  735    *(unsigned int*)&buf[OFS_TM_VZ]=DEF_VOL_TM_VZAT;
//  736    *(unsigned int*)&buf[OFS_TM_CL]=DEF_TM_CNTR_CL;
//  737    buf[OFS_TP_TS]=DEF_TP_TS1;
//  738    buf[OFS_TP_TS+1]=DEF_TP_TS2;
//  739    *(unsigned int*)&buf[OFS_SEQ_PAR_CRC]=crc_m1(&buf[0],L_SEQ_PAR-2,0xffff);
//  740      WrArrayToFlesh(A_SEQ_PAR, &buf[0],L_SEQ_PAR,0,0);
//  741   }
//  742 
//  743 
//  744 
//  745 
//  746 
//  747 /*
//  748 RdFromFleshToArr(A_PORT_GPRS,&buf[0],L_PORT_GPRS);
//  749 if(*(unsigned int*)&buf[OFS_PORT_GPRS_CRC]!=crc_m1(&buf[0],L_PORT_GPRS-2,0xffff))
//  750   {
//  751  
//  752   
//  753    buf[OFS_GPRS_DES]=~DEF_DES_PORT_GPRS; 
//  754    *(unsigned long int*)&buf[OFS_GPRS_S]=DEF_PORT_GPRS_S;
//  755 
//  756    *(unsigned int*)&buf[OFS_PORT_GPRS_CRC]=crc_m1(&buf[0],L_PORT_GPRS-2,0xffff);
//  757      WrArrayToFlesh(A_PORT_GPRS, &buf[0],L_PORT_GPRS,0,0);
//  758   }
//  759 */
//  760 
//  761 RdFromFleshToArr(A_KOD_SIM1,&buf[0],L_KOD_SIM1);
//  762 if(*(unsigned int*)&buf[OFS_KOD_SIM1_CRC]!=crc_m1(&buf[0],L_KOD_SIM1-2,0xffff))
//  763   {
//  764    buf[OFS_PIN_SIM1]='.';
//  765    buf[OFS_PIN_SIM1+1]='.';
//  766    buf[OFS_PIN_SIM1+2]='.';
//  767    buf[OFS_PIN_SIM1+3]='.';
//  768    *(unsigned int*)&buf[OFS_KOD_SIM1_CRC]=crc_m1(&buf[0],L_KOD_SIM1-2,0xffff);
//  769      WrArrayToFlesh(A_KOD_SIM1, &buf[0],L_KOD_SIM1,0,0);
//  770   }
//  771 
//  772 
//  773 
//  774 RdFromFleshToArr(A_KOD_SIM2,&buf[0],L_KOD_SIM2);
//  775 if(*(unsigned int*)&buf[OFS_KOD_SIM2_CRC]!=crc_m1(&buf[0],L_KOD_SIM2-2,0xffff))
//  776   {
//  777    buf[OFS_PIN_SIM2]='.';
//  778    buf[OFS_PIN_SIM2+1]='.';
//  779    buf[OFS_PIN_SIM2+2]='.';
//  780    buf[OFS_PIN_SIM2+3]='.';
//  781    *(unsigned int*)&buf[OFS_KOD_SIM2_CRC]=crc_m1(&buf[0],L_KOD_SIM2-2,0xffff);
//  782      WrArrayToFlesh(A_KOD_SIM2, &buf[0],L_KOD_SIM2,0,0);
//  783   }
//  784 
//  785 
//  786 RdFromFleshToArr(A_C1_GPRS,&buf[0],L_C1_GPRS_MAX);
//  787 if(*(unsigned int*)&buf[L_C1_GPRS_MAX-2]!=crc_m1(&buf[0],L_C1_GPRS_MAX-2,0xffff))
//  788     {
//  789     
//  790     
//  791     
//  792     //загрузка поумолчанию
//  793      j=0;
//  794      temp=sizeof(def_apn1)-1;
//  795      buf[0]=temp;
//  796      j=1;
//  797      for(i=0;i<temp;i++){buf[j]=def_apn1[i];j++;}
//  798 
//  799      temp=sizeof(def_usname1)-1;
//  800      buf[j]=temp;
//  801      j++;
//  802      for(i=0;i<temp;i++){buf[j]=def_usname1[i];j++;}
//  803      
//  804      temp=sizeof(def_uspsw1)-1;
//  805      buf[j]=temp;
//  806      j++;
//  807      for(i=0;i<temp;i++){buf[j]=def_uspsw1[i];j++;}
//  808 
//  809      for(i=0;i<L_C1_GPRS_MAX;i++){buf[j]=0;j++;}
//  810 
//  811      *(unsigned int*)&buf[L_C1_GPRS_MAX-2]=crc_m1(&buf[0],L_C1_GPRS_MAX-2,0xffff);
//  812      WrArrayToFlesh(A_C1_GPRS, &buf[0],L_C1_GPRS_MAX,0,0);
//  813     }
//  814 
//  815 RdFromFleshToArr(A_C2_GPRS,&buf[0],L_C2_GPRS_MAX);
//  816 if(*(unsigned int*)&buf[L_C2_GPRS_MAX-2]!=crc_m1(&buf[0],L_C2_GPRS_MAX-2,0xffff))
//  817     {
//  818     
//  819     
//  820     
//  821     //загрузка поумолчанию
//  822      j=0;
//  823      temp=sizeof(def_apn2)-1;
//  824      buf[0]=temp;
//  825      j=1;
//  826      for(i=0;i<temp;i++){buf[j]=def_apn2[i];j++;}
//  827 
//  828      temp=sizeof(def_usname2)-1;
//  829      buf[j]=temp;
//  830      j++;
//  831      for(i=0;i<temp;i++){buf[j]=def_usname2[i];j++;}
//  832      
//  833      temp=sizeof(def_uspsw2)-1;
//  834      buf[j]=temp;
//  835      j++;
//  836      for(i=0;i<temp;i++){buf[j]=def_uspsw2[i];j++;}
//  837 
//  838      for(i=0;i<L_C2_GPRS_MAX;i++){buf[j]=0;j++;}
//  839 
//  840      *(unsigned int*)&buf[L_C2_GPRS_MAX-2]=crc_m1(&buf[0],L_C2_GPRS_MAX-2,0xffff);
//  841      WrArrayToFlesh(A_C2_GPRS, &buf[0],L_C2_GPRS_MAX,0,0);
//  842     }
//  843 
//  844 
//  845 RdFromFleshToArr(A_C3_GPRS,&buf[0],L_C3_GPRS_MAX);
//  846 if(*(unsigned int*)&buf[L_C3_GPRS_MAX-2]!=crc_m1(&buf[0],L_C3_GPRS_MAX-2,0xffff))
//  847     {
//  848     
//  849     //загрузка поумолчанию
//  850      j=0;
//  851      temp=sizeof(def_apn3)-1;
//  852      buf[0]=temp;
//  853      j=1;
//  854      for(i=0;i<temp;i++){buf[j]=def_apn3[i];j++;}
//  855 
//  856      temp=sizeof(def_usname3)-1;
//  857      buf[j]=temp;
//  858      j++;
//  859      for(i=0;i<temp;i++){buf[j]=def_usname3[i];j++;}
//  860      
//  861      temp=sizeof(def_uspsw3)-1;
//  862      buf[j]=temp;
//  863      j++;
//  864      for(i=0;i<temp;i++){buf[j]=def_uspsw3[i];j++;}
//  865 
//  866      for(i=0;i<L_C3_GPRS_MAX;i++){buf[j]=0;j++;}
//  867 
//  868      *(unsigned int*)&buf[L_C3_GPRS_MAX-2]=crc_m1(&buf[0],L_C3_GPRS_MAX-2,0xffff);
//  869      WrArrayToFlesh(A_C3_GPRS, &buf[0],L_C3_GPRS_MAX,0,0);
//  870     }
//  871 
//  872 
//  873 RdFromFleshToArr(A_TRAF,&buf[0],L_TRAF);
//  874 if(*(unsigned int*)&buf[L_TRAF-2]!=crc_m1(&buf[0],L_TRAF-2,0xffff))
//  875 {
//  876      *(unsigned long int*)&buf[0]=burst_ds_r();
//  877      *(unsigned long int*)&buf[4]=0;
//  878      *(unsigned long int*)&buf[8]=0;
//  879      *(unsigned int*)&buf[L_TRAF-2]=crc_m1(&buf[0],L_TRAF-2,0xffff);
//  880      WrArrayToFlesh(A_TRAF, &buf[0],L_TRAF,0,0);
//  881 }
//  882 
//  883 
//  884 return(0);  
//  885 }
//  886 
//  887 
//  888 
//  889 
//  890 void load_par_first(void)
//  891 {
//  892 if (e_first_on==0xff)
//  893       {
//  894       __watchdog_reset();
//  895       WrArrayToFlesh(BEG_BUF_LOG,0,(L_LOG*6),0x01,0x00);
//  896       __watchdog_reset();    
//  897       e_first_on=0;    
//  898       }
//  899  if(e_debug>4)e_debug=RG_WORK; //dobavka
//  900  Regim=e_debug;
//  901 }
//  902 
//  903 
//  904 
//  905 
//  906 unsigned char check_keys(void)
//  907 {
//  908 /*unsigned char i,buf[11];
//  909 
//  910 
//  911 RdFromFleshToArr(A_KEYS,&buf[0],L_KEYS);
//  912 
//  913 if(*(unsigned int*)&buf[L_KEYS-2]==crc_m1(&buf[0],L_KEYS-2,0xffff))
//  914  {
//  915   for(i=0;i<L_KEYS;i++) keys[i]=buf[i];//загрузка ключей в массив ключей  
//  916   return(0);
//  917  }
//  918  
//  919 else return(1);
//  920 */
//  921 
//  922 RdFromFleshToArr(A_KEYS,&keys[0],L_KEYS);
//  923 if(*(unsigned int*)&keys[L_KEYS-2]!=crc_m1(&keys[0],L_KEYS-2,0xffff))return(1);
//  924 return(0);
//  925 }
//  926 
//  927 
//  928 
//  929 
//  930 ///работа с терминаломработа с терминаломработа с терминаломработа с терминаломабота с терминаломработа с терминаломработа с терминаломработа с терминалом
//  931 
//  932 void    mov_massiv (char size, char *p)
//  933       {     
//  934        while(size--) s_port(*p++);
//  935       } 
//  936  
//  937 

        RSEG FARCODE:CODE:NOROOT(1)
?Subroutine174:
        CFI Block cfiCond6 Using cfiCommon0
        CFI NoFunction
        CFI Conditional ??CrossCallReturnLabel_545
        CFI R24 Frame(CFA_Y, -5)
        CFI R25 Frame(CFA_Y, -4)
        CFI R26 Frame(CFA_Y, -3)
        CFI R27 Frame(CFA_Y, -2)
        CFI R4 Frame(CFA_Y, -1)
        CFI CFA_SP SP+6
        CFI CFA_Y Y+88
        CFI Block cfiCond7 Using cfiCommon0
        CFI (cfiCond7) NoFunction
        CFI (cfiCond7) Conditional ??CrossCallReturnLabel_544
        CFI (cfiCond7) R24 Frame(CFA_Y, -5)
        CFI (cfiCond7) R25 Frame(CFA_Y, -4)
        CFI (cfiCond7) R26 Frame(CFA_Y, -3)
        CFI (cfiCond7) R27 Frame(CFA_Y, -2)
        CFI (cfiCond7) R4 Frame(CFA_Y, -1)
        CFI (cfiCond7) CFA_SP SP+6
        CFI (cfiCond7) CFA_Y Y+88
        CFI Block cfiCond8 Using cfiCommon0
        CFI (cfiCond8) NoFunction
        CFI (cfiCond8) Conditional ??CrossCallReturnLabel_543
        CFI (cfiCond8) R24 Frame(CFA_Y, -5)
        CFI (cfiCond8) R25 Frame(CFA_Y, -4)
        CFI (cfiCond8) R26 Frame(CFA_Y, -3)
        CFI (cfiCond8) R27 Frame(CFA_Y, -2)
        CFI (cfiCond8) R4 Frame(CFA_Y, -1)
        CFI (cfiCond8) CFA_SP SP+6
        CFI (cfiCond8) CFA_Y Y+88
        CFI Block cfiCond9 Using cfiCommon0
        CFI (cfiCond9) NoFunction
        CFI (cfiCond9) Conditional ??CrossCallReturnLabel_542
        CFI (cfiCond9) R24 Frame(CFA_Y, -5)
        CFI (cfiCond9) R25 Frame(CFA_Y, -4)
        CFI (cfiCond9) R26 Frame(CFA_Y, -3)
        CFI (cfiCond9) R27 Frame(CFA_Y, -2)
        CFI (cfiCond9) R4 Frame(CFA_Y, -1)
        CFI (cfiCond9) CFA_SP SP+6
        CFI (cfiCond9) CFA_Y Y+88
        CFI Block cfiCond10 Using cfiCommon0
        CFI (cfiCond10) NoFunction
        CFI (cfiCond10) Conditional ??CrossCallReturnLabel_541
        CFI (cfiCond10) R24 Frame(CFA_Y, -5)
        CFI (cfiCond10) R25 Frame(CFA_Y, -4)
        CFI (cfiCond10) R26 Frame(CFA_Y, -3)
        CFI (cfiCond10) R27 Frame(CFA_Y, -2)
        CFI (cfiCond10) R4 Frame(CFA_Y, -1)
        CFI (cfiCond10) CFA_SP SP+6
        CFI (cfiCond10) CFA_Y Y+88
        CFI Block cfiCond11 Using cfiCommon0
        CFI (cfiCond11) NoFunction
        CFI (cfiCond11) Conditional ??CrossCallReturnLabel_540
        CFI (cfiCond11) R24 Frame(CFA_Y, -5)
        CFI (cfiCond11) R25 Frame(CFA_Y, -4)
        CFI (cfiCond11) R26 Frame(CFA_Y, -3)
        CFI (cfiCond11) R27 Frame(CFA_Y, -2)
        CFI (cfiCond11) R4 Frame(CFA_Y, -1)
        CFI (cfiCond11) CFA_SP SP+6
        CFI (cfiCond11) CFA_Y Y+88
        CFI Block cfiCond12 Using cfiCommon0
        CFI (cfiCond12) NoFunction
        CFI (cfiCond12) Conditional ??CrossCallReturnLabel_539
        CFI (cfiCond12) R24 Frame(CFA_Y, -5)
        CFI (cfiCond12) R25 Frame(CFA_Y, -4)
        CFI (cfiCond12) R26 Frame(CFA_Y, -3)
        CFI (cfiCond12) R27 Frame(CFA_Y, -2)
        CFI (cfiCond12) R4 Frame(CFA_Y, -1)
        CFI (cfiCond12) CFA_SP SP+6
        CFI (cfiCond12) CFA_Y Y+88
        CFI Block cfiCond13 Using cfiCommon0
        CFI (cfiCond13) NoFunction
        CFI (cfiCond13) Conditional ??CrossCallReturnLabel_538
        CFI (cfiCond13) R24 Frame(CFA_Y, -5)
        CFI (cfiCond13) R25 Frame(CFA_Y, -4)
        CFI (cfiCond13) R26 Frame(CFA_Y, -3)
        CFI (cfiCond13) R27 Frame(CFA_Y, -2)
        CFI (cfiCond13) R4 Frame(CFA_Y, -1)
        CFI (cfiCond13) CFA_SP SP+6
        CFI (cfiCond13) CFA_Y Y+88
        CFI Block cfiCond14 Using cfiCommon0
        CFI (cfiCond14) NoFunction
        CFI (cfiCond14) Conditional ??CrossCallReturnLabel_537
        CFI (cfiCond14) R24 Frame(CFA_Y, -5)
        CFI (cfiCond14) R25 Frame(CFA_Y, -4)
        CFI (cfiCond14) R26 Frame(CFA_Y, -3)
        CFI (cfiCond14) R27 Frame(CFA_Y, -2)
        CFI (cfiCond14) R4 Frame(CFA_Y, -1)
        CFI (cfiCond14) CFA_SP SP+6
        CFI (cfiCond14) CFA_Y Y+88
        CFI Block cfiCond15 Using cfiCommon0
        CFI (cfiCond15) NoFunction
        CFI (cfiCond15) Conditional ??CrossCallReturnLabel_536
        CFI (cfiCond15) R24 Frame(CFA_Y, -5)
        CFI (cfiCond15) R25 Frame(CFA_Y, -4)
        CFI (cfiCond15) R26 Frame(CFA_Y, -3)
        CFI (cfiCond15) R27 Frame(CFA_Y, -2)
        CFI (cfiCond15) R4 Frame(CFA_Y, -1)
        CFI (cfiCond15) CFA_SP SP+6
        CFI (cfiCond15) CFA_Y Y+88
        CFI Block cfiCond16 Using cfiCommon0
        CFI (cfiCond16) NoFunction
        CFI (cfiCond16) Conditional ??CrossCallReturnLabel_535
        CFI (cfiCond16) R24 Frame(CFA_Y, -5)
        CFI (cfiCond16) R25 Frame(CFA_Y, -4)
        CFI (cfiCond16) R26 Frame(CFA_Y, -3)
        CFI (cfiCond16) R27 Frame(CFA_Y, -2)
        CFI (cfiCond16) R4 Frame(CFA_Y, -1)
        CFI (cfiCond16) CFA_SP SP+6
        CFI (cfiCond16) CFA_Y Y+88
        CFI Block cfiPicker17 Using cfiCommon1
        CFI (cfiPicker17) NoFunction
        CFI (cfiPicker17) Picker
        JMP	?Subroutine165
        CFI EndBlock cfiCond6
        CFI EndBlock cfiCond7
        CFI EndBlock cfiCond8
        CFI EndBlock cfiCond9
        CFI EndBlock cfiCond10
        CFI EndBlock cfiCond11
        CFI EndBlock cfiCond12
        CFI EndBlock cfiCond13
        CFI EndBlock cfiCond14
        CFI EndBlock cfiCond15
        CFI EndBlock cfiCond16
        CFI EndBlock cfiPicker17

        RSEG FARCODE:CODE:NOROOT(1)
?Subroutine173:
        CFI Block cfiCond18 Using cfiCommon0
        CFI NoFunction
        CFI Conditional ??CrossCallReturnLabel_507
        CFI R24 Frame(CFA_Y, -4)
        CFI R25 Frame(CFA_Y, -3)
        CFI R26 Frame(CFA_Y, -2)
        CFI R27 Frame(CFA_Y, -1)
        CFI CFA_SP SP+6
        CFI CFA_Y Y+4
        CFI Block cfiCond19 Using cfiCommon0
        CFI (cfiCond19) NoFunction
        CFI (cfiCond19) Conditional ??CrossCallReturnLabel_506
        CFI (cfiCond19) R24 Frame(CFA_Y, -5)
        CFI (cfiCond19) R25 Frame(CFA_Y, -4)
        CFI (cfiCond19) R26 Frame(CFA_Y, -3)
        CFI (cfiCond19) R27 Frame(CFA_Y, -2)
        CFI (cfiCond19) R4 Frame(CFA_Y, -1)
        CFI (cfiCond19) CFA_SP SP+6
        CFI (cfiCond19) CFA_Y Y+88
        CFI Block cfiCond20 Using cfiCommon0
        CFI (cfiCond20) NoFunction
        CFI (cfiCond20) Conditional ??CrossCallReturnLabel_505
        CFI (cfiCond20) R24 Frame(CFA_Y, -5)
        CFI (cfiCond20) R25 Frame(CFA_Y, -4)
        CFI (cfiCond20) R26 Frame(CFA_Y, -3)
        CFI (cfiCond20) R27 Frame(CFA_Y, -2)
        CFI (cfiCond20) R4 Frame(CFA_Y, -1)
        CFI (cfiCond20) CFA_SP SP+6
        CFI (cfiCond20) CFA_Y Y+88
        CFI Block cfiCond21 Using cfiCommon0
        CFI (cfiCond21) NoFunction
        CFI (cfiCond21) Conditional ??CrossCallReturnLabel_504
        CFI (cfiCond21) R24 Frame(CFA_Y, -5)
        CFI (cfiCond21) R25 Frame(CFA_Y, -4)
        CFI (cfiCond21) R26 Frame(CFA_Y, -3)
        CFI (cfiCond21) R27 Frame(CFA_Y, -2)
        CFI (cfiCond21) R4 Frame(CFA_Y, -1)
        CFI (cfiCond21) CFA_SP SP+6
        CFI (cfiCond21) CFA_Y Y+88
        CFI Block cfiCond22 Using cfiCommon0
        CFI (cfiCond22) NoFunction
        CFI (cfiCond22) Conditional ??CrossCallReturnLabel_503
        CFI (cfiCond22) R24 Frame(CFA_Y, -5)
        CFI (cfiCond22) R25 Frame(CFA_Y, -4)
        CFI (cfiCond22) R26 Frame(CFA_Y, -3)
        CFI (cfiCond22) R27 Frame(CFA_Y, -2)
        CFI (cfiCond22) R4 Frame(CFA_Y, -1)
        CFI (cfiCond22) CFA_SP SP+6
        CFI (cfiCond22) CFA_Y Y+88
        CFI Block cfiCond23 Using cfiCommon0
        CFI (cfiCond23) NoFunction
        CFI (cfiCond23) Conditional ??CrossCallReturnLabel_502
        CFI (cfiCond23) R24 Frame(CFA_Y, -5)
        CFI (cfiCond23) R25 Frame(CFA_Y, -4)
        CFI (cfiCond23) R26 Frame(CFA_Y, -3)
        CFI (cfiCond23) R27 Frame(CFA_Y, -2)
        CFI (cfiCond23) R4 Frame(CFA_Y, -1)
        CFI (cfiCond23) CFA_SP SP+6
        CFI (cfiCond23) CFA_Y Y+88
        CFI Block cfiCond24 Using cfiCommon0
        CFI (cfiCond24) NoFunction
        CFI (cfiCond24) Conditional ??CrossCallReturnLabel_501
        CFI (cfiCond24) R24 Frame(CFA_Y, -5)
        CFI (cfiCond24) R25 Frame(CFA_Y, -4)
        CFI (cfiCond24) R26 Frame(CFA_Y, -3)
        CFI (cfiCond24) R27 Frame(CFA_Y, -2)
        CFI (cfiCond24) R4 Frame(CFA_Y, -1)
        CFI (cfiCond24) CFA_SP SP+6
        CFI (cfiCond24) CFA_Y Y+88
        CFI Block cfiCond25 Using cfiCommon0
        CFI (cfiCond25) NoFunction
        CFI (cfiCond25) Conditional ??CrossCallReturnLabel_500
        CFI (cfiCond25) R24 Frame(CFA_Y, -5)
        CFI (cfiCond25) R25 Frame(CFA_Y, -4)
        CFI (cfiCond25) R26 Frame(CFA_Y, -3)
        CFI (cfiCond25) R27 Frame(CFA_Y, -2)
        CFI (cfiCond25) R4 Frame(CFA_Y, -1)
        CFI (cfiCond25) CFA_SP SP+6
        CFI (cfiCond25) CFA_Y Y+88
        CFI Block cfiCond26 Using cfiCommon0
        CFI (cfiCond26) NoFunction
        CFI (cfiCond26) Conditional ??CrossCallReturnLabel_499
        CFI (cfiCond26) R24 Frame(CFA_Y, -5)
        CFI (cfiCond26) R25 Frame(CFA_Y, -4)
        CFI (cfiCond26) R26 Frame(CFA_Y, -3)
        CFI (cfiCond26) R27 Frame(CFA_Y, -2)
        CFI (cfiCond26) R4 Frame(CFA_Y, -1)
        CFI (cfiCond26) CFA_SP SP+6
        CFI (cfiCond26) CFA_Y Y+88
        CFI Block cfiCond27 Using cfiCommon0
        CFI (cfiCond27) NoFunction
        CFI (cfiCond27) Conditional ??CrossCallReturnLabel_498
        CFI (cfiCond27) R24 Frame(CFA_Y, -5)
        CFI (cfiCond27) R25 Frame(CFA_Y, -4)
        CFI (cfiCond27) R26 Frame(CFA_Y, -3)
        CFI (cfiCond27) R27 Frame(CFA_Y, -2)
        CFI (cfiCond27) R4 Frame(CFA_Y, -1)
        CFI (cfiCond27) CFA_SP SP+6
        CFI (cfiCond27) CFA_Y Y+88
        CFI Block cfiCond28 Using cfiCommon0
        CFI (cfiCond28) NoFunction
        CFI (cfiCond28) Conditional ??CrossCallReturnLabel_497
        CFI (cfiCond28) R24 Frame(CFA_Y, -5)
        CFI (cfiCond28) R25 Frame(CFA_Y, -4)
        CFI (cfiCond28) R26 Frame(CFA_Y, -3)
        CFI (cfiCond28) R27 Frame(CFA_Y, -2)
        CFI (cfiCond28) R4 Frame(CFA_Y, -1)
        CFI (cfiCond28) CFA_SP SP+6
        CFI (cfiCond28) CFA_Y Y+88
        CFI Block cfiCond29 Using cfiCommon0
        CFI (cfiCond29) NoFunction
        CFI (cfiCond29) Conditional ??CrossCallReturnLabel_496
        CFI (cfiCond29) R24 Frame(CFA_Y, -5)
        CFI (cfiCond29) R25 Frame(CFA_Y, -4)
        CFI (cfiCond29) R26 Frame(CFA_Y, -3)
        CFI (cfiCond29) R27 Frame(CFA_Y, -2)
        CFI (cfiCond29) R4 Frame(CFA_Y, -1)
        CFI (cfiCond29) CFA_SP SP+6
        CFI (cfiCond29) CFA_Y Y+88
        CFI Block cfiCond30 Using cfiCommon0
        CFI (cfiCond30) NoFunction
        CFI (cfiCond30) Conditional ??CrossCallReturnLabel_495
        CFI (cfiCond30) R24 Frame(CFA_Y, -5)
        CFI (cfiCond30) R25 Frame(CFA_Y, -4)
        CFI (cfiCond30) R26 Frame(CFA_Y, -3)
        CFI (cfiCond30) R27 Frame(CFA_Y, -2)
        CFI (cfiCond30) R4 Frame(CFA_Y, -1)
        CFI (cfiCond30) CFA_SP SP+6
        CFI (cfiCond30) CFA_Y Y+88
        CFI Block cfiCond31 Using cfiCommon0
        CFI (cfiCond31) NoFunction
        CFI (cfiCond31) Conditional ??CrossCallReturnLabel_494
        CFI (cfiCond31) R24 Frame(CFA_Y, -5)
        CFI (cfiCond31) R25 Frame(CFA_Y, -4)
        CFI (cfiCond31) R26 Frame(CFA_Y, -3)
        CFI (cfiCond31) R27 Frame(CFA_Y, -2)
        CFI (cfiCond31) R4 Frame(CFA_Y, -1)
        CFI (cfiCond31) CFA_SP SP+6
        CFI (cfiCond31) CFA_Y Y+88
        CFI Block cfiCond32 Using cfiCommon0
        CFI (cfiCond32) NoFunction
        CFI (cfiCond32) Conditional ??CrossCallReturnLabel_493
        CFI (cfiCond32) R24 Frame(CFA_Y, -5)
        CFI (cfiCond32) R25 Frame(CFA_Y, -4)
        CFI (cfiCond32) R26 Frame(CFA_Y, -3)
        CFI (cfiCond32) R27 Frame(CFA_Y, -2)
        CFI (cfiCond32) R4 Frame(CFA_Y, -1)
        CFI (cfiCond32) CFA_SP SP+6
        CFI (cfiCond32) CFA_Y Y+88
        CFI Block cfiCond33 Using cfiCommon0
        CFI (cfiCond33) NoFunction
        CFI (cfiCond33) Conditional ??CrossCallReturnLabel_492
        CFI (cfiCond33) R24 Frame(CFA_Y, -5)
        CFI (cfiCond33) R25 Frame(CFA_Y, -4)
        CFI (cfiCond33) R26 Frame(CFA_Y, -3)
        CFI (cfiCond33) R27 Frame(CFA_Y, -2)
        CFI (cfiCond33) R4 Frame(CFA_Y, -1)
        CFI (cfiCond33) CFA_SP SP+6
        CFI (cfiCond33) CFA_Y Y+88
        CFI Block cfiCond34 Using cfiCommon0
        CFI (cfiCond34) NoFunction
        CFI (cfiCond34) Conditional ??CrossCallReturnLabel_491
        CFI (cfiCond34) R24 Frame(CFA_Y, -5)
        CFI (cfiCond34) R25 Frame(CFA_Y, -4)
        CFI (cfiCond34) R26 Frame(CFA_Y, -3)
        CFI (cfiCond34) R27 Frame(CFA_Y, -2)
        CFI (cfiCond34) R4 Frame(CFA_Y, -1)
        CFI (cfiCond34) CFA_SP SP+6
        CFI (cfiCond34) CFA_Y Y+88
        CFI Block cfiCond35 Using cfiCommon0
        CFI (cfiCond35) NoFunction
        CFI (cfiCond35) Conditional ??CrossCallReturnLabel_490
        CFI (cfiCond35) R24 Frame(CFA_Y, -5)
        CFI (cfiCond35) R25 Frame(CFA_Y, -4)
        CFI (cfiCond35) R26 Frame(CFA_Y, -3)
        CFI (cfiCond35) R27 Frame(CFA_Y, -2)
        CFI (cfiCond35) R4 Frame(CFA_Y, -1)
        CFI (cfiCond35) CFA_SP SP+6
        CFI (cfiCond35) CFA_Y Y+88
        CFI Block cfiPicker36 Using cfiCommon1
        CFI (cfiPicker36) NoFunction
        CFI (cfiPicker36) Picker
        JMP	??Subroutine167_0
        CFI EndBlock cfiCond18
        CFI EndBlock cfiCond19
        CFI EndBlock cfiCond20
        CFI EndBlock cfiCond21
        CFI EndBlock cfiCond22
        CFI EndBlock cfiCond23
        CFI EndBlock cfiCond24
        CFI EndBlock cfiCond25
        CFI EndBlock cfiCond26
        CFI EndBlock cfiCond27
        CFI EndBlock cfiCond28
        CFI EndBlock cfiCond29
        CFI EndBlock cfiCond30
        CFI EndBlock cfiCond31
        CFI EndBlock cfiCond32
        CFI EndBlock cfiCond33
        CFI EndBlock cfiCond34
        CFI EndBlock cfiCond35
        CFI EndBlock cfiPicker36

        RSEG FARCODE:CODE:NOROOT(1)
?Subroutine50:
        CFI Block cfiCond37 Using cfiCommon0
        CFI NoFunction
        CFI Conditional ??CrossCallReturnLabel_63
        CFI CFA_SP SP+6
        CFI Block cfiCond38 Using cfiCommon0
        CFI (cfiCond38) NoFunction
        CFI (cfiCond38) Conditional ??CrossCallReturnLabel_64
        CFI (cfiCond38) CFA_SP SP+6
        CFI Block cfiCond39 Using cfiCommon0
        CFI (cfiCond39) NoFunction
        CFI (cfiCond39) Conditional ??CrossCallReturnLabel_65
        CFI (cfiCond39) CFA_SP SP+6
        CFI Block cfiPicker40 Using cfiCommon1
        CFI (cfiPicker40) NoFunction
        CFI (cfiPicker40) Picker
        ST	X+, R16
        LDI	R16, 115
        ST	X+, R16
        RET
        CFI EndBlock cfiCond37
        CFI EndBlock cfiCond38
        CFI EndBlock cfiCond39
        CFI EndBlock cfiPicker40

        RSEG FARCODE:CODE:NOROOT(1)
vosstan_memory:
        CFI Block cfiBlock41 Using cfiCommon0
        CFI Function vosstan_memory
        FUNCALL vosstan_memory, crc_m1
        LOCFRAME CSTACK, 70, STACK
        LOCFRAME RSTACK, 3, STACK
        FUNCALL vosstan_memory, WrArrayToFlesh
        LOCFRAME CSTACK, 70, STACK
        LOCFRAME RSTACK, 3, STACK
        FUNCALL vosstan_memory, crc_m1
        LOCFRAME CSTACK, 70, STACK
        LOCFRAME RSTACK, 3, STACK
        FUNCALL vosstan_memory, WrArrayToFlesh
        LOCFRAME CSTACK, 70, STACK
        LOCFRAME RSTACK, 3, STACK
        FUNCALL vosstan_memory, crc_m1
        LOCFRAME CSTACK, 70, STACK
        LOCFRAME RSTACK, 3, STACK
        FUNCALL vosstan_memory, WrArrayToFlesh
        LOCFRAME CSTACK, 70, STACK
        LOCFRAME RSTACK, 3, STACK
        FUNCALL vosstan_memory, RdFromFleshToArr
        LOCFRAME CSTACK, 70, STACK
        LOCFRAME RSTACK, 3, STACK
        FUNCALL vosstan_memory, crc_m1
        LOCFRAME CSTACK, 70, STACK
        LOCFRAME RSTACK, 3, STACK
        FUNCALL vosstan_memory, WrArrayToFlesh
        LOCFRAME CSTACK, 70, STACK
        LOCFRAME RSTACK, 3, STACK
        FUNCALL vosstan_memory, crc_m1
        LOCFRAME CSTACK, 70, STACK
        LOCFRAME RSTACK, 3, STACK
        FUNCALL vosstan_memory, WrArrayToFlesh
        LOCFRAME CSTACK, 70, STACK
        LOCFRAME RSTACK, 3, STACK
        FUNCALL vosstan_memory, crc_m1
        LOCFRAME CSTACK, 70, STACK
        LOCFRAME RSTACK, 3, STACK
        FUNCALL vosstan_memory, WrArrayToFlesh
        LOCFRAME CSTACK, 70, STACK
        LOCFRAME RSTACK, 3, STACK
        FUNCALL vosstan_memory, crc_m1
        LOCFRAME CSTACK, 70, STACK
        LOCFRAME RSTACK, 3, STACK
        FUNCALL vosstan_memory, WrArrayToFlesh
        LOCFRAME CSTACK, 70, STACK
        LOCFRAME RSTACK, 3, STACK
        FUNCALL vosstan_memory, crc_m1
        LOCFRAME CSTACK, 70, STACK
        LOCFRAME RSTACK, 3, STACK
        FUNCALL vosstan_memory, WrArrayToFlesh
        LOCFRAME CSTACK, 70, STACK
        LOCFRAME RSTACK, 3, STACK
        FUNCALL vosstan_memory, crc_m1
        LOCFRAME CSTACK, 70, STACK
        LOCFRAME RSTACK, 3, STACK
        FUNCALL vosstan_memory, WrArrayToFlesh
        LOCFRAME CSTACK, 70, STACK
        LOCFRAME RSTACK, 3, STACK
        FUNCALL vosstan_memory, crc_m1
        LOCFRAME CSTACK, 70, STACK
        LOCFRAME RSTACK, 3, STACK
        FUNCALL vosstan_memory, WrArrayToFlesh
        LOCFRAME CSTACK, 70, STACK
        LOCFRAME RSTACK, 3, STACK
        FUNCALL vosstan_memory, crc_m1
        LOCFRAME CSTACK, 70, STACK
        LOCFRAME RSTACK, 3, STACK
        FUNCALL vosstan_memory, WrArrayToFlesh
        LOCFRAME CSTACK, 70, STACK
        LOCFRAME RSTACK, 3, STACK
        FUNCALL vosstan_memory, burst_ds_r
        LOCFRAME CSTACK, 70, STACK
        LOCFRAME RSTACK, 3, STACK
        FUNCALL vosstan_memory, crc_m1
        LOCFRAME CSTACK, 70, STACK
        LOCFRAME RSTACK, 3, STACK
        FUNCALL vosstan_memory, WrArrayToFlesh
        LOCFRAME CSTACK, 70, STACK
        LOCFRAME RSTACK, 3, STACK
        SBIW	R29:R28, 63
        CFI CFA_Y Y+63
        SBIW	R29:R28, 7
        CFI CFA_Y Y+70
        LDI	R18, 0
??vosstan_memory_0:
        LDI	R17, 0
        RCALL	?Subroutine55
??CrossCallReturnLabel_68:
        LPM	R19, Z
        MOVW	R31:R30, R29:R28
        CALL	?Subroutine56
??CrossCallReturnLabel_361:
        CPI	R18, 14
        BRCS	??vosstan_memory_0
        RCALL	?Subroutine66
??CrossCallReturnLabel_75:
        STD	Y+14, R16
        STD	Y+15, R17
        LDI	R23, 0
        LDI	R22, 0
        RCALL	?Subroutine76
??CrossCallReturnLabel_86:
        RCALL	?Subroutine22
??CrossCallReturnLabel_286:
        RCALL	?Subroutine13
??CrossCallReturnLabel_4:
        BRCS	??CrossCallReturnLabel_286
        RCALL	?Subroutine43
??CrossCallReturnLabel_51:
        RCALL	?Subroutine23
??CrossCallReturnLabel_288:
        RCALL	?Subroutine14
??CrossCallReturnLabel_8:
        BRCS	??CrossCallReturnLabel_288
        RCALL	?Subroutine44
??CrossCallReturnLabel_53:
        RCALL	?Subroutine171
??CrossCallReturnLabel_429:
        LDI	R20, 2
        RCALL	??Subroutine84_0
??CrossCallReturnLabel_101:
        SUBI	R18, 250
        SBCI	R19, 255
        LDI	R16, 146
        RCALL	??Subroutine29_0
??CrossCallReturnLabel_386:
        RCALL	?Subroutine64
??CrossCallReturnLabel_306:
        RCALL	?Subroutine74
??CrossCallReturnLabel_325:
        RCALL	?Subroutine171
??CrossCallReturnLabel_428:
        RCALL	?Subroutine7
??CrossCallReturnLabel_419:
        LDI	R16, 1
        ST	Y, R16
        LDI	R16, 255
        RCALL	?Subroutine8
??CrossCallReturnLabel_421:
        RCALL	?Subroutine24
??CrossCallReturnLabel_431:
        RCALL	?Subroutine63
??CrossCallReturnLabel_72:
        RCALL	?Subroutine22
??CrossCallReturnLabel_287:
        LDI	R30, LOW((map_vers + 30))
        LDI	R31, HIGH((map_vers + 30))
        RCALL	??Subroutine13_0
??CrossCallReturnLabel_6:
        BRCS	??CrossCallReturnLabel_287
        RCALL	?Subroutine45
??CrossCallReturnLabel_55:
        RCALL	?Subroutine23
??CrossCallReturnLabel_289:
        LDI	R30, LOW((def_apnr + 20))
        LDI	R31, HIGH((def_apnr + 20))
        RCALL	??Subroutine14_0
??CrossCallReturnLabel_10:
        BRCS	??CrossCallReturnLabel_289
        RCALL	?Subroutine41
??CrossCallReturnLabel_435:
        RCALL	?Subroutine91
??CrossCallReturnLabel_290:
        RCALL	?Subroutine21
??CrossCallReturnLabel_29:
        BRCS	??CrossCallReturnLabel_290
        RCALL	?Subroutine42
??CrossCallReturnLabel_437:
        RCALL	?Subroutine60
??CrossCallReturnLabel_433:
        ADIW	R29:R28, 63
        CFI CFA_Y Y+7
        ADIW	R29:R28, 7
        CFI CFA_Y Y+0
        RET
        CFI EndBlock cfiBlock41

        RSEG FARCODE:CODE:NOROOT(1)
?Subroutine91:
        CFI Block cfiCond42 Using cfiCommon0
        CFI NoFunction
        CFI Conditional ??CrossCallReturnLabel_290
        CFI CFA_SP SP+6
        CFI CFA_Y Y+70
        CFI Block cfiCond43 Using cfiCommon0
        CFI (cfiCond43) NoFunction
        CFI (cfiCond43) Conditional ??CrossCallReturnLabel_291
        CFI (cfiCond43) R24 Frame(CFA_Y, -2)
        CFI (cfiCond43) R25 Frame(CFA_Y, -1)
        CFI (cfiCond43) CFA_SP SP+6
        CFI (cfiCond43) CFA_Y Y+72
        CFI Block cfiPicker44 Using cfiCommon1
        CFI (cfiPicker44) NoFunction
        CFI (cfiPicker44) Picker
        LDI	R16, 8
        RJMP	?Subroutine152
        CFI EndBlock cfiCond42
        CFI EndBlock cfiCond43
        CFI EndBlock cfiPicker44

        RSEG FARCODE:CODE:NOROOT(1)
?Subroutine23:
        CFI Block cfiCond45 Using cfiCommon0
        CFI NoFunction
        CFI Conditional ??CrossCallReturnLabel_288
        CFI CFA_SP SP+6
        CFI CFA_Y Y+70
        CFI Block cfiCond46 Using cfiCommon0
        CFI (cfiCond46) NoFunction
        CFI (cfiCond46) Conditional ??CrossCallReturnLabel_289
        CFI (cfiCond46) CFA_SP SP+6
        CFI (cfiCond46) CFA_Y Y+70
        CFI Block cfiPicker47 Using cfiCommon1
        CFI (cfiPicker47) NoFunction
        CFI (cfiPicker47) Picker
        LDI	R17, 0
        CALL	WrArrayToFlesh
        LDI	R16, 19
        RJMP	?Subroutine152
        CFI EndBlock cfiCond45
        CFI EndBlock cfiCond46
        CFI EndBlock cfiPicker47

        RSEG FARCODE:CODE:NOROOT(1)
?Subroutine22:
        CFI Block cfiCond48 Using cfiCommon0
        CFI NoFunction
        CFI Conditional ??CrossCallReturnLabel_286
        CFI CFA_SP SP+6
        CFI CFA_Y Y+70
        CFI Block cfiCond49 Using cfiCommon0
        CFI (cfiCond49) NoFunction
        CFI (cfiCond49) Conditional ??CrossCallReturnLabel_287
        CFI (cfiCond49) CFA_SP SP+6
        CFI (cfiCond49) CFA_Y Y+70
        CFI Block cfiPicker50 Using cfiCommon1
        CFI (cfiPicker50) NoFunction
        CFI (cfiPicker50) Picker
        LDI	R17, 0
        CALL	WrArrayToFlesh
        LDI	R16, 15
        CFI EndBlock cfiCond48
        CFI EndBlock cfiCond49
        CFI EndBlock cfiPicker50
        REQUIRE ?Subroutine152
        ;		// Fall through to label ?Subroutine152

        RSEG FARCODE:CODE:NOROOT(1)
?Subroutine152:
        CFI Block cfiCond51 Using cfiCommon0
        CFI NoFunction
        CFI Conditional ??CrossCallReturnLabel_290
        CFI CFA_SP SP+6
        CFI CFA_Y Y+70
        CFI Block cfiCond52 Using cfiCommon0
        CFI (cfiCond52) NoFunction
        CFI (cfiCond52) Conditional ??CrossCallReturnLabel_291
        CFI (cfiCond52) R24 Frame(CFA_Y, -2)
        CFI (cfiCond52) R25 Frame(CFA_Y, -1)
        CFI (cfiCond52) CFA_SP SP+6
        CFI (cfiCond52) CFA_Y Y+72
        CFI Block cfiCond53 Using cfiCommon0
        CFI (cfiCond53) NoFunction
        CFI (cfiCond53) Conditional ??CrossCallReturnLabel_292
        CFI (cfiCond53) R24 Frame(CFA_Y, -2)
        CFI (cfiCond53) R25 Frame(CFA_Y, -1)
        CFI (cfiCond53) CFA_SP SP+6
        CFI (cfiCond53) CFA_Y Y+72
        CFI Block cfiCond54 Using cfiCommon0
        CFI (cfiCond54) NoFunction
        CFI (cfiCond54) Conditional ??CrossCallReturnLabel_293
        CFI (cfiCond54) R24 Frame(CFA_Y, -2)
        CFI (cfiCond54) R25 Frame(CFA_Y, -1)
        CFI (cfiCond54) CFA_SP SP+6
        CFI (cfiCond54) CFA_Y Y+72
        CFI Block cfiCond55 Using cfiCommon0
        CFI (cfiCond55) NoFunction
        CFI (cfiCond55) Conditional ??CrossCallReturnLabel_294
        CFI (cfiCond55) R24 Frame(CFA_Y, -2)
        CFI (cfiCond55) R25 Frame(CFA_Y, -1)
        CFI (cfiCond55) CFA_SP SP+6
        CFI (cfiCond55) CFA_Y Y+72
        CFI Block cfiCond56 Using cfiCommon0
        CFI (cfiCond56) NoFunction
        CFI (cfiCond56) Conditional ??CrossCallReturnLabel_295
        CFI (cfiCond56) R24 Frame(CFA_Y, -2)
        CFI (cfiCond56) R25 Frame(CFA_Y, -1)
        CFI (cfiCond56) CFA_SP SP+6
        CFI (cfiCond56) CFA_Y Y+72
        CFI Block cfiCond57 Using cfiCommon0
        CFI (cfiCond57) NoFunction
        CFI (cfiCond57) Conditional ??CrossCallReturnLabel_288
        CFI (cfiCond57) CFA_SP SP+6
        CFI (cfiCond57) CFA_Y Y+70
        CFI Block cfiCond58 Using cfiCommon0
        CFI (cfiCond58) NoFunction
        CFI (cfiCond58) Conditional ??CrossCallReturnLabel_289
        CFI (cfiCond58) CFA_SP SP+6
        CFI (cfiCond58) CFA_Y Y+70
        CFI Block cfiCond59 Using cfiCommon0
        CFI (cfiCond59) NoFunction
        CFI (cfiCond59) Conditional ??CrossCallReturnLabel_286
        CFI (cfiCond59) CFA_SP SP+6
        CFI (cfiCond59) CFA_Y Y+70
        CFI Block cfiCond60 Using cfiCommon0
        CFI (cfiCond60) NoFunction
        CFI (cfiCond60) Conditional ??CrossCallReturnLabel_287
        CFI (cfiCond60) CFA_SP SP+6
        CFI (cfiCond60) CFA_Y Y+70
        CFI Block cfiPicker61 Using cfiCommon1
        CFI (cfiPicker61) NoFunction
        CFI (cfiPicker61) Picker
        ST	Y, R16
        LDI	R16, 1
        CFI Block cfiCond62 Using cfiCommon0
        CFI (cfiCond62) NoFunction
        CFI (cfiCond62) Conditional ??CrossCallReturnLabel_283
        CFI (cfiCond62) R24 Frame(CFA_Y, -9)
        CFI (cfiCond62) R25 Frame(CFA_Y, -8)
        CFI (cfiCond62) R26 Frame(CFA_Y, -7)
        CFI (cfiCond62) R27 Frame(CFA_Y, -6)
        CFI (cfiCond62) R4 Frame(CFA_Y, -5)
        CFI (cfiCond62) R5 Frame(CFA_Y, -4)
        CFI (cfiCond62) R6 Frame(CFA_Y, -3)
        CFI (cfiCond62) R7 Frame(CFA_Y, -2)
        CFI (cfiCond62) R8 Frame(CFA_Y, -1)
        CFI (cfiCond62) CFA_SP SP+6
        CFI (cfiCond62) CFA_Y Y+83
        CFI Block cfiCond63 Using cfiCommon0
        CFI (cfiCond63) NoFunction
        CFI (cfiCond63) Conditional ??CrossCallReturnLabel_284
        CFI (cfiCond63) R24 Frame(CFA_Y, -9)
        CFI (cfiCond63) R25 Frame(CFA_Y, -8)
        CFI (cfiCond63) R26 Frame(CFA_Y, -7)
        CFI (cfiCond63) R27 Frame(CFA_Y, -6)
        CFI (cfiCond63) R4 Frame(CFA_Y, -5)
        CFI (cfiCond63) R5 Frame(CFA_Y, -4)
        CFI (cfiCond63) R6 Frame(CFA_Y, -3)
        CFI (cfiCond63) R7 Frame(CFA_Y, -2)
        CFI (cfiCond63) R8 Frame(CFA_Y, -1)
        CFI (cfiCond63) CFA_SP SP+6
        CFI (cfiCond63) CFA_Y Y+83
        CFI Block cfiCond64 Using cfiCommon0
        CFI (cfiCond64) NoFunction
        CFI (cfiCond64) Conditional ??CrossCallReturnLabel_285
        CFI (cfiCond64) R24 Frame(CFA_Y, -9)
        CFI (cfiCond64) R25 Frame(CFA_Y, -8)
        CFI (cfiCond64) R26 Frame(CFA_Y, -7)
        CFI (cfiCond64) R27 Frame(CFA_Y, -6)
        CFI (cfiCond64) R4 Frame(CFA_Y, -5)
        CFI (cfiCond64) R5 Frame(CFA_Y, -4)
        CFI (cfiCond64) R6 Frame(CFA_Y, -3)
        CFI (cfiCond64) R7 Frame(CFA_Y, -2)
        CFI (cfiCond64) R8 Frame(CFA_Y, -1)
        CFI (cfiCond64) CFA_SP SP+6
        CFI (cfiCond64) CFA_Y Y+83
??Subroutine152_0:
        LDI	R18, 0
        RET
        CFI EndBlock cfiCond51
        CFI EndBlock cfiCond52
        CFI EndBlock cfiCond53
        CFI EndBlock cfiCond54
        CFI EndBlock cfiCond55
        CFI EndBlock cfiCond56
        CFI EndBlock cfiCond57
        CFI EndBlock cfiCond58
        CFI EndBlock cfiCond59
        CFI EndBlock cfiCond60
        CFI EndBlock cfiPicker61
        CFI EndBlock cfiCond62
        CFI EndBlock cfiCond63
        CFI EndBlock cfiCond64

        RSEG FARCODE:CODE:NOROOT(1)
check_memory_map:
        CFI Block cfiBlock65 Using cfiCommon0
        CFI Function check_memory_map
        FUNCALL check_memory_map, RdFromFleshToArr
        LOCFRAME CSTACK, 72, STACK
        LOCFRAME RSTACK, 3, STACK
        FUNCALL check_memory_map, crc_m1
        LOCFRAME CSTACK, 72, STACK
        LOCFRAME RSTACK, 3, STACK
        FUNCALL check_memory_map, RdFromFleshToArr
        LOCFRAME CSTACK, 72, STACK
        LOCFRAME RSTACK, 3, STACK
        FUNCALL check_memory_map, crc_m1
        LOCFRAME CSTACK, 72, STACK
        LOCFRAME RSTACK, 3, STACK
        FUNCALL check_memory_map, crc_m1
        LOCFRAME CSTACK, 72, STACK
        LOCFRAME RSTACK, 3, STACK
        FUNCALL check_memory_map, WrArrayToFlesh
        LOCFRAME CSTACK, 72, STACK
        LOCFRAME RSTACK, 3, STACK
        FUNCALL check_memory_map, RdFromFleshToArr
        LOCFRAME CSTACK, 72, STACK
        LOCFRAME RSTACK, 3, STACK
        FUNCALL check_memory_map, crc_m1
        LOCFRAME CSTACK, 72, STACK
        LOCFRAME RSTACK, 3, STACK
        FUNCALL check_memory_map, crc_m1
        LOCFRAME CSTACK, 72, STACK
        LOCFRAME RSTACK, 3, STACK
        FUNCALL check_memory_map, WrArrayToFlesh
        LOCFRAME CSTACK, 72, STACK
        LOCFRAME RSTACK, 3, STACK
        FUNCALL check_memory_map, RdFromFleshToArr
        LOCFRAME CSTACK, 72, STACK
        LOCFRAME RSTACK, 3, STACK
        FUNCALL check_memory_map, crc_m1
        LOCFRAME CSTACK, 72, STACK
        LOCFRAME RSTACK, 3, STACK
        FUNCALL check_memory_map, crc_m1
        LOCFRAME CSTACK, 72, STACK
        LOCFRAME RSTACK, 3, STACK
        FUNCALL check_memory_map, WrArrayToFlesh
        LOCFRAME CSTACK, 72, STACK
        LOCFRAME RSTACK, 3, STACK
        FUNCALL check_memory_map, RdFromFleshToArr
        LOCFRAME CSTACK, 72, STACK
        LOCFRAME RSTACK, 3, STACK
        FUNCALL check_memory_map, crc_m1
        LOCFRAME CSTACK, 72, STACK
        LOCFRAME RSTACK, 3, STACK
        FUNCALL check_memory_map, crc_m1
        LOCFRAME CSTACK, 72, STACK
        LOCFRAME RSTACK, 3, STACK
        FUNCALL check_memory_map, WrArrayToFlesh
        LOCFRAME CSTACK, 72, STACK
        LOCFRAME RSTACK, 3, STACK
        FUNCALL check_memory_map, RdFromFleshToArr
        LOCFRAME CSTACK, 72, STACK
        LOCFRAME RSTACK, 3, STACK
        FUNCALL check_memory_map, crc_m1
        LOCFRAME CSTACK, 72, STACK
        LOCFRAME RSTACK, 3, STACK
        FUNCALL check_memory_map, crc_m1
        LOCFRAME CSTACK, 72, STACK
        LOCFRAME RSTACK, 3, STACK
        FUNCALL check_memory_map, WrArrayToFlesh
        LOCFRAME CSTACK, 72, STACK
        LOCFRAME RSTACK, 3, STACK
        FUNCALL check_memory_map, RdFromFleshToArr
        LOCFRAME CSTACK, 72, STACK
        LOCFRAME RSTACK, 3, STACK
        FUNCALL check_memory_map, crc_m1
        LOCFRAME CSTACK, 72, STACK
        LOCFRAME RSTACK, 3, STACK
        FUNCALL check_memory_map, crc_m1
        LOCFRAME CSTACK, 72, STACK
        LOCFRAME RSTACK, 3, STACK
        FUNCALL check_memory_map, WrArrayToFlesh
        LOCFRAME CSTACK, 72, STACK
        LOCFRAME RSTACK, 3, STACK
        FUNCALL check_memory_map, RdFromFleshToArr
        LOCFRAME CSTACK, 72, STACK
        LOCFRAME RSTACK, 3, STACK
        FUNCALL check_memory_map, crc_m1
        LOCFRAME CSTACK, 72, STACK
        LOCFRAME RSTACK, 3, STACK
        FUNCALL check_memory_map, crc_m1
        LOCFRAME CSTACK, 72, STACK
        LOCFRAME RSTACK, 3, STACK
        FUNCALL check_memory_map, WrArrayToFlesh
        LOCFRAME CSTACK, 72, STACK
        LOCFRAME RSTACK, 3, STACK
        FUNCALL check_memory_map, RdFromFleshToArr
        LOCFRAME CSTACK, 72, STACK
        LOCFRAME RSTACK, 3, STACK
        FUNCALL check_memory_map, crc_m1
        LOCFRAME CSTACK, 72, STACK
        LOCFRAME RSTACK, 3, STACK
        FUNCALL check_memory_map, crc_m1
        LOCFRAME CSTACK, 72, STACK
        LOCFRAME RSTACK, 3, STACK
        FUNCALL check_memory_map, WrArrayToFlesh
        LOCFRAME CSTACK, 72, STACK
        LOCFRAME RSTACK, 3, STACK
        FUNCALL check_memory_map, RdFromFleshToArr
        LOCFRAME CSTACK, 72, STACK
        LOCFRAME RSTACK, 3, STACK
        FUNCALL check_memory_map, crc_m1
        LOCFRAME CSTACK, 72, STACK
        LOCFRAME RSTACK, 3, STACK
        FUNCALL check_memory_map, crc_m1
        LOCFRAME CSTACK, 72, STACK
        LOCFRAME RSTACK, 3, STACK
        FUNCALL check_memory_map, WrArrayToFlesh
        LOCFRAME CSTACK, 72, STACK
        LOCFRAME RSTACK, 3, STACK
        FUNCALL check_memory_map, RdFromFleshToArr
        LOCFRAME CSTACK, 72, STACK
        LOCFRAME RSTACK, 3, STACK
        FUNCALL check_memory_map, crc_m1
        LOCFRAME CSTACK, 72, STACK
        LOCFRAME RSTACK, 3, STACK
        FUNCALL check_memory_map, crc_m1
        LOCFRAME CSTACK, 72, STACK
        LOCFRAME RSTACK, 3, STACK
        FUNCALL check_memory_map, WrArrayToFlesh
        LOCFRAME CSTACK, 72, STACK
        LOCFRAME RSTACK, 3, STACK
        FUNCALL check_memory_map, RdFromFleshToArr
        LOCFRAME CSTACK, 72, STACK
        LOCFRAME RSTACK, 3, STACK
        FUNCALL check_memory_map, crc_m1
        LOCFRAME CSTACK, 72, STACK
        LOCFRAME RSTACK, 3, STACK
        FUNCALL check_memory_map, burst_ds_r
        LOCFRAME CSTACK, 72, STACK
        LOCFRAME RSTACK, 3, STACK
        FUNCALL check_memory_map, crc_m1
        LOCFRAME CSTACK, 72, STACK
        LOCFRAME RSTACK, 3, STACK
        FUNCALL check_memory_map, WrArrayToFlesh
        LOCFRAME CSTACK, 72, STACK
        LOCFRAME RSTACK, 3, STACK
        ST	-Y, R25
        CFI R25 Frame(CFA_Y, -1)
        CFI CFA_Y Y+1
        ST	-Y, R24
        CFI R24 Frame(CFA_Y, -2)
        CFI CFA_Y Y+2
        SBIW	R29:R28, 63
        CFI CFA_Y Y+65
        SBIW	R29:R28, 7
        CFI CFA_Y Y+72
        RCALL	?Subroutine76
??CrossCallReturnLabel_87:
        RCALL	??Subroutine29_0
??CrossCallReturnLabel_385:
        LDD	R24, Y+14
        LDD	R25, Y+15
        RCALL	?Subroutine66
??CrossCallReturnLabel_74:
        CP	R24, R16
        CPC	R25, R17
        BREQ	??check_memory_map_0
??check_memory_map_1:
        LDI	R16, 1
        RJMP	??check_memory_map_2
??check_memory_map_0:
        LDI	R18, 0
??check_memory_map_3:
        LDI	R17, 0
        MOVW	R31:R30, R29:R28
        ADD	R30, R18
        ADC	R31, R17
        LD	R19, Z
        RCALL	?Subroutine55
??CrossCallReturnLabel_69:
        LPM	R16, Z
        CP	R19, R16
        BRNE	??check_memory_map_1
        INC	R18
        CPI	R18, 14
        BRCS	??check_memory_map_3
        RCALL	?Subroutine84
??CrossCallReturnLabel_102:
        LDI	R16, 20
        RCALL	?Subroutine170
??CrossCallReturnLabel_411:
        BREQ	??CrossCallReturnLabel_427
        LDI	R16, 15
        RCALL	?Subroutine152
??CrossCallReturnLabel_292:
        RCALL	?Subroutine13
??CrossCallReturnLabel_5:
        BRCS	??CrossCallReturnLabel_292
        RCALL	?Subroutine43
??CrossCallReturnLabel_52:
        RCALL	?Subroutine171
??CrossCallReturnLabel_427:
        RCALL	?Subroutine84
??CrossCallReturnLabel_103:
        LDI	R16, 80
        RCALL	?Subroutine16
??CrossCallReturnLabel_409:
        BREQ	??CrossCallReturnLabel_426
        LDI	R16, 19
        RCALL	?Subroutine152
??CrossCallReturnLabel_293:
        RCALL	?Subroutine14
??CrossCallReturnLabel_9:
        BRCS	??CrossCallReturnLabel_293
        RCALL	?Subroutine44
??CrossCallReturnLabel_54:
        RCALL	?Subroutine171
??CrossCallReturnLabel_426:
        LDI	R20, 10
        RCALL	??Subroutine84_0
??CrossCallReturnLabel_104:
        RCALL	?Subroutine29
??CrossCallReturnLabel_388:
        LDD	R24, Y+8
        LDD	R25, Y+9
        RCALL	?Subroutine68
??CrossCallReturnLabel_76:
        MOVW	R17:R16, R29:R28
        RCALL	??Subroutine147_1
??CrossCallReturnLabel_402:
        BREQ	??CrossCallReturnLabel_425
        RCALL	?Subroutine64
??CrossCallReturnLabel_307:
        STD	Y+6, R16
        STD	Y+7, R17
        RCALL	?Subroutine74
??CrossCallReturnLabel_326:
        RCALL	?Subroutine171
??CrossCallReturnLabel_425:
        LDI	R20, 14
        RCALL	??Subroutine84_0
??CrossCallReturnLabel_105:
        LDI	R16, 150
        RCALL	??Subroutine29_0
??CrossCallReturnLabel_384:
        RCALL	?Subroutine65
??CrossCallReturnLabel_407:
        BREQ	??CrossCallReturnLabel_418
        RCALL	?Subroutine7
??CrossCallReturnLabel_418:
        LDI	R20, 11
        RCALL	??Subroutine84_0
??CrossCallReturnLabel_106:
        LDI	R16, 164
        RCALL	??Subroutine29_0
??CrossCallReturnLabel_383:
        LDD	R24, Y+9
        LDD	R25, Y+10
        CALL	?Subroutine67
??CrossCallReturnLabel_315:
        RCALL	??Subroutine147_1
??CrossCallReturnLabel_403:
        BREQ	??CrossCallReturnLabel_420
        LDI	R16, 255
        ST	Y, R16
        RCALL	?Subroutine8
??CrossCallReturnLabel_420:
        LDI	R20, 6
        RCALL	??Subroutine84_0
??CrossCallReturnLabel_107:
        LDI	R16, 175
        RCALL	?Subroutine17
??CrossCallReturnLabel_405:
        BREQ	??CrossCallReturnLabel_430
        RCALL	?Subroutine24
??CrossCallReturnLabel_430:
        LDI	R20, 6
        RCALL	??Subroutine84_0
??CrossCallReturnLabel_108:
        LDI	R16, 181
        RCALL	?Subroutine17
??CrossCallReturnLabel_406:
        BREQ	??CrossCallReturnLabel_424
        RCALL	?Subroutine63
??CrossCallReturnLabel_73:
        RCALL	?Subroutine171
??CrossCallReturnLabel_424:
        RCALL	?Subroutine84
??CrossCallReturnLabel_109:
        LDI	R16, 250
        RCALL	?Subroutine16
??CrossCallReturnLabel_410:
        BREQ	??CrossCallReturnLabel_423
        LDI	R16, 15
        RCALL	?Subroutine152
??CrossCallReturnLabel_294:
        LDI	R30, LOW((map_vers + 30))
        LDI	R31, HIGH((map_vers + 30))
        RCALL	??Subroutine13_0
??CrossCallReturnLabel_7:
        BRCS	??CrossCallReturnLabel_294
        RCALL	?Subroutine45
??CrossCallReturnLabel_56:
        RCALL	?Subroutine171
??CrossCallReturnLabel_423:
        RCALL	?Subroutine84
??CrossCallReturnLabel_110:
        LDI	R16, 54
        LDI	R17, 1
        RCALL	?Subroutine170
??CrossCallReturnLabel_412:
        BREQ	??CrossCallReturnLabel_434
        LDI	R16, 19
        RCALL	?Subroutine152
??CrossCallReturnLabel_295:
        LDI	R30, LOW((def_apnr + 20))
        LDI	R31, HIGH((def_apnr + 20))
        RCALL	??Subroutine14_0
??CrossCallReturnLabel_11:
        BRCS	??CrossCallReturnLabel_295
        RCALL	?Subroutine41
??CrossCallReturnLabel_434:
        RCALL	?Subroutine84
??CrossCallReturnLabel_111:
        RCALL	??Subroutine52_0
??CrossCallReturnLabel_389:
        RCALL	?Subroutine147
??CrossCallReturnLabel_413:
        BREQ	??CrossCallReturnLabel_436
        RCALL	?Subroutine91
??CrossCallReturnLabel_291:
        RCALL	?Subroutine21
??CrossCallReturnLabel_30:
        BRCS	??CrossCallReturnLabel_291
        RCALL	?Subroutine42
??CrossCallReturnLabel_436:
        LDI	R20, 14
        RCALL	??Subroutine84_0
??CrossCallReturnLabel_112:
        LDI	R16, 254
        LDI	R17, 116
        RCALL	?Subroutine168
??CrossCallReturnLabel_394:
        RCALL	?Subroutine65
??CrossCallReturnLabel_408:
        BREQ	??CrossCallReturnLabel_432
        RCALL	?Subroutine60
??CrossCallReturnLabel_432:
        LDI	R16, 0
??check_memory_map_2:
        ADIW	R29:R28, 63
        CFI CFA_Y Y+9
        ADIW	R29:R28, 7
        CFI CFA_Y Y+2
        LD	R24, Y+
        CFI R24 SameValue
        CFI CFA_Y Y+1
        LD	R25, Y+
        CFI R25 SameValue
        CFI CFA_Y Y+0
        RET
        CFI EndBlock cfiBlock65

        RSEG FARCODE:CODE:NOROOT(1)
?Subroutine84:
        CFI Block cfiCond66 Using cfiCommon0
        CFI NoFunction
        CFI Conditional ??CrossCallReturnLabel_102
        CFI R24 Frame(CFA_Y, -2)
        CFI R25 Frame(CFA_Y, -1)
        CFI CFA_SP SP+6
        CFI CFA_Y Y+72
        CFI Block cfiCond67 Using cfiCommon0
        CFI (cfiCond67) NoFunction
        CFI (cfiCond67) Conditional ??CrossCallReturnLabel_103
        CFI (cfiCond67) R24 Frame(CFA_Y, -2)
        CFI (cfiCond67) R25 Frame(CFA_Y, -1)
        CFI (cfiCond67) CFA_SP SP+6
        CFI (cfiCond67) CFA_Y Y+72
        CFI Block cfiCond68 Using cfiCommon0
        CFI (cfiCond68) NoFunction
        CFI (cfiCond68) Conditional ??CrossCallReturnLabel_109
        CFI (cfiCond68) R24 Frame(CFA_Y, -2)
        CFI (cfiCond68) R25 Frame(CFA_Y, -1)
        CFI (cfiCond68) CFA_SP SP+6
        CFI (cfiCond68) CFA_Y Y+72
        CFI Block cfiCond69 Using cfiCommon0
        CFI (cfiCond69) NoFunction
        CFI (cfiCond69) Conditional ??CrossCallReturnLabel_110
        CFI (cfiCond69) R24 Frame(CFA_Y, -2)
        CFI (cfiCond69) R25 Frame(CFA_Y, -1)
        CFI (cfiCond69) CFA_SP SP+6
        CFI (cfiCond69) CFA_Y Y+72
        CFI Block cfiCond70 Using cfiCommon0
        CFI (cfiCond70) NoFunction
        CFI (cfiCond70) Conditional ??CrossCallReturnLabel_111
        CFI (cfiCond70) R24 Frame(CFA_Y, -2)
        CFI (cfiCond70) R25 Frame(CFA_Y, -1)
        CFI (cfiCond70) CFA_SP SP+6
        CFI (cfiCond70) CFA_Y Y+72
        CFI Block cfiCond71 Using cfiCommon0
        CFI (cfiCond71) NoFunction
        CFI (cfiCond71) Conditional ??CrossCallReturnLabel_113
        CFI (cfiCond71) R24 Frame(CFA_Y, -5)
        CFI (cfiCond71) R25 Frame(CFA_Y, -4)
        CFI (cfiCond71) R26 Frame(CFA_Y, -3)
        CFI (cfiCond71) R27 Frame(CFA_Y, -2)
        CFI (cfiCond71) R4 Frame(CFA_Y, -1)
        CFI (cfiCond71) CFA_SP SP+6
        CFI (cfiCond71) CFA_Y Y+88
        CFI Block cfiPicker72 Using cfiCommon1
        CFI (cfiPicker72) NoFunction
        CFI (cfiPicker72) Picker
        LDI	R20, 60
        CFI Block cfiCond73 Using cfiCommon0
        CFI (cfiCond73) NoFunction
        CFI (cfiCond73) Conditional ??CrossCallReturnLabel_101
        CFI (cfiCond73) CFA_SP SP+6
        CFI (cfiCond73) CFA_Y Y+70
        CFI Block cfiCond74 Using cfiCommon0
        CFI (cfiCond74) NoFunction
        CFI (cfiCond74) Conditional ??CrossCallReturnLabel_104
        CFI (cfiCond74) R24 Frame(CFA_Y, -2)
        CFI (cfiCond74) R25 Frame(CFA_Y, -1)
        CFI (cfiCond74) CFA_SP SP+6
        CFI (cfiCond74) CFA_Y Y+72
        CFI Block cfiCond75 Using cfiCommon0
        CFI (cfiCond75) NoFunction
        CFI (cfiCond75) Conditional ??CrossCallReturnLabel_105
        CFI (cfiCond75) R24 Frame(CFA_Y, -2)
        CFI (cfiCond75) R25 Frame(CFA_Y, -1)
        CFI (cfiCond75) CFA_SP SP+6
        CFI (cfiCond75) CFA_Y Y+72
        CFI Block cfiCond76 Using cfiCommon0
        CFI (cfiCond76) NoFunction
        CFI (cfiCond76) Conditional ??CrossCallReturnLabel_106
        CFI (cfiCond76) R24 Frame(CFA_Y, -2)
        CFI (cfiCond76) R25 Frame(CFA_Y, -1)
        CFI (cfiCond76) CFA_SP SP+6
        CFI (cfiCond76) CFA_Y Y+72
        CFI Block cfiCond77 Using cfiCommon0
        CFI (cfiCond77) NoFunction
        CFI (cfiCond77) Conditional ??CrossCallReturnLabel_107
        CFI (cfiCond77) R24 Frame(CFA_Y, -2)
        CFI (cfiCond77) R25 Frame(CFA_Y, -1)
        CFI (cfiCond77) CFA_SP SP+6
        CFI (cfiCond77) CFA_Y Y+72
        CFI Block cfiCond78 Using cfiCommon0
        CFI (cfiCond78) NoFunction
        CFI (cfiCond78) Conditional ??CrossCallReturnLabel_108
        CFI (cfiCond78) R24 Frame(CFA_Y, -2)
        CFI (cfiCond78) R25 Frame(CFA_Y, -1)
        CFI (cfiCond78) CFA_SP SP+6
        CFI (cfiCond78) CFA_Y Y+72
        CFI Block cfiCond79 Using cfiCommon0
        CFI (cfiCond79) NoFunction
        CFI (cfiCond79) Conditional ??CrossCallReturnLabel_112
        CFI (cfiCond79) R24 Frame(CFA_Y, -2)
        CFI (cfiCond79) R25 Frame(CFA_Y, -1)
        CFI (cfiCond79) CFA_SP SP+6
        CFI (cfiCond79) CFA_Y Y+72
        CFI Block cfiCond80 Using cfiCommon0
        CFI (cfiCond80) NoFunction
        CFI (cfiCond80) Conditional ??CrossCallReturnLabel_114
        CFI (cfiCond80) R24 Frame(CFA_Y, -5)
        CFI (cfiCond80) R25 Frame(CFA_Y, -4)
        CFI (cfiCond80) R26 Frame(CFA_Y, -3)
        CFI (cfiCond80) R27 Frame(CFA_Y, -2)
        CFI (cfiCond80) R4 Frame(CFA_Y, -1)
        CFI (cfiCond80) CFA_SP SP+6
        CFI (cfiCond80) CFA_Y Y+88
??Subroutine84_0:
        LDI	R21, 0
        MOVW	R19:R18, R29:R28
        RET
        CFI EndBlock cfiCond66
        CFI EndBlock cfiCond67
        CFI EndBlock cfiCond68
        CFI EndBlock cfiCond69
        CFI EndBlock cfiCond70
        CFI EndBlock cfiCond71
        CFI EndBlock cfiPicker72
        CFI EndBlock cfiCond73
        CFI EndBlock cfiCond74
        CFI EndBlock cfiCond75
        CFI EndBlock cfiCond76
        CFI EndBlock cfiCond77
        CFI EndBlock cfiCond78
        CFI EndBlock cfiCond79
        CFI EndBlock cfiCond80

        RSEG FARCODE:CODE:NOROOT(1)
?Subroutine76:
        CFI Block cfiCond81 Using cfiCommon0
        CFI NoFunction
        CFI Conditional ??CrossCallReturnLabel_86
        CFI CFA_SP SP+6
        CFI CFA_Y Y+70
        CFI Block cfiCond82 Using cfiCommon0
        CFI (cfiCond82) NoFunction
        CFI (cfiCond82) Conditional ??CrossCallReturnLabel_87
        CFI (cfiCond82) R24 Frame(CFA_Y, -2)
        CFI (cfiCond82) R25 Frame(CFA_Y, -1)
        CFI (cfiCond82) CFA_SP SP+6
        CFI (cfiCond82) CFA_Y Y+72
        CFI Block cfiPicker83 Using cfiCommon1
        CFI (cfiPicker83) NoFunction
        CFI (cfiPicker83) Picker
        LDI	R20, 16
        LDI	R21, 0
        MOVW	R19:R18, R29:R28
        LDI	R16, 0
        RET
        CFI EndBlock cfiCond81
        CFI EndBlock cfiCond82
        CFI EndBlock cfiPicker83

        RSEG FARCODE:CODE:NOROOT(1)
?Subroutine74:
        CFI Block cfiCond84 Using cfiCommon0
        CFI NoFunction
        CFI Conditional ??CrossCallReturnLabel_325
        CFI CFA_SP SP+6
        CFI CFA_Y Y+70
        CFI Block cfiCond85 Using cfiCommon0
        CFI (cfiCond85) NoFunction
        CFI (cfiCond85) Conditional ??CrossCallReturnLabel_326
        CFI (cfiCond85) R24 Frame(CFA_Y, -2)
        CFI (cfiCond85) R25 Frame(CFA_Y, -1)
        CFI (cfiCond85) CFA_SP SP+6
        CFI (cfiCond85) CFA_Y Y+72
        CFI Block cfiPicker86 Using cfiCommon1
        CFI (cfiPicker86) NoFunction
        CFI (cfiPicker86) Picker
        LDI	R23, 0
        LDI	R22, 0
        LDI	R20, 10
        LDI	R21, 0
        MOVW	R19:R18, R29:R28
        CFI EndBlock cfiCond84
        CFI EndBlock cfiCond85
        CFI EndBlock cfiPicker86
        REQUIRE ?Subroutine159
        ;		// Fall through to label ?Subroutine159

        RSEG FARCODE:CODE:NOROOT(1)
?Subroutine159:
        CFI Block cfiCond87 Using cfiCommon0
        CFI NoFunction
        CFI Conditional ??CrossCallReturnLabel_325
        CFI CFA_SP SP+6
        CFI CFA_Y Y+70
        CFI Block cfiCond88 Using cfiCommon0
        CFI (cfiCond88) NoFunction
        CFI (cfiCond88) Conditional ??CrossCallReturnLabel_326
        CFI (cfiCond88) R24 Frame(CFA_Y, -2)
        CFI (cfiCond88) R25 Frame(CFA_Y, -1)
        CFI (cfiCond88) CFA_SP SP+6
        CFI (cfiCond88) CFA_Y Y+72
        CFI Block cfiCond89 Using cfiCommon0
        CFI (cfiCond89) NoFunction
        CFI (cfiCond89) Conditional ??CrossCallReturnLabel_327
        CFI (cfiCond89) R24 Frame(CFA_Y, -9)
        CFI (cfiCond89) R25 Frame(CFA_Y, -8)
        CFI (cfiCond89) R26 Frame(CFA_Y, -7)
        CFI (cfiCond89) R27 Frame(CFA_Y, -6)
        CFI (cfiCond89) R4 Frame(CFA_Y, -5)
        CFI (cfiCond89) R5 Frame(CFA_Y, -4)
        CFI (cfiCond89) R6 Frame(CFA_Y, -3)
        CFI (cfiCond89) R7 Frame(CFA_Y, -2)
        CFI (cfiCond89) R8 Frame(CFA_Y, -1)
        CFI (cfiCond89) CFA_SP SP+6
        CFI (cfiCond89) CFA_Y Y+83
        CFI Block cfiCond90 Using cfiCommon0
        CFI (cfiCond90) NoFunction
        CFI (cfiCond90) Conditional ??CrossCallReturnLabel_328
        CFI (cfiCond90) R24 Frame(CFA_Y, -9)
        CFI (cfiCond90) R25 Frame(CFA_Y, -8)
        CFI (cfiCond90) R26 Frame(CFA_Y, -7)
        CFI (cfiCond90) R27 Frame(CFA_Y, -6)
        CFI (cfiCond90) R4 Frame(CFA_Y, -5)
        CFI (cfiCond90) R5 Frame(CFA_Y, -4)
        CFI (cfiCond90) R6 Frame(CFA_Y, -3)
        CFI (cfiCond90) R7 Frame(CFA_Y, -2)
        CFI (cfiCond90) R8 Frame(CFA_Y, -1)
        CFI (cfiCond90) CFA_SP SP+6
        CFI (cfiCond90) CFA_Y Y+83
        CFI Block cfiPicker91 Using cfiCommon1
        CFI (cfiPicker91) NoFunction
        CFI (cfiPicker91) Picker
        LDI	R16, 140
        RET
        CFI EndBlock cfiCond87
        CFI EndBlock cfiCond88
        CFI EndBlock cfiCond89
        CFI EndBlock cfiCond90
        CFI EndBlock cfiPicker91

        RSEG FARCODE:CODE:NOROOT(1)
?Subroutine66:
        CFI Block cfiCond92 Using cfiCommon0
        CFI NoFunction
        CFI Conditional ??CrossCallReturnLabel_75
        CFI CFA_SP SP+6
        CFI CFA_Y Y+70
        CFI Block cfiCond93 Using cfiCommon0
        CFI (cfiCond93) NoFunction
        CFI (cfiCond93) Conditional ??CrossCallReturnLabel_74
        CFI (cfiCond93) R24 Frame(CFA_Y, -2)
        CFI (cfiCond93) R25 Frame(CFA_Y, -1)
        CFI (cfiCond93) CFA_SP SP+6
        CFI (cfiCond93) CFA_Y Y+72
        CFI Block cfiPicker94 Using cfiCommon1
        CFI (cfiPicker94) NoFunction
        CFI (cfiPicker94) Picker
        LDI	R20, 255
        LDI	R21, 255
        LDI	R18, 14
        LDI	R19, 0
        MOVW	R17:R16, R29:R28
        JMP	crc_m1
        CFI EndBlock cfiCond92
        CFI EndBlock cfiCond93
        CFI EndBlock cfiPicker94

        RSEG FARCODE:CODE:NOROOT(1)
?Subroutine65:
        CFI Block cfiCond95 Using cfiCommon0
        CFI NoFunction
        CFI Conditional ??CrossCallReturnLabel_407
        CFI R24 Frame(CFA_Y, -2)
        CFI R25 Frame(CFA_Y, -1)
        CFI CFA_SP SP+6
        CFI CFA_Y Y+72
        CFI Block cfiCond96 Using cfiCommon0
        CFI (cfiCond96) NoFunction
        CFI (cfiCond96) Conditional ??CrossCallReturnLabel_408
        CFI (cfiCond96) R24 Frame(CFA_Y, -2)
        CFI (cfiCond96) R25 Frame(CFA_Y, -1)
        CFI (cfiCond96) CFA_SP SP+6
        CFI (cfiCond96) CFA_Y Y+72
        CFI Block cfiPicker97 Using cfiCommon1
        CFI (cfiPicker97) NoFunction
        CFI (cfiPicker97) Picker
        LDD	R24, Y+12
        LDD	R25, Y+13
        LDI	R20, 255
        LDI	R21, 255
        LDI	R18, 12
        RJMP	??Subroutine147_0
        CFI EndBlock cfiCond95
        CFI EndBlock cfiCond96
        CFI EndBlock cfiPicker97

        RSEG FARCODE:CODE:NOROOT(1)
?Subroutine147:
        CFI Block cfiCond98 Using cfiCommon0
        CFI NoFunction
        CFI Conditional ??CrossCallReturnLabel_411
        CFI R24 Frame(CFA_Y, -2)
        CFI R25 Frame(CFA_Y, -1)
        CFI CFA_SP SP+6
        CFI CFA_Y Y+72
        CFI Block cfiCond99 Using cfiCommon0
        CFI (cfiCond99) NoFunction
        CFI (cfiCond99) Conditional ??CrossCallReturnLabel_412
        CFI (cfiCond99) R24 Frame(CFA_Y, -2)
        CFI (cfiCond99) R25 Frame(CFA_Y, -1)
        CFI (cfiCond99) CFA_SP SP+6
        CFI (cfiCond99) CFA_Y Y+72
        CFI Block cfiCond100 Using cfiCommon0
        CFI (cfiCond100) NoFunction
        CFI (cfiCond100) Conditional ??CrossCallReturnLabel_413
        CFI (cfiCond100) R24 Frame(CFA_Y, -2)
        CFI (cfiCond100) R25 Frame(CFA_Y, -1)
        CFI (cfiCond100) CFA_SP SP+6
        CFI (cfiCond100) CFA_Y Y+72
        CFI Block cfiCond101 Using cfiCommon0
        CFI (cfiCond101) NoFunction
        CFI (cfiCond101) Conditional ??CrossCallReturnLabel_409
        CFI (cfiCond101) R24 Frame(CFA_Y, -2)
        CFI (cfiCond101) R25 Frame(CFA_Y, -1)
        CFI (cfiCond101) CFA_SP SP+6
        CFI (cfiCond101) CFA_Y Y+72
        CFI Block cfiCond102 Using cfiCommon0
        CFI (cfiCond102) NoFunction
        CFI (cfiCond102) Conditional ??CrossCallReturnLabel_410
        CFI (cfiCond102) R24 Frame(CFA_Y, -2)
        CFI (cfiCond102) R25 Frame(CFA_Y, -1)
        CFI (cfiCond102) CFA_SP SP+6
        CFI (cfiCond102) CFA_Y Y+72
        CFI Block cfiPicker103 Using cfiCommon1
        CFI (cfiPicker103) NoFunction
        CFI (cfiPicker103) Picker
        LDD	R24, Y+58
        LDD	R25, Y+59
        LDI	R20, 255
        LDI	R21, 255
        LDI	R18, 58
        CFI Block cfiCond104 Using cfiCommon0
        CFI (cfiCond104) NoFunction
        CFI (cfiCond104) Conditional ??CrossCallReturnLabel_407
        CFI (cfiCond104) R24 Frame(CFA_Y, -2)
        CFI (cfiCond104) R25 Frame(CFA_Y, -1)
        CFI (cfiCond104) CFA_SP SP+6
        CFI (cfiCond104) CFA_Y Y+72
        CFI Block cfiCond105 Using cfiCommon0
        CFI (cfiCond105) NoFunction
        CFI (cfiCond105) Conditional ??CrossCallReturnLabel_408
        CFI (cfiCond105) R24 Frame(CFA_Y, -2)
        CFI (cfiCond105) R25 Frame(CFA_Y, -1)
        CFI (cfiCond105) CFA_SP SP+6
        CFI (cfiCond105) CFA_Y Y+72
        CFI Block cfiCond106 Using cfiCommon0
        CFI (cfiCond106) NoFunction
        CFI (cfiCond106) Conditional ??CrossCallReturnLabel_405
        CFI (cfiCond106) R24 Frame(CFA_Y, -2)
        CFI (cfiCond106) R25 Frame(CFA_Y, -1)
        CFI (cfiCond106) CFA_SP SP+6
        CFI (cfiCond106) CFA_Y Y+72
        CFI Block cfiCond107 Using cfiCommon0
        CFI (cfiCond107) NoFunction
        CFI (cfiCond107) Conditional ??CrossCallReturnLabel_406
        CFI (cfiCond107) R24 Frame(CFA_Y, -2)
        CFI (cfiCond107) R25 Frame(CFA_Y, -1)
        CFI (cfiCond107) CFA_SP SP+6
        CFI (cfiCond107) CFA_Y Y+72
??Subroutine147_0:
        LDI	R19, 0
        MOVW	R17:R16, R29:R28
        CFI Block cfiCond108 Using cfiCommon0
        CFI (cfiCond108) NoFunction
        CFI (cfiCond108) Conditional ??CrossCallReturnLabel_402
        CFI (cfiCond108) R24 Frame(CFA_Y, -2)
        CFI (cfiCond108) R25 Frame(CFA_Y, -1)
        CFI (cfiCond108) CFA_SP SP+6
        CFI (cfiCond108) CFA_Y Y+72
        CFI Block cfiCond109 Using cfiCommon0
        CFI (cfiCond109) NoFunction
        CFI (cfiCond109) Conditional ??CrossCallReturnLabel_403
        CFI (cfiCond109) R24 Frame(CFA_Y, -2)
        CFI (cfiCond109) R25 Frame(CFA_Y, -1)
        CFI (cfiCond109) CFA_SP SP+6
        CFI (cfiCond109) CFA_Y Y+72
        CFI Block cfiCond110 Using cfiCommon0
        CFI (cfiCond110) NoFunction
        CFI (cfiCond110) Conditional ??CrossCallReturnLabel_404
        CFI (cfiCond110) R24 Frame(CFA_Y, -4)
        CFI (cfiCond110) R25 Frame(CFA_Y, -3)
        CFI (cfiCond110) R26 Frame(CFA_Y, -2)
        CFI (cfiCond110) R27 Frame(CFA_Y, -1)
        CFI (cfiCond110) CFA_SP SP+6
        CFI (cfiCond110) CFA_Y Y+4
??Subroutine147_1:
        CALL	crc_m1
        CP	R24, R16
        CPC	R25, R17
        RET
        CFI EndBlock cfiCond98
        CFI EndBlock cfiCond99
        CFI EndBlock cfiCond100
        CFI EndBlock cfiCond101
        CFI EndBlock cfiCond102
        CFI EndBlock cfiPicker103
        CFI EndBlock cfiCond104
        CFI EndBlock cfiCond105
        CFI EndBlock cfiCond106
        CFI EndBlock cfiCond107
        CFI EndBlock cfiCond108
        CFI EndBlock cfiCond109
        CFI EndBlock cfiCond110

        RSEG FARCODE:CODE:NOROOT(1)
?Subroutine64:
        CFI Block cfiCond111 Using cfiCommon0
        CFI NoFunction
        CFI Conditional ??CrossCallReturnLabel_306
        CFI CFA_SP SP+6
        CFI CFA_Y Y+70
        CFI Block cfiCond112 Using cfiCommon0
        CFI (cfiCond112) NoFunction
        CFI (cfiCond112) Conditional ??CrossCallReturnLabel_307
        CFI (cfiCond112) R24 Frame(CFA_Y, -2)
        CFI (cfiCond112) R25 Frame(CFA_Y, -1)
        CFI (cfiCond112) CFA_SP SP+6
        CFI (cfiCond112) CFA_Y Y+72
        CFI Block cfiPicker113 Using cfiCommon1
        CFI (cfiPicker113) NoFunction
        CFI (cfiPicker113) Picker
        LDI	R16, 91
        ST	Y, R16
        LDI	R16, 245
        STD	Y+1, R16
        LDI	R16, 41
        STD	Y+2, R16
        LDI	R16, 91
        STD	Y+3, R16
        LDI	R16, 186
        LDI	R17, 19
        STD	Y+4, R16
        STD	Y+5, R17
        LDI	R20, 255
        LDI	R21, 255
        LDI	R18, 8
        LDI	R19, 0
        MOVW	R17:R16, R29:R28
        CALL	crc_m1
        CFI EndBlock cfiCond111
        CFI EndBlock cfiCond112
        CFI EndBlock cfiPicker113
        REQUIRE ?Subroutine155
        ;		// Fall through to label ?Subroutine155

        RSEG FARCODE:CODE:NOROOT(1)
?Subroutine155:
        CFI Block cfiCond114 Using cfiCommon0
        CFI NoFunction
        CFI Conditional ??CrossCallReturnLabel_306
        CFI CFA_SP SP+6
        CFI CFA_Y Y+70
        CFI Block cfiCond115 Using cfiCommon0
        CFI (cfiCond115) NoFunction
        CFI (cfiCond115) Conditional ??CrossCallReturnLabel_307
        CFI (cfiCond115) R24 Frame(CFA_Y, -2)
        CFI (cfiCond115) R25 Frame(CFA_Y, -1)
        CFI (cfiCond115) CFA_SP SP+6
        CFI (cfiCond115) CFA_Y Y+72
        CFI Block cfiCond116 Using cfiCommon0
        CFI (cfiCond116) NoFunction
        CFI (cfiCond116) Conditional ??CrossCallReturnLabel_304
        CFI (cfiCond116) R24 Frame(CFA_Y, -9)
        CFI (cfiCond116) R25 Frame(CFA_Y, -8)
        CFI (cfiCond116) R26 Frame(CFA_Y, -7)
        CFI (cfiCond116) R27 Frame(CFA_Y, -6)
        CFI (cfiCond116) R4 Frame(CFA_Y, -5)
        CFI (cfiCond116) R5 Frame(CFA_Y, -4)
        CFI (cfiCond116) R6 Frame(CFA_Y, -3)
        CFI (cfiCond116) R7 Frame(CFA_Y, -2)
        CFI (cfiCond116) R8 Frame(CFA_Y, -1)
        CFI (cfiCond116) CFA_SP SP+6
        CFI (cfiCond116) CFA_Y Y+83
        CFI Block cfiCond117 Using cfiCommon0
        CFI (cfiCond117) NoFunction
        CFI (cfiCond117) Conditional ??CrossCallReturnLabel_305
        CFI (cfiCond117) R24 Frame(CFA_Y, -9)
        CFI (cfiCond117) R25 Frame(CFA_Y, -8)
        CFI (cfiCond117) R26 Frame(CFA_Y, -7)
        CFI (cfiCond117) R27 Frame(CFA_Y, -6)
        CFI (cfiCond117) R4 Frame(CFA_Y, -5)
        CFI (cfiCond117) R5 Frame(CFA_Y, -4)
        CFI (cfiCond117) R6 Frame(CFA_Y, -3)
        CFI (cfiCond117) R7 Frame(CFA_Y, -2)
        CFI (cfiCond117) R8 Frame(CFA_Y, -1)
        CFI (cfiCond117) CFA_SP SP+6
        CFI (cfiCond117) CFA_Y Y+83
        CFI Block cfiPicker118 Using cfiCommon1
        CFI (cfiPicker118) NoFunction
        CFI (cfiPicker118) Picker
        STD	Y+8, R16
        STD	Y+9, R17
        RET
        CFI EndBlock cfiCond114
        CFI EndBlock cfiCond115
        CFI EndBlock cfiCond116
        CFI EndBlock cfiCond117
        CFI EndBlock cfiPicker118

        RSEG FARCODE:CODE:NOROOT(1)
?Subroutine63:
        CFI Block cfiCond119 Using cfiCommon0
        CFI NoFunction
        CFI Conditional ??CrossCallReturnLabel_72
        CFI CFA_SP SP+6
        CFI CFA_Y Y+70
        CFI Block cfiCond120 Using cfiCommon0
        CFI (cfiCond120) NoFunction
        CFI (cfiCond120) Conditional ??CrossCallReturnLabel_73
        CFI (cfiCond120) R24 Frame(CFA_Y, -2)
        CFI (cfiCond120) R25 Frame(CFA_Y, -1)
        CFI (cfiCond120) CFA_SP SP+6
        CFI (cfiCond120) CFA_Y Y+72
        CFI Block cfiPicker121 Using cfiCommon1
        CFI (cfiPicker121) NoFunction
        CFI (cfiPicker121) Picker
        LDI	R16, 46
        ST	Y, R16
        STD	Y+1, R16
        STD	Y+2, R16
        STD	Y+3, R16
        LDI	R20, 255
        LDI	R21, 255
        LDI	R18, 4
        LDI	R19, 0
        MOVW	R17:R16, R29:R28
        CALL	crc_m1
        STD	Y+4, R16
        STD	Y+5, R17
        LDI	R23, 0
        LDI	R22, 0
        LDI	R20, 6
        LDI	R21, 0
        MOVW	R19:R18, R29:R28
        LDI	R16, 181
        RET
        CFI EndBlock cfiCond119
        CFI EndBlock cfiCond120
        CFI EndBlock cfiPicker121

        RSEG FARCODE:CODE:NOROOT(1)
?Subroutine170:
        CFI Block cfiCond122 Using cfiCommon0
        CFI NoFunction
        CFI Conditional ??CrossCallReturnLabel_411
        CFI R24 Frame(CFA_Y, -2)
        CFI R25 Frame(CFA_Y, -1)
        CFI CFA_SP SP+6
        CFI CFA_Y Y+72
        CFI Block cfiCond123 Using cfiCommon0
        CFI (cfiCond123) NoFunction
        CFI (cfiCond123) Conditional ??CrossCallReturnLabel_412
        CFI (cfiCond123) R24 Frame(CFA_Y, -2)
        CFI (cfiCond123) R25 Frame(CFA_Y, -1)
        CFI (cfiCond123) CFA_SP SP+6
        CFI (cfiCond123) CFA_Y Y+72
        CFI Block cfiCond124 Using cfiCommon0
        CFI (cfiCond124) NoFunction
        CFI (cfiCond124) Conditional ??CrossCallReturnLabel_409
        CFI (cfiCond124) R24 Frame(CFA_Y, -2)
        CFI (cfiCond124) R25 Frame(CFA_Y, -1)
        CFI (cfiCond124) CFA_SP SP+6
        CFI (cfiCond124) CFA_Y Y+72
        CFI Block cfiCond125 Using cfiCommon0
        CFI (cfiCond125) NoFunction
        CFI (cfiCond125) Conditional ??CrossCallReturnLabel_410
        CFI (cfiCond125) R24 Frame(CFA_Y, -2)
        CFI (cfiCond125) R25 Frame(CFA_Y, -1)
        CFI (cfiCond125) CFA_SP SP+6
        CFI (cfiCond125) CFA_Y Y+72
        CFI Block cfiPicker126 Using cfiCommon1
        CFI (cfiPicker126) NoFunction
        CFI (cfiPicker126) Picker
        CALL	RdFromFleshToArr
        RJMP	?Subroutine147
        CFI EndBlock cfiCond122
        CFI EndBlock cfiCond123
        CFI EndBlock cfiCond124
        CFI EndBlock cfiCond125
        CFI EndBlock cfiPicker126

        RSEG FARCODE:CODE:NOROOT(1)
?Subroutine60:
        CFI Block cfiCond127 Using cfiCommon0
        CFI NoFunction
        CFI Conditional ??CrossCallReturnLabel_433
        CFI CFA_SP SP+6
        CFI CFA_Y Y+70
        CFI Block cfiCond128 Using cfiCommon0
        CFI (cfiCond128) NoFunction
        CFI (cfiCond128) Conditional ??CrossCallReturnLabel_432
        CFI (cfiCond128) R24 Frame(CFA_Y, -2)
        CFI (cfiCond128) R25 Frame(CFA_Y, -1)
        CFI (cfiCond128) CFA_SP SP+6
        CFI (cfiCond128) CFA_Y Y+72
        CFI Block cfiPicker129 Using cfiCommon1
        CFI (cfiPicker129) NoFunction
        CFI (cfiPicker129) Picker
        CALL	burst_ds_r
        ST	Y, R16
        STD	Y+1, R17
        STD	Y+2, R18
        STD	Y+3, R19
        LDI	R19, 0
        STD	Y+4, R19
        STD	Y+5, R19
        STD	Y+6, R19
        STD	Y+7, R19
        STD	Y+8, R19
        STD	Y+9, R19
        STD	Y+10, R19
        STD	Y+11, R19
        LDI	R20, 255
        LDI	R21, 255
        LDI	R18, 12
        MOVW	R17:R16, R29:R28
        CALL	crc_m1
        STD	Y+12, R16
        STD	Y+13, R17
        LDI	R23, 0
        LDI	R22, 0
        LDI	R20, 14
        LDI	R21, 0
        MOVW	R19:R18, R29:R28
        LDI	R16, 254
        LDI	R17, 116
        RJMP	??Subroutine163_0
        CFI EndBlock cfiCond127
        CFI EndBlock cfiCond128
        CFI EndBlock cfiPicker129

        RSEG FARCODE:CODE:NOROOT(1)
?Subroutine55:
        CFI Block cfiCond130 Using cfiCommon0
        CFI NoFunction
        CFI Conditional ??CrossCallReturnLabel_68
        CFI CFA_SP SP+6
        CFI CFA_Y Y+70
        CFI Block cfiCond131 Using cfiCommon0
        CFI (cfiCond131) NoFunction
        CFI (cfiCond131) Conditional ??CrossCallReturnLabel_69
        CFI (cfiCond131) R24 Frame(CFA_Y, -2)
        CFI (cfiCond131) R25 Frame(CFA_Y, -1)
        CFI (cfiCond131) CFA_SP SP+6
        CFI (cfiCond131) CFA_Y Y+72
        CFI Block cfiPicker132 Using cfiCommon1
        CFI (cfiPicker132) NoFunction
        CFI (cfiPicker132) Picker
        LDI	R30, LOW(map_vers)
        LDI	R31, (map_vers) >> 8
        ADD	R30, R18
        ADC	R31, R17
        RET
        CFI EndBlock cfiCond130
        CFI EndBlock cfiCond131
        CFI EndBlock cfiPicker132

        RSEG FARCODE:CODE:NOROOT(1)
?Subroutine45:
        CFI Block cfiCond133 Using cfiCommon0
        CFI NoFunction
        CFI Conditional ??CrossCallReturnLabel_55
        CFI CFA_SP SP+6
        CFI CFA_Y Y+70
        CFI Block cfiCond134 Using cfiCommon0
        CFI (cfiCond134) NoFunction
        CFI (cfiCond134) Conditional ??CrossCallReturnLabel_56
        CFI (cfiCond134) R24 Frame(CFA_Y, -2)
        CFI (cfiCond134) R25 Frame(CFA_Y, -1)
        CFI (cfiCond134) CFA_SP SP+6
        CFI (cfiCond134) CFA_Y Y+72
        CFI Block cfiPicker135 Using cfiCommon1
        CFI (cfiPicker135) NoFunction
        CFI (cfiPicker135) Picker
        MOVW	R31:R30, R29:R28
        ADD	R30, R16
        ADC	R31, R17
        ST	Z, R17
        INC	R16
        MOVW	R31:R30, R29:R28
        ADD	R30, R16
        ADC	R31, R17
        ST	Z, R17
        INC	R16
        LDI	R17, 60
??Subroutine45_0:
        MOVW	R31:R30, R29:R28
        LDI	R19, 0
        ADD	R30, R16
        ADC	R31, R19
        ST	Z, R19
        INC	R16
        DEC	R17
        BRNE	??Subroutine45_0
        LDI	R20, 255
        LDI	R21, 255
        LDI	R18, 58
        MOVW	R17:R16, R29:R28
        CALL	crc_m1
        STD	Y+58, R16
        STD	Y+59, R17
        LDI	R23, 0
        LDI	R22, 0
        LDI	R20, 60
        LDI	R21, 0
        MOVW	R19:R18, R29:R28
        LDI	R16, 250
        RET
        CFI EndBlock cfiCond133
        CFI EndBlock cfiCond134
        CFI EndBlock cfiPicker135

        RSEG FARCODE:CODE:NOROOT(1)
?Subroutine44:
        CFI Block cfiCond136 Using cfiCommon0
        CFI NoFunction
        CFI Conditional ??CrossCallReturnLabel_53
        CFI CFA_SP SP+6
        CFI CFA_Y Y+70
        CFI Block cfiCond137 Using cfiCommon0
        CFI (cfiCond137) NoFunction
        CFI (cfiCond137) Conditional ??CrossCallReturnLabel_54
        CFI (cfiCond137) R24 Frame(CFA_Y, -2)
        CFI (cfiCond137) R25 Frame(CFA_Y, -1)
        CFI (cfiCond137) CFA_SP SP+6
        CFI (cfiCond137) CFA_Y Y+72
        CFI Block cfiPicker138 Using cfiCommon1
        CFI (cfiPicker138) NoFunction
        CFI (cfiPicker138) Picker
        MOVW	R31:R30, R29:R28
        ADD	R30, R16
        ADC	R31, R17
        ST	Z, R17
        INC	R16
        MOVW	R31:R30, R29:R28
        ADD	R30, R16
        ADC	R31, R17
        ST	Z, R17
        INC	R16
        LDI	R17, 60
??Subroutine44_0:
        MOVW	R31:R30, R29:R28
        LDI	R19, 0
        ADD	R30, R16
        ADC	R31, R19
        ST	Z, R19
        INC	R16
        DEC	R17
        BRNE	??Subroutine44_0
        LDI	R20, 255
        LDI	R21, 255
        LDI	R18, 58
        MOVW	R17:R16, R29:R28
        CALL	crc_m1
        STD	Y+58, R16
        STD	Y+59, R17
        LDI	R23, 0
        LDI	R22, 0
        LDI	R20, 60
        LDI	R21, 0
        MOVW	R19:R18, R29:R28
        LDI	R16, 80
        RET
        CFI EndBlock cfiCond136
        CFI EndBlock cfiCond137
        CFI EndBlock cfiPicker138

        RSEG FARCODE:CODE:NOROOT(1)
?Subroutine43:
        CFI Block cfiCond139 Using cfiCommon0
        CFI NoFunction
        CFI Conditional ??CrossCallReturnLabel_51
        CFI CFA_SP SP+6
        CFI CFA_Y Y+70
        CFI Block cfiCond140 Using cfiCommon0
        CFI (cfiCond140) NoFunction
        CFI (cfiCond140) Conditional ??CrossCallReturnLabel_52
        CFI (cfiCond140) R24 Frame(CFA_Y, -2)
        CFI (cfiCond140) R25 Frame(CFA_Y, -1)
        CFI (cfiCond140) CFA_SP SP+6
        CFI (cfiCond140) CFA_Y Y+72
        CFI Block cfiPicker141 Using cfiCommon1
        CFI (cfiPicker141) NoFunction
        CFI (cfiPicker141) Picker
        MOVW	R31:R30, R29:R28
        ADD	R30, R16
        ADC	R31, R17
        ST	Z, R17
        INC	R16
        MOVW	R31:R30, R29:R28
        ADD	R30, R16
        ADC	R31, R17
        ST	Z, R17
        INC	R16
        LDI	R17, 60
??Subroutine43_0:
        MOVW	R31:R30, R29:R28
        LDI	R19, 0
        ADD	R30, R16
        ADC	R31, R19
        ST	Z, R19
        INC	R16
        DEC	R17
        BRNE	??Subroutine43_0
        LDI	R20, 255
        LDI	R21, 255
        LDI	R18, 58
        MOVW	R17:R16, R29:R28
        CALL	crc_m1
        STD	Y+58, R16
        STD	Y+59, R17
        LDI	R23, 0
        LDI	R22, 0
        LDI	R20, 60
        LDI	R21, 0
        MOVW	R19:R18, R29:R28
        LDI	R16, 20
        RET
        CFI EndBlock cfiCond139
        CFI EndBlock cfiCond140
        CFI EndBlock cfiPicker141

        RSEG FARCODE:CODE:NOROOT(1)
?Subroutine42:
        CFI Block cfiCond142 Using cfiCommon0
        CFI NoFunction
        CFI Conditional ??CrossCallReturnLabel_437
        CFI CFA_SP SP+6
        CFI CFA_Y Y+70
        CFI Block cfiCond143 Using cfiCommon0
        CFI (cfiCond143) NoFunction
        CFI (cfiCond143) Conditional ??CrossCallReturnLabel_436
        CFI (cfiCond143) R24 Frame(CFA_Y, -2)
        CFI (cfiCond143) R25 Frame(CFA_Y, -1)
        CFI (cfiCond143) CFA_SP SP+6
        CFI (cfiCond143) CFA_Y Y+72
        CFI Block cfiPicker144 Using cfiCommon1
        CFI (cfiPicker144) NoFunction
        CFI (cfiPicker144) Picker
        MOVW	R31:R30, R29:R28
        ADD	R30, R16
        ADC	R31, R17
        ST	Z, R17
        INC	R16
        MOVW	R31:R30, R29:R28
        ADD	R30, R16
        ADC	R31, R17
        ST	Z, R17
        INC	R16
        LDI	R17, 60
??Subroutine42_0:
        MOVW	R31:R30, R29:R28
        LDI	R19, 0
        ADD	R30, R16
        ADC	R31, R19
        ST	Z, R19
        INC	R16
        DEC	R17
        BRNE	??Subroutine42_0
        LDI	R20, 255
        LDI	R21, 255
        LDI	R18, 58
        MOVW	R17:R16, R29:R28
        CALL	crc_m1
        STD	Y+58, R16
        STD	Y+59, R17
        LDI	R23, 0
        LDI	R22, 0
        LDI	R20, 60
        LDI	R21, 0
        MOVW	R19:R18, R29:R28
        LDI	R16, 114
        RJMP	?Subroutine163
        CFI EndBlock cfiCond142
        CFI EndBlock cfiCond143
        CFI EndBlock cfiPicker144

        RSEG FARCODE:CODE:NOROOT(1)
?Subroutine41:
        CFI Block cfiCond145 Using cfiCommon0
        CFI NoFunction
        CFI Conditional ??CrossCallReturnLabel_435
        CFI CFA_SP SP+6
        CFI CFA_Y Y+70
        CFI Block cfiCond146 Using cfiCommon0
        CFI (cfiCond146) NoFunction
        CFI (cfiCond146) Conditional ??CrossCallReturnLabel_434
        CFI (cfiCond146) R24 Frame(CFA_Y, -2)
        CFI (cfiCond146) R25 Frame(CFA_Y, -1)
        CFI (cfiCond146) CFA_SP SP+6
        CFI (cfiCond146) CFA_Y Y+72
        CFI Block cfiPicker147 Using cfiCommon1
        CFI (cfiPicker147) NoFunction
        CFI (cfiPicker147) Picker
        MOVW	R31:R30, R29:R28
        ADD	R30, R16
        ADC	R31, R17
        ST	Z, R17
        INC	R16
        MOVW	R31:R30, R29:R28
        ADD	R30, R16
        ADC	R31, R17
        ST	Z, R17
        INC	R16
        LDI	R17, 60
??Subroutine41_0:
        MOVW	R31:R30, R29:R28
        LDI	R19, 0
        ADD	R30, R16
        ADC	R31, R19
        ST	Z, R19
        INC	R16
        DEC	R17
        BRNE	??Subroutine41_0
        LDI	R20, 255
        LDI	R21, 255
        LDI	R18, 58
        MOVW	R17:R16, R29:R28
        CALL	crc_m1
        STD	Y+58, R16
        STD	Y+59, R17
        LDI	R23, 0
        LDI	R22, 0
        LDI	R20, 60
        LDI	R21, 0
        MOVW	R19:R18, R29:R28
        LDI	R16, 54
        RJMP	?Subroutine163
        CFI EndBlock cfiCond145
        CFI EndBlock cfiCond146
        CFI EndBlock cfiPicker147

        RSEG FARCODE:CODE:NOROOT(1)
?Subroutine24:
        CFI Block cfiCond148 Using cfiCommon0
        CFI NoFunction
        CFI Conditional ??CrossCallReturnLabel_431
        CFI CFA_SP SP+6
        CFI CFA_Y Y+70
        CFI Block cfiCond149 Using cfiCommon0
        CFI (cfiCond149) NoFunction
        CFI (cfiCond149) Conditional ??CrossCallReturnLabel_430
        CFI (cfiCond149) R24 Frame(CFA_Y, -2)
        CFI (cfiCond149) R25 Frame(CFA_Y, -1)
        CFI (cfiCond149) CFA_SP SP+6
        CFI (cfiCond149) CFA_Y Y+72
        CFI Block cfiPicker150 Using cfiCommon1
        CFI (cfiPicker150) NoFunction
        CFI (cfiPicker150) Picker
        LDI	R16, 46
        ST	Y, R16
        STD	Y+1, R16
        STD	Y+2, R16
        STD	Y+3, R16
        LDI	R20, 255
        LDI	R21, 255
        LDI	R18, 4
        LDI	R19, 0
        MOVW	R17:R16, R29:R28
        CALL	crc_m1
        STD	Y+4, R16
        STD	Y+5, R17
        LDI	R23, 0
        LDI	R22, 0
        LDI	R20, 6
        LDI	R21, 0
        MOVW	R19:R18, R29:R28
        LDI	R16, 175
        CFI EndBlock cfiCond148
        CFI EndBlock cfiCond149
        CFI EndBlock cfiPicker150
        REQUIRE ?Subroutine171
        ;		// Fall through to label ?Subroutine171

        RSEG FARCODE:CODE:NOROOT(1)
?Subroutine171:
        CFI Block cfiCond151 Using cfiCommon0
        CFI NoFunction
        CFI Conditional ??CrossCallReturnLabel_431
        CFI CFA_SP SP+6
        CFI CFA_Y Y+70
        CFI Block cfiCond152 Using cfiCommon0
        CFI (cfiCond152) NoFunction
        CFI (cfiCond152) Conditional ??CrossCallReturnLabel_430
        CFI (cfiCond152) R24 Frame(CFA_Y, -2)
        CFI (cfiCond152) R25 Frame(CFA_Y, -1)
        CFI (cfiCond152) CFA_SP SP+6
        CFI (cfiCond152) CFA_Y Y+72
        CFI Block cfiCond153 Using cfiCommon0
        CFI (cfiCond153) NoFunction
        CFI (cfiCond153) Conditional ??CrossCallReturnLabel_429
        CFI (cfiCond153) CFA_SP SP+6
        CFI (cfiCond153) CFA_Y Y+70
        CFI Block cfiCond154 Using cfiCommon0
        CFI (cfiCond154) NoFunction
        CFI (cfiCond154) Conditional ??CrossCallReturnLabel_428
        CFI (cfiCond154) CFA_SP SP+6
        CFI (cfiCond154) CFA_Y Y+70
        CFI Block cfiCond155 Using cfiCommon0
        CFI (cfiCond155) NoFunction
        CFI (cfiCond155) Conditional ??CrossCallReturnLabel_427
        CFI (cfiCond155) R24 Frame(CFA_Y, -2)
        CFI (cfiCond155) R25 Frame(CFA_Y, -1)
        CFI (cfiCond155) CFA_SP SP+6
        CFI (cfiCond155) CFA_Y Y+72
        CFI Block cfiCond156 Using cfiCommon0
        CFI (cfiCond156) NoFunction
        CFI (cfiCond156) Conditional ??CrossCallReturnLabel_426
        CFI (cfiCond156) R24 Frame(CFA_Y, -2)
        CFI (cfiCond156) R25 Frame(CFA_Y, -1)
        CFI (cfiCond156) CFA_SP SP+6
        CFI (cfiCond156) CFA_Y Y+72
        CFI Block cfiCond157 Using cfiCommon0
        CFI (cfiCond157) NoFunction
        CFI (cfiCond157) Conditional ??CrossCallReturnLabel_425
        CFI (cfiCond157) R24 Frame(CFA_Y, -2)
        CFI (cfiCond157) R25 Frame(CFA_Y, -1)
        CFI (cfiCond157) CFA_SP SP+6
        CFI (cfiCond157) CFA_Y Y+72
        CFI Block cfiCond158 Using cfiCommon0
        CFI (cfiCond158) NoFunction
        CFI (cfiCond158) Conditional ??CrossCallReturnLabel_424
        CFI (cfiCond158) R24 Frame(CFA_Y, -2)
        CFI (cfiCond158) R25 Frame(CFA_Y, -1)
        CFI (cfiCond158) CFA_SP SP+6
        CFI (cfiCond158) CFA_Y Y+72
        CFI Block cfiCond159 Using cfiCommon0
        CFI (cfiCond159) NoFunction
        CFI (cfiCond159) Conditional ??CrossCallReturnLabel_423
        CFI (cfiCond159) R24 Frame(CFA_Y, -2)
        CFI (cfiCond159) R25 Frame(CFA_Y, -1)
        CFI (cfiCond159) CFA_SP SP+6
        CFI (cfiCond159) CFA_Y Y+72
        CFI Block cfiCond160 Using cfiCommon0
        CFI (cfiCond160) NoFunction
        CFI (cfiCond160) Conditional ??CrossCallReturnLabel_422
        CFI (cfiCond160) R24 Frame(CFA_Y, -9)
        CFI (cfiCond160) R25 Frame(CFA_Y, -8)
        CFI (cfiCond160) R26 Frame(CFA_Y, -7)
        CFI (cfiCond160) R27 Frame(CFA_Y, -6)
        CFI (cfiCond160) R4 Frame(CFA_Y, -5)
        CFI (cfiCond160) R5 Frame(CFA_Y, -4)
        CFI (cfiCond160) R6 Frame(CFA_Y, -3)
        CFI (cfiCond160) R7 Frame(CFA_Y, -2)
        CFI (cfiCond160) R8 Frame(CFA_Y, -1)
        CFI (cfiCond160) CFA_SP SP+6
        CFI (cfiCond160) CFA_Y Y+83
        CFI Block cfiCond161 Using cfiCommon0
        CFI (cfiCond161) NoFunction
        CFI (cfiCond161) Conditional ??CrossCallReturnLabel_421
        CFI (cfiCond161) CFA_SP SP+6
        CFI (cfiCond161) CFA_Y Y+70
        CFI Block cfiCond162 Using cfiCommon0
        CFI (cfiCond162) NoFunction
        CFI (cfiCond162) Conditional ??CrossCallReturnLabel_420
        CFI (cfiCond162) R24 Frame(CFA_Y, -2)
        CFI (cfiCond162) R25 Frame(CFA_Y, -1)
        CFI (cfiCond162) CFA_SP SP+6
        CFI (cfiCond162) CFA_Y Y+72
        CFI Block cfiCond163 Using cfiCommon0
        CFI (cfiCond163) NoFunction
        CFI (cfiCond163) Conditional ??CrossCallReturnLabel_419
        CFI (cfiCond163) CFA_SP SP+6
        CFI (cfiCond163) CFA_Y Y+70
        CFI Block cfiCond164 Using cfiCommon0
        CFI (cfiCond164) NoFunction
        CFI (cfiCond164) Conditional ??CrossCallReturnLabel_418
        CFI (cfiCond164) R24 Frame(CFA_Y, -2)
        CFI (cfiCond164) R25 Frame(CFA_Y, -1)
        CFI (cfiCond164) CFA_SP SP+6
        CFI (cfiCond164) CFA_Y Y+72
        CFI Block cfiPicker165 Using cfiCommon1
        CFI (cfiPicker165) NoFunction
        CFI (cfiPicker165) Picker
        LDI	R17, 0
        RJMP	??Subroutine163_0
        CFI EndBlock cfiCond151
        CFI EndBlock cfiCond152
        CFI EndBlock cfiCond153
        CFI EndBlock cfiCond154
        CFI EndBlock cfiCond155
        CFI EndBlock cfiCond156
        CFI EndBlock cfiCond157
        CFI EndBlock cfiCond158
        CFI EndBlock cfiCond159
        CFI EndBlock cfiCond160
        CFI EndBlock cfiCond161
        CFI EndBlock cfiCond162
        CFI EndBlock cfiCond163
        CFI EndBlock cfiCond164
        CFI EndBlock cfiPicker165

        RSEG FARCODE:CODE:NOROOT(1)
?Subroutine163:
        CFI Block cfiCond166 Using cfiCommon0
        CFI NoFunction
        CFI Conditional ??CrossCallReturnLabel_437
        CFI CFA_SP SP+6
        CFI CFA_Y Y+70
        CFI Block cfiCond167 Using cfiCommon0
        CFI (cfiCond167) NoFunction
        CFI (cfiCond167) Conditional ??CrossCallReturnLabel_436
        CFI (cfiCond167) R24 Frame(CFA_Y, -2)
        CFI (cfiCond167) R25 Frame(CFA_Y, -1)
        CFI (cfiCond167) CFA_SP SP+6
        CFI (cfiCond167) CFA_Y Y+72
        CFI Block cfiCond168 Using cfiCommon0
        CFI (cfiCond168) NoFunction
        CFI (cfiCond168) Conditional ??CrossCallReturnLabel_435
        CFI (cfiCond168) CFA_SP SP+6
        CFI (cfiCond168) CFA_Y Y+70
        CFI Block cfiCond169 Using cfiCommon0
        CFI (cfiCond169) NoFunction
        CFI (cfiCond169) Conditional ??CrossCallReturnLabel_434
        CFI (cfiCond169) R24 Frame(CFA_Y, -2)
        CFI (cfiCond169) R25 Frame(CFA_Y, -1)
        CFI (cfiCond169) CFA_SP SP+6
        CFI (cfiCond169) CFA_Y Y+72
        CFI Block cfiPicker170 Using cfiCommon1
        CFI (cfiPicker170) NoFunction
        CFI (cfiPicker170) Picker
        LDI	R17, 1
        CFI Block cfiCond171 Using cfiCommon0
        CFI (cfiCond171) NoFunction
        CFI (cfiCond171) Conditional ??CrossCallReturnLabel_433
        CFI (cfiCond171) CFA_SP SP+6
        CFI (cfiCond171) CFA_Y Y+70
        CFI Block cfiCond172 Using cfiCommon0
        CFI (cfiCond172) NoFunction
        CFI (cfiCond172) Conditional ??CrossCallReturnLabel_432
        CFI (cfiCond172) R24 Frame(CFA_Y, -2)
        CFI (cfiCond172) R25 Frame(CFA_Y, -1)
        CFI (cfiCond172) CFA_SP SP+6
        CFI (cfiCond172) CFA_Y Y+72
        CFI Block cfiCond173 Using cfiCommon0
        CFI (cfiCond173) NoFunction
        CFI (cfiCond173) Conditional ??CrossCallReturnLabel_431
        CFI (cfiCond173) CFA_SP SP+6
        CFI (cfiCond173) CFA_Y Y+70
        CFI Block cfiCond174 Using cfiCommon0
        CFI (cfiCond174) NoFunction
        CFI (cfiCond174) Conditional ??CrossCallReturnLabel_430
        CFI (cfiCond174) R24 Frame(CFA_Y, -2)
        CFI (cfiCond174) R25 Frame(CFA_Y, -1)
        CFI (cfiCond174) CFA_SP SP+6
        CFI (cfiCond174) CFA_Y Y+72
        CFI Block cfiCond175 Using cfiCommon0
        CFI (cfiCond175) NoFunction
        CFI (cfiCond175) Conditional ??CrossCallReturnLabel_429
        CFI (cfiCond175) CFA_SP SP+6
        CFI (cfiCond175) CFA_Y Y+70
        CFI Block cfiCond176 Using cfiCommon0
        CFI (cfiCond176) NoFunction
        CFI (cfiCond176) Conditional ??CrossCallReturnLabel_428
        CFI (cfiCond176) CFA_SP SP+6
        CFI (cfiCond176) CFA_Y Y+70
        CFI Block cfiCond177 Using cfiCommon0
        CFI (cfiCond177) NoFunction
        CFI (cfiCond177) Conditional ??CrossCallReturnLabel_427
        CFI (cfiCond177) R24 Frame(CFA_Y, -2)
        CFI (cfiCond177) R25 Frame(CFA_Y, -1)
        CFI (cfiCond177) CFA_SP SP+6
        CFI (cfiCond177) CFA_Y Y+72
        CFI Block cfiCond178 Using cfiCommon0
        CFI (cfiCond178) NoFunction
        CFI (cfiCond178) Conditional ??CrossCallReturnLabel_426
        CFI (cfiCond178) R24 Frame(CFA_Y, -2)
        CFI (cfiCond178) R25 Frame(CFA_Y, -1)
        CFI (cfiCond178) CFA_SP SP+6
        CFI (cfiCond178) CFA_Y Y+72
        CFI Block cfiCond179 Using cfiCommon0
        CFI (cfiCond179) NoFunction
        CFI (cfiCond179) Conditional ??CrossCallReturnLabel_425
        CFI (cfiCond179) R24 Frame(CFA_Y, -2)
        CFI (cfiCond179) R25 Frame(CFA_Y, -1)
        CFI (cfiCond179) CFA_SP SP+6
        CFI (cfiCond179) CFA_Y Y+72
        CFI Block cfiCond180 Using cfiCommon0
        CFI (cfiCond180) NoFunction
        CFI (cfiCond180) Conditional ??CrossCallReturnLabel_424
        CFI (cfiCond180) R24 Frame(CFA_Y, -2)
        CFI (cfiCond180) R25 Frame(CFA_Y, -1)
        CFI (cfiCond180) CFA_SP SP+6
        CFI (cfiCond180) CFA_Y Y+72
        CFI Block cfiCond181 Using cfiCommon0
        CFI (cfiCond181) NoFunction
        CFI (cfiCond181) Conditional ??CrossCallReturnLabel_423
        CFI (cfiCond181) R24 Frame(CFA_Y, -2)
        CFI (cfiCond181) R25 Frame(CFA_Y, -1)
        CFI (cfiCond181) CFA_SP SP+6
        CFI (cfiCond181) CFA_Y Y+72
        CFI Block cfiCond182 Using cfiCommon0
        CFI (cfiCond182) NoFunction
        CFI (cfiCond182) Conditional ??CrossCallReturnLabel_422
        CFI (cfiCond182) R24 Frame(CFA_Y, -9)
        CFI (cfiCond182) R25 Frame(CFA_Y, -8)
        CFI (cfiCond182) R26 Frame(CFA_Y, -7)
        CFI (cfiCond182) R27 Frame(CFA_Y, -6)
        CFI (cfiCond182) R4 Frame(CFA_Y, -5)
        CFI (cfiCond182) R5 Frame(CFA_Y, -4)
        CFI (cfiCond182) R6 Frame(CFA_Y, -3)
        CFI (cfiCond182) R7 Frame(CFA_Y, -2)
        CFI (cfiCond182) R8 Frame(CFA_Y, -1)
        CFI (cfiCond182) CFA_SP SP+6
        CFI (cfiCond182) CFA_Y Y+83
        CFI Block cfiCond183 Using cfiCommon0
        CFI (cfiCond183) NoFunction
        CFI (cfiCond183) Conditional ??CrossCallReturnLabel_421
        CFI (cfiCond183) CFA_SP SP+6
        CFI (cfiCond183) CFA_Y Y+70
        CFI Block cfiCond184 Using cfiCommon0
        CFI (cfiCond184) NoFunction
        CFI (cfiCond184) Conditional ??CrossCallReturnLabel_420
        CFI (cfiCond184) R24 Frame(CFA_Y, -2)
        CFI (cfiCond184) R25 Frame(CFA_Y, -1)
        CFI (cfiCond184) CFA_SP SP+6
        CFI (cfiCond184) CFA_Y Y+72
        CFI Block cfiCond185 Using cfiCommon0
        CFI (cfiCond185) NoFunction
        CFI (cfiCond185) Conditional ??CrossCallReturnLabel_419
        CFI (cfiCond185) CFA_SP SP+6
        CFI (cfiCond185) CFA_Y Y+70
        CFI Block cfiCond186 Using cfiCommon0
        CFI (cfiCond186) NoFunction
        CFI (cfiCond186) Conditional ??CrossCallReturnLabel_418
        CFI (cfiCond186) R24 Frame(CFA_Y, -2)
        CFI (cfiCond186) R25 Frame(CFA_Y, -1)
        CFI (cfiCond186) CFA_SP SP+6
        CFI (cfiCond186) CFA_Y Y+72
        CFI Block cfiCond187 Using cfiCommon0
        CFI (cfiCond187) NoFunction
        CFI (cfiCond187) Conditional ??CrossCallReturnLabel_417
        CFI (cfiCond187) CFA_SP SP+6
        CFI Block cfiCond188 Using cfiCommon0
        CFI (cfiCond188) NoFunction
        CFI (cfiCond188) Conditional ??CrossCallReturnLabel_416
        CFI (cfiCond188) R24 Frame(CFA_Y, -9)
        CFI (cfiCond188) R25 Frame(CFA_Y, -8)
        CFI (cfiCond188) R26 Frame(CFA_Y, -7)
        CFI (cfiCond188) R27 Frame(CFA_Y, -6)
        CFI (cfiCond188) R4 Frame(CFA_Y, -5)
        CFI (cfiCond188) R5 Frame(CFA_Y, -4)
        CFI (cfiCond188) R6 Frame(CFA_Y, -3)
        CFI (cfiCond188) R7 Frame(CFA_Y, -2)
        CFI (cfiCond188) R8 Frame(CFA_Y, -1)
        CFI (cfiCond188) CFA_SP SP+6
        CFI (cfiCond188) CFA_Y Y+83
        CFI Block cfiCond189 Using cfiCommon0
        CFI (cfiCond189) NoFunction
        CFI (cfiCond189) Conditional ??CrossCallReturnLabel_415
        CFI (cfiCond189) R24 Frame(CFA_Y, -9)
        CFI (cfiCond189) R25 Frame(CFA_Y, -8)
        CFI (cfiCond189) R26 Frame(CFA_Y, -7)
        CFI (cfiCond189) R27 Frame(CFA_Y, -6)
        CFI (cfiCond189) R4 Frame(CFA_Y, -5)
        CFI (cfiCond189) R5 Frame(CFA_Y, -4)
        CFI (cfiCond189) R6 Frame(CFA_Y, -3)
        CFI (cfiCond189) R7 Frame(CFA_Y, -2)
        CFI (cfiCond189) R8 Frame(CFA_Y, -1)
        CFI (cfiCond189) CFA_SP SP+6
        CFI (cfiCond189) CFA_Y Y+83
        CFI Block cfiCond190 Using cfiCommon0
        CFI (cfiCond190) NoFunction
        CFI (cfiCond190) Conditional ??CrossCallReturnLabel_414
        CFI (cfiCond190) R24 Frame(CFA_Y, -9)
        CFI (cfiCond190) R25 Frame(CFA_Y, -8)
        CFI (cfiCond190) R26 Frame(CFA_Y, -7)
        CFI (cfiCond190) R27 Frame(CFA_Y, -6)
        CFI (cfiCond190) R4 Frame(CFA_Y, -5)
        CFI (cfiCond190) R5 Frame(CFA_Y, -4)
        CFI (cfiCond190) R6 Frame(CFA_Y, -3)
        CFI (cfiCond190) R7 Frame(CFA_Y, -2)
        CFI (cfiCond190) R8 Frame(CFA_Y, -1)
        CFI (cfiCond190) CFA_SP SP+6
        CFI (cfiCond190) CFA_Y Y+83
??Subroutine163_0:
        JMP	WrArrayToFlesh
        CFI EndBlock cfiCond166
        CFI EndBlock cfiCond167
        CFI EndBlock cfiCond168
        CFI EndBlock cfiCond169
        CFI EndBlock cfiPicker170
        CFI EndBlock cfiCond171
        CFI EndBlock cfiCond172
        CFI EndBlock cfiCond173
        CFI EndBlock cfiCond174
        CFI EndBlock cfiCond175
        CFI EndBlock cfiCond176
        CFI EndBlock cfiCond177
        CFI EndBlock cfiCond178
        CFI EndBlock cfiCond179
        CFI EndBlock cfiCond180
        CFI EndBlock cfiCond181
        CFI EndBlock cfiCond182
        CFI EndBlock cfiCond183
        CFI EndBlock cfiCond184
        CFI EndBlock cfiCond185
        CFI EndBlock cfiCond186
        CFI EndBlock cfiCond187
        CFI EndBlock cfiCond188
        CFI EndBlock cfiCond189
        CFI EndBlock cfiCond190

        RSEG FARCODE:CODE:NOROOT(1)
?Subroutine21:
        CFI Block cfiCond191 Using cfiCommon0
        CFI NoFunction
        CFI Conditional ??CrossCallReturnLabel_29
        CFI CFA_SP SP+6
        CFI CFA_Y Y+70
        CFI Block cfiCond192 Using cfiCommon0
        CFI (cfiCond192) NoFunction
        CFI (cfiCond192) Conditional ??CrossCallReturnLabel_30
        CFI (cfiCond192) R24 Frame(CFA_Y, -2)
        CFI (cfiCond192) R25 Frame(CFA_Y, -1)
        CFI (cfiCond192) CFA_SP SP+6
        CFI (cfiCond192) CFA_Y Y+72
        CFI Block cfiPicker193 Using cfiCommon1
        CFI (cfiPicker193) NoFunction
        CFI (cfiPicker193) Picker
        LDI	R30, LOW((map_vers + 46))
        LDI	R31, HIGH((map_vers + 46))
        LDI	R19, 0
        ADD	R30, R18
        ADC	R31, R19
        LPM	R19, Z
        MOVW	R31:R30, R29:R28
        LDI	R17, 0
        ADD	R30, R16
        ADC	R31, R17
        ST	Z, R19
        INC	R16
        INC	R18
        CPI	R18, 8
        RET
        CFI EndBlock cfiCond191
        CFI EndBlock cfiCond192
        CFI EndBlock cfiPicker193

        RSEG FARCODE:CODE:NOROOT(1)
?Subroutine17:
        CFI Block cfiCond194 Using cfiCommon0
        CFI NoFunction
        CFI Conditional ??CrossCallReturnLabel_405
        CFI R24 Frame(CFA_Y, -2)
        CFI R25 Frame(CFA_Y, -1)
        CFI CFA_SP SP+6
        CFI CFA_Y Y+72
        CFI Block cfiCond195 Using cfiCommon0
        CFI (cfiCond195) NoFunction
        CFI (cfiCond195) Conditional ??CrossCallReturnLabel_406
        CFI (cfiCond195) R24 Frame(CFA_Y, -2)
        CFI (cfiCond195) R25 Frame(CFA_Y, -1)
        CFI (cfiCond195) CFA_SP SP+6
        CFI (cfiCond195) CFA_Y Y+72
        CFI Block cfiPicker196 Using cfiCommon1
        CFI (cfiPicker196) NoFunction
        CFI (cfiPicker196) Picker
        LDI	R17, 0
        CALL	RdFromFleshToArr
        LDD	R24, Y+4
        LDD	R25, Y+5
        LDI	R20, 255
        LDI	R21, 255
        LDI	R18, 4
        RJMP	??Subroutine147_0
        CFI EndBlock cfiCond194
        CFI EndBlock cfiCond195
        CFI EndBlock cfiPicker196

        RSEG FARCODE:CODE:NOROOT(1)
?Subroutine16:
        CFI Block cfiCond197 Using cfiCommon0
        CFI NoFunction
        CFI Conditional ??CrossCallReturnLabel_409
        CFI R24 Frame(CFA_Y, -2)
        CFI R25 Frame(CFA_Y, -1)
        CFI CFA_SP SP+6
        CFI CFA_Y Y+72
        CFI Block cfiCond198 Using cfiCommon0
        CFI (cfiCond198) NoFunction
        CFI (cfiCond198) Conditional ??CrossCallReturnLabel_410
        CFI (cfiCond198) R24 Frame(CFA_Y, -2)
        CFI (cfiCond198) R25 Frame(CFA_Y, -1)
        CFI (cfiCond198) CFA_SP SP+6
        CFI (cfiCond198) CFA_Y Y+72
        CFI Block cfiPicker199 Using cfiCommon1
        CFI (cfiPicker199) NoFunction
        CFI (cfiPicker199) Picker
        LDI	R17, 0
        RJMP	?Subroutine170
        CFI EndBlock cfiCond197
        CFI EndBlock cfiCond198
        CFI EndBlock cfiPicker199

        RSEG FARCODE:CODE:NOROOT(1)
?Subroutine14:
        CFI Block cfiCond200 Using cfiCommon0
        CFI NoFunction
        CFI Conditional ??CrossCallReturnLabel_8
        CFI CFA_SP SP+6
        CFI CFA_Y Y+70
        CFI Block cfiCond201 Using cfiCommon0
        CFI (cfiCond201) NoFunction
        CFI (cfiCond201) Conditional ??CrossCallReturnLabel_9
        CFI (cfiCond201) R24 Frame(CFA_Y, -2)
        CFI (cfiCond201) R25 Frame(CFA_Y, -1)
        CFI (cfiCond201) CFA_SP SP+6
        CFI (cfiCond201) CFA_Y Y+72
        CFI Block cfiPicker202 Using cfiCommon1
        CFI (cfiPicker202) NoFunction
        CFI (cfiPicker202) Picker
        LDI	R30, LOW(def_apnr)
        LDI	R31, (def_apnr) >> 8
        CFI Block cfiCond203 Using cfiCommon0
        CFI (cfiCond203) NoFunction
        CFI (cfiCond203) Conditional ??CrossCallReturnLabel_10
        CFI (cfiCond203) CFA_SP SP+6
        CFI (cfiCond203) CFA_Y Y+70
        CFI Block cfiCond204 Using cfiCommon0
        CFI (cfiCond204) NoFunction
        CFI (cfiCond204) Conditional ??CrossCallReturnLabel_11
        CFI (cfiCond204) R24 Frame(CFA_Y, -2)
        CFI (cfiCond204) R25 Frame(CFA_Y, -1)
        CFI (cfiCond204) CFA_SP SP+6
        CFI (cfiCond204) CFA_Y Y+72
??Subroutine14_0:
        LDI	R19, 0
        ADD	R30, R18
        ADC	R31, R19
        LPM	R19, Z
        MOVW	R31:R30, R29:R28
        LDI	R17, 0
        ADD	R30, R16
        ADC	R31, R17
        ST	Z, R19
        INC	R16
        INC	R18
        CPI	R18, 19
        RET
        CFI EndBlock cfiCond200
        CFI EndBlock cfiCond201
        CFI EndBlock cfiPicker202
        CFI EndBlock cfiCond203
        CFI EndBlock cfiCond204

        RSEG FARCODE:CODE:NOROOT(1)
?Subroutine13:
        CFI Block cfiCond205 Using cfiCommon0
        CFI NoFunction
        CFI Conditional ??CrossCallReturnLabel_4
        CFI CFA_SP SP+6
        CFI CFA_Y Y+70
        CFI Block cfiCond206 Using cfiCommon0
        CFI (cfiCond206) NoFunction
        CFI (cfiCond206) Conditional ??CrossCallReturnLabel_5
        CFI (cfiCond206) R24 Frame(CFA_Y, -2)
        CFI (cfiCond206) R25 Frame(CFA_Y, -1)
        CFI (cfiCond206) CFA_SP SP+6
        CFI (cfiCond206) CFA_Y Y+72
        CFI Block cfiPicker207 Using cfiCommon1
        CFI (cfiPicker207) NoFunction
        CFI (cfiPicker207) Picker
        LDI	R30, LOW((map_vers + 14))
        LDI	R31, HIGH((map_vers + 14))
        CFI Block cfiCond208 Using cfiCommon0
        CFI (cfiCond208) NoFunction
        CFI (cfiCond208) Conditional ??CrossCallReturnLabel_6
        CFI (cfiCond208) CFA_SP SP+6
        CFI (cfiCond208) CFA_Y Y+70
        CFI Block cfiCond209 Using cfiCommon0
        CFI (cfiCond209) NoFunction
        CFI (cfiCond209) Conditional ??CrossCallReturnLabel_7
        CFI (cfiCond209) R24 Frame(CFA_Y, -2)
        CFI (cfiCond209) R25 Frame(CFA_Y, -1)
        CFI (cfiCond209) CFA_SP SP+6
        CFI (cfiCond209) CFA_Y Y+72
??Subroutine13_0:
        LDI	R19, 0
        ADD	R30, R18
        ADC	R31, R19
        LPM	R19, Z
        MOVW	R31:R30, R29:R28
        LDI	R17, 0
        ADD	R30, R16
        ADC	R31, R17
        ST	Z, R19
        INC	R16
        INC	R18
        CPI	R18, 15
        RET
        CFI EndBlock cfiCond205
        CFI EndBlock cfiCond206
        CFI EndBlock cfiPicker207
        CFI EndBlock cfiCond208
        CFI EndBlock cfiCond209

        RSEG FARCODE:CODE:NOROOT(1)
?Subroutine8:
        CFI Block cfiCond210 Using cfiCommon0
        CFI NoFunction
        CFI Conditional ??CrossCallReturnLabel_421
        CFI CFA_SP SP+6
        CFI CFA_Y Y+70
        CFI Block cfiCond211 Using cfiCommon0
        CFI (cfiCond211) NoFunction
        CFI (cfiCond211) Conditional ??CrossCallReturnLabel_420
        CFI (cfiCond211) R24 Frame(CFA_Y, -2)
        CFI (cfiCond211) R25 Frame(CFA_Y, -1)
        CFI (cfiCond211) CFA_SP SP+6
        CFI (cfiCond211) CFA_Y Y+72
        CFI Block cfiPicker212 Using cfiCommon1
        CFI (cfiPicker212) NoFunction
        CFI (cfiPicker212) Picker
        STD	Y+1, R16
        STD	Y+2, R16
        LDI	R16, 30
        LDI	R17, 0
        STD	Y+3, R16
        STD	Y+4, R17
        LDI	R16, 10
        STD	Y+5, R16
        STD	Y+6, R17
        LDI	R16, 1
        STD	Y+7, R16
        STD	Y+8, R16
        LDI	R20, 255
        LDI	R21, 255
        LDI	R18, 9
        LDI	R19, 0
        MOVW	R17:R16, R29:R28
        CALL	crc_m1
        STD	Y+9, R16
        STD	Y+10, R17
        LDI	R23, 0
        LDI	R22, 0
        LDI	R20, 11
        LDI	R21, 0
        MOVW	R19:R18, R29:R28
        LDI	R16, 164
        RJMP	?Subroutine171
        CFI EndBlock cfiCond210
        CFI EndBlock cfiCond211
        CFI EndBlock cfiPicker212

        RSEG FARCODE:CODE:NOROOT(1)
?Subroutine7:
        CFI Block cfiCond213 Using cfiCommon0
        CFI NoFunction
        CFI Conditional ??CrossCallReturnLabel_419
        CFI CFA_SP SP+6
        CFI CFA_Y Y+70
        CFI Block cfiCond214 Using cfiCommon0
        CFI (cfiCond214) NoFunction
        CFI (cfiCond214) Conditional ??CrossCallReturnLabel_418
        CFI (cfiCond214) R24 Frame(CFA_Y, -2)
        CFI (cfiCond214) R25 Frame(CFA_Y, -1)
        CFI (cfiCond214) CFA_SP SP+6
        CFI (cfiCond214) CFA_Y Y+72
        CFI Block cfiPicker215 Using cfiCommon1
        CFI (cfiPicker215) NoFunction
        CFI (cfiPicker215) Picker
        LDI	R16, 50
        LDI	R17, 0
        ST	Y, R16
        STD	Y+1, R17
        LDI	R16, 45
        STD	Y+2, R16
        STD	Y+3, R17
        LDI	R16, 62
        STD	Y+4, R16
        STD	Y+5, R17
        STD	Y+6, R17
        STD	Y+7, R17
        LDI	R16, 60
        STD	Y+8, R16
        STD	Y+9, R17
        LDI	R16, 45
        STD	Y+10, R16
        STD	Y+11, R17
        LDI	R20, 255
        LDI	R21, 255
        LDI	R18, 12
        LDI	R19, 0
        MOVW	R17:R16, R29:R28
        CALL	crc_m1
        STD	Y+12, R16
        STD	Y+13, R17
        LDI	R23, 0
        LDI	R22, 0
        LDI	R20, 14
        LDI	R21, 0
        MOVW	R19:R18, R29:R28
        LDI	R16, 150
        RJMP	?Subroutine171
        CFI EndBlock cfiCond213
        CFI EndBlock cfiCond214
        CFI EndBlock cfiPicker215

        RSEG FARCODE:CODE:NOROOT(1)
load_par_first:
        CFI Block cfiBlock216 Using cfiCommon0
        CFI Function load_par_first
        FUNCALL load_par_first, WrArrayToFlesh
        LOCFRAME RSTACK, 3, STACK
        LDI	R18, 0
        LDI	R19, 0
        MOVW	R21:R20, R19:R18
        CALL	__eeget8_16
        CPI	R16, 255
        BRNE	??CrossCallReturnLabel_398
        WDR
        RCALL	?Subroutine75
??CrossCallReturnLabel_84:
        RCALL	?Subroutine97
??CrossCallReturnLabel_417:
        WDR
        LDI	R16, 0
        LDI	R20, 0
        RCALL	?Subroutine169
??CrossCallReturnLabel_398:
        RCALL	?Subroutine79
??CrossCallReturnLabel_92:
        CPI	R16, 5
        BRCS	??CrossCallReturnLabel_400
        CALL	?Subroutine4
??CrossCallReturnLabel_400:
        RCALL	?Subroutine79
??CrossCallReturnLabel_93:
        STS	Regim, R16
        RET
        CFI EndBlock cfiBlock216

        RSEG FARCODE:CODE:NOROOT(1)
?Subroutine97:
        CFI Block cfiCond217 Using cfiCommon0
        CFI NoFunction
        CFI Conditional ??CrossCallReturnLabel_417
        CFI CFA_SP SP+6
        CFI Block cfiCond218 Using cfiCommon0
        CFI (cfiCond218) NoFunction
        CFI (cfiCond218) Conditional ??CrossCallReturnLabel_416
        CFI (cfiCond218) R24 Frame(CFA_Y, -9)
        CFI (cfiCond218) R25 Frame(CFA_Y, -8)
        CFI (cfiCond218) R26 Frame(CFA_Y, -7)
        CFI (cfiCond218) R27 Frame(CFA_Y, -6)
        CFI (cfiCond218) R4 Frame(CFA_Y, -5)
        CFI (cfiCond218) R5 Frame(CFA_Y, -4)
        CFI (cfiCond218) R6 Frame(CFA_Y, -3)
        CFI (cfiCond218) R7 Frame(CFA_Y, -2)
        CFI (cfiCond218) R8 Frame(CFA_Y, -1)
        CFI (cfiCond218) CFA_SP SP+6
        CFI (cfiCond218) CFA_Y Y+83
        CFI Block cfiPicker219 Using cfiCommon1
        CFI (cfiPicker219) NoFunction
        CFI (cfiPicker219) Picker
        LDI	R16, 244
        LDI	R17, 1
        RJMP	??Subroutine163_0
        CFI EndBlock cfiCond217
        CFI EndBlock cfiCond218
        CFI EndBlock cfiPicker219

        RSEG FARCODE:CODE:NOROOT(1)
check_keys:
        CFI Block cfiBlock220 Using cfiCommon0
        CFI Function check_keys
        FUNCALL check_keys, RdFromFleshToArr
        LOCFRAME CSTACK, 4, STACK
        LOCFRAME RSTACK, 3, STACK
        FUNCALL check_keys, crc_m1
        LOCFRAME CSTACK, 4, STACK
        LOCFRAME RSTACK, 3, STACK
        CALL	?Subroutine109
        CFI R24 Frame(CFA_Y, -4)
        CFI R25 Frame(CFA_Y, -3)
        CFI R26 Frame(CFA_Y, -2)
        CFI R27 Frame(CFA_Y, -1)
        CFI CFA_Y Y+4
??CrossCallReturnLabel_130:
        LDI	R26, LOW(keys)
        LDI	R27, (keys) >> 8
        LDI	R20, 10
        LDI	R21, 0
        MOVW	R19:R18, R27:R26
        RCALL	?Subroutine110
??CrossCallReturnLabel_134:
        RCALL	?Subroutine168
??CrossCallReturnLabel_393:
        ADIW	R27:R26, 8
        LD	R24, X+
        LD	R25, X
        SBIW	R27:R26, 9
        RCALL	?Subroutine68
??CrossCallReturnLabel_77:
        MOVW	R17:R16, R27:R26
        RCALL	??Subroutine147_1
??CrossCallReturnLabel_404:
        BREQ	??check_keys_0
        LDI	R16, 1
        RJMP	??check_keys_1
??check_keys_0:
        LDI	R16, 0
??check_keys_1:
        JMP	?Subroutine164
        CFI EndBlock cfiBlock220

        RSEG FARCODE:CODE:NOROOT(1)
?Subroutine68:
        CFI Block cfiCond221 Using cfiCommon0
        CFI NoFunction
        CFI Conditional ??CrossCallReturnLabel_76
        CFI R24 Frame(CFA_Y, -2)
        CFI R25 Frame(CFA_Y, -1)
        CFI CFA_SP SP+6
        CFI CFA_Y Y+72
        CFI Block cfiCond222 Using cfiCommon0
        CFI (cfiCond222) NoFunction
        CFI (cfiCond222) Conditional ??CrossCallReturnLabel_77
        CFI (cfiCond222) R24 Frame(CFA_Y, -4)
        CFI (cfiCond222) R25 Frame(CFA_Y, -3)
        CFI (cfiCond222) R26 Frame(CFA_Y, -2)
        CFI (cfiCond222) R27 Frame(CFA_Y, -1)
        CFI (cfiCond222) CFA_SP SP+6
        CFI (cfiCond222) CFA_Y Y+4
        CFI Block cfiPicker223 Using cfiCommon1
        CFI (cfiPicker223) NoFunction
        CFI (cfiPicker223) Picker
        LDI	R20, 255
        LDI	R21, 255
        LDI	R18, 8
        LDI	R19, 0
        RET
        CFI EndBlock cfiCond221
        CFI EndBlock cfiCond222
        CFI EndBlock cfiPicker223

        RSEG FARCODE:CODE:NOROOT(1)
mov_massiv:
        CFI Block cfiBlock224 Using cfiCommon0
        CFI Function mov_massiv
        FUNCALL mov_massiv, s_port
        LOCFRAME CSTACK, 4, STACK
        LOCFRAME RSTACK, 3, STACK
        CALL	?Subroutine109
        CFI R24 Frame(CFA_Y, -4)
        CFI R25 Frame(CFA_Y, -3)
        CFI R26 Frame(CFA_Y, -2)
        CFI R27 Frame(CFA_Y, -1)
        CFI CFA_Y Y+4
??CrossCallReturnLabel_131:
        MOV	R24, R16
        MOVW	R27:R26, R19:R18
        RJMP	??CrossCallReturnLabel_507
??mov_massiv_0:
        LD	R16, X+
        RCALL	?Subroutine173
??CrossCallReturnLabel_507:
        MOV	R16, R24
        DEC	R24
        TST	R16
        BRNE	??mov_massiv_0
        JMP	?Subroutine164
        CFI EndBlock cfiBlock224

        RSEG FARCODE:CODE:NOROOT(1)
//  938  void read_menu(unsigned char index_menu)
read_menu:
        CFI Block cfiBlock225 Using cfiCommon0
        CFI Function read_menu
//  939      {
        FUNCALL read_menu, memset
        LOCFRAME CSTACK, 88, STACK
        LOCFRAME RSTACK, 3, STACK
        FUNCALL read_menu, mov_lf
        LOCFRAME CSTACK, 88, STACK
        LOCFRAME RSTACK, 3, STACK
        FUNCALL read_menu, mov_s
        LOCFRAME CSTACK, 88, STACK
        LOCFRAME RSTACK, 3, STACK
        FUNCALL read_menu, temp_to_grad
        LOCFRAME CSTACK, 88, STACK
        LOCFRAME RSTACK, 3, STACK
        FUNCALL read_menu, sprintf
        LOCFRAME CSTACK, 90, STACK
        LOCFRAME RSTACK, 3, STACK
        FUNCALL read_menu, strlen
        LOCFRAME CSTACK, 88, STACK
        LOCFRAME RSTACK, 3, STACK
        FUNCALL read_menu, mov_massiv
        LOCFRAME CSTACK, 88, STACK
        LOCFRAME RSTACK, 3, STACK
        FUNCALL read_menu, s_port
        LOCFRAME CSTACK, 88, STACK
        LOCFRAME RSTACK, 3, STACK
        FUNCALL read_menu, s_port
        LOCFRAME CSTACK, 88, STACK
        LOCFRAME RSTACK, 3, STACK
        FUNCALL read_menu, s_port
        LOCFRAME CSTACK, 88, STACK
        LOCFRAME RSTACK, 3, STACK
        FUNCALL read_menu, s_port
        LOCFRAME CSTACK, 88, STACK
        LOCFRAME RSTACK, 3, STACK
        FUNCALL read_menu, s_port
        LOCFRAME CSTACK, 88, STACK
        LOCFRAME RSTACK, 3, STACK
        FUNCALL read_menu, sprintf
        LOCFRAME CSTACK, 90, STACK
        LOCFRAME RSTACK, 3, STACK
        FUNCALL read_menu, strlen
        LOCFRAME CSTACK, 88, STACK
        LOCFRAME RSTACK, 3, STACK
        FUNCALL read_menu, mov_massiv
        LOCFRAME CSTACK, 88, STACK
        LOCFRAME RSTACK, 3, STACK
        FUNCALL read_menu, mov_lf
        LOCFRAME CSTACK, 88, STACK
        LOCFRAME RSTACK, 3, STACK
        FUNCALL read_menu, s_port
        LOCFRAME CSTACK, 88, STACK
        LOCFRAME RSTACK, 3, STACK
        FUNCALL read_menu, s_port
        LOCFRAME CSTACK, 88, STACK
        LOCFRAME RSTACK, 3, STACK
        FUNCALL read_menu, mov_s
        LOCFRAME CSTACK, 88, STACK
        LOCFRAME RSTACK, 3, STACK
        FUNCALL read_menu, mov_lf
        LOCFRAME CSTACK, 88, STACK
        LOCFRAME RSTACK, 3, STACK
        FUNCALL read_menu, s_port
        LOCFRAME CSTACK, 88, STACK
        LOCFRAME RSTACK, 3, STACK
        FUNCALL read_menu, s_port
        LOCFRAME CSTACK, 88, STACK
        LOCFRAME RSTACK, 3, STACK
        FUNCALL read_menu, mov_s
        LOCFRAME CSTACK, 88, STACK
        LOCFRAME RSTACK, 3, STACK
        FUNCALL read_menu, mov_lf
        LOCFRAME CSTACK, 88, STACK
        LOCFRAME RSTACK, 3, STACK
        FUNCALL read_menu, s_port
        LOCFRAME CSTACK, 88, STACK
        LOCFRAME RSTACK, 3, STACK
        FUNCALL read_menu, s_port
        LOCFRAME CSTACK, 88, STACK
        LOCFRAME RSTACK, 3, STACK
        FUNCALL read_menu, mov_s
        LOCFRAME CSTACK, 88, STACK
        LOCFRAME RSTACK, 3, STACK
        FUNCALL read_menu, RdFromFleshToArr
        LOCFRAME CSTACK, 88, STACK
        LOCFRAME RSTACK, 3, STACK
        FUNCALL read_menu, mov_lf
        LOCFRAME CSTACK, 88, STACK
        LOCFRAME RSTACK, 3, STACK
        FUNCALL read_menu, mov_s
        LOCFRAME CSTACK, 88, STACK
        LOCFRAME RSTACK, 3, STACK
        FUNCALL read_menu, s_port
        LOCFRAME CSTACK, 88, STACK
        LOCFRAME RSTACK, 3, STACK
        FUNCALL read_menu, s_port
        LOCFRAME CSTACK, 88, STACK
        LOCFRAME RSTACK, 3, STACK
        FUNCALL read_menu, s_port
        LOCFRAME CSTACK, 88, STACK
        LOCFRAME RSTACK, 3, STACK
        FUNCALL read_menu, s_port
        LOCFRAME CSTACK, 88, STACK
        LOCFRAME RSTACK, 3, STACK
        FUNCALL read_menu, s_port
        LOCFRAME CSTACK, 88, STACK
        LOCFRAME RSTACK, 3, STACK
        FUNCALL read_menu, s_port
        LOCFRAME CSTACK, 88, STACK
        LOCFRAME RSTACK, 3, STACK
        FUNCALL read_menu, s_port
        LOCFRAME CSTACK, 88, STACK
        LOCFRAME RSTACK, 3, STACK
        FUNCALL read_menu, s_port
        LOCFRAME CSTACK, 88, STACK
        LOCFRAME RSTACK, 3, STACK
        FUNCALL read_menu, s_port
        LOCFRAME CSTACK, 88, STACK
        LOCFRAME RSTACK, 3, STACK
        FUNCALL read_menu, s_port
        LOCFRAME CSTACK, 88, STACK
        LOCFRAME RSTACK, 3, STACK
        FUNCALL read_menu, s_port
        LOCFRAME CSTACK, 88, STACK
        LOCFRAME RSTACK, 3, STACK
        FUNCALL read_menu, s_port
        LOCFRAME CSTACK, 88, STACK
        LOCFRAME RSTACK, 3, STACK
        FUNCALL read_menu, s_port
        LOCFRAME CSTACK, 88, STACK
        LOCFRAME RSTACK, 3, STACK
        FUNCALL read_menu, s_port
        LOCFRAME CSTACK, 88, STACK
        LOCFRAME RSTACK, 3, STACK
        FUNCALL read_menu, mov_lf
        LOCFRAME CSTACK, 88, STACK
        LOCFRAME RSTACK, 3, STACK
        FUNCALL read_menu, s_port
        LOCFRAME CSTACK, 88, STACK
        LOCFRAME RSTACK, 3, STACK
        FUNCALL read_menu, RdFromFleshToArr
        LOCFRAME CSTACK, 88, STACK
        LOCFRAME RSTACK, 3, STACK
        FUNCALL read_menu, mov_lf
        LOCFRAME CSTACK, 88, STACK
        LOCFRAME RSTACK, 3, STACK
        FUNCALL read_menu, mov_s
        LOCFRAME CSTACK, 88, STACK
        LOCFRAME RSTACK, 3, STACK
        FUNCALL read_menu, RdFromFleshToArr
        LOCFRAME CSTACK, 88, STACK
        LOCFRAME RSTACK, 3, STACK
        FUNCALL read_menu, mov_lf
        LOCFRAME CSTACK, 88, STACK
        LOCFRAME RSTACK, 3, STACK
        FUNCALL read_menu, mov_s
        LOCFRAME CSTACK, 88, STACK
        LOCFRAME RSTACK, 3, STACK
        FUNCALL read_menu, sprintf
        LOCFRAME CSTACK, 90, STACK
        LOCFRAME RSTACK, 3, STACK
        FUNCALL read_menu, strlen
        LOCFRAME CSTACK, 88, STACK
        LOCFRAME RSTACK, 3, STACK
        FUNCALL read_menu, mov_massiv
        LOCFRAME CSTACK, 88, STACK
        LOCFRAME RSTACK, 3, STACK
        FUNCALL read_menu, s_port
        LOCFRAME CSTACK, 88, STACK
        LOCFRAME RSTACK, 3, STACK
        FUNCALL read_menu, sprintf
        LOCFRAME CSTACK, 90, STACK
        LOCFRAME RSTACK, 3, STACK
        FUNCALL read_menu, strlen
        LOCFRAME CSTACK, 88, STACK
        LOCFRAME RSTACK, 3, STACK
        FUNCALL read_menu, mov_massiv
        LOCFRAME CSTACK, 88, STACK
        LOCFRAME RSTACK, 3, STACK
        FUNCALL read_menu, s_port
        LOCFRAME CSTACK, 88, STACK
        LOCFRAME RSTACK, 3, STACK
        FUNCALL read_menu, sprintf
        LOCFRAME CSTACK, 90, STACK
        LOCFRAME RSTACK, 3, STACK
        FUNCALL read_menu, strlen
        LOCFRAME CSTACK, 88, STACK
        LOCFRAME RSTACK, 3, STACK
        FUNCALL read_menu, mov_massiv
        LOCFRAME CSTACK, 88, STACK
        LOCFRAME RSTACK, 3, STACK
        FUNCALL read_menu, s_port
        LOCFRAME CSTACK, 88, STACK
        LOCFRAME RSTACK, 3, STACK
        FUNCALL read_menu, sprintf
        LOCFRAME CSTACK, 90, STACK
        LOCFRAME RSTACK, 3, STACK
        FUNCALL read_menu, strlen
        LOCFRAME CSTACK, 88, STACK
        LOCFRAME RSTACK, 3, STACK
        FUNCALL read_menu, mov_massiv
        LOCFRAME CSTACK, 88, STACK
        LOCFRAME RSTACK, 3, STACK
        FUNCALL read_menu, RdFromFleshToArr
        LOCFRAME CSTACK, 88, STACK
        LOCFRAME RSTACK, 3, STACK
        FUNCALL read_menu, mov_lf
        LOCFRAME CSTACK, 88, STACK
        LOCFRAME RSTACK, 3, STACK
        FUNCALL read_menu, mov_s
        LOCFRAME CSTACK, 88, STACK
        LOCFRAME RSTACK, 3, STACK
        FUNCALL read_menu, sprintf
        LOCFRAME CSTACK, 90, STACK
        LOCFRAME RSTACK, 3, STACK
        FUNCALL read_menu, strlen
        LOCFRAME CSTACK, 88, STACK
        LOCFRAME RSTACK, 3, STACK
        FUNCALL read_menu, mov_massiv
        LOCFRAME CSTACK, 88, STACK
        LOCFRAME RSTACK, 3, STACK
        FUNCALL read_menu, RdFromFleshToArr
        LOCFRAME CSTACK, 88, STACK
        LOCFRAME RSTACK, 3, STACK
        FUNCALL read_menu, mov_lf
        LOCFRAME CSTACK, 88, STACK
        LOCFRAME RSTACK, 3, STACK
        FUNCALL read_menu, mov_s
        LOCFRAME CSTACK, 88, STACK
        LOCFRAME RSTACK, 3, STACK
        FUNCALL read_menu, sprintf
        LOCFRAME CSTACK, 90, STACK
        LOCFRAME RSTACK, 3, STACK
        FUNCALL read_menu, strlen
        LOCFRAME CSTACK, 88, STACK
        LOCFRAME RSTACK, 3, STACK
        FUNCALL read_menu, mov_massiv
        LOCFRAME CSTACK, 88, STACK
        LOCFRAME RSTACK, 3, STACK
        FUNCALL read_menu, RdFromFleshToArr
        LOCFRAME CSTACK, 88, STACK
        LOCFRAME RSTACK, 3, STACK
        FUNCALL read_menu, mov_lf
        LOCFRAME CSTACK, 88, STACK
        LOCFRAME RSTACK, 3, STACK
        FUNCALL read_menu, mov_s
        LOCFRAME CSTACK, 88, STACK
        LOCFRAME RSTACK, 3, STACK
        FUNCALL read_menu, sprintf
        LOCFRAME CSTACK, 90, STACK
        LOCFRAME RSTACK, 3, STACK
        FUNCALL read_menu, strlen
        LOCFRAME CSTACK, 88, STACK
        LOCFRAME RSTACK, 3, STACK
        FUNCALL read_menu, mov_massiv
        LOCFRAME CSTACK, 88, STACK
        LOCFRAME RSTACK, 3, STACK
        FUNCALL read_menu, RdFromFleshToArr
        LOCFRAME CSTACK, 88, STACK
        LOCFRAME RSTACK, 3, STACK
        FUNCALL read_menu, mov_lf
        LOCFRAME CSTACK, 88, STACK
        LOCFRAME RSTACK, 3, STACK
        FUNCALL read_menu, mov_s
        LOCFRAME CSTACK, 88, STACK
        LOCFRAME RSTACK, 3, STACK
        FUNCALL read_menu, sprintf
        LOCFRAME CSTACK, 90, STACK
        LOCFRAME RSTACK, 3, STACK
        FUNCALL read_menu, strlen
        LOCFRAME CSTACK, 88, STACK
        LOCFRAME RSTACK, 3, STACK
        FUNCALL read_menu, mov_massiv
        LOCFRAME CSTACK, 88, STACK
        LOCFRAME RSTACK, 3, STACK
        FUNCALL read_menu, RdFromFleshToArr
        LOCFRAME CSTACK, 88, STACK
        LOCFRAME RSTACK, 3, STACK
        FUNCALL read_menu, mov_lf
        LOCFRAME CSTACK, 88, STACK
        LOCFRAME RSTACK, 3, STACK
        FUNCALL read_menu, mov_s
        LOCFRAME CSTACK, 88, STACK
        LOCFRAME RSTACK, 3, STACK
        FUNCALL read_menu, sprintf
        LOCFRAME CSTACK, 90, STACK
        LOCFRAME RSTACK, 3, STACK
        FUNCALL read_menu, strlen
        LOCFRAME CSTACK, 88, STACK
        LOCFRAME RSTACK, 3, STACK
        FUNCALL read_menu, mov_massiv
        LOCFRAME CSTACK, 88, STACK
        LOCFRAME RSTACK, 3, STACK
        FUNCALL read_menu, RdFromFleshToArr
        LOCFRAME CSTACK, 88, STACK
        LOCFRAME RSTACK, 3, STACK
        FUNCALL read_menu, mov_lf
        LOCFRAME CSTACK, 88, STACK
        LOCFRAME RSTACK, 3, STACK
        FUNCALL read_menu, mov_s
        LOCFRAME CSTACK, 88, STACK
        LOCFRAME RSTACK, 3, STACK
        FUNCALL read_menu, sprintf
        LOCFRAME CSTACK, 90, STACK
        LOCFRAME RSTACK, 3, STACK
        FUNCALL read_menu, strlen
        LOCFRAME CSTACK, 88, STACK
        LOCFRAME RSTACK, 3, STACK
        FUNCALL read_menu, mov_massiv
        LOCFRAME CSTACK, 88, STACK
        LOCFRAME RSTACK, 3, STACK
        FUNCALL read_menu, RdFromFleshToArr
        LOCFRAME CSTACK, 88, STACK
        LOCFRAME RSTACK, 3, STACK
        FUNCALL read_menu, mov_lf
        LOCFRAME CSTACK, 88, STACK
        LOCFRAME RSTACK, 3, STACK
        FUNCALL read_menu, mov_s
        LOCFRAME CSTACK, 88, STACK
        LOCFRAME RSTACK, 3, STACK
        FUNCALL read_menu, sprintf
        LOCFRAME CSTACK, 90, STACK
        LOCFRAME RSTACK, 3, STACK
        FUNCALL read_menu, strlen
        LOCFRAME CSTACK, 88, STACK
        LOCFRAME RSTACK, 3, STACK
        FUNCALL read_menu, mov_massiv
        LOCFRAME CSTACK, 88, STACK
        LOCFRAME RSTACK, 3, STACK
        FUNCALL read_menu, RdFromFleshToArr
        LOCFRAME CSTACK, 88, STACK
        LOCFRAME RSTACK, 3, STACK
        FUNCALL read_menu, mov_lf
        LOCFRAME CSTACK, 88, STACK
        LOCFRAME RSTACK, 3, STACK
        FUNCALL read_menu, mov_s
        LOCFRAME CSTACK, 88, STACK
        LOCFRAME RSTACK, 3, STACK
        FUNCALL read_menu, sprintf
        LOCFRAME CSTACK, 90, STACK
        LOCFRAME RSTACK, 3, STACK
        FUNCALL read_menu, strlen
        LOCFRAME CSTACK, 88, STACK
        LOCFRAME RSTACK, 3, STACK
        FUNCALL read_menu, mov_massiv
        LOCFRAME CSTACK, 88, STACK
        LOCFRAME RSTACK, 3, STACK
        FUNCALL read_menu, RdFromFleshToArr
        LOCFRAME CSTACK, 88, STACK
        LOCFRAME RSTACK, 3, STACK
        FUNCALL read_menu, mov_lf
        LOCFRAME CSTACK, 88, STACK
        LOCFRAME RSTACK, 3, STACK
        FUNCALL read_menu, mov_s
        LOCFRAME CSTACK, 88, STACK
        LOCFRAME RSTACK, 3, STACK
        FUNCALL read_menu, s_port
        LOCFRAME CSTACK, 88, STACK
        LOCFRAME RSTACK, 3, STACK
        FUNCALL read_menu, s_port
        LOCFRAME CSTACK, 88, STACK
        LOCFRAME RSTACK, 3, STACK
        FUNCALL read_menu, s_port
        LOCFRAME CSTACK, 88, STACK
        LOCFRAME RSTACK, 3, STACK
        FUNCALL read_menu, s_port
        LOCFRAME CSTACK, 88, STACK
        LOCFRAME RSTACK, 3, STACK
        FUNCALL read_menu, s_port
        LOCFRAME CSTACK, 88, STACK
        LOCFRAME RSTACK, 3, STACK
        FUNCALL read_menu, RdFromFleshToArr
        LOCFRAME CSTACK, 88, STACK
        LOCFRAME RSTACK, 3, STACK
        FUNCALL read_menu, mov_lf
        LOCFRAME CSTACK, 88, STACK
        LOCFRAME RSTACK, 3, STACK
        FUNCALL read_menu, mov_s
        LOCFRAME CSTACK, 88, STACK
        LOCFRAME RSTACK, 3, STACK
        FUNCALL read_menu, sprintf
        LOCFRAME CSTACK, 90, STACK
        LOCFRAME RSTACK, 3, STACK
        FUNCALL read_menu, strlen
        LOCFRAME CSTACK, 88, STACK
        LOCFRAME RSTACK, 3, STACK
        FUNCALL read_menu, mov_massiv
        LOCFRAME CSTACK, 88, STACK
        LOCFRAME RSTACK, 3, STACK
        FUNCALL read_menu, RdFromFleshToArr
        LOCFRAME CSTACK, 88, STACK
        LOCFRAME RSTACK, 3, STACK
        FUNCALL read_menu, mov_lf
        LOCFRAME CSTACK, 88, STACK
        LOCFRAME RSTACK, 3, STACK
        FUNCALL read_menu, mov_s
        LOCFRAME CSTACK, 88, STACK
        LOCFRAME RSTACK, 3, STACK
        FUNCALL read_menu, sprintf
        LOCFRAME CSTACK, 90, STACK
        LOCFRAME RSTACK, 3, STACK
        FUNCALL read_menu, strlen
        LOCFRAME CSTACK, 88, STACK
        LOCFRAME RSTACK, 3, STACK
        FUNCALL read_menu, mov_massiv
        LOCFRAME CSTACK, 88, STACK
        LOCFRAME RSTACK, 3, STACK
        FUNCALL read_menu, RdFromFleshToArr
        LOCFRAME CSTACK, 88, STACK
        LOCFRAME RSTACK, 3, STACK
        FUNCALL read_menu, mov_lf
        LOCFRAME CSTACK, 88, STACK
        LOCFRAME RSTACK, 3, STACK
        FUNCALL read_menu, mov_s
        LOCFRAME CSTACK, 88, STACK
        LOCFRAME RSTACK, 3, STACK
        FUNCALL read_menu, sprintf
        LOCFRAME CSTACK, 90, STACK
        LOCFRAME RSTACK, 3, STACK
        FUNCALL read_menu, strlen
        LOCFRAME CSTACK, 88, STACK
        LOCFRAME RSTACK, 3, STACK
        FUNCALL read_menu, mov_massiv
        LOCFRAME CSTACK, 88, STACK
        LOCFRAME RSTACK, 3, STACK
        FUNCALL read_menu, RdFromFleshToArr
        LOCFRAME CSTACK, 88, STACK
        LOCFRAME RSTACK, 3, STACK
        FUNCALL read_menu, mov_lf
        LOCFRAME CSTACK, 88, STACK
        LOCFRAME RSTACK, 3, STACK
        FUNCALL read_menu, mov_s
        LOCFRAME CSTACK, 88, STACK
        LOCFRAME RSTACK, 3, STACK
        FUNCALL read_menu, sprintf
        LOCFRAME CSTACK, 90, STACK
        LOCFRAME RSTACK, 3, STACK
        FUNCALL read_menu, strlen
        LOCFRAME CSTACK, 88, STACK
        LOCFRAME RSTACK, 3, STACK
        FUNCALL read_menu, mov_massiv
        LOCFRAME CSTACK, 88, STACK
        LOCFRAME RSTACK, 3, STACK
        FUNCALL read_menu, RdFromFleshToArr
        LOCFRAME CSTACK, 88, STACK
        LOCFRAME RSTACK, 3, STACK
        FUNCALL read_menu, mov_lf
        LOCFRAME CSTACK, 88, STACK
        LOCFRAME RSTACK, 3, STACK
        FUNCALL read_menu, mov_s
        LOCFRAME CSTACK, 88, STACK
        LOCFRAME RSTACK, 3, STACK
        FUNCALL read_menu, sprintf
        LOCFRAME CSTACK, 90, STACK
        LOCFRAME RSTACK, 3, STACK
        FUNCALL read_menu, strlen
        LOCFRAME CSTACK, 88, STACK
        LOCFRAME RSTACK, 3, STACK
        FUNCALL read_menu, mov_massiv
        LOCFRAME CSTACK, 88, STACK
        LOCFRAME RSTACK, 3, STACK
        FUNCALL read_menu, mov_lf
        LOCFRAME CSTACK, 88, STACK
        LOCFRAME RSTACK, 3, STACK
        FUNCALL read_menu, mov_s
        LOCFRAME CSTACK, 88, STACK
        LOCFRAME RSTACK, 3, STACK
        FUNCALL read_menu, sprintf
        LOCFRAME CSTACK, 90, STACK
        LOCFRAME RSTACK, 3, STACK
        FUNCALL read_menu, strlen
        LOCFRAME CSTACK, 88, STACK
        LOCFRAME RSTACK, 3, STACK
        FUNCALL read_menu, mov_massiv
        LOCFRAME CSTACK, 88, STACK
        LOCFRAME RSTACK, 3, STACK
        FUNCALL read_menu, RdFromFleshToArr
        LOCFRAME CSTACK, 88, STACK
        LOCFRAME RSTACK, 3, STACK
        FUNCALL read_menu, mov_lf
        LOCFRAME CSTACK, 88, STACK
        LOCFRAME RSTACK, 3, STACK
        FUNCALL read_menu, mov_s
        LOCFRAME CSTACK, 88, STACK
        LOCFRAME RSTACK, 3, STACK
        FUNCALL read_menu, RdFromFleshToArr
        LOCFRAME CSTACK, 88, STACK
        LOCFRAME RSTACK, 3, STACK
        FUNCALL read_menu, mov_lf
        LOCFRAME CSTACK, 88, STACK
        LOCFRAME RSTACK, 3, STACK
        FUNCALL read_menu, mov_s
        LOCFRAME CSTACK, 88, STACK
        LOCFRAME RSTACK, 3, STACK
        FUNCALL read_menu, RdFromFleshToArr
        LOCFRAME CSTACK, 88, STACK
        LOCFRAME RSTACK, 3, STACK
        FUNCALL read_menu, mov_lf
        LOCFRAME CSTACK, 88, STACK
        LOCFRAME RSTACK, 3, STACK
        FUNCALL read_menu, mov_s
        LOCFRAME CSTACK, 88, STACK
        LOCFRAME RSTACK, 3, STACK
        FUNCALL read_menu, mov_lf
        LOCFRAME CSTACK, 88, STACK
        LOCFRAME RSTACK, 3, STACK
        FUNCALL read_menu, mov_s
        LOCFRAME CSTACK, 88, STACK
        LOCFRAME RSTACK, 3, STACK
        FUNCALL read_menu, s_port
        LOCFRAME CSTACK, 88, STACK
        LOCFRAME RSTACK, 3, STACK
        FUNCALL read_menu, s_port
        LOCFRAME CSTACK, 88, STACK
        LOCFRAME RSTACK, 3, STACK
        FUNCALL read_menu, s_port
        LOCFRAME CSTACK, 88, STACK
        LOCFRAME RSTACK, 3, STACK
        FUNCALL read_menu, mov_lf
        LOCFRAME CSTACK, 88, STACK
        LOCFRAME RSTACK, 3, STACK
        FUNCALL read_menu, mov_s
        LOCFRAME CSTACK, 88, STACK
        LOCFRAME RSTACK, 3, STACK
        FUNCALL read_menu, burst_ds_r
        LOCFRAME CSTACK, 88, STACK
        LOCFRAME RSTACK, 3, STACK
        FUNCALL read_menu, mov_lf
        LOCFRAME CSTACK, 88, STACK
        LOCFRAME RSTACK, 3, STACK
        FUNCALL read_menu, mov_s
        LOCFRAME CSTACK, 88, STACK
        LOCFRAME RSTACK, 3, STACK
        FUNCALL read_menu, sprintf
        LOCFRAME CSTACK, 90, STACK
        LOCFRAME RSTACK, 3, STACK
        FUNCALL read_menu, strlen
        LOCFRAME CSTACK, 88, STACK
        LOCFRAME RSTACK, 3, STACK
        FUNCALL read_menu, mov_massiv
        LOCFRAME CSTACK, 88, STACK
        LOCFRAME RSTACK, 3, STACK
        FUNCALL read_menu, s_port
        LOCFRAME CSTACK, 88, STACK
        LOCFRAME RSTACK, 3, STACK
        FUNCALL read_menu, sprintf
        LOCFRAME CSTACK, 90, STACK
        LOCFRAME RSTACK, 3, STACK
        FUNCALL read_menu, strlen
        LOCFRAME CSTACK, 88, STACK
        LOCFRAME RSTACK, 3, STACK
        FUNCALL read_menu, mov_massiv
        LOCFRAME CSTACK, 88, STACK
        LOCFRAME RSTACK, 3, STACK
        FUNCALL read_menu, s_port
        LOCFRAME CSTACK, 88, STACK
        LOCFRAME RSTACK, 3, STACK
        FUNCALL read_menu, sprintf
        LOCFRAME CSTACK, 90, STACK
        LOCFRAME RSTACK, 3, STACK
        FUNCALL read_menu, strlen
        LOCFRAME CSTACK, 88, STACK
        LOCFRAME RSTACK, 3, STACK
        FUNCALL read_menu, mov_massiv
        LOCFRAME CSTACK, 88, STACK
        LOCFRAME RSTACK, 3, STACK
        FUNCALL read_menu, burst_ds_r
        LOCFRAME CSTACK, 88, STACK
        LOCFRAME RSTACK, 3, STACK
        FUNCALL read_menu, mov_lf
        LOCFRAME CSTACK, 88, STACK
        LOCFRAME RSTACK, 3, STACK
        FUNCALL read_menu, mov_s
        LOCFRAME CSTACK, 88, STACK
        LOCFRAME RSTACK, 3, STACK
        FUNCALL read_menu, sprintf
        LOCFRAME CSTACK, 90, STACK
        LOCFRAME RSTACK, 3, STACK
        FUNCALL read_menu, strlen
        LOCFRAME CSTACK, 88, STACK
        LOCFRAME RSTACK, 3, STACK
        FUNCALL read_menu, mov_massiv
        LOCFRAME CSTACK, 88, STACK
        LOCFRAME RSTACK, 3, STACK
        FUNCALL read_menu, s_port
        LOCFRAME CSTACK, 88, STACK
        LOCFRAME RSTACK, 3, STACK
        FUNCALL read_menu, sprintf
        LOCFRAME CSTACK, 90, STACK
        LOCFRAME RSTACK, 3, STACK
        FUNCALL read_menu, strlen
        LOCFRAME CSTACK, 88, STACK
        LOCFRAME RSTACK, 3, STACK
        FUNCALL read_menu, mov_massiv
        LOCFRAME CSTACK, 88, STACK
        LOCFRAME RSTACK, 3, STACK
        FUNCALL read_menu, s_port
        LOCFRAME CSTACK, 88, STACK
        LOCFRAME RSTACK, 3, STACK
        FUNCALL read_menu, sprintf
        LOCFRAME CSTACK, 90, STACK
        LOCFRAME RSTACK, 3, STACK
        FUNCALL read_menu, strlen
        LOCFRAME CSTACK, 88, STACK
        LOCFRAME RSTACK, 3, STACK
        FUNCALL read_menu, mov_massiv
        LOCFRAME CSTACK, 88, STACK
        LOCFRAME RSTACK, 3, STACK
        FUNCALL read_menu, mov_lf
        LOCFRAME CSTACK, 88, STACK
        LOCFRAME RSTACK, 3, STACK
        FUNCALL read_menu, mov_s
        LOCFRAME CSTACK, 88, STACK
        LOCFRAME RSTACK, 3, STACK
        FUNCALL read_menu, s_port
        LOCFRAME CSTACK, 88, STACK
        LOCFRAME RSTACK, 3, STACK
        FUNCALL read_menu, mov_lf
        LOCFRAME CSTACK, 88, STACK
        LOCFRAME RSTACK, 3, STACK
        FUNCALL read_menu, mov_s
        LOCFRAME CSTACK, 88, STACK
        LOCFRAME RSTACK, 3, STACK
        FUNCALL read_menu, RdFromFleshToArr
        LOCFRAME CSTACK, 88, STACK
        LOCFRAME RSTACK, 3, STACK
        FUNCALL read_menu, memcmp
        LOCFRAME CSTACK, 88, STACK
        LOCFRAME RSTACK, 3, STACK
        FUNCALL read_menu, s_port
        LOCFRAME CSTACK, 88, STACK
        LOCFRAME RSTACK, 3, STACK
        FUNCALL read_menu, s_port
        LOCFRAME CSTACK, 88, STACK
        LOCFRAME RSTACK, 3, STACK
        FUNCALL read_menu, s_port
        LOCFRAME CSTACK, 88, STACK
        LOCFRAME RSTACK, 3, STACK
        FUNCALL read_menu, s_port
        LOCFRAME CSTACK, 88, STACK
        LOCFRAME RSTACK, 3, STACK
        FUNCALL read_menu, s_port
        LOCFRAME CSTACK, 88, STACK
        LOCFRAME RSTACK, 3, STACK
        FUNCALL read_menu, s_port
        LOCFRAME CSTACK, 88, STACK
        LOCFRAME RSTACK, 3, STACK
        FUNCALL read_menu, mov_lf
        LOCFRAME CSTACK, 88, STACK
        LOCFRAME RSTACK, 3, STACK
        FUNCALL read_menu, mov_s
        LOCFRAME CSTACK, 88, STACK
        LOCFRAME RSTACK, 3, STACK
        FUNCALL read_menu, RdFromFleshToArr
        LOCFRAME CSTACK, 88, STACK
        LOCFRAME RSTACK, 3, STACK
        FUNCALL read_menu, s_port
        LOCFRAME CSTACK, 88, STACK
        LOCFRAME RSTACK, 3, STACK
        FUNCALL read_menu, s_port
        LOCFRAME CSTACK, 88, STACK
        LOCFRAME RSTACK, 3, STACK
        FUNCALL read_menu, s_port
        LOCFRAME CSTACK, 88, STACK
        LOCFRAME RSTACK, 3, STACK
        FUNCALL read_menu, s_port
        LOCFRAME CSTACK, 88, STACK
        LOCFRAME RSTACK, 3, STACK
        FUNCALL read_menu, mov_lf
        LOCFRAME CSTACK, 88, STACK
        LOCFRAME RSTACK, 3, STACK
        FUNCALL read_menu, mov_s
        LOCFRAME CSTACK, 88, STACK
        LOCFRAME RSTACK, 3, STACK
        FUNCALL read_menu, RdFromFleshToArr
        LOCFRAME CSTACK, 88, STACK
        LOCFRAME RSTACK, 3, STACK
        FUNCALL read_menu, s_port
        LOCFRAME CSTACK, 88, STACK
        LOCFRAME RSTACK, 3, STACK
        FUNCALL read_menu, s_port
        LOCFRAME CSTACK, 88, STACK
        LOCFRAME RSTACK, 3, STACK
        FUNCALL read_menu, s_port
        LOCFRAME CSTACK, 88, STACK
        LOCFRAME RSTACK, 3, STACK
        FUNCALL read_menu, s_port
        LOCFRAME CSTACK, 88, STACK
        LOCFRAME RSTACK, 3, STACK
        FUNCALL read_menu, mov_lf
        LOCFRAME CSTACK, 88, STACK
        LOCFRAME RSTACK, 3, STACK
        FUNCALL read_menu, mov_s
        LOCFRAME CSTACK, 88, STACK
        LOCFRAME RSTACK, 3, STACK
        FUNCALL read_menu, RdFromFleshToArr
        LOCFRAME CSTACK, 88, STACK
        LOCFRAME RSTACK, 3, STACK
        FUNCALL read_menu, sprintf
        LOCFRAME CSTACK, 92, STACK
        LOCFRAME RSTACK, 3, STACK
        FUNCALL read_menu, strlen
        LOCFRAME CSTACK, 88, STACK
        LOCFRAME RSTACK, 3, STACK
        FUNCALL read_menu, mov_massiv
        LOCFRAME CSTACK, 88, STACK
        LOCFRAME RSTACK, 3, STACK
        FUNCALL read_menu, s_port
        LOCFRAME CSTACK, 88, STACK
        LOCFRAME RSTACK, 3, STACK
        FUNCALL read_menu, s_port
        LOCFRAME CSTACK, 88, STACK
        LOCFRAME RSTACK, 3, STACK
        FUNCALL read_menu, s_port
        LOCFRAME CSTACK, 88, STACK
        LOCFRAME RSTACK, 3, STACK
        FUNCALL read_menu, memset
        LOCFRAME CSTACK, 88, STACK
        LOCFRAME RSTACK, 3, STACK
        FUNCALL read_menu, RdFromFleshToArr
        LOCFRAME CSTACK, 88, STACK
        LOCFRAME RSTACK, 3, STACK
        FUNCALL read_menu, sprintf
        LOCFRAME CSTACK, 92, STACK
        LOCFRAME RSTACK, 3, STACK
        FUNCALL read_menu, strlen
        LOCFRAME CSTACK, 88, STACK
        LOCFRAME RSTACK, 3, STACK
        FUNCALL read_menu, mov_massiv
        LOCFRAME CSTACK, 88, STACK
        LOCFRAME RSTACK, 3, STACK
        FUNCALL read_menu, mov_lf
        LOCFRAME CSTACK, 88, STACK
        LOCFRAME RSTACK, 3, STACK
        FUNCALL read_menu, mov_s
        LOCFRAME CSTACK, 88, STACK
        LOCFRAME RSTACK, 3, STACK
        FUNCALL read_menu, s_port
        LOCFRAME CSTACK, 88, STACK
        LOCFRAME RSTACK, 3, STACK
        FUNCALL read_menu, s_port
        LOCFRAME CSTACK, 88, STACK
        LOCFRAME RSTACK, 3, STACK
        FUNCALL read_menu, mov_lf
        LOCFRAME CSTACK, 88, STACK
        LOCFRAME RSTACK, 3, STACK
        FUNCALL read_menu, mov_s
        LOCFRAME CSTACK, 88, STACK
        LOCFRAME RSTACK, 3, STACK
        FUNCALL read_menu, sprintf
        LOCFRAME CSTACK, 90, STACK
        LOCFRAME RSTACK, 3, STACK
        FUNCALL read_menu, strlen
        LOCFRAME CSTACK, 88, STACK
        LOCFRAME RSTACK, 3, STACK
        FUNCALL read_menu, mov_massiv
        LOCFRAME CSTACK, 88, STACK
        LOCFRAME RSTACK, 3, STACK
        FUNCALL read_menu, s_port
        LOCFRAME CSTACK, 88, STACK
        LOCFRAME RSTACK, 3, STACK
        FUNCALL read_menu, sprintf
        LOCFRAME CSTACK, 90, STACK
        LOCFRAME RSTACK, 3, STACK
        FUNCALL read_menu, strlen
        LOCFRAME CSTACK, 88, STACK
        LOCFRAME RSTACK, 3, STACK
        FUNCALL read_menu, mov_massiv
        LOCFRAME CSTACK, 88, STACK
        LOCFRAME RSTACK, 3, STACK
        FUNCALL read_menu, mov_lf
        LOCFRAME CSTACK, 88, STACK
        LOCFRAME RSTACK, 3, STACK
        FUNCALL read_menu, mov_s
        LOCFRAME CSTACK, 88, STACK
        LOCFRAME RSTACK, 3, STACK
        FUNCALL read_menu, s_port
        LOCFRAME CSTACK, 88, STACK
        LOCFRAME RSTACK, 3, STACK
        FUNCALL read_menu, s_port
        LOCFRAME CSTACK, 88, STACK
        LOCFRAME RSTACK, 3, STACK
        FUNCALL read_menu, s_port
        LOCFRAME CSTACK, 88, STACK
        LOCFRAME RSTACK, 3, STACK
        FUNCALL read_menu, mov_lf
        LOCFRAME CSTACK, 88, STACK
        LOCFRAME RSTACK, 3, STACK
        FUNCALL read_menu, mov_s
        LOCFRAME CSTACK, 88, STACK
        LOCFRAME RSTACK, 3, STACK
        FUNCALL read_menu, sprintf
        LOCFRAME CSTACK, 90, STACK
        LOCFRAME RSTACK, 3, STACK
        FUNCALL read_menu, strlen
        LOCFRAME CSTACK, 88, STACK
        LOCFRAME RSTACK, 3, STACK
        FUNCALL read_menu, mov_massiv
        LOCFRAME CSTACK, 88, STACK
        LOCFRAME RSTACK, 3, STACK
        FUNCALL read_menu, mov_lf
        LOCFRAME CSTACK, 88, STACK
        LOCFRAME RSTACK, 3, STACK
        FUNCALL read_menu, mov_s
        LOCFRAME CSTACK, 88, STACK
        LOCFRAME RSTACK, 3, STACK
        FUNCALL read_menu, s_port
        LOCFRAME CSTACK, 88, STACK
        LOCFRAME RSTACK, 3, STACK
        FUNCALL read_menu, s_port
        LOCFRAME CSTACK, 88, STACK
        LOCFRAME RSTACK, 3, STACK
        FUNCALL read_menu, s_port
        LOCFRAME CSTACK, 88, STACK
        LOCFRAME RSTACK, 3, STACK
        FUNCALL read_menu, s_port
        LOCFRAME CSTACK, 88, STACK
        LOCFRAME RSTACK, 3, STACK
        FUNCALL read_menu, s_port
        LOCFRAME CSTACK, 88, STACK
        LOCFRAME RSTACK, 3, STACK
        FUNCALL read_menu, s_port
        LOCFRAME CSTACK, 88, STACK
        LOCFRAME RSTACK, 3, STACK
        FUNCALL read_menu, mov_lf
        LOCFRAME CSTACK, 88, STACK
        LOCFRAME RSTACK, 3, STACK
        FUNCALL read_menu, mov_s
        LOCFRAME CSTACK, 88, STACK
        LOCFRAME RSTACK, 3, STACK
        FUNCALL read_menu, fun_init_sim900
        LOCFRAME CSTACK, 88, STACK
        LOCFRAME RSTACK, 3, STACK
        FUNCALL read_menu, mov_lf
        LOCFRAME CSTACK, 88, STACK
        LOCFRAME RSTACK, 3, STACK
        FUNCALL read_menu, s_port
        LOCFRAME CSTACK, 88, STACK
        LOCFRAME RSTACK, 3, STACK
        FUNCALL read_menu, mov_s
        LOCFRAME CSTACK, 88, STACK
        LOCFRAME RSTACK, 3, STACK
        FUNCALL read_menu, mov_lf
        LOCFRAME CSTACK, 88, STACK
        LOCFRAME RSTACK, 3, STACK
        CALL	?PROLOGUE5_L09
        CFI R4 Frame(CFA_Y, -1)
        CFI R27 Frame(CFA_Y, -2)
        CFI R26 Frame(CFA_Y, -3)
        CFI R25 Frame(CFA_Y, -4)
        CFI R24 Frame(CFA_Y, -5)
        CFI CFA_Y Y+5
        REQUIRE	?Register_R4_is_cg_reg
        SBIW	R29:R28, 63
        CFI CFA_Y Y+68
        SBIW	R29:R28, 20
        CFI CFA_Y Y+88
        MOV	R4, R16
//  940    char massiv[13];
//  941    unsigned char buf[70];  
//  942    
//  943    unsigned char i,k; 
//  944     
//  945    
//  946    memset(massiv,0,13); 
        LDI	R20, 13
        RCALL	?Subroutine86
??CrossCallReturnLabel_317:
        CALL	memset
//  947         
//  948     if( index_menu    ==25) SET_TEN;
        LDI	R16, 25
        CP	R4, R16
        LDS	R16, 261
        BRNE	??read_menu_0
        ORI	R16, 0x08
        CALL	?Subroutine117
//  949     if( index_menu    !=25)CLR_TEN;                                 // дл€ проверки нагревател€ в этом пункте он включаетс€
//  950     
//  951      switch (index_menu) 
//  952         
//  953         {
//  954         case 0:
//  955                               
//  956         menu_beg:
//  957                mov_lf();
//  958                s_port('1');
//  959                s_port('.');
//  960                mov_s ( sizeof(versia),versia);  
//  961              //  read_boot_ver();
//  962              //  mov_buf ( 7,buf_boot_ver); 
//  963    
//  964                
//  965                mov_lf(); 
//  966                s_port('>');      
//  967                break;  
//  968                
//  969 #ifdef SCENARIO_TEST_MTC_ENABLE               
//  970         case 1: 
//  971                mov_lf();
//  972                s_port('2');
//  973                s_port('.');
//  974                mov_s ( sizeof(map_test_mtc),map_test_mtc);                              
//  975                mov_lf(); 
//  976                s_port('>');  
//  977                break;  
//  978 #else   
//  979                case 1: 
//  980                mov_lf();
//  981                s_port('2');
//  982                s_port('.');
//  983                mov_s ( sizeof(map_vers),map_vers);                              
//  984                mov_lf(); 
//  985                s_port('>');  
//  986                break; 
//  987 #endif               
//  988                
//  989                
//  990         case 2: 
//  991                mov_lf(); 
//  992                s_port('3');
//  993                s_port('.');
//  994                mov_s ( sizeof(ozu_vers),ozu_vers);                              
//  995                mov_lf(); 
//  996                s_port('>');  
//  997                break;
//  998                
//  999         case 3:        
// 1000                
// 1001                RdFromFleshToArr(A_C_GPRS,&buf[0],L_C_GPRS_MAX);
// 1002                mov_lf();
// 1003               // s_port('B');
// 1004               // s_port(':');
// 1005                mov_s ( sizeof(zp_apn1),zp_apn1);
// 1006 
// 1007 
// 1008 povt_1:            
// 1009                
// 1010                
// 1011                if((buf[0]!=0)&&(buf[0]<31))
// 1012                {
// 1013                 s_port('"');
// 1014                 i=0;
// 1015                 k=0;
// 1016                 while(i<buf[k]){s_port(buf[k+1+i]);i++;}   
// 1017                 s_port('"');
// 1018                
// 1019                 s_port('"');           
// 1020                 k=k+i+1;
// 1021                 i=0; 
// 1022                 while(i<buf[k]){s_port(buf[k+1+i]);i++;} 
// 1023                 s_port('"');
// 1024          
// 1025                 s_port('"');
// 1026                 k=k+i+1;
// 1027                 i=0; 
// 1028                 while(i<buf[k]){s_port(buf[k+1+i]);i++;}
// 1029                 s_port('"');
// 1030                 }else 
// 1031                {
// 1032                s_port('-');
// 1033                s_port('-');
// 1034                s_port('-');
// 1035                s_port('-');
// 1036                s_port('-');
// 1037                }
// 1038               
// 1039  
// 1040                mov_lf(); 
// 1041                s_port('>');
// 1042                break;        
// 1043  
// 1044          case 4:        
// 1045                
// 1046                RdFromFleshToArr(A_CR_GPRS,&buf[0],L_CR_GPRS_MAX);
// 1047                mov_lf();
// 1048               // s_port('R');
// 1049               // s_port(':');
// 1050                mov_s ( sizeof(zp_apn2),zp_apn2);
// 1051                goto povt_1;
// 1052                
// 1053          case 5:    
// 1054   
// 1055                RdFromFleshToArr(A_IP,&buf[0],4);
// 1056                mov_lf(); 
// 1057                
// 1058                mov_s ( sizeof(zp_ip),zp_ip);
// 1059                               
// 1060                sprintf(massiv,"%d\0",buf[0]);
// 1061                mov_massiv(strlen(massiv),massiv); 
// 1062                s_port('.');     
// 1063                sprintf(massiv,"%d\0",buf[1]);
// 1064                mov_massiv(strlen(massiv),massiv); 
// 1065                s_port('.');
// 1066                sprintf(massiv,"%d\0",buf[2]);
// 1067                mov_massiv(strlen(massiv),massiv); 
// 1068                s_port('.');
// 1069                sprintf(massiv,"%d\0",buf[3]);
// 1070                mov_massiv(strlen(massiv),massiv); 
// 1071                
// 1072                mov_lf(); 
// 1073                s_port('>');
// 1074                break;     
// 1075      
// 1076       case 6:    
// 1077   
// 1078                RdFromFleshToArr(A_PORT,&buf[0],2);
// 1079                mov_lf();        
// 1080                mov_s ( sizeof(zp_udp),zp_udp);
// 1081                sprintf(massiv,"%u\0",*(unsigned int*)&buf[0]);         
// 1082                mov_massiv(strlen(massiv),massiv);      
// 1083                mov_lf(); 
// 1084                s_port('>');
// 1085                break; 
// 1086       
// 1087      case 7:      
// 1088                RdFromFleshToArr(A_NUM,&buf[0],2);
// 1089                mov_lf();        
// 1090                mov_s ( sizeof(zp_num),zp_num);
// 1091                sprintf(massiv,"%u\0",*(unsigned int*)&buf[0]);
// 1092                mov_massiv(strlen(massiv),massiv);      
// 1093                mov_lf(); 
// 1094                s_port('>');
// 1095                break;               
// 1096 
// 1097   
// 1098         
// 1099      case 8:        
// 1100                RdFromFleshToArr(A_NAT,&buf[0],2);
// 1101                mov_lf();        
// 1102                mov_s ( sizeof(zp_nat),zp_nat);
// 1103                sprintf(massiv,"%u\0",*(unsigned int*)&buf[0]);
// 1104                mov_massiv(strlen(massiv),massiv);      
// 1105                mov_lf(); 
// 1106                s_port('>');
// 1107                break;        
// 1108       case 9:        
// 1109                RdFromFleshToArr(A_NAT_R,&buf[0],2);
// 1110                mov_lf();        
// 1111                mov_s ( sizeof(zp_nat_r),zp_nat_r);
// 1112                sprintf(massiv,"%u\0",*(unsigned int*)&buf[0]);
// 1113                mov_massiv(strlen(massiv),massiv);      
// 1114                mov_lf(); 
// 1115                s_port('>');
// 1116                break;    
// 1117                
// 1118                
// 1119          case 10:      
// 1120                RdFromFleshToArr(A_CCH,&buf[0],2);
// 1121                mov_lf();        
// 1122                mov_s ( sizeof(zp_link),zp_link);
// 1123                sprintf(massiv,"%u\0",*(unsigned int*)&buf[0]);
// 1124                mov_massiv(strlen(massiv),massiv);      
// 1125                mov_lf(); 
// 1126                s_port('>');
// 1127                break; 
// 1128        case 11:      
// 1129                RdFromFleshToArr(A_TM_CH,&buf[0],2);
// 1130                mov_lf();        
// 1131                mov_s ( sizeof(zp_tm_link),zp_tm_link);
// 1132                sprintf(massiv,"%u\0",*(unsigned int*)&buf[0]);
// 1133                mov_massiv(strlen(massiv),massiv);      
// 1134                mov_lf(); 
// 1135                s_port('>');
// 1136                break; 
// 1137        
// 1138              //!!!!!!!!!!!!!!! dobavka!!!!!!!!!!        
// 1139        case 12:      
// 1140                RdFromFleshToArr(A_TM_NO_LINK,&buf[0],2);
// 1141                mov_lf();        
// 1142                mov_s ( sizeof(zp_tm_no_link),zp_tm_no_link);
// 1143                sprintf(massiv,"%u\0",*(unsigned int*)&buf[0]);
// 1144                mov_massiv(strlen(massiv),massiv);      
// 1145                mov_lf(); 
// 1146                s_port('>');
// 1147                break; 
// 1148                
// 1149                
// 1150          case 13:      
// 1151                RdFromFleshToArr(A_TM_LINK_RES,&buf[0],2);
// 1152                mov_lf();        
// 1153                mov_s ( sizeof(zp_tm_link_res),zp_tm_link_res);
// 1154                sprintf(massiv,"%u\0",*(unsigned int*)&buf[0]);
// 1155                mov_massiv(strlen(massiv),massiv);      
// 1156                mov_lf(); 
// 1157                s_port('>');
// 1158                break;        
// 1159         //EEEEEEEEEEEEEEEEE dobavka                
// 1160                
// 1161                
// 1162                
// 1163        case 14: 
// 1164                   RdFromFleshToArr(A_DES_SEQ,&buf[0],1);
// 1165                   mov_lf(); 
// 1166                   mov_s ( sizeof(zp_des_seq),zp_des_seq);   
// 1167                   if(buf[0]==1)
// 1168                     {
// 1169                     s_port('o');
// 1170                     s_port('n');
// 1171                     } 
// 1172                     else
// 1173                      { 
// 1174                         s_port('o');
// 1175                         s_port('f');
// 1176                         s_port('f');
// 1177                      }
// 1178                   mov_lf(); 
// 1179                   s_port('>');                 
// 1180                   break;
// 1181  
// 1182        case 15:     
// 1183    
// 1184                RdFromFleshToArr(A_NUM_CL,&buf[0],2);
// 1185                mov_lf();        
// 1186                mov_s ( sizeof(zp_num_seq),zp_num_seq);
// 1187                sprintf(massiv,"%u\0",*(unsigned int*)&buf[0]);
// 1188                mov_massiv(strlen(massiv),massiv);      
// 1189                mov_lf(); 
// 1190                s_port('>');
// 1191                break; 
// 1192       
// 1193       
// 1194       case 16:     
// 1195   
// 1196                RdFromFleshToArr(A_TM_VZ,&buf[0],2);
// 1197                mov_lf();        
// 1198                mov_s ( sizeof(zp_tm_vz),zp_tm_vz);
// 1199                sprintf(massiv,"%u\0",*(unsigned int*)&buf[0]);
// 1200                mov_massiv(strlen(massiv),massiv);      
// 1201                mov_lf(); 
// 1202                s_port('>');
// 1203                break; 
// 1204  
// 1205      case 17:     
// 1206   
// 1207                RdFromFleshToArr(A_TM_CL,&buf[0],2);
// 1208                mov_lf();        
// 1209                mov_s ( sizeof(zp_tm_cl),zp_tm_cl);
// 1210                sprintf(massiv,"%u\0",*(unsigned int*)&buf[0]);
// 1211                mov_massiv(strlen(massiv),massiv);      
// 1212                mov_lf(); 
// 1213                s_port('>');
// 1214                break; 
// 1215                
// 1216      case 18:  RdFromFleshToArr(A_TP_TS,&buf[0],1);
// 1217                mov_lf();        
// 1218                mov_s ( sizeof(zp_type_tc1),zp_type_tc1);
// 1219                sprintf(massiv,"%u\0",*(unsigned char*)&buf[0]);
// 1220                mov_massiv(strlen(massiv),massiv);      
// 1221                mov_lf(); 
// 1222                s_port('>');
// 1223                break;
// 1224        
// 1225     case 19:  RdFromFleshToArr(A_TP_TS+1,&buf[0],1);
// 1226                mov_lf();        
// 1227                mov_s ( sizeof(zp_type_tc2),zp_type_tc2);
// 1228                sprintf(massiv,"%u\0",*(unsigned char*)&buf[0]);
// 1229                mov_massiv(strlen(massiv),massiv);      
// 1230                mov_lf(); 
// 1231                s_port('>'); 
// 1232                break;
// 1233                         
// 1234  
// 1235     case 20: 
// 1236            
// 1237                   buf[0]=e_debug;
// 1238                   buf[1]=0;
// 1239                   mov_lf(); 
// 1240                   mov_s ( sizeof(zp_dbg),zp_dbg);
// 1241                   sprintf(massiv,"%u\0",*(unsigned int*)&buf[0]);
// 1242                   mov_massiv(strlen(massiv),massiv); 
// 1243                   mov_lf(); 
// 1244                   s_port('>');                 
// 1245                   break;
// 1246         
// 1247     
// 1248       
// 1249       case 21:      
// 1250                RdFromFleshToArr(A_C1_GPRS,&buf[0],L_C1_GPRS_MAX);
// 1251                mov_lf();
// 1252                //s_port('1');
// 1253               // s_port(':');
// 1254                mov_s ( sizeof(zp_db1),zp_db1);
// 1255                goto povt_1;
// 1256                          
// 1257         
// 1258       case 22:  
// 1259                RdFromFleshToArr(A_C2_GPRS,&buf[0],L_C2_GPRS_MAX);
// 1260                mov_lf(); 
// 1261              
// 1262                //s_port('2');
// 1263               // s_port(':');
// 1264                 mov_s ( sizeof(zp_db2),zp_db2);
// 1265                goto povt_1;  
// 1266  
// 1267       case 23:      
// 1268               RdFromFleshToArr(A_C3_GPRS,&buf[0],L_C3_GPRS_MAX);
// 1269               mov_lf();
// 1270               //s_port('3');
// 1271              // s_port(':');
// 1272                mov_s ( sizeof(zp_db3),zp_db3);
// 1273               goto povt_1; 
// 1274     
// 1275      case 24:
// 1276                 mov_lf();
// 1277                 mov_s ( sizeof(zp_ts1),zp_ts1);
// 1278                 if(struct_tcc1.tek_pin==1)s_port('0');else s_port('1');
// 1279                 if(struct_tcc2.tek_pin==1)s_port('0');else s_port('1'); 
// 1280                 
// 1281             //    #ifdef version_loop_485
// 1282             //    mov_lf(); 
// 1283             //    test_loop();
// 1284             //    test_loop2();                31 01 23
// 1285             //    #endif
// 1286                 
// 1287                 mov_lf(); 
// 1288                 s_port('>');  
// 1289                 break;
// 1290      case 25:
// 1291                
// 1292                 
// 1293                 mov_lf();
??CrossCallReturnLabel_149:
        RCALL	?Subroutine174
// 1294                 mov_s ( sizeof(zp_temp),zp_temp);     
??CrossCallReturnLabel_545:
        LDI	R18, LOW((versia + 486))
        LDI	R19, HIGH((versia + 486))
        LDI	R16, 16
        RCALL	?Subroutine166
// 1295                 sprintf(massiv,"%hhi\0",temp_to_grad(temperatura));
??CrossCallReturnLabel_374:
        RCALL	?Subroutine122
??CrossCallReturnLabel_308:
        CALL	temp_to_grad
        LDI	R17, 0
        ST	-Y, R17
        CFI CFA_Y Y+89
        ST	-Y, R16
        CFI CFA_Y Y+90
        LDI	R18, LOW(`?<Constant "%hhi\\000">`)
        LDI	R19, (`?<Constant "%hhi\\000">`) >> 8
        CALL	??Subroutine49_0
        CFI CFA_Y Y+88
// 1296                 mov_massiv(strlen(massiv),massiv); 
// 1297                 s_port(' ');
// 1298                 s_port('A');
??CrossCallReturnLabel_467:
        LDI	R16, 65
        RCALL	?Subroutine173
// 1299                 s_port('D');
??CrossCallReturnLabel_506:
        LDI	R16, 68
        RCALL	?Subroutine173
// 1300                 s_port('C');
??CrossCallReturnLabel_505:
        LDI	R16, 67
        RCALL	?Subroutine173
// 1301                 s_port(':');
??CrossCallReturnLabel_504:
        RCALL	?Subroutine114
// 1302                 sprintf(massiv,"%u\0",temperatura);
??CrossCallReturnLabel_509:
        RCALL	?Subroutine122
??CrossCallReturnLabel_309:
        CALL	?Subroutine127
        CFI CFA_Y Y+90
??CrossCallReturnLabel_162:
        CALL	?Subroutine71
        CFI CFA_Y Y+88
// 1303                 mov_massiv(strlen(massiv),massiv); 
??CrossCallReturnLabel_80:
        CALL	?Subroutine70
??CrossCallReturnLabel_79:
        RJMP	??CrossCallReturnLabel_501
??read_menu_0:
        ANDI	R16, 0xF7
        CALL	?Subroutine117
??CrossCallReturnLabel_150:
        LDI	R24, LOW(real_time)
        LDI	R25, (real_time) >> 8
        LDI	R26, LOW(modbus_mem1)
        LDI	R27, (modbus_mem1) >> 8
        MOV	R16, R4
        LDI	R30, LOW(`?<Jumptable for read_menu>_0`)
        LDI	R31, (`?<Jumptable for read_menu>_0`) >> 16
        OUT	0x3B, R31
        LDI	R31, HIGH(`?<Jumptable for read_menu>_0`)
        JMP	?CV_SWITCH_L06
??read_menu_1:
        RCALL	?Subroutine174
??CrossCallReturnLabel_544:
        LDI	R16, 49
        RCALL	?Subroutine104
??CrossCallReturnLabel_517:
        LDI	R18, LOW(versia)
        LDI	R19, (versia) >> 8
        LDI	R16, 22
??read_menu_2:
        RCALL	?Subroutine166
??CrossCallReturnLabel_373:
        RJMP	??CrossCallReturnLabel_501
??read_menu_3:
        RCALL	?Subroutine174
??CrossCallReturnLabel_543:
        LDI	R16, 50
        RCALL	?Subroutine104
??CrossCallReturnLabel_516:
        LDI	R18, LOW((versia + 142))
        LDI	R19, HIGH((versia + 142))
??read_menu_4:
        LDI	R16, 14
        RJMP	??read_menu_2
??read_menu_5:
        RCALL	?Subroutine174
??CrossCallReturnLabel_542:
        LDI	R16, 51
        RCALL	?Subroutine104
??CrossCallReturnLabel_515:
        LDI	R18, LOW((versia + 30))
        LDI	R19, HIGH((versia + 30))
        RJMP	??read_menu_4
??read_menu_6:
        LDI	R20, 60
        RCALL	??Subroutine77_0
??CrossCallReturnLabel_231:
        LDI	R16, 20
        RCALL	?Subroutine6
??CrossCallReturnLabel_563:
        LDI	R18, LOW((versia + 44))
        LDI	R19, HIGH((versia + 44))
??read_menu_7:
        LDI	R16, 12
??read_menu_8:
        RCALL	?Subroutine120
??CrossCallReturnLabel_158:
        TST	R16
        BREQ	??read_menu_9
        CPI	R16, 31
        BRCC	??read_menu_9
        LDI	R16, 34
        RCALL	?Subroutine173
??CrossCallReturnLabel_503:
        LDI	R24, 0
        RJMP	??read_menu_10
??read_menu_11:
        MOVW	R31:R30, R29:R28
        ADIW	R31:R30, 13
        LDI	R25, 0
        ADD	R30, R24
        ADC	R31, R25
        LDD	R16, Z+1
        RCALL	?Subroutine173
??CrossCallReturnLabel_502:
        INC	R24
??read_menu_10:
        LDD	R16, Y+13
        CP	R24, R16
        BRCS	??read_menu_11
        RCALL	?Subroutine112
??CrossCallReturnLabel_298:
        MOV	R26, R24
        LDI	R24, 0
        RJMP	??CrossCallReturnLabel_296
??read_menu_12:
        RCALL	?Subroutine19
??CrossCallReturnLabel_296:
        RCALL	?Subroutine57
??CrossCallReturnLabel_70:
        BRCS	??read_menu_12
        RCALL	?Subroutine112
??CrossCallReturnLabel_299:
        ADD	R26, R24
        LDI	R24, 0
        RJMP	??CrossCallReturnLabel_297
??read_menu_13:
        RCALL	?Subroutine19
??CrossCallReturnLabel_297:
        RCALL	?Subroutine57
??CrossCallReturnLabel_71:
        BRCS	??read_menu_13
        LDI	R16, 34
        RJMP	??read_menu_14
??read_menu_9:
        RCALL	?Subroutine100
??CrossCallReturnLabel_511:
        RCALL	?Subroutine100
??CrossCallReturnLabel_510:
        LDI	R16, 45
??read_menu_14:
        RCALL	?Subroutine173
??CrossCallReturnLabel_501:
        CALL	?Subroutine103
??CrossCallReturnLabel_478:
        RJMP	??read_menu_15
??read_menu_16:
        LDI	R20, 60
        RCALL	??Subroutine77_0
??CrossCallReturnLabel_232:
        LDI	R16, 80
        RCALL	?Subroutine6
??CrossCallReturnLabel_562:
        LDI	R18, LOW((versia + 56))
        LDI	R19, HIGH((versia + 56))
        RJMP	??read_menu_7
??read_menu_17:
        LDI	R20, 4
        RCALL	??Subroutine77_0
??CrossCallReturnLabel_233:
        LDI	R16, 140
        RCALL	?Subroutine6
??CrossCallReturnLabel_561:
        LDI	R18, LOW((versia + 68))
        LDI	R19, HIGH((versia + 68))
        LDI	R16, 17
        RCALL	?Subroutine120
??CrossCallReturnLabel_159:
        RCALL	?Subroutine11
??CrossCallReturnLabel_514:
        LDD	R16, Y+14
        RCALL	?Subroutine11
??CrossCallReturnLabel_513:
        LDD	R16, Y+15
        RCALL	?Subroutine11
??CrossCallReturnLabel_512:
        LDD	R16, Y+16
??read_menu_18:
        LDI	R17, 0
        ST	-Y, R17
        CFI CFA_Y Y+89
        ST	-Y, R16
        CFI CFA_Y Y+90
        LDI	R18, LOW((`?<Constant "%hhi\\000">` + 11))
        LDI	R19, HIGH((`?<Constant "%hhi\\000">` + 11))
        RJMP	??CrossCallReturnLabel_162
        CFI CFA_Y Y+88
??read_menu_19:
        RCALL	?Subroutine77
??CrossCallReturnLabel_234:
        LDI	R16, 144
        RCALL	?Subroutine6
??CrossCallReturnLabel_560:
        LDI	R18, LOW((versia + 156))
        LDI	R19, HIGH((versia + 156))
??read_menu_20:
        LDI	R16, 15
??read_menu_21:
        RCALL	?Subroutine120
??CrossCallReturnLabel_160:
        LDD	R17, Y+14
        RJMP	??CrossCallReturnLabel_309
??read_menu_22:
        RCALL	?Subroutine77
??CrossCallReturnLabel_235:
        LDI	R16, 146
        RCALL	?Subroutine6
??CrossCallReturnLabel_559:
        LDI	R18, LOW((versia + 171))
        LDI	R19, HIGH((versia + 171))
        RJMP	??read_menu_20
??read_menu_23:
        RCALL	?Subroutine77
??CrossCallReturnLabel_236:
        LDI	R16, 150
        RCALL	?Subroutine6
??CrossCallReturnLabel_558:
        LDI	R18, LOW((versia + 214))
        LDI	R19, HIGH((versia + 214))
        LDI	R16, 23
        RJMP	??read_menu_21
??read_menu_24:
        RCALL	?Subroutine77
??CrossCallReturnLabel_237:
        LDI	R16, 160
        RCALL	?Subroutine6
??CrossCallReturnLabel_557:
        LDI	R18, LOW((versia + 237))
        LDI	R19, HIGH((versia + 237))
        LDI	R16, 24
        RJMP	??read_menu_21
??read_menu_25:
        RCALL	?Subroutine77
??CrossCallReturnLabel_238:
        LDI	R16, 152
        RCALL	?Subroutine6
??CrossCallReturnLabel_556:
        LDI	R18, LOW((versia + 261))
        LDI	R19, HIGH((versia + 261))
        LDI	R16, 27
        RJMP	??read_menu_21
??read_menu_26:
        RCALL	?Subroutine77
??CrossCallReturnLabel_239:
        LDI	R16, 154
        RCALL	?Subroutine6
??CrossCallReturnLabel_555:
        LDI	R18, LOW((versia + 288))
        LDI	R19, HIGH((versia + 288))
        LDI	R16, 20
        RJMP	??read_menu_21
??read_menu_27:
        RCALL	?Subroutine77
??CrossCallReturnLabel_240:
        LDI	R16, 156
        RCALL	?Subroutine6
??CrossCallReturnLabel_554:
        LDI	R18, LOW((versia + 308))
        LDI	R19, HIGH((versia + 308))
        LDI	R16, 21
        RJMP	??read_menu_21
??read_menu_28:
        RCALL	?Subroutine77
??CrossCallReturnLabel_241:
        LDI	R16, 158
        RCALL	?Subroutine6
??CrossCallReturnLabel_553:
        LDI	R18, LOW((versia + 329))
        LDI	R19, HIGH((versia + 329))
??read_menu_29:
        LDI	R16, 26
        RJMP	??read_menu_21
??read_menu_30:
        LDI	R20, 1
        RCALL	??Subroutine77_0
??CrossCallReturnLabel_242:
        LDI	R16, 164
        RCALL	?Subroutine6
??CrossCallReturnLabel_552:
        LDI	R18, LOW((versia + 417))
        LDI	R19, HIGH((versia + 417))
        LDI	R16, 17
        RCALL	?Subroutine119
??CrossCallReturnLabel_156:
        LDI	R16, 111
        BRNE	??read_menu_31
        RCALL	?Subroutine173
??CrossCallReturnLabel_500:
        LDI	R16, 110
        RJMP	??read_menu_14
??read_menu_31:
        RCALL	?Subroutine173
??CrossCallReturnLabel_499:
        LDI	R16, 102
??read_menu_32:
        RCALL	?Subroutine173
??CrossCallReturnLabel_498:
        LDI	R16, 102
        RJMP	??read_menu_14
??read_menu_33:
        RCALL	?Subroutine77
??CrossCallReturnLabel_243:
        LDI	R16, 165
        RCALL	?Subroutine6
??CrossCallReturnLabel_551:
        LDI	R18, LOW((versia + 399))
        LDI	R19, HIGH((versia + 399))
??read_menu_34:
        LDI	R16, 18
        RJMP	??read_menu_21
??read_menu_35:
        RCALL	?Subroutine77
??CrossCallReturnLabel_244:
        LDI	R16, 167
        RCALL	?Subroutine6
??CrossCallReturnLabel_550:
        LDI	R18, LOW((versia + 355))
        LDI	R19, HIGH((versia + 355))
        RJMP	??read_menu_34
??read_menu_36:
        RCALL	?Subroutine77
??CrossCallReturnLabel_245:
        LDI	R16, 169
        RCALL	?Subroutine6
??CrossCallReturnLabel_549:
        LDI	R18, LOW((versia + 373))
        LDI	R19, HIGH((versia + 373))
        RJMP	??read_menu_29
??read_menu_37:
        LDI	R20, 1
        RCALL	??Subroutine77_0
??CrossCallReturnLabel_246:
        LDI	R16, 171
        RCALL	?Subroutine6
??CrossCallReturnLabel_548:
        LDI	R18, LOW((versia + 434))
        LDI	R19, HIGH((versia + 434))
??read_menu_38:
        LDI	R16, 13
        RCALL	?Subroutine120
??CrossCallReturnLabel_161:
        LDI	R17, 0
        RJMP	??CrossCallReturnLabel_309
??read_menu_39:
        LDI	R20, 1
        RCALL	??Subroutine77_0
??CrossCallReturnLabel_247:
        LDI	R16, 172
        RCALL	?Subroutine6
??CrossCallReturnLabel_547:
        LDI	R18, LOW((versia + 447))
        LDI	R19, HIGH((versia + 447))
        RJMP	??read_menu_38
??read_menu_40:
        LDI	R19, 0
        RCALL	?Subroutine79
??CrossCallReturnLabel_94:
        STD	Y+13, R16
        STD	Y+14, R19
        RCALL	?Subroutine174
??CrossCallReturnLabel_541:
        LDI	R18, LOW((versia + 460))
        LDI	R19, HIGH((versia + 460))
        LDI	R16, 16
        RJMP	??read_menu_21
??read_menu_41:
        LDI	R20, 60
        RCALL	??Subroutine77_0
??CrossCallReturnLabel_248:
        LDI	R16, 250
        RCALL	?Subroutine6
??CrossCallReturnLabel_546:
        LDI	R18, LOW((versia + 85))
        LDI	R19, HIGH((versia + 85))
??read_menu_42:
        LDI	R16, 13
        RJMP	??read_menu_8
??read_menu_43:
        LDI	R20, 60
        RCALL	??Subroutine77_0
??CrossCallReturnLabel_249:
        RCALL	?Subroutine99
??CrossCallReturnLabel_397:
        RCALL	?Subroutine174
??CrossCallReturnLabel_540:
        LDI	R18, LOW((versia + 98))
        LDI	R19, HIGH((versia + 98))
        RJMP	??read_menu_42
??read_menu_44:
        RCALL	?Subroutine84
??CrossCallReturnLabel_113:
        SUBI	R18, 243
        RCALL	?Subroutine52
??CrossCallReturnLabel_391:
        RCALL	?Subroutine174
??CrossCallReturnLabel_539:
        LDI	R18, LOW((versia + 111))
        LDI	R19, HIGH((versia + 111))
        RJMP	??read_menu_42
??read_menu_45:
        RCALL	?Subroutine174
??CrossCallReturnLabel_538:
        LDI	R18, LOW((versia + 476))
        LDI	R19, HIGH((versia + 476))
        RCALL	?Subroutine105
??CrossCallReturnLabel_379:
        LDS	R16, struct_tcc1
        SBRS	R16, 0
        RJMP	??read_menu_46
        LDI	R16, 48
        RJMP	??read_menu_47
??read_menu_46:
        LDI	R16, 49
??read_menu_47:
        RCALL	?Subroutine173
??CrossCallReturnLabel_497:
        LDS	R16, struct_tcc2
        SBRS	R16, 0
        RJMP	??read_menu_48
??read_menu_49:
        LDI	R16, 48
        RJMP	??read_menu_14
// 1304                 mov_lf(); 
// 1305                 s_port('>');
// 1306                 break;
// 1307                 
// 1308     case 26:     
// 1309   
// 1310                mov_lf();        
??read_menu_50:
        RCALL	?Subroutine174
// 1311                mov_s ( sizeof(zp_vosst),zp_vosst);     
??CrossCallReturnLabel_537:
        LDI	R18, LOW((versia + 502))
        LDI	R19, HIGH((versia + 502))
        LDI	R16, 16
        RJMP	??read_menu_2
// 1312                mov_lf(); 
// 1313                s_port('>');
// 1314                break; 
// 1315    case 27:
// 1316            burst_ds_r();
??read_menu_51:
        RCALL	?Subroutine106
// 1317            mov_lf();                                   
// 1318            mov_s ( sizeof(zp_time),zp_time);                              
??CrossCallReturnLabel_565:
        LDI	R18, LOW((versia + 518))
        LDI	R19, HIGH((versia + 518))
        RCALL	?Subroutine121
// 1319            i=(unsigned char)real_time.r_hor;
// 1320            sprintf(massiv,"%d\0",i);
??CrossCallReturnLabel_377:
        MOVW	R31:R30, R25:R24
        LDD	R16, Z+2
        RCALL	?Subroutine12
// 1321            mov_massiv(strlen(massiv),massiv);
// 1322            s_port(':');
// 1323            i=(unsigned char)real_time.r_min;
// 1324            sprintf(massiv,"%d\0",i);
??CrossCallReturnLabel_302:
        LDD	R16, Z+1
        RCALL	?Subroutine12
// 1325            mov_massiv(strlen(massiv),massiv);
// 1326            s_port(':');
// 1327            i=(unsigned char)real_time.r_sec;
// 1328            sprintf(massiv,"%d\0",i);
??CrossCallReturnLabel_303:
        LD	R16, Z
        RJMP	??read_menu_18
// 1329            mov_massiv(strlen(massiv),massiv);
// 1330            mov_lf(); 
// 1331            s_port('>'); 
// 1332            break; 
// 1333  
// 1334    case 28:
// 1335            burst_ds_r();
??read_menu_52:
        RCALL	?Subroutine106
// 1336            mov_lf();                                   
// 1337            mov_s ( sizeof(zp_date),zp_date);                              
??CrossCallReturnLabel_564:
        LDI	R18, LOW((versia + 527))
        LDI	R19, HIGH((versia + 527))
        RCALL	?Subroutine121
// 1338            i=(unsigned char)real_time.r_date;
// 1339            sprintf(massiv,"%d\0",i);
??CrossCallReturnLabel_376:
        MOVW	R31:R30, R25:R24
        LDD	R16, Z+4
        RCALL	?Subroutine10
// 1340            mov_massiv(strlen(massiv),massiv);
// 1341            s_port('.'); 
// 1342            i=(unsigned char)real_time.r_month;
// 1343            sprintf(massiv,"%d\0",i);
??CrossCallReturnLabel_300:
        LDD	R16, Z+5
        RCALL	?Subroutine10
// 1344            mov_massiv(strlen(massiv),massiv);
// 1345            s_port('.');
// 1346            i=(unsigned char)real_time.r_year;
// 1347            sprintf(massiv,"%d\0",i);
??CrossCallReturnLabel_301:
        LDD	R16, Z+6
        RJMP	??read_menu_18
// 1348            mov_massiv(strlen(massiv),massiv);
// 1349            mov_lf(); 
// 1350            s_port('>'); 
// 1351            break;            
// 1352             
// 1353   case 29:      
// 1354             mov_lf(); 
??read_menu_53:
        RCALL	?Subroutine174
// 1355             mov_s ( sizeof(zp_log_file),zp_log_file);                                  
??CrossCallReturnLabel_536:
        LDI	R18, LOW((versia + 536))
        LDI	R19, HIGH((versia + 536))
        LDI	R16, 13
        RCALL	?Subroutine166
// 1356             for(i=0;i<=6;i++) s_port('-');                                          
??CrossCallReturnLabel_372:
        LDI	R24, 7
??read_menu_54:
        LDI	R16, 45
        RCALL	?Subroutine173
??CrossCallReturnLabel_496:
        DEC	R24
        BRNE	$+2+2
        RJMP	??CrossCallReturnLabel_501
        RJMP	??read_menu_54
// 1357             mov_lf(); 
// 1358             s_port('>');     
// 1359             break;          
// 1360   case 30:  
// 1361             mov_lf(); 
??read_menu_55:
        RCALL	?Subroutine174
// 1362             mov_s ( sizeof(zp_keys),zp_keys);                                  
??CrossCallReturnLabel_535:
        LDI	R18, LOW((versia + 549))
        LDI	R19, HIGH((versia + 549))
        LDI	R16, 12
        RCALL	?Subroutine166
// 1363          //   for(i=0;i<=6;i++) s_port('-');                                          
// 1364          //   mov_lf(); 
// 1365          //   s_port('>');  
// 1366             RdFromFleshToArr(A_KEYS,&buf[0],L_KEYS); 
??CrossCallReturnLabel_371:
        LDI	R20, 10
        RCALL	??Subroutine77_0
??CrossCallReturnLabel_250:
        RCALL	?Subroutine110
??CrossCallReturnLabel_135:
        RCALL	?Subroutine168
// 1367            
// 1368             for(i=0;i<8;i++)buf[20+i]=keys_def[i];
??CrossCallReturnLabel_392:
        LDI	R24, 0
??read_menu_56:
        LDI	R17, 0
        LDI	R30, LOW((versia + 22))
        LDI	R31, HIGH((versia + 22))
        ADD	R30, R24
        ADC	R31, R17
        LPM	R18, Z
        MOVW	R31:R30, R29:R28
        ADIW	R31:R30, 33
        ADD	R30, R24
        ADC	R31, R17
        ST	Z, R18
        INC	R24
        CPI	R24, 8
        BRCS	??read_menu_56
// 1369             
// 1370             if(memcmp(&buf[0],&buf[20],8)==0)
        LDI	R20, 8
        RCALL	??Subroutine84_0
??CrossCallReturnLabel_114:
        SUBI	R18, 223
        SBCI	R19, 255
        MOVW	R17:R16, R29:R28
        SUBI	R16, 243
        SBCI	R17, 255
        CALL	memcmp
        OR	R16, R17
        BRNE	??read_menu_57
// 1371             {
// 1372               s_port('d');
        LDI	R16, 100
        RCALL	?Subroutine173
// 1373               s_port('e');
??CrossCallReturnLabel_495:
        LDI	R16, 101
        RJMP	??read_menu_32
// 1374               s_port('f');
// 1375             }
// 1376             else
// 1377             {
// 1378               s_port('*');
??read_menu_57:
        LDI	R16, 42
        RCALL	?Subroutine173
// 1379               s_port('*');
??CrossCallReturnLabel_494:
        LDI	R16, 42
        RCALL	?Subroutine173
// 1380               s_port('*');
??CrossCallReturnLabel_493:
        LDI	R16, 42
        RJMP	??read_menu_14
// 1381             }
// 1382                
// 1383            // s_port(buf[0]);
// 1384            // s_port(buf[1]);
// 1385            // s_port(buf[2]);
// 1386            // s_port(buf[3]);
// 1387            // s_port(buf[4]);
// 1388            // s_port(buf[5]);
// 1389            // s_port(buf[6]);
// 1390            // s_port(buf[7]);
// 1391            // s_port(buf[8]);
// 1392            // s_port(buf[9]);
// 1393             
// 1394             mov_lf(); 
// 1395             s_port('>');
// 1396             break;       
// 1397             
// 1398    case 31:
// 1399           mov_lf();
??read_menu_58:
        RCALL	?Subroutine165
// 1400           mov_s ( sizeof(zp_pinsim1),zp_pinsim1);
??CrossCallReturnLabel_534:
        LDI	R18, LOW((versia + 561))
        LDI	R19, HIGH((versia + 561))
        RCALL	?Subroutine118
// 1401           RdFromFleshToArr(A_PIN_SIM1,&buf[0],4);
??CrossCallReturnLabel_153:
        RCALL	??Subroutine77_0
??CrossCallReturnLabel_251:
        LDI	R16, 175
??read_menu_59:
        RCALL	??Subroutine29_0
// 1402           s_port(buf[0]);
??CrossCallReturnLabel_382:
        LDD	R16, Y+13
        RCALL	?Subroutine173
// 1403           s_port(buf[1]);
??CrossCallReturnLabel_492:
        LDD	R16, Y+14
        RCALL	?Subroutine173
// 1404           s_port(buf[2]);
??CrossCallReturnLabel_491:
        LDD	R16, Y+15
        RCALL	?Subroutine173
// 1405           s_port(buf[3]);
??CrossCallReturnLabel_490:
        LDD	R16, Y+16
        RJMP	??read_menu_14
// 1406           mov_lf(); 
// 1407           s_port('>');
// 1408           break;
// 1409  
// 1410    case 32:
// 1411           mov_lf();
??read_menu_60:
        RCALL	?Subroutine165
// 1412           mov_s ( sizeof(zp_pinsim2),zp_pinsim2);
??CrossCallReturnLabel_533:
        LDI	R18, LOW((versia + 574))
        LDI	R19, HIGH((versia + 574))
        RCALL	?Subroutine118
// 1413           RdFromFleshToArr(A_PIN_SIM2,&buf[0],4);
??CrossCallReturnLabel_154:
        RCALL	??Subroutine77_0
??CrossCallReturnLabel_252:
        LDI	R16, 181
        RJMP	??read_menu_59
// 1414           s_port(buf[0]);
// 1415           s_port(buf[1]);
// 1416           s_port(buf[2]);
// 1417           s_port(buf[3]);
// 1418           mov_lf(); 
// 1419           s_port('>');
// 1420           break;
// 1421   
// 1422    case 33:
// 1423         
// 1424         mov_lf();
??read_menu_61:
        RCALL	?Subroutine165
// 1425         mov_s ( sizeof(zp_traffic),zp_traffic);
??CrossCallReturnLabel_532:
        LDI	R18, LOW((versia + 587))
        LDI	R19, HIGH((versia + 587))
        LDI	R16, 22
        RCALL	??Subroutine118_0
// 1426 
// 1427         RdFromFleshToArr(A_TRAF+4,&buf[0],4);        
??CrossCallReturnLabel_155:
        RCALL	??Subroutine77_0
??CrossCallReturnLabel_253:
        LDI	R16, 2
        RCALL	?Subroutine72
// 1428         sprintf(massiv,"%lu\0",*(unsigned long int*)&buf[0]);
// 1429         mov_massiv(strlen(massiv),massiv);      
??CrossCallReturnLabel_82:
        CALL	??Subroutine49_1
// 1430 
// 1431         
// 1432         s_port(' '); 
// 1433         s_port(':'); 
??CrossCallReturnLabel_466:
        RCALL	?Subroutine114
// 1434         s_port(' '); 
??CrossCallReturnLabel_508:
        CALL	??Subroutine49_2
// 1435         
// 1436         memset(buf,0,70);
??CrossCallReturnLabel_465:
        LDI	R20, 70
        RCALL	?Subroutine86
??CrossCallReturnLabel_318:
        SUBI	R16, 243
        SBCI	R17, 255
        CALL	memset
// 1437         RdFromFleshToArr(A_TRAF+8,&buf[0],4);        
        LDI	R20, 4
        RCALL	??Subroutine77_0
??CrossCallReturnLabel_254:
        LDI	R16, 6
        RCALL	?Subroutine72
// 1438         sprintf(massiv,"%lu\0",*(unsigned long int*)&buf[0]);
// 1439         mov_massiv(strlen(massiv),massiv);   
??CrossCallReturnLabel_83:
        RJMP	??CrossCallReturnLabel_80
// 1440         
// 1441         mov_lf(); 
// 1442         s_port('>');      
// 1443                
// 1444         break;
// 1445         
// 1446  
// 1447  case 34:
// 1448                 mov_lf();
??read_menu_62:
        RCALL	?Subroutine165
// 1449                 mov_s ( sizeof(zp_ts_dop),zp_ts_dop);           
??CrossCallReturnLabel_531:
        LDI	R18, LOW((versia + 609))
        LDI	R19, HIGH((versia + 609))
        LDI	R16, 7
        RCALL	?Subroutine166
// 1450                 for(i=0;i<8;i++)if ((modbus_mem1[AD_TS]>>i)&0x01)s_port('1');else s_port('0');
??CrossCallReturnLabel_370:
        LDI	R24, 0
        RJMP	??read_menu_63
??read_menu_64:
        LDI	R16, 48
??read_menu_65:
        CALL	?Subroutine111
??CrossCallReturnLabel_138:
        BRCS	$+2+2
        RJMP	??CrossCallReturnLabel_501
??read_menu_63:
        MOVW	R31:R30, R27:R26
        CALL	??Subroutine130_0
??CrossCallReturnLabel_170:
        MOV	R20, R24
        CALL	?US_SHR_L02
        ANDI	R16, 0x01
        BREQ	??read_menu_64
        LDI	R16, 49
        RJMP	??read_menu_65
// 1451                 mov_lf();
// 1452                 s_port('>');  
// 1453                 break; 
// 1454   
// 1455  case 35:
// 1456                
// 1457                 
// 1458                 mov_lf();
??read_menu_66:
        RCALL	?Subroutine165
// 1459                 mov_s ( sizeof(zp_tit),zp_tit);     
??CrossCallReturnLabel_530:
        LDI	R18, LOW((versia + 616))
        LDI	R19, HIGH((versia + 616))
        LDI	R16, 7
        RCALL	?Subroutine166
// 1460                 sprintf(massiv,"%u\0",modbus_mem1[AD_TIT1]);
??CrossCallReturnLabel_369:
        MOVW	R31:R30, R27:R26
        CALL	?Subroutine49
// 1461                 mov_massiv(strlen(massiv),massiv);
// 1462                 s_port(' ');
// 1463                 sprintf(massiv,"%u\0",modbus_mem1[AD_TIT2]);
??CrossCallReturnLabel_469:
        MOVW	R31:R30, R27:R26
        LDD	R16, Z+34
        LDD	R17, Z+35
        RJMP	??CrossCallReturnLabel_309
// 1464                 mov_massiv(strlen(massiv),massiv);
// 1465                 mov_lf(); 
// 1466                 s_port('>');
// 1467                 break;             
// 1468  case 36:      
// 1469             mov_lf(); 
??read_menu_67:
        RCALL	?Subroutine165
// 1470             mov_s ( sizeof(zp_tu),zp_tu);                                  
??CrossCallReturnLabel_529:
        LDI	R18, LOW((versia + 623))
        LDI	R19, HIGH((versia + 623))
        RCALL	?Subroutine105
// 1471             if(PORTA & IO11)s_port('1');else s_port('0');
??CrossCallReturnLabel_378:
        SBIS	0x02, 0x04
        RJMP	??read_menu_68
        LDI	R16, 49
        RJMP	??read_menu_69
??read_menu_68:
        LDI	R16, 48
??read_menu_69:
        RCALL	??Subroutine167_0
// 1472             if(PORTA & IO12)s_port('1');else s_port('0');
??CrossCallReturnLabel_489:
        SBIS	0x02, 0x03
        RJMP	??read_menu_49
??read_menu_48:
        LDI	R16, 49
        RJMP	??read_menu_14
// 1473             mov_lf(); 
// 1474             s_port('>');     
// 1475             break; 
// 1476  
// 1477 case 37:     
// 1478    
// 1479                mov_lf();        
??read_menu_70:
        RCALL	?Subroutine165
// 1480                mov_s ( sizeof(zp_tii1),zp_tii1);
??CrossCallReturnLabel_528:
        LDI	R18, LOW((versia + 633))
        LDI	R19, HIGH((versia + 633))
        RCALL	?Subroutine121
// 1481                sprintf(massiv,"%u\0",modbus_mem1[AD_TII1]);
??CrossCallReturnLabel_375:
        LD	R16, X+
        LD	R17, X
        RJMP	??CrossCallReturnLabel_309
// 1482                mov_massiv(strlen(massiv),massiv);      
// 1483                mov_lf(); 
// 1484                s_port('>');
// 1485                break;         
// 1486 
// 1487 case 38: 
// 1488                 //  RdFromFleshToArr(A_SEL_MODUL,&buf[0],1);
// 1489                   buf[0]=sel_modul;
??read_menu_71:
        LDS	R16, sel_modul
        STD	Y+13, R16
// 1490                   mov_lf(); 
        RCALL	?Subroutine165
// 1491                   mov_s ( sizeof(zp_sel_mod),zp_sel_mod);   
??CrossCallReturnLabel_527:
        LDI	R18, LOW((versia + 642))
        LDI	R19, HIGH((versia + 642))
        LDI	R16, 9
        RCALL	?Subroutine119
// 1492                   if(buf[0]==1)
??CrossCallReturnLabel_157:
        LDI	R16, 77
        BRNE	??read_menu_72
// 1493                     {
// 1494                     s_port('M');
        RCALL	??Subroutine167_0
// 1495                     s_port('K');
??CrossCallReturnLabel_488:
        LDI	R16, 75
        RCALL	??Subroutine167_0
// 1496                     s_port('D');
??CrossCallReturnLabel_487:
        LDI	R16, 68
        RJMP	??read_menu_14
// 1497                     } 
// 1498                     else
// 1499                      { 
// 1500                         s_port('M');
??read_menu_72:
        RCALL	??Subroutine167_0
// 1501                         s_port('T');
??CrossCallReturnLabel_486:
        LDI	R16, 84
        RCALL	??Subroutine167_0
// 1502                         s_port('S');
??CrossCallReturnLabel_485:
        LDI	R16, 83
        RJMP	??read_menu_14
// 1503                      }
// 1504                   mov_lf(); 
// 1505                   s_port('>');                 
// 1506                   break;        
// 1507   
// 1508  case 39:     
// 1509    
// 1510                mov_lf();        
??read_menu_73:
        RCALL	?Subroutine165
// 1511                mov_s ( sizeof(init_sim900),init_sim900);
??CrossCallReturnLabel_526:
        LDI	R18, LOW((versia + 186))
        LDI	R19, HIGH((versia + 186))
        LDI	R16, 15
        RCALL	?Subroutine166
// 1512                fun_init_sim900();
??CrossCallReturnLabel_368:
        CALL	fun_init_sim900
// 1513                  
// 1514                mov_lf(); 
        RCALL	?Subroutine103
// 1515                s_port('>');
// 1516                
// 1517               mov_s ( sizeof(term_900),term_900);
??CrossCallReturnLabel_477:
        LDI	R18, LOW((versia + 201))
        LDI	R19, HIGH((versia + 201))
        LDI	R16, 13
        RCALL	?Subroutine166
// 1518               mov_lf();
??CrossCallReturnLabel_367:
        RCALL	?Subroutine165
// 1519               index_pa=41;
??CrossCallReturnLabel_525:
        LDI	R16, 41
        STS	(fl_at_mom_232 + 1), R16
// 1520                break;   
// 1521                
// 1522   case 40:     
// 1523    
// 1524            //    mov_lf();        
// 1525            //    mov_s ( sizeof(command_900),command_900);
// 1526                
// 1527               
// 1528                break;                
// 1529                
// 1530           
// 1531   default: goto menu_beg;                    
// 1532                                  
// 1533      }
// 1534   vol_tx_ppp=0;
??read_menu_15:
        RCALL	?Subroutine2
// 1535   }
??CrossCallReturnLabel_319:
        ADIW	R29:R28, 63
        CFI CFA_Y Y+25
        ADIW	R29:R28, 20
        CFI CFA_Y Y+5
        LDI	R30, 5
        JMP	?EPILOGUE_B5_L09
        CFI EndBlock cfiBlock225

        RSEG FARCODE:CODE:NOROOT(1)
?Subroutine122:
        CFI Block cfiCond226 Using cfiCommon0
        CFI NoFunction
        CFI Conditional ??CrossCallReturnLabel_308
        CFI R24 Frame(CFA_Y, -5)
        CFI R25 Frame(CFA_Y, -4)
        CFI R26 Frame(CFA_Y, -3)
        CFI R27 Frame(CFA_Y, -2)
        CFI R4 Frame(CFA_Y, -1)
        CFI CFA_SP SP+6
        CFI CFA_Y Y+88
        CFI Block cfiCond227 Using cfiCommon0
        CFI (cfiCond227) NoFunction
        CFI (cfiCond227) Conditional ??CrossCallReturnLabel_309
        CFI (cfiCond227) R24 Frame(CFA_Y, -5)
        CFI (cfiCond227) R25 Frame(CFA_Y, -4)
        CFI (cfiCond227) R26 Frame(CFA_Y, -3)
        CFI (cfiCond227) R27 Frame(CFA_Y, -2)
        CFI (cfiCond227) R4 Frame(CFA_Y, -1)
        CFI (cfiCond227) CFA_SP SP+6
        CFI (cfiCond227) CFA_Y Y+88
        CFI Block cfiPicker228 Using cfiCommon1
        CFI (cfiPicker228) NoFunction
        CFI (cfiPicker228) Picker
        LDI	R30, LOW(temperatura)
        LDI	R31, (temperatura) >> 8
        CFI EndBlock cfiCond226
        CFI EndBlock cfiCond227
        CFI EndBlock cfiPicker228
        REQUIRE ?Subroutine156
        ;		// Fall through to label ?Subroutine156

        RSEG FARCODE:CODE:NOROOT(1)
?Subroutine156:
        CFI Block cfiCond229 Using cfiCommon0
        CFI NoFunction
        CFI Conditional ??CrossCallReturnLabel_308
        CFI R24 Frame(CFA_Y, -5)
        CFI R25 Frame(CFA_Y, -4)
        CFI R26 Frame(CFA_Y, -3)
        CFI R27 Frame(CFA_Y, -2)
        CFI R4 Frame(CFA_Y, -1)
        CFI CFA_SP SP+6
        CFI CFA_Y Y+88
        CFI Block cfiCond230 Using cfiCommon0
        CFI (cfiCond230) NoFunction
        CFI (cfiCond230) Conditional ??CrossCallReturnLabel_309
        CFI (cfiCond230) R24 Frame(CFA_Y, -5)
        CFI (cfiCond230) R25 Frame(CFA_Y, -4)
        CFI (cfiCond230) R26 Frame(CFA_Y, -3)
        CFI (cfiCond230) R27 Frame(CFA_Y, -2)
        CFI (cfiCond230) R4 Frame(CFA_Y, -1)
        CFI (cfiCond230) CFA_SP SP+6
        CFI (cfiCond230) CFA_Y Y+88
        CFI Block cfiCond231 Using cfiCommon0
        CFI (cfiCond231) NoFunction
        CFI (cfiCond231) Conditional ??CrossCallReturnLabel_310
        CFI (cfiCond231) R24 Frame(CFA_Y, -9)
        CFI (cfiCond231) R25 Frame(CFA_Y, -8)
        CFI (cfiCond231) R26 Frame(CFA_Y, -7)
        CFI (cfiCond231) R27 Frame(CFA_Y, -6)
        CFI (cfiCond231) R4 Frame(CFA_Y, -5)
        CFI (cfiCond231) R5 Frame(CFA_Y, -4)
        CFI (cfiCond231) R6 Frame(CFA_Y, -3)
        CFI (cfiCond231) R7 Frame(CFA_Y, -2)
        CFI (cfiCond231) R8 Frame(CFA_Y, -1)
        CFI (cfiCond231) CFA_SP SP+6
        CFI (cfiCond231) CFA_Y Y+83
        CFI Block cfiCond232 Using cfiCommon0
        CFI (cfiCond232) NoFunction
        CFI (cfiCond232) Conditional ??CrossCallReturnLabel_311
        CFI (cfiCond232) R24 Frame(CFA_Y, -9)
        CFI (cfiCond232) R25 Frame(CFA_Y, -8)
        CFI (cfiCond232) R26 Frame(CFA_Y, -7)
        CFI (cfiCond232) R27 Frame(CFA_Y, -6)
        CFI (cfiCond232) R4 Frame(CFA_Y, -5)
        CFI (cfiCond232) R5 Frame(CFA_Y, -4)
        CFI (cfiCond232) R6 Frame(CFA_Y, -3)
        CFI (cfiCond232) R7 Frame(CFA_Y, -2)
        CFI (cfiCond232) R8 Frame(CFA_Y, -1)
        CFI (cfiCond232) CFA_SP SP+6
        CFI (cfiCond232) CFA_Y Y+83
        CFI Block cfiCond233 Using cfiCommon0
        CFI (cfiCond233) NoFunction
        CFI (cfiCond233) Conditional ??CrossCallReturnLabel_312
        CFI (cfiCond233) R24 Frame(CFA_Y, -9)
        CFI (cfiCond233) R25 Frame(CFA_Y, -8)
        CFI (cfiCond233) R26 Frame(CFA_Y, -7)
        CFI (cfiCond233) R27 Frame(CFA_Y, -6)
        CFI (cfiCond233) R4 Frame(CFA_Y, -5)
        CFI (cfiCond233) R5 Frame(CFA_Y, -4)
        CFI (cfiCond233) R6 Frame(CFA_Y, -3)
        CFI (cfiCond233) R7 Frame(CFA_Y, -2)
        CFI (cfiCond233) R8 Frame(CFA_Y, -1)
        CFI (cfiCond233) CFA_SP SP+6
        CFI (cfiCond233) CFA_Y Y+83
        CFI Block cfiCond234 Using cfiCommon0
        CFI (cfiCond234) NoFunction
        CFI (cfiCond234) Conditional ??CrossCallReturnLabel_313
        CFI (cfiCond234) R24 Frame(CFA_Y, -9)
        CFI (cfiCond234) R25 Frame(CFA_Y, -8)
        CFI (cfiCond234) R26 Frame(CFA_Y, -7)
        CFI (cfiCond234) R27 Frame(CFA_Y, -6)
        CFI (cfiCond234) R4 Frame(CFA_Y, -5)
        CFI (cfiCond234) R5 Frame(CFA_Y, -4)
        CFI (cfiCond234) R6 Frame(CFA_Y, -3)
        CFI (cfiCond234) R7 Frame(CFA_Y, -2)
        CFI (cfiCond234) R8 Frame(CFA_Y, -1)
        CFI (cfiCond234) CFA_SP SP+6
        CFI (cfiCond234) CFA_Y Y+83
        CFI Block cfiCond235 Using cfiCommon0
        CFI (cfiCond235) NoFunction
        CFI (cfiCond235) Conditional ??CrossCallReturnLabel_314
        CFI (cfiCond235) R24 Frame(CFA_Y, -4)
        CFI (cfiCond235) R25 Frame(CFA_Y, -3)
        CFI (cfiCond235) R26 Frame(CFA_Y, -2)
        CFI (cfiCond235) R27 Frame(CFA_Y, -1)
        CFI (cfiCond235) CFA_SP SP+6
        CFI (cfiCond235) CFA_Y Y+6
        CFI Block cfiPicker236 Using cfiCommon1
        CFI (cfiPicker236) NoFunction
        CFI (cfiPicker236) Picker
        LD	R16, Z
        LDD	R17, Z+1
        RET
        CFI EndBlock cfiCond229
        CFI EndBlock cfiCond230
        CFI EndBlock cfiCond231
        CFI EndBlock cfiCond232
        CFI EndBlock cfiCond233
        CFI EndBlock cfiCond234
        CFI EndBlock cfiCond235
        CFI EndBlock cfiPicker236

        RSEG FARCODE:CODE:NOROOT(1)
?Subroutine120:
        CFI Block cfiCond237 Using cfiCommon0
        CFI NoFunction
        CFI Conditional ??CrossCallReturnLabel_158
        CFI R24 Frame(CFA_Y, -5)
        CFI R25 Frame(CFA_Y, -4)
        CFI R26 Frame(CFA_Y, -3)
        CFI R27 Frame(CFA_Y, -2)
        CFI R4 Frame(CFA_Y, -1)
        CFI CFA_SP SP+6
        CFI CFA_Y Y+88
        CFI Block cfiCond238 Using cfiCommon0
        CFI (cfiCond238) NoFunction
        CFI (cfiCond238) Conditional ??CrossCallReturnLabel_159
        CFI (cfiCond238) R24 Frame(CFA_Y, -5)
        CFI (cfiCond238) R25 Frame(CFA_Y, -4)
        CFI (cfiCond238) R26 Frame(CFA_Y, -3)
        CFI (cfiCond238) R27 Frame(CFA_Y, -2)
        CFI (cfiCond238) R4 Frame(CFA_Y, -1)
        CFI (cfiCond238) CFA_SP SP+6
        CFI (cfiCond238) CFA_Y Y+88
        CFI Block cfiCond239 Using cfiCommon0
        CFI (cfiCond239) NoFunction
        CFI (cfiCond239) Conditional ??CrossCallReturnLabel_160
        CFI (cfiCond239) R24 Frame(CFA_Y, -5)
        CFI (cfiCond239) R25 Frame(CFA_Y, -4)
        CFI (cfiCond239) R26 Frame(CFA_Y, -3)
        CFI (cfiCond239) R27 Frame(CFA_Y, -2)
        CFI (cfiCond239) R4 Frame(CFA_Y, -1)
        CFI (cfiCond239) CFA_SP SP+6
        CFI (cfiCond239) CFA_Y Y+88
        CFI Block cfiCond240 Using cfiCommon0
        CFI (cfiCond240) NoFunction
        CFI (cfiCond240) Conditional ??CrossCallReturnLabel_161
        CFI (cfiCond240) R24 Frame(CFA_Y, -5)
        CFI (cfiCond240) R25 Frame(CFA_Y, -4)
        CFI (cfiCond240) R26 Frame(CFA_Y, -3)
        CFI (cfiCond240) R27 Frame(CFA_Y, -2)
        CFI (cfiCond240) R4 Frame(CFA_Y, -1)
        CFI (cfiCond240) CFA_SP SP+6
        CFI (cfiCond240) CFA_Y Y+88
        CFI Block cfiPicker241 Using cfiCommon1
        CFI (cfiPicker241) NoFunction
        CFI (cfiPicker241) Picker
        CALL	mov_s
        LDD	R16, Y+13
        RET
        CFI EndBlock cfiCond237
        CFI EndBlock cfiCond238
        CFI EndBlock cfiCond239
        CFI EndBlock cfiCond240
        CFI EndBlock cfiPicker241

        RSEG FARCODE:CODE:NOROOT(1)
?Subroutine119:
        CFI Block cfiCond242 Using cfiCommon0
        CFI NoFunction
        CFI Conditional ??CrossCallReturnLabel_156
        CFI R24 Frame(CFA_Y, -5)
        CFI R25 Frame(CFA_Y, -4)
        CFI R26 Frame(CFA_Y, -3)
        CFI R27 Frame(CFA_Y, -2)
        CFI R4 Frame(CFA_Y, -1)
        CFI CFA_SP SP+6
        CFI CFA_Y Y+88
        CFI Block cfiCond243 Using cfiCommon0
        CFI (cfiCond243) NoFunction
        CFI (cfiCond243) Conditional ??CrossCallReturnLabel_157
        CFI (cfiCond243) R24 Frame(CFA_Y, -5)
        CFI (cfiCond243) R25 Frame(CFA_Y, -4)
        CFI (cfiCond243) R26 Frame(CFA_Y, -3)
        CFI (cfiCond243) R27 Frame(CFA_Y, -2)
        CFI (cfiCond243) R4 Frame(CFA_Y, -1)
        CFI (cfiCond243) CFA_SP SP+6
        CFI (cfiCond243) CFA_Y Y+88
        CFI Block cfiPicker244 Using cfiCommon1
        CFI (cfiPicker244) NoFunction
        CFI (cfiPicker244) Picker
        CALL	mov_s
        LDD	R16, Y+13
        CPI	R16, 1
        RET
        CFI EndBlock cfiCond242
        CFI EndBlock cfiCond243
        CFI EndBlock cfiPicker244

        RSEG FARCODE:CODE:NOROOT(1)
?Subroutine118:
        CFI Block cfiCond245 Using cfiCommon0
        CFI NoFunction
        CFI Conditional ??CrossCallReturnLabel_153
        CFI R24 Frame(CFA_Y, -5)
        CFI R25 Frame(CFA_Y, -4)
        CFI R26 Frame(CFA_Y, -3)
        CFI R27 Frame(CFA_Y, -2)
        CFI R4 Frame(CFA_Y, -1)
        CFI CFA_SP SP+6
        CFI CFA_Y Y+88
        CFI Block cfiCond246 Using cfiCommon0
        CFI (cfiCond246) NoFunction
        CFI (cfiCond246) Conditional ??CrossCallReturnLabel_154
        CFI (cfiCond246) R24 Frame(CFA_Y, -5)
        CFI (cfiCond246) R25 Frame(CFA_Y, -4)
        CFI (cfiCond246) R26 Frame(CFA_Y, -3)
        CFI (cfiCond246) R27 Frame(CFA_Y, -2)
        CFI (cfiCond246) R4 Frame(CFA_Y, -1)
        CFI (cfiCond246) CFA_SP SP+6
        CFI (cfiCond246) CFA_Y Y+88
        CFI Block cfiPicker247 Using cfiCommon1
        CFI (cfiPicker247) NoFunction
        CFI (cfiPicker247) Picker
        LDI	R16, 13
        CFI Block cfiCond248 Using cfiCommon0
        CFI (cfiCond248) NoFunction
        CFI (cfiCond248) Conditional ??CrossCallReturnLabel_155
        CFI (cfiCond248) R24 Frame(CFA_Y, -5)
        CFI (cfiCond248) R25 Frame(CFA_Y, -4)
        CFI (cfiCond248) R26 Frame(CFA_Y, -3)
        CFI (cfiCond248) R27 Frame(CFA_Y, -2)
        CFI (cfiCond248) R4 Frame(CFA_Y, -1)
        CFI (cfiCond248) CFA_SP SP+6
        CFI (cfiCond248) CFA_Y Y+88
??Subroutine118_0:
        CALL	mov_s
        LDI	R20, 4
        RET
        CFI EndBlock cfiCond245
        CFI EndBlock cfiCond246
        CFI EndBlock cfiPicker247
        CFI EndBlock cfiCond248

        RSEG FARCODE:CODE:NOROOT(1)
?Subroutine112:
        CFI Block cfiCond249 Using cfiCommon0
        CFI NoFunction
        CFI Conditional ??CrossCallReturnLabel_298
        CFI R24 Frame(CFA_Y, -5)
        CFI R25 Frame(CFA_Y, -4)
        CFI R26 Frame(CFA_Y, -3)
        CFI R27 Frame(CFA_Y, -2)
        CFI R4 Frame(CFA_Y, -1)
        CFI CFA_SP SP+6
        CFI CFA_Y Y+88
        CFI Block cfiCond250 Using cfiCommon0
        CFI (cfiCond250) NoFunction
        CFI (cfiCond250) Conditional ??CrossCallReturnLabel_299
        CFI (cfiCond250) R24 Frame(CFA_Y, -5)
        CFI (cfiCond250) R25 Frame(CFA_Y, -4)
        CFI (cfiCond250) R26 Frame(CFA_Y, -3)
        CFI (cfiCond250) R27 Frame(CFA_Y, -2)
        CFI (cfiCond250) R4 Frame(CFA_Y, -1)
        CFI (cfiCond250) CFA_SP SP+6
        CFI (cfiCond250) CFA_Y Y+88
        CFI Block cfiPicker251 Using cfiCommon1
        CFI (cfiPicker251) NoFunction
        CFI (cfiPicker251) Picker
        LDI	R16, 34
        CALL	s_port
        LDI	R16, 34
        CFI EndBlock cfiCond249
        CFI EndBlock cfiCond250
        CFI EndBlock cfiPicker251
        REQUIRE ?Subroutine153
        ;		// Fall through to label ?Subroutine153

        RSEG FARCODE:CODE:NOROOT(1)
?Subroutine153:
        CFI Block cfiCond252 Using cfiCommon0
        CFI NoFunction
        CFI Conditional ??CrossCallReturnLabel_298
        CFI R24 Frame(CFA_Y, -5)
        CFI R25 Frame(CFA_Y, -4)
        CFI R26 Frame(CFA_Y, -3)
        CFI R27 Frame(CFA_Y, -2)
        CFI R4 Frame(CFA_Y, -1)
        CFI CFA_SP SP+6
        CFI CFA_Y Y+88
        CFI Block cfiCond253 Using cfiCommon0
        CFI (cfiCond253) NoFunction
        CFI (cfiCond253) Conditional ??CrossCallReturnLabel_299
        CFI (cfiCond253) R24 Frame(CFA_Y, -5)
        CFI (cfiCond253) R25 Frame(CFA_Y, -4)
        CFI (cfiCond253) R26 Frame(CFA_Y, -3)
        CFI (cfiCond253) R27 Frame(CFA_Y, -2)
        CFI (cfiCond253) R4 Frame(CFA_Y, -1)
        CFI (cfiCond253) CFA_SP SP+6
        CFI (cfiCond253) CFA_Y Y+88
        CFI Block cfiCond254 Using cfiCommon0
        CFI (cfiCond254) NoFunction
        CFI (cfiCond254) Conditional ??CrossCallReturnLabel_296
        CFI (cfiCond254) R24 Frame(CFA_Y, -5)
        CFI (cfiCond254) R25 Frame(CFA_Y, -4)
        CFI (cfiCond254) R26 Frame(CFA_Y, -3)
        CFI (cfiCond254) R27 Frame(CFA_Y, -2)
        CFI (cfiCond254) R4 Frame(CFA_Y, -1)
        CFI (cfiCond254) CFA_SP SP+6
        CFI (cfiCond254) CFA_Y Y+88
        CFI Block cfiCond255 Using cfiCommon0
        CFI (cfiCond255) NoFunction
        CFI (cfiCond255) Conditional ??CrossCallReturnLabel_297
        CFI (cfiCond255) R24 Frame(CFA_Y, -5)
        CFI (cfiCond255) R25 Frame(CFA_Y, -4)
        CFI (cfiCond255) R26 Frame(CFA_Y, -3)
        CFI (cfiCond255) R27 Frame(CFA_Y, -2)
        CFI (cfiCond255) R4 Frame(CFA_Y, -1)
        CFI (cfiCond255) CFA_SP SP+6
        CFI (cfiCond255) CFA_Y Y+88
        CFI Block cfiPicker256 Using cfiCommon1
        CFI (cfiPicker256) NoFunction
        CFI (cfiPicker256) Picker
        CALL	s_port
        INC	R24
        RET
        CFI EndBlock cfiCond252
        CFI EndBlock cfiCond253
        CFI EndBlock cfiCond254
        CFI EndBlock cfiCond255
        CFI EndBlock cfiPicker256

        RSEG FARCODE:CODE:NOROOT(1)
?Subroutine106:
        CFI Block cfiCond257 Using cfiCommon0
        CFI NoFunction
        CFI Conditional ??CrossCallReturnLabel_565
        CFI R24 Frame(CFA_Y, -5)
        CFI R25 Frame(CFA_Y, -4)
        CFI R26 Frame(CFA_Y, -3)
        CFI R27 Frame(CFA_Y, -2)
        CFI R4 Frame(CFA_Y, -1)
        CFI CFA_SP SP+6
        CFI CFA_Y Y+88
        CFI Block cfiCond258 Using cfiCommon0
        CFI (cfiCond258) NoFunction
        CFI (cfiCond258) Conditional ??CrossCallReturnLabel_564
        CFI (cfiCond258) R24 Frame(CFA_Y, -5)
        CFI (cfiCond258) R25 Frame(CFA_Y, -4)
        CFI (cfiCond258) R26 Frame(CFA_Y, -3)
        CFI (cfiCond258) R27 Frame(CFA_Y, -2)
        CFI (cfiCond258) R4 Frame(CFA_Y, -1)
        CFI (cfiCond258) CFA_SP SP+6
        CFI (cfiCond258) CFA_Y Y+88
        CFI Block cfiPicker259 Using cfiCommon1
        CFI (cfiPicker259) NoFunction
        CFI (cfiPicker259) Picker
        CALL	burst_ds_r
        RJMP	?Subroutine165
        CFI EndBlock cfiCond257
        CFI EndBlock cfiCond258
        CFI EndBlock cfiPicker259

        RSEG FARCODE:CODE:NOROOT(1)
?Subroutine105:
        CFI Block cfiCond260 Using cfiCommon0
        CFI NoFunction
        CFI Conditional ??CrossCallReturnLabel_379
        CFI R24 Frame(CFA_Y, -5)
        CFI R25 Frame(CFA_Y, -4)
        CFI R26 Frame(CFA_Y, -3)
        CFI R27 Frame(CFA_Y, -2)
        CFI R4 Frame(CFA_Y, -1)
        CFI CFA_SP SP+6
        CFI CFA_Y Y+88
        CFI Block cfiCond261 Using cfiCommon0
        CFI (cfiCond261) NoFunction
        CFI (cfiCond261) Conditional ??CrossCallReturnLabel_378
        CFI (cfiCond261) R24 Frame(CFA_Y, -5)
        CFI (cfiCond261) R25 Frame(CFA_Y, -4)
        CFI (cfiCond261) R26 Frame(CFA_Y, -3)
        CFI (cfiCond261) R27 Frame(CFA_Y, -2)
        CFI (cfiCond261) R4 Frame(CFA_Y, -1)
        CFI (cfiCond261) CFA_SP SP+6
        CFI (cfiCond261) CFA_Y Y+88
        CFI Block cfiPicker262 Using cfiCommon1
        CFI (cfiPicker262) NoFunction
        CFI (cfiPicker262) Picker
        LDI	R16, 10
        CFI EndBlock cfiCond260
        CFI EndBlock cfiCond261
        CFI EndBlock cfiPicker262
        REQUIRE ?Subroutine166
        ;		// Fall through to label ?Subroutine166

        RSEG FARCODE:CODE:NOROOT(1)
?Subroutine166:
        CFI Block cfiCond263 Using cfiCommon0
        CFI NoFunction
        CFI Conditional ??CrossCallReturnLabel_379
        CFI R24 Frame(CFA_Y, -5)
        CFI R25 Frame(CFA_Y, -4)
        CFI R26 Frame(CFA_Y, -3)
        CFI R27 Frame(CFA_Y, -2)
        CFI R4 Frame(CFA_Y, -1)
        CFI CFA_SP SP+6
        CFI CFA_Y Y+88
        CFI Block cfiCond264 Using cfiCommon0
        CFI (cfiCond264) NoFunction
        CFI (cfiCond264) Conditional ??CrossCallReturnLabel_378
        CFI (cfiCond264) R24 Frame(CFA_Y, -5)
        CFI (cfiCond264) R25 Frame(CFA_Y, -4)
        CFI (cfiCond264) R26 Frame(CFA_Y, -3)
        CFI (cfiCond264) R27 Frame(CFA_Y, -2)
        CFI (cfiCond264) R4 Frame(CFA_Y, -1)
        CFI (cfiCond264) CFA_SP SP+6
        CFI (cfiCond264) CFA_Y Y+88
        CFI Block cfiCond265 Using cfiCommon0
        CFI (cfiCond265) NoFunction
        CFI (cfiCond265) Conditional ??CrossCallReturnLabel_377
        CFI (cfiCond265) R24 Frame(CFA_Y, -5)
        CFI (cfiCond265) R25 Frame(CFA_Y, -4)
        CFI (cfiCond265) R26 Frame(CFA_Y, -3)
        CFI (cfiCond265) R27 Frame(CFA_Y, -2)
        CFI (cfiCond265) R4 Frame(CFA_Y, -1)
        CFI (cfiCond265) CFA_SP SP+6
        CFI (cfiCond265) CFA_Y Y+88
        CFI Block cfiCond266 Using cfiCommon0
        CFI (cfiCond266) NoFunction
        CFI (cfiCond266) Conditional ??CrossCallReturnLabel_376
        CFI (cfiCond266) R24 Frame(CFA_Y, -5)
        CFI (cfiCond266) R25 Frame(CFA_Y, -4)
        CFI (cfiCond266) R26 Frame(CFA_Y, -3)
        CFI (cfiCond266) R27 Frame(CFA_Y, -2)
        CFI (cfiCond266) R4 Frame(CFA_Y, -1)
        CFI (cfiCond266) CFA_SP SP+6
        CFI (cfiCond266) CFA_Y Y+88
        CFI Block cfiCond267 Using cfiCommon0
        CFI (cfiCond267) NoFunction
        CFI (cfiCond267) Conditional ??CrossCallReturnLabel_375
        CFI (cfiCond267) R24 Frame(CFA_Y, -5)
        CFI (cfiCond267) R25 Frame(CFA_Y, -4)
        CFI (cfiCond267) R26 Frame(CFA_Y, -3)
        CFI (cfiCond267) R27 Frame(CFA_Y, -2)
        CFI (cfiCond267) R4 Frame(CFA_Y, -1)
        CFI (cfiCond267) CFA_SP SP+6
        CFI (cfiCond267) CFA_Y Y+88
        CFI Block cfiCond268 Using cfiCommon0
        CFI (cfiCond268) NoFunction
        CFI (cfiCond268) Conditional ??CrossCallReturnLabel_374
        CFI (cfiCond268) R24 Frame(CFA_Y, -5)
        CFI (cfiCond268) R25 Frame(CFA_Y, -4)
        CFI (cfiCond268) R26 Frame(CFA_Y, -3)
        CFI (cfiCond268) R27 Frame(CFA_Y, -2)
        CFI (cfiCond268) R4 Frame(CFA_Y, -1)
        CFI (cfiCond268) CFA_SP SP+6
        CFI (cfiCond268) CFA_Y Y+88
        CFI Block cfiCond269 Using cfiCommon0
        CFI (cfiCond269) NoFunction
        CFI (cfiCond269) Conditional ??CrossCallReturnLabel_373
        CFI (cfiCond269) R24 Frame(CFA_Y, -5)
        CFI (cfiCond269) R25 Frame(CFA_Y, -4)
        CFI (cfiCond269) R26 Frame(CFA_Y, -3)
        CFI (cfiCond269) R27 Frame(CFA_Y, -2)
        CFI (cfiCond269) R4 Frame(CFA_Y, -1)
        CFI (cfiCond269) CFA_SP SP+6
        CFI (cfiCond269) CFA_Y Y+88
        CFI Block cfiCond270 Using cfiCommon0
        CFI (cfiCond270) NoFunction
        CFI (cfiCond270) Conditional ??CrossCallReturnLabel_372
        CFI (cfiCond270) R24 Frame(CFA_Y, -5)
        CFI (cfiCond270) R25 Frame(CFA_Y, -4)
        CFI (cfiCond270) R26 Frame(CFA_Y, -3)
        CFI (cfiCond270) R27 Frame(CFA_Y, -2)
        CFI (cfiCond270) R4 Frame(CFA_Y, -1)
        CFI (cfiCond270) CFA_SP SP+6
        CFI (cfiCond270) CFA_Y Y+88
        CFI Block cfiCond271 Using cfiCommon0
        CFI (cfiCond271) NoFunction
        CFI (cfiCond271) Conditional ??CrossCallReturnLabel_371
        CFI (cfiCond271) R24 Frame(CFA_Y, -5)
        CFI (cfiCond271) R25 Frame(CFA_Y, -4)
        CFI (cfiCond271) R26 Frame(CFA_Y, -3)
        CFI (cfiCond271) R27 Frame(CFA_Y, -2)
        CFI (cfiCond271) R4 Frame(CFA_Y, -1)
        CFI (cfiCond271) CFA_SP SP+6
        CFI (cfiCond271) CFA_Y Y+88
        CFI Block cfiCond272 Using cfiCommon0
        CFI (cfiCond272) NoFunction
        CFI (cfiCond272) Conditional ??CrossCallReturnLabel_370
        CFI (cfiCond272) R24 Frame(CFA_Y, -5)
        CFI (cfiCond272) R25 Frame(CFA_Y, -4)
        CFI (cfiCond272) R26 Frame(CFA_Y, -3)
        CFI (cfiCond272) R27 Frame(CFA_Y, -2)
        CFI (cfiCond272) R4 Frame(CFA_Y, -1)
        CFI (cfiCond272) CFA_SP SP+6
        CFI (cfiCond272) CFA_Y Y+88
        CFI Block cfiCond273 Using cfiCommon0
        CFI (cfiCond273) NoFunction
        CFI (cfiCond273) Conditional ??CrossCallReturnLabel_369
        CFI (cfiCond273) R24 Frame(CFA_Y, -5)
        CFI (cfiCond273) R25 Frame(CFA_Y, -4)
        CFI (cfiCond273) R26 Frame(CFA_Y, -3)
        CFI (cfiCond273) R27 Frame(CFA_Y, -2)
        CFI (cfiCond273) R4 Frame(CFA_Y, -1)
        CFI (cfiCond273) CFA_SP SP+6
        CFI (cfiCond273) CFA_Y Y+88
        CFI Block cfiCond274 Using cfiCommon0
        CFI (cfiCond274) NoFunction
        CFI (cfiCond274) Conditional ??CrossCallReturnLabel_368
        CFI (cfiCond274) R24 Frame(CFA_Y, -5)
        CFI (cfiCond274) R25 Frame(CFA_Y, -4)
        CFI (cfiCond274) R26 Frame(CFA_Y, -3)
        CFI (cfiCond274) R27 Frame(CFA_Y, -2)
        CFI (cfiCond274) R4 Frame(CFA_Y, -1)
        CFI (cfiCond274) CFA_SP SP+6
        CFI (cfiCond274) CFA_Y Y+88
        CFI Block cfiCond275 Using cfiCommon0
        CFI (cfiCond275) NoFunction
        CFI (cfiCond275) Conditional ??CrossCallReturnLabel_367
        CFI (cfiCond275) R24 Frame(CFA_Y, -5)
        CFI (cfiCond275) R25 Frame(CFA_Y, -4)
        CFI (cfiCond275) R26 Frame(CFA_Y, -3)
        CFI (cfiCond275) R27 Frame(CFA_Y, -2)
        CFI (cfiCond275) R4 Frame(CFA_Y, -1)
        CFI (cfiCond275) CFA_SP SP+6
        CFI (cfiCond275) CFA_Y Y+88
        CFI Block cfiCond276 Using cfiCommon0
        CFI (cfiCond276) NoFunction
        CFI (cfiCond276) Conditional ??CrossCallReturnLabel_366
        CFI (cfiCond276) R24 Frame(CFA_Y, -9)
        CFI (cfiCond276) R25 Frame(CFA_Y, -8)
        CFI (cfiCond276) R26 Frame(CFA_Y, -7)
        CFI (cfiCond276) R27 Frame(CFA_Y, -6)
        CFI (cfiCond276) R4 Frame(CFA_Y, -5)
        CFI (cfiCond276) R5 Frame(CFA_Y, -4)
        CFI (cfiCond276) R6 Frame(CFA_Y, -3)
        CFI (cfiCond276) R7 Frame(CFA_Y, -2)
        CFI (cfiCond276) R8 Frame(CFA_Y, -1)
        CFI (cfiCond276) CFA_SP SP+6
        CFI (cfiCond276) CFA_Y Y+83
        CFI Block cfiCond277 Using cfiCommon0
        CFI (cfiCond277) NoFunction
        CFI (cfiCond277) Conditional ??CrossCallReturnLabel_365
        CFI (cfiCond277) R24 Frame(CFA_Y, -9)
        CFI (cfiCond277) R25 Frame(CFA_Y, -8)
        CFI (cfiCond277) R26 Frame(CFA_Y, -7)
        CFI (cfiCond277) R27 Frame(CFA_Y, -6)
        CFI (cfiCond277) R4 Frame(CFA_Y, -5)
        CFI (cfiCond277) R5 Frame(CFA_Y, -4)
        CFI (cfiCond277) R6 Frame(CFA_Y, -3)
        CFI (cfiCond277) R7 Frame(CFA_Y, -2)
        CFI (cfiCond277) R8 Frame(CFA_Y, -1)
        CFI (cfiCond277) CFA_SP SP+6
        CFI (cfiCond277) CFA_Y Y+83
        CFI Block cfiCond278 Using cfiCommon0
        CFI (cfiCond278) NoFunction
        CFI (cfiCond278) Conditional ??CrossCallReturnLabel_364
        CFI (cfiCond278) R24 Frame(CFA_Y, -6)
        CFI (cfiCond278) R25 Frame(CFA_Y, -5)
        CFI (cfiCond278) R26 Frame(CFA_Y, -4)
        CFI (cfiCond278) R27 Frame(CFA_Y, -3)
        CFI (cfiCond278) R4 Frame(CFA_Y, -2)
        CFI (cfiCond278) R5 Frame(CFA_Y, -1)
        CFI (cfiCond278) CFA_SP SP+6
        CFI (cfiCond278) CFA_Y Y+19
        CFI Block cfiCond279 Using cfiCommon0
        CFI (cfiCond279) NoFunction
        CFI (cfiCond279) Conditional ??CrossCallReturnLabel_363
        CFI (cfiCond279) R24 Frame(CFA_Y, -6)
        CFI (cfiCond279) R25 Frame(CFA_Y, -5)
        CFI (cfiCond279) R26 Frame(CFA_Y, -4)
        CFI (cfiCond279) R27 Frame(CFA_Y, -3)
        CFI (cfiCond279) R4 Frame(CFA_Y, -2)
        CFI (cfiCond279) R5 Frame(CFA_Y, -1)
        CFI (cfiCond279) CFA_SP SP+6
        CFI (cfiCond279) CFA_Y Y+19
        CFI Block cfiPicker280 Using cfiCommon1
        CFI (cfiPicker280) NoFunction
        CFI (cfiPicker280) Picker
        JMP	mov_s
        CFI EndBlock cfiCond263
        CFI EndBlock cfiCond264
        CFI EndBlock cfiCond265
        CFI EndBlock cfiCond266
        CFI EndBlock cfiCond267
        CFI EndBlock cfiCond268
        CFI EndBlock cfiCond269
        CFI EndBlock cfiCond270
        CFI EndBlock cfiCond271
        CFI EndBlock cfiCond272
        CFI EndBlock cfiCond273
        CFI EndBlock cfiCond274
        CFI EndBlock cfiCond275
        CFI EndBlock cfiCond276
        CFI EndBlock cfiCond277
        CFI EndBlock cfiCond278
        CFI EndBlock cfiCond279
        CFI EndBlock cfiPicker280

        RSEG FARCODE:CODE:NOROOT(1)
?Subroutine104:
        CFI Block cfiCond281 Using cfiCommon0
        CFI NoFunction
        CFI Conditional ??CrossCallReturnLabel_517
        CFI R24 Frame(CFA_Y, -5)
        CFI R25 Frame(CFA_Y, -4)
        CFI R26 Frame(CFA_Y, -3)
        CFI R27 Frame(CFA_Y, -2)
        CFI R4 Frame(CFA_Y, -1)
        CFI CFA_SP SP+6
        CFI CFA_Y Y+88
        CFI Block cfiCond282 Using cfiCommon0
        CFI (cfiCond282) NoFunction
        CFI (cfiCond282) Conditional ??CrossCallReturnLabel_516
        CFI (cfiCond282) R24 Frame(CFA_Y, -5)
        CFI (cfiCond282) R25 Frame(CFA_Y, -4)
        CFI (cfiCond282) R26 Frame(CFA_Y, -3)
        CFI (cfiCond282) R27 Frame(CFA_Y, -2)
        CFI (cfiCond282) R4 Frame(CFA_Y, -1)
        CFI (cfiCond282) CFA_SP SP+6
        CFI (cfiCond282) CFA_Y Y+88
        CFI Block cfiCond283 Using cfiCommon0
        CFI (cfiCond283) NoFunction
        CFI (cfiCond283) Conditional ??CrossCallReturnLabel_515
        CFI (cfiCond283) R24 Frame(CFA_Y, -5)
        CFI (cfiCond283) R25 Frame(CFA_Y, -4)
        CFI (cfiCond283) R26 Frame(CFA_Y, -3)
        CFI (cfiCond283) R27 Frame(CFA_Y, -2)
        CFI (cfiCond283) R4 Frame(CFA_Y, -1)
        CFI (cfiCond283) CFA_SP SP+6
        CFI (cfiCond283) CFA_Y Y+88
        CFI Block cfiPicker284 Using cfiCommon1
        CFI (cfiPicker284) NoFunction
        CFI (cfiPicker284) Picker
        CALL	s_port
        RJMP	?Subroutine167
        CFI EndBlock cfiCond281
        CFI EndBlock cfiCond282
        CFI EndBlock cfiCond283
        CFI EndBlock cfiPicker284

        RSEG FARCODE:CODE:NOROOT(1)
?Subroutine100:
        CFI Block cfiCond285 Using cfiCommon0
        CFI NoFunction
        CFI Conditional ??CrossCallReturnLabel_511
        CFI R24 Frame(CFA_Y, -5)
        CFI R25 Frame(CFA_Y, -4)
        CFI R26 Frame(CFA_Y, -3)
        CFI R27 Frame(CFA_Y, -2)
        CFI R4 Frame(CFA_Y, -1)
        CFI CFA_SP SP+6
        CFI CFA_Y Y+88
        CFI Block cfiCond286 Using cfiCommon0
        CFI (cfiCond286) NoFunction
        CFI (cfiCond286) Conditional ??CrossCallReturnLabel_510
        CFI (cfiCond286) R24 Frame(CFA_Y, -5)
        CFI (cfiCond286) R25 Frame(CFA_Y, -4)
        CFI (cfiCond286) R26 Frame(CFA_Y, -3)
        CFI (cfiCond286) R27 Frame(CFA_Y, -2)
        CFI (cfiCond286) R4 Frame(CFA_Y, -1)
        CFI (cfiCond286) CFA_SP SP+6
        CFI (cfiCond286) CFA_Y Y+88
        CFI Block cfiPicker287 Using cfiCommon1
        CFI (cfiPicker287) NoFunction
        CFI (cfiPicker287) Picker
        LDI	R16, 45
        CALL	s_port
        LDI	R16, 45
        RJMP	??Subroutine167_0
        CFI EndBlock cfiCond285
        CFI EndBlock cfiCond286
        CFI EndBlock cfiPicker287

        RSEG FARCODE:CODE:NOROOT(1)
?Subroutine99:
        CFI Block cfiCond288 Using cfiCommon0
        CFI NoFunction
        CFI Conditional ??CrossCallReturnLabel_397
        CFI R24 Frame(CFA_Y, -5)
        CFI R25 Frame(CFA_Y, -4)
        CFI R26 Frame(CFA_Y, -3)
        CFI R27 Frame(CFA_Y, -2)
        CFI R4 Frame(CFA_Y, -1)
        CFI CFA_SP SP+6
        CFI CFA_Y Y+88
        CFI Block cfiCond289 Using cfiCommon0
        CFI (cfiCond289) NoFunction
        CFI (cfiCond289) Conditional ??CrossCallReturnLabel_396
        CFI (cfiCond289) R24 Frame(CFA_Y, -9)
        CFI (cfiCond289) R25 Frame(CFA_Y, -8)
        CFI (cfiCond289) R26 Frame(CFA_Y, -7)
        CFI (cfiCond289) R27 Frame(CFA_Y, -6)
        CFI (cfiCond289) R4 Frame(CFA_Y, -5)
        CFI (cfiCond289) R5 Frame(CFA_Y, -4)
        CFI (cfiCond289) R6 Frame(CFA_Y, -3)
        CFI (cfiCond289) R7 Frame(CFA_Y, -2)
        CFI (cfiCond289) R8 Frame(CFA_Y, -1)
        CFI (cfiCond289) CFA_SP SP+6
        CFI (cfiCond289) CFA_Y Y+83
        CFI Block cfiPicker290 Using cfiCommon1
        CFI (cfiPicker290) NoFunction
        CFI (cfiPicker290) Picker
        LDI	R16, 54
        CFI Block cfiCond291 Using cfiCommon0
        CFI (cfiCond291) NoFunction
        CFI (cfiCond291) Conditional ??CrossCallReturnLabel_395
        CFI (cfiCond291) R24 Frame(CFA_Y, -9)
        CFI (cfiCond291) R25 Frame(CFA_Y, -8)
        CFI (cfiCond291) R26 Frame(CFA_Y, -7)
        CFI (cfiCond291) R27 Frame(CFA_Y, -6)
        CFI (cfiCond291) R4 Frame(CFA_Y, -5)
        CFI (cfiCond291) R5 Frame(CFA_Y, -4)
        CFI (cfiCond291) R6 Frame(CFA_Y, -3)
        CFI (cfiCond291) R7 Frame(CFA_Y, -2)
        CFI (cfiCond291) R8 Frame(CFA_Y, -1)
        CFI (cfiCond291) CFA_SP SP+6
        CFI (cfiCond291) CFA_Y Y+83
??Subroutine99_0:
        LDI	R17, 1
        CFI EndBlock cfiCond288
        CFI EndBlock cfiCond289
        CFI EndBlock cfiPicker290
        CFI EndBlock cfiCond291
        REQUIRE ?Subroutine168
        ;		// Fall through to label ?Subroutine168

        RSEG FARCODE:CODE:NOROOT(1)
?Subroutine168:
        CFI Block cfiCond292 Using cfiCommon0
        CFI NoFunction
        CFI Conditional ??CrossCallReturnLabel_397
        CFI R24 Frame(CFA_Y, -5)
        CFI R25 Frame(CFA_Y, -4)
        CFI R26 Frame(CFA_Y, -3)
        CFI R27 Frame(CFA_Y, -2)
        CFI R4 Frame(CFA_Y, -1)
        CFI CFA_SP SP+6
        CFI CFA_Y Y+88
        CFI Block cfiCond293 Using cfiCommon0
        CFI (cfiCond293) NoFunction
        CFI (cfiCond293) Conditional ??CrossCallReturnLabel_396
        CFI (cfiCond293) R24 Frame(CFA_Y, -9)
        CFI (cfiCond293) R25 Frame(CFA_Y, -8)
        CFI (cfiCond293) R26 Frame(CFA_Y, -7)
        CFI (cfiCond293) R27 Frame(CFA_Y, -6)
        CFI (cfiCond293) R4 Frame(CFA_Y, -5)
        CFI (cfiCond293) R5 Frame(CFA_Y, -4)
        CFI (cfiCond293) R6 Frame(CFA_Y, -3)
        CFI (cfiCond293) R7 Frame(CFA_Y, -2)
        CFI (cfiCond293) R8 Frame(CFA_Y, -1)
        CFI (cfiCond293) CFA_SP SP+6
        CFI (cfiCond293) CFA_Y Y+83
        CFI Block cfiCond294 Using cfiCommon0
        CFI (cfiCond294) NoFunction
        CFI (cfiCond294) Conditional ??CrossCallReturnLabel_395
        CFI (cfiCond294) R24 Frame(CFA_Y, -9)
        CFI (cfiCond294) R25 Frame(CFA_Y, -8)
        CFI (cfiCond294) R26 Frame(CFA_Y, -7)
        CFI (cfiCond294) R27 Frame(CFA_Y, -6)
        CFI (cfiCond294) R4 Frame(CFA_Y, -5)
        CFI (cfiCond294) R5 Frame(CFA_Y, -4)
        CFI (cfiCond294) R6 Frame(CFA_Y, -3)
        CFI (cfiCond294) R7 Frame(CFA_Y, -2)
        CFI (cfiCond294) R8 Frame(CFA_Y, -1)
        CFI (cfiCond294) CFA_SP SP+6
        CFI (cfiCond294) CFA_Y Y+83
        CFI Block cfiCond295 Using cfiCommon0
        CFI (cfiCond295) NoFunction
        CFI (cfiCond295) Conditional ??CrossCallReturnLabel_394
        CFI (cfiCond295) R24 Frame(CFA_Y, -2)
        CFI (cfiCond295) R25 Frame(CFA_Y, -1)
        CFI (cfiCond295) CFA_SP SP+6
        CFI (cfiCond295) CFA_Y Y+72
        CFI Block cfiCond296 Using cfiCommon0
        CFI (cfiCond296) NoFunction
        CFI (cfiCond296) Conditional ??CrossCallReturnLabel_393
        CFI (cfiCond296) R24 Frame(CFA_Y, -4)
        CFI (cfiCond296) R25 Frame(CFA_Y, -3)
        CFI (cfiCond296) R26 Frame(CFA_Y, -2)
        CFI (cfiCond296) R27 Frame(CFA_Y, -1)
        CFI (cfiCond296) CFA_SP SP+6
        CFI (cfiCond296) CFA_Y Y+4
        CFI Block cfiCond297 Using cfiCommon0
        CFI (cfiCond297) NoFunction
        CFI (cfiCond297) Conditional ??CrossCallReturnLabel_392
        CFI (cfiCond297) R24 Frame(CFA_Y, -5)
        CFI (cfiCond297) R25 Frame(CFA_Y, -4)
        CFI (cfiCond297) R26 Frame(CFA_Y, -3)
        CFI (cfiCond297) R27 Frame(CFA_Y, -2)
        CFI (cfiCond297) R4 Frame(CFA_Y, -1)
        CFI (cfiCond297) CFA_SP SP+6
        CFI (cfiCond297) CFA_Y Y+88
        CFI Block cfiCond298 Using cfiCommon0
        CFI (cfiCond298) NoFunction
        CFI (cfiCond298) Conditional ??CrossCallReturnLabel_391
        CFI (cfiCond298) R24 Frame(CFA_Y, -5)
        CFI (cfiCond298) R25 Frame(CFA_Y, -4)
        CFI (cfiCond298) R26 Frame(CFA_Y, -3)
        CFI (cfiCond298) R27 Frame(CFA_Y, -2)
        CFI (cfiCond298) R4 Frame(CFA_Y, -1)
        CFI (cfiCond298) CFA_SP SP+6
        CFI (cfiCond298) CFA_Y Y+88
        CFI Block cfiCond299 Using cfiCommon0
        CFI (cfiCond299) NoFunction
        CFI (cfiCond299) Conditional ??CrossCallReturnLabel_390
        CFI (cfiCond299) R24 Frame(CFA_Y, -9)
        CFI (cfiCond299) R25 Frame(CFA_Y, -8)
        CFI (cfiCond299) R26 Frame(CFA_Y, -7)
        CFI (cfiCond299) R27 Frame(CFA_Y, -6)
        CFI (cfiCond299) R4 Frame(CFA_Y, -5)
        CFI (cfiCond299) R5 Frame(CFA_Y, -4)
        CFI (cfiCond299) R6 Frame(CFA_Y, -3)
        CFI (cfiCond299) R7 Frame(CFA_Y, -2)
        CFI (cfiCond299) R8 Frame(CFA_Y, -1)
        CFI (cfiCond299) CFA_SP SP+6
        CFI (cfiCond299) CFA_Y Y+83
        CFI Block cfiCond300 Using cfiCommon0
        CFI (cfiCond300) NoFunction
        CFI (cfiCond300) Conditional ??CrossCallReturnLabel_389
        CFI (cfiCond300) R24 Frame(CFA_Y, -2)
        CFI (cfiCond300) R25 Frame(CFA_Y, -1)
        CFI (cfiCond300) CFA_SP SP+6
        CFI (cfiCond300) CFA_Y Y+72
        CFI Block cfiCond301 Using cfiCommon0
        CFI (cfiCond301) NoFunction
        CFI (cfiCond301) Conditional ??CrossCallReturnLabel_388
        CFI (cfiCond301) R24 Frame(CFA_Y, -2)
        CFI (cfiCond301) R25 Frame(CFA_Y, -1)
        CFI (cfiCond301) CFA_SP SP+6
        CFI (cfiCond301) CFA_Y Y+72
        CFI Block cfiCond302 Using cfiCommon0
        CFI (cfiCond302) NoFunction
        CFI (cfiCond302) Conditional ??CrossCallReturnLabel_387
        CFI (cfiCond302) R24 Frame(CFA_Y, -9)
        CFI (cfiCond302) R25 Frame(CFA_Y, -8)
        CFI (cfiCond302) R26 Frame(CFA_Y, -7)
        CFI (cfiCond302) R27 Frame(CFA_Y, -6)
        CFI (cfiCond302) R4 Frame(CFA_Y, -5)
        CFI (cfiCond302) R5 Frame(CFA_Y, -4)
        CFI (cfiCond302) R6 Frame(CFA_Y, -3)
        CFI (cfiCond302) R7 Frame(CFA_Y, -2)
        CFI (cfiCond302) R8 Frame(CFA_Y, -1)
        CFI (cfiCond302) CFA_SP SP+6
        CFI (cfiCond302) CFA_Y Y+83
        CFI Block cfiCond303 Using cfiCommon0
        CFI (cfiCond303) NoFunction
        CFI (cfiCond303) Conditional ??CrossCallReturnLabel_386
        CFI (cfiCond303) CFA_SP SP+6
        CFI (cfiCond303) CFA_Y Y+70
        CFI Block cfiCond304 Using cfiCommon0
        CFI (cfiCond304) NoFunction
        CFI (cfiCond304) Conditional ??CrossCallReturnLabel_385
        CFI (cfiCond304) R24 Frame(CFA_Y, -2)
        CFI (cfiCond304) R25 Frame(CFA_Y, -1)
        CFI (cfiCond304) CFA_SP SP+6
        CFI (cfiCond304) CFA_Y Y+72
        CFI Block cfiCond305 Using cfiCommon0
        CFI (cfiCond305) NoFunction
        CFI (cfiCond305) Conditional ??CrossCallReturnLabel_384
        CFI (cfiCond305) R24 Frame(CFA_Y, -2)
        CFI (cfiCond305) R25 Frame(CFA_Y, -1)
        CFI (cfiCond305) CFA_SP SP+6
        CFI (cfiCond305) CFA_Y Y+72
        CFI Block cfiCond306 Using cfiCommon0
        CFI (cfiCond306) NoFunction
        CFI (cfiCond306) Conditional ??CrossCallReturnLabel_383
        CFI (cfiCond306) R24 Frame(CFA_Y, -2)
        CFI (cfiCond306) R25 Frame(CFA_Y, -1)
        CFI (cfiCond306) CFA_SP SP+6
        CFI (cfiCond306) CFA_Y Y+72
        CFI Block cfiCond307 Using cfiCommon0
        CFI (cfiCond307) NoFunction
        CFI (cfiCond307) Conditional ??CrossCallReturnLabel_382
        CFI (cfiCond307) R24 Frame(CFA_Y, -5)
        CFI (cfiCond307) R25 Frame(CFA_Y, -4)
        CFI (cfiCond307) R26 Frame(CFA_Y, -3)
        CFI (cfiCond307) R27 Frame(CFA_Y, -2)
        CFI (cfiCond307) R4 Frame(CFA_Y, -1)
        CFI (cfiCond307) CFA_SP SP+6
        CFI (cfiCond307) CFA_Y Y+88
        CFI Block cfiCond308 Using cfiCommon0
        CFI (cfiCond308) NoFunction
        CFI (cfiCond308) Conditional ??CrossCallReturnLabel_381
        CFI (cfiCond308) R24 Frame(CFA_Y, -9)
        CFI (cfiCond308) R25 Frame(CFA_Y, -8)
        CFI (cfiCond308) R26 Frame(CFA_Y, -7)
        CFI (cfiCond308) R27 Frame(CFA_Y, -6)
        CFI (cfiCond308) R4 Frame(CFA_Y, -5)
        CFI (cfiCond308) R5 Frame(CFA_Y, -4)
        CFI (cfiCond308) R6 Frame(CFA_Y, -3)
        CFI (cfiCond308) R7 Frame(CFA_Y, -2)
        CFI (cfiCond308) R8 Frame(CFA_Y, -1)
        CFI (cfiCond308) CFA_SP SP+6
        CFI (cfiCond308) CFA_Y Y+83
        CFI Block cfiCond309 Using cfiCommon0
        CFI (cfiCond309) NoFunction
        CFI (cfiCond309) Conditional ??CrossCallReturnLabel_380
        CFI (cfiCond309) R24 Frame(CFA_Y, -9)
        CFI (cfiCond309) R25 Frame(CFA_Y, -8)
        CFI (cfiCond309) R26 Frame(CFA_Y, -7)
        CFI (cfiCond309) R27 Frame(CFA_Y, -6)
        CFI (cfiCond309) R4 Frame(CFA_Y, -5)
        CFI (cfiCond309) R5 Frame(CFA_Y, -4)
        CFI (cfiCond309) R6 Frame(CFA_Y, -3)
        CFI (cfiCond309) R7 Frame(CFA_Y, -2)
        CFI (cfiCond309) R8 Frame(CFA_Y, -1)
        CFI (cfiCond309) CFA_SP SP+6
        CFI (cfiCond309) CFA_Y Y+83
        CFI Block cfiPicker310 Using cfiCommon1
        CFI (cfiPicker310) NoFunction
        CFI (cfiPicker310) Picker
        JMP	RdFromFleshToArr
        CFI EndBlock cfiCond292
        CFI EndBlock cfiCond293
        CFI EndBlock cfiCond294
        CFI EndBlock cfiCond295
        CFI EndBlock cfiCond296
        CFI EndBlock cfiCond297
        CFI EndBlock cfiCond298
        CFI EndBlock cfiCond299
        CFI EndBlock cfiCond300
        CFI EndBlock cfiCond301
        CFI EndBlock cfiCond302
        CFI EndBlock cfiCond303
        CFI EndBlock cfiCond304
        CFI EndBlock cfiCond305
        CFI EndBlock cfiCond306
        CFI EndBlock cfiCond307
        CFI EndBlock cfiCond308
        CFI EndBlock cfiCond309
        CFI EndBlock cfiPicker310

        RSEG FARCODE:CODE:NOROOT(1)
?Subroutine86:
        CFI Block cfiCond311 Using cfiCommon0
        CFI NoFunction
        CFI Conditional ??CrossCallReturnLabel_317
        CFI R24 Frame(CFA_Y, -5)
        CFI R25 Frame(CFA_Y, -4)
        CFI R26 Frame(CFA_Y, -3)
        CFI R27 Frame(CFA_Y, -2)
        CFI R4 Frame(CFA_Y, -1)
        CFI CFA_SP SP+6
        CFI CFA_Y Y+88
        CFI Block cfiCond312 Using cfiCommon0
        CFI (cfiCond312) NoFunction
        CFI (cfiCond312) Conditional ??CrossCallReturnLabel_318
        CFI (cfiCond312) R24 Frame(CFA_Y, -5)
        CFI (cfiCond312) R25 Frame(CFA_Y, -4)
        CFI (cfiCond312) R26 Frame(CFA_Y, -3)
        CFI (cfiCond312) R27 Frame(CFA_Y, -2)
        CFI (cfiCond312) R4 Frame(CFA_Y, -1)
        CFI (cfiCond312) CFA_SP SP+6
        CFI (cfiCond312) CFA_Y Y+88
        CFI Block cfiPicker313 Using cfiCommon1
        CFI (cfiPicker313) NoFunction
        CFI (cfiPicker313) Picker
        LDI	R21, 0
        LDI	R18, 0
        CFI EndBlock cfiCond311
        CFI EndBlock cfiCond312
        CFI EndBlock cfiPicker313
        REQUIRE ?Subroutine157
        ;		// Fall through to label ?Subroutine157

        RSEG FARCODE:CODE:NOROOT(1)
?Subroutine157:
        CFI Block cfiCond314 Using cfiCommon0
        CFI NoFunction
        CFI Conditional ??CrossCallReturnLabel_317
        CFI R24 Frame(CFA_Y, -5)
        CFI R25 Frame(CFA_Y, -4)
        CFI R26 Frame(CFA_Y, -3)
        CFI R27 Frame(CFA_Y, -2)
        CFI R4 Frame(CFA_Y, -1)
        CFI CFA_SP SP+6
        CFI CFA_Y Y+88
        CFI Block cfiCond315 Using cfiCommon0
        CFI (cfiCond315) NoFunction
        CFI (cfiCond315) Conditional ??CrossCallReturnLabel_318
        CFI (cfiCond315) R24 Frame(CFA_Y, -5)
        CFI (cfiCond315) R25 Frame(CFA_Y, -4)
        CFI (cfiCond315) R26 Frame(CFA_Y, -3)
        CFI (cfiCond315) R27 Frame(CFA_Y, -2)
        CFI (cfiCond315) R4 Frame(CFA_Y, -1)
        CFI (cfiCond315) CFA_SP SP+6
        CFI (cfiCond315) CFA_Y Y+88
        CFI Block cfiCond316 Using cfiCommon0
        CFI (cfiCond316) NoFunction
        CFI (cfiCond316) Conditional ??CrossCallReturnLabel_315
        CFI (cfiCond316) R24 Frame(CFA_Y, -2)
        CFI (cfiCond316) R25 Frame(CFA_Y, -1)
        CFI (cfiCond316) CFA_SP SP+6
        CFI (cfiCond316) CFA_Y Y+72
        CFI Block cfiCond317 Using cfiCommon0
        CFI (cfiCond317) NoFunction
        CFI (cfiCond317) Conditional ??CrossCallReturnLabel_316
        CFI (cfiCond317) R24 Frame(CFA_Y, -9)
        CFI (cfiCond317) R25 Frame(CFA_Y, -8)
        CFI (cfiCond317) R26 Frame(CFA_Y, -7)
        CFI (cfiCond317) R27 Frame(CFA_Y, -6)
        CFI (cfiCond317) R4 Frame(CFA_Y, -5)
        CFI (cfiCond317) R5 Frame(CFA_Y, -4)
        CFI (cfiCond317) R6 Frame(CFA_Y, -3)
        CFI (cfiCond317) R7 Frame(CFA_Y, -2)
        CFI (cfiCond317) R8 Frame(CFA_Y, -1)
        CFI (cfiCond317) CFA_SP SP+6
        CFI (cfiCond317) CFA_Y Y+83
        CFI Block cfiPicker318 Using cfiCommon1
        CFI (cfiPicker318) NoFunction
        CFI (cfiPicker318) Picker
        LDI	R19, 0
        MOVW	R17:R16, R29:R28
        RET
        CFI EndBlock cfiCond314
        CFI EndBlock cfiCond315
        CFI EndBlock cfiCond316
        CFI EndBlock cfiCond317
        CFI EndBlock cfiPicker318

        RSEG FARCODE:CODE:NOROOT(1)
?Subroutine79:
        CFI Block cfiCond319 Using cfiCommon0
        CFI NoFunction
        CFI Conditional ??CrossCallReturnLabel_92
        CFI CFA_SP SP+6
        CFI Block cfiCond320 Using cfiCommon0
        CFI (cfiCond320) NoFunction
        CFI (cfiCond320) Conditional ??CrossCallReturnLabel_93
        CFI (cfiCond320) CFA_SP SP+6
        CFI Block cfiCond321 Using cfiCommon0
        CFI (cfiCond321) NoFunction
        CFI (cfiCond321) Conditional ??CrossCallReturnLabel_94
        CFI (cfiCond321) R24 Frame(CFA_Y, -5)
        CFI (cfiCond321) R25 Frame(CFA_Y, -4)
        CFI (cfiCond321) R26 Frame(CFA_Y, -3)
        CFI (cfiCond321) R27 Frame(CFA_Y, -2)
        CFI (cfiCond321) R4 Frame(CFA_Y, -1)
        CFI (cfiCond321) CFA_SP SP+6
        CFI (cfiCond321) CFA_Y Y+88
        CFI Block cfiPicker322 Using cfiCommon1
        CFI (cfiPicker322) NoFunction
        CFI (cfiPicker322) Picker
        LDI	R20, 3
        LDI	R21, 0
        JMP	__eeget8_16
        CFI EndBlock cfiCond319
        CFI EndBlock cfiCond320
        CFI EndBlock cfiCond321
        CFI EndBlock cfiPicker322

        RSEG FARCODE:CODE:NOROOT(1)
?Subroutine77:
        CFI Block cfiCond323 Using cfiCommon0
        CFI NoFunction
        CFI Conditional ??CrossCallReturnLabel_234
        CFI R24 Frame(CFA_Y, -5)
        CFI R25 Frame(CFA_Y, -4)
        CFI R26 Frame(CFA_Y, -3)
        CFI R27 Frame(CFA_Y, -2)
        CFI R4 Frame(CFA_Y, -1)
        CFI CFA_SP SP+6
        CFI CFA_Y Y+88
        CFI Block cfiCond324 Using cfiCommon0
        CFI (cfiCond324) NoFunction
        CFI (cfiCond324) Conditional ??CrossCallReturnLabel_235
        CFI (cfiCond324) R24 Frame(CFA_Y, -5)
        CFI (cfiCond324) R25 Frame(CFA_Y, -4)
        CFI (cfiCond324) R26 Frame(CFA_Y, -3)
        CFI (cfiCond324) R27 Frame(CFA_Y, -2)
        CFI (cfiCond324) R4 Frame(CFA_Y, -1)
        CFI (cfiCond324) CFA_SP SP+6
        CFI (cfiCond324) CFA_Y Y+88
        CFI Block cfiCond325 Using cfiCommon0
        CFI (cfiCond325) NoFunction
        CFI (cfiCond325) Conditional ??CrossCallReturnLabel_236
        CFI (cfiCond325) R24 Frame(CFA_Y, -5)
        CFI (cfiCond325) R25 Frame(CFA_Y, -4)
        CFI (cfiCond325) R26 Frame(CFA_Y, -3)
        CFI (cfiCond325) R27 Frame(CFA_Y, -2)
        CFI (cfiCond325) R4 Frame(CFA_Y, -1)
        CFI (cfiCond325) CFA_SP SP+6
        CFI (cfiCond325) CFA_Y Y+88
        CFI Block cfiCond326 Using cfiCommon0
        CFI (cfiCond326) NoFunction
        CFI (cfiCond326) Conditional ??CrossCallReturnLabel_237
        CFI (cfiCond326) R24 Frame(CFA_Y, -5)
        CFI (cfiCond326) R25 Frame(CFA_Y, -4)
        CFI (cfiCond326) R26 Frame(CFA_Y, -3)
        CFI (cfiCond326) R27 Frame(CFA_Y, -2)
        CFI (cfiCond326) R4 Frame(CFA_Y, -1)
        CFI (cfiCond326) CFA_SP SP+6
        CFI (cfiCond326) CFA_Y Y+88
        CFI Block cfiCond327 Using cfiCommon0
        CFI (cfiCond327) NoFunction
        CFI (cfiCond327) Conditional ??CrossCallReturnLabel_238
        CFI (cfiCond327) R24 Frame(CFA_Y, -5)
        CFI (cfiCond327) R25 Frame(CFA_Y, -4)
        CFI (cfiCond327) R26 Frame(CFA_Y, -3)
        CFI (cfiCond327) R27 Frame(CFA_Y, -2)
        CFI (cfiCond327) R4 Frame(CFA_Y, -1)
        CFI (cfiCond327) CFA_SP SP+6
        CFI (cfiCond327) CFA_Y Y+88
        CFI Block cfiCond328 Using cfiCommon0
        CFI (cfiCond328) NoFunction
        CFI (cfiCond328) Conditional ??CrossCallReturnLabel_239
        CFI (cfiCond328) R24 Frame(CFA_Y, -5)
        CFI (cfiCond328) R25 Frame(CFA_Y, -4)
        CFI (cfiCond328) R26 Frame(CFA_Y, -3)
        CFI (cfiCond328) R27 Frame(CFA_Y, -2)
        CFI (cfiCond328) R4 Frame(CFA_Y, -1)
        CFI (cfiCond328) CFA_SP SP+6
        CFI (cfiCond328) CFA_Y Y+88
        CFI Block cfiCond329 Using cfiCommon0
        CFI (cfiCond329) NoFunction
        CFI (cfiCond329) Conditional ??CrossCallReturnLabel_240
        CFI (cfiCond329) R24 Frame(CFA_Y, -5)
        CFI (cfiCond329) R25 Frame(CFA_Y, -4)
        CFI (cfiCond329) R26 Frame(CFA_Y, -3)
        CFI (cfiCond329) R27 Frame(CFA_Y, -2)
        CFI (cfiCond329) R4 Frame(CFA_Y, -1)
        CFI (cfiCond329) CFA_SP SP+6
        CFI (cfiCond329) CFA_Y Y+88
        CFI Block cfiCond330 Using cfiCommon0
        CFI (cfiCond330) NoFunction
        CFI (cfiCond330) Conditional ??CrossCallReturnLabel_241
        CFI (cfiCond330) R24 Frame(CFA_Y, -5)
        CFI (cfiCond330) R25 Frame(CFA_Y, -4)
        CFI (cfiCond330) R26 Frame(CFA_Y, -3)
        CFI (cfiCond330) R27 Frame(CFA_Y, -2)
        CFI (cfiCond330) R4 Frame(CFA_Y, -1)
        CFI (cfiCond330) CFA_SP SP+6
        CFI (cfiCond330) CFA_Y Y+88
        CFI Block cfiCond331 Using cfiCommon0
        CFI (cfiCond331) NoFunction
        CFI (cfiCond331) Conditional ??CrossCallReturnLabel_243
        CFI (cfiCond331) R24 Frame(CFA_Y, -5)
        CFI (cfiCond331) R25 Frame(CFA_Y, -4)
        CFI (cfiCond331) R26 Frame(CFA_Y, -3)
        CFI (cfiCond331) R27 Frame(CFA_Y, -2)
        CFI (cfiCond331) R4 Frame(CFA_Y, -1)
        CFI (cfiCond331) CFA_SP SP+6
        CFI (cfiCond331) CFA_Y Y+88
        CFI Block cfiCond332 Using cfiCommon0
        CFI (cfiCond332) NoFunction
        CFI (cfiCond332) Conditional ??CrossCallReturnLabel_244
        CFI (cfiCond332) R24 Frame(CFA_Y, -5)
        CFI (cfiCond332) R25 Frame(CFA_Y, -4)
        CFI (cfiCond332) R26 Frame(CFA_Y, -3)
        CFI (cfiCond332) R27 Frame(CFA_Y, -2)
        CFI (cfiCond332) R4 Frame(CFA_Y, -1)
        CFI (cfiCond332) CFA_SP SP+6
        CFI (cfiCond332) CFA_Y Y+88
        CFI Block cfiCond333 Using cfiCommon0
        CFI (cfiCond333) NoFunction
        CFI (cfiCond333) Conditional ??CrossCallReturnLabel_245
        CFI (cfiCond333) R24 Frame(CFA_Y, -5)
        CFI (cfiCond333) R25 Frame(CFA_Y, -4)
        CFI (cfiCond333) R26 Frame(CFA_Y, -3)
        CFI (cfiCond333) R27 Frame(CFA_Y, -2)
        CFI (cfiCond333) R4 Frame(CFA_Y, -1)
        CFI (cfiCond333) CFA_SP SP+6
        CFI (cfiCond333) CFA_Y Y+88
        CFI Block cfiPicker334 Using cfiCommon1
        CFI (cfiPicker334) NoFunction
        CFI (cfiPicker334) Picker
        LDI	R20, 2
        CFI Block cfiCond335 Using cfiCommon0
        CFI (cfiCond335) NoFunction
        CFI (cfiCond335) Conditional ??CrossCallReturnLabel_231
        CFI (cfiCond335) R24 Frame(CFA_Y, -5)
        CFI (cfiCond335) R25 Frame(CFA_Y, -4)
        CFI (cfiCond335) R26 Frame(CFA_Y, -3)
        CFI (cfiCond335) R27 Frame(CFA_Y, -2)
        CFI (cfiCond335) R4 Frame(CFA_Y, -1)
        CFI (cfiCond335) CFA_SP SP+6
        CFI (cfiCond335) CFA_Y Y+88
        CFI Block cfiCond336 Using cfiCommon0
        CFI (cfiCond336) NoFunction
        CFI (cfiCond336) Conditional ??CrossCallReturnLabel_232
        CFI (cfiCond336) R24 Frame(CFA_Y, -5)
        CFI (cfiCond336) R25 Frame(CFA_Y, -4)
        CFI (cfiCond336) R26 Frame(CFA_Y, -3)
        CFI (cfiCond336) R27 Frame(CFA_Y, -2)
        CFI (cfiCond336) R4 Frame(CFA_Y, -1)
        CFI (cfiCond336) CFA_SP SP+6
        CFI (cfiCond336) CFA_Y Y+88
        CFI Block cfiCond337 Using cfiCommon0
        CFI (cfiCond337) NoFunction
        CFI (cfiCond337) Conditional ??CrossCallReturnLabel_233
        CFI (cfiCond337) R24 Frame(CFA_Y, -5)
        CFI (cfiCond337) R25 Frame(CFA_Y, -4)
        CFI (cfiCond337) R26 Frame(CFA_Y, -3)
        CFI (cfiCond337) R27 Frame(CFA_Y, -2)
        CFI (cfiCond337) R4 Frame(CFA_Y, -1)
        CFI (cfiCond337) CFA_SP SP+6
        CFI (cfiCond337) CFA_Y Y+88
        CFI Block cfiCond338 Using cfiCommon0
        CFI (cfiCond338) NoFunction
        CFI (cfiCond338) Conditional ??CrossCallReturnLabel_242
        CFI (cfiCond338) R24 Frame(CFA_Y, -5)
        CFI (cfiCond338) R25 Frame(CFA_Y, -4)
        CFI (cfiCond338) R26 Frame(CFA_Y, -3)
        CFI (cfiCond338) R27 Frame(CFA_Y, -2)
        CFI (cfiCond338) R4 Frame(CFA_Y, -1)
        CFI (cfiCond338) CFA_SP SP+6
        CFI (cfiCond338) CFA_Y Y+88
        CFI Block cfiCond339 Using cfiCommon0
        CFI (cfiCond339) NoFunction
        CFI (cfiCond339) Conditional ??CrossCallReturnLabel_246
        CFI (cfiCond339) R24 Frame(CFA_Y, -5)
        CFI (cfiCond339) R25 Frame(CFA_Y, -4)
        CFI (cfiCond339) R26 Frame(CFA_Y, -3)
        CFI (cfiCond339) R27 Frame(CFA_Y, -2)
        CFI (cfiCond339) R4 Frame(CFA_Y, -1)
        CFI (cfiCond339) CFA_SP SP+6
        CFI (cfiCond339) CFA_Y Y+88
        CFI Block cfiCond340 Using cfiCommon0
        CFI (cfiCond340) NoFunction
        CFI (cfiCond340) Conditional ??CrossCallReturnLabel_247
        CFI (cfiCond340) R24 Frame(CFA_Y, -5)
        CFI (cfiCond340) R25 Frame(CFA_Y, -4)
        CFI (cfiCond340) R26 Frame(CFA_Y, -3)
        CFI (cfiCond340) R27 Frame(CFA_Y, -2)
        CFI (cfiCond340) R4 Frame(CFA_Y, -1)
        CFI (cfiCond340) CFA_SP SP+6
        CFI (cfiCond340) CFA_Y Y+88
        CFI Block cfiCond341 Using cfiCommon0
        CFI (cfiCond341) NoFunction
        CFI (cfiCond341) Conditional ??CrossCallReturnLabel_248
        CFI (cfiCond341) R24 Frame(CFA_Y, -5)
        CFI (cfiCond341) R25 Frame(CFA_Y, -4)
        CFI (cfiCond341) R26 Frame(CFA_Y, -3)
        CFI (cfiCond341) R27 Frame(CFA_Y, -2)
        CFI (cfiCond341) R4 Frame(CFA_Y, -1)
        CFI (cfiCond341) CFA_SP SP+6
        CFI (cfiCond341) CFA_Y Y+88
        CFI Block cfiCond342 Using cfiCommon0
        CFI (cfiCond342) NoFunction
        CFI (cfiCond342) Conditional ??CrossCallReturnLabel_249
        CFI (cfiCond342) R24 Frame(CFA_Y, -5)
        CFI (cfiCond342) R25 Frame(CFA_Y, -4)
        CFI (cfiCond342) R26 Frame(CFA_Y, -3)
        CFI (cfiCond342) R27 Frame(CFA_Y, -2)
        CFI (cfiCond342) R4 Frame(CFA_Y, -1)
        CFI (cfiCond342) CFA_SP SP+6
        CFI (cfiCond342) CFA_Y Y+88
        CFI Block cfiCond343 Using cfiCommon0
        CFI (cfiCond343) NoFunction
        CFI (cfiCond343) Conditional ??CrossCallReturnLabel_250
        CFI (cfiCond343) R24 Frame(CFA_Y, -5)
        CFI (cfiCond343) R25 Frame(CFA_Y, -4)
        CFI (cfiCond343) R26 Frame(CFA_Y, -3)
        CFI (cfiCond343) R27 Frame(CFA_Y, -2)
        CFI (cfiCond343) R4 Frame(CFA_Y, -1)
        CFI (cfiCond343) CFA_SP SP+6
        CFI (cfiCond343) CFA_Y Y+88
        CFI Block cfiCond344 Using cfiCommon0
        CFI (cfiCond344) NoFunction
        CFI (cfiCond344) Conditional ??CrossCallReturnLabel_251
        CFI (cfiCond344) R24 Frame(CFA_Y, -5)
        CFI (cfiCond344) R25 Frame(CFA_Y, -4)
        CFI (cfiCond344) R26 Frame(CFA_Y, -3)
        CFI (cfiCond344) R27 Frame(CFA_Y, -2)
        CFI (cfiCond344) R4 Frame(CFA_Y, -1)
        CFI (cfiCond344) CFA_SP SP+6
        CFI (cfiCond344) CFA_Y Y+88
        CFI Block cfiCond345 Using cfiCommon0
        CFI (cfiCond345) NoFunction
        CFI (cfiCond345) Conditional ??CrossCallReturnLabel_252
        CFI (cfiCond345) R24 Frame(CFA_Y, -5)
        CFI (cfiCond345) R25 Frame(CFA_Y, -4)
        CFI (cfiCond345) R26 Frame(CFA_Y, -3)
        CFI (cfiCond345) R27 Frame(CFA_Y, -2)
        CFI (cfiCond345) R4 Frame(CFA_Y, -1)
        CFI (cfiCond345) CFA_SP SP+6
        CFI (cfiCond345) CFA_Y Y+88
        CFI Block cfiCond346 Using cfiCommon0
        CFI (cfiCond346) NoFunction
        CFI (cfiCond346) Conditional ??CrossCallReturnLabel_253
        CFI (cfiCond346) R24 Frame(CFA_Y, -5)
        CFI (cfiCond346) R25 Frame(CFA_Y, -4)
        CFI (cfiCond346) R26 Frame(CFA_Y, -3)
        CFI (cfiCond346) R27 Frame(CFA_Y, -2)
        CFI (cfiCond346) R4 Frame(CFA_Y, -1)
        CFI (cfiCond346) CFA_SP SP+6
        CFI (cfiCond346) CFA_Y Y+88
        CFI Block cfiCond347 Using cfiCommon0
        CFI (cfiCond347) NoFunction
        CFI (cfiCond347) Conditional ??CrossCallReturnLabel_254
        CFI (cfiCond347) R24 Frame(CFA_Y, -5)
        CFI (cfiCond347) R25 Frame(CFA_Y, -4)
        CFI (cfiCond347) R26 Frame(CFA_Y, -3)
        CFI (cfiCond347) R27 Frame(CFA_Y, -2)
        CFI (cfiCond347) R4 Frame(CFA_Y, -1)
        CFI (cfiCond347) CFA_SP SP+6
        CFI (cfiCond347) CFA_Y Y+88
??Subroutine77_0:
        LDI	R21, 0
        MOVW	R19:R18, R29:R28
        SUBI	R18, 243
        RJMP	??Subroutine146_2
        CFI EndBlock cfiCond323
        CFI EndBlock cfiCond324
        CFI EndBlock cfiCond325
        CFI EndBlock cfiCond326
        CFI EndBlock cfiCond327
        CFI EndBlock cfiCond328
        CFI EndBlock cfiCond329
        CFI EndBlock cfiCond330
        CFI EndBlock cfiCond331
        CFI EndBlock cfiCond332
        CFI EndBlock cfiCond333
        CFI EndBlock cfiPicker334
        CFI EndBlock cfiCond335
        CFI EndBlock cfiCond336
        CFI EndBlock cfiCond337
        CFI EndBlock cfiCond338
        CFI EndBlock cfiCond339
        CFI EndBlock cfiCond340
        CFI EndBlock cfiCond341
        CFI EndBlock cfiCond342
        CFI EndBlock cfiCond343
        CFI EndBlock cfiCond344
        CFI EndBlock cfiCond345
        CFI EndBlock cfiCond346
        CFI EndBlock cfiCond347

        RSEG FARCODE:CODE:NOROOT(1)
?Subroutine72:
        CFI Block cfiCond348 Using cfiCommon0
        CFI NoFunction
        CFI Conditional ??CrossCallReturnLabel_82
        CFI R24 Frame(CFA_Y, -5)
        CFI R25 Frame(CFA_Y, -4)
        CFI R26 Frame(CFA_Y, -3)
        CFI R27 Frame(CFA_Y, -2)
        CFI R4 Frame(CFA_Y, -1)
        CFI CFA_SP SP+6
        CFI CFA_Y Y+88
        CFI Block cfiCond349 Using cfiCommon0
        CFI (cfiCond349) NoFunction
        CFI (cfiCond349) Conditional ??CrossCallReturnLabel_83
        CFI (cfiCond349) R24 Frame(CFA_Y, -5)
        CFI (cfiCond349) R25 Frame(CFA_Y, -4)
        CFI (cfiCond349) R26 Frame(CFA_Y, -3)
        CFI (cfiCond349) R27 Frame(CFA_Y, -2)
        CFI (cfiCond349) R4 Frame(CFA_Y, -1)
        CFI (cfiCond349) CFA_SP SP+6
        CFI (cfiCond349) CFA_Y Y+88
        CFI Block cfiPicker350 Using cfiCommon1
        CFI (cfiPicker350) NoFunction
        CFI (cfiPicker350) Picker
        LDI	R17, 117
        CALL	RdFromFleshToArr
        LDD	R16, Y+13
        LDD	R17, Y+14
        LDD	R18, Y+15
        LDD	R19, Y+16
        ST	-Y, R19
        CFI (cfiCond348) CFA_Y Y+89
        CFI (cfiCond349) CFA_Y Y+89
        ST	-Y, R18
        CFI (cfiCond348) CFA_Y Y+90
        CFI (cfiCond349) CFA_Y Y+90
        ST	-Y, R17
        CFI (cfiCond348) CFA_Y Y+91
        CFI (cfiCond349) CFA_Y Y+91
        ST	-Y, R16
        CFI (cfiCond348) CFA_Y Y+92
        CFI (cfiCond349) CFA_Y Y+92
        LDI	R18, LOW((`?<Constant "%hhi\\000">` + 6))
        LDI	R19, HIGH((`?<Constant "%hhi\\000">` + 6))
        MOVW	R17:R16, R29:R28
        SUBI	R16, 252
        SBCI	R17, 255
        CALL	sprintf
        ADIW	R29:R28, 4
        CFI (cfiCond348) CFA_Y Y+88
        CFI (cfiCond349) CFA_Y Y+88
        RET
        CFI EndBlock cfiCond348
        CFI EndBlock cfiCond349
        CFI EndBlock cfiPicker350

        RSEG FARCODE:CODE:NOROOT(1)
?Subroutine57:
        CFI Block cfiCond351 Using cfiCommon0
        CFI NoFunction
        CFI Conditional ??CrossCallReturnLabel_70
        CFI R24 Frame(CFA_Y, -5)
        CFI R25 Frame(CFA_Y, -4)
        CFI R26 Frame(CFA_Y, -3)
        CFI R27 Frame(CFA_Y, -2)
        CFI R4 Frame(CFA_Y, -1)
        CFI CFA_SP SP+6
        CFI CFA_Y Y+88
        CFI Block cfiCond352 Using cfiCommon0
        CFI (cfiCond352) NoFunction
        CFI (cfiCond352) Conditional ??CrossCallReturnLabel_71
        CFI (cfiCond352) R24 Frame(CFA_Y, -5)
        CFI (cfiCond352) R25 Frame(CFA_Y, -4)
        CFI (cfiCond352) R26 Frame(CFA_Y, -3)
        CFI (cfiCond352) R27 Frame(CFA_Y, -2)
        CFI (cfiCond352) R4 Frame(CFA_Y, -1)
        CFI (cfiCond352) CFA_SP SP+6
        CFI (cfiCond352) CFA_Y Y+88
        CFI Block cfiPicker353 Using cfiCommon1
        CFI (cfiPicker353) NoFunction
        CFI (cfiPicker353) Picker
        LDI	R19, 0
        MOVW	R31:R30, R29:R28
        ADIW	R31:R30, 13
        ADD	R30, R26
        ADC	R31, R19
        LD	R16, Z
        CP	R24, R16
        RET
        CFI EndBlock cfiCond351
        CFI EndBlock cfiCond352
        CFI EndBlock cfiPicker353

        RSEG FARCODE:CODE:NOROOT(1)
?Subroutine52:
        CFI Block cfiCond354 Using cfiCommon0
        CFI NoFunction
        CFI Conditional ??CrossCallReturnLabel_391
        CFI R24 Frame(CFA_Y, -5)
        CFI R25 Frame(CFA_Y, -4)
        CFI R26 Frame(CFA_Y, -3)
        CFI R27 Frame(CFA_Y, -2)
        CFI R4 Frame(CFA_Y, -1)
        CFI CFA_SP SP+6
        CFI CFA_Y Y+88
        CFI Block cfiCond355 Using cfiCommon0
        CFI (cfiCond355) NoFunction
        CFI (cfiCond355) Conditional ??CrossCallReturnLabel_390
        CFI (cfiCond355) R24 Frame(CFA_Y, -9)
        CFI (cfiCond355) R25 Frame(CFA_Y, -8)
        CFI (cfiCond355) R26 Frame(CFA_Y, -7)
        CFI (cfiCond355) R27 Frame(CFA_Y, -6)
        CFI (cfiCond355) R4 Frame(CFA_Y, -5)
        CFI (cfiCond355) R5 Frame(CFA_Y, -4)
        CFI (cfiCond355) R6 Frame(CFA_Y, -3)
        CFI (cfiCond355) R7 Frame(CFA_Y, -2)
        CFI (cfiCond355) R8 Frame(CFA_Y, -1)
        CFI (cfiCond355) CFA_SP SP+6
        CFI (cfiCond355) CFA_Y Y+83
        CFI Block cfiPicker356 Using cfiCommon1
        CFI (cfiPicker356) NoFunction
        CFI (cfiPicker356) Picker
        SBCI	R19, 255
        CFI Block cfiCond357 Using cfiCommon0
        CFI (cfiCond357) NoFunction
        CFI (cfiCond357) Conditional ??CrossCallReturnLabel_389
        CFI (cfiCond357) R24 Frame(CFA_Y, -2)
        CFI (cfiCond357) R25 Frame(CFA_Y, -1)
        CFI (cfiCond357) CFA_SP SP+6
        CFI (cfiCond357) CFA_Y Y+72
??Subroutine52_0:
        LDI	R16, 114
        LDI	R17, 1
        RJMP	?Subroutine168
        CFI EndBlock cfiCond354
        CFI EndBlock cfiCond355
        CFI EndBlock cfiPicker356
        CFI EndBlock cfiCond357

        RSEG FARCODE:CODE:NOROOT(1)
?Subroutine29:
        CFI Block cfiCond358 Using cfiCommon0
        CFI NoFunction
        CFI Conditional ??CrossCallReturnLabel_388
        CFI R24 Frame(CFA_Y, -2)
        CFI R25 Frame(CFA_Y, -1)
        CFI CFA_SP SP+6
        CFI CFA_Y Y+72
        CFI Block cfiCond359 Using cfiCommon0
        CFI (cfiCond359) NoFunction
        CFI (cfiCond359) Conditional ??CrossCallReturnLabel_387
        CFI (cfiCond359) R24 Frame(CFA_Y, -9)
        CFI (cfiCond359) R25 Frame(CFA_Y, -8)
        CFI (cfiCond359) R26 Frame(CFA_Y, -7)
        CFI (cfiCond359) R27 Frame(CFA_Y, -6)
        CFI (cfiCond359) R4 Frame(CFA_Y, -5)
        CFI (cfiCond359) R5 Frame(CFA_Y, -4)
        CFI (cfiCond359) R6 Frame(CFA_Y, -3)
        CFI (cfiCond359) R7 Frame(CFA_Y, -2)
        CFI (cfiCond359) R8 Frame(CFA_Y, -1)
        CFI (cfiCond359) CFA_SP SP+6
        CFI (cfiCond359) CFA_Y Y+83
        CFI Block cfiPicker360 Using cfiCommon1
        CFI (cfiPicker360) NoFunction
        CFI (cfiPicker360) Picker
        LDI	R16, 140
        CFI Block cfiCond361 Using cfiCommon0
        CFI (cfiCond361) NoFunction
        CFI (cfiCond361) Conditional ??CrossCallReturnLabel_386
        CFI (cfiCond361) CFA_SP SP+6
        CFI (cfiCond361) CFA_Y Y+70
        CFI Block cfiCond362 Using cfiCommon0
        CFI (cfiCond362) NoFunction
        CFI (cfiCond362) Conditional ??CrossCallReturnLabel_385
        CFI (cfiCond362) R24 Frame(CFA_Y, -2)
        CFI (cfiCond362) R25 Frame(CFA_Y, -1)
        CFI (cfiCond362) CFA_SP SP+6
        CFI (cfiCond362) CFA_Y Y+72
        CFI Block cfiCond363 Using cfiCommon0
        CFI (cfiCond363) NoFunction
        CFI (cfiCond363) Conditional ??CrossCallReturnLabel_384
        CFI (cfiCond363) R24 Frame(CFA_Y, -2)
        CFI (cfiCond363) R25 Frame(CFA_Y, -1)
        CFI (cfiCond363) CFA_SP SP+6
        CFI (cfiCond363) CFA_Y Y+72
        CFI Block cfiCond364 Using cfiCommon0
        CFI (cfiCond364) NoFunction
        CFI (cfiCond364) Conditional ??CrossCallReturnLabel_383
        CFI (cfiCond364) R24 Frame(CFA_Y, -2)
        CFI (cfiCond364) R25 Frame(CFA_Y, -1)
        CFI (cfiCond364) CFA_SP SP+6
        CFI (cfiCond364) CFA_Y Y+72
        CFI Block cfiCond365 Using cfiCommon0
        CFI (cfiCond365) NoFunction
        CFI (cfiCond365) Conditional ??CrossCallReturnLabel_382
        CFI (cfiCond365) R24 Frame(CFA_Y, -5)
        CFI (cfiCond365) R25 Frame(CFA_Y, -4)
        CFI (cfiCond365) R26 Frame(CFA_Y, -3)
        CFI (cfiCond365) R27 Frame(CFA_Y, -2)
        CFI (cfiCond365) R4 Frame(CFA_Y, -1)
        CFI (cfiCond365) CFA_SP SP+6
        CFI (cfiCond365) CFA_Y Y+88
        CFI Block cfiCond366 Using cfiCommon0
        CFI (cfiCond366) NoFunction
        CFI (cfiCond366) Conditional ??CrossCallReturnLabel_381
        CFI (cfiCond366) R24 Frame(CFA_Y, -9)
        CFI (cfiCond366) R25 Frame(CFA_Y, -8)
        CFI (cfiCond366) R26 Frame(CFA_Y, -7)
        CFI (cfiCond366) R27 Frame(CFA_Y, -6)
        CFI (cfiCond366) R4 Frame(CFA_Y, -5)
        CFI (cfiCond366) R5 Frame(CFA_Y, -4)
        CFI (cfiCond366) R6 Frame(CFA_Y, -3)
        CFI (cfiCond366) R7 Frame(CFA_Y, -2)
        CFI (cfiCond366) R8 Frame(CFA_Y, -1)
        CFI (cfiCond366) CFA_SP SP+6
        CFI (cfiCond366) CFA_Y Y+83
        CFI Block cfiCond367 Using cfiCommon0
        CFI (cfiCond367) NoFunction
        CFI (cfiCond367) Conditional ??CrossCallReturnLabel_380
        CFI (cfiCond367) R24 Frame(CFA_Y, -9)
        CFI (cfiCond367) R25 Frame(CFA_Y, -8)
        CFI (cfiCond367) R26 Frame(CFA_Y, -7)
        CFI (cfiCond367) R27 Frame(CFA_Y, -6)
        CFI (cfiCond367) R4 Frame(CFA_Y, -5)
        CFI (cfiCond367) R5 Frame(CFA_Y, -4)
        CFI (cfiCond367) R6 Frame(CFA_Y, -3)
        CFI (cfiCond367) R7 Frame(CFA_Y, -2)
        CFI (cfiCond367) R8 Frame(CFA_Y, -1)
        CFI (cfiCond367) CFA_SP SP+6
        CFI (cfiCond367) CFA_Y Y+83
??Subroutine29_0:
        LDI	R17, 0
        RJMP	?Subroutine168
        CFI EndBlock cfiCond358
        CFI EndBlock cfiCond359
        CFI EndBlock cfiPicker360
        CFI EndBlock cfiCond361
        CFI EndBlock cfiCond362
        CFI EndBlock cfiCond363
        CFI EndBlock cfiCond364
        CFI EndBlock cfiCond365
        CFI EndBlock cfiCond366
        CFI EndBlock cfiCond367

        RSEG FARCODE:CODE:NOROOT(1)
?Subroutine19:
        CFI Block cfiCond368 Using cfiCommon0
        CFI NoFunction
        CFI Conditional ??CrossCallReturnLabel_296
        CFI R24 Frame(CFA_Y, -5)
        CFI R25 Frame(CFA_Y, -4)
        CFI R26 Frame(CFA_Y, -3)
        CFI R27 Frame(CFA_Y, -2)
        CFI R4 Frame(CFA_Y, -1)
        CFI CFA_SP SP+6
        CFI CFA_Y Y+88
        CFI Block cfiCond369 Using cfiCommon0
        CFI (cfiCond369) NoFunction
        CFI (cfiCond369) Conditional ??CrossCallReturnLabel_297
        CFI (cfiCond369) R24 Frame(CFA_Y, -5)
        CFI (cfiCond369) R25 Frame(CFA_Y, -4)
        CFI (cfiCond369) R26 Frame(CFA_Y, -3)
        CFI (cfiCond369) R27 Frame(CFA_Y, -2)
        CFI (cfiCond369) R4 Frame(CFA_Y, -1)
        CFI (cfiCond369) CFA_SP SP+6
        CFI (cfiCond369) CFA_Y Y+88
        CFI Block cfiPicker370 Using cfiCommon1
        CFI (cfiPicker370) NoFunction
        CFI (cfiPicker370) Picker
        MOVW	R31:R30, R29:R28
        ADIW	R31:R30, 13
        MOV	R16, R24
        LDI	R17, 0
        ADD	R16, R26
        ADC	R17, R19
        ADD	R30, R16
        ADC	R31, R17
        LDD	R16, Z+1
        RJMP	?Subroutine153
        CFI EndBlock cfiCond368
        CFI EndBlock cfiCond369
        CFI EndBlock cfiPicker370

        RSEG FARCODE:CODE:NOROOT(1)
?Subroutine12:
        CFI Block cfiCond371 Using cfiCommon0
        CFI NoFunction
        CFI Conditional ??CrossCallReturnLabel_302
        CFI R24 Frame(CFA_Y, -5)
        CFI R25 Frame(CFA_Y, -4)
        CFI R26 Frame(CFA_Y, -3)
        CFI R27 Frame(CFA_Y, -2)
        CFI R4 Frame(CFA_Y, -1)
        CFI CFA_SP SP+6
        CFI CFA_Y Y+88
        CFI Block cfiCond372 Using cfiCommon0
        CFI (cfiCond372) NoFunction
        CFI (cfiCond372) Conditional ??CrossCallReturnLabel_303
        CFI (cfiCond372) R24 Frame(CFA_Y, -5)
        CFI (cfiCond372) R25 Frame(CFA_Y, -4)
        CFI (cfiCond372) R26 Frame(CFA_Y, -3)
        CFI (cfiCond372) R27 Frame(CFA_Y, -2)
        CFI (cfiCond372) R4 Frame(CFA_Y, -1)
        CFI (cfiCond372) CFA_SP SP+6
        CFI (cfiCond372) CFA_Y Y+88
        CFI Block cfiPicker373 Using cfiCommon1
        CFI (cfiPicker373) NoFunction
        CFI (cfiPicker373) Picker
        LDI	R17, 0
        ST	-Y, R17
        CFI (cfiCond371) CFA_Y Y+89
        CFI (cfiCond372) CFA_Y Y+89
        ST	-Y, R16
        CFI (cfiCond371) CFA_Y Y+90
        CFI (cfiCond372) CFA_Y Y+90
        LDI	R18, LOW((`?<Constant "%hhi\\000">` + 11))
        LDI	R19, HIGH((`?<Constant "%hhi\\000">` + 11))
        MOVW	R17:R16, R29:R28
        SUBI	R16, 254
        SBCI	R17, 255
        CALL	sprintf
        ADIW	R29:R28, 2
        CFI (cfiCond371) CFA_Y Y+88
        CFI (cfiCond372) CFA_Y Y+88
        MOVW	R17:R16, R29:R28
        CALL	strlen
        MOVW	R19:R18, R29:R28
        RCALL	mov_massiv
        LDI	R16, 58
        CFI EndBlock cfiCond371
        CFI EndBlock cfiCond372
        CFI EndBlock cfiPicker373
        REQUIRE ?Subroutine154
        ;		// Fall through to label ?Subroutine154

        RSEG FARCODE:CODE:NOROOT(1)
?Subroutine154:
        CFI Block cfiCond374 Using cfiCommon0
        CFI NoFunction
        CFI Conditional ??CrossCallReturnLabel_302
        CFI R24 Frame(CFA_Y, -5)
        CFI R25 Frame(CFA_Y, -4)
        CFI R26 Frame(CFA_Y, -3)
        CFI R27 Frame(CFA_Y, -2)
        CFI R4 Frame(CFA_Y, -1)
        CFI CFA_SP SP+6
        CFI CFA_Y Y+88
        CFI Block cfiCond375 Using cfiCommon0
        CFI (cfiCond375) NoFunction
        CFI (cfiCond375) Conditional ??CrossCallReturnLabel_303
        CFI (cfiCond375) R24 Frame(CFA_Y, -5)
        CFI (cfiCond375) R25 Frame(CFA_Y, -4)
        CFI (cfiCond375) R26 Frame(CFA_Y, -3)
        CFI (cfiCond375) R27 Frame(CFA_Y, -2)
        CFI (cfiCond375) R4 Frame(CFA_Y, -1)
        CFI (cfiCond375) CFA_SP SP+6
        CFI (cfiCond375) CFA_Y Y+88
        CFI Block cfiCond376 Using cfiCommon0
        CFI (cfiCond376) NoFunction
        CFI (cfiCond376) Conditional ??CrossCallReturnLabel_300
        CFI (cfiCond376) R24 Frame(CFA_Y, -5)
        CFI (cfiCond376) R25 Frame(CFA_Y, -4)
        CFI (cfiCond376) R26 Frame(CFA_Y, -3)
        CFI (cfiCond376) R27 Frame(CFA_Y, -2)
        CFI (cfiCond376) R4 Frame(CFA_Y, -1)
        CFI (cfiCond376) CFA_SP SP+6
        CFI (cfiCond376) CFA_Y Y+88
        CFI Block cfiCond377 Using cfiCommon0
        CFI (cfiCond377) NoFunction
        CFI (cfiCond377) Conditional ??CrossCallReturnLabel_301
        CFI (cfiCond377) R24 Frame(CFA_Y, -5)
        CFI (cfiCond377) R25 Frame(CFA_Y, -4)
        CFI (cfiCond377) R26 Frame(CFA_Y, -3)
        CFI (cfiCond377) R27 Frame(CFA_Y, -2)
        CFI (cfiCond377) R4 Frame(CFA_Y, -1)
        CFI (cfiCond377) CFA_SP SP+6
        CFI (cfiCond377) CFA_Y Y+88
        CFI Block cfiPicker378 Using cfiCommon1
        CFI (cfiPicker378) NoFunction
        CFI (cfiPicker378) Picker
        CALL	s_port
        MOVW	R31:R30, R25:R24
        RET
        CFI EndBlock cfiCond374
        CFI EndBlock cfiCond375
        CFI EndBlock cfiCond376
        CFI EndBlock cfiCond377
        CFI EndBlock cfiPicker378

        RSEG FARCODE:CODE:NOROOT(1)
?Subroutine11:
        CFI Block cfiCond379 Using cfiCommon0
        CFI NoFunction
        CFI Conditional ??CrossCallReturnLabel_514
        CFI R24 Frame(CFA_Y, -5)
        CFI R25 Frame(CFA_Y, -4)
        CFI R26 Frame(CFA_Y, -3)
        CFI R27 Frame(CFA_Y, -2)
        CFI R4 Frame(CFA_Y, -1)
        CFI CFA_SP SP+6
        CFI CFA_Y Y+88
        CFI Block cfiCond380 Using cfiCommon0
        CFI (cfiCond380) NoFunction
        CFI (cfiCond380) Conditional ??CrossCallReturnLabel_513
        CFI (cfiCond380) R24 Frame(CFA_Y, -5)
        CFI (cfiCond380) R25 Frame(CFA_Y, -4)
        CFI (cfiCond380) R26 Frame(CFA_Y, -3)
        CFI (cfiCond380) R27 Frame(CFA_Y, -2)
        CFI (cfiCond380) R4 Frame(CFA_Y, -1)
        CFI (cfiCond380) CFA_SP SP+6
        CFI (cfiCond380) CFA_Y Y+88
        CFI Block cfiCond381 Using cfiCommon0
        CFI (cfiCond381) NoFunction
        CFI (cfiCond381) Conditional ??CrossCallReturnLabel_512
        CFI (cfiCond381) R24 Frame(CFA_Y, -5)
        CFI (cfiCond381) R25 Frame(CFA_Y, -4)
        CFI (cfiCond381) R26 Frame(CFA_Y, -3)
        CFI (cfiCond381) R27 Frame(CFA_Y, -2)
        CFI (cfiCond381) R4 Frame(CFA_Y, -1)
        CFI (cfiCond381) CFA_SP SP+6
        CFI (cfiCond381) CFA_Y Y+88
        CFI Block cfiPicker382 Using cfiCommon1
        CFI (cfiPicker382) NoFunction
        CFI (cfiPicker382) Picker
        LDI	R17, 0
        ST	-Y, R17
        CFI (cfiCond379) CFA_Y Y+89
        CFI (cfiCond380) CFA_Y Y+89
        CFI (cfiCond381) CFA_Y Y+89
        ST	-Y, R16
        CFI (cfiCond379) CFA_Y Y+90
        CFI (cfiCond380) CFA_Y Y+90
        CFI (cfiCond381) CFA_Y Y+90
        LDI	R18, LOW((`?<Constant "%hhi\\000">` + 11))
        LDI	R19, HIGH((`?<Constant "%hhi\\000">` + 11))
        MOVW	R17:R16, R29:R28
        SUBI	R16, 254
        SBCI	R17, 255
        CALL	sprintf
        ADIW	R29:R28, 2
        CFI (cfiCond379) CFA_Y Y+88
        CFI (cfiCond380) CFA_Y Y+88
        CFI (cfiCond381) CFA_Y Y+88
        MOVW	R17:R16, R29:R28
        CALL	strlen
        MOVW	R19:R18, R29:R28
        RCALL	mov_massiv
        RJMP	?Subroutine167
        CFI EndBlock cfiCond379
        CFI EndBlock cfiCond380
        CFI EndBlock cfiCond381
        CFI EndBlock cfiPicker382

        RSEG FARCODE:CODE:NOROOT(1)
?Subroutine10:
        CFI Block cfiCond383 Using cfiCommon0
        CFI NoFunction
        CFI Conditional ??CrossCallReturnLabel_300
        CFI R24 Frame(CFA_Y, -5)
        CFI R25 Frame(CFA_Y, -4)
        CFI R26 Frame(CFA_Y, -3)
        CFI R27 Frame(CFA_Y, -2)
        CFI R4 Frame(CFA_Y, -1)
        CFI CFA_SP SP+6
        CFI CFA_Y Y+88
        CFI Block cfiCond384 Using cfiCommon0
        CFI (cfiCond384) NoFunction
        CFI (cfiCond384) Conditional ??CrossCallReturnLabel_301
        CFI (cfiCond384) R24 Frame(CFA_Y, -5)
        CFI (cfiCond384) R25 Frame(CFA_Y, -4)
        CFI (cfiCond384) R26 Frame(CFA_Y, -3)
        CFI (cfiCond384) R27 Frame(CFA_Y, -2)
        CFI (cfiCond384) R4 Frame(CFA_Y, -1)
        CFI (cfiCond384) CFA_SP SP+6
        CFI (cfiCond384) CFA_Y Y+88
        CFI Block cfiPicker385 Using cfiCommon1
        CFI (cfiPicker385) NoFunction
        CFI (cfiPicker385) Picker
        LDI	R17, 0
        ST	-Y, R17
        CFI (cfiCond383) CFA_Y Y+89
        CFI (cfiCond384) CFA_Y Y+89
        ST	-Y, R16
        CFI (cfiCond383) CFA_Y Y+90
        CFI (cfiCond384) CFA_Y Y+90
        LDI	R18, LOW((`?<Constant "%hhi\\000">` + 11))
        LDI	R19, HIGH((`?<Constant "%hhi\\000">` + 11))
        MOVW	R17:R16, R29:R28
        SUBI	R16, 254
        SBCI	R17, 255
        CALL	sprintf
        ADIW	R29:R28, 2
        CFI (cfiCond383) CFA_Y Y+88
        CFI (cfiCond384) CFA_Y Y+88
        MOVW	R17:R16, R29:R28
        CALL	strlen
        MOVW	R19:R18, R29:R28
        RCALL	mov_massiv
        LDI	R16, 46
        RJMP	?Subroutine154
        CFI EndBlock cfiCond383
        CFI EndBlock cfiCond384
        CFI EndBlock cfiPicker385

        RSEG FARCODE:CODE:NOROOT(1)
?Subroutine6:
        CFI Block cfiCond386 Using cfiCommon0
        CFI NoFunction
        CFI Conditional ??CrossCallReturnLabel_563
        CFI R24 Frame(CFA_Y, -5)
        CFI R25 Frame(CFA_Y, -4)
        CFI R26 Frame(CFA_Y, -3)
        CFI R27 Frame(CFA_Y, -2)
        CFI R4 Frame(CFA_Y, -1)
        CFI CFA_SP SP+6
        CFI CFA_Y Y+88
        CFI Block cfiCond387 Using cfiCommon0
        CFI (cfiCond387) NoFunction
        CFI (cfiCond387) Conditional ??CrossCallReturnLabel_562
        CFI (cfiCond387) R24 Frame(CFA_Y, -5)
        CFI (cfiCond387) R25 Frame(CFA_Y, -4)
        CFI (cfiCond387) R26 Frame(CFA_Y, -3)
        CFI (cfiCond387) R27 Frame(CFA_Y, -2)
        CFI (cfiCond387) R4 Frame(CFA_Y, -1)
        CFI (cfiCond387) CFA_SP SP+6
        CFI (cfiCond387) CFA_Y Y+88
        CFI Block cfiCond388 Using cfiCommon0
        CFI (cfiCond388) NoFunction
        CFI (cfiCond388) Conditional ??CrossCallReturnLabel_561
        CFI (cfiCond388) R24 Frame(CFA_Y, -5)
        CFI (cfiCond388) R25 Frame(CFA_Y, -4)
        CFI (cfiCond388) R26 Frame(CFA_Y, -3)
        CFI (cfiCond388) R27 Frame(CFA_Y, -2)
        CFI (cfiCond388) R4 Frame(CFA_Y, -1)
        CFI (cfiCond388) CFA_SP SP+6
        CFI (cfiCond388) CFA_Y Y+88
        CFI Block cfiCond389 Using cfiCommon0
        CFI (cfiCond389) NoFunction
        CFI (cfiCond389) Conditional ??CrossCallReturnLabel_560
        CFI (cfiCond389) R24 Frame(CFA_Y, -5)
        CFI (cfiCond389) R25 Frame(CFA_Y, -4)
        CFI (cfiCond389) R26 Frame(CFA_Y, -3)
        CFI (cfiCond389) R27 Frame(CFA_Y, -2)
        CFI (cfiCond389) R4 Frame(CFA_Y, -1)
        CFI (cfiCond389) CFA_SP SP+6
        CFI (cfiCond389) CFA_Y Y+88
        CFI Block cfiCond390 Using cfiCommon0
        CFI (cfiCond390) NoFunction
        CFI (cfiCond390) Conditional ??CrossCallReturnLabel_559
        CFI (cfiCond390) R24 Frame(CFA_Y, -5)
        CFI (cfiCond390) R25 Frame(CFA_Y, -4)
        CFI (cfiCond390) R26 Frame(CFA_Y, -3)
        CFI (cfiCond390) R27 Frame(CFA_Y, -2)
        CFI (cfiCond390) R4 Frame(CFA_Y, -1)
        CFI (cfiCond390) CFA_SP SP+6
        CFI (cfiCond390) CFA_Y Y+88
        CFI Block cfiCond391 Using cfiCommon0
        CFI (cfiCond391) NoFunction
        CFI (cfiCond391) Conditional ??CrossCallReturnLabel_558
        CFI (cfiCond391) R24 Frame(CFA_Y, -5)
        CFI (cfiCond391) R25 Frame(CFA_Y, -4)
        CFI (cfiCond391) R26 Frame(CFA_Y, -3)
        CFI (cfiCond391) R27 Frame(CFA_Y, -2)
        CFI (cfiCond391) R4 Frame(CFA_Y, -1)
        CFI (cfiCond391) CFA_SP SP+6
        CFI (cfiCond391) CFA_Y Y+88
        CFI Block cfiCond392 Using cfiCommon0
        CFI (cfiCond392) NoFunction
        CFI (cfiCond392) Conditional ??CrossCallReturnLabel_557
        CFI (cfiCond392) R24 Frame(CFA_Y, -5)
        CFI (cfiCond392) R25 Frame(CFA_Y, -4)
        CFI (cfiCond392) R26 Frame(CFA_Y, -3)
        CFI (cfiCond392) R27 Frame(CFA_Y, -2)
        CFI (cfiCond392) R4 Frame(CFA_Y, -1)
        CFI (cfiCond392) CFA_SP SP+6
        CFI (cfiCond392) CFA_Y Y+88
        CFI Block cfiCond393 Using cfiCommon0
        CFI (cfiCond393) NoFunction
        CFI (cfiCond393) Conditional ??CrossCallReturnLabel_556
        CFI (cfiCond393) R24 Frame(CFA_Y, -5)
        CFI (cfiCond393) R25 Frame(CFA_Y, -4)
        CFI (cfiCond393) R26 Frame(CFA_Y, -3)
        CFI (cfiCond393) R27 Frame(CFA_Y, -2)
        CFI (cfiCond393) R4 Frame(CFA_Y, -1)
        CFI (cfiCond393) CFA_SP SP+6
        CFI (cfiCond393) CFA_Y Y+88
        CFI Block cfiCond394 Using cfiCommon0
        CFI (cfiCond394) NoFunction
        CFI (cfiCond394) Conditional ??CrossCallReturnLabel_555
        CFI (cfiCond394) R24 Frame(CFA_Y, -5)
        CFI (cfiCond394) R25 Frame(CFA_Y, -4)
        CFI (cfiCond394) R26 Frame(CFA_Y, -3)
        CFI (cfiCond394) R27 Frame(CFA_Y, -2)
        CFI (cfiCond394) R4 Frame(CFA_Y, -1)
        CFI (cfiCond394) CFA_SP SP+6
        CFI (cfiCond394) CFA_Y Y+88
        CFI Block cfiCond395 Using cfiCommon0
        CFI (cfiCond395) NoFunction
        CFI (cfiCond395) Conditional ??CrossCallReturnLabel_554
        CFI (cfiCond395) R24 Frame(CFA_Y, -5)
        CFI (cfiCond395) R25 Frame(CFA_Y, -4)
        CFI (cfiCond395) R26 Frame(CFA_Y, -3)
        CFI (cfiCond395) R27 Frame(CFA_Y, -2)
        CFI (cfiCond395) R4 Frame(CFA_Y, -1)
        CFI (cfiCond395) CFA_SP SP+6
        CFI (cfiCond395) CFA_Y Y+88
        CFI Block cfiCond396 Using cfiCommon0
        CFI (cfiCond396) NoFunction
        CFI (cfiCond396) Conditional ??CrossCallReturnLabel_553
        CFI (cfiCond396) R24 Frame(CFA_Y, -5)
        CFI (cfiCond396) R25 Frame(CFA_Y, -4)
        CFI (cfiCond396) R26 Frame(CFA_Y, -3)
        CFI (cfiCond396) R27 Frame(CFA_Y, -2)
        CFI (cfiCond396) R4 Frame(CFA_Y, -1)
        CFI (cfiCond396) CFA_SP SP+6
        CFI (cfiCond396) CFA_Y Y+88
        CFI Block cfiCond397 Using cfiCommon0
        CFI (cfiCond397) NoFunction
        CFI (cfiCond397) Conditional ??CrossCallReturnLabel_552
        CFI (cfiCond397) R24 Frame(CFA_Y, -5)
        CFI (cfiCond397) R25 Frame(CFA_Y, -4)
        CFI (cfiCond397) R26 Frame(CFA_Y, -3)
        CFI (cfiCond397) R27 Frame(CFA_Y, -2)
        CFI (cfiCond397) R4 Frame(CFA_Y, -1)
        CFI (cfiCond397) CFA_SP SP+6
        CFI (cfiCond397) CFA_Y Y+88
        CFI Block cfiCond398 Using cfiCommon0
        CFI (cfiCond398) NoFunction
        CFI (cfiCond398) Conditional ??CrossCallReturnLabel_551
        CFI (cfiCond398) R24 Frame(CFA_Y, -5)
        CFI (cfiCond398) R25 Frame(CFA_Y, -4)
        CFI (cfiCond398) R26 Frame(CFA_Y, -3)
        CFI (cfiCond398) R27 Frame(CFA_Y, -2)
        CFI (cfiCond398) R4 Frame(CFA_Y, -1)
        CFI (cfiCond398) CFA_SP SP+6
        CFI (cfiCond398) CFA_Y Y+88
        CFI Block cfiCond399 Using cfiCommon0
        CFI (cfiCond399) NoFunction
        CFI (cfiCond399) Conditional ??CrossCallReturnLabel_550
        CFI (cfiCond399) R24 Frame(CFA_Y, -5)
        CFI (cfiCond399) R25 Frame(CFA_Y, -4)
        CFI (cfiCond399) R26 Frame(CFA_Y, -3)
        CFI (cfiCond399) R27 Frame(CFA_Y, -2)
        CFI (cfiCond399) R4 Frame(CFA_Y, -1)
        CFI (cfiCond399) CFA_SP SP+6
        CFI (cfiCond399) CFA_Y Y+88
        CFI Block cfiCond400 Using cfiCommon0
        CFI (cfiCond400) NoFunction
        CFI (cfiCond400) Conditional ??CrossCallReturnLabel_549
        CFI (cfiCond400) R24 Frame(CFA_Y, -5)
        CFI (cfiCond400) R25 Frame(CFA_Y, -4)
        CFI (cfiCond400) R26 Frame(CFA_Y, -3)
        CFI (cfiCond400) R27 Frame(CFA_Y, -2)
        CFI (cfiCond400) R4 Frame(CFA_Y, -1)
        CFI (cfiCond400) CFA_SP SP+6
        CFI (cfiCond400) CFA_Y Y+88
        CFI Block cfiCond401 Using cfiCommon0
        CFI (cfiCond401) NoFunction
        CFI (cfiCond401) Conditional ??CrossCallReturnLabel_548
        CFI (cfiCond401) R24 Frame(CFA_Y, -5)
        CFI (cfiCond401) R25 Frame(CFA_Y, -4)
        CFI (cfiCond401) R26 Frame(CFA_Y, -3)
        CFI (cfiCond401) R27 Frame(CFA_Y, -2)
        CFI (cfiCond401) R4 Frame(CFA_Y, -1)
        CFI (cfiCond401) CFA_SP SP+6
        CFI (cfiCond401) CFA_Y Y+88
        CFI Block cfiCond402 Using cfiCommon0
        CFI (cfiCond402) NoFunction
        CFI (cfiCond402) Conditional ??CrossCallReturnLabel_547
        CFI (cfiCond402) R24 Frame(CFA_Y, -5)
        CFI (cfiCond402) R25 Frame(CFA_Y, -4)
        CFI (cfiCond402) R26 Frame(CFA_Y, -3)
        CFI (cfiCond402) R27 Frame(CFA_Y, -2)
        CFI (cfiCond402) R4 Frame(CFA_Y, -1)
        CFI (cfiCond402) CFA_SP SP+6
        CFI (cfiCond402) CFA_Y Y+88
        CFI Block cfiCond403 Using cfiCommon0
        CFI (cfiCond403) NoFunction
        CFI (cfiCond403) Conditional ??CrossCallReturnLabel_546
        CFI (cfiCond403) R24 Frame(CFA_Y, -5)
        CFI (cfiCond403) R25 Frame(CFA_Y, -4)
        CFI (cfiCond403) R26 Frame(CFA_Y, -3)
        CFI (cfiCond403) R27 Frame(CFA_Y, -2)
        CFI (cfiCond403) R4 Frame(CFA_Y, -1)
        CFI (cfiCond403) CFA_SP SP+6
        CFI (cfiCond403) CFA_Y Y+88
        CFI Block cfiPicker404 Using cfiCommon1
        CFI (cfiPicker404) NoFunction
        CFI (cfiPicker404) Picker
        LDI	R17, 0
        CALL	RdFromFleshToArr
        RJMP	?Subroutine165
        CFI EndBlock cfiCond386
        CFI EndBlock cfiCond387
        CFI EndBlock cfiCond388
        CFI EndBlock cfiCond389
        CFI EndBlock cfiCond390
        CFI EndBlock cfiCond391
        CFI EndBlock cfiCond392
        CFI EndBlock cfiCond393
        CFI EndBlock cfiCond394
        CFI EndBlock cfiCond395
        CFI EndBlock cfiCond396
        CFI EndBlock cfiCond397
        CFI EndBlock cfiCond398
        CFI EndBlock cfiCond399
        CFI EndBlock cfiCond400
        CFI EndBlock cfiCond401
        CFI EndBlock cfiCond402
        CFI EndBlock cfiCond403
        CFI EndBlock cfiPicker404
// 1536 
// 1537 
// 1538 
// 1539 

        RSEG FARCODE:CODE:NOROOT(1)
// 1540   void write_menu(unsigned char index_menu)
write_menu:
        CFI Block cfiBlock405 Using cfiCommon0
        CFI Function write_menu
// 1541      {
        FUNCALL write_menu, RdFromFleshToArr
        LOCFRAME CSTACK, 83, STACK
        LOCFRAME RSTACK, 3, STACK
        FUNCALL write_menu, mov_s
        LOCFRAME CSTACK, 83, STACK
        LOCFRAME RSTACK, 3, STACK
        FUNCALL write_menu, RdFromFleshToArr
        LOCFRAME CSTACK, 83, STACK
        LOCFRAME RSTACK, 3, STACK
        FUNCALL write_menu, RdFromFleshToArr
        LOCFRAME CSTACK, 83, STACK
        LOCFRAME RSTACK, 3, STACK
        FUNCALL write_menu, crc_m1
        LOCFRAME CSTACK, 83, STACK
        LOCFRAME RSTACK, 3, STACK
        FUNCALL write_menu, WrArrayToFlesh
        LOCFRAME CSTACK, 83, STACK
        LOCFRAME RSTACK, 3, STACK
        FUNCALL write_menu, RdFromFleshToArr
        LOCFRAME CSTACK, 83, STACK
        LOCFRAME RSTACK, 3, STACK
        FUNCALL write_menu, crc_m1
        LOCFRAME CSTACK, 83, STACK
        LOCFRAME RSTACK, 3, STACK
        FUNCALL write_menu, WrArrayToFlesh
        LOCFRAME CSTACK, 83, STACK
        LOCFRAME RSTACK, 3, STACK
        FUNCALL write_menu, RdFromFleshToArr
        LOCFRAME CSTACK, 83, STACK
        LOCFRAME RSTACK, 3, STACK
        FUNCALL write_menu, RdFromFleshToArr
        LOCFRAME CSTACK, 83, STACK
        LOCFRAME RSTACK, 3, STACK
        FUNCALL write_menu, RdFromFleshToArr
        LOCFRAME CSTACK, 83, STACK
        LOCFRAME RSTACK, 3, STACK
        FUNCALL write_menu, atol
        LOCFRAME CSTACK, 83, STACK
        LOCFRAME RSTACK, 3, STACK
        FUNCALL write_menu, atol
        LOCFRAME CSTACK, 83, STACK
        LOCFRAME RSTACK, 3, STACK
        FUNCALL write_menu, atol
        LOCFRAME CSTACK, 83, STACK
        LOCFRAME RSTACK, 3, STACK
        FUNCALL write_menu, atol
        LOCFRAME CSTACK, 83, STACK
        LOCFRAME RSTACK, 3, STACK
        FUNCALL write_menu, crc_m1
        LOCFRAME CSTACK, 83, STACK
        LOCFRAME RSTACK, 3, STACK
        FUNCALL write_menu, WrArrayToFlesh
        LOCFRAME CSTACK, 83, STACK
        LOCFRAME RSTACK, 3, STACK
        FUNCALL write_menu, atol
        LOCFRAME CSTACK, 83, STACK
        LOCFRAME RSTACK, 3, STACK
        FUNCALL write_menu, RdFromFleshToArr
        LOCFRAME CSTACK, 83, STACK
        LOCFRAME RSTACK, 3, STACK
        FUNCALL write_menu, crc_m1
        LOCFRAME CSTACK, 83, STACK
        LOCFRAME RSTACK, 3, STACK
        FUNCALL write_menu, WrArrayToFlesh
        LOCFRAME CSTACK, 83, STACK
        LOCFRAME RSTACK, 3, STACK
        FUNCALL write_menu, atol
        LOCFRAME CSTACK, 83, STACK
        LOCFRAME RSTACK, 3, STACK
        FUNCALL write_menu, RdFromFleshToArr
        LOCFRAME CSTACK, 83, STACK
        LOCFRAME RSTACK, 3, STACK
        FUNCALL write_menu, crc_m1
        LOCFRAME CSTACK, 83, STACK
        LOCFRAME RSTACK, 3, STACK
        FUNCALL write_menu, WrArrayToFlesh
        LOCFRAME CSTACK, 83, STACK
        LOCFRAME RSTACK, 3, STACK
        FUNCALL write_menu, mov_s
        LOCFRAME CSTACK, 83, STACK
        LOCFRAME RSTACK, 3, STACK
        FUNCALL write_menu, atol
        LOCFRAME CSTACK, 83, STACK
        LOCFRAME RSTACK, 3, STACK
        FUNCALL write_menu, RdFromFleshToArr
        LOCFRAME CSTACK, 83, STACK
        LOCFRAME RSTACK, 3, STACK
        FUNCALL write_menu, crc_m1
        LOCFRAME CSTACK, 83, STACK
        LOCFRAME RSTACK, 3, STACK
        FUNCALL write_menu, WrArrayToFlesh
        LOCFRAME CSTACK, 83, STACK
        LOCFRAME RSTACK, 3, STACK
        FUNCALL write_menu, atol
        LOCFRAME CSTACK, 83, STACK
        LOCFRAME RSTACK, 3, STACK
        FUNCALL write_menu, RdFromFleshToArr
        LOCFRAME CSTACK, 83, STACK
        LOCFRAME RSTACK, 3, STACK
        FUNCALL write_menu, crc_m1
        LOCFRAME CSTACK, 83, STACK
        LOCFRAME RSTACK, 3, STACK
        FUNCALL write_menu, WrArrayToFlesh
        LOCFRAME CSTACK, 83, STACK
        LOCFRAME RSTACK, 3, STACK
        FUNCALL write_menu, atol
        LOCFRAME CSTACK, 83, STACK
        LOCFRAME RSTACK, 3, STACK
        FUNCALL write_menu, RdFromFleshToArr
        LOCFRAME CSTACK, 83, STACK
        LOCFRAME RSTACK, 3, STACK
        FUNCALL write_menu, crc_m1
        LOCFRAME CSTACK, 83, STACK
        LOCFRAME RSTACK, 3, STACK
        FUNCALL write_menu, WrArrayToFlesh
        LOCFRAME CSTACK, 83, STACK
        LOCFRAME RSTACK, 3, STACK
        FUNCALL write_menu, atol
        LOCFRAME CSTACK, 83, STACK
        LOCFRAME RSTACK, 3, STACK
        FUNCALL write_menu, RdFromFleshToArr
        LOCFRAME CSTACK, 83, STACK
        LOCFRAME RSTACK, 3, STACK
        FUNCALL write_menu, crc_m1
        LOCFRAME CSTACK, 83, STACK
        LOCFRAME RSTACK, 3, STACK
        FUNCALL write_menu, WrArrayToFlesh
        LOCFRAME CSTACK, 83, STACK
        LOCFRAME RSTACK, 3, STACK
        FUNCALL write_menu, atol
        LOCFRAME CSTACK, 83, STACK
        LOCFRAME RSTACK, 3, STACK
        FUNCALL write_menu, RdFromFleshToArr
        LOCFRAME CSTACK, 83, STACK
        LOCFRAME RSTACK, 3, STACK
        FUNCALL write_menu, crc_m1
        LOCFRAME CSTACK, 83, STACK
        LOCFRAME RSTACK, 3, STACK
        FUNCALL write_menu, WrArrayToFlesh
        LOCFRAME CSTACK, 83, STACK
        LOCFRAME RSTACK, 3, STACK
        FUNCALL write_menu, atol
        LOCFRAME CSTACK, 83, STACK
        LOCFRAME RSTACK, 3, STACK
        FUNCALL write_menu, RdFromFleshToArr
        LOCFRAME CSTACK, 83, STACK
        LOCFRAME RSTACK, 3, STACK
        FUNCALL write_menu, crc_m1
        LOCFRAME CSTACK, 83, STACK
        LOCFRAME RSTACK, 3, STACK
        FUNCALL write_menu, WrArrayToFlesh
        LOCFRAME CSTACK, 83, STACK
        LOCFRAME RSTACK, 3, STACK
        FUNCALL write_menu, RdFromFleshToArr
        LOCFRAME CSTACK, 83, STACK
        LOCFRAME RSTACK, 3, STACK
        FUNCALL write_menu, crc_m1
        LOCFRAME CSTACK, 83, STACK
        LOCFRAME RSTACK, 3, STACK
        FUNCALL write_menu, WrArrayToFlesh
        LOCFRAME CSTACK, 83, STACK
        LOCFRAME RSTACK, 3, STACK
        FUNCALL write_menu, atol
        LOCFRAME CSTACK, 83, STACK
        LOCFRAME RSTACK, 3, STACK
        FUNCALL write_menu, RdFromFleshToArr
        LOCFRAME CSTACK, 83, STACK
        LOCFRAME RSTACK, 3, STACK
        FUNCALL write_menu, crc_m1
        LOCFRAME CSTACK, 83, STACK
        LOCFRAME RSTACK, 3, STACK
        FUNCALL write_menu, WrArrayToFlesh
        LOCFRAME CSTACK, 83, STACK
        LOCFRAME RSTACK, 3, STACK
        FUNCALL write_menu, atol
        LOCFRAME CSTACK, 83, STACK
        LOCFRAME RSTACK, 3, STACK
        FUNCALL write_menu, RdFromFleshToArr
        LOCFRAME CSTACK, 83, STACK
        LOCFRAME RSTACK, 3, STACK
        FUNCALL write_menu, crc_m1
        LOCFRAME CSTACK, 83, STACK
        LOCFRAME RSTACK, 3, STACK
        FUNCALL write_menu, WrArrayToFlesh
        LOCFRAME CSTACK, 83, STACK
        LOCFRAME RSTACK, 3, STACK
        FUNCALL write_menu, atol
        LOCFRAME CSTACK, 83, STACK
        LOCFRAME RSTACK, 3, STACK
        FUNCALL write_menu, RdFromFleshToArr
        LOCFRAME CSTACK, 83, STACK
        LOCFRAME RSTACK, 3, STACK
        FUNCALL write_menu, crc_m1
        LOCFRAME CSTACK, 83, STACK
        LOCFRAME RSTACK, 3, STACK
        FUNCALL write_menu, WrArrayToFlesh
        LOCFRAME CSTACK, 83, STACK
        LOCFRAME RSTACK, 3, STACK
        FUNCALL write_menu, atol
        LOCFRAME CSTACK, 83, STACK
        LOCFRAME RSTACK, 3, STACK
        FUNCALL write_menu, RdFromFleshToArr
        LOCFRAME CSTACK, 83, STACK
        LOCFRAME RSTACK, 3, STACK
        FUNCALL write_menu, crc_m1
        LOCFRAME CSTACK, 83, STACK
        LOCFRAME RSTACK, 3, STACK
        FUNCALL write_menu, WrArrayToFlesh
        LOCFRAME CSTACK, 83, STACK
        LOCFRAME RSTACK, 3, STACK
        FUNCALL write_menu, atol
        LOCFRAME CSTACK, 83, STACK
        LOCFRAME RSTACK, 3, STACK
        FUNCALL write_menu, RdFromFleshToArr
        LOCFRAME CSTACK, 83, STACK
        LOCFRAME RSTACK, 3, STACK
        FUNCALL write_menu, crc_m1
        LOCFRAME CSTACK, 83, STACK
        LOCFRAME RSTACK, 3, STACK
        FUNCALL write_menu, WrArrayToFlesh
        LOCFRAME CSTACK, 83, STACK
        LOCFRAME RSTACK, 3, STACK
        FUNCALL write_menu, atol
        LOCFRAME CSTACK, 83, STACK
        LOCFRAME RSTACK, 3, STACK
        FUNCALL write_menu, RdFromFleshToArr
        LOCFRAME CSTACK, 83, STACK
        LOCFRAME RSTACK, 3, STACK
        FUNCALL write_menu, crc_m1
        LOCFRAME CSTACK, 83, STACK
        LOCFRAME RSTACK, 3, STACK
        FUNCALL write_menu, WrArrayToFlesh
        LOCFRAME CSTACK, 83, STACK
        LOCFRAME RSTACK, 3, STACK
        FUNCALL write_menu, RdFromFleshToArr
        LOCFRAME CSTACK, 83, STACK
        LOCFRAME RSTACK, 3, STACK
        FUNCALL write_menu, crc_m1
        LOCFRAME CSTACK, 83, STACK
        LOCFRAME RSTACK, 3, STACK
        FUNCALL write_menu, WrArrayToFlesh
        LOCFRAME CSTACK, 83, STACK
        LOCFRAME RSTACK, 3, STACK
        FUNCALL write_menu, RdFromFleshToArr
        LOCFRAME CSTACK, 83, STACK
        LOCFRAME RSTACK, 3, STACK
        FUNCALL write_menu, crc_m1
        LOCFRAME CSTACK, 83, STACK
        LOCFRAME RSTACK, 3, STACK
        FUNCALL write_menu, WrArrayToFlesh
        LOCFRAME CSTACK, 83, STACK
        LOCFRAME RSTACK, 3, STACK
        FUNCALL write_menu, mov_lf
        LOCFRAME CSTACK, 83, STACK
        LOCFRAME RSTACK, 3, STACK
        FUNCALL write_menu, test_loop
        LOCFRAME CSTACK, 83, STACK
        LOCFRAME RSTACK, 3, STACK
        FUNCALL write_menu, test_loop2
        LOCFRAME CSTACK, 83, STACK
        LOCFRAME RSTACK, 3, STACK
        FUNCALL write_menu, mov_lf
        LOCFRAME CSTACK, 83, STACK
        LOCFRAME RSTACK, 3, STACK
        FUNCALL write_menu, s_port
        LOCFRAME CSTACK, 83, STACK
        LOCFRAME RSTACK, 3, STACK
        FUNCALL write_menu, vosstan_memory
        LOCFRAME CSTACK, 83, STACK
        LOCFRAME RSTACK, 3, STACK
        FUNCALL write_menu, burst_ds_r
        LOCFRAME CSTACK, 83, STACK
        LOCFRAME RSTACK, 3, STACK
        FUNCALL write_menu, atol
        LOCFRAME CSTACK, 83, STACK
        LOCFRAME RSTACK, 3, STACK
        FUNCALL write_menu, atol
        LOCFRAME CSTACK, 83, STACK
        LOCFRAME RSTACK, 3, STACK
        FUNCALL write_menu, atol
        LOCFRAME CSTACK, 83, STACK
        LOCFRAME RSTACK, 3, STACK
        FUNCALL write_menu, set_rlt
        LOCFRAME CSTACK, 83, STACK
        LOCFRAME RSTACK, 3, STACK
        FUNCALL write_menu, burst_ds_r
        LOCFRAME CSTACK, 83, STACK
        LOCFRAME RSTACK, 3, STACK
        FUNCALL write_menu, atol
        LOCFRAME CSTACK, 83, STACK
        LOCFRAME RSTACK, 3, STACK
        FUNCALL write_menu, atol
        LOCFRAME CSTACK, 83, STACK
        LOCFRAME RSTACK, 3, STACK
        FUNCALL write_menu, atol
        LOCFRAME CSTACK, 83, STACK
        LOCFRAME RSTACK, 3, STACK
        FUNCALL write_menu, set_rlt
        LOCFRAME CSTACK, 83, STACK
        LOCFRAME RSTACK, 3, STACK
        FUNCALL write_menu, WrArrayToFlesh
        LOCFRAME CSTACK, 83, STACK
        LOCFRAME RSTACK, 3, STACK
        FUNCALL write_menu, RdFromFleshToArr
        LOCFRAME CSTACK, 83, STACK
        LOCFRAME RSTACK, 3, STACK
        FUNCALL write_menu, s_port
        LOCFRAME CSTACK, 83, STACK
        LOCFRAME RSTACK, 3, STACK
        FUNCALL write_menu, s_port
        LOCFRAME CSTACK, 83, STACK
        LOCFRAME RSTACK, 3, STACK
        FUNCALL write_menu, s_port
        LOCFRAME CSTACK, 83, STACK
        LOCFRAME RSTACK, 3, STACK
        FUNCALL write_menu, mov_s
        LOCFRAME CSTACK, 83, STACK
        LOCFRAME RSTACK, 3, STACK
        FUNCALL write_menu, crc_m1
        LOCFRAME CSTACK, 83, STACK
        LOCFRAME RSTACK, 3, STACK
        FUNCALL write_menu, WrArrayToFlesh
        LOCFRAME CSTACK, 83, STACK
        LOCFRAME RSTACK, 3, STACK
        FUNCALL write_menu, check_keys
        LOCFRAME CSTACK, 83, STACK
        LOCFRAME RSTACK, 3, STACK
        FUNCALL write_menu, crc_m1
        LOCFRAME CSTACK, 83, STACK
        LOCFRAME RSTACK, 3, STACK
        FUNCALL write_menu, WrArrayToFlesh
        LOCFRAME CSTACK, 83, STACK
        LOCFRAME RSTACK, 3, STACK
        FUNCALL write_menu, crc_m1
        LOCFRAME CSTACK, 83, STACK
        LOCFRAME RSTACK, 3, STACK
        FUNCALL write_menu, WrArrayToFlesh
        LOCFRAME CSTACK, 83, STACK
        LOCFRAME RSTACK, 3, STACK
        FUNCALL write_menu, burst_ds_r
        LOCFRAME CSTACK, 83, STACK
        LOCFRAME RSTACK, 3, STACK
        FUNCALL write_menu, crc_m1
        LOCFRAME CSTACK, 83, STACK
        LOCFRAME RSTACK, 3, STACK
        FUNCALL write_menu, WrArrayToFlesh
        LOCFRAME CSTACK, 83, STACK
        LOCFRAME RSTACK, 3, STACK
        FUNCALL write_menu, WrArrayToFlesh
        LOCFRAME CSTACK, 83, STACK
        LOCFRAME RSTACK, 3, STACK
        FUNCALL write_menu, mov_s
        LOCFRAME CSTACK, 83, STACK
        LOCFRAME RSTACK, 3, STACK
        FUNCALL write_menu, lock_it
        LOCFRAME CSTACK, 83, STACK
        LOCFRAME RSTACK, 3, STACK
        FUNCALL write_menu, mov_lf
        LOCFRAME CSTACK, 83, STACK
        LOCFRAME RSTACK, 3, STACK
        FUNCALL write_menu, send_to_sim900
        LOCFRAME CSTACK, 83, STACK
        LOCFRAME RSTACK, 3, STACK
        CALL	?PROLOGUE9_L09
        CFI R8 Frame(CFA_Y, -1)
        CFI R7 Frame(CFA_Y, -2)
        CFI R6 Frame(CFA_Y, -3)
        CFI R5 Frame(CFA_Y, -4)
        CFI R4 Frame(CFA_Y, -5)
        CFI R27 Frame(CFA_Y, -6)
        CFI R26 Frame(CFA_Y, -7)
        CFI R25 Frame(CFA_Y, -8)
        CFI R24 Frame(CFA_Y, -9)
        CFI CFA_Y Y+9
        REQUIRE	?Register_R4_is_cg_reg
        REQUIRE	?Register_R5_is_cg_reg
        REQUIRE	?Register_R6_is_cg_reg
        REQUIRE	?Register_R7_is_cg_reg
        REQUIRE	?Register_R8_is_cg_reg
        SBIW	R29:R28, 63
        CFI CFA_Y Y+72
        SBIW	R29:R28, 11
        CFI CFA_Y Y+83
// 1542 
// 1543        union
// 1544    {
// 1545    unsigned char bytes[4]; 
// 1546    unsigned long int word;
// 1547    } cifra_long;  
// 1548   
// 1549    unsigned char i,j,k,m,n;
// 1550    unsigned char jj;    
// 1551     unsigned char buf[70];
// 1552        
// 1553        switch(index_menu)
        LDI	R26, LOW(buf_tx_232)
        LDI	R27, (buf_tx_232) >> 8
        RCALL	?Subroutine132
??CrossCallReturnLabel_178:
        LD	R18, Z
        LDD	R19, Z+1
        MOVW	R7:R6, R27:R26
        ADD	R6, R18
        ADC	R7, R19
        LDI	R17, 254
        ADD	R6, R17
        LDI	R17, 255
        ADC	R7, R17
        MOVW	R31:R30, R27:R26
        LDD	R8, Z+3
        LDD	R25, Z+2
        LDD	R24, Z+1
        LDI	R30, LOW(`?<Jumptable for write_menu>_0`)
        LDI	R31, (`?<Jumptable for write_menu>_0`) >> 16
        OUT	0x3B, R31
        LDI	R31, HIGH(`?<Jumptable for write_menu>_0`)
        JMP	?CV_SWITCH_L06
// 1554         {      
// 1555                  
// 1556                
// 1557  #ifdef SCENARIO_TEST_MTC_ENABLE 
// 1558           // запустить сценарий тестировани€ модул€ с специально раскар€ченным ра
// 1559    case 1:    
// 1560            if ( buf_tx_232[0] == '1') 
??write_menu_0:
        RCALL	?Subroutine136
??CrossCallReturnLabel_188:
        BRNE	??write_menu_1
// 1561           {
// 1562           test_mtc.enable = 1;
        LDI	R30, LOW(test_mtc)
        LDI	R31, (test_mtc) >> 8
        LDI	R16, 1
        STD	Z+1, R16
// 1563           test_mtc.step = 0;
        LDI	R16, 0
        ST	Z, R16
// 1564         }
// 1565           vol_tx_ppp=0;
??write_menu_1:
        RCALL	?Subroutine2
// 1566           return;
??CrossCallReturnLabel_320:
        RJMP	??CrossCallReturnLabel_366
// 1567 #endif
// 1568                              
// 1569                 
// 1570                 
// 1571                  case 3: 
// 1572                         if(vol_tx_ppp!=2)goto bad_com_232;
??write_menu_2:
        RCALL	?Subroutine3
??CrossCallReturnLabel_329:
        BRNE	??write_menu_3
// 1573                          
// 1574                          
// 1575                       switch(buf_tx_232[0])
        LD	R16, X
        SUBI	R16, 49
        BREQ	??write_menu_4
        DEC	R16
        BREQ	??write_menu_5
        DEC	R16
        BREQ	??write_menu_6
        RJMP	??write_menu_3
// 1576                          
// 1577                            {
// 1578                             case '1':
// 1579                                   RdFromFleshToArr(A_C1_GPRS,&buf[0],L_C1_GPRS_MAX);
??write_menu_4:
        RCALL	?Subroutine28
// 1580                                   if((buf[0]==0)||(buf[0]>30))goto bad_com_232;
??CrossCallReturnLabel_279:
        BREQ	??write_menu_3
??write_menu_7:
        LDD	R16, Y+4
        CPI	R16, 31
        BRCS	??write_menu_8
// 1581                                  break;
// 1582                             case '2':
// 1583                                  RdFromFleshToArr(A_C2_GPRS,&buf[0],L_C2_GPRS_MAX);
// 1584                                  if((buf[0]==0)||(buf[0]>30))goto bad_com_232;
// 1585                                  break;
// 1586                             case '3': 
// 1587                                  RdFromFleshToArr(A_C3_GPRS,&buf[0],L_C3_GPRS_MAX); 
// 1588                                  if((buf[0]==0)||(buf[0]>30))goto bad_com_232;                              
// 1589                                  break;
// 1590                            default: goto bad_com_232;
// 1591                            }
// 1592                             
// 1593                         *(unsigned int*)&buf[L_C_GPRS_MAX-2]=crc_m1(&buf[0],L_C_GPRS_MAX-2,0xffff);             
// 1594                         WrArrayToFlesh(A_C_GPRS, &buf[0],L_C_GPRS_MAX,0,0);   
// 1595                         
// 1596                         vol_tx_ppp=0;                                                                                      
// 1597                         mov_s ( sizeof(ok_t),ok_t); 
// 1598                         return;                 
// 1599                 
// 1600                 case 4: 
// 1601                         if(vol_tx_ppp!=2)goto bad_com_232;
// 1602                          
// 1603                          
// 1604                       switch(buf_tx_232[0])
// 1605                          
// 1606                            {
// 1607                             case '1':
// 1608                                   RdFromFleshToArr(A_C1_GPRS,&buf[0],L_C1_GPRS_MAX);
// 1609                                   if((buf[0]==0)||(buf[0]>30))goto bad_com_232;
// 1610                                  break;
// 1611                             case '2':
// 1612                                  RdFromFleshToArr(A_C2_GPRS,&buf[0],L_C2_GPRS_MAX);
// 1613                                  if((buf[0]==0)||(buf[0]>30))goto bad_com_232;
// 1614                                  break;
// 1615                             case '3': 
// 1616                                  RdFromFleshToArr(A_C3_GPRS,&buf[0],L_C3_GPRS_MAX); 
// 1617                                  if((buf[0]==0)||(buf[0]>30))goto bad_com_232;                              
// 1618                                  break;
// 1619                            default: goto bad_com_232;
// 1620                            }
// 1621                             
// 1622                         *(unsigned int*)&buf[L_CR_GPRS_MAX-2]=crc_m1(&buf[0],L_CR_GPRS_MAX-2,0xffff);             
// 1623                         WrArrayToFlesh(A_CR_GPRS, &buf[0],L_CR_GPRS_MAX,0,0);   
// 1624                         
// 1625                         vol_tx_ppp=0;                                                                                      
// 1626                         mov_s ( sizeof(ok_t),ok_t); 
// 1627                         return;         
// 1628                         
// 1629                         
// 1630                  case 5:
// 1631                          if(vol_tx_ppp!=16)goto bad_com_232;
// 1632                          if(buf_tx_232[3]!='.')goto bad_com_232;
// 1633                          if(buf_tx_232[7]!='.')goto bad_com_232;
// 1634                          if(buf_tx_232[11]!='.')goto bad_com_232;
// 1635                          
// 1636                          RdFromFleshToArr(A_IP_PAR,&buf[0],L_IP_PAR); 
// 1637  
// 1638                          
// 1639                          cifra_long.word=atol((char *)&buf_tx_232[0]); 
// 1640                          if(cifra_long.word>255)goto bad_com_232;
// 1641                             else buf[OFS_IP]=cifra_long.bytes[0];
// 1642        
// 1643                          cifra_long.word=atol((char *)&buf_tx_232[4]);  
// 1644                          if(cifra_long.word>255)goto bad_com_232;
// 1645                             else buf[OFS_IP+1]=cifra_long.bytes[0];
// 1646                          
// 1647                          cifra_long.word=atol((char *)&buf_tx_232[8]); 
// 1648                           if(cifra_long.word>255)goto bad_com_232;
// 1649                               else buf[OFS_IP+2]=cifra_long.bytes[0];
// 1650                          
// 1651                             
// 1652                          cifra_long.word=atol((char *)&buf_tx_232[12]); 
// 1653                           if(cifra_long.word>255)goto bad_com_232;
// 1654                               else buf[OFS_IP+3]=cifra_long.bytes[0];
// 1655  
// 1656                       *(unsigned int*)&buf[OFS_IP_PAR_CRC]=crc_m1(&buf[0],L_IP_PAR-2,0xffff);
// 1657                       WrArrayToFlesh(A_IP_PAR, &buf[0],L_IP_PAR,0,0);
// 1658                          
// 1659                             
// 1660                       vol_tx_ppp=0;                                                                                      
// 1661                       mov_s ( sizeof(ok_t),ok_t); 
// 1662                       return; 
// 1663                  
// 1664                  
// 1665                  case 6:
// 1666                       cifra_long.word=atol((char *)&buf_tx_232[0]);                                                                                      
// 1667                       if (cifra_long.word>65535) goto bad_com_232;
// 1668   
// 1669                       RdFromFleshToArr(A_IP_PAR,&buf[0],L_IP_PAR); 
// 1670                       *(unsigned int*)&buf[OFS_PORT]=cifra_long.word;//UDP порт
// 1671                       *(unsigned int*)&buf[OFS_IP_PAR_CRC]=crc_m1(&buf[0],L_IP_PAR-2,0xffff);
// 1672                       WrArrayToFlesh(A_IP_PAR, &buf[0],L_IP_PAR,0,0);
// 1673                       
// 1674                       vol_tx_ppp=0;                                                                                      
// 1675                       mov_s ( sizeof(ok_t),ok_t);  
// 1676                       return;
// 1677                
// 1678                  case 7:
// 1679                       cifra_long.word=atol((char *)&buf_tx_232[0]);                                                                                      
// 1680                       if (cifra_long.word<3)goto bad_com_232;
// 1681                       if (cifra_long.word>65535) goto bad_com_232;
// 1682                       for (i=0;i<12;i++) 
// 1683                       {
// 1684                         if ( (buf_tx_232[i]==0xd))  {
// 1685                                  if (  ( buf_tx_232[i-1]== '*' )  && ( buf_tx_232[i-2]== '*' )  && ( buf_tx_232[i-3]== '*' ) ) goto enable_wri; 
// 1686                                    vol_tx_ppp=0;                                                                                      
// 1687                                    mov_s ( sizeof(dis),dis);  
// 1688                                    return; 
// 1689                         }
// 1690                       }
// 1691                        vol_tx_ppp=0;                                                                                      
// 1692                       mov_s ( sizeof(dis),dis);  
// 1693                       return;      
// 1694         enable_wri:      
// 1695                       RdFromFleshToArr(A_IP_PAR,&buf[0],L_IP_PAR); 
// 1696                       *(unsigned int*)&buf[OFS_NUM]=cifra_long.word;
// 1697                       *(unsigned int*)&buf[OFS_IP_PAR_CRC]=crc_m1(&buf[0],L_IP_PAR-2,0xffff);
// 1698                       WrArrayToFlesh(A_IP_PAR, &buf[0],L_IP_PAR,0,0);
// 1699                       
// 1700                       vol_tx_ppp=0;                                                                                      
// 1701                       mov_s ( sizeof(ok_t),ok_t);  
// 1702                       return;
// 1703                  
// 1704                  case 8:
// 1705                       
// 1706                       cifra_long.word=atol((char *)&buf_tx_232[0]);                                                                                      
// 1707                       if (cifra_long.word<10)goto bad_com_232;
// 1708                       if (cifra_long.word>65535) goto bad_com_232;
// 1709   
// 1710                       RdFromFleshToArr(A_C_PAR,&buf[0],L_C_PAR); 
// 1711                       *(unsigned int*)&buf[OFS_NAT]=cifra_long.word;
// 1712                       *(unsigned int*)&buf[OFS_C_PAR_CRC]=crc_m1(&buf[0],L_C_PAR-2,0xffff);
// 1713                       WrArrayToFlesh(A_C_PAR, &buf[0],L_C_PAR,0,0);
// 1714                       
// 1715                       vol_tx_ppp=0;                                                                                      
// 1716                       mov_s ( sizeof(ok_t),ok_t);  
// 1717                       return;
// 1718                       
// 1719                case 9:
// 1720                       
// 1721                       cifra_long.word=atol((char *)&buf_tx_232[0]);                                                                                      
// 1722                       if (cifra_long.word<10)goto bad_com_232;
// 1723                       if (cifra_long.word>65535) goto bad_com_232;
// 1724   
// 1725                       RdFromFleshToArr(A_C_PAR,&buf[0],L_C_PAR); 
// 1726                       *(unsigned int*)&buf[OFS_NAT_R]=cifra_long.word;
// 1727                       *(unsigned int*)&buf[OFS_C_PAR_CRC]=crc_m1(&buf[0],L_C_PAR-2,0xffff);
// 1728                       WrArrayToFlesh(A_C_PAR, &buf[0],L_C_PAR,0,0);
// 1729                       
// 1730                       vol_tx_ppp=0;                                                                                      
// 1731                       mov_s ( sizeof(ok_t),ok_t);  
// 1732                       return;       
// 1733                 
// 1734                 case 10:
// 1735                       
// 1736                       cifra_long.word=atol((char *)&buf_tx_232[0]);                                                                                      
// 1737                       if (cifra_long.word<10)goto bad_com_232;
// 1738                       if (cifra_long.word>65535) goto bad_com_232;
// 1739   
// 1740                       RdFromFleshToArr(A_C_PAR,&buf[0],L_C_PAR); 
// 1741                       *(unsigned int*)&buf[OFS_CCH]=cifra_long.word;
// 1742                       *(unsigned int*)&buf[OFS_C_PAR_CRC]=crc_m1(&buf[0],L_C_PAR-2,0xffff);
// 1743                       WrArrayToFlesh(A_C_PAR, &buf[0],L_C_PAR,0,0);
// 1744                       
// 1745                       vol_tx_ppp=0;                                                                                      
// 1746                       mov_s ( sizeof(ok_t),ok_t);  
// 1747                       return;
// 1748                 
// 1749                 case 11:
// 1750                       
// 1751                       cifra_long.word=atol((char *)&buf_tx_232[0]);                                                                                      
// 1752                       if (cifra_long.word<5)goto bad_com_232;
// 1753                       if (cifra_long.word>65535) goto bad_com_232;
// 1754   
// 1755                       RdFromFleshToArr(A_C_PAR,&buf[0],L_C_PAR); 
// 1756                       *(unsigned int*)&buf[OFS_TM_CH]=cifra_long.word;
// 1757                       *(unsigned int*)&buf[OFS_C_PAR_CRC]=crc_m1(&buf[0],L_C_PAR-2,0xffff);
// 1758                       WrArrayToFlesh(A_C_PAR, &buf[0],L_C_PAR,0,0);
// 1759                       
// 1760                       vol_tx_ppp=0;                                                                                      
// 1761                       mov_s ( sizeof(ok_t),ok_t);  
// 1762                       return;
// 1763 
// 1764      //!!!!!!!!!!! dobavka        
// 1765                case 12:
// 1766                       
// 1767                       cifra_long.word=atol((char *)&buf_tx_232[0]);                                                                                      
// 1768 
// 1769                       if (cifra_long.word>65535) goto bad_com_232;
// 1770                       
// 1771                       RdFromFleshToArr(A_C_PAR,&buf[0],L_C_PAR); 
// 1772                       
// 1773                       if(cifra_long.word!=0)                                                       
// 1774                       if((cifra_long.word *60) <= (*(unsigned int*)&buf[OFS_CCH]))goto bad_com_232;
// 1775                       
// 1776                       *(unsigned int*)&buf[OFS_TM_NO_LINK]=cifra_long.word;
// 1777                       *(unsigned int*)&buf[OFS_C_PAR_CRC]=crc_m1(&buf[0],L_C_PAR-2,0xffff);
// 1778                       WrArrayToFlesh(A_C_PAR, &buf[0],L_C_PAR,0,0);
// 1779                       
// 1780                       vol_tx_ppp=0;                                                                                      
// 1781                       mov_s ( sizeof(ok_t),ok_t);  
// 1782                       return;
// 1783              
// 1784                       
// 1785               case 13:
// 1786                       
// 1787                       cifra_long.word=atol((char *)&buf_tx_232[0]);                                                                                      
// 1788                       if (cifra_long.word<MIN_TM_LINK_RES) goto bad_com_232;
// 1789                       if (cifra_long.word>65535) goto bad_com_232;
// 1790                       
// 1791                       RdFromFleshToArr(A_C_PAR,&buf[0],L_C_PAR); 
// 1792                                                                                
// 1793                       if((cifra_long.word *60) <=  (*(unsigned int*)&buf[OFS_CCH]))goto bad_com_232;
// 1794                       
// 1795                       *(unsigned int*)&buf[OFS_TM_LINK_RES]=cifra_long.word;
// 1796                       *(unsigned int*)&buf[OFS_C_PAR_CRC]=crc_m1(&buf[0],L_C_PAR-2,0xffff);
// 1797                       WrArrayToFlesh(A_C_PAR, &buf[0],L_C_PAR,0,0);
// 1798                       
// 1799                       vol_tx_ppp=0;                                                                                      
// 1800                       mov_s ( sizeof(ok_t),ok_t);  
// 1801                       return;         
// 1802              //EEEEEEEEEEEEEEEEE dobavka                           
// 1803                       
// 1804               
// 1805               case 14: 
// 1806                          if(vol_tx_ppp!=2)goto bad_com_232;
// 1807                          if((buf_tx_232[0]=='0')||(buf_tx_232[0]=='1'))cifra_long.bytes[0]=buf_tx_232[0]-0x30;
// 1808                             else goto bad_com_232;
// 1809                       
// 1810                       RdFromFleshToArr(A_SEQ_PAR,&buf[0],L_SEQ_PAR); 
// 1811                       buf[OFS_DES_SEQ]=cifra_long.bytes[0];
// 1812                       *(unsigned int*)&buf[OFS_SEQ_PAR_CRC]=crc_m1(&buf[0],L_SEQ_PAR-2,0xffff);
// 1813                       WrArrayToFlesh(A_SEQ_PAR, &buf[0],L_SEQ_PAR,0,0);
// 1814                       
// 1815                       vol_tx_ppp=0;                                                                                      
// 1816                       mov_s ( sizeof(ok_t),ok_t);  
// 1817                       return;    
// 1818                
// 1819                
// 1820                
// 1821                 case 15:
// 1822                       
// 1823                       cifra_long.word=atol((char *)&buf_tx_232[0]);                                                                                      
// 1824                       if (cifra_long.word<3) goto bad_com_232;
// 1825                       if (cifra_long.word>65535) goto bad_com_232;
// 1826 
// 1827                       RdFromFleshToArr(A_SEQ_PAR,&buf[0],L_SEQ_PAR); 
// 1828                       *(unsigned int*)&buf[OFS_NUM_CL]=cifra_long.word;
// 1829                       *(unsigned int*)&buf[OFS_SEQ_PAR_CRC]=crc_m1(&buf[0],L_SEQ_PAR-2,0xffff);
// 1830                       WrArrayToFlesh(A_SEQ_PAR, &buf[0],L_SEQ_PAR,0,0);
// 1831                       
// 1832                       vol_tx_ppp=0;                                                                                      
// 1833                       mov_s ( sizeof(ok_t),ok_t);  
// 1834                       return;
// 1835                 
// 1836                 case 16:
// 1837                       
// 1838                       cifra_long.word=atol((char *)&buf_tx_232[0]);                                                                                      
// 1839                       if (cifra_long.word==0)goto bad_com_232;
// 1840                       if (cifra_long.word>65535) goto bad_com_232;
// 1841 
// 1842                       RdFromFleshToArr(A_SEQ_PAR,&buf[0],L_SEQ_PAR); 
// 1843                       *(unsigned int*)&buf[OFS_TM_VZ]=cifra_long.word;
// 1844                       *(unsigned int*)&buf[OFS_SEQ_PAR_CRC]=crc_m1(&buf[0],L_SEQ_PAR-2,0xffff);
// 1845                       WrArrayToFlesh(A_SEQ_PAR, &buf[0],L_SEQ_PAR,0,0);
// 1846                       
// 1847                       vol_tx_ppp=0;                                                                                      
// 1848                       mov_s ( sizeof(ok_t),ok_t);  
// 1849                       return;
// 1850                       
// 1851                 case 17:
// 1852                       
// 1853                       cifra_long.word=atol((char *)&buf_tx_232[0]);                                                                                      
// 1854                       if (cifra_long.word<5)goto bad_com_232;
// 1855                       if (cifra_long.word>65535) goto bad_com_232;
// 1856 
// 1857                       RdFromFleshToArr(A_SEQ_PAR,&buf[0],L_SEQ_PAR); 
// 1858                       *(unsigned int*)&buf[OFS_TM_CL]=cifra_long.word;
// 1859                       *(unsigned int*)&buf[OFS_SEQ_PAR_CRC]=crc_m1(&buf[0],L_SEQ_PAR-2,0xffff);
// 1860                       WrArrayToFlesh(A_SEQ_PAR, &buf[0],L_SEQ_PAR,0,0);
// 1861                       
// 1862                       vol_tx_ppp=0;                                                                                      
// 1863                       mov_s ( sizeof(ok_t),ok_t);  
// 1864                       return;      
// 1865                 
// 1866                       
// 1867                  case 18:
// 1868                       
// 1869                       cifra_long.word=atol((char *)&buf_tx_232[0]);                                                                                      
// 1870                       if (cifra_long.word>2) goto bad_com_232;
// 1871                       RdFromFleshToArr(A_SEQ_PAR,&buf[0],L_SEQ_PAR); 
// 1872                       *(unsigned char*)&buf[OFS_TP_TS]=cifra_long.word;
// 1873                       *(unsigned int*)&buf[OFS_SEQ_PAR_CRC]=crc_m1(&buf[0],L_SEQ_PAR-2,0xffff);
// 1874                       WrArrayToFlesh(A_SEQ_PAR, &buf[0],L_SEQ_PAR,0,0);
// 1875                       
// 1876                       vol_tx_ppp=0;                                                                                      
// 1877                       mov_s ( sizeof(ok_t),ok_t);  
// 1878                       return;         
// 1879                       
// 1880                 case 19:
// 1881                       
// 1882                       cifra_long.word=atol((char *)&buf_tx_232[0]);                                                                                      
// 1883                       if (cifra_long.word>1) goto bad_com_232;
// 1884                       RdFromFleshToArr(A_SEQ_PAR,&buf[0],L_SEQ_PAR); 
// 1885                       *(unsigned char*)&buf[OFS_TP_TS+1]=cifra_long.word;
// 1886                       *(unsigned int*)&buf[OFS_SEQ_PAR_CRC]=crc_m1(&buf[0],L_SEQ_PAR-2,0xffff);
// 1887                       WrArrayToFlesh(A_SEQ_PAR, &buf[0],L_SEQ_PAR,0,0);
// 1888                       
// 1889                       vol_tx_ppp=0;                                                                                      
// 1890                       mov_s ( sizeof(ok_t),ok_t);  
// 1891                       return;        
// 1892                       
// 1893                       
// 1894                       
// 1895                 
// 1896                case 20: 
// 1897                          cifra_long.word=atol((char *)&buf_tx_232[0]);
// 1898                           if (cifra_long.word>3)goto bad_com_232;   //dobavka 
// 1899                          e_debug=cifra_long.bytes[0];
// 1900 
// 1901                       vol_tx_ppp=0;                                                                                      
// 1902                       mov_s ( sizeof(ok_t),ok_t);  
// 1903                       return;    
// 1904                 
// 1905                 
// 1906 
// 1907                case 21:
// 1908                      if((vol_tx_ppp<7)||(vol_tx_ppp>60))goto bad_com_232;
// 1909                      
// 1910                      if(buf_tx_232[0]!='"')goto bad_com_232;
// 1911                      if(buf_tx_232[vol_tx_ppp-2]!='"')goto bad_com_232;
// 1912                      
// 1913                      RdFromFleshToArr(A_C1_GPRS,&buf[0],L_C1_GPRS_MAX);
// 1914                       
// 1915                      i=0;
// 1916                      j=1;
// 1917                      n=i;
// 1918                      m=j;
// 1919                      while(buf_tx_232[j]!='"'){j++;i++;}
// 1920                      if (j>=vol_tx_ppp-2)goto bad_com_232;
// 1921                      j++;
// 1922                      if (buf_tx_232[j]!='"')goto bad_com_232;
// 1923                      if (j>=vol_tx_ppp-1)goto bad_com_232;
// 1924                      buf[n]=i;
// 1925                      for(k=0;k<buf[n];k++)buf[n+1+k]=buf_tx_232[m+k];
// 1926                           
// 1927                      n=n+buf[n]+1;
// 1928                      i=0;
// 1929                      j++;
// 1930                      m=j;
// 1931                      while(buf_tx_232[j]!='"'){j++;i++;}
// 1932                      if (j>=vol_tx_ppp-2)goto bad_com_232;
// 1933                      j++;
// 1934                      if (buf_tx_232[j]!='"')goto bad_com_232;
// 1935                      if (j>=vol_tx_ppp-1)goto bad_com_232;
// 1936                      buf[n]=i;
// 1937                      for(k=0;k<buf[n];k++)buf[n+1+k]=buf_tx_232[m+k];
// 1938                      
// 1939                      
// 1940                      n=n+buf[n]+1;
// 1941                      i=0;
// 1942                      j++;
// 1943                      m=j;
// 1944                      while(buf_tx_232[j]!='"'){j++;i++;}
// 1945                      if (j>=vol_tx_ppp-1)goto bad_com_232;
// 1946                      buf[n]=i;
// 1947                      for(k=0;k<buf[n];k++)buf[n+1+k]=buf_tx_232[m+k];   
// 1948                      
// 1949                      *(unsigned int*)&buf[L_C1_GPRS_MAX-2]=crc_m1(&buf[0],L_C1_GPRS_MAX-2,0xffff);             
// 1950                      WrArrayToFlesh(A_C1_GPRS, &buf[0],L_C1_GPRS_MAX,0,0);
// 1951                      
// 1952                       vol_tx_ppp=0;
// 1953                       mov_s ( sizeof(ok_t),ok_t);  
// 1954                       return; 
// 1955              
// 1956              case 22:
// 1957                      if((vol_tx_ppp<7)||(vol_tx_ppp>60))goto bad_com_232;
// 1958                      
// 1959                      if(buf_tx_232[0]!='"')goto bad_com_232;
// 1960                      if(buf_tx_232[vol_tx_ppp-2]!='"')goto bad_com_232;
// 1961                      
// 1962                      RdFromFleshToArr(A_C2_GPRS,&buf[0],L_C2_GPRS_MAX);
// 1963                       
// 1964                      i=0;
// 1965                      j=1;
// 1966                      n=i;
// 1967                      m=j;
// 1968                      while(buf_tx_232[j]!='"'){j++;i++;}
// 1969                      if (j>=vol_tx_ppp-2)goto bad_com_232;
// 1970                      j++;
// 1971                      if (buf_tx_232[j]!='"')goto bad_com_232;
// 1972                      if (j>=vol_tx_ppp-1)goto bad_com_232;
// 1973                      buf[n]=i;
// 1974                      for(k=0;k<buf[n];k++)buf[n+1+k]=buf_tx_232[m+k];
// 1975                           
// 1976                      n=n+buf[n]+1;
// 1977                      i=0;
// 1978                      j++;
// 1979                      m=j;
// 1980                      while(buf_tx_232[j]!='"'){j++;i++;}
// 1981                      if (j>=vol_tx_ppp-2)goto bad_com_232;
// 1982                      j++;
// 1983                      if (buf_tx_232[j]!='"')goto bad_com_232;
// 1984                      if (j>=vol_tx_ppp-1)goto bad_com_232;
// 1985                      buf[n]=i;
// 1986                      for(k=0;k<buf[n];k++)buf[n+1+k]=buf_tx_232[m+k];
// 1987                      
// 1988                      
// 1989                      n=n+buf[n]+1;
// 1990                      i=0;
// 1991                      j++;
// 1992                      m=j;
// 1993                      while(buf_tx_232[j]!='"'){j++;i++;}
// 1994                      if (j>=vol_tx_ppp-1)goto bad_com_232;
// 1995                      buf[n]=i;
// 1996                      for(k=0;k<buf[n];k++)buf[n+1+k]=buf_tx_232[m+k];   
// 1997                      
// 1998                      *(unsigned int*)&buf[L_C2_GPRS_MAX-2]=crc_m1(&buf[0],L_C2_GPRS_MAX-2,0xffff);               
// 1999                      WrArrayToFlesh(A_C2_GPRS, &buf[0],L_C2_GPRS_MAX,0,0);
// 2000                      
// 2001                       vol_tx_ppp=0;
// 2002                       mov_s ( sizeof(ok_t),ok_t);  
// 2003                       return;                      
// 2004    
// 2005                 case 23:
// 2006                      if((vol_tx_ppp<7)||(vol_tx_ppp>60))goto bad_com_232;
// 2007                      
// 2008                      if(buf_tx_232[0]!='"')goto bad_com_232;
// 2009                      if(buf_tx_232[vol_tx_ppp-2]!='"')goto bad_com_232;
// 2010                      
// 2011                      RdFromFleshToArr(A_C3_GPRS,&buf[0],L_C3_GPRS_MAX);
// 2012                       
// 2013                      i=0;
// 2014                      j=1;
// 2015                      n=i;
// 2016                      m=j;
// 2017                      while(buf_tx_232[j]!='"'){j++;i++;}
// 2018                      if (j>=vol_tx_ppp-2)goto bad_com_232;
// 2019                      j++;
// 2020                      if (buf_tx_232[j]!='"')goto bad_com_232;
// 2021                      if (j>=vol_tx_ppp-1)goto bad_com_232;
// 2022                      buf[n]=i;
// 2023                      for(k=0;k<buf[n];k++)buf[n+1+k]=buf_tx_232[m+k];
// 2024                           
// 2025                      n=n+buf[n]+1;
// 2026                      i=0;
// 2027                      j++;
// 2028                      m=j;
// 2029                      while(buf_tx_232[j]!='"'){j++;i++;}
// 2030                      if (j>=vol_tx_ppp-2)goto bad_com_232;
// 2031                      j++;
// 2032                      if (buf_tx_232[j]!='"')goto bad_com_232;
// 2033                      if (j>=vol_tx_ppp-1)goto bad_com_232;
// 2034                      buf[n]=i;
// 2035                      for(k=0;k<buf[n];k++)buf[n+1+k]=buf_tx_232[m+k];
// 2036                      
// 2037                      
// 2038                      n=n+buf[n]+1;
// 2039                      i=0;
// 2040                      j++;
// 2041                      m=j;
// 2042                      while(buf_tx_232[j]!='"'){j++;i++;}
// 2043                      if (j>=vol_tx_ppp-1)goto bad_com_232;
// 2044                      buf[n]=i;
// 2045                      for(k=0;k<buf[n];k++)buf[n+1+k]=buf_tx_232[m+k];   
// 2046                      
// 2047                      *(unsigned int*)&buf[L_C3_GPRS_MAX-2]=crc_m1(&buf[0],L_C3_GPRS_MAX-2,0xffff);               
// 2048                      WrArrayToFlesh(A_C3_GPRS, &buf[0],L_C3_GPRS_MAX,0,0);
// 2049                      
// 2050                       vol_tx_ppp=0;
// 2051                       mov_s ( sizeof(ok_t),ok_t);  
// 2052                       return;  
// 2053                       
// 2054                       
// 2055 
// 2056                        case 24: 
// 2057                if ( buf_tx_232[0] == '1') 
// 2058                       {
// 2059                        mov_lf(); 
// 2060                 test_loop();
// 2061                 test_loop2();
// 2062                 
// 2063                 
// 2064                 mov_lf(); 
// 2065                 s_port('>');  
// 2066         }
// 2067           vol_tx_ppp=0;
// 2068           return;
// 2069                       
// 2070                       
// 2071                       
// 2072    
// 2073    
// 2074     case 26: 
// 2075                          if(vol_tx_ppp!=2)goto bad_com_232;
// 2076                          if(buf_tx_232[0]!='1')goto bad_com_232;
// 2077                         
// 2078                       
// 2079                       e_debug=RG_WORK;  
// 2080                       vosstan_memory();
// 2081                       
// 2082                       vol_tx_ppp=0;                                                                                      
// 2083                       mov_s ( sizeof(ok_t),ok_t);  
// 2084                       return;    
// 2085    case 27:
// 2086               if(vol_tx_ppp!=9)goto bad_com_232; 
// 2087               if((buf_tx_232[2]!=':')&&(buf_tx_232[2]!='.'))goto bad_com_232;
// 2088               if((buf_tx_232[5]!=':')&&(buf_tx_232[5]!='.'))goto bad_com_232;
// 2089               
// 2090               
// 2091              burst_ds_r();
// 2092              buf[3]=real_time.r_date;
// 2093              buf[4]=real_time.r_month;
// 2094              buf[5]=real_time.r_year;
// 2095             
// 2096             
// 2097               cifra_long.word=atol(( char *)&buf_tx_232[6]); 
// 2098               if(cifra_long.word>59)goto bad_com_232;
// 2099               else buf[0]=cifra_long.bytes[0];
// 2100               
// 2101      
// 2102               cifra_long.word=atol((char *)&buf_tx_232[3]); 
// 2103               if(cifra_long.word>59)goto bad_com_232;
// 2104               else buf[1]=cifra_long.bytes[0];
// 2105        
// 2106               cifra_long.word=atol((char *)&buf_tx_232[0]); 
// 2107               if(cifra_long.word>23)goto bad_com_232;
// 2108               else buf[2]=cifra_long.bytes[0];
// 2109 
// 2110 
// 2111                          
// 2112             set_rlt(2,&buf[0]);
// 2113             vol_tx_ppp=0;                                                                                      
// 2114             mov_s ( sizeof(ok_t),ok_t);  
// 2115             return;
// 2116             
// 2117             
// 2118    case 28:
// 2119               if(vol_tx_ppp!=9)goto bad_com_232; 
// 2120               if(buf_tx_232[2]!='.')goto bad_com_232;
// 2121               if(buf_tx_232[5]!='.')goto bad_com_232;
// 2122               
// 2123               
// 2124              burst_ds_r();
// 2125              buf[0]=real_time.r_sec;
// 2126              buf[1]=real_time.r_min;
// 2127              buf[2]=real_time.r_hor;
// 2128             
// 2129             
// 2130               cifra_long.word=atol(( char *)&buf_tx_232[0]); 
// 2131               if(cifra_long.word==0)goto bad_com_232;
// 2132               if(cifra_long.word>31)goto bad_com_232;
// 2133               else buf[3]=cifra_long.bytes[0];
// 2134               
// 2135      
// 2136               cifra_long.word=atol((char *)&buf_tx_232[3]); 
// 2137               if(cifra_long.word==0)goto bad_com_232;
// 2138               if(cifra_long.word>12)goto bad_com_232;
// 2139               else buf[4]=cifra_long.bytes[0];
// 2140        
// 2141             
// 2142               cifra_long.word=atol((char *)&buf_tx_232[6]); 
// 2143               buf[5]=cifra_long.bytes[0];
// 2144             
// 2145             set_rlt(2,&buf[0]);
// 2146             vol_tx_ppp=0;                                                                                      
// 2147             mov_s ( sizeof(ok_t),ok_t);  
// 2148             return;
// 2149  
// 2150    
// 2151    case 29: 
// 2152                          if((vol_tx_ppp==2)&&(buf_tx_232[0]=='0'))
// 2153                          {
// 2154                          WrArrayToFlesh(BEG_BUF_LOG,0,(L_LOG*6),0x01,0x00);
// 2155                          point_log_buf=0;      
// 2156                          vol_tx_ppp=0; 
// 2157                          mov_s ( sizeof(ok_t),ok_t);  
// 2158                          return;                         
// 2159                          }
// 2160                          
// 2161                          
// 2162                          if(vol_tx_ppp!=4)goto bad_com_232;
// 2163                          if(buf_tx_232[0]!='l')goto bad_com_232;
// 2164                          if(buf_tx_232[1]!='o')goto bad_com_232;
// 2165                          if(buf_tx_232[2]!='g')goto bad_com_232;
// 2166                          
// 2167                          RdFromFleshToArr(BEG_BUF_LOG,&buf_tx_232[0],(L_LOG*6));                      
// 2168                          
// 2169                          s_port(0xd);
// 2170                          s_port(0xa);
// 2171                          for(jj=0;jj<(L_LOG*6);jj++) s_port(buf_tx_232[jj]);
// 2172                          vol_tx_ppp=0; 
// 2173                          mov_s ( sizeof(ok_t),ok_t);  
// 2174                          return;       
// 2175  
// 2176    case 30:      
// 2177                       if((vol_tx_ppp==2)&&(buf_tx_232[0]=='1'))
// 2178                          { 
// 2179                          for(i=0;i<(L_KEYS-2);i++)buf[i]=keys_def[i];
// 2180                          *(unsigned int*)&buf[L_KEYS-2]=crc_m1(&buf[0],L_KEYS-2,0xffff);
// 2181                          WrArrayToFlesh(A_KEYS,&buf[0],L_KEYS,0,0); 
// 2182                          
// 2183                          if(check_keys()==1)goto bad_com_232;
// 2184                          
// 2185                          vol_tx_ppp=0; 
// 2186                          mov_s ( sizeof(ok_t),ok_t); 
// 2187                          return;
// 2188                          }else goto bad_com_232;
// 2189     
// 2190                       
// 2191   case 31:            if(vol_tx_ppp!=5)goto bad_com_232;
// 2192                       if((buf_tx_232[0]!='.') &&((buf_tx_232[0]<0x30)||(buf_tx_232[0]>0x39)))goto bad_com_232;
// 2193                       if((buf_tx_232[1]!='.') &&((buf_tx_232[1]<0x30)||(buf_tx_232[1]>0x39)))goto bad_com_232;
// 2194                       if((buf_tx_232[2]!='.') &&((buf_tx_232[2]<0x30)||(buf_tx_232[2]>0x39)))goto bad_com_232;
// 2195                       if((buf_tx_232[3]!='.') &&((buf_tx_232[3]<0x30)||(buf_tx_232[3]>0x39)))goto bad_com_232;
// 2196                      
// 2197                        buf[OFS_PIN_SIM1]=buf_tx_232[0];
// 2198                        buf[OFS_PIN_SIM1+1]=buf_tx_232[1];
// 2199                        buf[OFS_PIN_SIM1+2]=buf_tx_232[2];
// 2200                        buf[OFS_PIN_SIM1+3]=buf_tx_232[3];
// 2201                        *(unsigned int*)&buf[OFS_KOD_SIM1_CRC]=crc_m1(&buf[0],L_KOD_SIM1-2,0xffff);
// 2202                         WrArrayToFlesh(A_KOD_SIM1, &buf[0],L_KOD_SIM1,0,0);
// 2203                       vol_tx_ppp=0; 
// 2204                       mov_s ( sizeof(ok_t),ok_t); 
// 2205                       return;
// 2206                       
// 2207                        
// 2208  case 32:            if(vol_tx_ppp!=5)goto bad_com_232;
// 2209                       if((buf_tx_232[0]!='.') &&((buf_tx_232[0]<0x30)||(buf_tx_232[0]>0x39)))goto bad_com_232;
// 2210                       if((buf_tx_232[1]!='.') &&((buf_tx_232[1]<0x30)||(buf_tx_232[1]>0x39)))goto bad_com_232;
// 2211                       if((buf_tx_232[2]!='.') &&((buf_tx_232[2]<0x30)||(buf_tx_232[2]>0x39)))goto bad_com_232;
// 2212                       if((buf_tx_232[3]!='.') &&((buf_tx_232[3]<0x30)||(buf_tx_232[3]>0x39)))goto bad_com_232;
// 2213                        buf[OFS_PIN_SIM2]=buf_tx_232[0];
// 2214                        buf[OFS_PIN_SIM2+1]=buf_tx_232[1];
// 2215                        buf[OFS_PIN_SIM2+2]=buf_tx_232[2];
// 2216                        buf[OFS_PIN_SIM2+3]=buf_tx_232[3];
// 2217                        *(unsigned int*)&buf[OFS_KOD_SIM2_CRC]=crc_m1(&buf[0],L_KOD_SIM2-2,0xffff);
// 2218                         WrArrayToFlesh(A_KOD_SIM2, &buf[0],L_KOD_SIM2,0,0);
// 2219                       vol_tx_ppp=0; 
// 2220                       mov_s ( sizeof(ok_t),ok_t); 
// 2221                       return;
// 2222    
// 2223  case 33: 
// 2224                          if(vol_tx_ppp!=2)goto bad_com_232;
// 2225                          if(buf_tx_232[0]!='0')goto bad_com_232;                    
// 2226 
// 2227                          *(unsigned long int*)&buf[0]=burst_ds_r();
// 2228                          for(i=4;i<12;i++)buf[i]=0;
// 2229                          *(unsigned int*)&buf[L_TRAF-2]=crc_m1(&buf[0],L_TRAF-2,0xffff);
// 2230                          WrArrayToFlesh(A_TRAF, &buf[0],L_TRAF,0,0); 
// 2231                          vol_tx_ppp=0; 
// 2232                          mov_s ( sizeof(ok_t),ok_t); 
// 2233                          return;
// 2234                          
// 2235  case 36: 
// 2236                        
// 2237                          
// 2238                          if(vol_tx_ppp!=3)goto bad_com_232;
// 2239                          if((buf_tx_232[0]!='0')&& (buf_tx_232[0]!='1')&&(buf_tx_232[0]!='i'))goto bad_com_232;
// 2240                          if((buf_tx_232[1]!='0')&&(buf_tx_232[1]!='1')&&(buf_tx_232[1]!='i'))goto bad_com_232;
// 2241                          
// 2242                          if(buf_tx_232[0]=='0') {TU1_OFF;} else {TU1_ON; if(buf_tx_232[0]=='i')cnt_tu1=TM_TU_IMP;}
// 2243                          if(buf_tx_232[1]=='0') {TU2_OFF;} else {TU2_ON; if(buf_tx_232[1]=='i')cnt_tu2=TM_TU_IMP;} 
// 2244                          vol_tx_ppp=0; 
// 2245                          mov_s ( sizeof(ok_t),ok_t);
// 2246                          return;                              
// 2247   case 37: 
// 2248                          if(vol_tx_ppp!=2)goto bad_com_232;
// 2249                          if(buf_tx_232[0]!='0')goto bad_com_232;                    
// 2250                          modbus_mem1[AD_TII1]=0;
// 2251                          vol_tx_ppp=0; 
// 2252                          mov_s ( sizeof(ok_t),ok_t); 
// 2253                          return;                                                
// 2254   
// 2255  case 38: 
// 2256                          if(vol_tx_ppp!=2)goto bad_com_232;
// 2257                          if((buf_tx_232[0]=='0')||(buf_tx_232[0]=='1'))buf_tx_232[0]=buf_tx_232[0]-0x30;
// 2258                             else goto bad_com_232;
// 2259                          WrArrayToFlesh(A_SEL_MODUL, &buf_tx_232[0],1,0,0);   
// 2260                          vol_tx_ppp=0;                                                                                      
// 2261                          mov_s ( sizeof(ok_t),ok_t);  
// 2262                          lock_it(); 
// 2263                           // return;                          
// 2264  
// 2265  case 39:                {
// 2266                                 vol_tx_ppp=0;
// 2267                                  return;
// 2268                                  }
// 2269                                 
// 2270         case 40:               {
// 2271                               mov_lf();
// 2272                               //  buf_tx_232[0]='A';
// 2273                               //  buf_tx_232[1]='T';
// 2274                               //  buf_tx_232[2]=0xd;
// 2275                               send_to_sim900(vol_tx_ppp);
// 2276                                vol_tx_ppp=0;
// 2277                                  return;
// 2278         }
// 2279                                 
// 2280   default:goto bad_com_232;
// 2281                                                                
// 2282          }                                                                     
// 2283 
// 2284   
// 2285   //***//*************************************************************
// 2286   
// 2287   bad_com_232:                        
// 2288           vol_tx_ppp=0;                                   
??write_menu_3:
        RCALL	?Subroutine2
// 2289           mov_s ( sizeof(err_t),err_t);
??CrossCallReturnLabel_321:
        LDI	R18, LOW((versia + 124))
        LDI	R19, HIGH((versia + 124))
        LDI	R16, 5
??write_menu_9:
        RCALL	?Subroutine166
// 2290          // read_menu(index_menu);
// 2291           return;  
??CrossCallReturnLabel_366:
        ADIW	R29:R28, 63
        CFI CFA_Y Y+20
        ADIW	R29:R28, 11
        CFI CFA_Y Y+9
        LDI	R30, 9
        JMP	?EPILOGUE_B9_L09
        CFI CFA_Y Y+83
??write_menu_5:
        RCALL	?Subroutine80
??CrossCallReturnLabel_95:
        RCALL	?Subroutine98
??CrossCallReturnLabel_281:
        BRNE	??write_menu_7
        RJMP	??write_menu_3
??write_menu_6:
        RCALL	?Subroutine81
??CrossCallReturnLabel_97:
        RJMP	??CrossCallReturnLabel_95
??write_menu_8:
        RCALL	?Subroutine146
??CrossCallReturnLabel_227:
        LDI	R16, 20
??write_menu_10:
        LDI	R17, 0
??write_menu_11:
        RCALL	??Subroutine163_0
??CrossCallReturnLabel_415:
        RJMP	??write_menu_12
??write_menu_13:
        RCALL	?Subroutine3
??CrossCallReturnLabel_330:
        BRNE	??write_menu_3
        LD	R16, X
        SUBI	R16, 49
        BREQ	??write_menu_14
        DEC	R16
        BREQ	??write_menu_15
        DEC	R16
        BREQ	??write_menu_16
        RJMP	??write_menu_3
??write_menu_14:
        RCALL	?Subroutine28
??CrossCallReturnLabel_280:
        BREQ	??write_menu_3
??write_menu_17:
        LDD	R16, Y+4
        CPI	R16, 31
        BRCC	??write_menu_3
        RCALL	?Subroutine146
??CrossCallReturnLabel_228:
        LDI	R16, 80
        RJMP	??write_menu_10
??write_menu_15:
        RCALL	?Subroutine80
??CrossCallReturnLabel_96:
        RCALL	?Subroutine98
??CrossCallReturnLabel_282:
        BRNE	??write_menu_17
        RJMP	??write_menu_3
??write_menu_16:
        RCALL	?Subroutine81
??CrossCallReturnLabel_98:
        RJMP	??CrossCallReturnLabel_96
??write_menu_18:
        RCALL	?Subroutine126
??CrossCallReturnLabel_310:
        CPI	R16, 16
        LDI	R21, 0
        SBCI	R17, 0
        BRNE	??write_menu_3
        LDI	R16, 46
        CP	R8, R16
        BRNE	??write_menu_3
        MOVW	R31:R30, R27:R26
        LDD	R16, Z+7
        CPI	R16, 46
        BRNE	??write_menu_3
        LDD	R16, Z+11
        CPI	R16, 46
        BRNE	??write_menu_3
        LDI	R20, 10
        RCALL	??Subroutine146_1
??CrossCallReturnLabel_229:
        RCALL	?Subroutine29
??CrossCallReturnLabel_387:
        RCALL	?Subroutine88
??CrossCallReturnLabel_438:
        BRCS	$+2+2
        RJMP	??write_menu_3
        STD	Y+4, R16
        MOVW	R17:R16, R27:R26
        SUBI	R16, 252
        SBCI	R17, 255
        RCALL	??Subroutine88_0
??CrossCallReturnLabel_440:
        BRCS	$+2+2
        RJMP	??write_menu_3
        STD	Y+5, R16
        MOVW	R17:R16, R27:R26
        SUBI	R16, 248
        SBCI	R17, 255
        RCALL	??Subroutine88_0
??CrossCallReturnLabel_441:
        BRCS	$+2+2
        RJMP	??write_menu_3
        STD	Y+6, R16
        ADIW	R27:R26, 12
        RCALL	?Subroutine88
??CrossCallReturnLabel_439:
        BRCS	$+2+2
        RJMP	??write_menu_3
        STD	Y+7, R16
??write_menu_19:
        RCALL	?Subroutine58
??CrossCallReturnLabel_218:
        LDI	R16, 140
        RJMP	??write_menu_10
??write_menu_20:
        RCALL	?Subroutine94
??CrossCallReturnLabel_444:
        BRCS	$+2+2
        RJMP	??write_menu_3
        RCALL	?Subroutine82
??CrossCallReturnLabel_327:
        RCALL	?Subroutine25
??CrossCallReturnLabel_304:
        RJMP	??write_menu_19
??write_menu_21:
        RCALL	?Subroutine92
??CrossCallReturnLabel_275:
        BRCC	$+2+2
        RJMP	??write_menu_3
        RCALL	?Subroutine149
??CrossCallReturnLabel_446:
        BRCS	$+2+2
        RJMP	??write_menu_3
        LDI	R18, 0
        RJMP	??write_menu_22
??write_menu_23:
        INC	R18
        CPI	R18, 12
        BRCC	??write_menu_24
??write_menu_22:
        MOVW	R31:R30, R27:R26
        ADD	R30, R18
        ADC	R31, R20
        LD	R16, Z
        CPI	R16, 13
        BRNE	??write_menu_23
        SBIW	R31:R30, 3
        LDD	R16, Z+2
        CPI	R16, 42
        BRNE	??write_menu_24
        LDD	R16, Z+1
        CPI	R16, 42
        BRNE	??write_menu_24
        LD	R16, Z
        CPI	R16, 42
        BRNE	??write_menu_24
        RCALL	?Subroutine82
??CrossCallReturnLabel_328:
        RCALL	??Subroutine26_0
??CrossCallReturnLabel_35:
        STD	Y+10, R16
        STD	Y+11, R17
        RJMP	??write_menu_19
??write_menu_24:
        RCALL	?Subroutine132
??CrossCallReturnLabel_179:
        ST	Z, R20
        STD	Z+1, R20
        LDI	R18, LOW((versia + 133))
        LDI	R19, HIGH((versia + 133))
        LDI	R16, 9
        RJMP	??write_menu_9
??write_menu_25:
        RCALL	?Subroutine89
??CrossCallReturnLabel_272:
        BRCC	$+2+2
        RJMP	??write_menu_3
        RCALL	?Subroutine149
??CrossCallReturnLabel_447:
        BRCS	$+2+2
        RJMP	??write_menu_3
        RCALL	?Subroutine26
??CrossCallReturnLabel_31:
        STD	Y+4, R16
        STD	Y+5, R17
??write_menu_26:
        LDI	R20, 255
        LDI	R21, 255
        LDI	R18, 12
        LDI	R19, 0
        RCALL	?Subroutine69
??CrossCallReturnLabel_222:
        LDI	R16, 150
        RJMP	??write_menu_10
??write_menu_27:
        RCALL	?Subroutine89
??CrossCallReturnLabel_273:
        BRCC	$+2+2
        RJMP	??write_menu_3
        RCALL	?Subroutine149
??CrossCallReturnLabel_448:
        BRCS	$+2+2
        RJMP	??write_menu_3
        RCALL	?Subroutine26
??CrossCallReturnLabel_32:
        STD	Y+14, R16
        STD	Y+15, R17
        RJMP	??write_menu_26
??write_menu_28:
        RCALL	?Subroutine89
??CrossCallReturnLabel_274:
        BRCC	$+2+2
        RJMP	??write_menu_3
        RCALL	?Subroutine149
??CrossCallReturnLabel_449:
        BRCS	$+2+2
        RJMP	??write_menu_3
        RCALL	?Subroutine26
??CrossCallReturnLabel_33:
        STD	Y+6, R16
        STD	Y+7, R17
        RJMP	??write_menu_26
??write_menu_29:
        RCALL	?Subroutine93
??CrossCallReturnLabel_277:
        BRCC	$+2+2
        RJMP	??write_menu_3
        RCALL	?Subroutine149
??CrossCallReturnLabel_450:
        BRCS	$+2+2
        RJMP	??write_menu_3
        RCALL	?Subroutine83
??CrossCallReturnLabel_99:
        RCALL	?Subroutine25
??CrossCallReturnLabel_305:
        RJMP	??write_menu_26
??write_menu_30:
        RCALL	?Subroutine94
??CrossCallReturnLabel_445:
        BRCS	$+2+2
        RJMP	??write_menu_3
        RCALL	?Subroutine26
??CrossCallReturnLabel_34:
        LDD	R18, Y+2
        LDD	R19, Y+3
        OR	R16, R17
        OR	R16, R18
        OR	R16, R19
        BREQ	??write_menu_31
        RCALL	?Subroutine137
??CrossCallReturnLabel_192:
        MOV	R21, R17
        MOVW	R23:R22, R19:R18
        RCALL	?Subroutine20
??CrossCallReturnLabel_27:
        BRCS	$+2+2
        RJMP	??write_menu_3
??write_menu_31:
        LD	R16, Y
        LDD	R17, Y+1
        STD	Y+10, R16
        STD	Y+11, R17
        RJMP	??write_menu_26
??write_menu_32:
        RCALL	?Subroutine96
??CrossCallReturnLabel_118:
        CPI	R16, 30
        LDI	R20, 0
        CPC	R17, R20
        CPC	R18, R20
        CPC	R19, R20
        BRCC	$+2+2
        RJMP	??write_menu_3
        RCALL	?Subroutine149
??CrossCallReturnLabel_451:
        BRCS	$+2+2
        RJMP	??write_menu_3
        RCALL	?Subroutine83
??CrossCallReturnLabel_100:
        RCALL	??Subroutine29_0
??CrossCallReturnLabel_381:
        RCALL	?Subroutine137
??CrossCallReturnLabel_193:
        LDD	R21, Y+1
        LDD	R22, Y+2
        LDD	R23, Y+3
        RCALL	?Subroutine20
??CrossCallReturnLabel_28:
        BRCS	$+2+2
        RJMP	??write_menu_3
        STD	Y+12, R20
        STD	Y+13, R21
        RJMP	??write_menu_26
??write_menu_33:
        RCALL	?Subroutine126
??CrossCallReturnLabel_311:
        CPI	R16, 2
        LDI	R21, 0
        SBCI	R17, 0
        BREQ	$+2+2
        RJMP	??write_menu_3
        RCALL	?Subroutine135
??CrossCallReturnLabel_182:
        BREQ	??write_menu_34
        CPI	R16, 49
        BREQ	$+2+2
        RJMP	??write_menu_3
??write_menu_34:
        SUBI	R16, 48
        ST	Y, R16
        LDI	R20, 11
        RCALL	??Subroutine27_0
??CrossCallReturnLabel_41:
        STD	Y+4, R16
??write_menu_35:
        RCALL	?Subroutine67
??CrossCallReturnLabel_316:
        SUBI	R16, 252
        SBCI	R17, 255
        CALL	crc_m1
        STD	Y+13, R16
        STD	Y+14, R17
        LDI	R23, 0
        LDI	R22, 0
        RCALL	?Subroutine78
??CrossCallReturnLabel_88:
        RJMP	??write_menu_10
??write_menu_36:
        RCALL	?Subroutine92
??CrossCallReturnLabel_276:
        BRCC	$+2+2
        RJMP	??write_menu_3
        RCALL	?Subroutine149
??CrossCallReturnLabel_452:
        BRCS	$+2+2
        RJMP	??write_menu_3
        RCALL	?Subroutine78
??CrossCallReturnLabel_89:
        RCALL	??Subroutine26_0
??CrossCallReturnLabel_36:
        STD	Y+5, R16
        STD	Y+6, R17
        RJMP	??write_menu_35
??write_menu_37:
        RCALL	?Subroutine90
??CrossCallReturnLabel_115:
        BRNE	$+2+2
        RJMP	??write_menu_3
        LD	R16, Y
        RCALL	?Subroutine149
??CrossCallReturnLabel_453:
        BRCS	$+2+2
        RJMP	??write_menu_3
        RCALL	?Subroutine78
??CrossCallReturnLabel_90:
        RCALL	??Subroutine26_0
??CrossCallReturnLabel_37:
        STD	Y+7, R16
        STD	Y+8, R17
        RJMP	??write_menu_35
??write_menu_38:
        RCALL	?Subroutine93
??CrossCallReturnLabel_278:
        BRCC	$+2+2
        RJMP	??write_menu_3
        RCALL	?Subroutine149
??CrossCallReturnLabel_454:
        BRCS	$+2+2
        RJMP	??write_menu_3
        RCALL	?Subroutine78
??CrossCallReturnLabel_91:
        RCALL	??Subroutine26_0
??CrossCallReturnLabel_38:
        STD	Y+9, R16
        STD	Y+10, R17
        RJMP	??write_menu_35
??write_menu_39:
        RCALL	?Subroutine96
??CrossCallReturnLabel_119:
        CPI	R16, 3
        RCALL	?Subroutine172
??CrossCallReturnLabel_455:
        BRCS	$+2+2
        RJMP	??write_menu_3
        RCALL	?Subroutine27
??CrossCallReturnLabel_39:
        STD	Y+11, R16
        RJMP	??write_menu_35
??write_menu_40:
        RCALL	?Subroutine96
??CrossCallReturnLabel_120:
        RCALL	??Subroutine3_0
??CrossCallReturnLabel_331:
        SBCI	R18, 0
        SBCI	R19, 0
        BRCS	$+2+2
        RJMP	??write_menu_3
        RCALL	?Subroutine27
??CrossCallReturnLabel_40:
        STD	Y+12, R16
        RJMP	??write_menu_35
??write_menu_41:
        RCALL	?Subroutine96
??CrossCallReturnLabel_121:
        CPI	R16, 4
        RCALL	?Subroutine172
??CrossCallReturnLabel_456:
        BRCS	$+2+2
        RJMP	??write_menu_3
        LDI	R20, 3
        RCALL	?Subroutine169
??CrossCallReturnLabel_399:
        RJMP	??write_menu_12
??write_menu_42:
        RCALL	?Subroutine131
??CrossCallReturnLabel_175:
        BRCC	$+2+2
        RJMP	??write_menu_3
        RCALL	?Subroutine36
??CrossCallReturnLabel_335:
        BRCS	$+2+2
        RJMP	??write_menu_3
        LD	R16, X
        CPI	R16, 34
        BREQ	$+2+2
        RJMP	??write_menu_3
        RCALL	?Subroutine139
??CrossCallReturnLabel_194:
        BREQ	$+2+2
        RJMP	??write_menu_3
        RCALL	?Subroutine87
??CrossCallReturnLabel_255:
        LDI	R16, 250
        RCALL	??Subroutine29_0
??CrossCallReturnLabel_380:
        LDI	R18, 0
        LDI	R16, 1
        RJMP	??CrossCallReturnLabel_352
??write_menu_43:
        RCALL	?Subroutine46
??CrossCallReturnLabel_352:
        RCALL	?Subroutine9
??CrossCallReturnLabel_263:
        BRNE	??write_menu_43
        RCALL	?Subroutine18
??CrossCallReturnLabel_21:
        BRCS	$+2+2
        RJMP	??write_menu_3
        RCALL	?Subroutine33
??CrossCallReturnLabel_257:
        BREQ	$+2+2
        RJMP	??write_menu_3
        RCALL	?Subroutine15
??CrossCallReturnLabel_12:
        BRCS	$+2+2
        RJMP	??write_menu_3
        STD	Y+4, R18
        LDI	R18, 0
        RJMP	??CrossCallReturnLabel_349
??write_menu_44:
        RCALL	?Subroutine34
??CrossCallReturnLabel_349:
        LDD	R17, Y+4
        CP	R18, R17
        BRCS	??write_menu_44
        RCALL	?Subroutine47
??CrossCallReturnLabel_57:
        RJMP	??CrossCallReturnLabel_353
??write_menu_45:
        RCALL	?Subroutine46
??CrossCallReturnLabel_353:
        RCALL	?Subroutine9
??CrossCallReturnLabel_264:
        BRNE	??write_menu_45
        RCALL	??Subroutine18_0
??CrossCallReturnLabel_22:
        BRCS	$+2+2
        RJMP	??write_menu_3
        RCALL	?Subroutine33
??CrossCallReturnLabel_258:
        BREQ	$+2+2
        RJMP	??write_menu_3
        RCALL	??Subroutine15_0
??CrossCallReturnLabel_13:
        BRCS	$+2+2
        RJMP	??write_menu_3
        RCALL	?Subroutine138
??CrossCallReturnLabel_283:
        RJMP	??CrossCallReturnLabel_346
??write_menu_46:
        RCALL	?Subroutine32
??CrossCallReturnLabel_346:
        RCALL	?Subroutine140
??CrossCallReturnLabel_197:
        BRCS	??write_menu_46
        INC	R17
        ADD	R20, R17
        RCALL	??Subroutine47_0
??CrossCallReturnLabel_60:
        RJMP	??CrossCallReturnLabel_354
??write_menu_47:
        RCALL	?Subroutine46
??CrossCallReturnLabel_354:
        RCALL	?Subroutine35
??CrossCallReturnLabel_269:
        BRNE	??write_menu_47
        RCALL	??Subroutine15_0
??CrossCallReturnLabel_14:
        BRCS	$+2+2
        RJMP	??write_menu_3
        RCALL	?Subroutine31
??CrossCallReturnLabel_224:
        LDI	R16, 250
        RJMP	??write_menu_10
??write_menu_48:
        RCALL	?Subroutine131
??CrossCallReturnLabel_176:
        BRCC	$+2+2
        RJMP	??write_menu_3
        RCALL	?Subroutine36
??CrossCallReturnLabel_336:
        BRCS	$+2+2
        RJMP	??write_menu_3
        LD	R16, X
        CPI	R16, 34
        BREQ	$+2+2
        RJMP	??write_menu_3
        RCALL	?Subroutine139
??CrossCallReturnLabel_195:
        BREQ	$+2+2
        RJMP	??write_menu_3
        RCALL	?Subroutine87
??CrossCallReturnLabel_256:
        RCALL	?Subroutine99
??CrossCallReturnLabel_396:
        LDI	R18, 0
        LDI	R16, 1
        RJMP	??CrossCallReturnLabel_355
??write_menu_49:
        RCALL	?Subroutine46
??CrossCallReturnLabel_355:
        RCALL	?Subroutine9
??CrossCallReturnLabel_265:
        BRNE	??write_menu_49
        RCALL	?Subroutine18
??CrossCallReturnLabel_23:
        BRCS	$+2+2
        RJMP	??write_menu_3
        RCALL	?Subroutine33
??CrossCallReturnLabel_259:
        BREQ	$+2+2
        RJMP	??write_menu_3
        RCALL	?Subroutine15
??CrossCallReturnLabel_15:
        BRCS	$+2+2
        RJMP	??write_menu_3
        STD	Y+4, R18
        LDI	R18, 0
        RJMP	??CrossCallReturnLabel_350
??write_menu_50:
        RCALL	?Subroutine34
??CrossCallReturnLabel_350:
        LDD	R17, Y+4
        CP	R18, R17
        BRCS	??write_menu_50
        RCALL	?Subroutine47
??CrossCallReturnLabel_58:
        RJMP	??CrossCallReturnLabel_356
??write_menu_51:
        RCALL	?Subroutine46
??CrossCallReturnLabel_356:
        RCALL	?Subroutine9
??CrossCallReturnLabel_266:
        BRNE	??write_menu_51
        RCALL	??Subroutine18_0
??CrossCallReturnLabel_24:
        BRCS	$+2+2
        RJMP	??write_menu_3
        RCALL	?Subroutine33
??CrossCallReturnLabel_260:
        BREQ	$+2+2
        RJMP	??write_menu_3
        RCALL	??Subroutine15_0
??CrossCallReturnLabel_16:
        BRCS	$+2+2
        RJMP	??write_menu_3
        RCALL	?Subroutine138
??CrossCallReturnLabel_284:
        RJMP	??CrossCallReturnLabel_347
??write_menu_52:
        RCALL	?Subroutine32
??CrossCallReturnLabel_347:
        RCALL	?Subroutine140
??CrossCallReturnLabel_198:
        BRCS	??write_menu_52
        INC	R17
        ADD	R20, R17
        RCALL	??Subroutine47_0
??CrossCallReturnLabel_61:
        RJMP	??CrossCallReturnLabel_357
??write_menu_53:
        RCALL	?Subroutine46
??CrossCallReturnLabel_357:
        RCALL	?Subroutine35
??CrossCallReturnLabel_270:
        BRNE	??write_menu_53
        RCALL	??Subroutine15_0
??CrossCallReturnLabel_17:
        BRCS	$+2+2
        RJMP	??write_menu_3
        RCALL	?Subroutine31
??CrossCallReturnLabel_225:
        LDI	R16, 54
??write_menu_54:
        LDI	R17, 1
        RJMP	??write_menu_11
??write_menu_55:
        RCALL	?Subroutine131
??CrossCallReturnLabel_177:
        BRCC	$+2+2
        RJMP	??write_menu_3
        RCALL	?Subroutine36
??CrossCallReturnLabel_337:
        BRCS	$+2+2
        RJMP	??write_menu_3
        LD	R16, X
        CPI	R16, 34
        BREQ	$+2+2
        RJMP	??write_menu_3
        RCALL	?Subroutine139
??CrossCallReturnLabel_196:
        BREQ	$+2+2
        RJMP	??write_menu_3
        LDI	R20, 60
        MOVW	R19:R18, R29:R28
        SUBI	R18, 252
        RCALL	?Subroutine52
??CrossCallReturnLabel_390:
        LDI	R18, 0
        LDI	R16, 1
        RJMP	??CrossCallReturnLabel_358
??write_menu_56:
        RCALL	?Subroutine46
??CrossCallReturnLabel_358:
        RCALL	?Subroutine9
??CrossCallReturnLabel_267:
        BRNE	??write_menu_56
        RCALL	?Subroutine18
??CrossCallReturnLabel_25:
        BRCS	$+2+2
        RJMP	??write_menu_3
        RCALL	?Subroutine33
??CrossCallReturnLabel_261:
        BREQ	$+2+2
        RJMP	??write_menu_3
        RCALL	?Subroutine15
??CrossCallReturnLabel_18:
        BRCS	$+2+2
        RJMP	??write_menu_3
        STD	Y+4, R18
        LDI	R18, 0
        RJMP	??CrossCallReturnLabel_351
??write_menu_57:
        RCALL	?Subroutine34
??CrossCallReturnLabel_351:
        LDD	R17, Y+4
        CP	R18, R17
        BRCS	??write_menu_57
        RCALL	?Subroutine47
??CrossCallReturnLabel_59:
        RJMP	??CrossCallReturnLabel_359
??write_menu_58:
        RCALL	?Subroutine46
??CrossCallReturnLabel_359:
        RCALL	?Subroutine9
??CrossCallReturnLabel_268:
        BRNE	??write_menu_58
        RCALL	??Subroutine18_0
??CrossCallReturnLabel_26:
        BRCS	$+2+2
        RJMP	??write_menu_3
        RCALL	?Subroutine33
??CrossCallReturnLabel_262:
        BREQ	$+2+2
        RJMP	??write_menu_3
        RCALL	??Subroutine15_0
??CrossCallReturnLabel_19:
        BRCS	$+2+2
        RJMP	??write_menu_3
        RCALL	?Subroutine138
??CrossCallReturnLabel_285:
        RJMP	??CrossCallReturnLabel_348
??write_menu_59:
        RCALL	?Subroutine32
??CrossCallReturnLabel_348:
        RCALL	?Subroutine140
??CrossCallReturnLabel_199:
        BRCS	??write_menu_59
        INC	R17
        ADD	R20, R17
        RCALL	??Subroutine47_0
??CrossCallReturnLabel_62:
        RJMP	??CrossCallReturnLabel_360
??write_menu_60:
        RCALL	?Subroutine46
??CrossCallReturnLabel_360:
        RCALL	?Subroutine35
??CrossCallReturnLabel_271:
        BRNE	??write_menu_60
        RCALL	??Subroutine15_0
??CrossCallReturnLabel_20:
        BRCS	$+2+2
        RJMP	??write_menu_3
        RCALL	?Subroutine31
??CrossCallReturnLabel_226:
        LDI	R16, 114
        RJMP	??write_menu_54
??write_menu_61:
        RCALL	?Subroutine136
??CrossCallReturnLabel_189:
        BREQ	$+2+2
        RJMP	??write_menu_1
        RCALL	?Subroutine165
??CrossCallReturnLabel_524:
        RCALL	test_loop
        RCALL	test_loop2
        RCALL	?Subroutine103
??CrossCallReturnLabel_476:
        RJMP	??write_menu_1
??write_menu_62:
        RCALL	?Subroutine3
??CrossCallReturnLabel_332:
        BREQ	$+2+2
        RJMP	??write_menu_3
        RCALL	?Subroutine136
??CrossCallReturnLabel_190:
        BREQ	$+2+2
        RJMP	??write_menu_3
        RCALL	?Subroutine4
??CrossCallReturnLabel_401:
        RCALL	vosstan_memory
        RJMP	??write_menu_12
??write_menu_63:
        RCALL	?Subroutine123
??CrossCallReturnLabel_340:
        BREQ	$+2+2
        RJMP	??write_menu_3
        CPI	R25, 58
        BREQ	??write_menu_64
        CPI	R25, 46
        BREQ	$+2+2
        RJMP	??write_menu_3
??write_menu_64:
        MOVW	R31:R30, R27:R26
        LDD	R16, Z+5
        CPI	R16, 58
        BREQ	??write_menu_65
        CPI	R16, 46
        BREQ	$+2+2
        RJMP	??write_menu_3
??write_menu_65:
        RCALL	?Subroutine107
??CrossCallReturnLabel_128:
        LDD	R16, Z+4
        STD	Y+7, R16
        LDD	R16, Z+5
        STD	Y+8, R16
        LDD	R16, Z+6
        STD	Y+9, R16
        MOVW	R17:R16, R27:R26
        SUBI	R16, 250
        RCALL	?Subroutine95
??CrossCallReturnLabel_442:
        BRCS	$+2+2
        RJMP	??write_menu_3
        STD	Y+4, R16
        MOVW	R17:R16, R27:R26
        SUBI	R16, 253
        RCALL	?Subroutine95
??CrossCallReturnLabel_443:
        BRCS	$+2+2
        RJMP	??write_menu_3
        STD	Y+5, R16
        RCALL	?Subroutine96
??CrossCallReturnLabel_122:
        CPI	R16, 24
        RCALL	?Subroutine172
??CrossCallReturnLabel_457:
        BRCS	$+2+2
        RJMP	??write_menu_3
        STD	Y+6, R16
??write_menu_66:
        RCALL	??Subroutine146_1
??CrossCallReturnLabel_230:
        LDI	R16, 2
        CALL	set_rlt
        RJMP	??write_menu_12
??write_menu_67:
        RCALL	?Subroutine123
??CrossCallReturnLabel_341:
        BREQ	$+2+2
        RJMP	??write_menu_3
        CPI	R25, 46
        BREQ	$+2+2
        RJMP	??write_menu_3
        MOVW	R31:R30, R27:R26
        LDD	R16, Z+5
        CPI	R16, 46
        BREQ	$+2+2
        RJMP	??write_menu_3
        RCALL	?Subroutine107
??CrossCallReturnLabel_129:
        LD	R16, Z
        STD	Y+4, R16
        LDD	R16, Z+1
        STD	Y+5, R16
        LDD	R16, Z+2
        STD	Y+6, R16
        RCALL	?Subroutine90
??CrossCallReturnLabel_116:
        BRNE	$+2+2
        RJMP	??write_menu_3
        LD	R16, Y
        CPI	R16, 32
        RCALL	?Subroutine172
??CrossCallReturnLabel_458:
        BRCS	$+2+2
        RJMP	??write_menu_3
        STD	Y+7, R16
        MOVW	R17:R16, R27:R26
        SUBI	R16, 253
        SBCI	R17, 255
        RCALL	??Subroutine90_0
??CrossCallReturnLabel_117:
        BRNE	$+2+2
        RJMP	??write_menu_3
        LD	R16, Y
        CPI	R16, 13
        RCALL	?Subroutine172
??CrossCallReturnLabel_459:
        BRCS	$+2+2
        RJMP	??write_menu_3
        STD	Y+8, R16
        ADIW	R27:R26, 6
        RCALL	?Subroutine96
??CrossCallReturnLabel_123:
        STD	Y+9, R16
        RJMP	??write_menu_66
??write_menu_68:
        RCALL	?Subroutine126
??CrossCallReturnLabel_312:
        CPI	R16, 2
        LDI	R18, 0
        CPC	R17, R18
        BRNE	??write_menu_69
        RCALL	?Subroutine135
??CrossCallReturnLabel_183:
        BREQ	$+2+2
        RJMP	??write_menu_3
        RCALL	?Subroutine75
??CrossCallReturnLabel_85:
        LDI	R19, 0
        RCALL	?Subroutine97
??CrossCallReturnLabel_416:
        LDI	R16, 0
        STS	point_log_buf, R16
        RJMP	??write_menu_12
??write_menu_69:
        CPI	R16, 4
        SBCI	R17, 0
        BREQ	$+2+2
        RJMP	??write_menu_3
        LD	R16, X
        CPI	R16, 108
        BREQ	$+2+2
        RJMP	??write_menu_3
        CPI	R24, 111
        BREQ	$+2+2
        RJMP	??write_menu_3
        CPI	R25, 103
        BREQ	$+2+2
        RJMP	??write_menu_3
        LDI	R20, 240
        LDI	R21, 0
        MOVW	R19:R18, R27:R26
        LDI	R16, 244
        RCALL	??Subroutine99_0
??CrossCallReturnLabel_395:
        LDI	R16, 13
        RCALL	??Subroutine167_0
??CrossCallReturnLabel_484:
        LDI	R16, 10
        RCALL	??Subroutine167_0
??CrossCallReturnLabel_483:
        LDI	R24, 0
??write_menu_70:
        LDI	R25, 0
        MOVW	R31:R30, R27:R26
        ADD	R30, R24
        ADC	R31, R25
        LD	R16, Z
        RCALL	??Subroutine167_0
??CrossCallReturnLabel_482:
        INC	R24
        CPI	R24, 240
        BRCS	??write_menu_70
??write_menu_12:
        RCALL	?Subroutine1
??CrossCallReturnLabel_2:
        RJMP	??write_menu_9
??write_menu_71:
        RCALL	?Subroutine39
??CrossCallReturnLabel_338:
        BREQ	$+2+2
        RJMP	??write_menu_3
        RCALL	?Subroutine136
??CrossCallReturnLabel_191:
        BREQ	$+2+2
        RJMP	??write_menu_3
??write_menu_72:
        LDI	R17, 0
        LDI	R30, LOW((versia + 22))
        LDI	R31, HIGH((versia + 22))
        ADD	R30, R18
        ADC	R31, R17
        LPM	R19, Z
        MOVW	R31:R30, R29:R28
        ADIW	R31:R30, 4
        RCALL	?Subroutine56
??CrossCallReturnLabel_362:
        CPI	R18, 8
        BRCS	??write_menu_72
        RCALL	?Subroutine58
??CrossCallReturnLabel_219:
        RCALL	?Subroutine110
??CrossCallReturnLabel_136:
        RCALL	??Subroutine163_0
??CrossCallReturnLabel_414:
        RCALL	check_keys
        CPI	R16, 1
        BRNE	??write_menu_12
        RJMP	??write_menu_3
??write_menu_73:
        RCALL	?Subroutine124
??CrossCallReturnLabel_342:
        BREQ	$+2+2
        RJMP	??write_menu_3
        LD	R16, X
        CPI	R16, 46
        BREQ	??write_menu_74
        CPI	R16, 48
        BRCC	$+2+2
        RJMP	??write_menu_3
        CPI	R16, 58
        BRCS	$+2+2
        RJMP	??write_menu_3
??write_menu_74:
        CPI	R24, 46
        BREQ	??write_menu_75
        CPI	R24, 48
        BRCC	$+2+2
        RJMP	??write_menu_3
        CPI	R24, 58
        BRCS	$+2+2
        RJMP	??write_menu_3
??write_menu_75:
        CPI	R25, 46
        BREQ	??write_menu_76
        CPI	R25, 48
        BRCC	$+2+2
        RJMP	??write_menu_3
        CPI	R25, 58
        BRCS	$+2+2
        RJMP	??write_menu_3
??write_menu_76:
        LDI	R16, 46
        CP	R8, R16
        BREQ	??write_menu_77
        LDI	R16, 48
        CP	R8, R16
        BRCC	$+2+2
        RJMP	??write_menu_3
        LDI	R16, 58
        CP	R8, R16
        BRCS	$+2+2
        RJMP	??write_menu_3
??write_menu_77:
        RCALL	?Subroutine59
??CrossCallReturnLabel_220:
        LDI	R16, 175
        RJMP	??write_menu_10
??write_menu_78:
        RCALL	?Subroutine124
??CrossCallReturnLabel_343:
        BREQ	$+2+2
        RJMP	??write_menu_3
        LD	R16, X
        CPI	R16, 46
        BREQ	??write_menu_79
        CPI	R16, 48
        BRCC	$+2+2
        RJMP	??write_menu_3
        CPI	R16, 58
        BRCS	$+2+2
        RJMP	??write_menu_3
??write_menu_79:
        CPI	R24, 46
        BREQ	??write_menu_80
        CPI	R24, 48
        BRCC	$+2+2
        RJMP	??write_menu_3
        CPI	R24, 58
        BRCS	$+2+2
        RJMP	??write_menu_3
??write_menu_80:
        CPI	R25, 46
        BREQ	??write_menu_81
        CPI	R25, 48
        BRCC	$+2+2
        RJMP	??write_menu_3
        CPI	R25, 58
        BRCS	$+2+2
        RJMP	??write_menu_3
??write_menu_81:
        LDI	R16, 46
        CP	R8, R16
        BREQ	??write_menu_82
        LDI	R16, 48
        CP	R8, R16
        BRCC	$+2+2
        RJMP	??write_menu_3
        LDI	R16, 58
        CP	R8, R16
        BRCS	$+2+2
        RJMP	??write_menu_3
??write_menu_82:
        RCALL	?Subroutine59
??CrossCallReturnLabel_221:
        LDI	R16, 181
        RJMP	??write_menu_10
??write_menu_83:
        RCALL	?Subroutine3
??CrossCallReturnLabel_333:
        BREQ	$+2+2
        RJMP	??write_menu_3
        RCALL	?Subroutine135
??CrossCallReturnLabel_184:
        BREQ	$+2+2
        RJMP	??write_menu_3
        CALL	burst_ds_r
        STD	Y+4, R16
        STD	Y+5, R17
        STD	Y+6, R18
        STD	Y+7, R19
        LDI	R18, 4
??write_menu_84:
        MOVW	R31:R30, R29:R28
        ADIW	R31:R30, 4
        LDI	R19, 0
        ADD	R30, R18
        ADC	R31, R19
        ST	Z, R19
        INC	R18
        CPI	R18, 12
        BRCS	??write_menu_84
        LDI	R20, 255
        LDI	R21, 255
        LDI	R18, 12
        RCALL	?Subroutine69
??CrossCallReturnLabel_223:
        LDI	R16, 254
        LDI	R17, 116
        RJMP	??write_menu_11
??write_menu_85:
        RCALL	?Subroutine126
??CrossCallReturnLabel_313:
        CPI	R16, 3
        SBCI	R17, 0
        BREQ	$+2+2
        RJMP	??write_menu_3
        RCALL	?Subroutine135
??CrossCallReturnLabel_185:
        BREQ	??write_menu_86
        CPI	R16, 49
        BREQ	??write_menu_86
        CPI	R16, 105
        BREQ	$+2+2
        RJMP	??write_menu_3
??write_menu_86:
        CPI	R24, 48
        BREQ	??write_menu_87
        CPI	R24, 49
        BREQ	??write_menu_87
        CPI	R24, 105
        BREQ	$+2+2
        RJMP	??write_menu_3
??write_menu_87:
        CPI	R16, 48
        BRNE	??write_menu_88
        CBI	0x02, 0x04
        RJMP	??write_menu_89
??write_menu_88:
        SBI	0x02, 0x04
        LD	R16, X
        CPI	R16, 105
        BRNE	??write_menu_89
        LDI	R16, 8
        STS	cnt_tu1, R16
??write_menu_89:
        CPI	R24, 48
        BRNE	??write_menu_90
        CBI	0x02, 0x03
        RJMP	??write_menu_12
??write_menu_90:
        SBI	0x02, 0x03
        CPI	R24, 105
        BREQ	$+2+2
        RJMP	??write_menu_12
        LDI	R16, 8
        STS	cnt_tu2, R16
        RJMP	??write_menu_12
??write_menu_91:
        RCALL	?Subroutine39
??CrossCallReturnLabel_339:
        BREQ	$+2+2
        RJMP	??write_menu_3
        RCALL	?Subroutine135
??CrossCallReturnLabel_186:
        BREQ	$+2+2
        RJMP	??write_menu_3
        RCALL	?Subroutine143
??CrossCallReturnLabel_204:
        ST	Z, R18
        STD	Z+1, R18
        RJMP	??write_menu_12
??write_menu_92:
        RCALL	?Subroutine3
??CrossCallReturnLabel_334:
        BREQ	$+2+2
        RJMP	??write_menu_3
        RCALL	?Subroutine135
??CrossCallReturnLabel_187:
        BREQ	??write_menu_93
        CPI	R16, 49
        BREQ	$+2+2
        RJMP	??write_menu_3
??write_menu_93:
        SUBI	R16, 48
        ST	X, R16
        LDI	R23, 0
        LDI	R22, 0
        LDI	R20, 1
        LDI	R21, 0
        MOVW	R19:R18, R27:R26
        LDI	R16, 246
        RCALL	?Subroutine171
??CrossCallReturnLabel_422:
        RCALL	?Subroutine1
??CrossCallReturnLabel_3:
        RCALL	?Subroutine166
??CrossCallReturnLabel_365:
        CALL	lock_it
        RJMP	??write_menu_1
??write_menu_94:
        RCALL	?Subroutine165
??CrossCallReturnLabel_523:
        LDS	R16, vol_tx_ppp
        CALL	send_to_sim900
        RJMP	??write_menu_1
        CFI EndBlock cfiBlock405
// 2292     
// 2293     
// 2294       }

        RSEG FARCODE:CODE:NOROOT(1)
?Subroutine140:
        CFI Block cfiCond406 Using cfiCommon0
        CFI NoFunction
        CFI Conditional ??CrossCallReturnLabel_197
        CFI R24 Frame(CFA_Y, -9)
        CFI R25 Frame(CFA_Y, -8)
        CFI R26 Frame(CFA_Y, -7)
        CFI R27 Frame(CFA_Y, -6)
        CFI R4 Frame(CFA_Y, -5)
        CFI R5 Frame(CFA_Y, -4)
        CFI R6 Frame(CFA_Y, -3)
        CFI R7 Frame(CFA_Y, -2)
        CFI R8 Frame(CFA_Y, -1)
        CFI CFA_SP SP+6
        CFI CFA_Y Y+83
        CFI Block cfiCond407 Using cfiCommon0
        CFI (cfiCond407) NoFunction
        CFI (cfiCond407) Conditional ??CrossCallReturnLabel_198
        CFI (cfiCond407) R24 Frame(CFA_Y, -9)
        CFI (cfiCond407) R25 Frame(CFA_Y, -8)
        CFI (cfiCond407) R26 Frame(CFA_Y, -7)
        CFI (cfiCond407) R27 Frame(CFA_Y, -6)
        CFI (cfiCond407) R4 Frame(CFA_Y, -5)
        CFI (cfiCond407) R5 Frame(CFA_Y, -4)
        CFI (cfiCond407) R6 Frame(CFA_Y, -3)
        CFI (cfiCond407) R7 Frame(CFA_Y, -2)
        CFI (cfiCond407) R8 Frame(CFA_Y, -1)
        CFI (cfiCond407) CFA_SP SP+6
        CFI (cfiCond407) CFA_Y Y+83
        CFI Block cfiCond408 Using cfiCommon0
        CFI (cfiCond408) NoFunction
        CFI (cfiCond408) Conditional ??CrossCallReturnLabel_199
        CFI (cfiCond408) R24 Frame(CFA_Y, -9)
        CFI (cfiCond408) R25 Frame(CFA_Y, -8)
        CFI (cfiCond408) R26 Frame(CFA_Y, -7)
        CFI (cfiCond408) R27 Frame(CFA_Y, -6)
        CFI (cfiCond408) R4 Frame(CFA_Y, -5)
        CFI (cfiCond408) R5 Frame(CFA_Y, -4)
        CFI (cfiCond408) R6 Frame(CFA_Y, -3)
        CFI (cfiCond408) R7 Frame(CFA_Y, -2)
        CFI (cfiCond408) R8 Frame(CFA_Y, -1)
        CFI (cfiCond408) CFA_SP SP+6
        CFI (cfiCond408) CFA_Y Y+83
        CFI Block cfiPicker409 Using cfiCommon1
        CFI (cfiPicker409) NoFunction
        CFI (cfiPicker409) Picker
        MOVW	R31:R30, R1:R0
        LD	R17, Z
        CP	R18, R17
        RET
        CFI EndBlock cfiCond406
        CFI EndBlock cfiCond407
        CFI EndBlock cfiCond408
        CFI EndBlock cfiPicker409

        RSEG FARCODE:CODE:NOROOT(1)
?Subroutine139:
        CFI Block cfiCond410 Using cfiCommon0
        CFI NoFunction
        CFI Conditional ??CrossCallReturnLabel_194
        CFI R24 Frame(CFA_Y, -9)
        CFI R25 Frame(CFA_Y, -8)
        CFI R26 Frame(CFA_Y, -7)
        CFI R27 Frame(CFA_Y, -6)
        CFI R4 Frame(CFA_Y, -5)
        CFI R5 Frame(CFA_Y, -4)
        CFI R6 Frame(CFA_Y, -3)
        CFI R7 Frame(CFA_Y, -2)
        CFI R8 Frame(CFA_Y, -1)
        CFI CFA_SP SP+6
        CFI CFA_Y Y+83
        CFI Block cfiCond411 Using cfiCommon0
        CFI (cfiCond411) NoFunction
        CFI (cfiCond411) Conditional ??CrossCallReturnLabel_195
        CFI (cfiCond411) R24 Frame(CFA_Y, -9)
        CFI (cfiCond411) R25 Frame(CFA_Y, -8)
        CFI (cfiCond411) R26 Frame(CFA_Y, -7)
        CFI (cfiCond411) R27 Frame(CFA_Y, -6)
        CFI (cfiCond411) R4 Frame(CFA_Y, -5)
        CFI (cfiCond411) R5 Frame(CFA_Y, -4)
        CFI (cfiCond411) R6 Frame(CFA_Y, -3)
        CFI (cfiCond411) R7 Frame(CFA_Y, -2)
        CFI (cfiCond411) R8 Frame(CFA_Y, -1)
        CFI (cfiCond411) CFA_SP SP+6
        CFI (cfiCond411) CFA_Y Y+83
        CFI Block cfiCond412 Using cfiCommon0
        CFI (cfiCond412) NoFunction
        CFI (cfiCond412) Conditional ??CrossCallReturnLabel_196
        CFI (cfiCond412) R24 Frame(CFA_Y, -9)
        CFI (cfiCond412) R25 Frame(CFA_Y, -8)
        CFI (cfiCond412) R26 Frame(CFA_Y, -7)
        CFI (cfiCond412) R27 Frame(CFA_Y, -6)
        CFI (cfiCond412) R4 Frame(CFA_Y, -5)
        CFI (cfiCond412) R5 Frame(CFA_Y, -4)
        CFI (cfiCond412) R6 Frame(CFA_Y, -3)
        CFI (cfiCond412) R7 Frame(CFA_Y, -2)
        CFI (cfiCond412) R8 Frame(CFA_Y, -1)
        CFI (cfiCond412) CFA_SP SP+6
        CFI (cfiCond412) CFA_Y Y+83
        CFI Block cfiPicker413 Using cfiCommon1
        CFI (cfiPicker413) NoFunction
        CFI (cfiPicker413) Picker
        MOVW	R31:R30, R7:R6
        LD	R16, Z
        CPI	R16, 34
        RET
        CFI EndBlock cfiCond410
        CFI EndBlock cfiCond411
        CFI EndBlock cfiCond412
        CFI EndBlock cfiPicker413

        RSEG FARCODE:CODE:NOROOT(1)
?Subroutine138:
        CFI Block cfiCond414 Using cfiCommon0
        CFI NoFunction
        CFI Conditional ??CrossCallReturnLabel_283
        CFI R24 Frame(CFA_Y, -9)
        CFI R25 Frame(CFA_Y, -8)
        CFI R26 Frame(CFA_Y, -7)
        CFI R27 Frame(CFA_Y, -6)
        CFI R4 Frame(CFA_Y, -5)
        CFI R5 Frame(CFA_Y, -4)
        CFI R6 Frame(CFA_Y, -3)
        CFI R7 Frame(CFA_Y, -2)
        CFI R8 Frame(CFA_Y, -1)
        CFI CFA_SP SP+6
        CFI CFA_Y Y+83
        CFI Block cfiCond415 Using cfiCommon0
        CFI (cfiCond415) NoFunction
        CFI (cfiCond415) Conditional ??CrossCallReturnLabel_284
        CFI (cfiCond415) R24 Frame(CFA_Y, -9)
        CFI (cfiCond415) R25 Frame(CFA_Y, -8)
        CFI (cfiCond415) R26 Frame(CFA_Y, -7)
        CFI (cfiCond415) R27 Frame(CFA_Y, -6)
        CFI (cfiCond415) R4 Frame(CFA_Y, -5)
        CFI (cfiCond415) R5 Frame(CFA_Y, -4)
        CFI (cfiCond415) R6 Frame(CFA_Y, -3)
        CFI (cfiCond415) R7 Frame(CFA_Y, -2)
        CFI (cfiCond415) R8 Frame(CFA_Y, -1)
        CFI (cfiCond415) CFA_SP SP+6
        CFI (cfiCond415) CFA_Y Y+83
        CFI Block cfiCond416 Using cfiCommon0
        CFI (cfiCond416) NoFunction
        CFI (cfiCond416) Conditional ??CrossCallReturnLabel_285
        CFI (cfiCond416) R24 Frame(CFA_Y, -9)
        CFI (cfiCond416) R25 Frame(CFA_Y, -8)
        CFI (cfiCond416) R26 Frame(CFA_Y, -7)
        CFI (cfiCond416) R27 Frame(CFA_Y, -6)
        CFI (cfiCond416) R4 Frame(CFA_Y, -5)
        CFI (cfiCond416) R5 Frame(CFA_Y, -4)
        CFI (cfiCond416) R6 Frame(CFA_Y, -3)
        CFI (cfiCond416) R7 Frame(CFA_Y, -2)
        CFI (cfiCond416) R8 Frame(CFA_Y, -1)
        CFI (cfiCond416) CFA_SP SP+6
        CFI (cfiCond416) CFA_Y Y+83
        CFI Block cfiPicker417 Using cfiCommon1
        CFI (cfiPicker417) NoFunction
        CFI (cfiPicker417) Picker
        CLR	R3
        MOVW	R1:R0, R29:R28
        LDI	R17, 4
        ADD	R0, R17
        ADC	R1, R3
        ADD	R0, R20
        ADC	R1, R3
        MOVW	R31:R30, R1:R0
        ST	Z, R18
        JMP	??Subroutine152_0
        CFI EndBlock cfiCond414
        CFI EndBlock cfiCond415
        CFI EndBlock cfiCond416
        CFI EndBlock cfiPicker417

        RSEG FARCODE:CODE:NOROOT(1)
?Subroutine137:
        CFI Block cfiCond418 Using cfiCommon0
        CFI NoFunction
        CFI Conditional ??CrossCallReturnLabel_192
        CFI R24 Frame(CFA_Y, -9)
        CFI R25 Frame(CFA_Y, -8)
        CFI R26 Frame(CFA_Y, -7)
        CFI R27 Frame(CFA_Y, -6)
        CFI R4 Frame(CFA_Y, -5)
        CFI R5 Frame(CFA_Y, -4)
        CFI R6 Frame(CFA_Y, -3)
        CFI R7 Frame(CFA_Y, -2)
        CFI R8 Frame(CFA_Y, -1)
        CFI CFA_SP SP+6
        CFI CFA_Y Y+83
        CFI Block cfiCond419 Using cfiCommon0
        CFI (cfiCond419) NoFunction
        CFI (cfiCond419) Conditional ??CrossCallReturnLabel_193
        CFI (cfiCond419) R24 Frame(CFA_Y, -9)
        CFI (cfiCond419) R25 Frame(CFA_Y, -8)
        CFI (cfiCond419) R26 Frame(CFA_Y, -7)
        CFI (cfiCond419) R27 Frame(CFA_Y, -6)
        CFI (cfiCond419) R4 Frame(CFA_Y, -5)
        CFI (cfiCond419) R5 Frame(CFA_Y, -4)
        CFI (cfiCond419) R6 Frame(CFA_Y, -3)
        CFI (cfiCond419) R7 Frame(CFA_Y, -2)
        CFI (cfiCond419) R8 Frame(CFA_Y, -1)
        CFI (cfiCond419) CFA_SP SP+6
        CFI (cfiCond419) CFA_Y Y+83
        CFI Block cfiPicker420 Using cfiCommon1
        CFI (cfiPicker420) NoFunction
        CFI (cfiPicker420) Picker
        LDD	R24, Y+6
        LDD	R25, Y+7
        LDI	R26, 0
        LDI	R27, 0
        LD	R20, Y
        RET
        CFI EndBlock cfiCond418
        CFI EndBlock cfiCond419
        CFI EndBlock cfiPicker420

        RSEG FARCODE:CODE:NOROOT(1)
?Subroutine136:
        CFI Block cfiCond421 Using cfiCommon0
        CFI NoFunction
        CFI Conditional ??CrossCallReturnLabel_188
        CFI R24 Frame(CFA_Y, -9)
        CFI R25 Frame(CFA_Y, -8)
        CFI R26 Frame(CFA_Y, -7)
        CFI R27 Frame(CFA_Y, -6)
        CFI R4 Frame(CFA_Y, -5)
        CFI R5 Frame(CFA_Y, -4)
        CFI R6 Frame(CFA_Y, -3)
        CFI R7 Frame(CFA_Y, -2)
        CFI R8 Frame(CFA_Y, -1)
        CFI CFA_SP SP+6
        CFI CFA_Y Y+83
        CFI Block cfiCond422 Using cfiCommon0
        CFI (cfiCond422) NoFunction
        CFI (cfiCond422) Conditional ??CrossCallReturnLabel_189
        CFI (cfiCond422) R24 Frame(CFA_Y, -9)
        CFI (cfiCond422) R25 Frame(CFA_Y, -8)
        CFI (cfiCond422) R26 Frame(CFA_Y, -7)
        CFI (cfiCond422) R27 Frame(CFA_Y, -6)
        CFI (cfiCond422) R4 Frame(CFA_Y, -5)
        CFI (cfiCond422) R5 Frame(CFA_Y, -4)
        CFI (cfiCond422) R6 Frame(CFA_Y, -3)
        CFI (cfiCond422) R7 Frame(CFA_Y, -2)
        CFI (cfiCond422) R8 Frame(CFA_Y, -1)
        CFI (cfiCond422) CFA_SP SP+6
        CFI (cfiCond422) CFA_Y Y+83
        CFI Block cfiCond423 Using cfiCommon0
        CFI (cfiCond423) NoFunction
        CFI (cfiCond423) Conditional ??CrossCallReturnLabel_190
        CFI (cfiCond423) R24 Frame(CFA_Y, -9)
        CFI (cfiCond423) R25 Frame(CFA_Y, -8)
        CFI (cfiCond423) R26 Frame(CFA_Y, -7)
        CFI (cfiCond423) R27 Frame(CFA_Y, -6)
        CFI (cfiCond423) R4 Frame(CFA_Y, -5)
        CFI (cfiCond423) R5 Frame(CFA_Y, -4)
        CFI (cfiCond423) R6 Frame(CFA_Y, -3)
        CFI (cfiCond423) R7 Frame(CFA_Y, -2)
        CFI (cfiCond423) R8 Frame(CFA_Y, -1)
        CFI (cfiCond423) CFA_SP SP+6
        CFI (cfiCond423) CFA_Y Y+83
        CFI Block cfiCond424 Using cfiCommon0
        CFI (cfiCond424) NoFunction
        CFI (cfiCond424) Conditional ??CrossCallReturnLabel_191
        CFI (cfiCond424) R24 Frame(CFA_Y, -9)
        CFI (cfiCond424) R25 Frame(CFA_Y, -8)
        CFI (cfiCond424) R26 Frame(CFA_Y, -7)
        CFI (cfiCond424) R27 Frame(CFA_Y, -6)
        CFI (cfiCond424) R4 Frame(CFA_Y, -5)
        CFI (cfiCond424) R5 Frame(CFA_Y, -4)
        CFI (cfiCond424) R6 Frame(CFA_Y, -3)
        CFI (cfiCond424) R7 Frame(CFA_Y, -2)
        CFI (cfiCond424) R8 Frame(CFA_Y, -1)
        CFI (cfiCond424) CFA_SP SP+6
        CFI (cfiCond424) CFA_Y Y+83
        CFI Block cfiPicker425 Using cfiCommon1
        CFI (cfiPicker425) NoFunction
        CFI (cfiPicker425) Picker
        LD	R16, X
        CPI	R16, 49
        RET
        CFI EndBlock cfiCond421
        CFI EndBlock cfiCond422
        CFI EndBlock cfiCond423
        CFI EndBlock cfiCond424
        CFI EndBlock cfiPicker425

        RSEG FARCODE:CODE:NOROOT(1)
?Subroutine135:
        CFI Block cfiCond426 Using cfiCommon0
        CFI NoFunction
        CFI Conditional ??CrossCallReturnLabel_182
        CFI R24 Frame(CFA_Y, -9)
        CFI R25 Frame(CFA_Y, -8)
        CFI R26 Frame(CFA_Y, -7)
        CFI R27 Frame(CFA_Y, -6)
        CFI R4 Frame(CFA_Y, -5)
        CFI R5 Frame(CFA_Y, -4)
        CFI R6 Frame(CFA_Y, -3)
        CFI R7 Frame(CFA_Y, -2)
        CFI R8 Frame(CFA_Y, -1)
        CFI CFA_SP SP+6
        CFI CFA_Y Y+83
        CFI Block cfiCond427 Using cfiCommon0
        CFI (cfiCond427) NoFunction
        CFI (cfiCond427) Conditional ??CrossCallReturnLabel_183
        CFI (cfiCond427) R24 Frame(CFA_Y, -9)
        CFI (cfiCond427) R25 Frame(CFA_Y, -8)
        CFI (cfiCond427) R26 Frame(CFA_Y, -7)
        CFI (cfiCond427) R27 Frame(CFA_Y, -6)
        CFI (cfiCond427) R4 Frame(CFA_Y, -5)
        CFI (cfiCond427) R5 Frame(CFA_Y, -4)
        CFI (cfiCond427) R6 Frame(CFA_Y, -3)
        CFI (cfiCond427) R7 Frame(CFA_Y, -2)
        CFI (cfiCond427) R8 Frame(CFA_Y, -1)
        CFI (cfiCond427) CFA_SP SP+6
        CFI (cfiCond427) CFA_Y Y+83
        CFI Block cfiCond428 Using cfiCommon0
        CFI (cfiCond428) NoFunction
        CFI (cfiCond428) Conditional ??CrossCallReturnLabel_184
        CFI (cfiCond428) R24 Frame(CFA_Y, -9)
        CFI (cfiCond428) R25 Frame(CFA_Y, -8)
        CFI (cfiCond428) R26 Frame(CFA_Y, -7)
        CFI (cfiCond428) R27 Frame(CFA_Y, -6)
        CFI (cfiCond428) R4 Frame(CFA_Y, -5)
        CFI (cfiCond428) R5 Frame(CFA_Y, -4)
        CFI (cfiCond428) R6 Frame(CFA_Y, -3)
        CFI (cfiCond428) R7 Frame(CFA_Y, -2)
        CFI (cfiCond428) R8 Frame(CFA_Y, -1)
        CFI (cfiCond428) CFA_SP SP+6
        CFI (cfiCond428) CFA_Y Y+83
        CFI Block cfiCond429 Using cfiCommon0
        CFI (cfiCond429) NoFunction
        CFI (cfiCond429) Conditional ??CrossCallReturnLabel_185
        CFI (cfiCond429) R24 Frame(CFA_Y, -9)
        CFI (cfiCond429) R25 Frame(CFA_Y, -8)
        CFI (cfiCond429) R26 Frame(CFA_Y, -7)
        CFI (cfiCond429) R27 Frame(CFA_Y, -6)
        CFI (cfiCond429) R4 Frame(CFA_Y, -5)
        CFI (cfiCond429) R5 Frame(CFA_Y, -4)
        CFI (cfiCond429) R6 Frame(CFA_Y, -3)
        CFI (cfiCond429) R7 Frame(CFA_Y, -2)
        CFI (cfiCond429) R8 Frame(CFA_Y, -1)
        CFI (cfiCond429) CFA_SP SP+6
        CFI (cfiCond429) CFA_Y Y+83
        CFI Block cfiCond430 Using cfiCommon0
        CFI (cfiCond430) NoFunction
        CFI (cfiCond430) Conditional ??CrossCallReturnLabel_186
        CFI (cfiCond430) R24 Frame(CFA_Y, -9)
        CFI (cfiCond430) R25 Frame(CFA_Y, -8)
        CFI (cfiCond430) R26 Frame(CFA_Y, -7)
        CFI (cfiCond430) R27 Frame(CFA_Y, -6)
        CFI (cfiCond430) R4 Frame(CFA_Y, -5)
        CFI (cfiCond430) R5 Frame(CFA_Y, -4)
        CFI (cfiCond430) R6 Frame(CFA_Y, -3)
        CFI (cfiCond430) R7 Frame(CFA_Y, -2)
        CFI (cfiCond430) R8 Frame(CFA_Y, -1)
        CFI (cfiCond430) CFA_SP SP+6
        CFI (cfiCond430) CFA_Y Y+83
        CFI Block cfiCond431 Using cfiCommon0
        CFI (cfiCond431) NoFunction
        CFI (cfiCond431) Conditional ??CrossCallReturnLabel_187
        CFI (cfiCond431) R24 Frame(CFA_Y, -9)
        CFI (cfiCond431) R25 Frame(CFA_Y, -8)
        CFI (cfiCond431) R26 Frame(CFA_Y, -7)
        CFI (cfiCond431) R27 Frame(CFA_Y, -6)
        CFI (cfiCond431) R4 Frame(CFA_Y, -5)
        CFI (cfiCond431) R5 Frame(CFA_Y, -4)
        CFI (cfiCond431) R6 Frame(CFA_Y, -3)
        CFI (cfiCond431) R7 Frame(CFA_Y, -2)
        CFI (cfiCond431) R8 Frame(CFA_Y, -1)
        CFI (cfiCond431) CFA_SP SP+6
        CFI (cfiCond431) CFA_Y Y+83
        CFI Block cfiPicker432 Using cfiCommon1
        CFI (cfiPicker432) NoFunction
        CFI (cfiPicker432) Picker
        LD	R16, X
        CPI	R16, 48
        RET
        CFI EndBlock cfiCond426
        CFI EndBlock cfiCond427
        CFI EndBlock cfiCond428
        CFI EndBlock cfiCond429
        CFI EndBlock cfiCond430
        CFI EndBlock cfiCond431
        CFI EndBlock cfiPicker432

        RSEG FARCODE:CODE:NOROOT(1)
?Subroutine172:
        CFI Block cfiCond433 Using cfiCommon0
        CFI NoFunction
        CFI Conditional ??CrossCallReturnLabel_455
        CFI R24 Frame(CFA_Y, -9)
        CFI R25 Frame(CFA_Y, -8)
        CFI R26 Frame(CFA_Y, -7)
        CFI R27 Frame(CFA_Y, -6)
        CFI R4 Frame(CFA_Y, -5)
        CFI R5 Frame(CFA_Y, -4)
        CFI R6 Frame(CFA_Y, -3)
        CFI R7 Frame(CFA_Y, -2)
        CFI R8 Frame(CFA_Y, -1)
        CFI CFA_SP SP+6
        CFI CFA_Y Y+83
        CFI Block cfiCond434 Using cfiCommon0
        CFI (cfiCond434) NoFunction
        CFI (cfiCond434) Conditional ??CrossCallReturnLabel_456
        CFI (cfiCond434) R24 Frame(CFA_Y, -9)
        CFI (cfiCond434) R25 Frame(CFA_Y, -8)
        CFI (cfiCond434) R26 Frame(CFA_Y, -7)
        CFI (cfiCond434) R27 Frame(CFA_Y, -6)
        CFI (cfiCond434) R4 Frame(CFA_Y, -5)
        CFI (cfiCond434) R5 Frame(CFA_Y, -4)
        CFI (cfiCond434) R6 Frame(CFA_Y, -3)
        CFI (cfiCond434) R7 Frame(CFA_Y, -2)
        CFI (cfiCond434) R8 Frame(CFA_Y, -1)
        CFI (cfiCond434) CFA_SP SP+6
        CFI (cfiCond434) CFA_Y Y+83
        CFI Block cfiCond435 Using cfiCommon0
        CFI (cfiCond435) NoFunction
        CFI (cfiCond435) Conditional ??CrossCallReturnLabel_457
        CFI (cfiCond435) R24 Frame(CFA_Y, -9)
        CFI (cfiCond435) R25 Frame(CFA_Y, -8)
        CFI (cfiCond435) R26 Frame(CFA_Y, -7)
        CFI (cfiCond435) R27 Frame(CFA_Y, -6)
        CFI (cfiCond435) R4 Frame(CFA_Y, -5)
        CFI (cfiCond435) R5 Frame(CFA_Y, -4)
        CFI (cfiCond435) R6 Frame(CFA_Y, -3)
        CFI (cfiCond435) R7 Frame(CFA_Y, -2)
        CFI (cfiCond435) R8 Frame(CFA_Y, -1)
        CFI (cfiCond435) CFA_SP SP+6
        CFI (cfiCond435) CFA_Y Y+83
        CFI Block cfiCond436 Using cfiCommon0
        CFI (cfiCond436) NoFunction
        CFI (cfiCond436) Conditional ??CrossCallReturnLabel_458
        CFI (cfiCond436) R24 Frame(CFA_Y, -9)
        CFI (cfiCond436) R25 Frame(CFA_Y, -8)
        CFI (cfiCond436) R26 Frame(CFA_Y, -7)
        CFI (cfiCond436) R27 Frame(CFA_Y, -6)
        CFI (cfiCond436) R4 Frame(CFA_Y, -5)
        CFI (cfiCond436) R5 Frame(CFA_Y, -4)
        CFI (cfiCond436) R6 Frame(CFA_Y, -3)
        CFI (cfiCond436) R7 Frame(CFA_Y, -2)
        CFI (cfiCond436) R8 Frame(CFA_Y, -1)
        CFI (cfiCond436) CFA_SP SP+6
        CFI (cfiCond436) CFA_Y Y+83
        CFI Block cfiCond437 Using cfiCommon0
        CFI (cfiCond437) NoFunction
        CFI (cfiCond437) Conditional ??CrossCallReturnLabel_459
        CFI (cfiCond437) R24 Frame(CFA_Y, -9)
        CFI (cfiCond437) R25 Frame(CFA_Y, -8)
        CFI (cfiCond437) R26 Frame(CFA_Y, -7)
        CFI (cfiCond437) R27 Frame(CFA_Y, -6)
        CFI (cfiCond437) R4 Frame(CFA_Y, -5)
        CFI (cfiCond437) R5 Frame(CFA_Y, -4)
        CFI (cfiCond437) R6 Frame(CFA_Y, -3)
        CFI (cfiCond437) R7 Frame(CFA_Y, -2)
        CFI (cfiCond437) R8 Frame(CFA_Y, -1)
        CFI (cfiCond437) CFA_SP SP+6
        CFI (cfiCond437) CFA_Y Y+83
        CFI Block cfiCond438 Using cfiCommon0
        CFI (cfiCond438) NoFunction
        CFI (cfiCond438) Conditional ??CrossCallReturnLabel_442
        CFI (cfiCond438) R24 Frame(CFA_Y, -9)
        CFI (cfiCond438) R25 Frame(CFA_Y, -8)
        CFI (cfiCond438) R26 Frame(CFA_Y, -7)
        CFI (cfiCond438) R27 Frame(CFA_Y, -6)
        CFI (cfiCond438) R4 Frame(CFA_Y, -5)
        CFI (cfiCond438) R5 Frame(CFA_Y, -4)
        CFI (cfiCond438) R6 Frame(CFA_Y, -3)
        CFI (cfiCond438) R7 Frame(CFA_Y, -2)
        CFI (cfiCond438) R8 Frame(CFA_Y, -1)
        CFI (cfiCond438) CFA_SP SP+6
        CFI (cfiCond438) CFA_Y Y+83
        CFI Block cfiCond439 Using cfiCommon0
        CFI (cfiCond439) NoFunction
        CFI (cfiCond439) Conditional ??CrossCallReturnLabel_443
        CFI (cfiCond439) R24 Frame(CFA_Y, -9)
        CFI (cfiCond439) R25 Frame(CFA_Y, -8)
        CFI (cfiCond439) R26 Frame(CFA_Y, -7)
        CFI (cfiCond439) R27 Frame(CFA_Y, -6)
        CFI (cfiCond439) R4 Frame(CFA_Y, -5)
        CFI (cfiCond439) R5 Frame(CFA_Y, -4)
        CFI (cfiCond439) R6 Frame(CFA_Y, -3)
        CFI (cfiCond439) R7 Frame(CFA_Y, -2)
        CFI (cfiCond439) R8 Frame(CFA_Y, -1)
        CFI (cfiCond439) CFA_SP SP+6
        CFI (cfiCond439) CFA_Y Y+83
        CFI Block cfiPicker440 Using cfiCommon1
        CFI (cfiPicker440) NoFunction
        CFI (cfiPicker440) Picker
        SBCI	R17, 0
        CFI Block cfiCond441 Using cfiCommon0
        CFI (cfiCond441) NoFunction
        CFI (cfiCond441) Conditional ??CrossCallReturnLabel_438
        CFI (cfiCond441) R24 Frame(CFA_Y, -9)
        CFI (cfiCond441) R25 Frame(CFA_Y, -8)
        CFI (cfiCond441) R26 Frame(CFA_Y, -7)
        CFI (cfiCond441) R27 Frame(CFA_Y, -6)
        CFI (cfiCond441) R4 Frame(CFA_Y, -5)
        CFI (cfiCond441) R5 Frame(CFA_Y, -4)
        CFI (cfiCond441) R6 Frame(CFA_Y, -3)
        CFI (cfiCond441) R7 Frame(CFA_Y, -2)
        CFI (cfiCond441) R8 Frame(CFA_Y, -1)
        CFI (cfiCond441) CFA_SP SP+6
        CFI (cfiCond441) CFA_Y Y+83
        CFI Block cfiCond442 Using cfiCommon0
        CFI (cfiCond442) NoFunction
        CFI (cfiCond442) Conditional ??CrossCallReturnLabel_439
        CFI (cfiCond442) R24 Frame(CFA_Y, -9)
        CFI (cfiCond442) R25 Frame(CFA_Y, -8)
        CFI (cfiCond442) R26 Frame(CFA_Y, -7)
        CFI (cfiCond442) R27 Frame(CFA_Y, -6)
        CFI (cfiCond442) R4 Frame(CFA_Y, -5)
        CFI (cfiCond442) R5 Frame(CFA_Y, -4)
        CFI (cfiCond442) R6 Frame(CFA_Y, -3)
        CFI (cfiCond442) R7 Frame(CFA_Y, -2)
        CFI (cfiCond442) R8 Frame(CFA_Y, -1)
        CFI (cfiCond442) CFA_SP SP+6
        CFI (cfiCond442) CFA_Y Y+83
        CFI Block cfiCond443 Using cfiCommon0
        CFI (cfiCond443) NoFunction
        CFI (cfiCond443) Conditional ??CrossCallReturnLabel_440
        CFI (cfiCond443) R24 Frame(CFA_Y, -9)
        CFI (cfiCond443) R25 Frame(CFA_Y, -8)
        CFI (cfiCond443) R26 Frame(CFA_Y, -7)
        CFI (cfiCond443) R27 Frame(CFA_Y, -6)
        CFI (cfiCond443) R4 Frame(CFA_Y, -5)
        CFI (cfiCond443) R5 Frame(CFA_Y, -4)
        CFI (cfiCond443) R6 Frame(CFA_Y, -3)
        CFI (cfiCond443) R7 Frame(CFA_Y, -2)
        CFI (cfiCond443) R8 Frame(CFA_Y, -1)
        CFI (cfiCond443) CFA_SP SP+6
        CFI (cfiCond443) CFA_Y Y+83
        CFI Block cfiCond444 Using cfiCommon0
        CFI (cfiCond444) NoFunction
        CFI (cfiCond444) Conditional ??CrossCallReturnLabel_441
        CFI (cfiCond444) R24 Frame(CFA_Y, -9)
        CFI (cfiCond444) R25 Frame(CFA_Y, -8)
        CFI (cfiCond444) R26 Frame(CFA_Y, -7)
        CFI (cfiCond444) R27 Frame(CFA_Y, -6)
        CFI (cfiCond444) R4 Frame(CFA_Y, -5)
        CFI (cfiCond444) R5 Frame(CFA_Y, -4)
        CFI (cfiCond444) R6 Frame(CFA_Y, -3)
        CFI (cfiCond444) R7 Frame(CFA_Y, -2)
        CFI (cfiCond444) R8 Frame(CFA_Y, -1)
        CFI (cfiCond444) CFA_SP SP+6
        CFI (cfiCond444) CFA_Y Y+83
??Subroutine172_0:
        SBCI	R18, 0
        RJMP	??Subroutine149_0
        CFI EndBlock cfiCond433
        CFI EndBlock cfiCond434
        CFI EndBlock cfiCond435
        CFI EndBlock cfiCond436
        CFI EndBlock cfiCond437
        CFI EndBlock cfiCond438
        CFI EndBlock cfiCond439
        CFI EndBlock cfiPicker440
        CFI EndBlock cfiCond441
        CFI EndBlock cfiCond442
        CFI EndBlock cfiCond443
        CFI EndBlock cfiCond444

        RSEG FARCODE:CODE:NOROOT(1)
?Subroutine149:
        CFI Block cfiCond445 Using cfiCommon0
        CFI NoFunction
        CFI Conditional ??CrossCallReturnLabel_446
        CFI R24 Frame(CFA_Y, -9)
        CFI R25 Frame(CFA_Y, -8)
        CFI R26 Frame(CFA_Y, -7)
        CFI R27 Frame(CFA_Y, -6)
        CFI R4 Frame(CFA_Y, -5)
        CFI R5 Frame(CFA_Y, -4)
        CFI R6 Frame(CFA_Y, -3)
        CFI R7 Frame(CFA_Y, -2)
        CFI R8 Frame(CFA_Y, -1)
        CFI CFA_SP SP+6
        CFI CFA_Y Y+83
        CFI Block cfiCond446 Using cfiCommon0
        CFI (cfiCond446) NoFunction
        CFI (cfiCond446) Conditional ??CrossCallReturnLabel_447
        CFI (cfiCond446) R24 Frame(CFA_Y, -9)
        CFI (cfiCond446) R25 Frame(CFA_Y, -8)
        CFI (cfiCond446) R26 Frame(CFA_Y, -7)
        CFI (cfiCond446) R27 Frame(CFA_Y, -6)
        CFI (cfiCond446) R4 Frame(CFA_Y, -5)
        CFI (cfiCond446) R5 Frame(CFA_Y, -4)
        CFI (cfiCond446) R6 Frame(CFA_Y, -3)
        CFI (cfiCond446) R7 Frame(CFA_Y, -2)
        CFI (cfiCond446) R8 Frame(CFA_Y, -1)
        CFI (cfiCond446) CFA_SP SP+6
        CFI (cfiCond446) CFA_Y Y+83
        CFI Block cfiCond447 Using cfiCommon0
        CFI (cfiCond447) NoFunction
        CFI (cfiCond447) Conditional ??CrossCallReturnLabel_448
        CFI (cfiCond447) R24 Frame(CFA_Y, -9)
        CFI (cfiCond447) R25 Frame(CFA_Y, -8)
        CFI (cfiCond447) R26 Frame(CFA_Y, -7)
        CFI (cfiCond447) R27 Frame(CFA_Y, -6)
        CFI (cfiCond447) R4 Frame(CFA_Y, -5)
        CFI (cfiCond447) R5 Frame(CFA_Y, -4)
        CFI (cfiCond447) R6 Frame(CFA_Y, -3)
        CFI (cfiCond447) R7 Frame(CFA_Y, -2)
        CFI (cfiCond447) R8 Frame(CFA_Y, -1)
        CFI (cfiCond447) CFA_SP SP+6
        CFI (cfiCond447) CFA_Y Y+83
        CFI Block cfiCond448 Using cfiCommon0
        CFI (cfiCond448) NoFunction
        CFI (cfiCond448) Conditional ??CrossCallReturnLabel_449
        CFI (cfiCond448) R24 Frame(CFA_Y, -9)
        CFI (cfiCond448) R25 Frame(CFA_Y, -8)
        CFI (cfiCond448) R26 Frame(CFA_Y, -7)
        CFI (cfiCond448) R27 Frame(CFA_Y, -6)
        CFI (cfiCond448) R4 Frame(CFA_Y, -5)
        CFI (cfiCond448) R5 Frame(CFA_Y, -4)
        CFI (cfiCond448) R6 Frame(CFA_Y, -3)
        CFI (cfiCond448) R7 Frame(CFA_Y, -2)
        CFI (cfiCond448) R8 Frame(CFA_Y, -1)
        CFI (cfiCond448) CFA_SP SP+6
        CFI (cfiCond448) CFA_Y Y+83
        CFI Block cfiCond449 Using cfiCommon0
        CFI (cfiCond449) NoFunction
        CFI (cfiCond449) Conditional ??CrossCallReturnLabel_450
        CFI (cfiCond449) R24 Frame(CFA_Y, -9)
        CFI (cfiCond449) R25 Frame(CFA_Y, -8)
        CFI (cfiCond449) R26 Frame(CFA_Y, -7)
        CFI (cfiCond449) R27 Frame(CFA_Y, -6)
        CFI (cfiCond449) R4 Frame(CFA_Y, -5)
        CFI (cfiCond449) R5 Frame(CFA_Y, -4)
        CFI (cfiCond449) R6 Frame(CFA_Y, -3)
        CFI (cfiCond449) R7 Frame(CFA_Y, -2)
        CFI (cfiCond449) R8 Frame(CFA_Y, -1)
        CFI (cfiCond449) CFA_SP SP+6
        CFI (cfiCond449) CFA_Y Y+83
        CFI Block cfiCond450 Using cfiCommon0
        CFI (cfiCond450) NoFunction
        CFI (cfiCond450) Conditional ??CrossCallReturnLabel_451
        CFI (cfiCond450) R24 Frame(CFA_Y, -9)
        CFI (cfiCond450) R25 Frame(CFA_Y, -8)
        CFI (cfiCond450) R26 Frame(CFA_Y, -7)
        CFI (cfiCond450) R27 Frame(CFA_Y, -6)
        CFI (cfiCond450) R4 Frame(CFA_Y, -5)
        CFI (cfiCond450) R5 Frame(CFA_Y, -4)
        CFI (cfiCond450) R6 Frame(CFA_Y, -3)
        CFI (cfiCond450) R7 Frame(CFA_Y, -2)
        CFI (cfiCond450) R8 Frame(CFA_Y, -1)
        CFI (cfiCond450) CFA_SP SP+6
        CFI (cfiCond450) CFA_Y Y+83
        CFI Block cfiCond451 Using cfiCommon0
        CFI (cfiCond451) NoFunction
        CFI (cfiCond451) Conditional ??CrossCallReturnLabel_452
        CFI (cfiCond451) R24 Frame(CFA_Y, -9)
        CFI (cfiCond451) R25 Frame(CFA_Y, -8)
        CFI (cfiCond451) R26 Frame(CFA_Y, -7)
        CFI (cfiCond451) R27 Frame(CFA_Y, -6)
        CFI (cfiCond451) R4 Frame(CFA_Y, -5)
        CFI (cfiCond451) R5 Frame(CFA_Y, -4)
        CFI (cfiCond451) R6 Frame(CFA_Y, -3)
        CFI (cfiCond451) R7 Frame(CFA_Y, -2)
        CFI (cfiCond451) R8 Frame(CFA_Y, -1)
        CFI (cfiCond451) CFA_SP SP+6
        CFI (cfiCond451) CFA_Y Y+83
        CFI Block cfiCond452 Using cfiCommon0
        CFI (cfiCond452) NoFunction
        CFI (cfiCond452) Conditional ??CrossCallReturnLabel_453
        CFI (cfiCond452) R24 Frame(CFA_Y, -9)
        CFI (cfiCond452) R25 Frame(CFA_Y, -8)
        CFI (cfiCond452) R26 Frame(CFA_Y, -7)
        CFI (cfiCond452) R27 Frame(CFA_Y, -6)
        CFI (cfiCond452) R4 Frame(CFA_Y, -5)
        CFI (cfiCond452) R5 Frame(CFA_Y, -4)
        CFI (cfiCond452) R6 Frame(CFA_Y, -3)
        CFI (cfiCond452) R7 Frame(CFA_Y, -2)
        CFI (cfiCond452) R8 Frame(CFA_Y, -1)
        CFI (cfiCond452) CFA_SP SP+6
        CFI (cfiCond452) CFA_Y Y+83
        CFI Block cfiCond453 Using cfiCommon0
        CFI (cfiCond453) NoFunction
        CFI (cfiCond453) Conditional ??CrossCallReturnLabel_454
        CFI (cfiCond453) R24 Frame(CFA_Y, -9)
        CFI (cfiCond453) R25 Frame(CFA_Y, -8)
        CFI (cfiCond453) R26 Frame(CFA_Y, -7)
        CFI (cfiCond453) R27 Frame(CFA_Y, -6)
        CFI (cfiCond453) R4 Frame(CFA_Y, -5)
        CFI (cfiCond453) R5 Frame(CFA_Y, -4)
        CFI (cfiCond453) R6 Frame(CFA_Y, -3)
        CFI (cfiCond453) R7 Frame(CFA_Y, -2)
        CFI (cfiCond453) R8 Frame(CFA_Y, -1)
        CFI (cfiCond453) CFA_SP SP+6
        CFI (cfiCond453) CFA_Y Y+83
        CFI Block cfiCond454 Using cfiCommon0
        CFI (cfiCond454) NoFunction
        CFI (cfiCond454) Conditional ??CrossCallReturnLabel_444
        CFI (cfiCond454) R24 Frame(CFA_Y, -9)
        CFI (cfiCond454) R25 Frame(CFA_Y, -8)
        CFI (cfiCond454) R26 Frame(CFA_Y, -7)
        CFI (cfiCond454) R27 Frame(CFA_Y, -6)
        CFI (cfiCond454) R4 Frame(CFA_Y, -5)
        CFI (cfiCond454) R5 Frame(CFA_Y, -4)
        CFI (cfiCond454) R6 Frame(CFA_Y, -3)
        CFI (cfiCond454) R7 Frame(CFA_Y, -2)
        CFI (cfiCond454) R8 Frame(CFA_Y, -1)
        CFI (cfiCond454) CFA_SP SP+6
        CFI (cfiCond454) CFA_Y Y+83
        CFI Block cfiCond455 Using cfiCommon0
        CFI (cfiCond455) NoFunction
        CFI (cfiCond455) Conditional ??CrossCallReturnLabel_445
        CFI (cfiCond455) R24 Frame(CFA_Y, -9)
        CFI (cfiCond455) R25 Frame(CFA_Y, -8)
        CFI (cfiCond455) R26 Frame(CFA_Y, -7)
        CFI (cfiCond455) R27 Frame(CFA_Y, -6)
        CFI (cfiCond455) R4 Frame(CFA_Y, -5)
        CFI (cfiCond455) R5 Frame(CFA_Y, -4)
        CFI (cfiCond455) R6 Frame(CFA_Y, -3)
        CFI (cfiCond455) R7 Frame(CFA_Y, -2)
        CFI (cfiCond455) R8 Frame(CFA_Y, -1)
        CFI (cfiCond455) CFA_SP SP+6
        CFI (cfiCond455) CFA_Y Y+83
        CFI Block cfiPicker456 Using cfiCommon1
        CFI (cfiPicker456) NoFunction
        CFI (cfiPicker456) Picker
        CPI	R16, 0
        SBCI	R17, 0
        SBCI	R18, 1
        CFI Block cfiCond457 Using cfiCommon0
        CFI (cfiCond457) NoFunction
        CFI (cfiCond457) Conditional ??CrossCallReturnLabel_455
        CFI (cfiCond457) R24 Frame(CFA_Y, -9)
        CFI (cfiCond457) R25 Frame(CFA_Y, -8)
        CFI (cfiCond457) R26 Frame(CFA_Y, -7)
        CFI (cfiCond457) R27 Frame(CFA_Y, -6)
        CFI (cfiCond457) R4 Frame(CFA_Y, -5)
        CFI (cfiCond457) R5 Frame(CFA_Y, -4)
        CFI (cfiCond457) R6 Frame(CFA_Y, -3)
        CFI (cfiCond457) R7 Frame(CFA_Y, -2)
        CFI (cfiCond457) R8 Frame(CFA_Y, -1)
        CFI (cfiCond457) CFA_SP SP+6
        CFI (cfiCond457) CFA_Y Y+83
        CFI Block cfiCond458 Using cfiCommon0
        CFI (cfiCond458) NoFunction
        CFI (cfiCond458) Conditional ??CrossCallReturnLabel_456
        CFI (cfiCond458) R24 Frame(CFA_Y, -9)
        CFI (cfiCond458) R25 Frame(CFA_Y, -8)
        CFI (cfiCond458) R26 Frame(CFA_Y, -7)
        CFI (cfiCond458) R27 Frame(CFA_Y, -6)
        CFI (cfiCond458) R4 Frame(CFA_Y, -5)
        CFI (cfiCond458) R5 Frame(CFA_Y, -4)
        CFI (cfiCond458) R6 Frame(CFA_Y, -3)
        CFI (cfiCond458) R7 Frame(CFA_Y, -2)
        CFI (cfiCond458) R8 Frame(CFA_Y, -1)
        CFI (cfiCond458) CFA_SP SP+6
        CFI (cfiCond458) CFA_Y Y+83
        CFI Block cfiCond459 Using cfiCommon0
        CFI (cfiCond459) NoFunction
        CFI (cfiCond459) Conditional ??CrossCallReturnLabel_457
        CFI (cfiCond459) R24 Frame(CFA_Y, -9)
        CFI (cfiCond459) R25 Frame(CFA_Y, -8)
        CFI (cfiCond459) R26 Frame(CFA_Y, -7)
        CFI (cfiCond459) R27 Frame(CFA_Y, -6)
        CFI (cfiCond459) R4 Frame(CFA_Y, -5)
        CFI (cfiCond459) R5 Frame(CFA_Y, -4)
        CFI (cfiCond459) R6 Frame(CFA_Y, -3)
        CFI (cfiCond459) R7 Frame(CFA_Y, -2)
        CFI (cfiCond459) R8 Frame(CFA_Y, -1)
        CFI (cfiCond459) CFA_SP SP+6
        CFI (cfiCond459) CFA_Y Y+83
        CFI Block cfiCond460 Using cfiCommon0
        CFI (cfiCond460) NoFunction
        CFI (cfiCond460) Conditional ??CrossCallReturnLabel_458
        CFI (cfiCond460) R24 Frame(CFA_Y, -9)
        CFI (cfiCond460) R25 Frame(CFA_Y, -8)
        CFI (cfiCond460) R26 Frame(CFA_Y, -7)
        CFI (cfiCond460) R27 Frame(CFA_Y, -6)
        CFI (cfiCond460) R4 Frame(CFA_Y, -5)
        CFI (cfiCond460) R5 Frame(CFA_Y, -4)
        CFI (cfiCond460) R6 Frame(CFA_Y, -3)
        CFI (cfiCond460) R7 Frame(CFA_Y, -2)
        CFI (cfiCond460) R8 Frame(CFA_Y, -1)
        CFI (cfiCond460) CFA_SP SP+6
        CFI (cfiCond460) CFA_Y Y+83
        CFI Block cfiCond461 Using cfiCommon0
        CFI (cfiCond461) NoFunction
        CFI (cfiCond461) Conditional ??CrossCallReturnLabel_459
        CFI (cfiCond461) R24 Frame(CFA_Y, -9)
        CFI (cfiCond461) R25 Frame(CFA_Y, -8)
        CFI (cfiCond461) R26 Frame(CFA_Y, -7)
        CFI (cfiCond461) R27 Frame(CFA_Y, -6)
        CFI (cfiCond461) R4 Frame(CFA_Y, -5)
        CFI (cfiCond461) R5 Frame(CFA_Y, -4)
        CFI (cfiCond461) R6 Frame(CFA_Y, -3)
        CFI (cfiCond461) R7 Frame(CFA_Y, -2)
        CFI (cfiCond461) R8 Frame(CFA_Y, -1)
        CFI (cfiCond461) CFA_SP SP+6
        CFI (cfiCond461) CFA_Y Y+83
        CFI Block cfiCond462 Using cfiCommon0
        CFI (cfiCond462) NoFunction
        CFI (cfiCond462) Conditional ??CrossCallReturnLabel_442
        CFI (cfiCond462) R24 Frame(CFA_Y, -9)
        CFI (cfiCond462) R25 Frame(CFA_Y, -8)
        CFI (cfiCond462) R26 Frame(CFA_Y, -7)
        CFI (cfiCond462) R27 Frame(CFA_Y, -6)
        CFI (cfiCond462) R4 Frame(CFA_Y, -5)
        CFI (cfiCond462) R5 Frame(CFA_Y, -4)
        CFI (cfiCond462) R6 Frame(CFA_Y, -3)
        CFI (cfiCond462) R7 Frame(CFA_Y, -2)
        CFI (cfiCond462) R8 Frame(CFA_Y, -1)
        CFI (cfiCond462) CFA_SP SP+6
        CFI (cfiCond462) CFA_Y Y+83
        CFI Block cfiCond463 Using cfiCommon0
        CFI (cfiCond463) NoFunction
        CFI (cfiCond463) Conditional ??CrossCallReturnLabel_443
        CFI (cfiCond463) R24 Frame(CFA_Y, -9)
        CFI (cfiCond463) R25 Frame(CFA_Y, -8)
        CFI (cfiCond463) R26 Frame(CFA_Y, -7)
        CFI (cfiCond463) R27 Frame(CFA_Y, -6)
        CFI (cfiCond463) R4 Frame(CFA_Y, -5)
        CFI (cfiCond463) R5 Frame(CFA_Y, -4)
        CFI (cfiCond463) R6 Frame(CFA_Y, -3)
        CFI (cfiCond463) R7 Frame(CFA_Y, -2)
        CFI (cfiCond463) R8 Frame(CFA_Y, -1)
        CFI (cfiCond463) CFA_SP SP+6
        CFI (cfiCond463) CFA_Y Y+83
        CFI Block cfiCond464 Using cfiCommon0
        CFI (cfiCond464) NoFunction
        CFI (cfiCond464) Conditional ??CrossCallReturnLabel_438
        CFI (cfiCond464) R24 Frame(CFA_Y, -9)
        CFI (cfiCond464) R25 Frame(CFA_Y, -8)
        CFI (cfiCond464) R26 Frame(CFA_Y, -7)
        CFI (cfiCond464) R27 Frame(CFA_Y, -6)
        CFI (cfiCond464) R4 Frame(CFA_Y, -5)
        CFI (cfiCond464) R5 Frame(CFA_Y, -4)
        CFI (cfiCond464) R6 Frame(CFA_Y, -3)
        CFI (cfiCond464) R7 Frame(CFA_Y, -2)
        CFI (cfiCond464) R8 Frame(CFA_Y, -1)
        CFI (cfiCond464) CFA_SP SP+6
        CFI (cfiCond464) CFA_Y Y+83
        CFI Block cfiCond465 Using cfiCommon0
        CFI (cfiCond465) NoFunction
        CFI (cfiCond465) Conditional ??CrossCallReturnLabel_439
        CFI (cfiCond465) R24 Frame(CFA_Y, -9)
        CFI (cfiCond465) R25 Frame(CFA_Y, -8)
        CFI (cfiCond465) R26 Frame(CFA_Y, -7)
        CFI (cfiCond465) R27 Frame(CFA_Y, -6)
        CFI (cfiCond465) R4 Frame(CFA_Y, -5)
        CFI (cfiCond465) R5 Frame(CFA_Y, -4)
        CFI (cfiCond465) R6 Frame(CFA_Y, -3)
        CFI (cfiCond465) R7 Frame(CFA_Y, -2)
        CFI (cfiCond465) R8 Frame(CFA_Y, -1)
        CFI (cfiCond465) CFA_SP SP+6
        CFI (cfiCond465) CFA_Y Y+83
        CFI Block cfiCond466 Using cfiCommon0
        CFI (cfiCond466) NoFunction
        CFI (cfiCond466) Conditional ??CrossCallReturnLabel_440
        CFI (cfiCond466) R24 Frame(CFA_Y, -9)
        CFI (cfiCond466) R25 Frame(CFA_Y, -8)
        CFI (cfiCond466) R26 Frame(CFA_Y, -7)
        CFI (cfiCond466) R27 Frame(CFA_Y, -6)
        CFI (cfiCond466) R4 Frame(CFA_Y, -5)
        CFI (cfiCond466) R5 Frame(CFA_Y, -4)
        CFI (cfiCond466) R6 Frame(CFA_Y, -3)
        CFI (cfiCond466) R7 Frame(CFA_Y, -2)
        CFI (cfiCond466) R8 Frame(CFA_Y, -1)
        CFI (cfiCond466) CFA_SP SP+6
        CFI (cfiCond466) CFA_Y Y+83
        CFI Block cfiCond467 Using cfiCommon0
        CFI (cfiCond467) NoFunction
        CFI (cfiCond467) Conditional ??CrossCallReturnLabel_441
        CFI (cfiCond467) R24 Frame(CFA_Y, -9)
        CFI (cfiCond467) R25 Frame(CFA_Y, -8)
        CFI (cfiCond467) R26 Frame(CFA_Y, -7)
        CFI (cfiCond467) R27 Frame(CFA_Y, -6)
        CFI (cfiCond467) R4 Frame(CFA_Y, -5)
        CFI (cfiCond467) R5 Frame(CFA_Y, -4)
        CFI (cfiCond467) R6 Frame(CFA_Y, -3)
        CFI (cfiCond467) R7 Frame(CFA_Y, -2)
        CFI (cfiCond467) R8 Frame(CFA_Y, -1)
        CFI (cfiCond467) CFA_SP SP+6
        CFI (cfiCond467) CFA_Y Y+83
??Subroutine149_0:
        SBCI	R19, 0
        RET
        CFI EndBlock cfiCond445
        CFI EndBlock cfiCond446
        CFI EndBlock cfiCond447
        CFI EndBlock cfiCond448
        CFI EndBlock cfiCond449
        CFI EndBlock cfiCond450
        CFI EndBlock cfiCond451
        CFI EndBlock cfiCond452
        CFI EndBlock cfiCond453
        CFI EndBlock cfiCond454
        CFI EndBlock cfiCond455
        CFI EndBlock cfiPicker456
        CFI EndBlock cfiCond457
        CFI EndBlock cfiCond458
        CFI EndBlock cfiCond459
        CFI EndBlock cfiCond460
        CFI EndBlock cfiCond461
        CFI EndBlock cfiCond462
        CFI EndBlock cfiCond463
        CFI EndBlock cfiCond464
        CFI EndBlock cfiCond465
        CFI EndBlock cfiCond466
        CFI EndBlock cfiCond467

        RSEG FARCODE:CODE:NOROOT(1)
?Subroutine131:
        CFI Block cfiCond468 Using cfiCommon0
        CFI NoFunction
        CFI Conditional ??CrossCallReturnLabel_175
        CFI R24 Frame(CFA_Y, -9)
        CFI R25 Frame(CFA_Y, -8)
        CFI R26 Frame(CFA_Y, -7)
        CFI R27 Frame(CFA_Y, -6)
        CFI R4 Frame(CFA_Y, -5)
        CFI R5 Frame(CFA_Y, -4)
        CFI R6 Frame(CFA_Y, -3)
        CFI R7 Frame(CFA_Y, -2)
        CFI R8 Frame(CFA_Y, -1)
        CFI CFA_SP SP+6
        CFI CFA_Y Y+83
        CFI Block cfiCond469 Using cfiCommon0
        CFI (cfiCond469) NoFunction
        CFI (cfiCond469) Conditional ??CrossCallReturnLabel_176
        CFI (cfiCond469) R24 Frame(CFA_Y, -9)
        CFI (cfiCond469) R25 Frame(CFA_Y, -8)
        CFI (cfiCond469) R26 Frame(CFA_Y, -7)
        CFI (cfiCond469) R27 Frame(CFA_Y, -6)
        CFI (cfiCond469) R4 Frame(CFA_Y, -5)
        CFI (cfiCond469) R5 Frame(CFA_Y, -4)
        CFI (cfiCond469) R6 Frame(CFA_Y, -3)
        CFI (cfiCond469) R7 Frame(CFA_Y, -2)
        CFI (cfiCond469) R8 Frame(CFA_Y, -1)
        CFI (cfiCond469) CFA_SP SP+6
        CFI (cfiCond469) CFA_Y Y+83
        CFI Block cfiCond470 Using cfiCommon0
        CFI (cfiCond470) NoFunction
        CFI (cfiCond470) Conditional ??CrossCallReturnLabel_177
        CFI (cfiCond470) R24 Frame(CFA_Y, -9)
        CFI (cfiCond470) R25 Frame(CFA_Y, -8)
        CFI (cfiCond470) R26 Frame(CFA_Y, -7)
        CFI (cfiCond470) R27 Frame(CFA_Y, -6)
        CFI (cfiCond470) R4 Frame(CFA_Y, -5)
        CFI (cfiCond470) R5 Frame(CFA_Y, -4)
        CFI (cfiCond470) R6 Frame(CFA_Y, -3)
        CFI (cfiCond470) R7 Frame(CFA_Y, -2)
        CFI (cfiCond470) R8 Frame(CFA_Y, -1)
        CFI (cfiCond470) CFA_SP SP+6
        CFI (cfiCond470) CFA_Y Y+83
        CFI Block cfiPicker471 Using cfiCommon1
        CFI (cfiPicker471) NoFunction
        CFI (cfiPicker471) Picker
        LDI	R30, LOW(vol_tx_ppp)
        LDI	R31, (vol_tx_ppp) >> 8
        LD	R24, Z
        LDD	R25, Z+1
        CPI	R24, 7
        SBCI	R25, 0
        RET
        CFI EndBlock cfiCond468
        CFI EndBlock cfiCond469
        CFI EndBlock cfiCond470
        CFI EndBlock cfiPicker471

        RSEG FARCODE:CODE:NOROOT(1)
?Subroutine124:
        CFI Block cfiCond472 Using cfiCommon0
        CFI NoFunction
        CFI Conditional ??CrossCallReturnLabel_342
        CFI R24 Frame(CFA_Y, -9)
        CFI R25 Frame(CFA_Y, -8)
        CFI R26 Frame(CFA_Y, -7)
        CFI R27 Frame(CFA_Y, -6)
        CFI R4 Frame(CFA_Y, -5)
        CFI R5 Frame(CFA_Y, -4)
        CFI R6 Frame(CFA_Y, -3)
        CFI R7 Frame(CFA_Y, -2)
        CFI R8 Frame(CFA_Y, -1)
        CFI CFA_SP SP+6
        CFI CFA_Y Y+83
        CFI Block cfiCond473 Using cfiCommon0
        CFI (cfiCond473) NoFunction
        CFI (cfiCond473) Conditional ??CrossCallReturnLabel_343
        CFI (cfiCond473) R24 Frame(CFA_Y, -9)
        CFI (cfiCond473) R25 Frame(CFA_Y, -8)
        CFI (cfiCond473) R26 Frame(CFA_Y, -7)
        CFI (cfiCond473) R27 Frame(CFA_Y, -6)
        CFI (cfiCond473) R4 Frame(CFA_Y, -5)
        CFI (cfiCond473) R5 Frame(CFA_Y, -4)
        CFI (cfiCond473) R6 Frame(CFA_Y, -3)
        CFI (cfiCond473) R7 Frame(CFA_Y, -2)
        CFI (cfiCond473) R8 Frame(CFA_Y, -1)
        CFI (cfiCond473) CFA_SP SP+6
        CFI (cfiCond473) CFA_Y Y+83
        CFI Block cfiPicker474 Using cfiCommon1
        CFI (cfiPicker474) NoFunction
        CFI (cfiPicker474) Picker
        LDI	R30, LOW(vol_tx_ppp)
        LDI	R31, (vol_tx_ppp) >> 8
        LD	R16, Z
        LDD	R17, Z+1
        CPI	R16, 5
        RJMP	?Subroutine160
        CFI EndBlock cfiCond472
        CFI EndBlock cfiCond473
        CFI EndBlock cfiPicker474

        RSEG FARCODE:CODE:NOROOT(1)
?Subroutine123:
        CFI Block cfiCond475 Using cfiCommon0
        CFI NoFunction
        CFI Conditional ??CrossCallReturnLabel_340
        CFI R24 Frame(CFA_Y, -9)
        CFI R25 Frame(CFA_Y, -8)
        CFI R26 Frame(CFA_Y, -7)
        CFI R27 Frame(CFA_Y, -6)
        CFI R4 Frame(CFA_Y, -5)
        CFI R5 Frame(CFA_Y, -4)
        CFI R6 Frame(CFA_Y, -3)
        CFI R7 Frame(CFA_Y, -2)
        CFI R8 Frame(CFA_Y, -1)
        CFI CFA_SP SP+6
        CFI CFA_Y Y+83
        CFI Block cfiCond476 Using cfiCommon0
        CFI (cfiCond476) NoFunction
        CFI (cfiCond476) Conditional ??CrossCallReturnLabel_341
        CFI (cfiCond476) R24 Frame(CFA_Y, -9)
        CFI (cfiCond476) R25 Frame(CFA_Y, -8)
        CFI (cfiCond476) R26 Frame(CFA_Y, -7)
        CFI (cfiCond476) R27 Frame(CFA_Y, -6)
        CFI (cfiCond476) R4 Frame(CFA_Y, -5)
        CFI (cfiCond476) R5 Frame(CFA_Y, -4)
        CFI (cfiCond476) R6 Frame(CFA_Y, -3)
        CFI (cfiCond476) R7 Frame(CFA_Y, -2)
        CFI (cfiCond476) R8 Frame(CFA_Y, -1)
        CFI (cfiCond476) CFA_SP SP+6
        CFI (cfiCond476) CFA_Y Y+83
        CFI Block cfiPicker477 Using cfiCommon1
        CFI (cfiPicker477) NoFunction
        CFI (cfiPicker477) Picker
        LDI	R30, LOW(vol_tx_ppp)
        LDI	R31, (vol_tx_ppp) >> 8
        LD	R16, Z
        LDD	R17, Z+1
        CPI	R16, 9
        RJMP	?Subroutine160
        CFI EndBlock cfiCond475
        CFI EndBlock cfiCond476
        CFI EndBlock cfiPicker477

        RSEG FARCODE:CODE:NOROOT(1)
?Subroutine121:
        CFI Block cfiCond478 Using cfiCommon0
        CFI NoFunction
        CFI Conditional ??CrossCallReturnLabel_377
        CFI R24 Frame(CFA_Y, -5)
        CFI R25 Frame(CFA_Y, -4)
        CFI R26 Frame(CFA_Y, -3)
        CFI R27 Frame(CFA_Y, -2)
        CFI R4 Frame(CFA_Y, -1)
        CFI CFA_SP SP+6
        CFI CFA_Y Y+88
        CFI Block cfiCond479 Using cfiCommon0
        CFI (cfiCond479) NoFunction
        CFI (cfiCond479) Conditional ??CrossCallReturnLabel_376
        CFI (cfiCond479) R24 Frame(CFA_Y, -5)
        CFI (cfiCond479) R25 Frame(CFA_Y, -4)
        CFI (cfiCond479) R26 Frame(CFA_Y, -3)
        CFI (cfiCond479) R27 Frame(CFA_Y, -2)
        CFI (cfiCond479) R4 Frame(CFA_Y, -1)
        CFI (cfiCond479) CFA_SP SP+6
        CFI (cfiCond479) CFA_Y Y+88
        CFI Block cfiCond480 Using cfiCommon0
        CFI (cfiCond480) NoFunction
        CFI (cfiCond480) Conditional ??CrossCallReturnLabel_375
        CFI (cfiCond480) R24 Frame(CFA_Y, -5)
        CFI (cfiCond480) R25 Frame(CFA_Y, -4)
        CFI (cfiCond480) R26 Frame(CFA_Y, -3)
        CFI (cfiCond480) R27 Frame(CFA_Y, -2)
        CFI (cfiCond480) R4 Frame(CFA_Y, -1)
        CFI (cfiCond480) CFA_SP SP+6
        CFI (cfiCond480) CFA_Y Y+88
        CFI Block cfiPicker481 Using cfiCommon1
        CFI (cfiPicker481) NoFunction
        CFI (cfiPicker481) Picker
        LDI	R16, 9
        RJMP	?Subroutine166
        CFI EndBlock cfiCond478
        CFI EndBlock cfiCond479
        CFI EndBlock cfiCond480
        CFI EndBlock cfiPicker481

        RSEG FARCODE:CODE:NOROOT(1)
?Subroutine114:
        CFI Block cfiCond482 Using cfiCommon0
        CFI NoFunction
        CFI Conditional ??CrossCallReturnLabel_509
        CFI R24 Frame(CFA_Y, -5)
        CFI R25 Frame(CFA_Y, -4)
        CFI R26 Frame(CFA_Y, -3)
        CFI R27 Frame(CFA_Y, -2)
        CFI R4 Frame(CFA_Y, -1)
        CFI CFA_SP SP+6
        CFI CFA_Y Y+88
        CFI Block cfiCond483 Using cfiCommon0
        CFI (cfiCond483) NoFunction
        CFI (cfiCond483) Conditional ??CrossCallReturnLabel_508
        CFI (cfiCond483) R24 Frame(CFA_Y, -5)
        CFI (cfiCond483) R25 Frame(CFA_Y, -4)
        CFI (cfiCond483) R26 Frame(CFA_Y, -3)
        CFI (cfiCond483) R27 Frame(CFA_Y, -2)
        CFI (cfiCond483) R4 Frame(CFA_Y, -1)
        CFI (cfiCond483) CFA_SP SP+6
        CFI (cfiCond483) CFA_Y Y+88
        CFI Block cfiPicker484 Using cfiCommon1
        CFI (cfiPicker484) NoFunction
        CFI (cfiPicker484) Picker
        LDI	R16, 58
        RJMP	??Subroutine167_0
        CFI EndBlock cfiCond482
        CFI EndBlock cfiCond483
        CFI EndBlock cfiPicker484

        RSEG FARCODE:CODE:NOROOT(1)
?Subroutine110:
        CFI Block cfiCond485 Using cfiCommon0
        CFI NoFunction
        CFI Conditional ??CrossCallReturnLabel_134
        CFI R24 Frame(CFA_Y, -4)
        CFI R25 Frame(CFA_Y, -3)
        CFI R26 Frame(CFA_Y, -2)
        CFI R27 Frame(CFA_Y, -1)
        CFI CFA_SP SP+6
        CFI CFA_Y Y+4
        CFI Block cfiCond486 Using cfiCommon0
        CFI (cfiCond486) NoFunction
        CFI (cfiCond486) Conditional ??CrossCallReturnLabel_135
        CFI (cfiCond486) R24 Frame(CFA_Y, -5)
        CFI (cfiCond486) R25 Frame(CFA_Y, -4)
        CFI (cfiCond486) R26 Frame(CFA_Y, -3)
        CFI (cfiCond486) R27 Frame(CFA_Y, -2)
        CFI (cfiCond486) R4 Frame(CFA_Y, -1)
        CFI (cfiCond486) CFA_SP SP+6
        CFI (cfiCond486) CFA_Y Y+88
        CFI Block cfiCond487 Using cfiCommon0
        CFI (cfiCond487) NoFunction
        CFI (cfiCond487) Conditional ??CrossCallReturnLabel_136
        CFI (cfiCond487) R24 Frame(CFA_Y, -9)
        CFI (cfiCond487) R25 Frame(CFA_Y, -8)
        CFI (cfiCond487) R26 Frame(CFA_Y, -7)
        CFI (cfiCond487) R27 Frame(CFA_Y, -6)
        CFI (cfiCond487) R4 Frame(CFA_Y, -5)
        CFI (cfiCond487) R5 Frame(CFA_Y, -4)
        CFI (cfiCond487) R6 Frame(CFA_Y, -3)
        CFI (cfiCond487) R7 Frame(CFA_Y, -2)
        CFI (cfiCond487) R8 Frame(CFA_Y, -1)
        CFI (cfiCond487) CFA_SP SP+6
        CFI (cfiCond487) CFA_Y Y+83
        CFI Block cfiCond488 Using cfiCommon0
        CFI (cfiCond488) NoFunction
        CFI (cfiCond488) Conditional ??CrossCallReturnLabel_137
        CFI (cfiCond488) R24 Frame(CFA_Y, -4)
        CFI (cfiCond488) R25 Frame(CFA_Y, -3)
        CFI (cfiCond488) R26 Frame(CFA_Y, -2)
        CFI (cfiCond488) R27 Frame(CFA_Y, -1)
        CFI (cfiCond488) CFA_SP SP+6
        CFI (cfiCond488) CFA_Y Y+4
        CFI Block cfiPicker489 Using cfiCommon1
        CFI (cfiPicker489) NoFunction
        CFI (cfiPicker489) Picker
        LDI	R16, 48
        LDI	R17, 117
        RET
        CFI EndBlock cfiCond485
        CFI EndBlock cfiCond486
        CFI EndBlock cfiCond487
        CFI EndBlock cfiCond488
        CFI EndBlock cfiPicker489

        RSEG FARCODE:CODE:NOROOT(1)
?Subroutine107:
        CFI Block cfiCond490 Using cfiCommon0
        CFI NoFunction
        CFI Conditional ??CrossCallReturnLabel_128
        CFI R24 Frame(CFA_Y, -9)
        CFI R25 Frame(CFA_Y, -8)
        CFI R26 Frame(CFA_Y, -7)
        CFI R27 Frame(CFA_Y, -6)
        CFI R4 Frame(CFA_Y, -5)
        CFI R5 Frame(CFA_Y, -4)
        CFI R6 Frame(CFA_Y, -3)
        CFI R7 Frame(CFA_Y, -2)
        CFI R8 Frame(CFA_Y, -1)
        CFI CFA_SP SP+6
        CFI CFA_Y Y+83
        CFI Block cfiCond491 Using cfiCommon0
        CFI (cfiCond491) NoFunction
        CFI (cfiCond491) Conditional ??CrossCallReturnLabel_129
        CFI (cfiCond491) R24 Frame(CFA_Y, -9)
        CFI (cfiCond491) R25 Frame(CFA_Y, -8)
        CFI (cfiCond491) R26 Frame(CFA_Y, -7)
        CFI (cfiCond491) R27 Frame(CFA_Y, -6)
        CFI (cfiCond491) R4 Frame(CFA_Y, -5)
        CFI (cfiCond491) R5 Frame(CFA_Y, -4)
        CFI (cfiCond491) R6 Frame(CFA_Y, -3)
        CFI (cfiCond491) R7 Frame(CFA_Y, -2)
        CFI (cfiCond491) R8 Frame(CFA_Y, -1)
        CFI (cfiCond491) CFA_SP SP+6
        CFI (cfiCond491) CFA_Y Y+83
        CFI Block cfiPicker492 Using cfiCommon1
        CFI (cfiPicker492) NoFunction
        CFI (cfiPicker492) Picker
        CALL	burst_ds_r
        LDI	R30, LOW(real_time)
        LDI	R31, (real_time) >> 8
        RET
        CFI EndBlock cfiCond490
        CFI EndBlock cfiCond491
        CFI EndBlock cfiPicker492

        RSEG FARCODE:CODE:NOROOT(1)
?Subroutine98:
        CFI Block cfiCond493 Using cfiCommon0
        CFI NoFunction
        CFI Conditional ??CrossCallReturnLabel_281
        CFI R24 Frame(CFA_Y, -9)
        CFI R25 Frame(CFA_Y, -8)
        CFI R26 Frame(CFA_Y, -7)
        CFI R27 Frame(CFA_Y, -6)
        CFI R4 Frame(CFA_Y, -5)
        CFI R5 Frame(CFA_Y, -4)
        CFI R6 Frame(CFA_Y, -3)
        CFI R7 Frame(CFA_Y, -2)
        CFI R8 Frame(CFA_Y, -1)
        CFI CFA_SP SP+6
        CFI CFA_Y Y+83
        CFI Block cfiCond494 Using cfiCommon0
        CFI (cfiCond494) NoFunction
        CFI (cfiCond494) Conditional ??CrossCallReturnLabel_282
        CFI (cfiCond494) R24 Frame(CFA_Y, -9)
        CFI (cfiCond494) R25 Frame(CFA_Y, -8)
        CFI (cfiCond494) R26 Frame(CFA_Y, -7)
        CFI (cfiCond494) R27 Frame(CFA_Y, -6)
        CFI (cfiCond494) R4 Frame(CFA_Y, -5)
        CFI (cfiCond494) R5 Frame(CFA_Y, -4)
        CFI (cfiCond494) R6 Frame(CFA_Y, -3)
        CFI (cfiCond494) R7 Frame(CFA_Y, -2)
        CFI (cfiCond494) R8 Frame(CFA_Y, -1)
        CFI (cfiCond494) CFA_SP SP+6
        CFI (cfiCond494) CFA_Y Y+83
        CFI Block cfiPicker495 Using cfiCommon1
        CFI (cfiPicker495) NoFunction
        CFI (cfiPicker495) Picker
        LDI	R17, 1
        CFI EndBlock cfiCond493
        CFI EndBlock cfiCond494
        CFI EndBlock cfiPicker495
        REQUIRE ?Subroutine151
        ;		// Fall through to label ?Subroutine151

        RSEG FARCODE:CODE:NOROOT(1)
?Subroutine151:
        CFI Block cfiCond496 Using cfiCommon0
        CFI NoFunction
        CFI Conditional ??CrossCallReturnLabel_281
        CFI R24 Frame(CFA_Y, -9)
        CFI R25 Frame(CFA_Y, -8)
        CFI R26 Frame(CFA_Y, -7)
        CFI R27 Frame(CFA_Y, -6)
        CFI R4 Frame(CFA_Y, -5)
        CFI R5 Frame(CFA_Y, -4)
        CFI R6 Frame(CFA_Y, -3)
        CFI R7 Frame(CFA_Y, -2)
        CFI R8 Frame(CFA_Y, -1)
        CFI CFA_SP SP+6
        CFI CFA_Y Y+83
        CFI Block cfiCond497 Using cfiCommon0
        CFI (cfiCond497) NoFunction
        CFI (cfiCond497) Conditional ??CrossCallReturnLabel_282
        CFI (cfiCond497) R24 Frame(CFA_Y, -9)
        CFI (cfiCond497) R25 Frame(CFA_Y, -8)
        CFI (cfiCond497) R26 Frame(CFA_Y, -7)
        CFI (cfiCond497) R27 Frame(CFA_Y, -6)
        CFI (cfiCond497) R4 Frame(CFA_Y, -5)
        CFI (cfiCond497) R5 Frame(CFA_Y, -4)
        CFI (cfiCond497) R6 Frame(CFA_Y, -3)
        CFI (cfiCond497) R7 Frame(CFA_Y, -2)
        CFI (cfiCond497) R8 Frame(CFA_Y, -1)
        CFI (cfiCond497) CFA_SP SP+6
        CFI (cfiCond497) CFA_Y Y+83
        CFI Block cfiCond498 Using cfiCommon0
        CFI (cfiCond498) NoFunction
        CFI (cfiCond498) Conditional ??CrossCallReturnLabel_279
        CFI (cfiCond498) R24 Frame(CFA_Y, -9)
        CFI (cfiCond498) R25 Frame(CFA_Y, -8)
        CFI (cfiCond498) R26 Frame(CFA_Y, -7)
        CFI (cfiCond498) R27 Frame(CFA_Y, -6)
        CFI (cfiCond498) R4 Frame(CFA_Y, -5)
        CFI (cfiCond498) R5 Frame(CFA_Y, -4)
        CFI (cfiCond498) R6 Frame(CFA_Y, -3)
        CFI (cfiCond498) R7 Frame(CFA_Y, -2)
        CFI (cfiCond498) R8 Frame(CFA_Y, -1)
        CFI (cfiCond498) CFA_SP SP+6
        CFI (cfiCond498) CFA_Y Y+83
        CFI Block cfiCond499 Using cfiCommon0
        CFI (cfiCond499) NoFunction
        CFI (cfiCond499) Conditional ??CrossCallReturnLabel_280
        CFI (cfiCond499) R24 Frame(CFA_Y, -9)
        CFI (cfiCond499) R25 Frame(CFA_Y, -8)
        CFI (cfiCond499) R26 Frame(CFA_Y, -7)
        CFI (cfiCond499) R27 Frame(CFA_Y, -6)
        CFI (cfiCond499) R4 Frame(CFA_Y, -5)
        CFI (cfiCond499) R5 Frame(CFA_Y, -4)
        CFI (cfiCond499) R6 Frame(CFA_Y, -3)
        CFI (cfiCond499) R7 Frame(CFA_Y, -2)
        CFI (cfiCond499) R8 Frame(CFA_Y, -1)
        CFI (cfiCond499) CFA_SP SP+6
        CFI (cfiCond499) CFA_Y Y+83
        CFI Block cfiPicker500 Using cfiCommon1
        CFI (cfiPicker500) NoFunction
        CFI (cfiPicker500) Picker
        CALL	RdFromFleshToArr
        LDD	R16, Y+4
        TST	R16
        RET
        CFI EndBlock cfiCond496
        CFI EndBlock cfiCond497
        CFI EndBlock cfiCond498
        CFI EndBlock cfiCond499
        CFI EndBlock cfiPicker500

        RSEG FARCODE:CODE:NOROOT(1)
?Subroutine96:
        CFI Block cfiCond501 Using cfiCommon0
        CFI NoFunction
        CFI Conditional ??CrossCallReturnLabel_118
        CFI R24 Frame(CFA_Y, -9)
        CFI R25 Frame(CFA_Y, -8)
        CFI R26 Frame(CFA_Y, -7)
        CFI R27 Frame(CFA_Y, -6)
        CFI R4 Frame(CFA_Y, -5)
        CFI R5 Frame(CFA_Y, -4)
        CFI R6 Frame(CFA_Y, -3)
        CFI R7 Frame(CFA_Y, -2)
        CFI R8 Frame(CFA_Y, -1)
        CFI CFA_SP SP+6
        CFI CFA_Y Y+83
        CFI Block cfiCond502 Using cfiCommon0
        CFI (cfiCond502) NoFunction
        CFI (cfiCond502) Conditional ??CrossCallReturnLabel_119
        CFI (cfiCond502) R24 Frame(CFA_Y, -9)
        CFI (cfiCond502) R25 Frame(CFA_Y, -8)
        CFI (cfiCond502) R26 Frame(CFA_Y, -7)
        CFI (cfiCond502) R27 Frame(CFA_Y, -6)
        CFI (cfiCond502) R4 Frame(CFA_Y, -5)
        CFI (cfiCond502) R5 Frame(CFA_Y, -4)
        CFI (cfiCond502) R6 Frame(CFA_Y, -3)
        CFI (cfiCond502) R7 Frame(CFA_Y, -2)
        CFI (cfiCond502) R8 Frame(CFA_Y, -1)
        CFI (cfiCond502) CFA_SP SP+6
        CFI (cfiCond502) CFA_Y Y+83
        CFI Block cfiCond503 Using cfiCommon0
        CFI (cfiCond503) NoFunction
        CFI (cfiCond503) Conditional ??CrossCallReturnLabel_120
        CFI (cfiCond503) R24 Frame(CFA_Y, -9)
        CFI (cfiCond503) R25 Frame(CFA_Y, -8)
        CFI (cfiCond503) R26 Frame(CFA_Y, -7)
        CFI (cfiCond503) R27 Frame(CFA_Y, -6)
        CFI (cfiCond503) R4 Frame(CFA_Y, -5)
        CFI (cfiCond503) R5 Frame(CFA_Y, -4)
        CFI (cfiCond503) R6 Frame(CFA_Y, -3)
        CFI (cfiCond503) R7 Frame(CFA_Y, -2)
        CFI (cfiCond503) R8 Frame(CFA_Y, -1)
        CFI (cfiCond503) CFA_SP SP+6
        CFI (cfiCond503) CFA_Y Y+83
        CFI Block cfiCond504 Using cfiCommon0
        CFI (cfiCond504) NoFunction
        CFI (cfiCond504) Conditional ??CrossCallReturnLabel_121
        CFI (cfiCond504) R24 Frame(CFA_Y, -9)
        CFI (cfiCond504) R25 Frame(CFA_Y, -8)
        CFI (cfiCond504) R26 Frame(CFA_Y, -7)
        CFI (cfiCond504) R27 Frame(CFA_Y, -6)
        CFI (cfiCond504) R4 Frame(CFA_Y, -5)
        CFI (cfiCond504) R5 Frame(CFA_Y, -4)
        CFI (cfiCond504) R6 Frame(CFA_Y, -3)
        CFI (cfiCond504) R7 Frame(CFA_Y, -2)
        CFI (cfiCond504) R8 Frame(CFA_Y, -1)
        CFI (cfiCond504) CFA_SP SP+6
        CFI (cfiCond504) CFA_Y Y+83
        CFI Block cfiCond505 Using cfiCommon0
        CFI (cfiCond505) NoFunction
        CFI (cfiCond505) Conditional ??CrossCallReturnLabel_122
        CFI (cfiCond505) R24 Frame(CFA_Y, -9)
        CFI (cfiCond505) R25 Frame(CFA_Y, -8)
        CFI (cfiCond505) R26 Frame(CFA_Y, -7)
        CFI (cfiCond505) R27 Frame(CFA_Y, -6)
        CFI (cfiCond505) R4 Frame(CFA_Y, -5)
        CFI (cfiCond505) R5 Frame(CFA_Y, -4)
        CFI (cfiCond505) R6 Frame(CFA_Y, -3)
        CFI (cfiCond505) R7 Frame(CFA_Y, -2)
        CFI (cfiCond505) R8 Frame(CFA_Y, -1)
        CFI (cfiCond505) CFA_SP SP+6
        CFI (cfiCond505) CFA_Y Y+83
        CFI Block cfiCond506 Using cfiCommon0
        CFI (cfiCond506) NoFunction
        CFI (cfiCond506) Conditional ??CrossCallReturnLabel_123
        CFI (cfiCond506) R24 Frame(CFA_Y, -9)
        CFI (cfiCond506) R25 Frame(CFA_Y, -8)
        CFI (cfiCond506) R26 Frame(CFA_Y, -7)
        CFI (cfiCond506) R27 Frame(CFA_Y, -6)
        CFI (cfiCond506) R4 Frame(CFA_Y, -5)
        CFI (cfiCond506) R5 Frame(CFA_Y, -4)
        CFI (cfiCond506) R6 Frame(CFA_Y, -3)
        CFI (cfiCond506) R7 Frame(CFA_Y, -2)
        CFI (cfiCond506) R8 Frame(CFA_Y, -1)
        CFI (cfiCond506) CFA_SP SP+6
        CFI (cfiCond506) CFA_Y Y+83
        CFI Block cfiPicker507 Using cfiCommon1
        CFI (cfiPicker507) NoFunction
        CFI (cfiPicker507) Picker
        MOVW	R17:R16, R27:R26
        CALL	atol
        ST	Y, R16
        STD	Y+1, R17
        STD	Y+2, R18
        STD	Y+3, R19
        RET
        CFI EndBlock cfiCond501
        CFI EndBlock cfiCond502
        CFI EndBlock cfiCond503
        CFI EndBlock cfiCond504
        CFI EndBlock cfiCond505
        CFI EndBlock cfiCond506
        CFI EndBlock cfiPicker507

        RSEG FARCODE:CODE:NOROOT(1)
?Subroutine95:
        CFI Block cfiCond508 Using cfiCommon0
        CFI NoFunction
        CFI Conditional ??CrossCallReturnLabel_442
        CFI R24 Frame(CFA_Y, -9)
        CFI R25 Frame(CFA_Y, -8)
        CFI R26 Frame(CFA_Y, -7)
        CFI R27 Frame(CFA_Y, -6)
        CFI R4 Frame(CFA_Y, -5)
        CFI R5 Frame(CFA_Y, -4)
        CFI R6 Frame(CFA_Y, -3)
        CFI R7 Frame(CFA_Y, -2)
        CFI R8 Frame(CFA_Y, -1)
        CFI CFA_SP SP+6
        CFI CFA_Y Y+83
        CFI Block cfiCond509 Using cfiCommon0
        CFI (cfiCond509) NoFunction
        CFI (cfiCond509) Conditional ??CrossCallReturnLabel_443
        CFI (cfiCond509) R24 Frame(CFA_Y, -9)
        CFI (cfiCond509) R25 Frame(CFA_Y, -8)
        CFI (cfiCond509) R26 Frame(CFA_Y, -7)
        CFI (cfiCond509) R27 Frame(CFA_Y, -6)
        CFI (cfiCond509) R4 Frame(CFA_Y, -5)
        CFI (cfiCond509) R5 Frame(CFA_Y, -4)
        CFI (cfiCond509) R6 Frame(CFA_Y, -3)
        CFI (cfiCond509) R7 Frame(CFA_Y, -2)
        CFI (cfiCond509) R8 Frame(CFA_Y, -1)
        CFI (cfiCond509) CFA_SP SP+6
        CFI (cfiCond509) CFA_Y Y+83
        CFI Block cfiPicker510 Using cfiCommon1
        CFI (cfiPicker510) NoFunction
        CFI (cfiPicker510) Picker
        SBCI	R17, 255
        CALL	atol
        ST	Y, R16
        STD	Y+1, R17
        STD	Y+2, R18
        STD	Y+3, R19
        CPI	R16, 60
        RJMP	?Subroutine172
        CFI EndBlock cfiCond508
        CFI EndBlock cfiCond509
        CFI EndBlock cfiPicker510

        RSEG FARCODE:CODE:NOROOT(1)
?Subroutine94:
        CFI Block cfiCond511 Using cfiCommon0
        CFI NoFunction
        CFI Conditional ??CrossCallReturnLabel_444
        CFI R24 Frame(CFA_Y, -9)
        CFI R25 Frame(CFA_Y, -8)
        CFI R26 Frame(CFA_Y, -7)
        CFI R27 Frame(CFA_Y, -6)
        CFI R4 Frame(CFA_Y, -5)
        CFI R5 Frame(CFA_Y, -4)
        CFI R6 Frame(CFA_Y, -3)
        CFI R7 Frame(CFA_Y, -2)
        CFI R8 Frame(CFA_Y, -1)
        CFI CFA_SP SP+6
        CFI CFA_Y Y+83
        CFI Block cfiCond512 Using cfiCommon0
        CFI (cfiCond512) NoFunction
        CFI (cfiCond512) Conditional ??CrossCallReturnLabel_445
        CFI (cfiCond512) R24 Frame(CFA_Y, -9)
        CFI (cfiCond512) R25 Frame(CFA_Y, -8)
        CFI (cfiCond512) R26 Frame(CFA_Y, -7)
        CFI (cfiCond512) R27 Frame(CFA_Y, -6)
        CFI (cfiCond512) R4 Frame(CFA_Y, -5)
        CFI (cfiCond512) R5 Frame(CFA_Y, -4)
        CFI (cfiCond512) R6 Frame(CFA_Y, -3)
        CFI (cfiCond512) R7 Frame(CFA_Y, -2)
        CFI (cfiCond512) R8 Frame(CFA_Y, -1)
        CFI (cfiCond512) CFA_SP SP+6
        CFI (cfiCond512) CFA_Y Y+83
        CFI Block cfiPicker513 Using cfiCommon1
        CFI (cfiPicker513) NoFunction
        CFI (cfiPicker513) Picker
        MOVW	R17:R16, R27:R26
        CALL	atol
        ST	Y, R16
        STD	Y+1, R17
        STD	Y+2, R18
        STD	Y+3, R19
        RJMP	?Subroutine149
        CFI EndBlock cfiCond511
        CFI EndBlock cfiCond512
        CFI EndBlock cfiPicker513

        RSEG FARCODE:CODE:NOROOT(1)
?Subroutine93:
        CFI Block cfiCond514 Using cfiCommon0
        CFI NoFunction
        CFI Conditional ??CrossCallReturnLabel_277
        CFI R24 Frame(CFA_Y, -9)
        CFI R25 Frame(CFA_Y, -8)
        CFI R26 Frame(CFA_Y, -7)
        CFI R27 Frame(CFA_Y, -6)
        CFI R4 Frame(CFA_Y, -5)
        CFI R5 Frame(CFA_Y, -4)
        CFI R6 Frame(CFA_Y, -3)
        CFI R7 Frame(CFA_Y, -2)
        CFI R8 Frame(CFA_Y, -1)
        CFI CFA_SP SP+6
        CFI CFA_Y Y+83
        CFI Block cfiCond515 Using cfiCommon0
        CFI (cfiCond515) NoFunction
        CFI (cfiCond515) Conditional ??CrossCallReturnLabel_278
        CFI (cfiCond515) R24 Frame(CFA_Y, -9)
        CFI (cfiCond515) R25 Frame(CFA_Y, -8)
        CFI (cfiCond515) R26 Frame(CFA_Y, -7)
        CFI (cfiCond515) R27 Frame(CFA_Y, -6)
        CFI (cfiCond515) R4 Frame(CFA_Y, -5)
        CFI (cfiCond515) R5 Frame(CFA_Y, -4)
        CFI (cfiCond515) R6 Frame(CFA_Y, -3)
        CFI (cfiCond515) R7 Frame(CFA_Y, -2)
        CFI (cfiCond515) R8 Frame(CFA_Y, -1)
        CFI (cfiCond515) CFA_SP SP+6
        CFI (cfiCond515) CFA_Y Y+83
        CFI Block cfiPicker516 Using cfiCommon1
        CFI (cfiPicker516) NoFunction
        CFI (cfiPicker516) Picker
        MOVW	R17:R16, R27:R26
        CALL	atol
        ST	Y, R16
        STD	Y+1, R17
        STD	Y+2, R18
        STD	Y+3, R19
        CPI	R16, 5
        CFI EndBlock cfiCond514
        CFI EndBlock cfiCond515
        CFI EndBlock cfiPicker516
        REQUIRE ?Subroutine150
        ;		// Fall through to label ?Subroutine150

        RSEG FARCODE:CODE:NOROOT(1)
?Subroutine150:
        CFI Block cfiCond517 Using cfiCommon0
        CFI NoFunction
        CFI Conditional ??CrossCallReturnLabel_277
        CFI R24 Frame(CFA_Y, -9)
        CFI R25 Frame(CFA_Y, -8)
        CFI R26 Frame(CFA_Y, -7)
        CFI R27 Frame(CFA_Y, -6)
        CFI R4 Frame(CFA_Y, -5)
        CFI R5 Frame(CFA_Y, -4)
        CFI R6 Frame(CFA_Y, -3)
        CFI R7 Frame(CFA_Y, -2)
        CFI R8 Frame(CFA_Y, -1)
        CFI CFA_SP SP+6
        CFI CFA_Y Y+83
        CFI Block cfiCond518 Using cfiCommon0
        CFI (cfiCond518) NoFunction
        CFI (cfiCond518) Conditional ??CrossCallReturnLabel_278
        CFI (cfiCond518) R24 Frame(CFA_Y, -9)
        CFI (cfiCond518) R25 Frame(CFA_Y, -8)
        CFI (cfiCond518) R26 Frame(CFA_Y, -7)
        CFI (cfiCond518) R27 Frame(CFA_Y, -6)
        CFI (cfiCond518) R4 Frame(CFA_Y, -5)
        CFI (cfiCond518) R5 Frame(CFA_Y, -4)
        CFI (cfiCond518) R6 Frame(CFA_Y, -3)
        CFI (cfiCond518) R7 Frame(CFA_Y, -2)
        CFI (cfiCond518) R8 Frame(CFA_Y, -1)
        CFI (cfiCond518) CFA_SP SP+6
        CFI (cfiCond518) CFA_Y Y+83
        CFI Block cfiCond519 Using cfiCommon0
        CFI (cfiCond519) NoFunction
        CFI (cfiCond519) Conditional ??CrossCallReturnLabel_275
        CFI (cfiCond519) R24 Frame(CFA_Y, -9)
        CFI (cfiCond519) R25 Frame(CFA_Y, -8)
        CFI (cfiCond519) R26 Frame(CFA_Y, -7)
        CFI (cfiCond519) R27 Frame(CFA_Y, -6)
        CFI (cfiCond519) R4 Frame(CFA_Y, -5)
        CFI (cfiCond519) R5 Frame(CFA_Y, -4)
        CFI (cfiCond519) R6 Frame(CFA_Y, -3)
        CFI (cfiCond519) R7 Frame(CFA_Y, -2)
        CFI (cfiCond519) R8 Frame(CFA_Y, -1)
        CFI (cfiCond519) CFA_SP SP+6
        CFI (cfiCond519) CFA_Y Y+83
        CFI Block cfiCond520 Using cfiCommon0
        CFI (cfiCond520) NoFunction
        CFI (cfiCond520) Conditional ??CrossCallReturnLabel_276
        CFI (cfiCond520) R24 Frame(CFA_Y, -9)
        CFI (cfiCond520) R25 Frame(CFA_Y, -8)
        CFI (cfiCond520) R26 Frame(CFA_Y, -7)
        CFI (cfiCond520) R27 Frame(CFA_Y, -6)
        CFI (cfiCond520) R4 Frame(CFA_Y, -5)
        CFI (cfiCond520) R5 Frame(CFA_Y, -4)
        CFI (cfiCond520) R6 Frame(CFA_Y, -3)
        CFI (cfiCond520) R7 Frame(CFA_Y, -2)
        CFI (cfiCond520) R8 Frame(CFA_Y, -1)
        CFI (cfiCond520) CFA_SP SP+6
        CFI (cfiCond520) CFA_Y Y+83
        CFI Block cfiCond521 Using cfiCommon0
        CFI (cfiCond521) NoFunction
        CFI (cfiCond521) Conditional ??CrossCallReturnLabel_272
        CFI (cfiCond521) R24 Frame(CFA_Y, -9)
        CFI (cfiCond521) R25 Frame(CFA_Y, -8)
        CFI (cfiCond521) R26 Frame(CFA_Y, -7)
        CFI (cfiCond521) R27 Frame(CFA_Y, -6)
        CFI (cfiCond521) R4 Frame(CFA_Y, -5)
        CFI (cfiCond521) R5 Frame(CFA_Y, -4)
        CFI (cfiCond521) R6 Frame(CFA_Y, -3)
        CFI (cfiCond521) R7 Frame(CFA_Y, -2)
        CFI (cfiCond521) R8 Frame(CFA_Y, -1)
        CFI (cfiCond521) CFA_SP SP+6
        CFI (cfiCond521) CFA_Y Y+83
        CFI Block cfiCond522 Using cfiCommon0
        CFI (cfiCond522) NoFunction
        CFI (cfiCond522) Conditional ??CrossCallReturnLabel_273
        CFI (cfiCond522) R24 Frame(CFA_Y, -9)
        CFI (cfiCond522) R25 Frame(CFA_Y, -8)
        CFI (cfiCond522) R26 Frame(CFA_Y, -7)
        CFI (cfiCond522) R27 Frame(CFA_Y, -6)
        CFI (cfiCond522) R4 Frame(CFA_Y, -5)
        CFI (cfiCond522) R5 Frame(CFA_Y, -4)
        CFI (cfiCond522) R6 Frame(CFA_Y, -3)
        CFI (cfiCond522) R7 Frame(CFA_Y, -2)
        CFI (cfiCond522) R8 Frame(CFA_Y, -1)
        CFI (cfiCond522) CFA_SP SP+6
        CFI (cfiCond522) CFA_Y Y+83
        CFI Block cfiCond523 Using cfiCommon0
        CFI (cfiCond523) NoFunction
        CFI (cfiCond523) Conditional ??CrossCallReturnLabel_274
        CFI (cfiCond523) R24 Frame(CFA_Y, -9)
        CFI (cfiCond523) R25 Frame(CFA_Y, -8)
        CFI (cfiCond523) R26 Frame(CFA_Y, -7)
        CFI (cfiCond523) R27 Frame(CFA_Y, -6)
        CFI (cfiCond523) R4 Frame(CFA_Y, -5)
        CFI (cfiCond523) R5 Frame(CFA_Y, -4)
        CFI (cfiCond523) R6 Frame(CFA_Y, -3)
        CFI (cfiCond523) R7 Frame(CFA_Y, -2)
        CFI (cfiCond523) R8 Frame(CFA_Y, -1)
        CFI (cfiCond523) CFA_SP SP+6
        CFI (cfiCond523) CFA_Y Y+83
        CFI Block cfiPicker524 Using cfiCommon1
        CFI (cfiPicker524) NoFunction
        CFI (cfiPicker524) Picker
        LDI	R20, 0
        CPC	R17, R20
        CPC	R18, R20
        CPC	R19, R20
        RET
        CFI EndBlock cfiCond517
        CFI EndBlock cfiCond518
        CFI EndBlock cfiCond519
        CFI EndBlock cfiCond520
        CFI EndBlock cfiCond521
        CFI EndBlock cfiCond522
        CFI EndBlock cfiCond523
        CFI EndBlock cfiPicker524

        RSEG FARCODE:CODE:NOROOT(1)
?Subroutine92:
        CFI Block cfiCond525 Using cfiCommon0
        CFI NoFunction
        CFI Conditional ??CrossCallReturnLabel_275
        CFI R24 Frame(CFA_Y, -9)
        CFI R25 Frame(CFA_Y, -8)
        CFI R26 Frame(CFA_Y, -7)
        CFI R27 Frame(CFA_Y, -6)
        CFI R4 Frame(CFA_Y, -5)
        CFI R5 Frame(CFA_Y, -4)
        CFI R6 Frame(CFA_Y, -3)
        CFI R7 Frame(CFA_Y, -2)
        CFI R8 Frame(CFA_Y, -1)
        CFI CFA_SP SP+6
        CFI CFA_Y Y+83
        CFI Block cfiCond526 Using cfiCommon0
        CFI (cfiCond526) NoFunction
        CFI (cfiCond526) Conditional ??CrossCallReturnLabel_276
        CFI (cfiCond526) R24 Frame(CFA_Y, -9)
        CFI (cfiCond526) R25 Frame(CFA_Y, -8)
        CFI (cfiCond526) R26 Frame(CFA_Y, -7)
        CFI (cfiCond526) R27 Frame(CFA_Y, -6)
        CFI (cfiCond526) R4 Frame(CFA_Y, -5)
        CFI (cfiCond526) R5 Frame(CFA_Y, -4)
        CFI (cfiCond526) R6 Frame(CFA_Y, -3)
        CFI (cfiCond526) R7 Frame(CFA_Y, -2)
        CFI (cfiCond526) R8 Frame(CFA_Y, -1)
        CFI (cfiCond526) CFA_SP SP+6
        CFI (cfiCond526) CFA_Y Y+83
        CFI Block cfiPicker527 Using cfiCommon1
        CFI (cfiPicker527) NoFunction
        CFI (cfiPicker527) Picker
        MOVW	R17:R16, R27:R26
        CALL	atol
        ST	Y, R16
        STD	Y+1, R17
        STD	Y+2, R18
        STD	Y+3, R19
        CPI	R16, 3
        RJMP	?Subroutine150
        CFI EndBlock cfiCond525
        CFI EndBlock cfiCond526
        CFI EndBlock cfiPicker527

        RSEG FARCODE:CODE:NOROOT(1)
?Subroutine90:
        CFI Block cfiCond528 Using cfiCommon0
        CFI NoFunction
        CFI Conditional ??CrossCallReturnLabel_115
        CFI R24 Frame(CFA_Y, -9)
        CFI R25 Frame(CFA_Y, -8)
        CFI R26 Frame(CFA_Y, -7)
        CFI R27 Frame(CFA_Y, -6)
        CFI R4 Frame(CFA_Y, -5)
        CFI R5 Frame(CFA_Y, -4)
        CFI R6 Frame(CFA_Y, -3)
        CFI R7 Frame(CFA_Y, -2)
        CFI R8 Frame(CFA_Y, -1)
        CFI CFA_SP SP+6
        CFI CFA_Y Y+83
        CFI Block cfiCond529 Using cfiCommon0
        CFI (cfiCond529) NoFunction
        CFI (cfiCond529) Conditional ??CrossCallReturnLabel_116
        CFI (cfiCond529) R24 Frame(CFA_Y, -9)
        CFI (cfiCond529) R25 Frame(CFA_Y, -8)
        CFI (cfiCond529) R26 Frame(CFA_Y, -7)
        CFI (cfiCond529) R27 Frame(CFA_Y, -6)
        CFI (cfiCond529) R4 Frame(CFA_Y, -5)
        CFI (cfiCond529) R5 Frame(CFA_Y, -4)
        CFI (cfiCond529) R6 Frame(CFA_Y, -3)
        CFI (cfiCond529) R7 Frame(CFA_Y, -2)
        CFI (cfiCond529) R8 Frame(CFA_Y, -1)
        CFI (cfiCond529) CFA_SP SP+6
        CFI (cfiCond529) CFA_Y Y+83
        CFI Block cfiPicker530 Using cfiCommon1
        CFI (cfiPicker530) NoFunction
        CFI (cfiPicker530) Picker
        MOVW	R17:R16, R27:R26
        CFI Block cfiCond531 Using cfiCommon0
        CFI (cfiCond531) NoFunction
        CFI (cfiCond531) Conditional ??CrossCallReturnLabel_117
        CFI (cfiCond531) R24 Frame(CFA_Y, -9)
        CFI (cfiCond531) R25 Frame(CFA_Y, -8)
        CFI (cfiCond531) R26 Frame(CFA_Y, -7)
        CFI (cfiCond531) R27 Frame(CFA_Y, -6)
        CFI (cfiCond531) R4 Frame(CFA_Y, -5)
        CFI (cfiCond531) R5 Frame(CFA_Y, -4)
        CFI (cfiCond531) R6 Frame(CFA_Y, -3)
        CFI (cfiCond531) R7 Frame(CFA_Y, -2)
        CFI (cfiCond531) R8 Frame(CFA_Y, -1)
        CFI (cfiCond531) CFA_SP SP+6
        CFI (cfiCond531) CFA_Y Y+83
??Subroutine90_0:
        CALL	atol
        ST	Y, R16
        STD	Y+1, R17
        STD	Y+2, R18
        STD	Y+3, R19
        OR	R16, R17
        OR	R16, R18
        OR	R16, R19
        RET
        CFI EndBlock cfiCond528
        CFI EndBlock cfiCond529
        CFI EndBlock cfiPicker530
        CFI EndBlock cfiCond531

        RSEG FARCODE:CODE:NOROOT(1)
?Subroutine89:
        CFI Block cfiCond532 Using cfiCommon0
        CFI NoFunction
        CFI Conditional ??CrossCallReturnLabel_272
        CFI R24 Frame(CFA_Y, -9)
        CFI R25 Frame(CFA_Y, -8)
        CFI R26 Frame(CFA_Y, -7)
        CFI R27 Frame(CFA_Y, -6)
        CFI R4 Frame(CFA_Y, -5)
        CFI R5 Frame(CFA_Y, -4)
        CFI R6 Frame(CFA_Y, -3)
        CFI R7 Frame(CFA_Y, -2)
        CFI R8 Frame(CFA_Y, -1)
        CFI CFA_SP SP+6
        CFI CFA_Y Y+83
        CFI Block cfiCond533 Using cfiCommon0
        CFI (cfiCond533) NoFunction
        CFI (cfiCond533) Conditional ??CrossCallReturnLabel_273
        CFI (cfiCond533) R24 Frame(CFA_Y, -9)
        CFI (cfiCond533) R25 Frame(CFA_Y, -8)
        CFI (cfiCond533) R26 Frame(CFA_Y, -7)
        CFI (cfiCond533) R27 Frame(CFA_Y, -6)
        CFI (cfiCond533) R4 Frame(CFA_Y, -5)
        CFI (cfiCond533) R5 Frame(CFA_Y, -4)
        CFI (cfiCond533) R6 Frame(CFA_Y, -3)
        CFI (cfiCond533) R7 Frame(CFA_Y, -2)
        CFI (cfiCond533) R8 Frame(CFA_Y, -1)
        CFI (cfiCond533) CFA_SP SP+6
        CFI (cfiCond533) CFA_Y Y+83
        CFI Block cfiCond534 Using cfiCommon0
        CFI (cfiCond534) NoFunction
        CFI (cfiCond534) Conditional ??CrossCallReturnLabel_274
        CFI (cfiCond534) R24 Frame(CFA_Y, -9)
        CFI (cfiCond534) R25 Frame(CFA_Y, -8)
        CFI (cfiCond534) R26 Frame(CFA_Y, -7)
        CFI (cfiCond534) R27 Frame(CFA_Y, -6)
        CFI (cfiCond534) R4 Frame(CFA_Y, -5)
        CFI (cfiCond534) R5 Frame(CFA_Y, -4)
        CFI (cfiCond534) R6 Frame(CFA_Y, -3)
        CFI (cfiCond534) R7 Frame(CFA_Y, -2)
        CFI (cfiCond534) R8 Frame(CFA_Y, -1)
        CFI (cfiCond534) CFA_SP SP+6
        CFI (cfiCond534) CFA_Y Y+83
        CFI Block cfiPicker535 Using cfiCommon1
        CFI (cfiPicker535) NoFunction
        CFI (cfiPicker535) Picker
        MOVW	R17:R16, R27:R26
        CALL	atol
        ST	Y, R16
        STD	Y+1, R17
        STD	Y+2, R18
        STD	Y+3, R19
        CPI	R16, 10
        RJMP	?Subroutine150
        CFI EndBlock cfiCond532
        CFI EndBlock cfiCond533
        CFI EndBlock cfiCond534
        CFI EndBlock cfiPicker535

        RSEG FARCODE:CODE:NOROOT(1)
?Subroutine88:
        CFI Block cfiCond536 Using cfiCommon0
        CFI NoFunction
        CFI Conditional ??CrossCallReturnLabel_438
        CFI R24 Frame(CFA_Y, -9)
        CFI R25 Frame(CFA_Y, -8)
        CFI R26 Frame(CFA_Y, -7)
        CFI R27 Frame(CFA_Y, -6)
        CFI R4 Frame(CFA_Y, -5)
        CFI R5 Frame(CFA_Y, -4)
        CFI R6 Frame(CFA_Y, -3)
        CFI R7 Frame(CFA_Y, -2)
        CFI R8 Frame(CFA_Y, -1)
        CFI CFA_SP SP+6
        CFI CFA_Y Y+83
        CFI Block cfiCond537 Using cfiCommon0
        CFI (cfiCond537) NoFunction
        CFI (cfiCond537) Conditional ??CrossCallReturnLabel_439
        CFI (cfiCond537) R24 Frame(CFA_Y, -9)
        CFI (cfiCond537) R25 Frame(CFA_Y, -8)
        CFI (cfiCond537) R26 Frame(CFA_Y, -7)
        CFI (cfiCond537) R27 Frame(CFA_Y, -6)
        CFI (cfiCond537) R4 Frame(CFA_Y, -5)
        CFI (cfiCond537) R5 Frame(CFA_Y, -4)
        CFI (cfiCond537) R6 Frame(CFA_Y, -3)
        CFI (cfiCond537) R7 Frame(CFA_Y, -2)
        CFI (cfiCond537) R8 Frame(CFA_Y, -1)
        CFI (cfiCond537) CFA_SP SP+6
        CFI (cfiCond537) CFA_Y Y+83
        CFI Block cfiPicker538 Using cfiCommon1
        CFI (cfiPicker538) NoFunction
        CFI (cfiPicker538) Picker
        MOVW	R17:R16, R27:R26
        CFI Block cfiCond539 Using cfiCommon0
        CFI (cfiCond539) NoFunction
        CFI (cfiCond539) Conditional ??CrossCallReturnLabel_440
        CFI (cfiCond539) R24 Frame(CFA_Y, -9)
        CFI (cfiCond539) R25 Frame(CFA_Y, -8)
        CFI (cfiCond539) R26 Frame(CFA_Y, -7)
        CFI (cfiCond539) R27 Frame(CFA_Y, -6)
        CFI (cfiCond539) R4 Frame(CFA_Y, -5)
        CFI (cfiCond539) R5 Frame(CFA_Y, -4)
        CFI (cfiCond539) R6 Frame(CFA_Y, -3)
        CFI (cfiCond539) R7 Frame(CFA_Y, -2)
        CFI (cfiCond539) R8 Frame(CFA_Y, -1)
        CFI (cfiCond539) CFA_SP SP+6
        CFI (cfiCond539) CFA_Y Y+83
        CFI Block cfiCond540 Using cfiCommon0
        CFI (cfiCond540) NoFunction
        CFI (cfiCond540) Conditional ??CrossCallReturnLabel_441
        CFI (cfiCond540) R24 Frame(CFA_Y, -9)
        CFI (cfiCond540) R25 Frame(CFA_Y, -8)
        CFI (cfiCond540) R26 Frame(CFA_Y, -7)
        CFI (cfiCond540) R27 Frame(CFA_Y, -6)
        CFI (cfiCond540) R4 Frame(CFA_Y, -5)
        CFI (cfiCond540) R5 Frame(CFA_Y, -4)
        CFI (cfiCond540) R6 Frame(CFA_Y, -3)
        CFI (cfiCond540) R7 Frame(CFA_Y, -2)
        CFI (cfiCond540) R8 Frame(CFA_Y, -1)
        CFI (cfiCond540) CFA_SP SP+6
        CFI (cfiCond540) CFA_Y Y+83
??Subroutine88_0:
        CALL	atol
        ST	Y, R16
        STD	Y+1, R17
        STD	Y+2, R18
        STD	Y+3, R19
        CPI	R16, 0
        SBCI	R17, 1
        RJMP	??Subroutine172_0
        CFI EndBlock cfiCond536
        CFI EndBlock cfiCond537
        CFI EndBlock cfiPicker538
        CFI EndBlock cfiCond539
        CFI EndBlock cfiCond540

        RSEG FARCODE:CODE:NOROOT(1)
?Subroutine87:
        CFI Block cfiCond541 Using cfiCommon0
        CFI NoFunction
        CFI Conditional ??CrossCallReturnLabel_255
        CFI R24 Frame(CFA_Y, -9)
        CFI R25 Frame(CFA_Y, -8)
        CFI R26 Frame(CFA_Y, -7)
        CFI R27 Frame(CFA_Y, -6)
        CFI R4 Frame(CFA_Y, -5)
        CFI R5 Frame(CFA_Y, -4)
        CFI R6 Frame(CFA_Y, -3)
        CFI R7 Frame(CFA_Y, -2)
        CFI R8 Frame(CFA_Y, -1)
        CFI CFA_SP SP+6
        CFI CFA_Y Y+83
        CFI Block cfiCond542 Using cfiCommon0
        CFI (cfiCond542) NoFunction
        CFI (cfiCond542) Conditional ??CrossCallReturnLabel_256
        CFI (cfiCond542) R24 Frame(CFA_Y, -9)
        CFI (cfiCond542) R25 Frame(CFA_Y, -8)
        CFI (cfiCond542) R26 Frame(CFA_Y, -7)
        CFI (cfiCond542) R27 Frame(CFA_Y, -6)
        CFI (cfiCond542) R4 Frame(CFA_Y, -5)
        CFI (cfiCond542) R5 Frame(CFA_Y, -4)
        CFI (cfiCond542) R6 Frame(CFA_Y, -3)
        CFI (cfiCond542) R7 Frame(CFA_Y, -2)
        CFI (cfiCond542) R8 Frame(CFA_Y, -1)
        CFI (cfiCond542) CFA_SP SP+6
        CFI (cfiCond542) CFA_Y Y+83
        CFI Block cfiPicker543 Using cfiCommon1
        CFI (cfiPicker543) NoFunction
        CFI (cfiPicker543) Picker
        LDI	R20, 60
        RJMP	??Subroutine146_1
        CFI EndBlock cfiCond541
        CFI EndBlock cfiCond542
        CFI EndBlock cfiPicker543

        RSEG FARCODE:CODE:NOROOT(1)
?Subroutine169:
        CFI Block cfiCond544 Using cfiCommon0
        CFI NoFunction
        CFI Conditional ??CrossCallReturnLabel_398
        CFI CFA_SP SP+6
        CFI Block cfiCond545 Using cfiCommon0
        CFI (cfiCond545) NoFunction
        CFI (cfiCond545) Conditional ??CrossCallReturnLabel_399
        CFI (cfiCond545) R24 Frame(CFA_Y, -9)
        CFI (cfiCond545) R25 Frame(CFA_Y, -8)
        CFI (cfiCond545) R26 Frame(CFA_Y, -7)
        CFI (cfiCond545) R27 Frame(CFA_Y, -6)
        CFI (cfiCond545) R4 Frame(CFA_Y, -5)
        CFI (cfiCond545) R5 Frame(CFA_Y, -4)
        CFI (cfiCond545) R6 Frame(CFA_Y, -3)
        CFI (cfiCond545) R7 Frame(CFA_Y, -2)
        CFI (cfiCond545) R8 Frame(CFA_Y, -1)
        CFI (cfiCond545) CFA_SP SP+6
        CFI (cfiCond545) CFA_Y Y+83
        CFI Block cfiCond546 Using cfiCommon0
        CFI (cfiCond546) NoFunction
        CFI (cfiCond546) Conditional ??CrossCallReturnLabel_400
        CFI (cfiCond546) CFA_SP SP+6
        CFI Block cfiCond547 Using cfiCommon0
        CFI (cfiCond547) NoFunction
        CFI (cfiCond547) Conditional ??CrossCallReturnLabel_401
        CFI (cfiCond547) R24 Frame(CFA_Y, -9)
        CFI (cfiCond547) R25 Frame(CFA_Y, -8)
        CFI (cfiCond547) R26 Frame(CFA_Y, -7)
        CFI (cfiCond547) R27 Frame(CFA_Y, -6)
        CFI (cfiCond547) R4 Frame(CFA_Y, -5)
        CFI (cfiCond547) R5 Frame(CFA_Y, -4)
        CFI (cfiCond547) R6 Frame(CFA_Y, -3)
        CFI (cfiCond547) R7 Frame(CFA_Y, -2)
        CFI (cfiCond547) R8 Frame(CFA_Y, -1)
        CFI (cfiCond547) CFA_SP SP+6
        CFI (cfiCond547) CFA_Y Y+83
        CFI Block cfiPicker548 Using cfiCommon1
        CFI (cfiPicker548) NoFunction
        CFI (cfiPicker548) Picker
        LDI	R21, 0
        JMP	__eeput8_16
        CFI EndBlock cfiCond544
        CFI EndBlock cfiCond545
        CFI EndBlock cfiCond546
        CFI EndBlock cfiCond547
        CFI EndBlock cfiPicker548

        RSEG FARCODE:CODE:NOROOT(1)
?Subroutine83:
        CFI Block cfiCond549 Using cfiCommon0
        CFI NoFunction
        CFI Conditional ??CrossCallReturnLabel_99
        CFI R24 Frame(CFA_Y, -9)
        CFI R25 Frame(CFA_Y, -8)
        CFI R26 Frame(CFA_Y, -7)
        CFI R27 Frame(CFA_Y, -6)
        CFI R4 Frame(CFA_Y, -5)
        CFI R5 Frame(CFA_Y, -4)
        CFI R6 Frame(CFA_Y, -3)
        CFI R7 Frame(CFA_Y, -2)
        CFI R8 Frame(CFA_Y, -1)
        CFI CFA_SP SP+6
        CFI CFA_Y Y+83
        CFI Block cfiCond550 Using cfiCommon0
        CFI (cfiCond550) NoFunction
        CFI (cfiCond550) Conditional ??CrossCallReturnLabel_100
        CFI (cfiCond550) R24 Frame(CFA_Y, -9)
        CFI (cfiCond550) R25 Frame(CFA_Y, -8)
        CFI (cfiCond550) R26 Frame(CFA_Y, -7)
        CFI (cfiCond550) R27 Frame(CFA_Y, -6)
        CFI (cfiCond550) R4 Frame(CFA_Y, -5)
        CFI (cfiCond550) R5 Frame(CFA_Y, -4)
        CFI (cfiCond550) R6 Frame(CFA_Y, -3)
        CFI (cfiCond550) R7 Frame(CFA_Y, -2)
        CFI (cfiCond550) R8 Frame(CFA_Y, -1)
        CFI (cfiCond550) CFA_SP SP+6
        CFI (cfiCond550) CFA_Y Y+83
        CFI Block cfiPicker551 Using cfiCommon1
        CFI (cfiPicker551) NoFunction
        CFI (cfiPicker551) Picker
        LDI	R20, 14
        LDI	R21, 0
        MOVW	R19:R18, R29:R28
        SUBI	R18, 252
        SBCI	R19, 255
        LDI	R16, 150
        RET
        CFI EndBlock cfiCond549
        CFI EndBlock cfiCond550
        CFI EndBlock cfiPicker551

        RSEG FARCODE:CODE:NOROOT(1)
?Subroutine82:
        CFI Block cfiCond552 Using cfiCommon0
        CFI NoFunction
        CFI Conditional ??CrossCallReturnLabel_327
        CFI R24 Frame(CFA_Y, -9)
        CFI R25 Frame(CFA_Y, -8)
        CFI R26 Frame(CFA_Y, -7)
        CFI R27 Frame(CFA_Y, -6)
        CFI R4 Frame(CFA_Y, -5)
        CFI R5 Frame(CFA_Y, -4)
        CFI R6 Frame(CFA_Y, -3)
        CFI R7 Frame(CFA_Y, -2)
        CFI R8 Frame(CFA_Y, -1)
        CFI CFA_SP SP+6
        CFI CFA_Y Y+83
        CFI Block cfiCond553 Using cfiCommon0
        CFI (cfiCond553) NoFunction
        CFI (cfiCond553) Conditional ??CrossCallReturnLabel_328
        CFI (cfiCond553) R24 Frame(CFA_Y, -9)
        CFI (cfiCond553) R25 Frame(CFA_Y, -8)
        CFI (cfiCond553) R26 Frame(CFA_Y, -7)
        CFI (cfiCond553) R27 Frame(CFA_Y, -6)
        CFI (cfiCond553) R4 Frame(CFA_Y, -5)
        CFI (cfiCond553) R5 Frame(CFA_Y, -4)
        CFI (cfiCond553) R6 Frame(CFA_Y, -3)
        CFI (cfiCond553) R7 Frame(CFA_Y, -2)
        CFI (cfiCond553) R8 Frame(CFA_Y, -1)
        CFI (cfiCond553) CFA_SP SP+6
        CFI (cfiCond553) CFA_Y Y+83
        CFI Block cfiPicker554 Using cfiCommon1
        CFI (cfiPicker554) NoFunction
        CFI (cfiPicker554) Picker
        LDI	R20, 10
        LDI	R21, 0
        MOVW	R19:R18, R29:R28
        SUBI	R18, 252
        SBCI	R19, 255
        JMP	?Subroutine159
        CFI EndBlock cfiCond552
        CFI EndBlock cfiCond553
        CFI EndBlock cfiPicker554

        RSEG FARCODE:CODE:NOROOT(1)
?Subroutine81:
        CFI Block cfiCond555 Using cfiCommon0
        CFI NoFunction
        CFI Conditional ??CrossCallReturnLabel_97
        CFI R24 Frame(CFA_Y, -9)
        CFI R25 Frame(CFA_Y, -8)
        CFI R26 Frame(CFA_Y, -7)
        CFI R27 Frame(CFA_Y, -6)
        CFI R4 Frame(CFA_Y, -5)
        CFI R5 Frame(CFA_Y, -4)
        CFI R6 Frame(CFA_Y, -3)
        CFI R7 Frame(CFA_Y, -2)
        CFI R8 Frame(CFA_Y, -1)
        CFI CFA_SP SP+6
        CFI CFA_Y Y+83
        CFI Block cfiCond556 Using cfiCommon0
        CFI (cfiCond556) NoFunction
        CFI (cfiCond556) Conditional ??CrossCallReturnLabel_98
        CFI (cfiCond556) R24 Frame(CFA_Y, -9)
        CFI (cfiCond556) R25 Frame(CFA_Y, -8)
        CFI (cfiCond556) R26 Frame(CFA_Y, -7)
        CFI (cfiCond556) R27 Frame(CFA_Y, -6)
        CFI (cfiCond556) R4 Frame(CFA_Y, -5)
        CFI (cfiCond556) R5 Frame(CFA_Y, -4)
        CFI (cfiCond556) R6 Frame(CFA_Y, -3)
        CFI (cfiCond556) R7 Frame(CFA_Y, -2)
        CFI (cfiCond556) R8 Frame(CFA_Y, -1)
        CFI (cfiCond556) CFA_SP SP+6
        CFI (cfiCond556) CFA_Y Y+83
        CFI Block cfiPicker557 Using cfiCommon1
        CFI (cfiPicker557) NoFunction
        CFI (cfiPicker557) Picker
        LDI	R20, 60
        LDI	R21, 0
        MOVW	R19:R18, R29:R28
        SUBI	R18, 252
        SBCI	R19, 255
        LDI	R16, 114
        RET
        CFI EndBlock cfiCond555
        CFI EndBlock cfiCond556
        CFI EndBlock cfiPicker557

        RSEG FARCODE:CODE:NOROOT(1)
?Subroutine80:
        CFI Block cfiCond558 Using cfiCommon0
        CFI NoFunction
        CFI Conditional ??CrossCallReturnLabel_95
        CFI R24 Frame(CFA_Y, -9)
        CFI R25 Frame(CFA_Y, -8)
        CFI R26 Frame(CFA_Y, -7)
        CFI R27 Frame(CFA_Y, -6)
        CFI R4 Frame(CFA_Y, -5)
        CFI R5 Frame(CFA_Y, -4)
        CFI R6 Frame(CFA_Y, -3)
        CFI R7 Frame(CFA_Y, -2)
        CFI R8 Frame(CFA_Y, -1)
        CFI CFA_SP SP+6
        CFI CFA_Y Y+83
        CFI Block cfiCond559 Using cfiCommon0
        CFI (cfiCond559) NoFunction
        CFI (cfiCond559) Conditional ??CrossCallReturnLabel_96
        CFI (cfiCond559) R24 Frame(CFA_Y, -9)
        CFI (cfiCond559) R25 Frame(CFA_Y, -8)
        CFI (cfiCond559) R26 Frame(CFA_Y, -7)
        CFI (cfiCond559) R27 Frame(CFA_Y, -6)
        CFI (cfiCond559) R4 Frame(CFA_Y, -5)
        CFI (cfiCond559) R5 Frame(CFA_Y, -4)
        CFI (cfiCond559) R6 Frame(CFA_Y, -3)
        CFI (cfiCond559) R7 Frame(CFA_Y, -2)
        CFI (cfiCond559) R8 Frame(CFA_Y, -1)
        CFI (cfiCond559) CFA_SP SP+6
        CFI (cfiCond559) CFA_Y Y+83
        CFI Block cfiPicker560 Using cfiCommon1
        CFI (cfiPicker560) NoFunction
        CFI (cfiPicker560) Picker
        LDI	R20, 60
        LDI	R21, 0
        MOVW	R19:R18, R29:R28
        SUBI	R18, 252
        SBCI	R19, 255
        LDI	R16, 54
        RET
        CFI EndBlock cfiCond558
        CFI EndBlock cfiCond559
        CFI EndBlock cfiPicker560

        RSEG FARCODE:CODE:NOROOT(1)
?Subroutine78:
        CFI Block cfiCond561 Using cfiCommon0
        CFI NoFunction
        CFI Conditional ??CrossCallReturnLabel_88
        CFI R24 Frame(CFA_Y, -9)
        CFI R25 Frame(CFA_Y, -8)
        CFI R26 Frame(CFA_Y, -7)
        CFI R27 Frame(CFA_Y, -6)
        CFI R4 Frame(CFA_Y, -5)
        CFI R5 Frame(CFA_Y, -4)
        CFI R6 Frame(CFA_Y, -3)
        CFI R7 Frame(CFA_Y, -2)
        CFI R8 Frame(CFA_Y, -1)
        CFI CFA_SP SP+6
        CFI CFA_Y Y+83
        CFI Block cfiCond562 Using cfiCommon0
        CFI (cfiCond562) NoFunction
        CFI (cfiCond562) Conditional ??CrossCallReturnLabel_89
        CFI (cfiCond562) R24 Frame(CFA_Y, -9)
        CFI (cfiCond562) R25 Frame(CFA_Y, -8)
        CFI (cfiCond562) R26 Frame(CFA_Y, -7)
        CFI (cfiCond562) R27 Frame(CFA_Y, -6)
        CFI (cfiCond562) R4 Frame(CFA_Y, -5)
        CFI (cfiCond562) R5 Frame(CFA_Y, -4)
        CFI (cfiCond562) R6 Frame(CFA_Y, -3)
        CFI (cfiCond562) R7 Frame(CFA_Y, -2)
        CFI (cfiCond562) R8 Frame(CFA_Y, -1)
        CFI (cfiCond562) CFA_SP SP+6
        CFI (cfiCond562) CFA_Y Y+83
        CFI Block cfiCond563 Using cfiCommon0
        CFI (cfiCond563) NoFunction
        CFI (cfiCond563) Conditional ??CrossCallReturnLabel_90
        CFI (cfiCond563) R24 Frame(CFA_Y, -9)
        CFI (cfiCond563) R25 Frame(CFA_Y, -8)
        CFI (cfiCond563) R26 Frame(CFA_Y, -7)
        CFI (cfiCond563) R27 Frame(CFA_Y, -6)
        CFI (cfiCond563) R4 Frame(CFA_Y, -5)
        CFI (cfiCond563) R5 Frame(CFA_Y, -4)
        CFI (cfiCond563) R6 Frame(CFA_Y, -3)
        CFI (cfiCond563) R7 Frame(CFA_Y, -2)
        CFI (cfiCond563) R8 Frame(CFA_Y, -1)
        CFI (cfiCond563) CFA_SP SP+6
        CFI (cfiCond563) CFA_Y Y+83
        CFI Block cfiCond564 Using cfiCommon0
        CFI (cfiCond564) NoFunction
        CFI (cfiCond564) Conditional ??CrossCallReturnLabel_91
        CFI (cfiCond564) R24 Frame(CFA_Y, -9)
        CFI (cfiCond564) R25 Frame(CFA_Y, -8)
        CFI (cfiCond564) R26 Frame(CFA_Y, -7)
        CFI (cfiCond564) R27 Frame(CFA_Y, -6)
        CFI (cfiCond564) R4 Frame(CFA_Y, -5)
        CFI (cfiCond564) R5 Frame(CFA_Y, -4)
        CFI (cfiCond564) R6 Frame(CFA_Y, -3)
        CFI (cfiCond564) R7 Frame(CFA_Y, -2)
        CFI (cfiCond564) R8 Frame(CFA_Y, -1)
        CFI (cfiCond564) CFA_SP SP+6
        CFI (cfiCond564) CFA_Y Y+83
        CFI Block cfiPicker565 Using cfiCommon1
        CFI (cfiPicker565) NoFunction
        CFI (cfiPicker565) Picker
        LDI	R20, 11
        LDI	R21, 0
        MOVW	R19:R18, R29:R28
        SUBI	R18, 252
        SBCI	R19, 255
        LDI	R16, 164
        RET
        CFI EndBlock cfiCond561
        CFI EndBlock cfiCond562
        CFI EndBlock cfiCond563
        CFI EndBlock cfiCond564
        CFI EndBlock cfiPicker565

        RSEG FARCODE:CODE:NOROOT(1)
?Subroutine75:
        CFI Block cfiCond566 Using cfiCommon0
        CFI NoFunction
        CFI Conditional ??CrossCallReturnLabel_84
        CFI CFA_SP SP+6
        CFI Block cfiCond567 Using cfiCommon0
        CFI (cfiCond567) NoFunction
        CFI (cfiCond567) Conditional ??CrossCallReturnLabel_85
        CFI (cfiCond567) R24 Frame(CFA_Y, -9)
        CFI (cfiCond567) R25 Frame(CFA_Y, -8)
        CFI (cfiCond567) R26 Frame(CFA_Y, -7)
        CFI (cfiCond567) R27 Frame(CFA_Y, -6)
        CFI (cfiCond567) R4 Frame(CFA_Y, -5)
        CFI (cfiCond567) R5 Frame(CFA_Y, -4)
        CFI (cfiCond567) R6 Frame(CFA_Y, -3)
        CFI (cfiCond567) R7 Frame(CFA_Y, -2)
        CFI (cfiCond567) R8 Frame(CFA_Y, -1)
        CFI (cfiCond567) CFA_SP SP+6
        CFI (cfiCond567) CFA_Y Y+83
        CFI Block cfiPicker568 Using cfiCommon1
        CFI (cfiPicker568) NoFunction
        CFI (cfiPicker568) Picker
        LDI	R23, 0
        LDI	R22, 1
        LDI	R20, 240
        LDI	R21, 0
        RET
        CFI EndBlock cfiCond566
        CFI EndBlock cfiCond567
        CFI EndBlock cfiPicker568

        RSEG FARCODE:CODE:NOROOT(1)
?Subroutine69:
        CFI Block cfiCond569 Using cfiCommon0
        CFI NoFunction
        CFI Conditional ??CrossCallReturnLabel_222
        CFI R24 Frame(CFA_Y, -9)
        CFI R25 Frame(CFA_Y, -8)
        CFI R26 Frame(CFA_Y, -7)
        CFI R27 Frame(CFA_Y, -6)
        CFI R4 Frame(CFA_Y, -5)
        CFI R5 Frame(CFA_Y, -4)
        CFI R6 Frame(CFA_Y, -3)
        CFI R7 Frame(CFA_Y, -2)
        CFI R8 Frame(CFA_Y, -1)
        CFI CFA_SP SP+6
        CFI CFA_Y Y+83
        CFI Block cfiCond570 Using cfiCommon0
        CFI (cfiCond570) NoFunction
        CFI (cfiCond570) Conditional ??CrossCallReturnLabel_223
        CFI (cfiCond570) R24 Frame(CFA_Y, -9)
        CFI (cfiCond570) R25 Frame(CFA_Y, -8)
        CFI (cfiCond570) R26 Frame(CFA_Y, -7)
        CFI (cfiCond570) R27 Frame(CFA_Y, -6)
        CFI (cfiCond570) R4 Frame(CFA_Y, -5)
        CFI (cfiCond570) R5 Frame(CFA_Y, -4)
        CFI (cfiCond570) R6 Frame(CFA_Y, -3)
        CFI (cfiCond570) R7 Frame(CFA_Y, -2)
        CFI (cfiCond570) R8 Frame(CFA_Y, -1)
        CFI (cfiCond570) CFA_SP SP+6
        CFI (cfiCond570) CFA_Y Y+83
        CFI Block cfiPicker571 Using cfiCommon1
        CFI (cfiPicker571) NoFunction
        CFI (cfiPicker571) Picker
        MOVW	R17:R16, R29:R28
        SUBI	R16, 252
        SBCI	R17, 255
        CALL	crc_m1
        STD	Y+16, R16
        STD	Y+17, R17
        LDI	R23, 0
        LDI	R22, 0
        LDI	R20, 14
        RJMP	??Subroutine146_0
        CFI EndBlock cfiCond569
        CFI EndBlock cfiCond570
        CFI EndBlock cfiPicker571

        RSEG FARCODE:CODE:NOROOT(1)
?Subroutine67:
        CFI Block cfiCond572 Using cfiCommon0
        CFI NoFunction
        CFI Conditional ??CrossCallReturnLabel_315
        CFI R24 Frame(CFA_Y, -2)
        CFI R25 Frame(CFA_Y, -1)
        CFI CFA_SP SP+6
        CFI CFA_Y Y+72
        CFI Block cfiCond573 Using cfiCommon0
        CFI (cfiCond573) NoFunction
        CFI (cfiCond573) Conditional ??CrossCallReturnLabel_316
        CFI (cfiCond573) R24 Frame(CFA_Y, -9)
        CFI (cfiCond573) R25 Frame(CFA_Y, -8)
        CFI (cfiCond573) R26 Frame(CFA_Y, -7)
        CFI (cfiCond573) R27 Frame(CFA_Y, -6)
        CFI (cfiCond573) R4 Frame(CFA_Y, -5)
        CFI (cfiCond573) R5 Frame(CFA_Y, -4)
        CFI (cfiCond573) R6 Frame(CFA_Y, -3)
        CFI (cfiCond573) R7 Frame(CFA_Y, -2)
        CFI (cfiCond573) R8 Frame(CFA_Y, -1)
        CFI (cfiCond573) CFA_SP SP+6
        CFI (cfiCond573) CFA_Y Y+83
        CFI Block cfiPicker574 Using cfiCommon1
        CFI (cfiPicker574) NoFunction
        CFI (cfiPicker574) Picker
        LDI	R20, 255
        LDI	R21, 255
        LDI	R18, 9
        RJMP	?Subroutine157
        CFI EndBlock cfiCond572
        CFI EndBlock cfiCond573
        CFI EndBlock cfiPicker574

        RSEG FARCODE:CODE:NOROOT(1)
?Subroutine59:
        CFI Block cfiCond575 Using cfiCommon0
        CFI NoFunction
        CFI Conditional ??CrossCallReturnLabel_220
        CFI R24 Frame(CFA_Y, -9)
        CFI R25 Frame(CFA_Y, -8)
        CFI R26 Frame(CFA_Y, -7)
        CFI R27 Frame(CFA_Y, -6)
        CFI R4 Frame(CFA_Y, -5)
        CFI R5 Frame(CFA_Y, -4)
        CFI R6 Frame(CFA_Y, -3)
        CFI R7 Frame(CFA_Y, -2)
        CFI R8 Frame(CFA_Y, -1)
        CFI CFA_SP SP+6
        CFI CFA_Y Y+83
        CFI Block cfiCond576 Using cfiCommon0
        CFI (cfiCond576) NoFunction
        CFI (cfiCond576) Conditional ??CrossCallReturnLabel_221
        CFI (cfiCond576) R24 Frame(CFA_Y, -9)
        CFI (cfiCond576) R25 Frame(CFA_Y, -8)
        CFI (cfiCond576) R26 Frame(CFA_Y, -7)
        CFI (cfiCond576) R27 Frame(CFA_Y, -6)
        CFI (cfiCond576) R4 Frame(CFA_Y, -5)
        CFI (cfiCond576) R5 Frame(CFA_Y, -4)
        CFI (cfiCond576) R6 Frame(CFA_Y, -3)
        CFI (cfiCond576) R7 Frame(CFA_Y, -2)
        CFI (cfiCond576) R8 Frame(CFA_Y, -1)
        CFI (cfiCond576) CFA_SP SP+6
        CFI (cfiCond576) CFA_Y Y+83
        CFI Block cfiPicker577 Using cfiCommon1
        CFI (cfiPicker577) NoFunction
        CFI (cfiPicker577) Picker
        LD	R16, X
        STD	Y+4, R16
        STD	Y+5, R24
        STD	Y+6, R25
        STD	Y+7, R8
        LDI	R20, 255
        LDI	R21, 255
        LDI	R18, 4
        LDI	R19, 0
        MOVW	R17:R16, R29:R28
        SUBI	R16, 252
        SBCI	R17, 255
        CALL	crc_m1
        STD	Y+8, R16
        STD	Y+9, R17
        LDI	R23, 0
        LDI	R22, 0
        LDI	R20, 6
        RJMP	??Subroutine146_0
        CFI EndBlock cfiCond575
        CFI EndBlock cfiCond576
        CFI EndBlock cfiPicker577

        RSEG FARCODE:CODE:NOROOT(1)
?Subroutine146:
        CFI Block cfiCond578 Using cfiCommon0
        CFI NoFunction
        CFI Conditional ??CrossCallReturnLabel_227
        CFI R24 Frame(CFA_Y, -9)
        CFI R25 Frame(CFA_Y, -8)
        CFI R26 Frame(CFA_Y, -7)
        CFI R27 Frame(CFA_Y, -6)
        CFI R4 Frame(CFA_Y, -5)
        CFI R5 Frame(CFA_Y, -4)
        CFI R6 Frame(CFA_Y, -3)
        CFI R7 Frame(CFA_Y, -2)
        CFI R8 Frame(CFA_Y, -1)
        CFI CFA_SP SP+6
        CFI CFA_Y Y+83
        CFI Block cfiCond579 Using cfiCommon0
        CFI (cfiCond579) NoFunction
        CFI (cfiCond579) Conditional ??CrossCallReturnLabel_228
        CFI (cfiCond579) R24 Frame(CFA_Y, -9)
        CFI (cfiCond579) R25 Frame(CFA_Y, -8)
        CFI (cfiCond579) R26 Frame(CFA_Y, -7)
        CFI (cfiCond579) R27 Frame(CFA_Y, -6)
        CFI (cfiCond579) R4 Frame(CFA_Y, -5)
        CFI (cfiCond579) R5 Frame(CFA_Y, -4)
        CFI (cfiCond579) R6 Frame(CFA_Y, -3)
        CFI (cfiCond579) R7 Frame(CFA_Y, -2)
        CFI (cfiCond579) R8 Frame(CFA_Y, -1)
        CFI (cfiCond579) CFA_SP SP+6
        CFI (cfiCond579) CFA_Y Y+83
        CFI Block cfiCond580 Using cfiCommon0
        CFI (cfiCond580) NoFunction
        CFI (cfiCond580) Conditional ??CrossCallReturnLabel_224
        CFI (cfiCond580) R24 Frame(CFA_Y, -9)
        CFI (cfiCond580) R25 Frame(CFA_Y, -8)
        CFI (cfiCond580) R26 Frame(CFA_Y, -7)
        CFI (cfiCond580) R27 Frame(CFA_Y, -6)
        CFI (cfiCond580) R4 Frame(CFA_Y, -5)
        CFI (cfiCond580) R5 Frame(CFA_Y, -4)
        CFI (cfiCond580) R6 Frame(CFA_Y, -3)
        CFI (cfiCond580) R7 Frame(CFA_Y, -2)
        CFI (cfiCond580) R8 Frame(CFA_Y, -1)
        CFI (cfiCond580) CFA_SP SP+6
        CFI (cfiCond580) CFA_Y Y+83
        CFI Block cfiCond581 Using cfiCommon0
        CFI (cfiCond581) NoFunction
        CFI (cfiCond581) Conditional ??CrossCallReturnLabel_225
        CFI (cfiCond581) R24 Frame(CFA_Y, -9)
        CFI (cfiCond581) R25 Frame(CFA_Y, -8)
        CFI (cfiCond581) R26 Frame(CFA_Y, -7)
        CFI (cfiCond581) R27 Frame(CFA_Y, -6)
        CFI (cfiCond581) R4 Frame(CFA_Y, -5)
        CFI (cfiCond581) R5 Frame(CFA_Y, -4)
        CFI (cfiCond581) R6 Frame(CFA_Y, -3)
        CFI (cfiCond581) R7 Frame(CFA_Y, -2)
        CFI (cfiCond581) R8 Frame(CFA_Y, -1)
        CFI (cfiCond581) CFA_SP SP+6
        CFI (cfiCond581) CFA_Y Y+83
        CFI Block cfiCond582 Using cfiCommon0
        CFI (cfiCond582) NoFunction
        CFI (cfiCond582) Conditional ??CrossCallReturnLabel_226
        CFI (cfiCond582) R24 Frame(CFA_Y, -9)
        CFI (cfiCond582) R25 Frame(CFA_Y, -8)
        CFI (cfiCond582) R26 Frame(CFA_Y, -7)
        CFI (cfiCond582) R27 Frame(CFA_Y, -6)
        CFI (cfiCond582) R4 Frame(CFA_Y, -5)
        CFI (cfiCond582) R5 Frame(CFA_Y, -4)
        CFI (cfiCond582) R6 Frame(CFA_Y, -3)
        CFI (cfiCond582) R7 Frame(CFA_Y, -2)
        CFI (cfiCond582) R8 Frame(CFA_Y, -1)
        CFI (cfiCond582) CFA_SP SP+6
        CFI (cfiCond582) CFA_Y Y+83
        CFI Block cfiPicker583 Using cfiCommon1
        CFI (cfiPicker583) NoFunction
        CFI (cfiPicker583) Picker
        LDI	R20, 255
        LDI	R21, 255
        LDI	R18, 58
        LDI	R19, 0
        MOVW	R17:R16, R29:R28
        SUBI	R16, 252
        SBCI	R17, 255
        CALL	crc_m1
        STD	Y+62, R16
        STD	Y+63, R17
        LDI	R23, 0
        LDI	R22, 0
        LDI	R20, 60
        CFI Block cfiCond584 Using cfiCommon0
        CFI (cfiCond584) NoFunction
        CFI (cfiCond584) Conditional ??CrossCallReturnLabel_222
        CFI (cfiCond584) R24 Frame(CFA_Y, -9)
        CFI (cfiCond584) R25 Frame(CFA_Y, -8)
        CFI (cfiCond584) R26 Frame(CFA_Y, -7)
        CFI (cfiCond584) R27 Frame(CFA_Y, -6)
        CFI (cfiCond584) R4 Frame(CFA_Y, -5)
        CFI (cfiCond584) R5 Frame(CFA_Y, -4)
        CFI (cfiCond584) R6 Frame(CFA_Y, -3)
        CFI (cfiCond584) R7 Frame(CFA_Y, -2)
        CFI (cfiCond584) R8 Frame(CFA_Y, -1)
        CFI (cfiCond584) CFA_SP SP+6
        CFI (cfiCond584) CFA_Y Y+83
        CFI Block cfiCond585 Using cfiCommon0
        CFI (cfiCond585) NoFunction
        CFI (cfiCond585) Conditional ??CrossCallReturnLabel_223
        CFI (cfiCond585) R24 Frame(CFA_Y, -9)
        CFI (cfiCond585) R25 Frame(CFA_Y, -8)
        CFI (cfiCond585) R26 Frame(CFA_Y, -7)
        CFI (cfiCond585) R27 Frame(CFA_Y, -6)
        CFI (cfiCond585) R4 Frame(CFA_Y, -5)
        CFI (cfiCond585) R5 Frame(CFA_Y, -4)
        CFI (cfiCond585) R6 Frame(CFA_Y, -3)
        CFI (cfiCond585) R7 Frame(CFA_Y, -2)
        CFI (cfiCond585) R8 Frame(CFA_Y, -1)
        CFI (cfiCond585) CFA_SP SP+6
        CFI (cfiCond585) CFA_Y Y+83
        CFI Block cfiCond586 Using cfiCommon0
        CFI (cfiCond586) NoFunction
        CFI (cfiCond586) Conditional ??CrossCallReturnLabel_220
        CFI (cfiCond586) R24 Frame(CFA_Y, -9)
        CFI (cfiCond586) R25 Frame(CFA_Y, -8)
        CFI (cfiCond586) R26 Frame(CFA_Y, -7)
        CFI (cfiCond586) R27 Frame(CFA_Y, -6)
        CFI (cfiCond586) R4 Frame(CFA_Y, -5)
        CFI (cfiCond586) R5 Frame(CFA_Y, -4)
        CFI (cfiCond586) R6 Frame(CFA_Y, -3)
        CFI (cfiCond586) R7 Frame(CFA_Y, -2)
        CFI (cfiCond586) R8 Frame(CFA_Y, -1)
        CFI (cfiCond586) CFA_SP SP+6
        CFI (cfiCond586) CFA_Y Y+83
        CFI Block cfiCond587 Using cfiCommon0
        CFI (cfiCond587) NoFunction
        CFI (cfiCond587) Conditional ??CrossCallReturnLabel_221
        CFI (cfiCond587) R24 Frame(CFA_Y, -9)
        CFI (cfiCond587) R25 Frame(CFA_Y, -8)
        CFI (cfiCond587) R26 Frame(CFA_Y, -7)
        CFI (cfiCond587) R27 Frame(CFA_Y, -6)
        CFI (cfiCond587) R4 Frame(CFA_Y, -5)
        CFI (cfiCond587) R5 Frame(CFA_Y, -4)
        CFI (cfiCond587) R6 Frame(CFA_Y, -3)
        CFI (cfiCond587) R7 Frame(CFA_Y, -2)
        CFI (cfiCond587) R8 Frame(CFA_Y, -1)
        CFI (cfiCond587) CFA_SP SP+6
        CFI (cfiCond587) CFA_Y Y+83
        CFI Block cfiCond588 Using cfiCommon0
        CFI (cfiCond588) NoFunction
        CFI (cfiCond588) Conditional ??CrossCallReturnLabel_218
        CFI (cfiCond588) R24 Frame(CFA_Y, -9)
        CFI (cfiCond588) R25 Frame(CFA_Y, -8)
        CFI (cfiCond588) R26 Frame(CFA_Y, -7)
        CFI (cfiCond588) R27 Frame(CFA_Y, -6)
        CFI (cfiCond588) R4 Frame(CFA_Y, -5)
        CFI (cfiCond588) R5 Frame(CFA_Y, -4)
        CFI (cfiCond588) R6 Frame(CFA_Y, -3)
        CFI (cfiCond588) R7 Frame(CFA_Y, -2)
        CFI (cfiCond588) R8 Frame(CFA_Y, -1)
        CFI (cfiCond588) CFA_SP SP+6
        CFI (cfiCond588) CFA_Y Y+83
        CFI Block cfiCond589 Using cfiCommon0
        CFI (cfiCond589) NoFunction
        CFI (cfiCond589) Conditional ??CrossCallReturnLabel_219
        CFI (cfiCond589) R24 Frame(CFA_Y, -9)
        CFI (cfiCond589) R25 Frame(CFA_Y, -8)
        CFI (cfiCond589) R26 Frame(CFA_Y, -7)
        CFI (cfiCond589) R27 Frame(CFA_Y, -6)
        CFI (cfiCond589) R4 Frame(CFA_Y, -5)
        CFI (cfiCond589) R5 Frame(CFA_Y, -4)
        CFI (cfiCond589) R6 Frame(CFA_Y, -3)
        CFI (cfiCond589) R7 Frame(CFA_Y, -2)
        CFI (cfiCond589) R8 Frame(CFA_Y, -1)
        CFI (cfiCond589) CFA_SP SP+6
        CFI (cfiCond589) CFA_Y Y+83
??Subroutine146_0:
        LDI	R21, 0
        CFI Block cfiCond590 Using cfiCommon0
        CFI (cfiCond590) NoFunction
        CFI (cfiCond590) Conditional ??CrossCallReturnLabel_255
        CFI (cfiCond590) R24 Frame(CFA_Y, -9)
        CFI (cfiCond590) R25 Frame(CFA_Y, -8)
        CFI (cfiCond590) R26 Frame(CFA_Y, -7)
        CFI (cfiCond590) R27 Frame(CFA_Y, -6)
        CFI (cfiCond590) R4 Frame(CFA_Y, -5)
        CFI (cfiCond590) R5 Frame(CFA_Y, -4)
        CFI (cfiCond590) R6 Frame(CFA_Y, -3)
        CFI (cfiCond590) R7 Frame(CFA_Y, -2)
        CFI (cfiCond590) R8 Frame(CFA_Y, -1)
        CFI (cfiCond590) CFA_SP SP+6
        CFI (cfiCond590) CFA_Y Y+83
        CFI Block cfiCond591 Using cfiCommon0
        CFI (cfiCond591) NoFunction
        CFI (cfiCond591) Conditional ??CrossCallReturnLabel_256
        CFI (cfiCond591) R24 Frame(CFA_Y, -9)
        CFI (cfiCond591) R25 Frame(CFA_Y, -8)
        CFI (cfiCond591) R26 Frame(CFA_Y, -7)
        CFI (cfiCond591) R27 Frame(CFA_Y, -6)
        CFI (cfiCond591) R4 Frame(CFA_Y, -5)
        CFI (cfiCond591) R5 Frame(CFA_Y, -4)
        CFI (cfiCond591) R6 Frame(CFA_Y, -3)
        CFI (cfiCond591) R7 Frame(CFA_Y, -2)
        CFI (cfiCond591) R8 Frame(CFA_Y, -1)
        CFI (cfiCond591) CFA_SP SP+6
        CFI (cfiCond591) CFA_Y Y+83
        CFI Block cfiCond592 Using cfiCommon0
        CFI (cfiCond592) NoFunction
        CFI (cfiCond592) Conditional ??CrossCallReturnLabel_229
        CFI (cfiCond592) R24 Frame(CFA_Y, -9)
        CFI (cfiCond592) R25 Frame(CFA_Y, -8)
        CFI (cfiCond592) R26 Frame(CFA_Y, -7)
        CFI (cfiCond592) R27 Frame(CFA_Y, -6)
        CFI (cfiCond592) R4 Frame(CFA_Y, -5)
        CFI (cfiCond592) R5 Frame(CFA_Y, -4)
        CFI (cfiCond592) R6 Frame(CFA_Y, -3)
        CFI (cfiCond592) R7 Frame(CFA_Y, -2)
        CFI (cfiCond592) R8 Frame(CFA_Y, -1)
        CFI (cfiCond592) CFA_SP SP+6
        CFI (cfiCond592) CFA_Y Y+83
        CFI Block cfiCond593 Using cfiCommon0
        CFI (cfiCond593) NoFunction
        CFI (cfiCond593) Conditional ??CrossCallReturnLabel_230
        CFI (cfiCond593) R24 Frame(CFA_Y, -9)
        CFI (cfiCond593) R25 Frame(CFA_Y, -8)
        CFI (cfiCond593) R26 Frame(CFA_Y, -7)
        CFI (cfiCond593) R27 Frame(CFA_Y, -6)
        CFI (cfiCond593) R4 Frame(CFA_Y, -5)
        CFI (cfiCond593) R5 Frame(CFA_Y, -4)
        CFI (cfiCond593) R6 Frame(CFA_Y, -3)
        CFI (cfiCond593) R7 Frame(CFA_Y, -2)
        CFI (cfiCond593) R8 Frame(CFA_Y, -1)
        CFI (cfiCond593) CFA_SP SP+6
        CFI (cfiCond593) CFA_Y Y+83
??Subroutine146_1:
        MOVW	R19:R18, R29:R28
        SUBI	R18, 252
        CFI Block cfiCond594 Using cfiCommon0
        CFI (cfiCond594) NoFunction
        CFI (cfiCond594) Conditional ??CrossCallReturnLabel_234
        CFI (cfiCond594) R24 Frame(CFA_Y, -5)
        CFI (cfiCond594) R25 Frame(CFA_Y, -4)
        CFI (cfiCond594) R26 Frame(CFA_Y, -3)
        CFI (cfiCond594) R27 Frame(CFA_Y, -2)
        CFI (cfiCond594) R4 Frame(CFA_Y, -1)
        CFI (cfiCond594) CFA_SP SP+6
        CFI (cfiCond594) CFA_Y Y+88
        CFI Block cfiCond595 Using cfiCommon0
        CFI (cfiCond595) NoFunction
        CFI (cfiCond595) Conditional ??CrossCallReturnLabel_235
        CFI (cfiCond595) R24 Frame(CFA_Y, -5)
        CFI (cfiCond595) R25 Frame(CFA_Y, -4)
        CFI (cfiCond595) R26 Frame(CFA_Y, -3)
        CFI (cfiCond595) R27 Frame(CFA_Y, -2)
        CFI (cfiCond595) R4 Frame(CFA_Y, -1)
        CFI (cfiCond595) CFA_SP SP+6
        CFI (cfiCond595) CFA_Y Y+88
        CFI Block cfiCond596 Using cfiCommon0
        CFI (cfiCond596) NoFunction
        CFI (cfiCond596) Conditional ??CrossCallReturnLabel_236
        CFI (cfiCond596) R24 Frame(CFA_Y, -5)
        CFI (cfiCond596) R25 Frame(CFA_Y, -4)
        CFI (cfiCond596) R26 Frame(CFA_Y, -3)
        CFI (cfiCond596) R27 Frame(CFA_Y, -2)
        CFI (cfiCond596) R4 Frame(CFA_Y, -1)
        CFI (cfiCond596) CFA_SP SP+6
        CFI (cfiCond596) CFA_Y Y+88
        CFI Block cfiCond597 Using cfiCommon0
        CFI (cfiCond597) NoFunction
        CFI (cfiCond597) Conditional ??CrossCallReturnLabel_237
        CFI (cfiCond597) R24 Frame(CFA_Y, -5)
        CFI (cfiCond597) R25 Frame(CFA_Y, -4)
        CFI (cfiCond597) R26 Frame(CFA_Y, -3)
        CFI (cfiCond597) R27 Frame(CFA_Y, -2)
        CFI (cfiCond597) R4 Frame(CFA_Y, -1)
        CFI (cfiCond597) CFA_SP SP+6
        CFI (cfiCond597) CFA_Y Y+88
        CFI Block cfiCond598 Using cfiCommon0
        CFI (cfiCond598) NoFunction
        CFI (cfiCond598) Conditional ??CrossCallReturnLabel_238
        CFI (cfiCond598) R24 Frame(CFA_Y, -5)
        CFI (cfiCond598) R25 Frame(CFA_Y, -4)
        CFI (cfiCond598) R26 Frame(CFA_Y, -3)
        CFI (cfiCond598) R27 Frame(CFA_Y, -2)
        CFI (cfiCond598) R4 Frame(CFA_Y, -1)
        CFI (cfiCond598) CFA_SP SP+6
        CFI (cfiCond598) CFA_Y Y+88
        CFI Block cfiCond599 Using cfiCommon0
        CFI (cfiCond599) NoFunction
        CFI (cfiCond599) Conditional ??CrossCallReturnLabel_239
        CFI (cfiCond599) R24 Frame(CFA_Y, -5)
        CFI (cfiCond599) R25 Frame(CFA_Y, -4)
        CFI (cfiCond599) R26 Frame(CFA_Y, -3)
        CFI (cfiCond599) R27 Frame(CFA_Y, -2)
        CFI (cfiCond599) R4 Frame(CFA_Y, -1)
        CFI (cfiCond599) CFA_SP SP+6
        CFI (cfiCond599) CFA_Y Y+88
        CFI Block cfiCond600 Using cfiCommon0
        CFI (cfiCond600) NoFunction
        CFI (cfiCond600) Conditional ??CrossCallReturnLabel_240
        CFI (cfiCond600) R24 Frame(CFA_Y, -5)
        CFI (cfiCond600) R25 Frame(CFA_Y, -4)
        CFI (cfiCond600) R26 Frame(CFA_Y, -3)
        CFI (cfiCond600) R27 Frame(CFA_Y, -2)
        CFI (cfiCond600) R4 Frame(CFA_Y, -1)
        CFI (cfiCond600) CFA_SP SP+6
        CFI (cfiCond600) CFA_Y Y+88
        CFI Block cfiCond601 Using cfiCommon0
        CFI (cfiCond601) NoFunction
        CFI (cfiCond601) Conditional ??CrossCallReturnLabel_241
        CFI (cfiCond601) R24 Frame(CFA_Y, -5)
        CFI (cfiCond601) R25 Frame(CFA_Y, -4)
        CFI (cfiCond601) R26 Frame(CFA_Y, -3)
        CFI (cfiCond601) R27 Frame(CFA_Y, -2)
        CFI (cfiCond601) R4 Frame(CFA_Y, -1)
        CFI (cfiCond601) CFA_SP SP+6
        CFI (cfiCond601) CFA_Y Y+88
        CFI Block cfiCond602 Using cfiCommon0
        CFI (cfiCond602) NoFunction
        CFI (cfiCond602) Conditional ??CrossCallReturnLabel_243
        CFI (cfiCond602) R24 Frame(CFA_Y, -5)
        CFI (cfiCond602) R25 Frame(CFA_Y, -4)
        CFI (cfiCond602) R26 Frame(CFA_Y, -3)
        CFI (cfiCond602) R27 Frame(CFA_Y, -2)
        CFI (cfiCond602) R4 Frame(CFA_Y, -1)
        CFI (cfiCond602) CFA_SP SP+6
        CFI (cfiCond602) CFA_Y Y+88
        CFI Block cfiCond603 Using cfiCommon0
        CFI (cfiCond603) NoFunction
        CFI (cfiCond603) Conditional ??CrossCallReturnLabel_244
        CFI (cfiCond603) R24 Frame(CFA_Y, -5)
        CFI (cfiCond603) R25 Frame(CFA_Y, -4)
        CFI (cfiCond603) R26 Frame(CFA_Y, -3)
        CFI (cfiCond603) R27 Frame(CFA_Y, -2)
        CFI (cfiCond603) R4 Frame(CFA_Y, -1)
        CFI (cfiCond603) CFA_SP SP+6
        CFI (cfiCond603) CFA_Y Y+88
        CFI Block cfiCond604 Using cfiCommon0
        CFI (cfiCond604) NoFunction
        CFI (cfiCond604) Conditional ??CrossCallReturnLabel_245
        CFI (cfiCond604) R24 Frame(CFA_Y, -5)
        CFI (cfiCond604) R25 Frame(CFA_Y, -4)
        CFI (cfiCond604) R26 Frame(CFA_Y, -3)
        CFI (cfiCond604) R27 Frame(CFA_Y, -2)
        CFI (cfiCond604) R4 Frame(CFA_Y, -1)
        CFI (cfiCond604) CFA_SP SP+6
        CFI (cfiCond604) CFA_Y Y+88
        CFI Block cfiCond605 Using cfiCommon0
        CFI (cfiCond605) NoFunction
        CFI (cfiCond605) Conditional ??CrossCallReturnLabel_231
        CFI (cfiCond605) R24 Frame(CFA_Y, -5)
        CFI (cfiCond605) R25 Frame(CFA_Y, -4)
        CFI (cfiCond605) R26 Frame(CFA_Y, -3)
        CFI (cfiCond605) R27 Frame(CFA_Y, -2)
        CFI (cfiCond605) R4 Frame(CFA_Y, -1)
        CFI (cfiCond605) CFA_SP SP+6
        CFI (cfiCond605) CFA_Y Y+88
        CFI Block cfiCond606 Using cfiCommon0
        CFI (cfiCond606) NoFunction
        CFI (cfiCond606) Conditional ??CrossCallReturnLabel_232
        CFI (cfiCond606) R24 Frame(CFA_Y, -5)
        CFI (cfiCond606) R25 Frame(CFA_Y, -4)
        CFI (cfiCond606) R26 Frame(CFA_Y, -3)
        CFI (cfiCond606) R27 Frame(CFA_Y, -2)
        CFI (cfiCond606) R4 Frame(CFA_Y, -1)
        CFI (cfiCond606) CFA_SP SP+6
        CFI (cfiCond606) CFA_Y Y+88
        CFI Block cfiCond607 Using cfiCommon0
        CFI (cfiCond607) NoFunction
        CFI (cfiCond607) Conditional ??CrossCallReturnLabel_233
        CFI (cfiCond607) R24 Frame(CFA_Y, -5)
        CFI (cfiCond607) R25 Frame(CFA_Y, -4)
        CFI (cfiCond607) R26 Frame(CFA_Y, -3)
        CFI (cfiCond607) R27 Frame(CFA_Y, -2)
        CFI (cfiCond607) R4 Frame(CFA_Y, -1)
        CFI (cfiCond607) CFA_SP SP+6
        CFI (cfiCond607) CFA_Y Y+88
        CFI Block cfiCond608 Using cfiCommon0
        CFI (cfiCond608) NoFunction
        CFI (cfiCond608) Conditional ??CrossCallReturnLabel_242
        CFI (cfiCond608) R24 Frame(CFA_Y, -5)
        CFI (cfiCond608) R25 Frame(CFA_Y, -4)
        CFI (cfiCond608) R26 Frame(CFA_Y, -3)
        CFI (cfiCond608) R27 Frame(CFA_Y, -2)
        CFI (cfiCond608) R4 Frame(CFA_Y, -1)
        CFI (cfiCond608) CFA_SP SP+6
        CFI (cfiCond608) CFA_Y Y+88
        CFI Block cfiCond609 Using cfiCommon0
        CFI (cfiCond609) NoFunction
        CFI (cfiCond609) Conditional ??CrossCallReturnLabel_246
        CFI (cfiCond609) R24 Frame(CFA_Y, -5)
        CFI (cfiCond609) R25 Frame(CFA_Y, -4)
        CFI (cfiCond609) R26 Frame(CFA_Y, -3)
        CFI (cfiCond609) R27 Frame(CFA_Y, -2)
        CFI (cfiCond609) R4 Frame(CFA_Y, -1)
        CFI (cfiCond609) CFA_SP SP+6
        CFI (cfiCond609) CFA_Y Y+88
        CFI Block cfiCond610 Using cfiCommon0
        CFI (cfiCond610) NoFunction
        CFI (cfiCond610) Conditional ??CrossCallReturnLabel_247
        CFI (cfiCond610) R24 Frame(CFA_Y, -5)
        CFI (cfiCond610) R25 Frame(CFA_Y, -4)
        CFI (cfiCond610) R26 Frame(CFA_Y, -3)
        CFI (cfiCond610) R27 Frame(CFA_Y, -2)
        CFI (cfiCond610) R4 Frame(CFA_Y, -1)
        CFI (cfiCond610) CFA_SP SP+6
        CFI (cfiCond610) CFA_Y Y+88
        CFI Block cfiCond611 Using cfiCommon0
        CFI (cfiCond611) NoFunction
        CFI (cfiCond611) Conditional ??CrossCallReturnLabel_248
        CFI (cfiCond611) R24 Frame(CFA_Y, -5)
        CFI (cfiCond611) R25 Frame(CFA_Y, -4)
        CFI (cfiCond611) R26 Frame(CFA_Y, -3)
        CFI (cfiCond611) R27 Frame(CFA_Y, -2)
        CFI (cfiCond611) R4 Frame(CFA_Y, -1)
        CFI (cfiCond611) CFA_SP SP+6
        CFI (cfiCond611) CFA_Y Y+88
        CFI Block cfiCond612 Using cfiCommon0
        CFI (cfiCond612) NoFunction
        CFI (cfiCond612) Conditional ??CrossCallReturnLabel_249
        CFI (cfiCond612) R24 Frame(CFA_Y, -5)
        CFI (cfiCond612) R25 Frame(CFA_Y, -4)
        CFI (cfiCond612) R26 Frame(CFA_Y, -3)
        CFI (cfiCond612) R27 Frame(CFA_Y, -2)
        CFI (cfiCond612) R4 Frame(CFA_Y, -1)
        CFI (cfiCond612) CFA_SP SP+6
        CFI (cfiCond612) CFA_Y Y+88
        CFI Block cfiCond613 Using cfiCommon0
        CFI (cfiCond613) NoFunction
        CFI (cfiCond613) Conditional ??CrossCallReturnLabel_250
        CFI (cfiCond613) R24 Frame(CFA_Y, -5)
        CFI (cfiCond613) R25 Frame(CFA_Y, -4)
        CFI (cfiCond613) R26 Frame(CFA_Y, -3)
        CFI (cfiCond613) R27 Frame(CFA_Y, -2)
        CFI (cfiCond613) R4 Frame(CFA_Y, -1)
        CFI (cfiCond613) CFA_SP SP+6
        CFI (cfiCond613) CFA_Y Y+88
        CFI Block cfiCond614 Using cfiCommon0
        CFI (cfiCond614) NoFunction
        CFI (cfiCond614) Conditional ??CrossCallReturnLabel_251
        CFI (cfiCond614) R24 Frame(CFA_Y, -5)
        CFI (cfiCond614) R25 Frame(CFA_Y, -4)
        CFI (cfiCond614) R26 Frame(CFA_Y, -3)
        CFI (cfiCond614) R27 Frame(CFA_Y, -2)
        CFI (cfiCond614) R4 Frame(CFA_Y, -1)
        CFI (cfiCond614) CFA_SP SP+6
        CFI (cfiCond614) CFA_Y Y+88
        CFI Block cfiCond615 Using cfiCommon0
        CFI (cfiCond615) NoFunction
        CFI (cfiCond615) Conditional ??CrossCallReturnLabel_252
        CFI (cfiCond615) R24 Frame(CFA_Y, -5)
        CFI (cfiCond615) R25 Frame(CFA_Y, -4)
        CFI (cfiCond615) R26 Frame(CFA_Y, -3)
        CFI (cfiCond615) R27 Frame(CFA_Y, -2)
        CFI (cfiCond615) R4 Frame(CFA_Y, -1)
        CFI (cfiCond615) CFA_SP SP+6
        CFI (cfiCond615) CFA_Y Y+88
        CFI Block cfiCond616 Using cfiCommon0
        CFI (cfiCond616) NoFunction
        CFI (cfiCond616) Conditional ??CrossCallReturnLabel_253
        CFI (cfiCond616) R24 Frame(CFA_Y, -5)
        CFI (cfiCond616) R25 Frame(CFA_Y, -4)
        CFI (cfiCond616) R26 Frame(CFA_Y, -3)
        CFI (cfiCond616) R27 Frame(CFA_Y, -2)
        CFI (cfiCond616) R4 Frame(CFA_Y, -1)
        CFI (cfiCond616) CFA_SP SP+6
        CFI (cfiCond616) CFA_Y Y+88
        CFI Block cfiCond617 Using cfiCommon0
        CFI (cfiCond617) NoFunction
        CFI (cfiCond617) Conditional ??CrossCallReturnLabel_254
        CFI (cfiCond617) R24 Frame(CFA_Y, -5)
        CFI (cfiCond617) R25 Frame(CFA_Y, -4)
        CFI (cfiCond617) R26 Frame(CFA_Y, -3)
        CFI (cfiCond617) R27 Frame(CFA_Y, -2)
        CFI (cfiCond617) R4 Frame(CFA_Y, -1)
        CFI (cfiCond617) CFA_SP SP+6
        CFI (cfiCond617) CFA_Y Y+88
??Subroutine146_2:
        SBCI	R19, 255
        RET
        CFI EndBlock cfiCond578
        CFI EndBlock cfiCond579
        CFI EndBlock cfiCond580
        CFI EndBlock cfiCond581
        CFI EndBlock cfiCond582
        CFI EndBlock cfiPicker583
        CFI EndBlock cfiCond584
        CFI EndBlock cfiCond585
        CFI EndBlock cfiCond586
        CFI EndBlock cfiCond587
        CFI EndBlock cfiCond588
        CFI EndBlock cfiCond589
        CFI EndBlock cfiCond590
        CFI EndBlock cfiCond591
        CFI EndBlock cfiCond592
        CFI EndBlock cfiCond593
        CFI EndBlock cfiCond594
        CFI EndBlock cfiCond595
        CFI EndBlock cfiCond596
        CFI EndBlock cfiCond597
        CFI EndBlock cfiCond598
        CFI EndBlock cfiCond599
        CFI EndBlock cfiCond600
        CFI EndBlock cfiCond601
        CFI EndBlock cfiCond602
        CFI EndBlock cfiCond603
        CFI EndBlock cfiCond604
        CFI EndBlock cfiCond605
        CFI EndBlock cfiCond606
        CFI EndBlock cfiCond607
        CFI EndBlock cfiCond608
        CFI EndBlock cfiCond609
        CFI EndBlock cfiCond610
        CFI EndBlock cfiCond611
        CFI EndBlock cfiCond612
        CFI EndBlock cfiCond613
        CFI EndBlock cfiCond614
        CFI EndBlock cfiCond615
        CFI EndBlock cfiCond616
        CFI EndBlock cfiCond617

        RSEG FARCODE:CODE:NOROOT(1)
?Subroutine58:
        CFI Block cfiCond618 Using cfiCommon0
        CFI NoFunction
        CFI Conditional ??CrossCallReturnLabel_218
        CFI R24 Frame(CFA_Y, -9)
        CFI R25 Frame(CFA_Y, -8)
        CFI R26 Frame(CFA_Y, -7)
        CFI R27 Frame(CFA_Y, -6)
        CFI R4 Frame(CFA_Y, -5)
        CFI R5 Frame(CFA_Y, -4)
        CFI R6 Frame(CFA_Y, -3)
        CFI R7 Frame(CFA_Y, -2)
        CFI R8 Frame(CFA_Y, -1)
        CFI CFA_SP SP+6
        CFI CFA_Y Y+83
        CFI Block cfiCond619 Using cfiCommon0
        CFI (cfiCond619) NoFunction
        CFI (cfiCond619) Conditional ??CrossCallReturnLabel_219
        CFI (cfiCond619) R24 Frame(CFA_Y, -9)
        CFI (cfiCond619) R25 Frame(CFA_Y, -8)
        CFI (cfiCond619) R26 Frame(CFA_Y, -7)
        CFI (cfiCond619) R27 Frame(CFA_Y, -6)
        CFI (cfiCond619) R4 Frame(CFA_Y, -5)
        CFI (cfiCond619) R5 Frame(CFA_Y, -4)
        CFI (cfiCond619) R6 Frame(CFA_Y, -3)
        CFI (cfiCond619) R7 Frame(CFA_Y, -2)
        CFI (cfiCond619) R8 Frame(CFA_Y, -1)
        CFI (cfiCond619) CFA_SP SP+6
        CFI (cfiCond619) CFA_Y Y+83
        CFI Block cfiPicker620 Using cfiCommon1
        CFI (cfiPicker620) NoFunction
        CFI (cfiPicker620) Picker
        LDI	R20, 255
        LDI	R21, 255
        LDI	R18, 8
        LDI	R19, 0
        MOVW	R17:R16, R29:R28
        SUBI	R16, 252
        SBCI	R17, 255
        CALL	crc_m1
        STD	Y+12, R16
        STD	Y+13, R17
        LDI	R23, 0
        LDI	R22, 0
        LDI	R20, 10
        RJMP	??Subroutine146_0
        CFI EndBlock cfiCond618
        CFI EndBlock cfiCond619
        CFI EndBlock cfiPicker620

        RSEG FARCODE:CODE:NOROOT(1)
?Subroutine56:
        CFI Block cfiCond621 Using cfiCommon0
        CFI NoFunction
        CFI Conditional ??CrossCallReturnLabel_361
        CFI CFA_SP SP+6
        CFI CFA_Y Y+70
        CFI Block cfiCond622 Using cfiCommon0
        CFI (cfiCond622) NoFunction
        CFI (cfiCond622) Conditional ??CrossCallReturnLabel_362
        CFI (cfiCond622) R24 Frame(CFA_Y, -9)
        CFI (cfiCond622) R25 Frame(CFA_Y, -8)
        CFI (cfiCond622) R26 Frame(CFA_Y, -7)
        CFI (cfiCond622) R27 Frame(CFA_Y, -6)
        CFI (cfiCond622) R4 Frame(CFA_Y, -5)
        CFI (cfiCond622) R5 Frame(CFA_Y, -4)
        CFI (cfiCond622) R6 Frame(CFA_Y, -3)
        CFI (cfiCond622) R7 Frame(CFA_Y, -2)
        CFI (cfiCond622) R8 Frame(CFA_Y, -1)
        CFI (cfiCond622) CFA_SP SP+6
        CFI (cfiCond622) CFA_Y Y+83
        CFI Block cfiPicker623 Using cfiCommon1
        CFI (cfiPicker623) NoFunction
        CFI (cfiPicker623) Picker
        ADD	R30, R18
        ADC	R31, R17
        ST	Z, R19
        RJMP	?Subroutine161
        CFI EndBlock cfiCond621
        CFI EndBlock cfiCond622
        CFI EndBlock cfiPicker623

        RSEG FARCODE:CODE:NOROOT(1)
?Subroutine47:
        CFI Block cfiCond624 Using cfiCommon0
        CFI NoFunction
        CFI Conditional ??CrossCallReturnLabel_57
        CFI R24 Frame(CFA_Y, -9)
        CFI R25 Frame(CFA_Y, -8)
        CFI R26 Frame(CFA_Y, -7)
        CFI R27 Frame(CFA_Y, -6)
        CFI R4 Frame(CFA_Y, -5)
        CFI R5 Frame(CFA_Y, -4)
        CFI R6 Frame(CFA_Y, -3)
        CFI R7 Frame(CFA_Y, -2)
        CFI R8 Frame(CFA_Y, -1)
        CFI CFA_SP SP+6
        CFI CFA_Y Y+83
        CFI Block cfiCond625 Using cfiCommon0
        CFI (cfiCond625) NoFunction
        CFI (cfiCond625) Conditional ??CrossCallReturnLabel_58
        CFI (cfiCond625) R24 Frame(CFA_Y, -9)
        CFI (cfiCond625) R25 Frame(CFA_Y, -8)
        CFI (cfiCond625) R26 Frame(CFA_Y, -7)
        CFI (cfiCond625) R27 Frame(CFA_Y, -6)
        CFI (cfiCond625) R4 Frame(CFA_Y, -5)
        CFI (cfiCond625) R5 Frame(CFA_Y, -4)
        CFI (cfiCond625) R6 Frame(CFA_Y, -3)
        CFI (cfiCond625) R7 Frame(CFA_Y, -2)
        CFI (cfiCond625) R8 Frame(CFA_Y, -1)
        CFI (cfiCond625) CFA_SP SP+6
        CFI (cfiCond625) CFA_Y Y+83
        CFI Block cfiCond626 Using cfiCommon0
        CFI (cfiCond626) NoFunction
        CFI (cfiCond626) Conditional ??CrossCallReturnLabel_59
        CFI (cfiCond626) R24 Frame(CFA_Y, -9)
        CFI (cfiCond626) R25 Frame(CFA_Y, -8)
        CFI (cfiCond626) R26 Frame(CFA_Y, -7)
        CFI (cfiCond626) R27 Frame(CFA_Y, -6)
        CFI (cfiCond626) R4 Frame(CFA_Y, -5)
        CFI (cfiCond626) R5 Frame(CFA_Y, -4)
        CFI (cfiCond626) R6 Frame(CFA_Y, -3)
        CFI (cfiCond626) R7 Frame(CFA_Y, -2)
        CFI (cfiCond626) R8 Frame(CFA_Y, -1)
        CFI (cfiCond626) CFA_SP SP+6
        CFI (cfiCond626) CFA_Y Y+83
        CFI Block cfiPicker627 Using cfiCommon1
        CFI (cfiPicker627) NoFunction
        CFI (cfiPicker627) Picker
        MOV	R20, R17
        INC	R20
        CFI Block cfiCond628 Using cfiCommon0
        CFI (cfiCond628) NoFunction
        CFI (cfiCond628) Conditional ??CrossCallReturnLabel_60
        CFI (cfiCond628) R24 Frame(CFA_Y, -9)
        CFI (cfiCond628) R25 Frame(CFA_Y, -8)
        CFI (cfiCond628) R26 Frame(CFA_Y, -7)
        CFI (cfiCond628) R27 Frame(CFA_Y, -6)
        CFI (cfiCond628) R4 Frame(CFA_Y, -5)
        CFI (cfiCond628) R5 Frame(CFA_Y, -4)
        CFI (cfiCond628) R6 Frame(CFA_Y, -3)
        CFI (cfiCond628) R7 Frame(CFA_Y, -2)
        CFI (cfiCond628) R8 Frame(CFA_Y, -1)
        CFI (cfiCond628) CFA_SP SP+6
        CFI (cfiCond628) CFA_Y Y+83
        CFI Block cfiCond629 Using cfiCommon0
        CFI (cfiCond629) NoFunction
        CFI (cfiCond629) Conditional ??CrossCallReturnLabel_61
        CFI (cfiCond629) R24 Frame(CFA_Y, -9)
        CFI (cfiCond629) R25 Frame(CFA_Y, -8)
        CFI (cfiCond629) R26 Frame(CFA_Y, -7)
        CFI (cfiCond629) R27 Frame(CFA_Y, -6)
        CFI (cfiCond629) R4 Frame(CFA_Y, -5)
        CFI (cfiCond629) R5 Frame(CFA_Y, -4)
        CFI (cfiCond629) R6 Frame(CFA_Y, -3)
        CFI (cfiCond629) R7 Frame(CFA_Y, -2)
        CFI (cfiCond629) R8 Frame(CFA_Y, -1)
        CFI (cfiCond629) CFA_SP SP+6
        CFI (cfiCond629) CFA_Y Y+83
        CFI Block cfiCond630 Using cfiCommon0
        CFI (cfiCond630) NoFunction
        CFI (cfiCond630) Conditional ??CrossCallReturnLabel_62
        CFI (cfiCond630) R24 Frame(CFA_Y, -9)
        CFI (cfiCond630) R25 Frame(CFA_Y, -8)
        CFI (cfiCond630) R26 Frame(CFA_Y, -7)
        CFI (cfiCond630) R27 Frame(CFA_Y, -6)
        CFI (cfiCond630) R4 Frame(CFA_Y, -5)
        CFI (cfiCond630) R5 Frame(CFA_Y, -4)
        CFI (cfiCond630) R6 Frame(CFA_Y, -3)
        CFI (cfiCond630) R7 Frame(CFA_Y, -2)
        CFI (cfiCond630) R8 Frame(CFA_Y, -1)
        CFI (cfiCond630) CFA_SP SP+6
        CFI (cfiCond630) CFA_Y Y+83
??Subroutine47_0:
        LDI	R18, 0
        INC	R16
        MOV	R22, R16
        RET
        CFI EndBlock cfiCond624
        CFI EndBlock cfiCond625
        CFI EndBlock cfiCond626
        CFI EndBlock cfiPicker627
        CFI EndBlock cfiCond628
        CFI EndBlock cfiCond629
        CFI EndBlock cfiCond630

        RSEG FARCODE:CODE:NOROOT(1)
?Subroutine46:
        CFI Block cfiCond631 Using cfiCommon0
        CFI NoFunction
        CFI Conditional ??CrossCallReturnLabel_352
        CFI R24 Frame(CFA_Y, -9)
        CFI R25 Frame(CFA_Y, -8)
        CFI R26 Frame(CFA_Y, -7)
        CFI R27 Frame(CFA_Y, -6)
        CFI R4 Frame(CFA_Y, -5)
        CFI R5 Frame(CFA_Y, -4)
        CFI R6 Frame(CFA_Y, -3)
        CFI R7 Frame(CFA_Y, -2)
        CFI R8 Frame(CFA_Y, -1)
        CFI CFA_SP SP+6
        CFI CFA_Y Y+83
        CFI Block cfiCond632 Using cfiCommon0
        CFI (cfiCond632) NoFunction
        CFI (cfiCond632) Conditional ??CrossCallReturnLabel_353
        CFI (cfiCond632) R24 Frame(CFA_Y, -9)
        CFI (cfiCond632) R25 Frame(CFA_Y, -8)
        CFI (cfiCond632) R26 Frame(CFA_Y, -7)
        CFI (cfiCond632) R27 Frame(CFA_Y, -6)
        CFI (cfiCond632) R4 Frame(CFA_Y, -5)
        CFI (cfiCond632) R5 Frame(CFA_Y, -4)
        CFI (cfiCond632) R6 Frame(CFA_Y, -3)
        CFI (cfiCond632) R7 Frame(CFA_Y, -2)
        CFI (cfiCond632) R8 Frame(CFA_Y, -1)
        CFI (cfiCond632) CFA_SP SP+6
        CFI (cfiCond632) CFA_Y Y+83
        CFI Block cfiCond633 Using cfiCommon0
        CFI (cfiCond633) NoFunction
        CFI (cfiCond633) Conditional ??CrossCallReturnLabel_354
        CFI (cfiCond633) R24 Frame(CFA_Y, -9)
        CFI (cfiCond633) R25 Frame(CFA_Y, -8)
        CFI (cfiCond633) R26 Frame(CFA_Y, -7)
        CFI (cfiCond633) R27 Frame(CFA_Y, -6)
        CFI (cfiCond633) R4 Frame(CFA_Y, -5)
        CFI (cfiCond633) R5 Frame(CFA_Y, -4)
        CFI (cfiCond633) R6 Frame(CFA_Y, -3)
        CFI (cfiCond633) R7 Frame(CFA_Y, -2)
        CFI (cfiCond633) R8 Frame(CFA_Y, -1)
        CFI (cfiCond633) CFA_SP SP+6
        CFI (cfiCond633) CFA_Y Y+83
        CFI Block cfiCond634 Using cfiCommon0
        CFI (cfiCond634) NoFunction
        CFI (cfiCond634) Conditional ??CrossCallReturnLabel_355
        CFI (cfiCond634) R24 Frame(CFA_Y, -9)
        CFI (cfiCond634) R25 Frame(CFA_Y, -8)
        CFI (cfiCond634) R26 Frame(CFA_Y, -7)
        CFI (cfiCond634) R27 Frame(CFA_Y, -6)
        CFI (cfiCond634) R4 Frame(CFA_Y, -5)
        CFI (cfiCond634) R5 Frame(CFA_Y, -4)
        CFI (cfiCond634) R6 Frame(CFA_Y, -3)
        CFI (cfiCond634) R7 Frame(CFA_Y, -2)
        CFI (cfiCond634) R8 Frame(CFA_Y, -1)
        CFI (cfiCond634) CFA_SP SP+6
        CFI (cfiCond634) CFA_Y Y+83
        CFI Block cfiCond635 Using cfiCommon0
        CFI (cfiCond635) NoFunction
        CFI (cfiCond635) Conditional ??CrossCallReturnLabel_356
        CFI (cfiCond635) R24 Frame(CFA_Y, -9)
        CFI (cfiCond635) R25 Frame(CFA_Y, -8)
        CFI (cfiCond635) R26 Frame(CFA_Y, -7)
        CFI (cfiCond635) R27 Frame(CFA_Y, -6)
        CFI (cfiCond635) R4 Frame(CFA_Y, -5)
        CFI (cfiCond635) R5 Frame(CFA_Y, -4)
        CFI (cfiCond635) R6 Frame(CFA_Y, -3)
        CFI (cfiCond635) R7 Frame(CFA_Y, -2)
        CFI (cfiCond635) R8 Frame(CFA_Y, -1)
        CFI (cfiCond635) CFA_SP SP+6
        CFI (cfiCond635) CFA_Y Y+83
        CFI Block cfiCond636 Using cfiCommon0
        CFI (cfiCond636) NoFunction
        CFI (cfiCond636) Conditional ??CrossCallReturnLabel_357
        CFI (cfiCond636) R24 Frame(CFA_Y, -9)
        CFI (cfiCond636) R25 Frame(CFA_Y, -8)
        CFI (cfiCond636) R26 Frame(CFA_Y, -7)
        CFI (cfiCond636) R27 Frame(CFA_Y, -6)
        CFI (cfiCond636) R4 Frame(CFA_Y, -5)
        CFI (cfiCond636) R5 Frame(CFA_Y, -4)
        CFI (cfiCond636) R6 Frame(CFA_Y, -3)
        CFI (cfiCond636) R7 Frame(CFA_Y, -2)
        CFI (cfiCond636) R8 Frame(CFA_Y, -1)
        CFI (cfiCond636) CFA_SP SP+6
        CFI (cfiCond636) CFA_Y Y+83
        CFI Block cfiCond637 Using cfiCommon0
        CFI (cfiCond637) NoFunction
        CFI (cfiCond637) Conditional ??CrossCallReturnLabel_358
        CFI (cfiCond637) R24 Frame(CFA_Y, -9)
        CFI (cfiCond637) R25 Frame(CFA_Y, -8)
        CFI (cfiCond637) R26 Frame(CFA_Y, -7)
        CFI (cfiCond637) R27 Frame(CFA_Y, -6)
        CFI (cfiCond637) R4 Frame(CFA_Y, -5)
        CFI (cfiCond637) R5 Frame(CFA_Y, -4)
        CFI (cfiCond637) R6 Frame(CFA_Y, -3)
        CFI (cfiCond637) R7 Frame(CFA_Y, -2)
        CFI (cfiCond637) R8 Frame(CFA_Y, -1)
        CFI (cfiCond637) CFA_SP SP+6
        CFI (cfiCond637) CFA_Y Y+83
        CFI Block cfiCond638 Using cfiCommon0
        CFI (cfiCond638) NoFunction
        CFI (cfiCond638) Conditional ??CrossCallReturnLabel_359
        CFI (cfiCond638) R24 Frame(CFA_Y, -9)
        CFI (cfiCond638) R25 Frame(CFA_Y, -8)
        CFI (cfiCond638) R26 Frame(CFA_Y, -7)
        CFI (cfiCond638) R27 Frame(CFA_Y, -6)
        CFI (cfiCond638) R4 Frame(CFA_Y, -5)
        CFI (cfiCond638) R5 Frame(CFA_Y, -4)
        CFI (cfiCond638) R6 Frame(CFA_Y, -3)
        CFI (cfiCond638) R7 Frame(CFA_Y, -2)
        CFI (cfiCond638) R8 Frame(CFA_Y, -1)
        CFI (cfiCond638) CFA_SP SP+6
        CFI (cfiCond638) CFA_Y Y+83
        CFI Block cfiCond639 Using cfiCommon0
        CFI (cfiCond639) NoFunction
        CFI (cfiCond639) Conditional ??CrossCallReturnLabel_360
        CFI (cfiCond639) R24 Frame(CFA_Y, -9)
        CFI (cfiCond639) R25 Frame(CFA_Y, -8)
        CFI (cfiCond639) R26 Frame(CFA_Y, -7)
        CFI (cfiCond639) R27 Frame(CFA_Y, -6)
        CFI (cfiCond639) R4 Frame(CFA_Y, -5)
        CFI (cfiCond639) R5 Frame(CFA_Y, -4)
        CFI (cfiCond639) R6 Frame(CFA_Y, -3)
        CFI (cfiCond639) R7 Frame(CFA_Y, -2)
        CFI (cfiCond639) R8 Frame(CFA_Y, -1)
        CFI (cfiCond639) CFA_SP SP+6
        CFI (cfiCond639) CFA_Y Y+83
        CFI Block cfiPicker640 Using cfiCommon1
        CFI (cfiPicker640) NoFunction
        CFI (cfiPicker640) Picker
        INC	R16
        RJMP	?Subroutine161
        CFI EndBlock cfiCond631
        CFI EndBlock cfiCond632
        CFI EndBlock cfiCond633
        CFI EndBlock cfiCond634
        CFI EndBlock cfiCond635
        CFI EndBlock cfiCond636
        CFI EndBlock cfiCond637
        CFI EndBlock cfiCond638
        CFI EndBlock cfiCond639
        CFI EndBlock cfiPicker640

        RSEG FARCODE:CODE:NOROOT(1)
?Subroutine39:
        CFI Block cfiCond641 Using cfiCommon0
        CFI NoFunction
        CFI Conditional ??CrossCallReturnLabel_338
        CFI R24 Frame(CFA_Y, -9)
        CFI R25 Frame(CFA_Y, -8)
        CFI R26 Frame(CFA_Y, -7)
        CFI R27 Frame(CFA_Y, -6)
        CFI R4 Frame(CFA_Y, -5)
        CFI R5 Frame(CFA_Y, -4)
        CFI R6 Frame(CFA_Y, -3)
        CFI R7 Frame(CFA_Y, -2)
        CFI R8 Frame(CFA_Y, -1)
        CFI CFA_SP SP+6
        CFI CFA_Y Y+83
        CFI Block cfiCond642 Using cfiCommon0
        CFI (cfiCond642) NoFunction
        CFI (cfiCond642) Conditional ??CrossCallReturnLabel_339
        CFI (cfiCond642) R24 Frame(CFA_Y, -9)
        CFI (cfiCond642) R25 Frame(CFA_Y, -8)
        CFI (cfiCond642) R26 Frame(CFA_Y, -7)
        CFI (cfiCond642) R27 Frame(CFA_Y, -6)
        CFI (cfiCond642) R4 Frame(CFA_Y, -5)
        CFI (cfiCond642) R5 Frame(CFA_Y, -4)
        CFI (cfiCond642) R6 Frame(CFA_Y, -3)
        CFI (cfiCond642) R7 Frame(CFA_Y, -2)
        CFI (cfiCond642) R8 Frame(CFA_Y, -1)
        CFI (cfiCond642) CFA_SP SP+6
        CFI (cfiCond642) CFA_Y Y+83
        CFI Block cfiPicker643 Using cfiCommon1
        CFI (cfiPicker643) NoFunction
        CFI (cfiPicker643) Picker
        LDI	R30, LOW(vol_tx_ppp)
        LDI	R31, (vol_tx_ppp) >> 8
        LD	R16, Z
        LDD	R17, Z+1
        CPI	R16, 2
        LDI	R18, 0
        RJMP	?Subroutine160
        CFI EndBlock cfiCond641
        CFI EndBlock cfiCond642
        CFI EndBlock cfiPicker643

        RSEG FARCODE:CODE:NOROOT(1)
?Subroutine36:
        CFI Block cfiCond644 Using cfiCommon0
        CFI NoFunction
        CFI Conditional ??CrossCallReturnLabel_335
        CFI R24 Frame(CFA_Y, -9)
        CFI R25 Frame(CFA_Y, -8)
        CFI R26 Frame(CFA_Y, -7)
        CFI R27 Frame(CFA_Y, -6)
        CFI R4 Frame(CFA_Y, -5)
        CFI R5 Frame(CFA_Y, -4)
        CFI R6 Frame(CFA_Y, -3)
        CFI R7 Frame(CFA_Y, -2)
        CFI R8 Frame(CFA_Y, -1)
        CFI CFA_SP SP+6
        CFI CFA_Y Y+83
        CFI Block cfiCond645 Using cfiCommon0
        CFI (cfiCond645) NoFunction
        CFI (cfiCond645) Conditional ??CrossCallReturnLabel_336
        CFI (cfiCond645) R24 Frame(CFA_Y, -9)
        CFI (cfiCond645) R25 Frame(CFA_Y, -8)
        CFI (cfiCond645) R26 Frame(CFA_Y, -7)
        CFI (cfiCond645) R27 Frame(CFA_Y, -6)
        CFI (cfiCond645) R4 Frame(CFA_Y, -5)
        CFI (cfiCond645) R5 Frame(CFA_Y, -4)
        CFI (cfiCond645) R6 Frame(CFA_Y, -3)
        CFI (cfiCond645) R7 Frame(CFA_Y, -2)
        CFI (cfiCond645) R8 Frame(CFA_Y, -1)
        CFI (cfiCond645) CFA_SP SP+6
        CFI (cfiCond645) CFA_Y Y+83
        CFI Block cfiCond646 Using cfiCommon0
        CFI (cfiCond646) NoFunction
        CFI (cfiCond646) Conditional ??CrossCallReturnLabel_337
        CFI (cfiCond646) R24 Frame(CFA_Y, -9)
        CFI (cfiCond646) R25 Frame(CFA_Y, -8)
        CFI (cfiCond646) R26 Frame(CFA_Y, -7)
        CFI (cfiCond646) R27 Frame(CFA_Y, -6)
        CFI (cfiCond646) R4 Frame(CFA_Y, -5)
        CFI (cfiCond646) R5 Frame(CFA_Y, -4)
        CFI (cfiCond646) R6 Frame(CFA_Y, -3)
        CFI (cfiCond646) R7 Frame(CFA_Y, -2)
        CFI (cfiCond646) R8 Frame(CFA_Y, -1)
        CFI (cfiCond646) CFA_SP SP+6
        CFI (cfiCond646) CFA_Y Y+83
        CFI Block cfiPicker647 Using cfiCommon1
        CFI (cfiPicker647) NoFunction
        CFI (cfiPicker647) Picker
        LDD	R17, Z+1
        CPI	R24, 61
        LDI	R21, 0
        CFI EndBlock cfiCond644
        CFI EndBlock cfiCond645
        CFI EndBlock cfiCond646
        CFI EndBlock cfiPicker647
        REQUIRE ?Subroutine160
        ;		// Fall through to label ?Subroutine160

        RSEG FARCODE:CODE:NOROOT(1)
?Subroutine160:
        CFI Block cfiCond648 Using cfiCommon0
        CFI NoFunction
        CFI Conditional ??CrossCallReturnLabel_342
        CFI R24 Frame(CFA_Y, -9)
        CFI R25 Frame(CFA_Y, -8)
        CFI R26 Frame(CFA_Y, -7)
        CFI R27 Frame(CFA_Y, -6)
        CFI R4 Frame(CFA_Y, -5)
        CFI R5 Frame(CFA_Y, -4)
        CFI R6 Frame(CFA_Y, -3)
        CFI R7 Frame(CFA_Y, -2)
        CFI R8 Frame(CFA_Y, -1)
        CFI CFA_SP SP+6
        CFI CFA_Y Y+83
        CFI Block cfiCond649 Using cfiCommon0
        CFI (cfiCond649) NoFunction
        CFI (cfiCond649) Conditional ??CrossCallReturnLabel_343
        CFI (cfiCond649) R24 Frame(CFA_Y, -9)
        CFI (cfiCond649) R25 Frame(CFA_Y, -8)
        CFI (cfiCond649) R26 Frame(CFA_Y, -7)
        CFI (cfiCond649) R27 Frame(CFA_Y, -6)
        CFI (cfiCond649) R4 Frame(CFA_Y, -5)
        CFI (cfiCond649) R5 Frame(CFA_Y, -4)
        CFI (cfiCond649) R6 Frame(CFA_Y, -3)
        CFI (cfiCond649) R7 Frame(CFA_Y, -2)
        CFI (cfiCond649) R8 Frame(CFA_Y, -1)
        CFI (cfiCond649) CFA_SP SP+6
        CFI (cfiCond649) CFA_Y Y+83
        CFI Block cfiCond650 Using cfiCommon0
        CFI (cfiCond650) NoFunction
        CFI (cfiCond650) Conditional ??CrossCallReturnLabel_340
        CFI (cfiCond650) R24 Frame(CFA_Y, -9)
        CFI (cfiCond650) R25 Frame(CFA_Y, -8)
        CFI (cfiCond650) R26 Frame(CFA_Y, -7)
        CFI (cfiCond650) R27 Frame(CFA_Y, -6)
        CFI (cfiCond650) R4 Frame(CFA_Y, -5)
        CFI (cfiCond650) R5 Frame(CFA_Y, -4)
        CFI (cfiCond650) R6 Frame(CFA_Y, -3)
        CFI (cfiCond650) R7 Frame(CFA_Y, -2)
        CFI (cfiCond650) R8 Frame(CFA_Y, -1)
        CFI (cfiCond650) CFA_SP SP+6
        CFI (cfiCond650) CFA_Y Y+83
        CFI Block cfiCond651 Using cfiCommon0
        CFI (cfiCond651) NoFunction
        CFI (cfiCond651) Conditional ??CrossCallReturnLabel_341
        CFI (cfiCond651) R24 Frame(CFA_Y, -9)
        CFI (cfiCond651) R25 Frame(CFA_Y, -8)
        CFI (cfiCond651) R26 Frame(CFA_Y, -7)
        CFI (cfiCond651) R27 Frame(CFA_Y, -6)
        CFI (cfiCond651) R4 Frame(CFA_Y, -5)
        CFI (cfiCond651) R5 Frame(CFA_Y, -4)
        CFI (cfiCond651) R6 Frame(CFA_Y, -3)
        CFI (cfiCond651) R7 Frame(CFA_Y, -2)
        CFI (cfiCond651) R8 Frame(CFA_Y, -1)
        CFI (cfiCond651) CFA_SP SP+6
        CFI (cfiCond651) CFA_Y Y+83
        CFI Block cfiCond652 Using cfiCommon0
        CFI (cfiCond652) NoFunction
        CFI (cfiCond652) Conditional ??CrossCallReturnLabel_338
        CFI (cfiCond652) R24 Frame(CFA_Y, -9)
        CFI (cfiCond652) R25 Frame(CFA_Y, -8)
        CFI (cfiCond652) R26 Frame(CFA_Y, -7)
        CFI (cfiCond652) R27 Frame(CFA_Y, -6)
        CFI (cfiCond652) R4 Frame(CFA_Y, -5)
        CFI (cfiCond652) R5 Frame(CFA_Y, -4)
        CFI (cfiCond652) R6 Frame(CFA_Y, -3)
        CFI (cfiCond652) R7 Frame(CFA_Y, -2)
        CFI (cfiCond652) R8 Frame(CFA_Y, -1)
        CFI (cfiCond652) CFA_SP SP+6
        CFI (cfiCond652) CFA_Y Y+83
        CFI Block cfiCond653 Using cfiCommon0
        CFI (cfiCond653) NoFunction
        CFI (cfiCond653) Conditional ??CrossCallReturnLabel_339
        CFI (cfiCond653) R24 Frame(CFA_Y, -9)
        CFI (cfiCond653) R25 Frame(CFA_Y, -8)
        CFI (cfiCond653) R26 Frame(CFA_Y, -7)
        CFI (cfiCond653) R27 Frame(CFA_Y, -6)
        CFI (cfiCond653) R4 Frame(CFA_Y, -5)
        CFI (cfiCond653) R5 Frame(CFA_Y, -4)
        CFI (cfiCond653) R6 Frame(CFA_Y, -3)
        CFI (cfiCond653) R7 Frame(CFA_Y, -2)
        CFI (cfiCond653) R8 Frame(CFA_Y, -1)
        CFI (cfiCond653) CFA_SP SP+6
        CFI (cfiCond653) CFA_Y Y+83
        CFI Block cfiCond654 Using cfiCommon0
        CFI (cfiCond654) NoFunction
        CFI (cfiCond654) Conditional ??CrossCallReturnLabel_335
        CFI (cfiCond654) R24 Frame(CFA_Y, -9)
        CFI (cfiCond654) R25 Frame(CFA_Y, -8)
        CFI (cfiCond654) R26 Frame(CFA_Y, -7)
        CFI (cfiCond654) R27 Frame(CFA_Y, -6)
        CFI (cfiCond654) R4 Frame(CFA_Y, -5)
        CFI (cfiCond654) R5 Frame(CFA_Y, -4)
        CFI (cfiCond654) R6 Frame(CFA_Y, -3)
        CFI (cfiCond654) R7 Frame(CFA_Y, -2)
        CFI (cfiCond654) R8 Frame(CFA_Y, -1)
        CFI (cfiCond654) CFA_SP SP+6
        CFI (cfiCond654) CFA_Y Y+83
        CFI Block cfiCond655 Using cfiCommon0
        CFI (cfiCond655) NoFunction
        CFI (cfiCond655) Conditional ??CrossCallReturnLabel_336
        CFI (cfiCond655) R24 Frame(CFA_Y, -9)
        CFI (cfiCond655) R25 Frame(CFA_Y, -8)
        CFI (cfiCond655) R26 Frame(CFA_Y, -7)
        CFI (cfiCond655) R27 Frame(CFA_Y, -6)
        CFI (cfiCond655) R4 Frame(CFA_Y, -5)
        CFI (cfiCond655) R5 Frame(CFA_Y, -4)
        CFI (cfiCond655) R6 Frame(CFA_Y, -3)
        CFI (cfiCond655) R7 Frame(CFA_Y, -2)
        CFI (cfiCond655) R8 Frame(CFA_Y, -1)
        CFI (cfiCond655) CFA_SP SP+6
        CFI (cfiCond655) CFA_Y Y+83
        CFI Block cfiCond656 Using cfiCommon0
        CFI (cfiCond656) NoFunction
        CFI (cfiCond656) Conditional ??CrossCallReturnLabel_337
        CFI (cfiCond656) R24 Frame(CFA_Y, -9)
        CFI (cfiCond656) R25 Frame(CFA_Y, -8)
        CFI (cfiCond656) R26 Frame(CFA_Y, -7)
        CFI (cfiCond656) R27 Frame(CFA_Y, -6)
        CFI (cfiCond656) R4 Frame(CFA_Y, -5)
        CFI (cfiCond656) R5 Frame(CFA_Y, -4)
        CFI (cfiCond656) R6 Frame(CFA_Y, -3)
        CFI (cfiCond656) R7 Frame(CFA_Y, -2)
        CFI (cfiCond656) R8 Frame(CFA_Y, -1)
        CFI (cfiCond656) CFA_SP SP+6
        CFI (cfiCond656) CFA_Y Y+83
        CFI Block cfiCond657 Using cfiCommon0
        CFI (cfiCond657) NoFunction
        CFI (cfiCond657) Conditional ??CrossCallReturnLabel_329
        CFI (cfiCond657) R24 Frame(CFA_Y, -9)
        CFI (cfiCond657) R25 Frame(CFA_Y, -8)
        CFI (cfiCond657) R26 Frame(CFA_Y, -7)
        CFI (cfiCond657) R27 Frame(CFA_Y, -6)
        CFI (cfiCond657) R4 Frame(CFA_Y, -5)
        CFI (cfiCond657) R5 Frame(CFA_Y, -4)
        CFI (cfiCond657) R6 Frame(CFA_Y, -3)
        CFI (cfiCond657) R7 Frame(CFA_Y, -2)
        CFI (cfiCond657) R8 Frame(CFA_Y, -1)
        CFI (cfiCond657) CFA_SP SP+6
        CFI (cfiCond657) CFA_Y Y+83
        CFI Block cfiCond658 Using cfiCommon0
        CFI (cfiCond658) NoFunction
        CFI (cfiCond658) Conditional ??CrossCallReturnLabel_330
        CFI (cfiCond658) R24 Frame(CFA_Y, -9)
        CFI (cfiCond658) R25 Frame(CFA_Y, -8)
        CFI (cfiCond658) R26 Frame(CFA_Y, -7)
        CFI (cfiCond658) R27 Frame(CFA_Y, -6)
        CFI (cfiCond658) R4 Frame(CFA_Y, -5)
        CFI (cfiCond658) R5 Frame(CFA_Y, -4)
        CFI (cfiCond658) R6 Frame(CFA_Y, -3)
        CFI (cfiCond658) R7 Frame(CFA_Y, -2)
        CFI (cfiCond658) R8 Frame(CFA_Y, -1)
        CFI (cfiCond658) CFA_SP SP+6
        CFI (cfiCond658) CFA_Y Y+83
        CFI Block cfiCond659 Using cfiCommon0
        CFI (cfiCond659) NoFunction
        CFI (cfiCond659) Conditional ??CrossCallReturnLabel_332
        CFI (cfiCond659) R24 Frame(CFA_Y, -9)
        CFI (cfiCond659) R25 Frame(CFA_Y, -8)
        CFI (cfiCond659) R26 Frame(CFA_Y, -7)
        CFI (cfiCond659) R27 Frame(CFA_Y, -6)
        CFI (cfiCond659) R4 Frame(CFA_Y, -5)
        CFI (cfiCond659) R5 Frame(CFA_Y, -4)
        CFI (cfiCond659) R6 Frame(CFA_Y, -3)
        CFI (cfiCond659) R7 Frame(CFA_Y, -2)
        CFI (cfiCond659) R8 Frame(CFA_Y, -1)
        CFI (cfiCond659) CFA_SP SP+6
        CFI (cfiCond659) CFA_Y Y+83
        CFI Block cfiCond660 Using cfiCommon0
        CFI (cfiCond660) NoFunction
        CFI (cfiCond660) Conditional ??CrossCallReturnLabel_333
        CFI (cfiCond660) R24 Frame(CFA_Y, -9)
        CFI (cfiCond660) R25 Frame(CFA_Y, -8)
        CFI (cfiCond660) R26 Frame(CFA_Y, -7)
        CFI (cfiCond660) R27 Frame(CFA_Y, -6)
        CFI (cfiCond660) R4 Frame(CFA_Y, -5)
        CFI (cfiCond660) R5 Frame(CFA_Y, -4)
        CFI (cfiCond660) R6 Frame(CFA_Y, -3)
        CFI (cfiCond660) R7 Frame(CFA_Y, -2)
        CFI (cfiCond660) R8 Frame(CFA_Y, -1)
        CFI (cfiCond660) CFA_SP SP+6
        CFI (cfiCond660) CFA_Y Y+83
        CFI Block cfiCond661 Using cfiCommon0
        CFI (cfiCond661) NoFunction
        CFI (cfiCond661) Conditional ??CrossCallReturnLabel_334
        CFI (cfiCond661) R24 Frame(CFA_Y, -9)
        CFI (cfiCond661) R25 Frame(CFA_Y, -8)
        CFI (cfiCond661) R26 Frame(CFA_Y, -7)
        CFI (cfiCond661) R27 Frame(CFA_Y, -6)
        CFI (cfiCond661) R4 Frame(CFA_Y, -5)
        CFI (cfiCond661) R5 Frame(CFA_Y, -4)
        CFI (cfiCond661) R6 Frame(CFA_Y, -3)
        CFI (cfiCond661) R7 Frame(CFA_Y, -2)
        CFI (cfiCond661) R8 Frame(CFA_Y, -1)
        CFI (cfiCond661) CFA_SP SP+6
        CFI (cfiCond661) CFA_Y Y+83
        CFI Block cfiCond662 Using cfiCommon0
        CFI (cfiCond662) NoFunction
        CFI (cfiCond662) Conditional ??CrossCallReturnLabel_331
        CFI (cfiCond662) R24 Frame(CFA_Y, -9)
        CFI (cfiCond662) R25 Frame(CFA_Y, -8)
        CFI (cfiCond662) R26 Frame(CFA_Y, -7)
        CFI (cfiCond662) R27 Frame(CFA_Y, -6)
        CFI (cfiCond662) R4 Frame(CFA_Y, -5)
        CFI (cfiCond662) R5 Frame(CFA_Y, -4)
        CFI (cfiCond662) R6 Frame(CFA_Y, -3)
        CFI (cfiCond662) R7 Frame(CFA_Y, -2)
        CFI (cfiCond662) R8 Frame(CFA_Y, -1)
        CFI (cfiCond662) CFA_SP SP+6
        CFI (cfiCond662) CFA_Y Y+83
        CFI Block cfiCond663 Using cfiCommon0
        CFI (cfiCond663) NoFunction
        CFI (cfiCond663) Conditional ??CrossCallReturnLabel_344
        CFI (cfiCond663) R24 Frame(CFA_Y, -1)
        CFI (cfiCond663) CFA_SP SP+6
        CFI (cfiCond663) CFA_Y Y+1
        CFI Block cfiCond664 Using cfiCommon0
        CFI (cfiCond664) NoFunction
        CFI (cfiCond664) Conditional ??CrossCallReturnLabel_345
        CFI (cfiCond664) R24 Frame(CFA_Y, -1)
        CFI (cfiCond664) CFA_SP SP+6
        CFI (cfiCond664) CFA_Y Y+1
        CFI Block cfiPicker665 Using cfiCommon1
        CFI (cfiPicker665) NoFunction
        CFI (cfiPicker665) Picker
        SBCI	R17, 0
        RET
        CFI EndBlock cfiCond648
        CFI EndBlock cfiCond649
        CFI EndBlock cfiCond650
        CFI EndBlock cfiCond651
        CFI EndBlock cfiCond652
        CFI EndBlock cfiCond653
        CFI EndBlock cfiCond654
        CFI EndBlock cfiCond655
        CFI EndBlock cfiCond656
        CFI EndBlock cfiCond657
        CFI EndBlock cfiCond658
        CFI EndBlock cfiCond659
        CFI EndBlock cfiCond660
        CFI EndBlock cfiCond661
        CFI EndBlock cfiCond662
        CFI EndBlock cfiCond663
        CFI EndBlock cfiCond664
        CFI EndBlock cfiPicker665

        RSEG FARCODE:CODE:NOROOT(1)
?Subroutine35:
        CFI Block cfiCond666 Using cfiCommon0
        CFI NoFunction
        CFI Conditional ??CrossCallReturnLabel_269
        CFI R24 Frame(CFA_Y, -9)
        CFI R25 Frame(CFA_Y, -8)
        CFI R26 Frame(CFA_Y, -7)
        CFI R27 Frame(CFA_Y, -6)
        CFI R4 Frame(CFA_Y, -5)
        CFI R5 Frame(CFA_Y, -4)
        CFI R6 Frame(CFA_Y, -3)
        CFI R7 Frame(CFA_Y, -2)
        CFI R8 Frame(CFA_Y, -1)
        CFI CFA_SP SP+6
        CFI CFA_Y Y+83
        CFI Block cfiCond667 Using cfiCommon0
        CFI (cfiCond667) NoFunction
        CFI (cfiCond667) Conditional ??CrossCallReturnLabel_270
        CFI (cfiCond667) R24 Frame(CFA_Y, -9)
        CFI (cfiCond667) R25 Frame(CFA_Y, -8)
        CFI (cfiCond667) R26 Frame(CFA_Y, -7)
        CFI (cfiCond667) R27 Frame(CFA_Y, -6)
        CFI (cfiCond667) R4 Frame(CFA_Y, -5)
        CFI (cfiCond667) R5 Frame(CFA_Y, -4)
        CFI (cfiCond667) R6 Frame(CFA_Y, -3)
        CFI (cfiCond667) R7 Frame(CFA_Y, -2)
        CFI (cfiCond667) R8 Frame(CFA_Y, -1)
        CFI (cfiCond667) CFA_SP SP+6
        CFI (cfiCond667) CFA_Y Y+83
        CFI Block cfiCond668 Using cfiCommon0
        CFI (cfiCond668) NoFunction
        CFI (cfiCond668) Conditional ??CrossCallReturnLabel_271
        CFI (cfiCond668) R24 Frame(CFA_Y, -9)
        CFI (cfiCond668) R25 Frame(CFA_Y, -8)
        CFI (cfiCond668) R26 Frame(CFA_Y, -7)
        CFI (cfiCond668) R27 Frame(CFA_Y, -6)
        CFI (cfiCond668) R4 Frame(CFA_Y, -5)
        CFI (cfiCond668) R5 Frame(CFA_Y, -4)
        CFI (cfiCond668) R6 Frame(CFA_Y, -3)
        CFI (cfiCond668) R7 Frame(CFA_Y, -2)
        CFI (cfiCond668) R8 Frame(CFA_Y, -1)
        CFI (cfiCond668) CFA_SP SP+6
        CFI (cfiCond668) CFA_Y Y+83
        CFI Block cfiPicker669 Using cfiCommon1
        CFI (cfiPicker669) NoFunction
        CFI (cfiPicker669) Picker
        MOVW	R31:R30, R27:R26
        ADD	R30, R16
        ADC	R31, R3
        RJMP	??Subroutine148_0
        CFI EndBlock cfiCond666
        CFI EndBlock cfiCond667
        CFI EndBlock cfiCond668
        CFI EndBlock cfiPicker669

        RSEG FARCODE:CODE:NOROOT(1)
?Subroutine34:
        CFI Block cfiCond670 Using cfiCommon0
        CFI NoFunction
        CFI Conditional ??CrossCallReturnLabel_349
        CFI R24 Frame(CFA_Y, -9)
        CFI R25 Frame(CFA_Y, -8)
        CFI R26 Frame(CFA_Y, -7)
        CFI R27 Frame(CFA_Y, -6)
        CFI R4 Frame(CFA_Y, -5)
        CFI R5 Frame(CFA_Y, -4)
        CFI R6 Frame(CFA_Y, -3)
        CFI R7 Frame(CFA_Y, -2)
        CFI R8 Frame(CFA_Y, -1)
        CFI CFA_SP SP+6
        CFI CFA_Y Y+83
        CFI Block cfiCond671 Using cfiCommon0
        CFI (cfiCond671) NoFunction
        CFI (cfiCond671) Conditional ??CrossCallReturnLabel_350
        CFI (cfiCond671) R24 Frame(CFA_Y, -9)
        CFI (cfiCond671) R25 Frame(CFA_Y, -8)
        CFI (cfiCond671) R26 Frame(CFA_Y, -7)
        CFI (cfiCond671) R27 Frame(CFA_Y, -6)
        CFI (cfiCond671) R4 Frame(CFA_Y, -5)
        CFI (cfiCond671) R5 Frame(CFA_Y, -4)
        CFI (cfiCond671) R6 Frame(CFA_Y, -3)
        CFI (cfiCond671) R7 Frame(CFA_Y, -2)
        CFI (cfiCond671) R8 Frame(CFA_Y, -1)
        CFI (cfiCond671) CFA_SP SP+6
        CFI (cfiCond671) CFA_Y Y+83
        CFI Block cfiCond672 Using cfiCommon0
        CFI (cfiCond672) NoFunction
        CFI (cfiCond672) Conditional ??CrossCallReturnLabel_351
        CFI (cfiCond672) R24 Frame(CFA_Y, -9)
        CFI (cfiCond672) R25 Frame(CFA_Y, -8)
        CFI (cfiCond672) R26 Frame(CFA_Y, -7)
        CFI (cfiCond672) R27 Frame(CFA_Y, -6)
        CFI (cfiCond672) R4 Frame(CFA_Y, -5)
        CFI (cfiCond672) R5 Frame(CFA_Y, -4)
        CFI (cfiCond672) R6 Frame(CFA_Y, -3)
        CFI (cfiCond672) R7 Frame(CFA_Y, -2)
        CFI (cfiCond672) R8 Frame(CFA_Y, -1)
        CFI (cfiCond672) CFA_SP SP+6
        CFI (cfiCond672) CFA_Y Y+83
        CFI Block cfiPicker673 Using cfiCommon1
        CFI (cfiPicker673) NoFunction
        CFI (cfiPicker673) Picker
        LDI	R21, 0
        MOVW	R31:R30, R27:R26
        ADD	R30, R18
        ADC	R31, R21
        LDD	R17, Z+1
        MOVW	R31:R30, R29:R28
        ADIW	R31:R30, 4
        ADD	R30, R18
        ADC	R31, R21
        STD	Z+1, R17
        CFI EndBlock cfiCond670
        CFI EndBlock cfiCond671
        CFI EndBlock cfiCond672
        CFI EndBlock cfiPicker673
        REQUIRE ?Subroutine161
        ;		// Fall through to label ?Subroutine161

        RSEG FARCODE:CODE:NOROOT(1)
?Subroutine161:
        CFI Block cfiCond674 Using cfiCommon0
        CFI NoFunction
        CFI Conditional ??CrossCallReturnLabel_361
        CFI CFA_SP SP+6
        CFI CFA_Y Y+70
        CFI Block cfiCond675 Using cfiCommon0
        CFI (cfiCond675) NoFunction
        CFI (cfiCond675) Conditional ??CrossCallReturnLabel_362
        CFI (cfiCond675) R24 Frame(CFA_Y, -9)
        CFI (cfiCond675) R25 Frame(CFA_Y, -8)
        CFI (cfiCond675) R26 Frame(CFA_Y, -7)
        CFI (cfiCond675) R27 Frame(CFA_Y, -6)
        CFI (cfiCond675) R4 Frame(CFA_Y, -5)
        CFI (cfiCond675) R5 Frame(CFA_Y, -4)
        CFI (cfiCond675) R6 Frame(CFA_Y, -3)
        CFI (cfiCond675) R7 Frame(CFA_Y, -2)
        CFI (cfiCond675) R8 Frame(CFA_Y, -1)
        CFI (cfiCond675) CFA_SP SP+6
        CFI (cfiCond675) CFA_Y Y+83
        CFI Block cfiCond676 Using cfiCommon0
        CFI (cfiCond676) NoFunction
        CFI (cfiCond676) Conditional ??CrossCallReturnLabel_352
        CFI (cfiCond676) R24 Frame(CFA_Y, -9)
        CFI (cfiCond676) R25 Frame(CFA_Y, -8)
        CFI (cfiCond676) R26 Frame(CFA_Y, -7)
        CFI (cfiCond676) R27 Frame(CFA_Y, -6)
        CFI (cfiCond676) R4 Frame(CFA_Y, -5)
        CFI (cfiCond676) R5 Frame(CFA_Y, -4)
        CFI (cfiCond676) R6 Frame(CFA_Y, -3)
        CFI (cfiCond676) R7 Frame(CFA_Y, -2)
        CFI (cfiCond676) R8 Frame(CFA_Y, -1)
        CFI (cfiCond676) CFA_SP SP+6
        CFI (cfiCond676) CFA_Y Y+83
        CFI Block cfiCond677 Using cfiCommon0
        CFI (cfiCond677) NoFunction
        CFI (cfiCond677) Conditional ??CrossCallReturnLabel_353
        CFI (cfiCond677) R24 Frame(CFA_Y, -9)
        CFI (cfiCond677) R25 Frame(CFA_Y, -8)
        CFI (cfiCond677) R26 Frame(CFA_Y, -7)
        CFI (cfiCond677) R27 Frame(CFA_Y, -6)
        CFI (cfiCond677) R4 Frame(CFA_Y, -5)
        CFI (cfiCond677) R5 Frame(CFA_Y, -4)
        CFI (cfiCond677) R6 Frame(CFA_Y, -3)
        CFI (cfiCond677) R7 Frame(CFA_Y, -2)
        CFI (cfiCond677) R8 Frame(CFA_Y, -1)
        CFI (cfiCond677) CFA_SP SP+6
        CFI (cfiCond677) CFA_Y Y+83
        CFI Block cfiCond678 Using cfiCommon0
        CFI (cfiCond678) NoFunction
        CFI (cfiCond678) Conditional ??CrossCallReturnLabel_354
        CFI (cfiCond678) R24 Frame(CFA_Y, -9)
        CFI (cfiCond678) R25 Frame(CFA_Y, -8)
        CFI (cfiCond678) R26 Frame(CFA_Y, -7)
        CFI (cfiCond678) R27 Frame(CFA_Y, -6)
        CFI (cfiCond678) R4 Frame(CFA_Y, -5)
        CFI (cfiCond678) R5 Frame(CFA_Y, -4)
        CFI (cfiCond678) R6 Frame(CFA_Y, -3)
        CFI (cfiCond678) R7 Frame(CFA_Y, -2)
        CFI (cfiCond678) R8 Frame(CFA_Y, -1)
        CFI (cfiCond678) CFA_SP SP+6
        CFI (cfiCond678) CFA_Y Y+83
        CFI Block cfiCond679 Using cfiCommon0
        CFI (cfiCond679) NoFunction
        CFI (cfiCond679) Conditional ??CrossCallReturnLabel_355
        CFI (cfiCond679) R24 Frame(CFA_Y, -9)
        CFI (cfiCond679) R25 Frame(CFA_Y, -8)
        CFI (cfiCond679) R26 Frame(CFA_Y, -7)
        CFI (cfiCond679) R27 Frame(CFA_Y, -6)
        CFI (cfiCond679) R4 Frame(CFA_Y, -5)
        CFI (cfiCond679) R5 Frame(CFA_Y, -4)
        CFI (cfiCond679) R6 Frame(CFA_Y, -3)
        CFI (cfiCond679) R7 Frame(CFA_Y, -2)
        CFI (cfiCond679) R8 Frame(CFA_Y, -1)
        CFI (cfiCond679) CFA_SP SP+6
        CFI (cfiCond679) CFA_Y Y+83
        CFI Block cfiCond680 Using cfiCommon0
        CFI (cfiCond680) NoFunction
        CFI (cfiCond680) Conditional ??CrossCallReturnLabel_356
        CFI (cfiCond680) R24 Frame(CFA_Y, -9)
        CFI (cfiCond680) R25 Frame(CFA_Y, -8)
        CFI (cfiCond680) R26 Frame(CFA_Y, -7)
        CFI (cfiCond680) R27 Frame(CFA_Y, -6)
        CFI (cfiCond680) R4 Frame(CFA_Y, -5)
        CFI (cfiCond680) R5 Frame(CFA_Y, -4)
        CFI (cfiCond680) R6 Frame(CFA_Y, -3)
        CFI (cfiCond680) R7 Frame(CFA_Y, -2)
        CFI (cfiCond680) R8 Frame(CFA_Y, -1)
        CFI (cfiCond680) CFA_SP SP+6
        CFI (cfiCond680) CFA_Y Y+83
        CFI Block cfiCond681 Using cfiCommon0
        CFI (cfiCond681) NoFunction
        CFI (cfiCond681) Conditional ??CrossCallReturnLabel_357
        CFI (cfiCond681) R24 Frame(CFA_Y, -9)
        CFI (cfiCond681) R25 Frame(CFA_Y, -8)
        CFI (cfiCond681) R26 Frame(CFA_Y, -7)
        CFI (cfiCond681) R27 Frame(CFA_Y, -6)
        CFI (cfiCond681) R4 Frame(CFA_Y, -5)
        CFI (cfiCond681) R5 Frame(CFA_Y, -4)
        CFI (cfiCond681) R6 Frame(CFA_Y, -3)
        CFI (cfiCond681) R7 Frame(CFA_Y, -2)
        CFI (cfiCond681) R8 Frame(CFA_Y, -1)
        CFI (cfiCond681) CFA_SP SP+6
        CFI (cfiCond681) CFA_Y Y+83
        CFI Block cfiCond682 Using cfiCommon0
        CFI (cfiCond682) NoFunction
        CFI (cfiCond682) Conditional ??CrossCallReturnLabel_358
        CFI (cfiCond682) R24 Frame(CFA_Y, -9)
        CFI (cfiCond682) R25 Frame(CFA_Y, -8)
        CFI (cfiCond682) R26 Frame(CFA_Y, -7)
        CFI (cfiCond682) R27 Frame(CFA_Y, -6)
        CFI (cfiCond682) R4 Frame(CFA_Y, -5)
        CFI (cfiCond682) R5 Frame(CFA_Y, -4)
        CFI (cfiCond682) R6 Frame(CFA_Y, -3)
        CFI (cfiCond682) R7 Frame(CFA_Y, -2)
        CFI (cfiCond682) R8 Frame(CFA_Y, -1)
        CFI (cfiCond682) CFA_SP SP+6
        CFI (cfiCond682) CFA_Y Y+83
        CFI Block cfiCond683 Using cfiCommon0
        CFI (cfiCond683) NoFunction
        CFI (cfiCond683) Conditional ??CrossCallReturnLabel_359
        CFI (cfiCond683) R24 Frame(CFA_Y, -9)
        CFI (cfiCond683) R25 Frame(CFA_Y, -8)
        CFI (cfiCond683) R26 Frame(CFA_Y, -7)
        CFI (cfiCond683) R27 Frame(CFA_Y, -6)
        CFI (cfiCond683) R4 Frame(CFA_Y, -5)
        CFI (cfiCond683) R5 Frame(CFA_Y, -4)
        CFI (cfiCond683) R6 Frame(CFA_Y, -3)
        CFI (cfiCond683) R7 Frame(CFA_Y, -2)
        CFI (cfiCond683) R8 Frame(CFA_Y, -1)
        CFI (cfiCond683) CFA_SP SP+6
        CFI (cfiCond683) CFA_Y Y+83
        CFI Block cfiCond684 Using cfiCommon0
        CFI (cfiCond684) NoFunction
        CFI (cfiCond684) Conditional ??CrossCallReturnLabel_360
        CFI (cfiCond684) R24 Frame(CFA_Y, -9)
        CFI (cfiCond684) R25 Frame(CFA_Y, -8)
        CFI (cfiCond684) R26 Frame(CFA_Y, -7)
        CFI (cfiCond684) R27 Frame(CFA_Y, -6)
        CFI (cfiCond684) R4 Frame(CFA_Y, -5)
        CFI (cfiCond684) R5 Frame(CFA_Y, -4)
        CFI (cfiCond684) R6 Frame(CFA_Y, -3)
        CFI (cfiCond684) R7 Frame(CFA_Y, -2)
        CFI (cfiCond684) R8 Frame(CFA_Y, -1)
        CFI (cfiCond684) CFA_SP SP+6
        CFI (cfiCond684) CFA_Y Y+83
        CFI Block cfiCond685 Using cfiCommon0
        CFI (cfiCond685) NoFunction
        CFI (cfiCond685) Conditional ??CrossCallReturnLabel_349
        CFI (cfiCond685) R24 Frame(CFA_Y, -9)
        CFI (cfiCond685) R25 Frame(CFA_Y, -8)
        CFI (cfiCond685) R26 Frame(CFA_Y, -7)
        CFI (cfiCond685) R27 Frame(CFA_Y, -6)
        CFI (cfiCond685) R4 Frame(CFA_Y, -5)
        CFI (cfiCond685) R5 Frame(CFA_Y, -4)
        CFI (cfiCond685) R6 Frame(CFA_Y, -3)
        CFI (cfiCond685) R7 Frame(CFA_Y, -2)
        CFI (cfiCond685) R8 Frame(CFA_Y, -1)
        CFI (cfiCond685) CFA_SP SP+6
        CFI (cfiCond685) CFA_Y Y+83
        CFI Block cfiCond686 Using cfiCommon0
        CFI (cfiCond686) NoFunction
        CFI (cfiCond686) Conditional ??CrossCallReturnLabel_350
        CFI (cfiCond686) R24 Frame(CFA_Y, -9)
        CFI (cfiCond686) R25 Frame(CFA_Y, -8)
        CFI (cfiCond686) R26 Frame(CFA_Y, -7)
        CFI (cfiCond686) R27 Frame(CFA_Y, -6)
        CFI (cfiCond686) R4 Frame(CFA_Y, -5)
        CFI (cfiCond686) R5 Frame(CFA_Y, -4)
        CFI (cfiCond686) R6 Frame(CFA_Y, -3)
        CFI (cfiCond686) R7 Frame(CFA_Y, -2)
        CFI (cfiCond686) R8 Frame(CFA_Y, -1)
        CFI (cfiCond686) CFA_SP SP+6
        CFI (cfiCond686) CFA_Y Y+83
        CFI Block cfiCond687 Using cfiCommon0
        CFI (cfiCond687) NoFunction
        CFI (cfiCond687) Conditional ??CrossCallReturnLabel_351
        CFI (cfiCond687) R24 Frame(CFA_Y, -9)
        CFI (cfiCond687) R25 Frame(CFA_Y, -8)
        CFI (cfiCond687) R26 Frame(CFA_Y, -7)
        CFI (cfiCond687) R27 Frame(CFA_Y, -6)
        CFI (cfiCond687) R4 Frame(CFA_Y, -5)
        CFI (cfiCond687) R5 Frame(CFA_Y, -4)
        CFI (cfiCond687) R6 Frame(CFA_Y, -3)
        CFI (cfiCond687) R7 Frame(CFA_Y, -2)
        CFI (cfiCond687) R8 Frame(CFA_Y, -1)
        CFI (cfiCond687) CFA_SP SP+6
        CFI (cfiCond687) CFA_Y Y+83
        CFI Block cfiCond688 Using cfiCommon0
        CFI (cfiCond688) NoFunction
        CFI (cfiCond688) Conditional ??CrossCallReturnLabel_346
        CFI (cfiCond688) R24 Frame(CFA_Y, -9)
        CFI (cfiCond688) R25 Frame(CFA_Y, -8)
        CFI (cfiCond688) R26 Frame(CFA_Y, -7)
        CFI (cfiCond688) R27 Frame(CFA_Y, -6)
        CFI (cfiCond688) R4 Frame(CFA_Y, -5)
        CFI (cfiCond688) R5 Frame(CFA_Y, -4)
        CFI (cfiCond688) R6 Frame(CFA_Y, -3)
        CFI (cfiCond688) R7 Frame(CFA_Y, -2)
        CFI (cfiCond688) R8 Frame(CFA_Y, -1)
        CFI (cfiCond688) CFA_SP SP+6
        CFI (cfiCond688) CFA_Y Y+83
        CFI Block cfiCond689 Using cfiCommon0
        CFI (cfiCond689) NoFunction
        CFI (cfiCond689) Conditional ??CrossCallReturnLabel_347
        CFI (cfiCond689) R24 Frame(CFA_Y, -9)
        CFI (cfiCond689) R25 Frame(CFA_Y, -8)
        CFI (cfiCond689) R26 Frame(CFA_Y, -7)
        CFI (cfiCond689) R27 Frame(CFA_Y, -6)
        CFI (cfiCond689) R4 Frame(CFA_Y, -5)
        CFI (cfiCond689) R5 Frame(CFA_Y, -4)
        CFI (cfiCond689) R6 Frame(CFA_Y, -3)
        CFI (cfiCond689) R7 Frame(CFA_Y, -2)
        CFI (cfiCond689) R8 Frame(CFA_Y, -1)
        CFI (cfiCond689) CFA_SP SP+6
        CFI (cfiCond689) CFA_Y Y+83
        CFI Block cfiCond690 Using cfiCommon0
        CFI (cfiCond690) NoFunction
        CFI (cfiCond690) Conditional ??CrossCallReturnLabel_348
        CFI (cfiCond690) R24 Frame(CFA_Y, -9)
        CFI (cfiCond690) R25 Frame(CFA_Y, -8)
        CFI (cfiCond690) R26 Frame(CFA_Y, -7)
        CFI (cfiCond690) R27 Frame(CFA_Y, -6)
        CFI (cfiCond690) R4 Frame(CFA_Y, -5)
        CFI (cfiCond690) R5 Frame(CFA_Y, -4)
        CFI (cfiCond690) R6 Frame(CFA_Y, -3)
        CFI (cfiCond690) R7 Frame(CFA_Y, -2)
        CFI (cfiCond690) R8 Frame(CFA_Y, -1)
        CFI (cfiCond690) CFA_SP SP+6
        CFI (cfiCond690) CFA_Y Y+83
        CFI Block cfiPicker691 Using cfiCommon1
        CFI (cfiPicker691) NoFunction
        CFI (cfiPicker691) Picker
        INC	R18
        RET
        CFI EndBlock cfiCond674
        CFI EndBlock cfiCond675
        CFI EndBlock cfiCond676
        CFI EndBlock cfiCond677
        CFI EndBlock cfiCond678
        CFI EndBlock cfiCond679
        CFI EndBlock cfiCond680
        CFI EndBlock cfiCond681
        CFI EndBlock cfiCond682
        CFI EndBlock cfiCond683
        CFI EndBlock cfiCond684
        CFI EndBlock cfiCond685
        CFI EndBlock cfiCond686
        CFI EndBlock cfiCond687
        CFI EndBlock cfiCond688
        CFI EndBlock cfiCond689
        CFI EndBlock cfiCond690
        CFI EndBlock cfiPicker691

        RSEG FARCODE:CODE:NOROOT(1)
?Subroutine33:
        CFI Block cfiCond692 Using cfiCommon0
        CFI NoFunction
        CFI Conditional ??CrossCallReturnLabel_257
        CFI R24 Frame(CFA_Y, -9)
        CFI R25 Frame(CFA_Y, -8)
        CFI R26 Frame(CFA_Y, -7)
        CFI R27 Frame(CFA_Y, -6)
        CFI R4 Frame(CFA_Y, -5)
        CFI R5 Frame(CFA_Y, -4)
        CFI R6 Frame(CFA_Y, -3)
        CFI R7 Frame(CFA_Y, -2)
        CFI R8 Frame(CFA_Y, -1)
        CFI CFA_SP SP+6
        CFI CFA_Y Y+83
        CFI Block cfiCond693 Using cfiCommon0
        CFI (cfiCond693) NoFunction
        CFI (cfiCond693) Conditional ??CrossCallReturnLabel_258
        CFI (cfiCond693) R24 Frame(CFA_Y, -9)
        CFI (cfiCond693) R25 Frame(CFA_Y, -8)
        CFI (cfiCond693) R26 Frame(CFA_Y, -7)
        CFI (cfiCond693) R27 Frame(CFA_Y, -6)
        CFI (cfiCond693) R4 Frame(CFA_Y, -5)
        CFI (cfiCond693) R5 Frame(CFA_Y, -4)
        CFI (cfiCond693) R6 Frame(CFA_Y, -3)
        CFI (cfiCond693) R7 Frame(CFA_Y, -2)
        CFI (cfiCond693) R8 Frame(CFA_Y, -1)
        CFI (cfiCond693) CFA_SP SP+6
        CFI (cfiCond693) CFA_Y Y+83
        CFI Block cfiCond694 Using cfiCommon0
        CFI (cfiCond694) NoFunction
        CFI (cfiCond694) Conditional ??CrossCallReturnLabel_259
        CFI (cfiCond694) R24 Frame(CFA_Y, -9)
        CFI (cfiCond694) R25 Frame(CFA_Y, -8)
        CFI (cfiCond694) R26 Frame(CFA_Y, -7)
        CFI (cfiCond694) R27 Frame(CFA_Y, -6)
        CFI (cfiCond694) R4 Frame(CFA_Y, -5)
        CFI (cfiCond694) R5 Frame(CFA_Y, -4)
        CFI (cfiCond694) R6 Frame(CFA_Y, -3)
        CFI (cfiCond694) R7 Frame(CFA_Y, -2)
        CFI (cfiCond694) R8 Frame(CFA_Y, -1)
        CFI (cfiCond694) CFA_SP SP+6
        CFI (cfiCond694) CFA_Y Y+83
        CFI Block cfiCond695 Using cfiCommon0
        CFI (cfiCond695) NoFunction
        CFI (cfiCond695) Conditional ??CrossCallReturnLabel_260
        CFI (cfiCond695) R24 Frame(CFA_Y, -9)
        CFI (cfiCond695) R25 Frame(CFA_Y, -8)
        CFI (cfiCond695) R26 Frame(CFA_Y, -7)
        CFI (cfiCond695) R27 Frame(CFA_Y, -6)
        CFI (cfiCond695) R4 Frame(CFA_Y, -5)
        CFI (cfiCond695) R5 Frame(CFA_Y, -4)
        CFI (cfiCond695) R6 Frame(CFA_Y, -3)
        CFI (cfiCond695) R7 Frame(CFA_Y, -2)
        CFI (cfiCond695) R8 Frame(CFA_Y, -1)
        CFI (cfiCond695) CFA_SP SP+6
        CFI (cfiCond695) CFA_Y Y+83
        CFI Block cfiCond696 Using cfiCommon0
        CFI (cfiCond696) NoFunction
        CFI (cfiCond696) Conditional ??CrossCallReturnLabel_261
        CFI (cfiCond696) R24 Frame(CFA_Y, -9)
        CFI (cfiCond696) R25 Frame(CFA_Y, -8)
        CFI (cfiCond696) R26 Frame(CFA_Y, -7)
        CFI (cfiCond696) R27 Frame(CFA_Y, -6)
        CFI (cfiCond696) R4 Frame(CFA_Y, -5)
        CFI (cfiCond696) R5 Frame(CFA_Y, -4)
        CFI (cfiCond696) R6 Frame(CFA_Y, -3)
        CFI (cfiCond696) R7 Frame(CFA_Y, -2)
        CFI (cfiCond696) R8 Frame(CFA_Y, -1)
        CFI (cfiCond696) CFA_SP SP+6
        CFI (cfiCond696) CFA_Y Y+83
        CFI Block cfiCond697 Using cfiCommon0
        CFI (cfiCond697) NoFunction
        CFI (cfiCond697) Conditional ??CrossCallReturnLabel_262
        CFI (cfiCond697) R24 Frame(CFA_Y, -9)
        CFI (cfiCond697) R25 Frame(CFA_Y, -8)
        CFI (cfiCond697) R26 Frame(CFA_Y, -7)
        CFI (cfiCond697) R27 Frame(CFA_Y, -6)
        CFI (cfiCond697) R4 Frame(CFA_Y, -5)
        CFI (cfiCond697) R5 Frame(CFA_Y, -4)
        CFI (cfiCond697) R6 Frame(CFA_Y, -3)
        CFI (cfiCond697) R7 Frame(CFA_Y, -2)
        CFI (cfiCond697) R8 Frame(CFA_Y, -1)
        CFI (cfiCond697) CFA_SP SP+6
        CFI (cfiCond697) CFA_Y Y+83
        CFI Block cfiPicker698 Using cfiCommon1
        CFI (cfiPicker698) NoFunction
        CFI (cfiPicker698) Picker
        INC	R16
        CFI EndBlock cfiCond692
        CFI EndBlock cfiCond693
        CFI EndBlock cfiCond694
        CFI EndBlock cfiCond695
        CFI EndBlock cfiCond696
        CFI EndBlock cfiCond697
        CFI EndBlock cfiPicker698
        REQUIRE ?Subroutine148
        ;		// Fall through to label ?Subroutine148

        RSEG FARCODE:CODE:NOROOT(1)
?Subroutine148:
        CFI Block cfiCond699 Using cfiCommon0
        CFI NoFunction
        CFI Conditional ??CrossCallReturnLabel_257
        CFI R24 Frame(CFA_Y, -9)
        CFI R25 Frame(CFA_Y, -8)
        CFI R26 Frame(CFA_Y, -7)
        CFI R27 Frame(CFA_Y, -6)
        CFI R4 Frame(CFA_Y, -5)
        CFI R5 Frame(CFA_Y, -4)
        CFI R6 Frame(CFA_Y, -3)
        CFI R7 Frame(CFA_Y, -2)
        CFI R8 Frame(CFA_Y, -1)
        CFI CFA_SP SP+6
        CFI CFA_Y Y+83
        CFI Block cfiCond700 Using cfiCommon0
        CFI (cfiCond700) NoFunction
        CFI (cfiCond700) Conditional ??CrossCallReturnLabel_258
        CFI (cfiCond700) R24 Frame(CFA_Y, -9)
        CFI (cfiCond700) R25 Frame(CFA_Y, -8)
        CFI (cfiCond700) R26 Frame(CFA_Y, -7)
        CFI (cfiCond700) R27 Frame(CFA_Y, -6)
        CFI (cfiCond700) R4 Frame(CFA_Y, -5)
        CFI (cfiCond700) R5 Frame(CFA_Y, -4)
        CFI (cfiCond700) R6 Frame(CFA_Y, -3)
        CFI (cfiCond700) R7 Frame(CFA_Y, -2)
        CFI (cfiCond700) R8 Frame(CFA_Y, -1)
        CFI (cfiCond700) CFA_SP SP+6
        CFI (cfiCond700) CFA_Y Y+83
        CFI Block cfiCond701 Using cfiCommon0
        CFI (cfiCond701) NoFunction
        CFI (cfiCond701) Conditional ??CrossCallReturnLabel_259
        CFI (cfiCond701) R24 Frame(CFA_Y, -9)
        CFI (cfiCond701) R25 Frame(CFA_Y, -8)
        CFI (cfiCond701) R26 Frame(CFA_Y, -7)
        CFI (cfiCond701) R27 Frame(CFA_Y, -6)
        CFI (cfiCond701) R4 Frame(CFA_Y, -5)
        CFI (cfiCond701) R5 Frame(CFA_Y, -4)
        CFI (cfiCond701) R6 Frame(CFA_Y, -3)
        CFI (cfiCond701) R7 Frame(CFA_Y, -2)
        CFI (cfiCond701) R8 Frame(CFA_Y, -1)
        CFI (cfiCond701) CFA_SP SP+6
        CFI (cfiCond701) CFA_Y Y+83
        CFI Block cfiCond702 Using cfiCommon0
        CFI (cfiCond702) NoFunction
        CFI (cfiCond702) Conditional ??CrossCallReturnLabel_260
        CFI (cfiCond702) R24 Frame(CFA_Y, -9)
        CFI (cfiCond702) R25 Frame(CFA_Y, -8)
        CFI (cfiCond702) R26 Frame(CFA_Y, -7)
        CFI (cfiCond702) R27 Frame(CFA_Y, -6)
        CFI (cfiCond702) R4 Frame(CFA_Y, -5)
        CFI (cfiCond702) R5 Frame(CFA_Y, -4)
        CFI (cfiCond702) R6 Frame(CFA_Y, -3)
        CFI (cfiCond702) R7 Frame(CFA_Y, -2)
        CFI (cfiCond702) R8 Frame(CFA_Y, -1)
        CFI (cfiCond702) CFA_SP SP+6
        CFI (cfiCond702) CFA_Y Y+83
        CFI Block cfiCond703 Using cfiCommon0
        CFI (cfiCond703) NoFunction
        CFI (cfiCond703) Conditional ??CrossCallReturnLabel_261
        CFI (cfiCond703) R24 Frame(CFA_Y, -9)
        CFI (cfiCond703) R25 Frame(CFA_Y, -8)
        CFI (cfiCond703) R26 Frame(CFA_Y, -7)
        CFI (cfiCond703) R27 Frame(CFA_Y, -6)
        CFI (cfiCond703) R4 Frame(CFA_Y, -5)
        CFI (cfiCond703) R5 Frame(CFA_Y, -4)
        CFI (cfiCond703) R6 Frame(CFA_Y, -3)
        CFI (cfiCond703) R7 Frame(CFA_Y, -2)
        CFI (cfiCond703) R8 Frame(CFA_Y, -1)
        CFI (cfiCond703) CFA_SP SP+6
        CFI (cfiCond703) CFA_Y Y+83
        CFI Block cfiCond704 Using cfiCommon0
        CFI (cfiCond704) NoFunction
        CFI (cfiCond704) Conditional ??CrossCallReturnLabel_262
        CFI (cfiCond704) R24 Frame(CFA_Y, -9)
        CFI (cfiCond704) R25 Frame(CFA_Y, -8)
        CFI (cfiCond704) R26 Frame(CFA_Y, -7)
        CFI (cfiCond704) R27 Frame(CFA_Y, -6)
        CFI (cfiCond704) R4 Frame(CFA_Y, -5)
        CFI (cfiCond704) R5 Frame(CFA_Y, -4)
        CFI (cfiCond704) R6 Frame(CFA_Y, -3)
        CFI (cfiCond704) R7 Frame(CFA_Y, -2)
        CFI (cfiCond704) R8 Frame(CFA_Y, -1)
        CFI (cfiCond704) CFA_SP SP+6
        CFI (cfiCond704) CFA_Y Y+83
        CFI Block cfiCond705 Using cfiCommon0
        CFI (cfiCond705) NoFunction
        CFI (cfiCond705) Conditional ??CrossCallReturnLabel_263
        CFI (cfiCond705) R24 Frame(CFA_Y, -9)
        CFI (cfiCond705) R25 Frame(CFA_Y, -8)
        CFI (cfiCond705) R26 Frame(CFA_Y, -7)
        CFI (cfiCond705) R27 Frame(CFA_Y, -6)
        CFI (cfiCond705) R4 Frame(CFA_Y, -5)
        CFI (cfiCond705) R5 Frame(CFA_Y, -4)
        CFI (cfiCond705) R6 Frame(CFA_Y, -3)
        CFI (cfiCond705) R7 Frame(CFA_Y, -2)
        CFI (cfiCond705) R8 Frame(CFA_Y, -1)
        CFI (cfiCond705) CFA_SP SP+6
        CFI (cfiCond705) CFA_Y Y+83
        CFI Block cfiCond706 Using cfiCommon0
        CFI (cfiCond706) NoFunction
        CFI (cfiCond706) Conditional ??CrossCallReturnLabel_264
        CFI (cfiCond706) R24 Frame(CFA_Y, -9)
        CFI (cfiCond706) R25 Frame(CFA_Y, -8)
        CFI (cfiCond706) R26 Frame(CFA_Y, -7)
        CFI (cfiCond706) R27 Frame(CFA_Y, -6)
        CFI (cfiCond706) R4 Frame(CFA_Y, -5)
        CFI (cfiCond706) R5 Frame(CFA_Y, -4)
        CFI (cfiCond706) R6 Frame(CFA_Y, -3)
        CFI (cfiCond706) R7 Frame(CFA_Y, -2)
        CFI (cfiCond706) R8 Frame(CFA_Y, -1)
        CFI (cfiCond706) CFA_SP SP+6
        CFI (cfiCond706) CFA_Y Y+83
        CFI Block cfiCond707 Using cfiCommon0
        CFI (cfiCond707) NoFunction
        CFI (cfiCond707) Conditional ??CrossCallReturnLabel_265
        CFI (cfiCond707) R24 Frame(CFA_Y, -9)
        CFI (cfiCond707) R25 Frame(CFA_Y, -8)
        CFI (cfiCond707) R26 Frame(CFA_Y, -7)
        CFI (cfiCond707) R27 Frame(CFA_Y, -6)
        CFI (cfiCond707) R4 Frame(CFA_Y, -5)
        CFI (cfiCond707) R5 Frame(CFA_Y, -4)
        CFI (cfiCond707) R6 Frame(CFA_Y, -3)
        CFI (cfiCond707) R7 Frame(CFA_Y, -2)
        CFI (cfiCond707) R8 Frame(CFA_Y, -1)
        CFI (cfiCond707) CFA_SP SP+6
        CFI (cfiCond707) CFA_Y Y+83
        CFI Block cfiCond708 Using cfiCommon0
        CFI (cfiCond708) NoFunction
        CFI (cfiCond708) Conditional ??CrossCallReturnLabel_266
        CFI (cfiCond708) R24 Frame(CFA_Y, -9)
        CFI (cfiCond708) R25 Frame(CFA_Y, -8)
        CFI (cfiCond708) R26 Frame(CFA_Y, -7)
        CFI (cfiCond708) R27 Frame(CFA_Y, -6)
        CFI (cfiCond708) R4 Frame(CFA_Y, -5)
        CFI (cfiCond708) R5 Frame(CFA_Y, -4)
        CFI (cfiCond708) R6 Frame(CFA_Y, -3)
        CFI (cfiCond708) R7 Frame(CFA_Y, -2)
        CFI (cfiCond708) R8 Frame(CFA_Y, -1)
        CFI (cfiCond708) CFA_SP SP+6
        CFI (cfiCond708) CFA_Y Y+83
        CFI Block cfiCond709 Using cfiCommon0
        CFI (cfiCond709) NoFunction
        CFI (cfiCond709) Conditional ??CrossCallReturnLabel_267
        CFI (cfiCond709) R24 Frame(CFA_Y, -9)
        CFI (cfiCond709) R25 Frame(CFA_Y, -8)
        CFI (cfiCond709) R26 Frame(CFA_Y, -7)
        CFI (cfiCond709) R27 Frame(CFA_Y, -6)
        CFI (cfiCond709) R4 Frame(CFA_Y, -5)
        CFI (cfiCond709) R5 Frame(CFA_Y, -4)
        CFI (cfiCond709) R6 Frame(CFA_Y, -3)
        CFI (cfiCond709) R7 Frame(CFA_Y, -2)
        CFI (cfiCond709) R8 Frame(CFA_Y, -1)
        CFI (cfiCond709) CFA_SP SP+6
        CFI (cfiCond709) CFA_Y Y+83
        CFI Block cfiCond710 Using cfiCommon0
        CFI (cfiCond710) NoFunction
        CFI (cfiCond710) Conditional ??CrossCallReturnLabel_268
        CFI (cfiCond710) R24 Frame(CFA_Y, -9)
        CFI (cfiCond710) R25 Frame(CFA_Y, -8)
        CFI (cfiCond710) R26 Frame(CFA_Y, -7)
        CFI (cfiCond710) R27 Frame(CFA_Y, -6)
        CFI (cfiCond710) R4 Frame(CFA_Y, -5)
        CFI (cfiCond710) R5 Frame(CFA_Y, -4)
        CFI (cfiCond710) R6 Frame(CFA_Y, -3)
        CFI (cfiCond710) R7 Frame(CFA_Y, -2)
        CFI (cfiCond710) R8 Frame(CFA_Y, -1)
        CFI (cfiCond710) CFA_SP SP+6
        CFI (cfiCond710) CFA_Y Y+83
        CFI Block cfiPicker711 Using cfiCommon1
        CFI (cfiPicker711) NoFunction
        CFI (cfiPicker711) Picker
        MOVW	R31:R30, R27:R26
        ADD	R30, R16
        ADC	R31, R17
        CFI Block cfiCond712 Using cfiCommon0
        CFI (cfiCond712) NoFunction
        CFI (cfiCond712) Conditional ??CrossCallReturnLabel_269
        CFI (cfiCond712) R24 Frame(CFA_Y, -9)
        CFI (cfiCond712) R25 Frame(CFA_Y, -8)
        CFI (cfiCond712) R26 Frame(CFA_Y, -7)
        CFI (cfiCond712) R27 Frame(CFA_Y, -6)
        CFI (cfiCond712) R4 Frame(CFA_Y, -5)
        CFI (cfiCond712) R5 Frame(CFA_Y, -4)
        CFI (cfiCond712) R6 Frame(CFA_Y, -3)
        CFI (cfiCond712) R7 Frame(CFA_Y, -2)
        CFI (cfiCond712) R8 Frame(CFA_Y, -1)
        CFI (cfiCond712) CFA_SP SP+6
        CFI (cfiCond712) CFA_Y Y+83
        CFI Block cfiCond713 Using cfiCommon0
        CFI (cfiCond713) NoFunction
        CFI (cfiCond713) Conditional ??CrossCallReturnLabel_270
        CFI (cfiCond713) R24 Frame(CFA_Y, -9)
        CFI (cfiCond713) R25 Frame(CFA_Y, -8)
        CFI (cfiCond713) R26 Frame(CFA_Y, -7)
        CFI (cfiCond713) R27 Frame(CFA_Y, -6)
        CFI (cfiCond713) R4 Frame(CFA_Y, -5)
        CFI (cfiCond713) R5 Frame(CFA_Y, -4)
        CFI (cfiCond713) R6 Frame(CFA_Y, -3)
        CFI (cfiCond713) R7 Frame(CFA_Y, -2)
        CFI (cfiCond713) R8 Frame(CFA_Y, -1)
        CFI (cfiCond713) CFA_SP SP+6
        CFI (cfiCond713) CFA_Y Y+83
        CFI Block cfiCond714 Using cfiCommon0
        CFI (cfiCond714) NoFunction
        CFI (cfiCond714) Conditional ??CrossCallReturnLabel_271
        CFI (cfiCond714) R24 Frame(CFA_Y, -9)
        CFI (cfiCond714) R25 Frame(CFA_Y, -8)
        CFI (cfiCond714) R26 Frame(CFA_Y, -7)
        CFI (cfiCond714) R27 Frame(CFA_Y, -6)
        CFI (cfiCond714) R4 Frame(CFA_Y, -5)
        CFI (cfiCond714) R5 Frame(CFA_Y, -4)
        CFI (cfiCond714) R6 Frame(CFA_Y, -3)
        CFI (cfiCond714) R7 Frame(CFA_Y, -2)
        CFI (cfiCond714) R8 Frame(CFA_Y, -1)
        CFI (cfiCond714) CFA_SP SP+6
        CFI (cfiCond714) CFA_Y Y+83
??Subroutine148_0:
        LD	R17, Z
        CPI	R17, 34
        RET
        CFI EndBlock cfiCond699
        CFI EndBlock cfiCond700
        CFI EndBlock cfiCond701
        CFI EndBlock cfiCond702
        CFI EndBlock cfiCond703
        CFI EndBlock cfiCond704
        CFI EndBlock cfiCond705
        CFI EndBlock cfiCond706
        CFI EndBlock cfiCond707
        CFI EndBlock cfiCond708
        CFI EndBlock cfiCond709
        CFI EndBlock cfiCond710
        CFI EndBlock cfiPicker711
        CFI EndBlock cfiCond712
        CFI EndBlock cfiCond713
        CFI EndBlock cfiCond714

        RSEG FARCODE:CODE:NOROOT(1)
?Subroutine32:
        CFI Block cfiCond715 Using cfiCommon0
        CFI NoFunction
        CFI Conditional ??CrossCallReturnLabel_346
        CFI R24 Frame(CFA_Y, -9)
        CFI R25 Frame(CFA_Y, -8)
        CFI R26 Frame(CFA_Y, -7)
        CFI R27 Frame(CFA_Y, -6)
        CFI R4 Frame(CFA_Y, -5)
        CFI R5 Frame(CFA_Y, -4)
        CFI R6 Frame(CFA_Y, -3)
        CFI R7 Frame(CFA_Y, -2)
        CFI R8 Frame(CFA_Y, -1)
        CFI CFA_SP SP+6
        CFI CFA_Y Y+83
        CFI Block cfiCond716 Using cfiCommon0
        CFI (cfiCond716) NoFunction
        CFI (cfiCond716) Conditional ??CrossCallReturnLabel_347
        CFI (cfiCond716) R24 Frame(CFA_Y, -9)
        CFI (cfiCond716) R25 Frame(CFA_Y, -8)
        CFI (cfiCond716) R26 Frame(CFA_Y, -7)
        CFI (cfiCond716) R27 Frame(CFA_Y, -6)
        CFI (cfiCond716) R4 Frame(CFA_Y, -5)
        CFI (cfiCond716) R5 Frame(CFA_Y, -4)
        CFI (cfiCond716) R6 Frame(CFA_Y, -3)
        CFI (cfiCond716) R7 Frame(CFA_Y, -2)
        CFI (cfiCond716) R8 Frame(CFA_Y, -1)
        CFI (cfiCond716) CFA_SP SP+6
        CFI (cfiCond716) CFA_Y Y+83
        CFI Block cfiCond717 Using cfiCommon0
        CFI (cfiCond717) NoFunction
        CFI (cfiCond717) Conditional ??CrossCallReturnLabel_348
        CFI (cfiCond717) R24 Frame(CFA_Y, -9)
        CFI (cfiCond717) R25 Frame(CFA_Y, -8)
        CFI (cfiCond717) R26 Frame(CFA_Y, -7)
        CFI (cfiCond717) R27 Frame(CFA_Y, -6)
        CFI (cfiCond717) R4 Frame(CFA_Y, -5)
        CFI (cfiCond717) R5 Frame(CFA_Y, -4)
        CFI (cfiCond717) R6 Frame(CFA_Y, -3)
        CFI (cfiCond717) R7 Frame(CFA_Y, -2)
        CFI (cfiCond717) R8 Frame(CFA_Y, -1)
        CFI (cfiCond717) CFA_SP SP+6
        CFI (cfiCond717) CFA_Y Y+83
        CFI Block cfiPicker718 Using cfiCommon1
        CFI (cfiPicker718) NoFunction
        CFI (cfiPicker718) Picker
        MOV	R4, R18
        CLR	R5
        MOV	R6, R22
        CLR	R7
        ADD	R6, R18
        ADC	R7, R3
        MOVW	R31:R30, R27:R26
        ADD	R30, R6
        ADC	R31, R7
        LD	R19, Z
        MOVW	R31:R30, R29:R28
        ADIW	R31:R30, 4
        ADD	R4, R20
        ADC	R5, R3
        ADD	R30, R4
        ADC	R31, R5
        STD	Z+1, R19
        RJMP	?Subroutine161
        CFI EndBlock cfiCond715
        CFI EndBlock cfiCond716
        CFI EndBlock cfiCond717
        CFI EndBlock cfiPicker718

        RSEG FARCODE:CODE:NOROOT(1)
?Subroutine31:
        CFI Block cfiCond719 Using cfiCommon0
        CFI NoFunction
        CFI Conditional ??CrossCallReturnLabel_224
        CFI R24 Frame(CFA_Y, -9)
        CFI R25 Frame(CFA_Y, -8)
        CFI R26 Frame(CFA_Y, -7)
        CFI R27 Frame(CFA_Y, -6)
        CFI R4 Frame(CFA_Y, -5)
        CFI R5 Frame(CFA_Y, -4)
        CFI R6 Frame(CFA_Y, -3)
        CFI R7 Frame(CFA_Y, -2)
        CFI R8 Frame(CFA_Y, -1)
        CFI CFA_SP SP+6
        CFI CFA_Y Y+83
        CFI Block cfiCond720 Using cfiCommon0
        CFI (cfiCond720) NoFunction
        CFI (cfiCond720) Conditional ??CrossCallReturnLabel_225
        CFI (cfiCond720) R24 Frame(CFA_Y, -9)
        CFI (cfiCond720) R25 Frame(CFA_Y, -8)
        CFI (cfiCond720) R26 Frame(CFA_Y, -7)
        CFI (cfiCond720) R27 Frame(CFA_Y, -6)
        CFI (cfiCond720) R4 Frame(CFA_Y, -5)
        CFI (cfiCond720) R5 Frame(CFA_Y, -4)
        CFI (cfiCond720) R6 Frame(CFA_Y, -3)
        CFI (cfiCond720) R7 Frame(CFA_Y, -2)
        CFI (cfiCond720) R8 Frame(CFA_Y, -1)
        CFI (cfiCond720) CFA_SP SP+6
        CFI (cfiCond720) CFA_Y Y+83
        CFI Block cfiCond721 Using cfiCommon0
        CFI (cfiCond721) NoFunction
        CFI (cfiCond721) Conditional ??CrossCallReturnLabel_226
        CFI (cfiCond721) R24 Frame(CFA_Y, -9)
        CFI (cfiCond721) R25 Frame(CFA_Y, -8)
        CFI (cfiCond721) R26 Frame(CFA_Y, -7)
        CFI (cfiCond721) R27 Frame(CFA_Y, -6)
        CFI (cfiCond721) R4 Frame(CFA_Y, -5)
        CFI (cfiCond721) R5 Frame(CFA_Y, -4)
        CFI (cfiCond721) R6 Frame(CFA_Y, -3)
        CFI (cfiCond721) R7 Frame(CFA_Y, -2)
        CFI (cfiCond721) R8 Frame(CFA_Y, -1)
        CFI (cfiCond721) CFA_SP SP+6
        CFI (cfiCond721) CFA_Y Y+83
        CFI Block cfiPicker722 Using cfiCommon1
        CFI (cfiPicker722) NoFunction
        CFI (cfiPicker722) Picker
        LDI	R21, 0
        MOVW	R17:R16, R29:R28
        SUBI	R16, 252
        SBCI	R17, 255
        ADD	R16, R20
        ADC	R17, R3
        MOVW	R31:R30, R17:R16
        ST	Z, R18
        LDI	R18, 0
        RJMP	??Subroutine31_0
??Subroutine31_1:
        MOV	R0, R18
        CLR	R1
        MOV	R2, R22
        CLR	R3
        ADD	R2, R18
        ADC	R3, R21
        MOVW	R31:R30, R27:R26
        ADD	R30, R2
        ADC	R31, R3
        LD	R19, Z
        MOVW	R31:R30, R29:R28
        ADIW	R31:R30, 4
        ADD	R0, R20
        ADC	R1, R21
        ADD	R30, R0
        ADC	R31, R1
        STD	Z+1, R19
        INC	R18
??Subroutine31_0:
        MOVW	R31:R30, R17:R16
        LD	R19, Z
        CP	R18, R19
        BRCS	??Subroutine31_1
        RJMP	?Subroutine146
        CFI EndBlock cfiCond719
        CFI EndBlock cfiCond720
        CFI EndBlock cfiCond721
        CFI EndBlock cfiPicker722

        RSEG FARCODE:CODE:NOROOT(1)
?Subroutine28:
        CFI Block cfiCond723 Using cfiCommon0
        CFI NoFunction
        CFI Conditional ??CrossCallReturnLabel_279
        CFI R24 Frame(CFA_Y, -9)
        CFI R25 Frame(CFA_Y, -8)
        CFI R26 Frame(CFA_Y, -7)
        CFI R27 Frame(CFA_Y, -6)
        CFI R4 Frame(CFA_Y, -5)
        CFI R5 Frame(CFA_Y, -4)
        CFI R6 Frame(CFA_Y, -3)
        CFI R7 Frame(CFA_Y, -2)
        CFI R8 Frame(CFA_Y, -1)
        CFI CFA_SP SP+6
        CFI CFA_Y Y+83
        CFI Block cfiCond724 Using cfiCommon0
        CFI (cfiCond724) NoFunction
        CFI (cfiCond724) Conditional ??CrossCallReturnLabel_280
        CFI (cfiCond724) R24 Frame(CFA_Y, -9)
        CFI (cfiCond724) R25 Frame(CFA_Y, -8)
        CFI (cfiCond724) R26 Frame(CFA_Y, -7)
        CFI (cfiCond724) R27 Frame(CFA_Y, -6)
        CFI (cfiCond724) R4 Frame(CFA_Y, -5)
        CFI (cfiCond724) R5 Frame(CFA_Y, -4)
        CFI (cfiCond724) R6 Frame(CFA_Y, -3)
        CFI (cfiCond724) R7 Frame(CFA_Y, -2)
        CFI (cfiCond724) R8 Frame(CFA_Y, -1)
        CFI (cfiCond724) CFA_SP SP+6
        CFI (cfiCond724) CFA_Y Y+83
        CFI Block cfiPicker725 Using cfiCommon1
        CFI (cfiPicker725) NoFunction
        CFI (cfiPicker725) Picker
        LDI	R20, 60
        LDI	R21, 0
        MOVW	R19:R18, R29:R28
        SUBI	R18, 252
        SBCI	R19, 255
        LDI	R16, 250
        LDI	R17, 0
        RJMP	?Subroutine151
        CFI EndBlock cfiCond723
        CFI EndBlock cfiCond724
        CFI EndBlock cfiPicker725

        RSEG FARCODE:CODE:NOROOT(1)
?Subroutine27:
        CFI Block cfiCond726 Using cfiCommon0
        CFI NoFunction
        CFI Conditional ??CrossCallReturnLabel_39
        CFI R24 Frame(CFA_Y, -9)
        CFI R25 Frame(CFA_Y, -8)
        CFI R26 Frame(CFA_Y, -7)
        CFI R27 Frame(CFA_Y, -6)
        CFI R4 Frame(CFA_Y, -5)
        CFI R5 Frame(CFA_Y, -4)
        CFI R6 Frame(CFA_Y, -3)
        CFI R7 Frame(CFA_Y, -2)
        CFI R8 Frame(CFA_Y, -1)
        CFI CFA_SP SP+6
        CFI CFA_Y Y+83
        CFI Block cfiCond727 Using cfiCommon0
        CFI (cfiCond727) NoFunction
        CFI (cfiCond727) Conditional ??CrossCallReturnLabel_40
        CFI (cfiCond727) R24 Frame(CFA_Y, -9)
        CFI (cfiCond727) R25 Frame(CFA_Y, -8)
        CFI (cfiCond727) R26 Frame(CFA_Y, -7)
        CFI (cfiCond727) R27 Frame(CFA_Y, -6)
        CFI (cfiCond727) R4 Frame(CFA_Y, -5)
        CFI (cfiCond727) R5 Frame(CFA_Y, -4)
        CFI (cfiCond727) R6 Frame(CFA_Y, -3)
        CFI (cfiCond727) R7 Frame(CFA_Y, -2)
        CFI (cfiCond727) R8 Frame(CFA_Y, -1)
        CFI (cfiCond727) CFA_SP SP+6
        CFI (cfiCond727) CFA_Y Y+83
        CFI Block cfiPicker728 Using cfiCommon1
        CFI (cfiPicker728) NoFunction
        CFI (cfiPicker728) Picker
        LDI	R20, 11
        LDI	R21, 0
        CFI Block cfiCond729 Using cfiCommon0
        CFI (cfiCond729) NoFunction
        CFI (cfiCond729) Conditional ??CrossCallReturnLabel_41
        CFI (cfiCond729) R24 Frame(CFA_Y, -9)
        CFI (cfiCond729) R25 Frame(CFA_Y, -8)
        CFI (cfiCond729) R26 Frame(CFA_Y, -7)
        CFI (cfiCond729) R27 Frame(CFA_Y, -6)
        CFI (cfiCond729) R4 Frame(CFA_Y, -5)
        CFI (cfiCond729) R5 Frame(CFA_Y, -4)
        CFI (cfiCond729) R6 Frame(CFA_Y, -3)
        CFI (cfiCond729) R7 Frame(CFA_Y, -2)
        CFI (cfiCond729) R8 Frame(CFA_Y, -1)
        CFI (cfiCond729) CFA_SP SP+6
        CFI (cfiCond729) CFA_Y Y+83
??Subroutine27_0:
        MOVW	R19:R18, R29:R28
        SUBI	R18, 252
        SBCI	R19, 255
        LDI	R16, 164
        LDI	R17, 0
        CALL	RdFromFleshToArr
        LD	R16, Y
        RET
        CFI EndBlock cfiCond726
        CFI EndBlock cfiCond727
        CFI EndBlock cfiPicker728
        CFI EndBlock cfiCond729

        RSEG FARCODE:CODE:NOROOT(1)
?Subroutine26:
        CFI Block cfiCond730 Using cfiCommon0
        CFI NoFunction
        CFI Conditional ??CrossCallReturnLabel_31
        CFI R24 Frame(CFA_Y, -9)
        CFI R25 Frame(CFA_Y, -8)
        CFI R26 Frame(CFA_Y, -7)
        CFI R27 Frame(CFA_Y, -6)
        CFI R4 Frame(CFA_Y, -5)
        CFI R5 Frame(CFA_Y, -4)
        CFI R6 Frame(CFA_Y, -3)
        CFI R7 Frame(CFA_Y, -2)
        CFI R8 Frame(CFA_Y, -1)
        CFI CFA_SP SP+6
        CFI CFA_Y Y+83
        CFI Block cfiCond731 Using cfiCommon0
        CFI (cfiCond731) NoFunction
        CFI (cfiCond731) Conditional ??CrossCallReturnLabel_32
        CFI (cfiCond731) R24 Frame(CFA_Y, -9)
        CFI (cfiCond731) R25 Frame(CFA_Y, -8)
        CFI (cfiCond731) R26 Frame(CFA_Y, -7)
        CFI (cfiCond731) R27 Frame(CFA_Y, -6)
        CFI (cfiCond731) R4 Frame(CFA_Y, -5)
        CFI (cfiCond731) R5 Frame(CFA_Y, -4)
        CFI (cfiCond731) R6 Frame(CFA_Y, -3)
        CFI (cfiCond731) R7 Frame(CFA_Y, -2)
        CFI (cfiCond731) R8 Frame(CFA_Y, -1)
        CFI (cfiCond731) CFA_SP SP+6
        CFI (cfiCond731) CFA_Y Y+83
        CFI Block cfiCond732 Using cfiCommon0
        CFI (cfiCond732) NoFunction
        CFI (cfiCond732) Conditional ??CrossCallReturnLabel_33
        CFI (cfiCond732) R24 Frame(CFA_Y, -9)
        CFI (cfiCond732) R25 Frame(CFA_Y, -8)
        CFI (cfiCond732) R26 Frame(CFA_Y, -7)
        CFI (cfiCond732) R27 Frame(CFA_Y, -6)
        CFI (cfiCond732) R4 Frame(CFA_Y, -5)
        CFI (cfiCond732) R5 Frame(CFA_Y, -4)
        CFI (cfiCond732) R6 Frame(CFA_Y, -3)
        CFI (cfiCond732) R7 Frame(CFA_Y, -2)
        CFI (cfiCond732) R8 Frame(CFA_Y, -1)
        CFI (cfiCond732) CFA_SP SP+6
        CFI (cfiCond732) CFA_Y Y+83
        CFI Block cfiCond733 Using cfiCommon0
        CFI (cfiCond733) NoFunction
        CFI (cfiCond733) Conditional ??CrossCallReturnLabel_34
        CFI (cfiCond733) R24 Frame(CFA_Y, -9)
        CFI (cfiCond733) R25 Frame(CFA_Y, -8)
        CFI (cfiCond733) R26 Frame(CFA_Y, -7)
        CFI (cfiCond733) R27 Frame(CFA_Y, -6)
        CFI (cfiCond733) R4 Frame(CFA_Y, -5)
        CFI (cfiCond733) R5 Frame(CFA_Y, -4)
        CFI (cfiCond733) R6 Frame(CFA_Y, -3)
        CFI (cfiCond733) R7 Frame(CFA_Y, -2)
        CFI (cfiCond733) R8 Frame(CFA_Y, -1)
        CFI (cfiCond733) CFA_SP SP+6
        CFI (cfiCond733) CFA_Y Y+83
        CFI Block cfiPicker734 Using cfiCommon1
        CFI (cfiPicker734) NoFunction
        CFI (cfiPicker734) Picker
        LDI	R20, 14
        LDI	R21, 0
        MOVW	R19:R18, R29:R28
        SUBI	R18, 252
        SBCI	R19, 255
        LDI	R16, 150
        CFI Block cfiCond735 Using cfiCommon0
        CFI (cfiCond735) NoFunction
        CFI (cfiCond735) Conditional ??CrossCallReturnLabel_35
        CFI (cfiCond735) R24 Frame(CFA_Y, -9)
        CFI (cfiCond735) R25 Frame(CFA_Y, -8)
        CFI (cfiCond735) R26 Frame(CFA_Y, -7)
        CFI (cfiCond735) R27 Frame(CFA_Y, -6)
        CFI (cfiCond735) R4 Frame(CFA_Y, -5)
        CFI (cfiCond735) R5 Frame(CFA_Y, -4)
        CFI (cfiCond735) R6 Frame(CFA_Y, -3)
        CFI (cfiCond735) R7 Frame(CFA_Y, -2)
        CFI (cfiCond735) R8 Frame(CFA_Y, -1)
        CFI (cfiCond735) CFA_SP SP+6
        CFI (cfiCond735) CFA_Y Y+83
        CFI Block cfiCond736 Using cfiCommon0
        CFI (cfiCond736) NoFunction
        CFI (cfiCond736) Conditional ??CrossCallReturnLabel_36
        CFI (cfiCond736) R24 Frame(CFA_Y, -9)
        CFI (cfiCond736) R25 Frame(CFA_Y, -8)
        CFI (cfiCond736) R26 Frame(CFA_Y, -7)
        CFI (cfiCond736) R27 Frame(CFA_Y, -6)
        CFI (cfiCond736) R4 Frame(CFA_Y, -5)
        CFI (cfiCond736) R5 Frame(CFA_Y, -4)
        CFI (cfiCond736) R6 Frame(CFA_Y, -3)
        CFI (cfiCond736) R7 Frame(CFA_Y, -2)
        CFI (cfiCond736) R8 Frame(CFA_Y, -1)
        CFI (cfiCond736) CFA_SP SP+6
        CFI (cfiCond736) CFA_Y Y+83
        CFI Block cfiCond737 Using cfiCommon0
        CFI (cfiCond737) NoFunction
        CFI (cfiCond737) Conditional ??CrossCallReturnLabel_37
        CFI (cfiCond737) R24 Frame(CFA_Y, -9)
        CFI (cfiCond737) R25 Frame(CFA_Y, -8)
        CFI (cfiCond737) R26 Frame(CFA_Y, -7)
        CFI (cfiCond737) R27 Frame(CFA_Y, -6)
        CFI (cfiCond737) R4 Frame(CFA_Y, -5)
        CFI (cfiCond737) R5 Frame(CFA_Y, -4)
        CFI (cfiCond737) R6 Frame(CFA_Y, -3)
        CFI (cfiCond737) R7 Frame(CFA_Y, -2)
        CFI (cfiCond737) R8 Frame(CFA_Y, -1)
        CFI (cfiCond737) CFA_SP SP+6
        CFI (cfiCond737) CFA_Y Y+83
        CFI Block cfiCond738 Using cfiCommon0
        CFI (cfiCond738) NoFunction
        CFI (cfiCond738) Conditional ??CrossCallReturnLabel_38
        CFI (cfiCond738) R24 Frame(CFA_Y, -9)
        CFI (cfiCond738) R25 Frame(CFA_Y, -8)
        CFI (cfiCond738) R26 Frame(CFA_Y, -7)
        CFI (cfiCond738) R27 Frame(CFA_Y, -6)
        CFI (cfiCond738) R4 Frame(CFA_Y, -5)
        CFI (cfiCond738) R5 Frame(CFA_Y, -4)
        CFI (cfiCond738) R6 Frame(CFA_Y, -3)
        CFI (cfiCond738) R7 Frame(CFA_Y, -2)
        CFI (cfiCond738) R8 Frame(CFA_Y, -1)
        CFI (cfiCond738) CFA_SP SP+6
        CFI (cfiCond738) CFA_Y Y+83
??Subroutine26_0:
        LDI	R17, 0
        CALL	RdFromFleshToArr
        LD	R16, Y
        LDD	R17, Y+1
        RET
        CFI EndBlock cfiCond730
        CFI EndBlock cfiCond731
        CFI EndBlock cfiCond732
        CFI EndBlock cfiCond733
        CFI EndBlock cfiPicker734
        CFI EndBlock cfiCond735
        CFI EndBlock cfiCond736
        CFI EndBlock cfiCond737
        CFI EndBlock cfiCond738

        RSEG FARCODE:CODE:NOROOT(1)
?Subroutine25:
        CFI Block cfiCond739 Using cfiCommon0
        CFI NoFunction
        CFI Conditional ??CrossCallReturnLabel_304
        CFI R24 Frame(CFA_Y, -9)
        CFI R25 Frame(CFA_Y, -8)
        CFI R26 Frame(CFA_Y, -7)
        CFI R27 Frame(CFA_Y, -6)
        CFI R4 Frame(CFA_Y, -5)
        CFI R5 Frame(CFA_Y, -4)
        CFI R6 Frame(CFA_Y, -3)
        CFI R7 Frame(CFA_Y, -2)
        CFI R8 Frame(CFA_Y, -1)
        CFI CFA_SP SP+6
        CFI CFA_Y Y+83
        CFI Block cfiCond740 Using cfiCommon0
        CFI (cfiCond740) NoFunction
        CFI (cfiCond740) Conditional ??CrossCallReturnLabel_305
        CFI (cfiCond740) R24 Frame(CFA_Y, -9)
        CFI (cfiCond740) R25 Frame(CFA_Y, -8)
        CFI (cfiCond740) R26 Frame(CFA_Y, -7)
        CFI (cfiCond740) R27 Frame(CFA_Y, -6)
        CFI (cfiCond740) R4 Frame(CFA_Y, -5)
        CFI (cfiCond740) R5 Frame(CFA_Y, -4)
        CFI (cfiCond740) R6 Frame(CFA_Y, -3)
        CFI (cfiCond740) R7 Frame(CFA_Y, -2)
        CFI (cfiCond740) R8 Frame(CFA_Y, -1)
        CFI (cfiCond740) CFA_SP SP+6
        CFI (cfiCond740) CFA_Y Y+83
        CFI Block cfiPicker741 Using cfiCommon1
        CFI (cfiPicker741) NoFunction
        CFI (cfiPicker741) Picker
        LDI	R17, 0
        CALL	RdFromFleshToArr
        LD	R16, Y
        LDD	R17, Y+1
        JMP	?Subroutine155
        CFI EndBlock cfiCond739
        CFI EndBlock cfiCond740
        CFI EndBlock cfiPicker741

        RSEG FARCODE:CODE:NOROOT(1)
?Subroutine20:
        CFI Block cfiCond742 Using cfiCommon0
        CFI NoFunction
        CFI Conditional ??CrossCallReturnLabel_27
        CFI R24 Frame(CFA_Y, -9)
        CFI R25 Frame(CFA_Y, -8)
        CFI R26 Frame(CFA_Y, -7)
        CFI R27 Frame(CFA_Y, -6)
        CFI R4 Frame(CFA_Y, -5)
        CFI R5 Frame(CFA_Y, -4)
        CFI R6 Frame(CFA_Y, -3)
        CFI R7 Frame(CFA_Y, -2)
        CFI R8 Frame(CFA_Y, -1)
        CFI CFA_SP SP+6
        CFI CFA_Y Y+83
        CFI Block cfiCond743 Using cfiCommon0
        CFI (cfiCond743) NoFunction
        CFI (cfiCond743) Conditional ??CrossCallReturnLabel_28
        CFI (cfiCond743) R24 Frame(CFA_Y, -9)
        CFI (cfiCond743) R25 Frame(CFA_Y, -8)
        CFI (cfiCond743) R26 Frame(CFA_Y, -7)
        CFI (cfiCond743) R27 Frame(CFA_Y, -6)
        CFI (cfiCond743) R4 Frame(CFA_Y, -5)
        CFI (cfiCond743) R5 Frame(CFA_Y, -4)
        CFI (cfiCond743) R6 Frame(CFA_Y, -3)
        CFI (cfiCond743) R7 Frame(CFA_Y, -2)
        CFI (cfiCond743) R8 Frame(CFA_Y, -1)
        CFI (cfiCond743) CFA_SP SP+6
        CFI (cfiCond743) CFA_Y Y+83
        CFI Block cfiPicker744 Using cfiCommon1
        CFI (cfiPicker744) NoFunction
        CFI (cfiPicker744) Picker
        LDI	R16, 60
        LDI	R17, 0
        LDI	R18, 0
        LDI	R19, 0
        CALL	?L_EC_MUL_L03
        CP	R24, R16
        CPC	R25, R17
        CPC	R26, R18
        CPC	R27, R19
        RET
        CFI EndBlock cfiCond742
        CFI EndBlock cfiCond743
        CFI EndBlock cfiPicker744

        RSEG FARCODE:CODE:NOROOT(1)
?Subroutine18:
        CFI Block cfiCond745 Using cfiCommon0
        CFI NoFunction
        CFI Conditional ??CrossCallReturnLabel_21
        CFI R24 Frame(CFA_Y, -9)
        CFI R25 Frame(CFA_Y, -8)
        CFI R26 Frame(CFA_Y, -7)
        CFI R27 Frame(CFA_Y, -6)
        CFI R4 Frame(CFA_Y, -5)
        CFI R5 Frame(CFA_Y, -4)
        CFI R6 Frame(CFA_Y, -3)
        CFI R7 Frame(CFA_Y, -2)
        CFI R8 Frame(CFA_Y, -1)
        CFI CFA_SP SP+6
        CFI CFA_Y Y+83
        CFI Block cfiCond746 Using cfiCommon0
        CFI (cfiCond746) NoFunction
        CFI (cfiCond746) Conditional ??CrossCallReturnLabel_23
        CFI (cfiCond746) R24 Frame(CFA_Y, -9)
        CFI (cfiCond746) R25 Frame(CFA_Y, -8)
        CFI (cfiCond746) R26 Frame(CFA_Y, -7)
        CFI (cfiCond746) R27 Frame(CFA_Y, -6)
        CFI (cfiCond746) R4 Frame(CFA_Y, -5)
        CFI (cfiCond746) R5 Frame(CFA_Y, -4)
        CFI (cfiCond746) R6 Frame(CFA_Y, -3)
        CFI (cfiCond746) R7 Frame(CFA_Y, -2)
        CFI (cfiCond746) R8 Frame(CFA_Y, -1)
        CFI (cfiCond746) CFA_SP SP+6
        CFI (cfiCond746) CFA_Y Y+83
        CFI Block cfiCond747 Using cfiCommon0
        CFI (cfiCond747) NoFunction
        CFI (cfiCond747) Conditional ??CrossCallReturnLabel_25
        CFI (cfiCond747) R24 Frame(CFA_Y, -9)
        CFI (cfiCond747) R25 Frame(CFA_Y, -8)
        CFI (cfiCond747) R26 Frame(CFA_Y, -7)
        CFI (cfiCond747) R27 Frame(CFA_Y, -6)
        CFI (cfiCond747) R4 Frame(CFA_Y, -5)
        CFI (cfiCond747) R5 Frame(CFA_Y, -4)
        CFI (cfiCond747) R6 Frame(CFA_Y, -3)
        CFI (cfiCond747) R7 Frame(CFA_Y, -2)
        CFI (cfiCond747) R8 Frame(CFA_Y, -1)
        CFI (cfiCond747) CFA_SP SP+6
        CFI (cfiCond747) CFA_Y Y+83
        CFI Block cfiPicker748 Using cfiCommon1
        CFI (cfiPicker748) NoFunction
        CFI (cfiPicker748) Picker
        LDI	R30, LOW(vol_tx_ppp)
        LDI	R31, (vol_tx_ppp) >> 8
        LD	R0, Z
        LDD	R1, Z+1
        LDI	R17, 254
        ADD	R0, R17
        LDI	R17, 255
        ADC	R1, R17
        CFI Block cfiCond749 Using cfiCommon0
        CFI (cfiCond749) NoFunction
        CFI (cfiCond749) Conditional ??CrossCallReturnLabel_22
        CFI (cfiCond749) R24 Frame(CFA_Y, -9)
        CFI (cfiCond749) R25 Frame(CFA_Y, -8)
        CFI (cfiCond749) R26 Frame(CFA_Y, -7)
        CFI (cfiCond749) R27 Frame(CFA_Y, -6)
        CFI (cfiCond749) R4 Frame(CFA_Y, -5)
        CFI (cfiCond749) R5 Frame(CFA_Y, -4)
        CFI (cfiCond749) R6 Frame(CFA_Y, -3)
        CFI (cfiCond749) R7 Frame(CFA_Y, -2)
        CFI (cfiCond749) R8 Frame(CFA_Y, -1)
        CFI (cfiCond749) CFA_SP SP+6
        CFI (cfiCond749) CFA_Y Y+83
        CFI Block cfiCond750 Using cfiCommon0
        CFI (cfiCond750) NoFunction
        CFI (cfiCond750) Conditional ??CrossCallReturnLabel_24
        CFI (cfiCond750) R24 Frame(CFA_Y, -9)
        CFI (cfiCond750) R25 Frame(CFA_Y, -8)
        CFI (cfiCond750) R26 Frame(CFA_Y, -7)
        CFI (cfiCond750) R27 Frame(CFA_Y, -6)
        CFI (cfiCond750) R4 Frame(CFA_Y, -5)
        CFI (cfiCond750) R5 Frame(CFA_Y, -4)
        CFI (cfiCond750) R6 Frame(CFA_Y, -3)
        CFI (cfiCond750) R7 Frame(CFA_Y, -2)
        CFI (cfiCond750) R8 Frame(CFA_Y, -1)
        CFI (cfiCond750) CFA_SP SP+6
        CFI (cfiCond750) CFA_Y Y+83
        CFI Block cfiCond751 Using cfiCommon0
        CFI (cfiCond751) NoFunction
        CFI (cfiCond751) Conditional ??CrossCallReturnLabel_26
        CFI (cfiCond751) R24 Frame(CFA_Y, -9)
        CFI (cfiCond751) R25 Frame(CFA_Y, -8)
        CFI (cfiCond751) R26 Frame(CFA_Y, -7)
        CFI (cfiCond751) R27 Frame(CFA_Y, -6)
        CFI (cfiCond751) R4 Frame(CFA_Y, -5)
        CFI (cfiCond751) R5 Frame(CFA_Y, -4)
        CFI (cfiCond751) R6 Frame(CFA_Y, -3)
        CFI (cfiCond751) R7 Frame(CFA_Y, -2)
        CFI (cfiCond751) R8 Frame(CFA_Y, -1)
        CFI (cfiCond751) CFA_SP SP+6
        CFI (cfiCond751) CFA_Y Y+83
??Subroutine18_0:
        LDI	R17, 0
        CP	R16, R0
        CPC	R17, R1
        RET
        CFI EndBlock cfiCond745
        CFI EndBlock cfiCond746
        CFI EndBlock cfiCond747
        CFI EndBlock cfiPicker748
        CFI EndBlock cfiCond749
        CFI EndBlock cfiCond750
        CFI EndBlock cfiCond751

        RSEG FARCODE:CODE:NOROOT(1)
?Subroutine15:
        CFI Block cfiCond752 Using cfiCommon0
        CFI NoFunction
        CFI Conditional ??CrossCallReturnLabel_12
        CFI R24 Frame(CFA_Y, -9)
        CFI R25 Frame(CFA_Y, -8)
        CFI R26 Frame(CFA_Y, -7)
        CFI R27 Frame(CFA_Y, -6)
        CFI R4 Frame(CFA_Y, -5)
        CFI R5 Frame(CFA_Y, -4)
        CFI R6 Frame(CFA_Y, -3)
        CFI R7 Frame(CFA_Y, -2)
        CFI R8 Frame(CFA_Y, -1)
        CFI CFA_SP SP+6
        CFI CFA_Y Y+83
        CFI Block cfiCond753 Using cfiCommon0
        CFI (cfiCond753) NoFunction
        CFI (cfiCond753) Conditional ??CrossCallReturnLabel_15
        CFI (cfiCond753) R24 Frame(CFA_Y, -9)
        CFI (cfiCond753) R25 Frame(CFA_Y, -8)
        CFI (cfiCond753) R26 Frame(CFA_Y, -7)
        CFI (cfiCond753) R27 Frame(CFA_Y, -6)
        CFI (cfiCond753) R4 Frame(CFA_Y, -5)
        CFI (cfiCond753) R5 Frame(CFA_Y, -4)
        CFI (cfiCond753) R6 Frame(CFA_Y, -3)
        CFI (cfiCond753) R7 Frame(CFA_Y, -2)
        CFI (cfiCond753) R8 Frame(CFA_Y, -1)
        CFI (cfiCond753) CFA_SP SP+6
        CFI (cfiCond753) CFA_Y Y+83
        CFI Block cfiCond754 Using cfiCommon0
        CFI (cfiCond754) NoFunction
        CFI (cfiCond754) Conditional ??CrossCallReturnLabel_18
        CFI (cfiCond754) R24 Frame(CFA_Y, -9)
        CFI (cfiCond754) R25 Frame(CFA_Y, -8)
        CFI (cfiCond754) R26 Frame(CFA_Y, -7)
        CFI (cfiCond754) R27 Frame(CFA_Y, -6)
        CFI (cfiCond754) R4 Frame(CFA_Y, -5)
        CFI (cfiCond754) R5 Frame(CFA_Y, -4)
        CFI (cfiCond754) R6 Frame(CFA_Y, -3)
        CFI (cfiCond754) R7 Frame(CFA_Y, -2)
        CFI (cfiCond754) R8 Frame(CFA_Y, -1)
        CFI (cfiCond754) CFA_SP SP+6
        CFI (cfiCond754) CFA_Y Y+83
        CFI Block cfiPicker755 Using cfiCommon1
        CFI (cfiPicker755) NoFunction
        CFI (cfiPicker755) Picker
        LDI	R30, LOW(vol_tx_ppp)
        LDI	R31, (vol_tx_ppp) >> 8
        LD	R24, Z
        LDD	R25, Z+1
        SBIW	R25:R24, 1
        CFI Block cfiCond756 Using cfiCommon0
        CFI (cfiCond756) NoFunction
        CFI (cfiCond756) Conditional ??CrossCallReturnLabel_13
        CFI (cfiCond756) R24 Frame(CFA_Y, -9)
        CFI (cfiCond756) R25 Frame(CFA_Y, -8)
        CFI (cfiCond756) R26 Frame(CFA_Y, -7)
        CFI (cfiCond756) R27 Frame(CFA_Y, -6)
        CFI (cfiCond756) R4 Frame(CFA_Y, -5)
        CFI (cfiCond756) R5 Frame(CFA_Y, -4)
        CFI (cfiCond756) R6 Frame(CFA_Y, -3)
        CFI (cfiCond756) R7 Frame(CFA_Y, -2)
        CFI (cfiCond756) R8 Frame(CFA_Y, -1)
        CFI (cfiCond756) CFA_SP SP+6
        CFI (cfiCond756) CFA_Y Y+83
        CFI Block cfiCond757 Using cfiCommon0
        CFI (cfiCond757) NoFunction
        CFI (cfiCond757) Conditional ??CrossCallReturnLabel_14
        CFI (cfiCond757) R24 Frame(CFA_Y, -9)
        CFI (cfiCond757) R25 Frame(CFA_Y, -8)
        CFI (cfiCond757) R26 Frame(CFA_Y, -7)
        CFI (cfiCond757) R27 Frame(CFA_Y, -6)
        CFI (cfiCond757) R4 Frame(CFA_Y, -5)
        CFI (cfiCond757) R5 Frame(CFA_Y, -4)
        CFI (cfiCond757) R6 Frame(CFA_Y, -3)
        CFI (cfiCond757) R7 Frame(CFA_Y, -2)
        CFI (cfiCond757) R8 Frame(CFA_Y, -1)
        CFI (cfiCond757) CFA_SP SP+6
        CFI (cfiCond757) CFA_Y Y+83
        CFI Block cfiCond758 Using cfiCommon0
        CFI (cfiCond758) NoFunction
        CFI (cfiCond758) Conditional ??CrossCallReturnLabel_16
        CFI (cfiCond758) R24 Frame(CFA_Y, -9)
        CFI (cfiCond758) R25 Frame(CFA_Y, -8)
        CFI (cfiCond758) R26 Frame(CFA_Y, -7)
        CFI (cfiCond758) R27 Frame(CFA_Y, -6)
        CFI (cfiCond758) R4 Frame(CFA_Y, -5)
        CFI (cfiCond758) R5 Frame(CFA_Y, -4)
        CFI (cfiCond758) R6 Frame(CFA_Y, -3)
        CFI (cfiCond758) R7 Frame(CFA_Y, -2)
        CFI (cfiCond758) R8 Frame(CFA_Y, -1)
        CFI (cfiCond758) CFA_SP SP+6
        CFI (cfiCond758) CFA_Y Y+83
        CFI Block cfiCond759 Using cfiCommon0
        CFI (cfiCond759) NoFunction
        CFI (cfiCond759) Conditional ??CrossCallReturnLabel_17
        CFI (cfiCond759) R24 Frame(CFA_Y, -9)
        CFI (cfiCond759) R25 Frame(CFA_Y, -8)
        CFI (cfiCond759) R26 Frame(CFA_Y, -7)
        CFI (cfiCond759) R27 Frame(CFA_Y, -6)
        CFI (cfiCond759) R4 Frame(CFA_Y, -5)
        CFI (cfiCond759) R5 Frame(CFA_Y, -4)
        CFI (cfiCond759) R6 Frame(CFA_Y, -3)
        CFI (cfiCond759) R7 Frame(CFA_Y, -2)
        CFI (cfiCond759) R8 Frame(CFA_Y, -1)
        CFI (cfiCond759) CFA_SP SP+6
        CFI (cfiCond759) CFA_Y Y+83
        CFI Block cfiCond760 Using cfiCommon0
        CFI (cfiCond760) NoFunction
        CFI (cfiCond760) Conditional ??CrossCallReturnLabel_19
        CFI (cfiCond760) R24 Frame(CFA_Y, -9)
        CFI (cfiCond760) R25 Frame(CFA_Y, -8)
        CFI (cfiCond760) R26 Frame(CFA_Y, -7)
        CFI (cfiCond760) R27 Frame(CFA_Y, -6)
        CFI (cfiCond760) R4 Frame(CFA_Y, -5)
        CFI (cfiCond760) R5 Frame(CFA_Y, -4)
        CFI (cfiCond760) R6 Frame(CFA_Y, -3)
        CFI (cfiCond760) R7 Frame(CFA_Y, -2)
        CFI (cfiCond760) R8 Frame(CFA_Y, -1)
        CFI (cfiCond760) CFA_SP SP+6
        CFI (cfiCond760) CFA_Y Y+83
        CFI Block cfiCond761 Using cfiCommon0
        CFI (cfiCond761) NoFunction
        CFI (cfiCond761) Conditional ??CrossCallReturnLabel_20
        CFI (cfiCond761) R24 Frame(CFA_Y, -9)
        CFI (cfiCond761) R25 Frame(CFA_Y, -8)
        CFI (cfiCond761) R26 Frame(CFA_Y, -7)
        CFI (cfiCond761) R27 Frame(CFA_Y, -6)
        CFI (cfiCond761) R4 Frame(CFA_Y, -5)
        CFI (cfiCond761) R5 Frame(CFA_Y, -4)
        CFI (cfiCond761) R6 Frame(CFA_Y, -3)
        CFI (cfiCond761) R7 Frame(CFA_Y, -2)
        CFI (cfiCond761) R8 Frame(CFA_Y, -1)
        CFI (cfiCond761) CFA_SP SP+6
        CFI (cfiCond761) CFA_Y Y+83
??Subroutine15_0:
        LDI	R17, 0
        CP	R16, R24
        CPC	R17, R25
        RET
        CFI EndBlock cfiCond752
        CFI EndBlock cfiCond753
        CFI EndBlock cfiCond754
        CFI EndBlock cfiPicker755
        CFI EndBlock cfiCond756
        CFI EndBlock cfiCond757
        CFI EndBlock cfiCond758
        CFI EndBlock cfiCond759
        CFI EndBlock cfiCond760
        CFI EndBlock cfiCond761

        RSEG FARCODE:CODE:NOROOT(1)
?Subroutine9:
        CFI Block cfiCond762 Using cfiCommon0
        CFI NoFunction
        CFI Conditional ??CrossCallReturnLabel_263
        CFI R24 Frame(CFA_Y, -9)
        CFI R25 Frame(CFA_Y, -8)
        CFI R26 Frame(CFA_Y, -7)
        CFI R27 Frame(CFA_Y, -6)
        CFI R4 Frame(CFA_Y, -5)
        CFI R5 Frame(CFA_Y, -4)
        CFI R6 Frame(CFA_Y, -3)
        CFI R7 Frame(CFA_Y, -2)
        CFI R8 Frame(CFA_Y, -1)
        CFI CFA_SP SP+6
        CFI CFA_Y Y+83
        CFI Block cfiCond763 Using cfiCommon0
        CFI (cfiCond763) NoFunction
        CFI (cfiCond763) Conditional ??CrossCallReturnLabel_264
        CFI (cfiCond763) R24 Frame(CFA_Y, -9)
        CFI (cfiCond763) R25 Frame(CFA_Y, -8)
        CFI (cfiCond763) R26 Frame(CFA_Y, -7)
        CFI (cfiCond763) R27 Frame(CFA_Y, -6)
        CFI (cfiCond763) R4 Frame(CFA_Y, -5)
        CFI (cfiCond763) R5 Frame(CFA_Y, -4)
        CFI (cfiCond763) R6 Frame(CFA_Y, -3)
        CFI (cfiCond763) R7 Frame(CFA_Y, -2)
        CFI (cfiCond763) R8 Frame(CFA_Y, -1)
        CFI (cfiCond763) CFA_SP SP+6
        CFI (cfiCond763) CFA_Y Y+83
        CFI Block cfiCond764 Using cfiCommon0
        CFI (cfiCond764) NoFunction
        CFI (cfiCond764) Conditional ??CrossCallReturnLabel_265
        CFI (cfiCond764) R24 Frame(CFA_Y, -9)
        CFI (cfiCond764) R25 Frame(CFA_Y, -8)
        CFI (cfiCond764) R26 Frame(CFA_Y, -7)
        CFI (cfiCond764) R27 Frame(CFA_Y, -6)
        CFI (cfiCond764) R4 Frame(CFA_Y, -5)
        CFI (cfiCond764) R5 Frame(CFA_Y, -4)
        CFI (cfiCond764) R6 Frame(CFA_Y, -3)
        CFI (cfiCond764) R7 Frame(CFA_Y, -2)
        CFI (cfiCond764) R8 Frame(CFA_Y, -1)
        CFI (cfiCond764) CFA_SP SP+6
        CFI (cfiCond764) CFA_Y Y+83
        CFI Block cfiCond765 Using cfiCommon0
        CFI (cfiCond765) NoFunction
        CFI (cfiCond765) Conditional ??CrossCallReturnLabel_266
        CFI (cfiCond765) R24 Frame(CFA_Y, -9)
        CFI (cfiCond765) R25 Frame(CFA_Y, -8)
        CFI (cfiCond765) R26 Frame(CFA_Y, -7)
        CFI (cfiCond765) R27 Frame(CFA_Y, -6)
        CFI (cfiCond765) R4 Frame(CFA_Y, -5)
        CFI (cfiCond765) R5 Frame(CFA_Y, -4)
        CFI (cfiCond765) R6 Frame(CFA_Y, -3)
        CFI (cfiCond765) R7 Frame(CFA_Y, -2)
        CFI (cfiCond765) R8 Frame(CFA_Y, -1)
        CFI (cfiCond765) CFA_SP SP+6
        CFI (cfiCond765) CFA_Y Y+83
        CFI Block cfiCond766 Using cfiCommon0
        CFI (cfiCond766) NoFunction
        CFI (cfiCond766) Conditional ??CrossCallReturnLabel_267
        CFI (cfiCond766) R24 Frame(CFA_Y, -9)
        CFI (cfiCond766) R25 Frame(CFA_Y, -8)
        CFI (cfiCond766) R26 Frame(CFA_Y, -7)
        CFI (cfiCond766) R27 Frame(CFA_Y, -6)
        CFI (cfiCond766) R4 Frame(CFA_Y, -5)
        CFI (cfiCond766) R5 Frame(CFA_Y, -4)
        CFI (cfiCond766) R6 Frame(CFA_Y, -3)
        CFI (cfiCond766) R7 Frame(CFA_Y, -2)
        CFI (cfiCond766) R8 Frame(CFA_Y, -1)
        CFI (cfiCond766) CFA_SP SP+6
        CFI (cfiCond766) CFA_Y Y+83
        CFI Block cfiCond767 Using cfiCommon0
        CFI (cfiCond767) NoFunction
        CFI (cfiCond767) Conditional ??CrossCallReturnLabel_268
        CFI (cfiCond767) R24 Frame(CFA_Y, -9)
        CFI (cfiCond767) R25 Frame(CFA_Y, -8)
        CFI (cfiCond767) R26 Frame(CFA_Y, -7)
        CFI (cfiCond767) R27 Frame(CFA_Y, -6)
        CFI (cfiCond767) R4 Frame(CFA_Y, -5)
        CFI (cfiCond767) R5 Frame(CFA_Y, -4)
        CFI (cfiCond767) R6 Frame(CFA_Y, -3)
        CFI (cfiCond767) R7 Frame(CFA_Y, -2)
        CFI (cfiCond767) R8 Frame(CFA_Y, -1)
        CFI (cfiCond767) CFA_SP SP+6
        CFI (cfiCond767) CFA_Y Y+83
        CFI Block cfiPicker768 Using cfiCommon1
        CFI (cfiPicker768) NoFunction
        CFI (cfiPicker768) Picker
        LDI	R17, 0
        RJMP	?Subroutine148
        CFI EndBlock cfiCond762
        CFI EndBlock cfiCond763
        CFI EndBlock cfiCond764
        CFI EndBlock cfiCond765
        CFI EndBlock cfiCond766
        CFI EndBlock cfiCond767
        CFI EndBlock cfiPicker768

        RSEG FARCODE:CODE:NOROOT(1)
?Subroutine4:
        CFI Block cfiCond769 Using cfiCommon0
        CFI NoFunction
        CFI Conditional ??CrossCallReturnLabel_400
        CFI CFA_SP SP+6
        CFI Block cfiCond770 Using cfiCommon0
        CFI (cfiCond770) NoFunction
        CFI (cfiCond770) Conditional ??CrossCallReturnLabel_401
        CFI (cfiCond770) R24 Frame(CFA_Y, -9)
        CFI (cfiCond770) R25 Frame(CFA_Y, -8)
        CFI (cfiCond770) R26 Frame(CFA_Y, -7)
        CFI (cfiCond770) R27 Frame(CFA_Y, -6)
        CFI (cfiCond770) R4 Frame(CFA_Y, -5)
        CFI (cfiCond770) R5 Frame(CFA_Y, -4)
        CFI (cfiCond770) R6 Frame(CFA_Y, -3)
        CFI (cfiCond770) R7 Frame(CFA_Y, -2)
        CFI (cfiCond770) R8 Frame(CFA_Y, -1)
        CFI (cfiCond770) CFA_SP SP+6
        CFI (cfiCond770) CFA_Y Y+83
        CFI Block cfiPicker771 Using cfiCommon1
        CFI (cfiPicker771) NoFunction
        CFI (cfiPicker771) Picker
        LDI	R16, 0
        LDI	R20, 3
        RJMP	?Subroutine169
        CFI EndBlock cfiCond769
        CFI EndBlock cfiCond770
        CFI EndBlock cfiPicker771

        RSEG FARCODE:CODE:NOROOT(1)
?Subroutine3:
        CFI Block cfiCond772 Using cfiCommon0
        CFI NoFunction
        CFI Conditional ??CrossCallReturnLabel_329
        CFI R24 Frame(CFA_Y, -9)
        CFI R25 Frame(CFA_Y, -8)
        CFI R26 Frame(CFA_Y, -7)
        CFI R27 Frame(CFA_Y, -6)
        CFI R4 Frame(CFA_Y, -5)
        CFI R5 Frame(CFA_Y, -4)
        CFI R6 Frame(CFA_Y, -3)
        CFI R7 Frame(CFA_Y, -2)
        CFI R8 Frame(CFA_Y, -1)
        CFI CFA_SP SP+6
        CFI CFA_Y Y+83
        CFI Block cfiCond773 Using cfiCommon0
        CFI (cfiCond773) NoFunction
        CFI (cfiCond773) Conditional ??CrossCallReturnLabel_330
        CFI (cfiCond773) R24 Frame(CFA_Y, -9)
        CFI (cfiCond773) R25 Frame(CFA_Y, -8)
        CFI (cfiCond773) R26 Frame(CFA_Y, -7)
        CFI (cfiCond773) R27 Frame(CFA_Y, -6)
        CFI (cfiCond773) R4 Frame(CFA_Y, -5)
        CFI (cfiCond773) R5 Frame(CFA_Y, -4)
        CFI (cfiCond773) R6 Frame(CFA_Y, -3)
        CFI (cfiCond773) R7 Frame(CFA_Y, -2)
        CFI (cfiCond773) R8 Frame(CFA_Y, -1)
        CFI (cfiCond773) CFA_SP SP+6
        CFI (cfiCond773) CFA_Y Y+83
        CFI Block cfiCond774 Using cfiCommon0
        CFI (cfiCond774) NoFunction
        CFI (cfiCond774) Conditional ??CrossCallReturnLabel_332
        CFI (cfiCond774) R24 Frame(CFA_Y, -9)
        CFI (cfiCond774) R25 Frame(CFA_Y, -8)
        CFI (cfiCond774) R26 Frame(CFA_Y, -7)
        CFI (cfiCond774) R27 Frame(CFA_Y, -6)
        CFI (cfiCond774) R4 Frame(CFA_Y, -5)
        CFI (cfiCond774) R5 Frame(CFA_Y, -4)
        CFI (cfiCond774) R6 Frame(CFA_Y, -3)
        CFI (cfiCond774) R7 Frame(CFA_Y, -2)
        CFI (cfiCond774) R8 Frame(CFA_Y, -1)
        CFI (cfiCond774) CFA_SP SP+6
        CFI (cfiCond774) CFA_Y Y+83
        CFI Block cfiCond775 Using cfiCommon0
        CFI (cfiCond775) NoFunction
        CFI (cfiCond775) Conditional ??CrossCallReturnLabel_333
        CFI (cfiCond775) R24 Frame(CFA_Y, -9)
        CFI (cfiCond775) R25 Frame(CFA_Y, -8)
        CFI (cfiCond775) R26 Frame(CFA_Y, -7)
        CFI (cfiCond775) R27 Frame(CFA_Y, -6)
        CFI (cfiCond775) R4 Frame(CFA_Y, -5)
        CFI (cfiCond775) R5 Frame(CFA_Y, -4)
        CFI (cfiCond775) R6 Frame(CFA_Y, -3)
        CFI (cfiCond775) R7 Frame(CFA_Y, -2)
        CFI (cfiCond775) R8 Frame(CFA_Y, -1)
        CFI (cfiCond775) CFA_SP SP+6
        CFI (cfiCond775) CFA_Y Y+83
        CFI Block cfiCond776 Using cfiCommon0
        CFI (cfiCond776) NoFunction
        CFI (cfiCond776) Conditional ??CrossCallReturnLabel_334
        CFI (cfiCond776) R24 Frame(CFA_Y, -9)
        CFI (cfiCond776) R25 Frame(CFA_Y, -8)
        CFI (cfiCond776) R26 Frame(CFA_Y, -7)
        CFI (cfiCond776) R27 Frame(CFA_Y, -6)
        CFI (cfiCond776) R4 Frame(CFA_Y, -5)
        CFI (cfiCond776) R5 Frame(CFA_Y, -4)
        CFI (cfiCond776) R6 Frame(CFA_Y, -3)
        CFI (cfiCond776) R7 Frame(CFA_Y, -2)
        CFI (cfiCond776) R8 Frame(CFA_Y, -1)
        CFI (cfiCond776) CFA_SP SP+6
        CFI (cfiCond776) CFA_Y Y+83
        CFI Block cfiPicker777 Using cfiCommon1
        CFI (cfiPicker777) NoFunction
        CFI (cfiPicker777) Picker
        LDI	R30, LOW(vol_tx_ppp)
        LDI	R31, (vol_tx_ppp) >> 8
        LD	R16, Z
        LDD	R17, Z+1
        CFI Block cfiCond778 Using cfiCommon0
        CFI (cfiCond778) NoFunction
        CFI (cfiCond778) Conditional ??CrossCallReturnLabel_331
        CFI (cfiCond778) R24 Frame(CFA_Y, -9)
        CFI (cfiCond778) R25 Frame(CFA_Y, -8)
        CFI (cfiCond778) R26 Frame(CFA_Y, -7)
        CFI (cfiCond778) R27 Frame(CFA_Y, -6)
        CFI (cfiCond778) R4 Frame(CFA_Y, -5)
        CFI (cfiCond778) R5 Frame(CFA_Y, -4)
        CFI (cfiCond778) R6 Frame(CFA_Y, -3)
        CFI (cfiCond778) R7 Frame(CFA_Y, -2)
        CFI (cfiCond778) R8 Frame(CFA_Y, -1)
        CFI (cfiCond778) CFA_SP SP+6
        CFI (cfiCond778) CFA_Y Y+83
??Subroutine3_0:
        CPI	R16, 2
        RJMP	?Subroutine160
        CFI EndBlock cfiCond772
        CFI EndBlock cfiCond773
        CFI EndBlock cfiCond774
        CFI EndBlock cfiCond775
        CFI EndBlock cfiCond776
        CFI EndBlock cfiPicker777
        CFI EndBlock cfiCond778

        RSEG FARCODE:CODE:NOROOT(1)
?Subroutine2:
        CFI Block cfiCond779 Using cfiCommon0
        CFI NoFunction
        CFI Conditional ??CrossCallReturnLabel_319
        CFI R24 Frame(CFA_Y, -5)
        CFI R25 Frame(CFA_Y, -4)
        CFI R26 Frame(CFA_Y, -3)
        CFI R27 Frame(CFA_Y, -2)
        CFI R4 Frame(CFA_Y, -1)
        CFI CFA_SP SP+6
        CFI CFA_Y Y+88
        CFI Block cfiCond780 Using cfiCommon0
        CFI (cfiCond780) NoFunction
        CFI (cfiCond780) Conditional ??CrossCallReturnLabel_320
        CFI (cfiCond780) R24 Frame(CFA_Y, -9)
        CFI (cfiCond780) R25 Frame(CFA_Y, -8)
        CFI (cfiCond780) R26 Frame(CFA_Y, -7)
        CFI (cfiCond780) R27 Frame(CFA_Y, -6)
        CFI (cfiCond780) R4 Frame(CFA_Y, -5)
        CFI (cfiCond780) R5 Frame(CFA_Y, -4)
        CFI (cfiCond780) R6 Frame(CFA_Y, -3)
        CFI (cfiCond780) R7 Frame(CFA_Y, -2)
        CFI (cfiCond780) R8 Frame(CFA_Y, -1)
        CFI (cfiCond780) CFA_SP SP+6
        CFI (cfiCond780) CFA_Y Y+83
        CFI Block cfiCond781 Using cfiCommon0
        CFI (cfiCond781) NoFunction
        CFI (cfiCond781) Conditional ??CrossCallReturnLabel_321
        CFI (cfiCond781) R24 Frame(CFA_Y, -9)
        CFI (cfiCond781) R25 Frame(CFA_Y, -8)
        CFI (cfiCond781) R26 Frame(CFA_Y, -7)
        CFI (cfiCond781) R27 Frame(CFA_Y, -6)
        CFI (cfiCond781) R4 Frame(CFA_Y, -5)
        CFI (cfiCond781) R5 Frame(CFA_Y, -4)
        CFI (cfiCond781) R6 Frame(CFA_Y, -3)
        CFI (cfiCond781) R7 Frame(CFA_Y, -2)
        CFI (cfiCond781) R8 Frame(CFA_Y, -1)
        CFI (cfiCond781) CFA_SP SP+6
        CFI (cfiCond781) CFA_Y Y+83
        CFI Block cfiCond782 Using cfiCommon0
        CFI (cfiCond782) NoFunction
        CFI (cfiCond782) Conditional ??CrossCallReturnLabel_322
        CFI (cfiCond782) R24 Frame(CFA_Y, -4)
        CFI (cfiCond782) R25 Frame(CFA_Y, -3)
        CFI (cfiCond782) R26 Frame(CFA_Y, -2)
        CFI (cfiCond782) R27 Frame(CFA_Y, -1)
        CFI (cfiCond782) CFA_SP SP+6
        CFI (cfiCond782) CFA_Y Y+6
        CFI Block cfiPicker783 Using cfiCommon1
        CFI (cfiPicker783) NoFunction
        CFI (cfiPicker783) Picker
        LDI	R16, 0
        LDI	R30, LOW(vol_tx_ppp)
        LDI	R31, (vol_tx_ppp) >> 8
        CFI EndBlock cfiCond779
        CFI EndBlock cfiCond780
        CFI EndBlock cfiCond781
        CFI EndBlock cfiCond782
        CFI EndBlock cfiPicker783
        REQUIRE ?Subroutine158
        ;		// Fall through to label ?Subroutine158

        RSEG FARCODE:CODE:NOROOT(1)
?Subroutine158:
        CFI Block cfiCond784 Using cfiCommon0
        CFI NoFunction
        CFI Conditional ??CrossCallReturnLabel_319
        CFI R24 Frame(CFA_Y, -5)
        CFI R25 Frame(CFA_Y, -4)
        CFI R26 Frame(CFA_Y, -3)
        CFI R27 Frame(CFA_Y, -2)
        CFI R4 Frame(CFA_Y, -1)
        CFI CFA_SP SP+6
        CFI CFA_Y Y+88
        CFI Block cfiCond785 Using cfiCommon0
        CFI (cfiCond785) NoFunction
        CFI (cfiCond785) Conditional ??CrossCallReturnLabel_320
        CFI (cfiCond785) R24 Frame(CFA_Y, -9)
        CFI (cfiCond785) R25 Frame(CFA_Y, -8)
        CFI (cfiCond785) R26 Frame(CFA_Y, -7)
        CFI (cfiCond785) R27 Frame(CFA_Y, -6)
        CFI (cfiCond785) R4 Frame(CFA_Y, -5)
        CFI (cfiCond785) R5 Frame(CFA_Y, -4)
        CFI (cfiCond785) R6 Frame(CFA_Y, -3)
        CFI (cfiCond785) R7 Frame(CFA_Y, -2)
        CFI (cfiCond785) R8 Frame(CFA_Y, -1)
        CFI (cfiCond785) CFA_SP SP+6
        CFI (cfiCond785) CFA_Y Y+83
        CFI Block cfiCond786 Using cfiCommon0
        CFI (cfiCond786) NoFunction
        CFI (cfiCond786) Conditional ??CrossCallReturnLabel_321
        CFI (cfiCond786) R24 Frame(CFA_Y, -9)
        CFI (cfiCond786) R25 Frame(CFA_Y, -8)
        CFI (cfiCond786) R26 Frame(CFA_Y, -7)
        CFI (cfiCond786) R27 Frame(CFA_Y, -6)
        CFI (cfiCond786) R4 Frame(CFA_Y, -5)
        CFI (cfiCond786) R5 Frame(CFA_Y, -4)
        CFI (cfiCond786) R6 Frame(CFA_Y, -3)
        CFI (cfiCond786) R7 Frame(CFA_Y, -2)
        CFI (cfiCond786) R8 Frame(CFA_Y, -1)
        CFI (cfiCond786) CFA_SP SP+6
        CFI (cfiCond786) CFA_Y Y+83
        CFI Block cfiCond787 Using cfiCommon0
        CFI (cfiCond787) NoFunction
        CFI (cfiCond787) Conditional ??CrossCallReturnLabel_322
        CFI (cfiCond787) R24 Frame(CFA_Y, -4)
        CFI (cfiCond787) R25 Frame(CFA_Y, -3)
        CFI (cfiCond787) R26 Frame(CFA_Y, -2)
        CFI (cfiCond787) R27 Frame(CFA_Y, -1)
        CFI (cfiCond787) CFA_SP SP+6
        CFI (cfiCond787) CFA_Y Y+6
        CFI Block cfiCond788 Using cfiCommon0
        CFI (cfiCond788) NoFunction
        CFI (cfiCond788) Conditional ??CrossCallReturnLabel_323
        CFI (cfiCond788) R24 Frame(CFA_Y, -1)
        CFI (cfiCond788) CFA_SP SP+6
        CFI (cfiCond788) CFA_Y Y+1
        CFI Block cfiCond789 Using cfiCommon0
        CFI (cfiCond789) NoFunction
        CFI (cfiCond789) Conditional ??CrossCallReturnLabel_324
        CFI (cfiCond789) R24 Frame(CFA_Y, -1)
        CFI (cfiCond789) CFA_SP SP+6
        CFI (cfiCond789) CFA_Y Y+1
        CFI Block cfiPicker790 Using cfiCommon1
        CFI (cfiPicker790) NoFunction
        CFI (cfiPicker790) Picker
        ST	Z, R16
        STD	Z+1, R16
        RET
        CFI EndBlock cfiCond784
        CFI EndBlock cfiCond785
        CFI EndBlock cfiCond786
        CFI EndBlock cfiCond787
        CFI EndBlock cfiCond788
        CFI EndBlock cfiCond789
        CFI EndBlock cfiPicker790

        RSEG FARCODE:CODE:NOROOT(1)
?Subroutine1:
        CFI Block cfiCond791 Using cfiCommon0
        CFI NoFunction
        CFI Conditional ??CrossCallReturnLabel_2
        CFI R24 Frame(CFA_Y, -9)
        CFI R25 Frame(CFA_Y, -8)
        CFI R26 Frame(CFA_Y, -7)
        CFI R27 Frame(CFA_Y, -6)
        CFI R4 Frame(CFA_Y, -5)
        CFI R5 Frame(CFA_Y, -4)
        CFI R6 Frame(CFA_Y, -3)
        CFI R7 Frame(CFA_Y, -2)
        CFI R8 Frame(CFA_Y, -1)
        CFI CFA_SP SP+6
        CFI CFA_Y Y+83
        CFI Block cfiCond792 Using cfiCommon0
        CFI (cfiCond792) NoFunction
        CFI (cfiCond792) Conditional ??CrossCallReturnLabel_3
        CFI (cfiCond792) R24 Frame(CFA_Y, -9)
        CFI (cfiCond792) R25 Frame(CFA_Y, -8)
        CFI (cfiCond792) R26 Frame(CFA_Y, -7)
        CFI (cfiCond792) R27 Frame(CFA_Y, -6)
        CFI (cfiCond792) R4 Frame(CFA_Y, -5)
        CFI (cfiCond792) R5 Frame(CFA_Y, -4)
        CFI (cfiCond792) R6 Frame(CFA_Y, -3)
        CFI (cfiCond792) R7 Frame(CFA_Y, -2)
        CFI (cfiCond792) R8 Frame(CFA_Y, -1)
        CFI (cfiCond792) CFA_SP SP+6
        CFI (cfiCond792) CFA_Y Y+83
        CFI Block cfiPicker793 Using cfiCommon1
        CFI (cfiPicker793) NoFunction
        CFI (cfiPicker793) Picker
        LDI	R16, 0
        LDI	R30, LOW(vol_tx_ppp)
        LDI	R31, (vol_tx_ppp) >> 8
        ST	Z, R16
        STD	Z+1, R16
        LDI	R18, LOW((versia + 129))
        LDI	R19, HIGH((versia + 129))
        LDI	R16, 4
        RET
        CFI EndBlock cfiCond791
        CFI EndBlock cfiCond792
        CFI EndBlock cfiPicker793
// 2295 
// 2296 
// 2297 
// 2298 
// 2299 
// 2300 
// 2301 
// 2302 
// 2303 
// 2304 
// 2305 
// 2306 
// 2307 
// 2308 
// 2309 

        RSEG FARCODE:CODE:NOROOT(1)
// 2310    void at_mon_232(void)
at_mon_232:
        CFI Block cfiBlock794 Using cfiCommon0
        CFI Function at_mon_232
// 2311     { 
        FUNCALL at_mon_232, scenario_test_mtc
        LOCFRAME CSTACK, 6, STACK
        LOCFRAME RSTACK, 3, STACK
        FUNCALL at_mon_232, read_menu
        LOCFRAME CSTACK, 6, STACK
        LOCFRAME RSTACK, 3, STACK
        FUNCALL at_mon_232, read_menu
        LOCFRAME CSTACK, 6, STACK
        LOCFRAME RSTACK, 3, STACK
        FUNCALL at_mon_232, read_menu
        LOCFRAME CSTACK, 6, STACK
        LOCFRAME RSTACK, 3, STACK
        FUNCALL at_mon_232, write_menu
        LOCFRAME CSTACK, 6, STACK
        LOCFRAME RSTACK, 3, STACK
        FUNCALL at_mon_232, read_menu
        LOCFRAME CSTACK, 6, STACK
        LOCFRAME RSTACK, 3, STACK
        RCALL	?Subroutine109
        CFI R24 Frame(CFA_Y, -4)
        CFI R25 Frame(CFA_Y, -3)
        CFI R26 Frame(CFA_Y, -2)
        CFI R27 Frame(CFA_Y, -1)
        CFI CFA_Y Y+4
??CrossCallReturnLabel_132:
        SBIW	R29:R28, 2
        CFI CFA_Y Y+6
// 2312       unsigned int volatile local;
// 2313       
// 2314       
// 2315      // * в фоновом режиме выводим все что пришло с сим модул€
// 2316        if ( (UCSR2A & 0x20) ==0) goto no_Ready_com2;
        LDI	R26, LOW(fl_at_mom_232)
        LDI	R27, (fl_at_mom_232) >> 8
        LDS	R16, 208
        SBRS	R16, 5
        RJMP	??at_mon_232_0
// 2317        if(point_Tail !=point_Head) {
        MOVW	R31:R30, R27:R26
        LDD	R16, Z+2
        LDS	R17, point_Head
        CP	R16, R17
        BREQ	??at_mon_232_0
// 2318                                      UDR2=Appl_seq_buf[point_Tail];
        RCALL	?Subroutine30
??CrossCallReturnLabel_569:
        SUBI	R30, LOW((-(Appl_seq_buf) & 0xFFFF))
        SBCI	R31, (-(Appl_seq_buf) & 0xFFFF) >> 8
        LD	R17, Z
        STS	214, R17
// 2319                                      point_Tail++;
// 2320                                      point_Tail=point_Tail & 0x3f;
        INC	R16
        ANDI	R16, 0x3F
        MOVW	R31:R30, R27:R26
        STD	Z+2, R16
// 2321        }
// 2322        
// 2323                                        
// 2324       // * 
// 2325                                        
// 2326                                        
// 2327                                        
// 2328     no_Ready_com2:                                      
// 2329   
// 2330       /*
// 2331       if ( (vol_tx_ppp >= 3 ) {
// 2332       for (i = 0; i < vol_tx_ppp - 1; i++) {
// 2333        if( buf_tx_232[i] == 0x54  && buf_tx_232[i] == 0x2b
// 2334       
// 2335     }
// 2336     }
// 2337       */
// 2338       
// 2339   local = vol_tx_ppp;    
??at_mon_232_0:
        RCALL	?Subroutine126
??CrossCallReturnLabel_314:
        ST	Y, R16
        STD	Y+1, R17
// 2340       
// 2341   if ( (local >= 3 )  && (buf_tx_232[local-1]==0x2b) && ((buf_tx_232[local-2]=='T') || (buf_tx_232[local-2]=='t')) ) return;   // at+ пропустить
        LD	R24, Y
        LDD	R25, Y+1
        CPI	R24, 3
        SBCI	R25, 0
        BRCS	??at_mon_232_1
        LD	R16, Y
        LDD	R17, Y+1
        MOVW	R31:R30, R17:R16
        SUBI	R30, LOW((-(buf_tx_232 - 1) & 0xFFFF))
        SBCI	R31, HIGH((-(buf_tx_232 - 1) & 0xFFFF))
        LD	R16, Z
        CPI	R16, 43
        BRNE	??at_mon_232_1
        RCALL	?Subroutine38
??CrossCallReturnLabel_45:
        CPI	R16, 84
        BRNE	$+2+2
        RJMP	??at_mon_232_2
        RCALL	?Subroutine38
??CrossCallReturnLabel_46:
        CPI	R16, 116
        BRNE	$+2+2
        RJMP	??at_mon_232_2
// 2342 
// 2343   // тут будет сценарий проверки “— платы расширени€
// 2344 #ifdef  SCENARIO_TEST_MTC_ENABLE
// 2345     scenario_test_mtc();
??at_mon_232_1:
        RCALL	scenario_test_mtc
// 2346 #endif  
// 2347   // тут будет сценарий проверки “— платы расширени€
// 2348   if ( local == 0 ) return;   /// заплатка от 23 06 22
        LD	R16, Y
        LDD	R17, Y+1
        OR	R16, R17
        BRNE	$+2+2
        RJMP	??at_mon_232_2
// 2349  //************************    
// 2350              
// 2351 switch (buf_tx_232[local-1])
        RCALL	?Subroutine40
??CrossCallReturnLabel_47:
        RCALL	?Subroutine141
??CrossCallReturnLabel_200:
        LD	R17, Z
        SUBI	R17, 13
        BREQ	??at_mon_232_3
        SUBI	R17, 14
        BREQ	??at_mon_232_4
        SUBI	R17, 16
        BREQ	??at_mon_232_5
        SUBI	R17, 2
        BREQ	??at_mon_232_6
        RJMP	??at_mon_232_2
// 2352       {
// 2353        case 0x1b:
// 2354                   {  
// 2355                                
// 2356                   UCSR0B=UCSR0B & ~0x90;                   
??at_mon_232_4:
        RCALL	?Subroutine142
// 2357                   index_pa=1;
??CrossCallReturnLabel_202:
        LDI	R16, 1
        MOVW	R31:R30, R27:R26
        STD	Z+1, R16
// 2358                   read_menu(index_pa-1);
        LDI	R16, 0
        RJMP	??at_mon_232_7
// 2359                   buf_tx_232[local-1]=0xff;  
// 2360                   vol_tx_ppp=0;                                  
// 2361                   UCSR0B=UCSR0B | 0x90; 
// 2362                   break;
// 2363                   
// 2364 
// 2365                   }
// 2366         case 0x2b:   // верх
// 2367                   {    
// 2368                     
// 2369                   UCSR0B=UCSR0B & ~0x90;
??at_mon_232_5:
        RCALL	?Subroutine142
// 2370                     
// 2371 pusto:            
// 2372 
// 2373 
// 2374                    index_pa++;  
??CrossCallReturnLabel_203:
        RCALL	?Subroutine40
??CrossCallReturnLabel_48:
        INC	R16
        STD	Z+1, R16
// 2375                    if ((index_pa-1) > VOL_PUNKT) index_pa=1;
        MOV	R24, R16
        LDI	R25, 0
        SBIW	R25:R24, 1
        CPI	R24, 42
        SBCI	R25, 0
        BRLT	??at_mon_232_8
        LDI	R16, 1
??at_mon_232_9:
        STD	Z+1, R16
// 2376                    read_menu(index_pa-1);                                    
        RJMP	??at_mon_232_8
// 2377                    buf_tx_232[local-1]=0xff;  
// 2378                    vol_tx_ppp=0; 
// 2379                    UCSR0B=UCSR0B | 0x90; 
// 2380                    break;
// 2381                   }                  
// 2382                    
// 2383          case 0x2d:   // вниз
// 2384                   { 
// 2385                     UCSR0B=UCSR0B & ~0x90;
??at_mon_232_6:
        RCALL	?Subroutine145
// 2386                     if(index_pa==0)index_pa=1;  
??CrossCallReturnLabel_216:
        TST	R16
        BRNE	??at_mon_232_10
        LDI	R16, 1
        MOVW	R31:R30, R27:R26
        STD	Z+1, R16
// 2387                     if ((index_pa-1) != 0) index_pa--;else index_pa=VOL_PUNKT+1;    
??at_mon_232_10:
        RCALL	?Subroutine40
??CrossCallReturnLabel_49:
        MOV	R30, R16
        LDI	R31, 0
        SBIW	R31:R30, 1
        BREQ	??at_mon_232_11
        MOVW	R31:R30, R27:R26
        DEC	R16
        RJMP	??at_mon_232_9
??at_mon_232_11:
        LDI	R16, 42
        MOVW	R31:R30, R27:R26
        RJMP	??at_mon_232_9
// 2388                 //     if ((index_pa-1) != 0) index_pa--;else index_pa=VOL_PUNKT-1;    
// 2389                     
// 2390                     read_menu(index_pa-1);  
// 2391                     buf_tx_232[local-1]=0xff;  
// 2392                     vol_tx_ppp=0; 
// 2393                     UCSR0B=UCSR0B | 0x90; 
// 2394                     break;                     
// 2395                   }           
// 2396                   
// 2397            case 0x0d:   // ввод
// 2398                   {  
// 2399               
// 2400                    UCSR0B=UCSR0B & ~0x90;  
??at_mon_232_3:
        RCALL	?Subroutine145
// 2401                    if(index_pa==41) goto nene_pusto; 
??CrossCallReturnLabel_217:
        CPI	R16, 41
        BREQ	??at_mon_232_12
// 2402                    if ((local==1)||(index_pa==0)) goto pusto; 
        LD	R18, Y
        LDD	R19, Y+1
        CPI	R18, 1
        SBCI	R19, 0
        BREQ	??CrossCallReturnLabel_203
        TST	R16
        BREQ	??CrossCallReturnLabel_203
// 2403         nene_pusto:
// 2404                    write_menu(index_pa-1); 
??at_mon_232_12:
        DEC	R16
        RCALL	write_menu
// 2405                    read_menu(index_pa-1);
        MOVW	R31:R30, R27:R26
??at_mon_232_8:
        LDD	R16, Z+1
        DEC	R16
??at_mon_232_7:
        CALL	read_menu
// 2406                    buf_tx_232[local-1]=0xff;  
        LDI	R16, 255
        RCALL	?Subroutine141
??CrossCallReturnLabel_201:
        ST	Z, R16
// 2407                    vol_tx_ppp=0;   
        RCALL	?Subroutine2
// 2408                    UCSR0B=UCSR0B | 0x90;
??CrossCallReturnLabel_322:
        LDS	R16, 193
        ORI	R16, 0x90
        STS	193, R16
// 2409                    break;                                     
??at_mon_232_2:
        ADIW	R29:R28, 2
        CFI EndBlock cfiBlock794
        REQUIRE ?Subroutine164
        ;		// Fall through to label ?Subroutine164
// 2410                   }                 
// 2411           
// 2412         
// 2413       }                     
// 2414 
// 2415     }

        RSEG FARCODE:CODE:NOROOT(1)
?Subroutine164:
        CFI Block cfiBlock795 Using cfiCommon0
        CFI NoFunction
        CFI CFA_Y Y+4
        CFI R24 Frame(CFA_Y, -4)
        CFI R25 Frame(CFA_Y, -3)
        CFI R26 Frame(CFA_Y, -2)
        CFI R27 Frame(CFA_Y, -1)
        LDI	R30, 4
        JMP	?EPILOGUE_B4_L09
        CFI EndBlock cfiBlock795

        RSEG FARCODE:CODE:NOROOT(1)
?Subroutine145:
        CFI Block cfiCond796 Using cfiCommon0
        CFI NoFunction
        CFI Conditional ??CrossCallReturnLabel_216
        CFI R24 Frame(CFA_Y, -4)
        CFI R25 Frame(CFA_Y, -3)
        CFI R26 Frame(CFA_Y, -2)
        CFI R27 Frame(CFA_Y, -1)
        CFI CFA_SP SP+6
        CFI CFA_Y Y+6
        CFI Block cfiCond797 Using cfiCommon0
        CFI (cfiCond797) NoFunction
        CFI (cfiCond797) Conditional ??CrossCallReturnLabel_217
        CFI (cfiCond797) R24 Frame(CFA_Y, -4)
        CFI (cfiCond797) R25 Frame(CFA_Y, -3)
        CFI (cfiCond797) R26 Frame(CFA_Y, -2)
        CFI (cfiCond797) R27 Frame(CFA_Y, -1)
        CFI (cfiCond797) CFA_SP SP+6
        CFI (cfiCond797) CFA_Y Y+6
        CFI Block cfiPicker798 Using cfiCommon1
        CFI (cfiPicker798) NoFunction
        CFI (cfiPicker798) Picker
        LDS	R17, 193
        ANDI	R17, 0x6F
        STS	193, R17
        RET
        CFI EndBlock cfiCond796
        CFI EndBlock cfiCond797
        CFI EndBlock cfiPicker798

        RSEG FARCODE:CODE:NOROOT(1)
?Subroutine142:
        CFI Block cfiCond799 Using cfiCommon0
        CFI NoFunction
        CFI Conditional ??CrossCallReturnLabel_202
        CFI R24 Frame(CFA_Y, -4)
        CFI R25 Frame(CFA_Y, -3)
        CFI R26 Frame(CFA_Y, -2)
        CFI R27 Frame(CFA_Y, -1)
        CFI CFA_SP SP+6
        CFI CFA_Y Y+6
        CFI Block cfiCond800 Using cfiCommon0
        CFI (cfiCond800) NoFunction
        CFI (cfiCond800) Conditional ??CrossCallReturnLabel_203
        CFI (cfiCond800) R24 Frame(CFA_Y, -4)
        CFI (cfiCond800) R25 Frame(CFA_Y, -3)
        CFI (cfiCond800) R26 Frame(CFA_Y, -2)
        CFI (cfiCond800) R27 Frame(CFA_Y, -1)
        CFI (cfiCond800) CFA_SP SP+6
        CFI (cfiCond800) CFA_Y Y+6
        CFI Block cfiPicker801 Using cfiCommon1
        CFI (cfiPicker801) NoFunction
        CFI (cfiPicker801) Picker
        LDS	R16, 193
        ANDI	R16, 0x6F
        STS	193, R16
        RET
        CFI EndBlock cfiCond799
        CFI EndBlock cfiCond800
        CFI EndBlock cfiPicker801

        RSEG FARCODE:CODE:NOROOT(1)
?Subroutine141:
        CFI Block cfiCond802 Using cfiCommon0
        CFI NoFunction
        CFI Conditional ??CrossCallReturnLabel_200
        CFI R24 Frame(CFA_Y, -4)
        CFI R25 Frame(CFA_Y, -3)
        CFI R26 Frame(CFA_Y, -2)
        CFI R27 Frame(CFA_Y, -1)
        CFI CFA_SP SP+6
        CFI CFA_Y Y+6
        CFI Block cfiCond803 Using cfiCommon0
        CFI (cfiCond803) NoFunction
        CFI (cfiCond803) Conditional ??CrossCallReturnLabel_201
        CFI (cfiCond803) R24 Frame(CFA_Y, -4)
        CFI (cfiCond803) R25 Frame(CFA_Y, -3)
        CFI (cfiCond803) R26 Frame(CFA_Y, -2)
        CFI (cfiCond803) R27 Frame(CFA_Y, -1)
        CFI (cfiCond803) CFA_SP SP+6
        CFI (cfiCond803) CFA_Y Y+6
        CFI Block cfiPicker804 Using cfiCommon1
        CFI (cfiPicker804) NoFunction
        CFI (cfiPicker804) Picker
        LD	R18, Y
        LDD	R19, Y+1
        MOVW	R31:R30, R19:R18
        SUBI	R30, LOW((-(buf_tx_232 - 1) & 0xFFFF))
        SBCI	R31, HIGH((-(buf_tx_232 - 1) & 0xFFFF))
        RET
        CFI EndBlock cfiCond802
        CFI EndBlock cfiCond803
        CFI EndBlock cfiPicker804

        RSEG FARCODE:CODE:NOROOT(1)
?Subroutine126:
        CFI Block cfiCond805 Using cfiCommon0
        CFI NoFunction
        CFI Conditional ??CrossCallReturnLabel_310
        CFI R24 Frame(CFA_Y, -9)
        CFI R25 Frame(CFA_Y, -8)
        CFI R26 Frame(CFA_Y, -7)
        CFI R27 Frame(CFA_Y, -6)
        CFI R4 Frame(CFA_Y, -5)
        CFI R5 Frame(CFA_Y, -4)
        CFI R6 Frame(CFA_Y, -3)
        CFI R7 Frame(CFA_Y, -2)
        CFI R8 Frame(CFA_Y, -1)
        CFI CFA_SP SP+6
        CFI CFA_Y Y+83
        CFI Block cfiCond806 Using cfiCommon0
        CFI (cfiCond806) NoFunction
        CFI (cfiCond806) Conditional ??CrossCallReturnLabel_311
        CFI (cfiCond806) R24 Frame(CFA_Y, -9)
        CFI (cfiCond806) R25 Frame(CFA_Y, -8)
        CFI (cfiCond806) R26 Frame(CFA_Y, -7)
        CFI (cfiCond806) R27 Frame(CFA_Y, -6)
        CFI (cfiCond806) R4 Frame(CFA_Y, -5)
        CFI (cfiCond806) R5 Frame(CFA_Y, -4)
        CFI (cfiCond806) R6 Frame(CFA_Y, -3)
        CFI (cfiCond806) R7 Frame(CFA_Y, -2)
        CFI (cfiCond806) R8 Frame(CFA_Y, -1)
        CFI (cfiCond806) CFA_SP SP+6
        CFI (cfiCond806) CFA_Y Y+83
        CFI Block cfiCond807 Using cfiCommon0
        CFI (cfiCond807) NoFunction
        CFI (cfiCond807) Conditional ??CrossCallReturnLabel_312
        CFI (cfiCond807) R24 Frame(CFA_Y, -9)
        CFI (cfiCond807) R25 Frame(CFA_Y, -8)
        CFI (cfiCond807) R26 Frame(CFA_Y, -7)
        CFI (cfiCond807) R27 Frame(CFA_Y, -6)
        CFI (cfiCond807) R4 Frame(CFA_Y, -5)
        CFI (cfiCond807) R5 Frame(CFA_Y, -4)
        CFI (cfiCond807) R6 Frame(CFA_Y, -3)
        CFI (cfiCond807) R7 Frame(CFA_Y, -2)
        CFI (cfiCond807) R8 Frame(CFA_Y, -1)
        CFI (cfiCond807) CFA_SP SP+6
        CFI (cfiCond807) CFA_Y Y+83
        CFI Block cfiCond808 Using cfiCommon0
        CFI (cfiCond808) NoFunction
        CFI (cfiCond808) Conditional ??CrossCallReturnLabel_313
        CFI (cfiCond808) R24 Frame(CFA_Y, -9)
        CFI (cfiCond808) R25 Frame(CFA_Y, -8)
        CFI (cfiCond808) R26 Frame(CFA_Y, -7)
        CFI (cfiCond808) R27 Frame(CFA_Y, -6)
        CFI (cfiCond808) R4 Frame(CFA_Y, -5)
        CFI (cfiCond808) R5 Frame(CFA_Y, -4)
        CFI (cfiCond808) R6 Frame(CFA_Y, -3)
        CFI (cfiCond808) R7 Frame(CFA_Y, -2)
        CFI (cfiCond808) R8 Frame(CFA_Y, -1)
        CFI (cfiCond808) CFA_SP SP+6
        CFI (cfiCond808) CFA_Y Y+83
        CFI Block cfiCond809 Using cfiCommon0
        CFI (cfiCond809) NoFunction
        CFI (cfiCond809) Conditional ??CrossCallReturnLabel_314
        CFI (cfiCond809) R24 Frame(CFA_Y, -4)
        CFI (cfiCond809) R25 Frame(CFA_Y, -3)
        CFI (cfiCond809) R26 Frame(CFA_Y, -2)
        CFI (cfiCond809) R27 Frame(CFA_Y, -1)
        CFI (cfiCond809) CFA_SP SP+6
        CFI (cfiCond809) CFA_Y Y+6
        CFI Block cfiPicker810 Using cfiCommon1
        CFI (cfiPicker810) NoFunction
        CFI (cfiPicker810) Picker
        LDI	R30, LOW(vol_tx_ppp)
        LDI	R31, (vol_tx_ppp) >> 8
        RJMP	?Subroutine156
        CFI EndBlock cfiCond805
        CFI EndBlock cfiCond806
        CFI EndBlock cfiCond807
        CFI EndBlock cfiCond808
        CFI EndBlock cfiCond809
        CFI EndBlock cfiPicker810

        RSEG FARCODE:CODE:NOROOT(1)
?Subroutine109:
        CFI Block cfiCond811 Using cfiCommon0
        CFI NoFunction
        CFI Conditional ??CrossCallReturnLabel_130
        CFI CFA_SP SP+6
        CFI Block cfiCond812 Using cfiCommon0
        CFI (cfiCond812) NoFunction
        CFI (cfiCond812) Conditional ??CrossCallReturnLabel_131
        CFI (cfiCond812) CFA_SP SP+6
        CFI Block cfiCond813 Using cfiCommon0
        CFI (cfiCond813) NoFunction
        CFI (cfiCond813) Conditional ??CrossCallReturnLabel_132
        CFI (cfiCond813) CFA_SP SP+6
        CFI Block cfiCond814 Using cfiCommon0
        CFI (cfiCond814) NoFunction
        CFI (cfiCond814) Conditional ??CrossCallReturnLabel_133
        CFI (cfiCond814) CFA_SP SP+6
        CFI Block cfiPicker815 Using cfiCommon1
        CFI (cfiPicker815) NoFunction
        CFI (cfiPicker815) Picker
        JMP	?PROLOGUE4_L09
        CFI EndBlock cfiCond811
        CFI EndBlock cfiCond812
        CFI EndBlock cfiCond813
        CFI EndBlock cfiCond814
        CFI EndBlock cfiPicker815

        RSEG FARCODE:CODE:NOROOT(1)
?Subroutine38:
        CFI Block cfiCond816 Using cfiCommon0
        CFI NoFunction
        CFI Conditional ??CrossCallReturnLabel_45
        CFI R24 Frame(CFA_Y, -4)
        CFI R25 Frame(CFA_Y, -3)
        CFI R26 Frame(CFA_Y, -2)
        CFI R27 Frame(CFA_Y, -1)
        CFI CFA_SP SP+6
        CFI CFA_Y Y+6
        CFI Block cfiCond817 Using cfiCommon0
        CFI (cfiCond817) NoFunction
        CFI (cfiCond817) Conditional ??CrossCallReturnLabel_46
        CFI (cfiCond817) R24 Frame(CFA_Y, -4)
        CFI (cfiCond817) R25 Frame(CFA_Y, -3)
        CFI (cfiCond817) R26 Frame(CFA_Y, -2)
        CFI (cfiCond817) R27 Frame(CFA_Y, -1)
        CFI (cfiCond817) CFA_SP SP+6
        CFI (cfiCond817) CFA_Y Y+6
        CFI Block cfiPicker818 Using cfiCommon1
        CFI (cfiPicker818) NoFunction
        CFI (cfiPicker818) Picker
        LD	R16, Y
        LDD	R17, Y+1
        MOVW	R31:R30, R17:R16
        SUBI	R30, LOW((-(buf_tx_232 - 2) & 0xFFFF))
        SBCI	R31, HIGH((-(buf_tx_232 - 2) & 0xFFFF))
        LD	R16, Z
        RET
        CFI EndBlock cfiCond816
        CFI EndBlock cfiCond817
        CFI EndBlock cfiPicker818

        RSEG FARCODE:CODE:NOROOT(1)
?Subroutine30:
        CFI Block cfiCond819 Using cfiCommon0
        CFI NoFunction
        CFI Conditional ??CrossCallReturnLabel_566
        CFI CFA_SP SP+6
        CFI Block cfiCond820 Using cfiCommon0
        CFI (cfiCond820) NoFunction
        CFI (cfiCond820) Conditional ??CrossCallReturnLabel_567
        CFI (cfiCond820) CFA_SP SP+6
        CFI Block cfiCond821 Using cfiCommon0
        CFI (cfiCond821) NoFunction
        CFI (cfiCond821) Conditional ??CrossCallReturnLabel_568
        CFI (cfiCond821) CFA_SP SP+6
        CFI Block cfiCond822 Using cfiCommon0
        CFI (cfiCond822) NoFunction
        CFI (cfiCond822) Conditional ??CrossCallReturnLabel_569
        CFI (cfiCond822) R24 Frame(CFA_Y, -4)
        CFI (cfiCond822) R25 Frame(CFA_Y, -3)
        CFI (cfiCond822) R26 Frame(CFA_Y, -2)
        CFI (cfiCond822) R27 Frame(CFA_Y, -1)
        CFI (cfiCond822) CFA_SP SP+6
        CFI (cfiCond822) CFA_Y Y+6
        CFI Block cfiPicker823 Using cfiCommon1
        CFI (cfiPicker823) NoFunction
        CFI (cfiPicker823) Picker
        LDI	R17, 0
        MOVW	R31:R30, R17:R16
        RET
        CFI EndBlock cfiCond819
        CFI EndBlock cfiCond820
        CFI EndBlock cfiCond821
        CFI EndBlock cfiCond822
        CFI EndBlock cfiPicker823
// 2416 
// 2417 
// 2418 
// 2419 
// 2420 
// 2421 
// 2422 
// 2423 
// 2424 
// 2425 
// 2426 
// 2427 

        RSEG FARCODE:CODE:NOROOT(1)
// 2428 void monitor_terminal(void)
monitor_terminal:
        CFI Block cfiBlock824 Using cfiCommon0
        CFI Function monitor_terminal
// 2429             {
        FUNCALL monitor_terminal, delay
        LOCFRAME CSTACK, 4, STACK
        LOCFRAME RSTACK, 3, STACK
        FUNCALL monitor_terminal, at_mon_232
        LOCFRAME CSTACK, 4, STACK
        LOCFRAME RSTACK, 3, STACK
        FUNCALL monitor_terminal, lock_it
        LOCFRAME CSTACK, 4, STACK
        LOCFRAME RSTACK, 3, STACK
        RCALL	?Subroutine109
        CFI R24 Frame(CFA_Y, -4)
        CFI R25 Frame(CFA_Y, -3)
        CFI R26 Frame(CFA_Y, -2)
        CFI R27 Frame(CFA_Y, -1)
        CFI CFA_Y Y+4
// 2430    
// 2431    union
// 2432      {
// 2433       unsigned char bytes[4]; 
// 2434       unsigned long int word;
// 2435      }temp_long;   
// 2436 
// 2437 
// 2438             
// 2439 
// 2440 //
// 2441 //        rts invers
// 2442 //
// 2443    
// 2444    
// 2445             if((PINB & CTS2)==CTS2)
??CrossCallReturnLabel_133:
        SBIS	0x03, 0x01
        RJMP	??monitor_terminal_0
// 2446                     { 
// 2447                       fl_at_mom_232=1;      
        LDI	R30, LOW(fl_at_mom_232)
        LDI	R31, (fl_at_mom_232) >> 8
        LDI	R16, 1
        ST	Z, R16
// 2448                       index_pa=0;
        LDI	R16, 0
        STD	Z+1, R16
// 2449                       temp_long.word=0; 
        RCALL	?Subroutine128
// 2450                       vol_tx_ppp=1;                     
??CrossCallReturnLabel_164:
        LDI	R16, 1
        RCALL	?Subroutine132
??CrossCallReturnLabel_180:
        ST	Z, R16
        STD	Z+1, R24
// 2451                       buf_tx_232[0]=0x0d;
        LDI	R16, 13
        STS	buf_tx_232, R16
// 2452                       UCSR2B=0; 
        STS	209, R24
// 2453                       UBRR2H = R4800_H;
        STS	213, R24
// 2454                       UBRR2L = R4800_L;      /* the baud rate */
        LDI	R16, 207
        STS	212, R16
// 2455                       UCSR2B=UCSR2B | RXCIE | RXEN | TXEN;
        LDS	R16, 209
        ORI	R16, 0x98
        STS	209, R16
// 2456                                
// 2457                        WDTCSR=0x18; 
        LDI	R16, 24
        STS	96, R16
// 2458                        WDTCSR=0x0f;
        LDI	R16, 15
        STS	96, R16
// 2459                        __watchdog_reset(); 
        WDR
// 2460                      
// 2461                     __enable_interrupt();                
        SEI
// 2462                      delay(30000);
        RCALL	?Subroutine110
??CrossCallReturnLabel_137:
        CALL	delay
// 2463                      
// 2464                      if(PINK & IO1)modbus_mem1[AD_TS]=modbus_mem1[AD_TS] & (~0x01); else modbus_mem1[AD_TS]=modbus_mem1[AD_TS] | 0x01;
        LDS	R16, 262
        RCALL	?Subroutine143
??CrossCallReturnLabel_205:
        SBRS	R16, 7
        RJMP	??monitor_terminal_1
        LDD	R16, Z+48
        ANDI	R16, 0xFE
        RJMP	??monitor_terminal_2
??monitor_terminal_1:
        LDD	R16, Z+48
        ORI	R16, 0x01
??monitor_terminal_2:
        STD	Z+48, R16
// 2465                      
// 2466                      S1_RD;
        SBI	0x14, 0x00
        CBI	0x14, 0x01
// 2467                      S2_GR;
        CBI	0x08, 0x00
        SBI	0x08, 0x01
// 2468                      S4_RD;
        SBI	0x08, 0x02
        CBI	0x08, 0x03
// 2469                      S3_GR;
        CBI	0x08, 0x04
        SBI	0x08, 0x05
// 2470                      S5_RD;
        SBI	0x08, 0x06
        CBI	0x08, 0x07
// 2471                      
// 2472                       do
// 2473                           {   
// 2474                           __watchdog_reset(); 
??monitor_terminal_3:
        WDR
// 2475                           
// 2476                        //   control_temperatura();    09 11 2016
// 2477                             
// 2478                           temp_long.word++;
        SUBI	R24, 255
        SBCI	R25, 255
        SBCI	R26, 255
        SBCI	R27, 255
// 2479                           if(temp_long.word>=30000)
        CPI	R24, 48
        LDI	R16, 117
        CPC	R25, R16
        LDI	R16, 0
        CPC	R26, R16
        CPC	R27, R16
        BRCS	??CrossCallReturnLabel_165
// 2480                              {
// 2481                                S1_CH;
        LDI	R16, 1
        IN	R17, 0x14
        EOR	R17, R16
        OUT	0x14, R17
        LDI	R16, 2
        IN	R17, 0x14
        EOR	R17, R16
        OUT	0x14, R17
// 2482                                S2_CH;
        LDI	R16, 1
        RCALL	?Subroutine144
??CrossCallReturnLabel_208:
        LDI	R16, 2
        RCALL	?Subroutine144
// 2483                                S3_CH;
??CrossCallReturnLabel_209:
        LDI	R16, 16
        RCALL	?Subroutine144
??CrossCallReturnLabel_210:
        LDI	R16, 32
        RCALL	?Subroutine144
// 2484                                S4_CH;
??CrossCallReturnLabel_211:
        LDI	R16, 4
        RCALL	?Subroutine144
??CrossCallReturnLabel_212:
        LDI	R16, 8
        RCALL	?Subroutine144
// 2485                                S5_CH;
??CrossCallReturnLabel_213:
        LDI	R16, 64
        RCALL	?Subroutine144
??CrossCallReturnLabel_214:
        LDI	R16, 128
        RCALL	?Subroutine144
// 2486                                temp_long.word=0;
??CrossCallReturnLabel_215:
        RCALL	?Subroutine128
// 2487                              }
// 2488                              
// 2489                              
// 2490                              at_mon_232();
??CrossCallReturnLabel_165:
        RCALL	at_mon_232
// 2491    
// 2492                         }     while((PINB & CTS2)!=0);//
        SBIC	0x03, 0x01
        RJMP	??monitor_terminal_3
// 2493                        
// 2494                       lock_it(); //должна быть функци€ перезагрузки
        CALL	lock_it
// 2495            
// 2496       }
// 2497 
// 2498 }
??monitor_terminal_0:
        RJMP	?Subroutine164
        CFI EndBlock cfiBlock824

        RSEG FARCODE:CODE:NOROOT(1)
?Subroutine144:
        CFI Block cfiCond825 Using cfiCommon0
        CFI NoFunction
        CFI Conditional ??CrossCallReturnLabel_208
        CFI R24 Frame(CFA_Y, -4)
        CFI R25 Frame(CFA_Y, -3)
        CFI R26 Frame(CFA_Y, -2)
        CFI R27 Frame(CFA_Y, -1)
        CFI CFA_SP SP+6
        CFI CFA_Y Y+4
        CFI Block cfiCond826 Using cfiCommon0
        CFI (cfiCond826) NoFunction
        CFI (cfiCond826) Conditional ??CrossCallReturnLabel_209
        CFI (cfiCond826) R24 Frame(CFA_Y, -4)
        CFI (cfiCond826) R25 Frame(CFA_Y, -3)
        CFI (cfiCond826) R26 Frame(CFA_Y, -2)
        CFI (cfiCond826) R27 Frame(CFA_Y, -1)
        CFI (cfiCond826) CFA_SP SP+6
        CFI (cfiCond826) CFA_Y Y+4
        CFI Block cfiCond827 Using cfiCommon0
        CFI (cfiCond827) NoFunction
        CFI (cfiCond827) Conditional ??CrossCallReturnLabel_210
        CFI (cfiCond827) R24 Frame(CFA_Y, -4)
        CFI (cfiCond827) R25 Frame(CFA_Y, -3)
        CFI (cfiCond827) R26 Frame(CFA_Y, -2)
        CFI (cfiCond827) R27 Frame(CFA_Y, -1)
        CFI (cfiCond827) CFA_SP SP+6
        CFI (cfiCond827) CFA_Y Y+4
        CFI Block cfiCond828 Using cfiCommon0
        CFI (cfiCond828) NoFunction
        CFI (cfiCond828) Conditional ??CrossCallReturnLabel_211
        CFI (cfiCond828) R24 Frame(CFA_Y, -4)
        CFI (cfiCond828) R25 Frame(CFA_Y, -3)
        CFI (cfiCond828) R26 Frame(CFA_Y, -2)
        CFI (cfiCond828) R27 Frame(CFA_Y, -1)
        CFI (cfiCond828) CFA_SP SP+6
        CFI (cfiCond828) CFA_Y Y+4
        CFI Block cfiCond829 Using cfiCommon0
        CFI (cfiCond829) NoFunction
        CFI (cfiCond829) Conditional ??CrossCallReturnLabel_212
        CFI (cfiCond829) R24 Frame(CFA_Y, -4)
        CFI (cfiCond829) R25 Frame(CFA_Y, -3)
        CFI (cfiCond829) R26 Frame(CFA_Y, -2)
        CFI (cfiCond829) R27 Frame(CFA_Y, -1)
        CFI (cfiCond829) CFA_SP SP+6
        CFI (cfiCond829) CFA_Y Y+4
        CFI Block cfiCond830 Using cfiCommon0
        CFI (cfiCond830) NoFunction
        CFI (cfiCond830) Conditional ??CrossCallReturnLabel_213
        CFI (cfiCond830) R24 Frame(CFA_Y, -4)
        CFI (cfiCond830) R25 Frame(CFA_Y, -3)
        CFI (cfiCond830) R26 Frame(CFA_Y, -2)
        CFI (cfiCond830) R27 Frame(CFA_Y, -1)
        CFI (cfiCond830) CFA_SP SP+6
        CFI (cfiCond830) CFA_Y Y+4
        CFI Block cfiCond831 Using cfiCommon0
        CFI (cfiCond831) NoFunction
        CFI (cfiCond831) Conditional ??CrossCallReturnLabel_214
        CFI (cfiCond831) R24 Frame(CFA_Y, -4)
        CFI (cfiCond831) R25 Frame(CFA_Y, -3)
        CFI (cfiCond831) R26 Frame(CFA_Y, -2)
        CFI (cfiCond831) R27 Frame(CFA_Y, -1)
        CFI (cfiCond831) CFA_SP SP+6
        CFI (cfiCond831) CFA_Y Y+4
        CFI Block cfiCond832 Using cfiCommon0
        CFI (cfiCond832) NoFunction
        CFI (cfiCond832) Conditional ??CrossCallReturnLabel_215
        CFI (cfiCond832) R24 Frame(CFA_Y, -4)
        CFI (cfiCond832) R25 Frame(CFA_Y, -3)
        CFI (cfiCond832) R26 Frame(CFA_Y, -2)
        CFI (cfiCond832) R27 Frame(CFA_Y, -1)
        CFI (cfiCond832) CFA_SP SP+6
        CFI (cfiCond832) CFA_Y Y+4
        CFI Block cfiPicker833 Using cfiCommon1
        CFI (cfiPicker833) NoFunction
        CFI (cfiPicker833) Picker
        IN	R17, 0x08
        EOR	R17, R16
        OUT	0x08, R17
        RET
        CFI EndBlock cfiCond825
        CFI EndBlock cfiCond826
        CFI EndBlock cfiCond827
        CFI EndBlock cfiCond828
        CFI EndBlock cfiCond829
        CFI EndBlock cfiCond830
        CFI EndBlock cfiCond831
        CFI EndBlock cfiCond832
        CFI EndBlock cfiPicker833

        RSEG FARCODE:CODE:NOROOT(1)
?Subroutine143:
        CFI Block cfiCond834 Using cfiCommon0
        CFI NoFunction
        CFI Conditional ??CrossCallReturnLabel_204
        CFI R24 Frame(CFA_Y, -9)
        CFI R25 Frame(CFA_Y, -8)
        CFI R26 Frame(CFA_Y, -7)
        CFI R27 Frame(CFA_Y, -6)
        CFI R4 Frame(CFA_Y, -5)
        CFI R5 Frame(CFA_Y, -4)
        CFI R6 Frame(CFA_Y, -3)
        CFI R7 Frame(CFA_Y, -2)
        CFI R8 Frame(CFA_Y, -1)
        CFI CFA_SP SP+6
        CFI CFA_Y Y+83
        CFI Block cfiCond835 Using cfiCommon0
        CFI (cfiCond835) NoFunction
        CFI (cfiCond835) Conditional ??CrossCallReturnLabel_205
        CFI (cfiCond835) R24 Frame(CFA_Y, -4)
        CFI (cfiCond835) R25 Frame(CFA_Y, -3)
        CFI (cfiCond835) R26 Frame(CFA_Y, -2)
        CFI (cfiCond835) R27 Frame(CFA_Y, -1)
        CFI (cfiCond835) CFA_SP SP+6
        CFI (cfiCond835) CFA_Y Y+4
        CFI Block cfiCond836 Using cfiCommon0
        CFI (cfiCond836) NoFunction
        CFI (cfiCond836) Conditional ??CrossCallReturnLabel_206
        CFI (cfiCond836) R24 Frame(CFA_Y, -6)
        CFI (cfiCond836) R25 Frame(CFA_Y, -5)
        CFI (cfiCond836) R26 Frame(CFA_Y, -4)
        CFI (cfiCond836) R27 Frame(CFA_Y, -3)
        CFI (cfiCond836) R4 Frame(CFA_Y, -2)
        CFI (cfiCond836) R5 Frame(CFA_Y, -1)
        CFI (cfiCond836) CFA_SP SP+6
        CFI (cfiCond836) CFA_Y Y+19
        CFI Block cfiCond837 Using cfiCommon0
        CFI (cfiCond837) NoFunction
        CFI (cfiCond837) Conditional ??CrossCallReturnLabel_207
        CFI (cfiCond837) R24 Frame(CFA_Y, -6)
        CFI (cfiCond837) R25 Frame(CFA_Y, -5)
        CFI (cfiCond837) R26 Frame(CFA_Y, -4)
        CFI (cfiCond837) R27 Frame(CFA_Y, -3)
        CFI (cfiCond837) R4 Frame(CFA_Y, -2)
        CFI (cfiCond837) R5 Frame(CFA_Y, -1)
        CFI (cfiCond837) CFA_SP SP+6
        CFI (cfiCond837) CFA_Y Y+19
        CFI Block cfiPicker838 Using cfiCommon1
        CFI (cfiPicker838) NoFunction
        CFI (cfiPicker838) Picker
        LDI	R30, LOW(modbus_mem1)
        LDI	R31, (modbus_mem1) >> 8
        RET
        CFI EndBlock cfiCond834
        CFI EndBlock cfiCond835
        CFI EndBlock cfiCond836
        CFI EndBlock cfiCond837
        CFI EndBlock cfiPicker838

        RSEG FARCODE:CODE:NOROOT(1)
?Subroutine132:
        CFI Block cfiCond839 Using cfiCommon0
        CFI NoFunction
        CFI Conditional ??CrossCallReturnLabel_178
        CFI R24 Frame(CFA_Y, -9)
        CFI R25 Frame(CFA_Y, -8)
        CFI R26 Frame(CFA_Y, -7)
        CFI R27 Frame(CFA_Y, -6)
        CFI R4 Frame(CFA_Y, -5)
        CFI R5 Frame(CFA_Y, -4)
        CFI R6 Frame(CFA_Y, -3)
        CFI R7 Frame(CFA_Y, -2)
        CFI R8 Frame(CFA_Y, -1)
        CFI CFA_SP SP+6
        CFI CFA_Y Y+83
        CFI Block cfiCond840 Using cfiCommon0
        CFI (cfiCond840) NoFunction
        CFI (cfiCond840) Conditional ??CrossCallReturnLabel_179
        CFI (cfiCond840) R24 Frame(CFA_Y, -9)
        CFI (cfiCond840) R25 Frame(CFA_Y, -8)
        CFI (cfiCond840) R26 Frame(CFA_Y, -7)
        CFI (cfiCond840) R27 Frame(CFA_Y, -6)
        CFI (cfiCond840) R4 Frame(CFA_Y, -5)
        CFI (cfiCond840) R5 Frame(CFA_Y, -4)
        CFI (cfiCond840) R6 Frame(CFA_Y, -3)
        CFI (cfiCond840) R7 Frame(CFA_Y, -2)
        CFI (cfiCond840) R8 Frame(CFA_Y, -1)
        CFI (cfiCond840) CFA_SP SP+6
        CFI (cfiCond840) CFA_Y Y+83
        CFI Block cfiCond841 Using cfiCommon0
        CFI (cfiCond841) NoFunction
        CFI (cfiCond841) Conditional ??CrossCallReturnLabel_180
        CFI (cfiCond841) R24 Frame(CFA_Y, -4)
        CFI (cfiCond841) R25 Frame(CFA_Y, -3)
        CFI (cfiCond841) R26 Frame(CFA_Y, -2)
        CFI (cfiCond841) R27 Frame(CFA_Y, -1)
        CFI (cfiCond841) CFA_SP SP+6
        CFI (cfiCond841) CFA_Y Y+4
        CFI Block cfiCond842 Using cfiCommon0
        CFI (cfiCond842) NoFunction
        CFI (cfiCond842) Conditional ??CrossCallReturnLabel_181
        CFI (cfiCond842) R24 Frame(CFA_Y, -6)
        CFI (cfiCond842) R25 Frame(CFA_Y, -5)
        CFI (cfiCond842) R26 Frame(CFA_Y, -4)
        CFI (cfiCond842) R27 Frame(CFA_Y, -3)
        CFI (cfiCond842) R4 Frame(CFA_Y, -2)
        CFI (cfiCond842) R5 Frame(CFA_Y, -1)
        CFI (cfiCond842) CFA_SP SP+6
        CFI (cfiCond842) CFA_Y Y+19
        CFI Block cfiPicker843 Using cfiCommon1
        CFI (cfiPicker843) NoFunction
        CFI (cfiPicker843) Picker
        LDI	R30, LOW(vol_tx_ppp)
        LDI	R31, (vol_tx_ppp) >> 8
        RET
        CFI EndBlock cfiCond839
        CFI EndBlock cfiCond840
        CFI EndBlock cfiCond841
        CFI EndBlock cfiCond842
        CFI EndBlock cfiPicker843

        RSEG FARCODE:CODE:NOROOT(1)
?Subroutine128:
        CFI Block cfiCond844 Using cfiCommon0
        CFI NoFunction
        CFI Conditional ??CrossCallReturnLabel_164
        CFI R24 Frame(CFA_Y, -4)
        CFI R25 Frame(CFA_Y, -3)
        CFI R26 Frame(CFA_Y, -2)
        CFI R27 Frame(CFA_Y, -1)
        CFI CFA_SP SP+6
        CFI CFA_Y Y+4
        CFI Block cfiCond845 Using cfiCommon0
        CFI (cfiCond845) NoFunction
        CFI (cfiCond845) Conditional ??CrossCallReturnLabel_165
        CFI (cfiCond845) R24 Frame(CFA_Y, -4)
        CFI (cfiCond845) R25 Frame(CFA_Y, -3)
        CFI (cfiCond845) R26 Frame(CFA_Y, -2)
        CFI (cfiCond845) R27 Frame(CFA_Y, -1)
        CFI (cfiCond845) CFA_SP SP+6
        CFI (cfiCond845) CFA_Y Y+4
        CFI Block cfiPicker846 Using cfiCommon1
        CFI (cfiPicker846) NoFunction
        CFI (cfiPicker846) Picker
        LDI	R24, 0
        LDI	R25, 0
        LDI	R26, 0
        LDI	R27, 0
        RET
        CFI EndBlock cfiCond844
        CFI EndBlock cfiCond845
        CFI EndBlock cfiPicker846
// 2499 
// 2500 
// 2501 //////
// 2502 
// 2503 // тестировние 485 в терминале
// 2504 
// 2505 

        RSEG FARCODE:CODE:NOROOT(1)
// 2506 void test_loop(void)
test_loop:
        CFI Block cfiBlock847 Using cfiCommon0
        CFI Function test_loop
// 2507 {
        FUNCALL test_loop, mov_lf
        LOCFRAME CSTACK, 1, STACK
        LOCFRAME RSTACK, 3, STACK
        FUNCALL test_loop, mov_s
        LOCFRAME CSTACK, 1, STACK
        LOCFRAME RSTACK, 3, STACK
        FUNCALL test_loop, mov_lf
        LOCFRAME CSTACK, 1, STACK
        LOCFRAME RSTACK, 3, STACK
        FUNCALL test_loop, s_port
        LOCFRAME CSTACK, 1, STACK
        LOCFRAME RSTACK, 3, STACK
        FUNCALL test_loop, s_port
        LOCFRAME CSTACK, 1, STACK
        LOCFRAME RSTACK, 3, STACK
        FUNCALL test_loop, s_port
        LOCFRAME CSTACK, 1, STACK
        LOCFRAME RSTACK, 3, STACK
        FUNCALL test_loop, s_port
        LOCFRAME CSTACK, 1, STACK
        LOCFRAME RSTACK, 3, STACK
        FUNCALL test_loop, s_port
        LOCFRAME CSTACK, 1, STACK
        LOCFRAME RSTACK, 3, STACK
        FUNCALL test_loop, s_port
        LOCFRAME CSTACK, 1, STACK
        LOCFRAME RSTACK, 3, STACK
        FUNCALL test_loop, mov_lf
        LOCFRAME CSTACK, 1, STACK
        LOCFRAME RSTACK, 3, STACK
        RCALL	?Subroutine108
        CFI R24 Frame(CFA_Y, -1)
        CFI CFA_Y Y+1
// 2508 char i,dummy;
// 2509                mov_lf();
// 2510                mov_s ( sizeof(str_loop_ok),str_loop_ok);                              
??CrossCallReturnLabel_519:
        LDI	R18, LOW(str_loop_ok)
        LDI	R19, (str_loop_ok) >> 8
        RCALL	?Subroutine0
// 2511                mov_lf();
// 2512                  
// 2513 
// 2514 
// 2515                       UBRR1H = R4800_H;
// 2516                       UBRR1L = R4800_L;      
// 2517                       UCSR1B=UCSR1B  | RXEN | TXEN;   // разрешить прием и передачу без прерываний
// 2518 
// 2519                       UBRR3H = R4800_H;
// 2520                       UBRR3L = R4800_L;      
// 2521                       UCSR3B=UCSR3B  | RXEN | TXEN;   // разрешить прием и передачу без прерываний
// 2522 
// 2523 // очистить порты 
// 2524 //
// 2525       dummy=UDR1;
// 2526       dummy=UDR3;
// 2527 
// 2528        SET_RTS3;  // !!!!!
??CrossCallReturnLabel_0:
        SBI	0x0B, 0x04
// 2529 
// 2530         for (i=0;i<10;i++)
        LDI	R24, 0
// 2531      {
// 2532        __watchdog_reset(); 
??test_loop_0:
        RCALL	?Subroutine51
// 2533        s_port('s');
// 2534        s_port(i + 0x30);
// 2535        UDR1=i;
??CrossCallReturnLabel_471:
        STS	206, R24
// 2536 //
// 2537 // бросаем в порт 485_1 
// 2538 //
// 2539         term.time_out_loop=0;           // в милисекундном таймере должна увеличиватьс€ 
        RCALL	?Subroutine5
// 2540 LoopWait_rs485_1:
// 2541             if(term.time_out_loop > 200 ) 
??CrossCallReturnLabel_323:
        RCALL	?Subroutine125
??CrossCallReturnLabel_344:
        BRCS	??test_loop_1
// 2542                 {
// 2543        s_port('r');
        RCALL	?Subroutine53
// 2544        s_port('x');
??CrossCallReturnLabel_66:
        RJMP	??test_loop_2
// 2545      // goto tutu;
// 2546        continue;
// 2547                 }
// 2548 //
// 2549 // принимаю с 485_2
// 2550 //
// 2551              if ( (UCSR3A & 0x80) ==0) goto LoopWait_rs485_1;
??test_loop_1:
        LDS	R16, 304
        SBRS	R16, 7
        RJMP	??CrossCallReturnLabel_323
// 2552              s_port('r');
        RCALL	?Subroutine54
// 2553              dummy=UDR3;
??CrossCallReturnLabel_473:
        LDS	R16, 310
// 2554              s_port(dummy + 0x30);
        SUBI	R16, 208
??test_loop_2:
        RCALL	?Subroutine113
// 2555 //     tutu:
// 2556  //             _NOP();
// 2557        }
??CrossCallReturnLabel_143:
        BRCS	??test_loop_0
// 2558 
// 2559                                             
// 2560                mov_lf();
        RCALL	?Subroutine165
// 2561          //      s_port('>');
// 2562                CLR_RTS3;
??CrossCallReturnLabel_522:
        CBI	0x0B, 0x04
        CFI EndBlock cfiBlock847
// 2563 }               
        REQUIRE ?Subroutine162
        ;		// Fall through to label ?Subroutine162

        RSEG FARCODE:CODE:NOROOT(1)
?Subroutine162:
        CFI Block cfiBlock848 Using cfiCommon0
        CFI NoFunction
        CFI CFA_Y Y+1
        CFI R24 Frame(CFA_Y, -1)
        LD	R24, Y+
        CFI CFA_Y Y+0
        CFI R24 SameValue
        RET
        CFI EndBlock cfiBlock848

        RSEG FARCODE:CODE:NOROOT(1)
?Subroutine165:
        CFI Block cfiCond849 Using cfiCommon0
        CFI NoFunction
        CFI Conditional ??CrossCallReturnLabel_565
        CFI R24 Frame(CFA_Y, -5)
        CFI R25 Frame(CFA_Y, -4)
        CFI R26 Frame(CFA_Y, -3)
        CFI R27 Frame(CFA_Y, -2)
        CFI R4 Frame(CFA_Y, -1)
        CFI CFA_SP SP+6
        CFI CFA_Y Y+88
        CFI Block cfiCond850 Using cfiCommon0
        CFI (cfiCond850) NoFunction
        CFI (cfiCond850) Conditional ??CrossCallReturnLabel_564
        CFI (cfiCond850) R24 Frame(CFA_Y, -5)
        CFI (cfiCond850) R25 Frame(CFA_Y, -4)
        CFI (cfiCond850) R26 Frame(CFA_Y, -3)
        CFI (cfiCond850) R27 Frame(CFA_Y, -2)
        CFI (cfiCond850) R4 Frame(CFA_Y, -1)
        CFI (cfiCond850) CFA_SP SP+6
        CFI (cfiCond850) CFA_Y Y+88
        CFI Block cfiCond851 Using cfiCommon0
        CFI (cfiCond851) NoFunction
        CFI (cfiCond851) Conditional ??CrossCallReturnLabel_563
        CFI (cfiCond851) R24 Frame(CFA_Y, -5)
        CFI (cfiCond851) R25 Frame(CFA_Y, -4)
        CFI (cfiCond851) R26 Frame(CFA_Y, -3)
        CFI (cfiCond851) R27 Frame(CFA_Y, -2)
        CFI (cfiCond851) R4 Frame(CFA_Y, -1)
        CFI (cfiCond851) CFA_SP SP+6
        CFI (cfiCond851) CFA_Y Y+88
        CFI Block cfiCond852 Using cfiCommon0
        CFI (cfiCond852) NoFunction
        CFI (cfiCond852) Conditional ??CrossCallReturnLabel_562
        CFI (cfiCond852) R24 Frame(CFA_Y, -5)
        CFI (cfiCond852) R25 Frame(CFA_Y, -4)
        CFI (cfiCond852) R26 Frame(CFA_Y, -3)
        CFI (cfiCond852) R27 Frame(CFA_Y, -2)
        CFI (cfiCond852) R4 Frame(CFA_Y, -1)
        CFI (cfiCond852) CFA_SP SP+6
        CFI (cfiCond852) CFA_Y Y+88
        CFI Block cfiCond853 Using cfiCommon0
        CFI (cfiCond853) NoFunction
        CFI (cfiCond853) Conditional ??CrossCallReturnLabel_561
        CFI (cfiCond853) R24 Frame(CFA_Y, -5)
        CFI (cfiCond853) R25 Frame(CFA_Y, -4)
        CFI (cfiCond853) R26 Frame(CFA_Y, -3)
        CFI (cfiCond853) R27 Frame(CFA_Y, -2)
        CFI (cfiCond853) R4 Frame(CFA_Y, -1)
        CFI (cfiCond853) CFA_SP SP+6
        CFI (cfiCond853) CFA_Y Y+88
        CFI Block cfiCond854 Using cfiCommon0
        CFI (cfiCond854) NoFunction
        CFI (cfiCond854) Conditional ??CrossCallReturnLabel_560
        CFI (cfiCond854) R24 Frame(CFA_Y, -5)
        CFI (cfiCond854) R25 Frame(CFA_Y, -4)
        CFI (cfiCond854) R26 Frame(CFA_Y, -3)
        CFI (cfiCond854) R27 Frame(CFA_Y, -2)
        CFI (cfiCond854) R4 Frame(CFA_Y, -1)
        CFI (cfiCond854) CFA_SP SP+6
        CFI (cfiCond854) CFA_Y Y+88
        CFI Block cfiCond855 Using cfiCommon0
        CFI (cfiCond855) NoFunction
        CFI (cfiCond855) Conditional ??CrossCallReturnLabel_559
        CFI (cfiCond855) R24 Frame(CFA_Y, -5)
        CFI (cfiCond855) R25 Frame(CFA_Y, -4)
        CFI (cfiCond855) R26 Frame(CFA_Y, -3)
        CFI (cfiCond855) R27 Frame(CFA_Y, -2)
        CFI (cfiCond855) R4 Frame(CFA_Y, -1)
        CFI (cfiCond855) CFA_SP SP+6
        CFI (cfiCond855) CFA_Y Y+88
        CFI Block cfiCond856 Using cfiCommon0
        CFI (cfiCond856) NoFunction
        CFI (cfiCond856) Conditional ??CrossCallReturnLabel_558
        CFI (cfiCond856) R24 Frame(CFA_Y, -5)
        CFI (cfiCond856) R25 Frame(CFA_Y, -4)
        CFI (cfiCond856) R26 Frame(CFA_Y, -3)
        CFI (cfiCond856) R27 Frame(CFA_Y, -2)
        CFI (cfiCond856) R4 Frame(CFA_Y, -1)
        CFI (cfiCond856) CFA_SP SP+6
        CFI (cfiCond856) CFA_Y Y+88
        CFI Block cfiCond857 Using cfiCommon0
        CFI (cfiCond857) NoFunction
        CFI (cfiCond857) Conditional ??CrossCallReturnLabel_557
        CFI (cfiCond857) R24 Frame(CFA_Y, -5)
        CFI (cfiCond857) R25 Frame(CFA_Y, -4)
        CFI (cfiCond857) R26 Frame(CFA_Y, -3)
        CFI (cfiCond857) R27 Frame(CFA_Y, -2)
        CFI (cfiCond857) R4 Frame(CFA_Y, -1)
        CFI (cfiCond857) CFA_SP SP+6
        CFI (cfiCond857) CFA_Y Y+88
        CFI Block cfiCond858 Using cfiCommon0
        CFI (cfiCond858) NoFunction
        CFI (cfiCond858) Conditional ??CrossCallReturnLabel_556
        CFI (cfiCond858) R24 Frame(CFA_Y, -5)
        CFI (cfiCond858) R25 Frame(CFA_Y, -4)
        CFI (cfiCond858) R26 Frame(CFA_Y, -3)
        CFI (cfiCond858) R27 Frame(CFA_Y, -2)
        CFI (cfiCond858) R4 Frame(CFA_Y, -1)
        CFI (cfiCond858) CFA_SP SP+6
        CFI (cfiCond858) CFA_Y Y+88
        CFI Block cfiCond859 Using cfiCommon0
        CFI (cfiCond859) NoFunction
        CFI (cfiCond859) Conditional ??CrossCallReturnLabel_555
        CFI (cfiCond859) R24 Frame(CFA_Y, -5)
        CFI (cfiCond859) R25 Frame(CFA_Y, -4)
        CFI (cfiCond859) R26 Frame(CFA_Y, -3)
        CFI (cfiCond859) R27 Frame(CFA_Y, -2)
        CFI (cfiCond859) R4 Frame(CFA_Y, -1)
        CFI (cfiCond859) CFA_SP SP+6
        CFI (cfiCond859) CFA_Y Y+88
        CFI Block cfiCond860 Using cfiCommon0
        CFI (cfiCond860) NoFunction
        CFI (cfiCond860) Conditional ??CrossCallReturnLabel_554
        CFI (cfiCond860) R24 Frame(CFA_Y, -5)
        CFI (cfiCond860) R25 Frame(CFA_Y, -4)
        CFI (cfiCond860) R26 Frame(CFA_Y, -3)
        CFI (cfiCond860) R27 Frame(CFA_Y, -2)
        CFI (cfiCond860) R4 Frame(CFA_Y, -1)
        CFI (cfiCond860) CFA_SP SP+6
        CFI (cfiCond860) CFA_Y Y+88
        CFI Block cfiCond861 Using cfiCommon0
        CFI (cfiCond861) NoFunction
        CFI (cfiCond861) Conditional ??CrossCallReturnLabel_553
        CFI (cfiCond861) R24 Frame(CFA_Y, -5)
        CFI (cfiCond861) R25 Frame(CFA_Y, -4)
        CFI (cfiCond861) R26 Frame(CFA_Y, -3)
        CFI (cfiCond861) R27 Frame(CFA_Y, -2)
        CFI (cfiCond861) R4 Frame(CFA_Y, -1)
        CFI (cfiCond861) CFA_SP SP+6
        CFI (cfiCond861) CFA_Y Y+88
        CFI Block cfiCond862 Using cfiCommon0
        CFI (cfiCond862) NoFunction
        CFI (cfiCond862) Conditional ??CrossCallReturnLabel_552
        CFI (cfiCond862) R24 Frame(CFA_Y, -5)
        CFI (cfiCond862) R25 Frame(CFA_Y, -4)
        CFI (cfiCond862) R26 Frame(CFA_Y, -3)
        CFI (cfiCond862) R27 Frame(CFA_Y, -2)
        CFI (cfiCond862) R4 Frame(CFA_Y, -1)
        CFI (cfiCond862) CFA_SP SP+6
        CFI (cfiCond862) CFA_Y Y+88
        CFI Block cfiCond863 Using cfiCommon0
        CFI (cfiCond863) NoFunction
        CFI (cfiCond863) Conditional ??CrossCallReturnLabel_551
        CFI (cfiCond863) R24 Frame(CFA_Y, -5)
        CFI (cfiCond863) R25 Frame(CFA_Y, -4)
        CFI (cfiCond863) R26 Frame(CFA_Y, -3)
        CFI (cfiCond863) R27 Frame(CFA_Y, -2)
        CFI (cfiCond863) R4 Frame(CFA_Y, -1)
        CFI (cfiCond863) CFA_SP SP+6
        CFI (cfiCond863) CFA_Y Y+88
        CFI Block cfiCond864 Using cfiCommon0
        CFI (cfiCond864) NoFunction
        CFI (cfiCond864) Conditional ??CrossCallReturnLabel_550
        CFI (cfiCond864) R24 Frame(CFA_Y, -5)
        CFI (cfiCond864) R25 Frame(CFA_Y, -4)
        CFI (cfiCond864) R26 Frame(CFA_Y, -3)
        CFI (cfiCond864) R27 Frame(CFA_Y, -2)
        CFI (cfiCond864) R4 Frame(CFA_Y, -1)
        CFI (cfiCond864) CFA_SP SP+6
        CFI (cfiCond864) CFA_Y Y+88
        CFI Block cfiCond865 Using cfiCommon0
        CFI (cfiCond865) NoFunction
        CFI (cfiCond865) Conditional ??CrossCallReturnLabel_549
        CFI (cfiCond865) R24 Frame(CFA_Y, -5)
        CFI (cfiCond865) R25 Frame(CFA_Y, -4)
        CFI (cfiCond865) R26 Frame(CFA_Y, -3)
        CFI (cfiCond865) R27 Frame(CFA_Y, -2)
        CFI (cfiCond865) R4 Frame(CFA_Y, -1)
        CFI (cfiCond865) CFA_SP SP+6
        CFI (cfiCond865) CFA_Y Y+88
        CFI Block cfiCond866 Using cfiCommon0
        CFI (cfiCond866) NoFunction
        CFI (cfiCond866) Conditional ??CrossCallReturnLabel_548
        CFI (cfiCond866) R24 Frame(CFA_Y, -5)
        CFI (cfiCond866) R25 Frame(CFA_Y, -4)
        CFI (cfiCond866) R26 Frame(CFA_Y, -3)
        CFI (cfiCond866) R27 Frame(CFA_Y, -2)
        CFI (cfiCond866) R4 Frame(CFA_Y, -1)
        CFI (cfiCond866) CFA_SP SP+6
        CFI (cfiCond866) CFA_Y Y+88
        CFI Block cfiCond867 Using cfiCommon0
        CFI (cfiCond867) NoFunction
        CFI (cfiCond867) Conditional ??CrossCallReturnLabel_547
        CFI (cfiCond867) R24 Frame(CFA_Y, -5)
        CFI (cfiCond867) R25 Frame(CFA_Y, -4)
        CFI (cfiCond867) R26 Frame(CFA_Y, -3)
        CFI (cfiCond867) R27 Frame(CFA_Y, -2)
        CFI (cfiCond867) R4 Frame(CFA_Y, -1)
        CFI (cfiCond867) CFA_SP SP+6
        CFI (cfiCond867) CFA_Y Y+88
        CFI Block cfiCond868 Using cfiCommon0
        CFI (cfiCond868) NoFunction
        CFI (cfiCond868) Conditional ??CrossCallReturnLabel_546
        CFI (cfiCond868) R24 Frame(CFA_Y, -5)
        CFI (cfiCond868) R25 Frame(CFA_Y, -4)
        CFI (cfiCond868) R26 Frame(CFA_Y, -3)
        CFI (cfiCond868) R27 Frame(CFA_Y, -2)
        CFI (cfiCond868) R4 Frame(CFA_Y, -1)
        CFI (cfiCond868) CFA_SP SP+6
        CFI (cfiCond868) CFA_Y Y+88
        CFI Block cfiCond869 Using cfiCommon0
        CFI (cfiCond869) NoFunction
        CFI (cfiCond869) Conditional ??CrossCallReturnLabel_545
        CFI (cfiCond869) R24 Frame(CFA_Y, -5)
        CFI (cfiCond869) R25 Frame(CFA_Y, -4)
        CFI (cfiCond869) R26 Frame(CFA_Y, -3)
        CFI (cfiCond869) R27 Frame(CFA_Y, -2)
        CFI (cfiCond869) R4 Frame(CFA_Y, -1)
        CFI (cfiCond869) CFA_SP SP+6
        CFI (cfiCond869) CFA_Y Y+88
        CFI Block cfiCond870 Using cfiCommon0
        CFI (cfiCond870) NoFunction
        CFI (cfiCond870) Conditional ??CrossCallReturnLabel_544
        CFI (cfiCond870) R24 Frame(CFA_Y, -5)
        CFI (cfiCond870) R25 Frame(CFA_Y, -4)
        CFI (cfiCond870) R26 Frame(CFA_Y, -3)
        CFI (cfiCond870) R27 Frame(CFA_Y, -2)
        CFI (cfiCond870) R4 Frame(CFA_Y, -1)
        CFI (cfiCond870) CFA_SP SP+6
        CFI (cfiCond870) CFA_Y Y+88
        CFI Block cfiCond871 Using cfiCommon0
        CFI (cfiCond871) NoFunction
        CFI (cfiCond871) Conditional ??CrossCallReturnLabel_543
        CFI (cfiCond871) R24 Frame(CFA_Y, -5)
        CFI (cfiCond871) R25 Frame(CFA_Y, -4)
        CFI (cfiCond871) R26 Frame(CFA_Y, -3)
        CFI (cfiCond871) R27 Frame(CFA_Y, -2)
        CFI (cfiCond871) R4 Frame(CFA_Y, -1)
        CFI (cfiCond871) CFA_SP SP+6
        CFI (cfiCond871) CFA_Y Y+88
        CFI Block cfiCond872 Using cfiCommon0
        CFI (cfiCond872) NoFunction
        CFI (cfiCond872) Conditional ??CrossCallReturnLabel_542
        CFI (cfiCond872) R24 Frame(CFA_Y, -5)
        CFI (cfiCond872) R25 Frame(CFA_Y, -4)
        CFI (cfiCond872) R26 Frame(CFA_Y, -3)
        CFI (cfiCond872) R27 Frame(CFA_Y, -2)
        CFI (cfiCond872) R4 Frame(CFA_Y, -1)
        CFI (cfiCond872) CFA_SP SP+6
        CFI (cfiCond872) CFA_Y Y+88
        CFI Block cfiCond873 Using cfiCommon0
        CFI (cfiCond873) NoFunction
        CFI (cfiCond873) Conditional ??CrossCallReturnLabel_541
        CFI (cfiCond873) R24 Frame(CFA_Y, -5)
        CFI (cfiCond873) R25 Frame(CFA_Y, -4)
        CFI (cfiCond873) R26 Frame(CFA_Y, -3)
        CFI (cfiCond873) R27 Frame(CFA_Y, -2)
        CFI (cfiCond873) R4 Frame(CFA_Y, -1)
        CFI (cfiCond873) CFA_SP SP+6
        CFI (cfiCond873) CFA_Y Y+88
        CFI Block cfiCond874 Using cfiCommon0
        CFI (cfiCond874) NoFunction
        CFI (cfiCond874) Conditional ??CrossCallReturnLabel_540
        CFI (cfiCond874) R24 Frame(CFA_Y, -5)
        CFI (cfiCond874) R25 Frame(CFA_Y, -4)
        CFI (cfiCond874) R26 Frame(CFA_Y, -3)
        CFI (cfiCond874) R27 Frame(CFA_Y, -2)
        CFI (cfiCond874) R4 Frame(CFA_Y, -1)
        CFI (cfiCond874) CFA_SP SP+6
        CFI (cfiCond874) CFA_Y Y+88
        CFI Block cfiCond875 Using cfiCommon0
        CFI (cfiCond875) NoFunction
        CFI (cfiCond875) Conditional ??CrossCallReturnLabel_539
        CFI (cfiCond875) R24 Frame(CFA_Y, -5)
        CFI (cfiCond875) R25 Frame(CFA_Y, -4)
        CFI (cfiCond875) R26 Frame(CFA_Y, -3)
        CFI (cfiCond875) R27 Frame(CFA_Y, -2)
        CFI (cfiCond875) R4 Frame(CFA_Y, -1)
        CFI (cfiCond875) CFA_SP SP+6
        CFI (cfiCond875) CFA_Y Y+88
        CFI Block cfiCond876 Using cfiCommon0
        CFI (cfiCond876) NoFunction
        CFI (cfiCond876) Conditional ??CrossCallReturnLabel_538
        CFI (cfiCond876) R24 Frame(CFA_Y, -5)
        CFI (cfiCond876) R25 Frame(CFA_Y, -4)
        CFI (cfiCond876) R26 Frame(CFA_Y, -3)
        CFI (cfiCond876) R27 Frame(CFA_Y, -2)
        CFI (cfiCond876) R4 Frame(CFA_Y, -1)
        CFI (cfiCond876) CFA_SP SP+6
        CFI (cfiCond876) CFA_Y Y+88
        CFI Block cfiCond877 Using cfiCommon0
        CFI (cfiCond877) NoFunction
        CFI (cfiCond877) Conditional ??CrossCallReturnLabel_537
        CFI (cfiCond877) R24 Frame(CFA_Y, -5)
        CFI (cfiCond877) R25 Frame(CFA_Y, -4)
        CFI (cfiCond877) R26 Frame(CFA_Y, -3)
        CFI (cfiCond877) R27 Frame(CFA_Y, -2)
        CFI (cfiCond877) R4 Frame(CFA_Y, -1)
        CFI (cfiCond877) CFA_SP SP+6
        CFI (cfiCond877) CFA_Y Y+88
        CFI Block cfiCond878 Using cfiCommon0
        CFI (cfiCond878) NoFunction
        CFI (cfiCond878) Conditional ??CrossCallReturnLabel_536
        CFI (cfiCond878) R24 Frame(CFA_Y, -5)
        CFI (cfiCond878) R25 Frame(CFA_Y, -4)
        CFI (cfiCond878) R26 Frame(CFA_Y, -3)
        CFI (cfiCond878) R27 Frame(CFA_Y, -2)
        CFI (cfiCond878) R4 Frame(CFA_Y, -1)
        CFI (cfiCond878) CFA_SP SP+6
        CFI (cfiCond878) CFA_Y Y+88
        CFI Block cfiCond879 Using cfiCommon0
        CFI (cfiCond879) NoFunction
        CFI (cfiCond879) Conditional ??CrossCallReturnLabel_535
        CFI (cfiCond879) R24 Frame(CFA_Y, -5)
        CFI (cfiCond879) R25 Frame(CFA_Y, -4)
        CFI (cfiCond879) R26 Frame(CFA_Y, -3)
        CFI (cfiCond879) R27 Frame(CFA_Y, -2)
        CFI (cfiCond879) R4 Frame(CFA_Y, -1)
        CFI (cfiCond879) CFA_SP SP+6
        CFI (cfiCond879) CFA_Y Y+88
        CFI Block cfiCond880 Using cfiCommon0
        CFI (cfiCond880) NoFunction
        CFI (cfiCond880) Conditional ??CrossCallReturnLabel_534
        CFI (cfiCond880) R24 Frame(CFA_Y, -5)
        CFI (cfiCond880) R25 Frame(CFA_Y, -4)
        CFI (cfiCond880) R26 Frame(CFA_Y, -3)
        CFI (cfiCond880) R27 Frame(CFA_Y, -2)
        CFI (cfiCond880) R4 Frame(CFA_Y, -1)
        CFI (cfiCond880) CFA_SP SP+6
        CFI (cfiCond880) CFA_Y Y+88
        CFI Block cfiCond881 Using cfiCommon0
        CFI (cfiCond881) NoFunction
        CFI (cfiCond881) Conditional ??CrossCallReturnLabel_533
        CFI (cfiCond881) R24 Frame(CFA_Y, -5)
        CFI (cfiCond881) R25 Frame(CFA_Y, -4)
        CFI (cfiCond881) R26 Frame(CFA_Y, -3)
        CFI (cfiCond881) R27 Frame(CFA_Y, -2)
        CFI (cfiCond881) R4 Frame(CFA_Y, -1)
        CFI (cfiCond881) CFA_SP SP+6
        CFI (cfiCond881) CFA_Y Y+88
        CFI Block cfiCond882 Using cfiCommon0
        CFI (cfiCond882) NoFunction
        CFI (cfiCond882) Conditional ??CrossCallReturnLabel_532
        CFI (cfiCond882) R24 Frame(CFA_Y, -5)
        CFI (cfiCond882) R25 Frame(CFA_Y, -4)
        CFI (cfiCond882) R26 Frame(CFA_Y, -3)
        CFI (cfiCond882) R27 Frame(CFA_Y, -2)
        CFI (cfiCond882) R4 Frame(CFA_Y, -1)
        CFI (cfiCond882) CFA_SP SP+6
        CFI (cfiCond882) CFA_Y Y+88
        CFI Block cfiCond883 Using cfiCommon0
        CFI (cfiCond883) NoFunction
        CFI (cfiCond883) Conditional ??CrossCallReturnLabel_531
        CFI (cfiCond883) R24 Frame(CFA_Y, -5)
        CFI (cfiCond883) R25 Frame(CFA_Y, -4)
        CFI (cfiCond883) R26 Frame(CFA_Y, -3)
        CFI (cfiCond883) R27 Frame(CFA_Y, -2)
        CFI (cfiCond883) R4 Frame(CFA_Y, -1)
        CFI (cfiCond883) CFA_SP SP+6
        CFI (cfiCond883) CFA_Y Y+88
        CFI Block cfiCond884 Using cfiCommon0
        CFI (cfiCond884) NoFunction
        CFI (cfiCond884) Conditional ??CrossCallReturnLabel_530
        CFI (cfiCond884) R24 Frame(CFA_Y, -5)
        CFI (cfiCond884) R25 Frame(CFA_Y, -4)
        CFI (cfiCond884) R26 Frame(CFA_Y, -3)
        CFI (cfiCond884) R27 Frame(CFA_Y, -2)
        CFI (cfiCond884) R4 Frame(CFA_Y, -1)
        CFI (cfiCond884) CFA_SP SP+6
        CFI (cfiCond884) CFA_Y Y+88
        CFI Block cfiCond885 Using cfiCommon0
        CFI (cfiCond885) NoFunction
        CFI (cfiCond885) Conditional ??CrossCallReturnLabel_529
        CFI (cfiCond885) R24 Frame(CFA_Y, -5)
        CFI (cfiCond885) R25 Frame(CFA_Y, -4)
        CFI (cfiCond885) R26 Frame(CFA_Y, -3)
        CFI (cfiCond885) R27 Frame(CFA_Y, -2)
        CFI (cfiCond885) R4 Frame(CFA_Y, -1)
        CFI (cfiCond885) CFA_SP SP+6
        CFI (cfiCond885) CFA_Y Y+88
        CFI Block cfiCond886 Using cfiCommon0
        CFI (cfiCond886) NoFunction
        CFI (cfiCond886) Conditional ??CrossCallReturnLabel_528
        CFI (cfiCond886) R24 Frame(CFA_Y, -5)
        CFI (cfiCond886) R25 Frame(CFA_Y, -4)
        CFI (cfiCond886) R26 Frame(CFA_Y, -3)
        CFI (cfiCond886) R27 Frame(CFA_Y, -2)
        CFI (cfiCond886) R4 Frame(CFA_Y, -1)
        CFI (cfiCond886) CFA_SP SP+6
        CFI (cfiCond886) CFA_Y Y+88
        CFI Block cfiCond887 Using cfiCommon0
        CFI (cfiCond887) NoFunction
        CFI (cfiCond887) Conditional ??CrossCallReturnLabel_527
        CFI (cfiCond887) R24 Frame(CFA_Y, -5)
        CFI (cfiCond887) R25 Frame(CFA_Y, -4)
        CFI (cfiCond887) R26 Frame(CFA_Y, -3)
        CFI (cfiCond887) R27 Frame(CFA_Y, -2)
        CFI (cfiCond887) R4 Frame(CFA_Y, -1)
        CFI (cfiCond887) CFA_SP SP+6
        CFI (cfiCond887) CFA_Y Y+88
        CFI Block cfiCond888 Using cfiCommon0
        CFI (cfiCond888) NoFunction
        CFI (cfiCond888) Conditional ??CrossCallReturnLabel_526
        CFI (cfiCond888) R24 Frame(CFA_Y, -5)
        CFI (cfiCond888) R25 Frame(CFA_Y, -4)
        CFI (cfiCond888) R26 Frame(CFA_Y, -3)
        CFI (cfiCond888) R27 Frame(CFA_Y, -2)
        CFI (cfiCond888) R4 Frame(CFA_Y, -1)
        CFI (cfiCond888) CFA_SP SP+6
        CFI (cfiCond888) CFA_Y Y+88
        CFI Block cfiCond889 Using cfiCommon0
        CFI (cfiCond889) NoFunction
        CFI (cfiCond889) Conditional ??CrossCallReturnLabel_525
        CFI (cfiCond889) R24 Frame(CFA_Y, -5)
        CFI (cfiCond889) R25 Frame(CFA_Y, -4)
        CFI (cfiCond889) R26 Frame(CFA_Y, -3)
        CFI (cfiCond889) R27 Frame(CFA_Y, -2)
        CFI (cfiCond889) R4 Frame(CFA_Y, -1)
        CFI (cfiCond889) CFA_SP SP+6
        CFI (cfiCond889) CFA_Y Y+88
        CFI Block cfiCond890 Using cfiCommon0
        CFI (cfiCond890) NoFunction
        CFI (cfiCond890) Conditional ??CrossCallReturnLabel_524
        CFI (cfiCond890) R24 Frame(CFA_Y, -9)
        CFI (cfiCond890) R25 Frame(CFA_Y, -8)
        CFI (cfiCond890) R26 Frame(CFA_Y, -7)
        CFI (cfiCond890) R27 Frame(CFA_Y, -6)
        CFI (cfiCond890) R4 Frame(CFA_Y, -5)
        CFI (cfiCond890) R5 Frame(CFA_Y, -4)
        CFI (cfiCond890) R6 Frame(CFA_Y, -3)
        CFI (cfiCond890) R7 Frame(CFA_Y, -2)
        CFI (cfiCond890) R8 Frame(CFA_Y, -1)
        CFI (cfiCond890) CFA_SP SP+6
        CFI (cfiCond890) CFA_Y Y+83
        CFI Block cfiCond891 Using cfiCommon0
        CFI (cfiCond891) NoFunction
        CFI (cfiCond891) Conditional ??CrossCallReturnLabel_523
        CFI (cfiCond891) R24 Frame(CFA_Y, -9)
        CFI (cfiCond891) R25 Frame(CFA_Y, -8)
        CFI (cfiCond891) R26 Frame(CFA_Y, -7)
        CFI (cfiCond891) R27 Frame(CFA_Y, -6)
        CFI (cfiCond891) R4 Frame(CFA_Y, -5)
        CFI (cfiCond891) R5 Frame(CFA_Y, -4)
        CFI (cfiCond891) R6 Frame(CFA_Y, -3)
        CFI (cfiCond891) R7 Frame(CFA_Y, -2)
        CFI (cfiCond891) R8 Frame(CFA_Y, -1)
        CFI (cfiCond891) CFA_SP SP+6
        CFI (cfiCond891) CFA_Y Y+83
        CFI Block cfiCond892 Using cfiCommon0
        CFI (cfiCond892) NoFunction
        CFI (cfiCond892) Conditional ??CrossCallReturnLabel_522
        CFI (cfiCond892) R24 Frame(CFA_Y, -1)
        CFI (cfiCond892) CFA_SP SP+6
        CFI (cfiCond892) CFA_Y Y+1
        CFI Block cfiCond893 Using cfiCommon0
        CFI (cfiCond893) NoFunction
        CFI (cfiCond893) Conditional ??CrossCallReturnLabel_521
        CFI (cfiCond893) R24 Frame(CFA_Y, -6)
        CFI (cfiCond893) R25 Frame(CFA_Y, -5)
        CFI (cfiCond893) R26 Frame(CFA_Y, -4)
        CFI (cfiCond893) R27 Frame(CFA_Y, -3)
        CFI (cfiCond893) R4 Frame(CFA_Y, -2)
        CFI (cfiCond893) R5 Frame(CFA_Y, -1)
        CFI (cfiCond893) CFA_SP SP+6
        CFI (cfiCond893) CFA_Y Y+19
        CFI Block cfiCond894 Using cfiCommon0
        CFI (cfiCond894) NoFunction
        CFI (cfiCond894) Conditional ??CrossCallReturnLabel_520
        CFI (cfiCond894) R24 Frame(CFA_Y, -6)
        CFI (cfiCond894) R25 Frame(CFA_Y, -5)
        CFI (cfiCond894) R26 Frame(CFA_Y, -4)
        CFI (cfiCond894) R27 Frame(CFA_Y, -3)
        CFI (cfiCond894) R4 Frame(CFA_Y, -2)
        CFI (cfiCond894) R5 Frame(CFA_Y, -1)
        CFI (cfiCond894) CFA_SP SP+6
        CFI (cfiCond894) CFA_Y Y+19
        CFI Block cfiCond895 Using cfiCommon0
        CFI (cfiCond895) NoFunction
        CFI (cfiCond895) Conditional ??CrossCallReturnLabel_519
        CFI (cfiCond895) R24 Frame(CFA_Y, -1)
        CFI (cfiCond895) CFA_SP SP+6
        CFI (cfiCond895) CFA_Y Y+1
        CFI Block cfiCond896 Using cfiCommon0
        CFI (cfiCond896) NoFunction
        CFI (cfiCond896) Conditional ??CrossCallReturnLabel_518
        CFI (cfiCond896) R24 Frame(CFA_Y, -1)
        CFI (cfiCond896) CFA_SP SP+6
        CFI (cfiCond896) CFA_Y Y+1
        CFI Block cfiPicker897 Using cfiCommon1
        CFI (cfiPicker897) NoFunction
        CFI (cfiPicker897) Picker
        JMP	mov_lf
        CFI EndBlock cfiCond849
        CFI EndBlock cfiCond850
        CFI EndBlock cfiCond851
        CFI EndBlock cfiCond852
        CFI EndBlock cfiCond853
        CFI EndBlock cfiCond854
        CFI EndBlock cfiCond855
        CFI EndBlock cfiCond856
        CFI EndBlock cfiCond857
        CFI EndBlock cfiCond858
        CFI EndBlock cfiCond859
        CFI EndBlock cfiCond860
        CFI EndBlock cfiCond861
        CFI EndBlock cfiCond862
        CFI EndBlock cfiCond863
        CFI EndBlock cfiCond864
        CFI EndBlock cfiCond865
        CFI EndBlock cfiCond866
        CFI EndBlock cfiCond867
        CFI EndBlock cfiCond868
        CFI EndBlock cfiCond869
        CFI EndBlock cfiCond870
        CFI EndBlock cfiCond871
        CFI EndBlock cfiCond872
        CFI EndBlock cfiCond873
        CFI EndBlock cfiCond874
        CFI EndBlock cfiCond875
        CFI EndBlock cfiCond876
        CFI EndBlock cfiCond877
        CFI EndBlock cfiCond878
        CFI EndBlock cfiCond879
        CFI EndBlock cfiCond880
        CFI EndBlock cfiCond881
        CFI EndBlock cfiCond882
        CFI EndBlock cfiCond883
        CFI EndBlock cfiCond884
        CFI EndBlock cfiCond885
        CFI EndBlock cfiCond886
        CFI EndBlock cfiCond887
        CFI EndBlock cfiCond888
        CFI EndBlock cfiCond889
        CFI EndBlock cfiCond890
        CFI EndBlock cfiCond891
        CFI EndBlock cfiCond892
        CFI EndBlock cfiCond893
        CFI EndBlock cfiCond894
        CFI EndBlock cfiCond895
        CFI EndBlock cfiCond896
        CFI EndBlock cfiPicker897
// 2564 
// 2565 //

        RSEG FARCODE:CODE:NOROOT(1)
// 2566 void test_loop2(void)
test_loop2:
        CFI Block cfiBlock898 Using cfiCommon0
        CFI Function test_loop2
// 2567 {
        FUNCALL test_loop2, mov_lf
        LOCFRAME CSTACK, 1, STACK
        LOCFRAME RSTACK, 3, STACK
        FUNCALL test_loop2, mov_s
        LOCFRAME CSTACK, 1, STACK
        LOCFRAME RSTACK, 3, STACK
        FUNCALL test_loop2, mov_lf
        LOCFRAME CSTACK, 1, STACK
        LOCFRAME RSTACK, 3, STACK
        FUNCALL test_loop2, s_port
        LOCFRAME CSTACK, 1, STACK
        LOCFRAME RSTACK, 3, STACK
        FUNCALL test_loop2, s_port
        LOCFRAME CSTACK, 1, STACK
        LOCFRAME RSTACK, 3, STACK
        FUNCALL test_loop2, s_port
        LOCFRAME CSTACK, 1, STACK
        LOCFRAME RSTACK, 3, STACK
        FUNCALL test_loop2, s_port
        LOCFRAME CSTACK, 1, STACK
        LOCFRAME RSTACK, 3, STACK
        FUNCALL test_loop2, s_port
        LOCFRAME CSTACK, 1, STACK
        LOCFRAME RSTACK, 3, STACK
        FUNCALL test_loop2, s_port
        LOCFRAME CSTACK, 1, STACK
        LOCFRAME RSTACK, 3, STACK
        FUNCALL test_loop2, mov_lf
        LOCFRAME CSTACK, 1, STACK
        LOCFRAME RSTACK, 3, STACK
        FUNCALL test_loop2, s_port
        LOCFRAME CSTACK, 1, STACK
        LOCFRAME RSTACK, 3, STACK
        RCALL	?Subroutine108
        CFI R24 Frame(CFA_Y, -1)
        CFI CFA_Y Y+1
// 2568 char i,dummy;
// 2569                mov_lf();
// 2570                mov_s ( sizeof(str_loop2_ok),str_loop2_ok);                              
??CrossCallReturnLabel_518:
        LDI	R18, LOW(str_loop2_ok)
        LDI	R19, (str_loop2_ok) >> 8
        RCALL	?Subroutine0
// 2571                mov_lf();
// 2572                  
// 2573 
// 2574 
// 2575                       UBRR1H = R4800_H;
// 2576                       UBRR1L = R4800_L;      
// 2577                       UCSR1B=UCSR1B  | RXEN | TXEN;   // разрешить прием и передачу без прерываний
// 2578 
// 2579                       UBRR3H = R4800_H;
// 2580                       UBRR3L = R4800_L;      
// 2581                       UCSR3B=UCSR3B  | RXEN | TXEN;   // разрешить прием и передачу без прерываний
// 2582 
// 2583 // очистить порты 
// 2584 //
// 2585       dummy=UDR1;
// 2586       dummy=UDR3;
// 2587 
// 2588        SET_RTS1;  // !!!!!
??CrossCallReturnLabel_1:
        LDS	R16, 261
        ORI	R16, 0x04
        RCALL	?Subroutine117
// 2589 
// 2590         for (i=0;i<10;i++)
??CrossCallReturnLabel_151:
        LDI	R24, 0
// 2591      {
// 2592        __watchdog_reset(); 
??test_loop2_0:
        RCALL	?Subroutine51
// 2593        s_port('s');
// 2594        s_port(i + 0x30);
// 2595        UDR3=i;
??CrossCallReturnLabel_470:
        STS	310, R24
// 2596 //
// 2597 // бросаем в порт 485_2
// 2598 //
// 2599         term.time_out_loop=0;           // в милисекундном таймере должна увеличиватьс€ 
        RCALL	?Subroutine5
// 2600 LoopWait_rs485_1:
// 2601             if(term.time_out_loop > 200 ) 
??CrossCallReturnLabel_324:
        RCALL	?Subroutine125
??CrossCallReturnLabel_345:
        BRCS	??test_loop2_1
// 2602                 {
// 2603        s_port('r');
        RCALL	?Subroutine53
// 2604        s_port('x');
??CrossCallReturnLabel_67:
        RJMP	??test_loop2_2
// 2605      // goto tutu;
// 2606        continue;
// 2607                 }
// 2608 //
// 2609 // принимаю с 485_1
// 2610 //
// 2611              if ( (UCSR1A & 0x80) ==0) goto LoopWait_rs485_1;
??test_loop2_1:
        LDS	R16, 200
        SBRS	R16, 7
        RJMP	??CrossCallReturnLabel_324
// 2612              s_port('r');
        RCALL	?Subroutine54
// 2613              dummy=UDR1;
??CrossCallReturnLabel_472:
        LDS	R16, 206
// 2614              s_port(dummy + 0x30);
        SUBI	R16, 208
??test_loop2_2:
        RCALL	?Subroutine113
// 2615 //     tutu:
// 2616  //             _NOP();
// 2617        }
??CrossCallReturnLabel_144:
        BRCS	??test_loop2_0
// 2618 
// 2619                                             
// 2620                mov_lf();
        RCALL	?Subroutine103
// 2621                s_port('>');
// 2622                CLR_RTS1;
??CrossCallReturnLabel_475:
        LDS	R16, 261
        ANDI	R16, 0xFB
        RCALL	?Subroutine117
// 2623 }               
??CrossCallReturnLabel_152:
        RJMP	?Subroutine162
        CFI EndBlock cfiBlock898

        RSEG FARCODE:CODE:NOROOT(1)
?Subroutine125:
        CFI Block cfiCond899 Using cfiCommon0
        CFI NoFunction
        CFI Conditional ??CrossCallReturnLabel_344
        CFI R24 Frame(CFA_Y, -1)
        CFI CFA_SP SP+6
        CFI CFA_Y Y+1
        CFI Block cfiCond900 Using cfiCommon0
        CFI (cfiCond900) NoFunction
        CFI (cfiCond900) Conditional ??CrossCallReturnLabel_345
        CFI (cfiCond900) R24 Frame(CFA_Y, -1)
        CFI (cfiCond900) CFA_SP SP+6
        CFI (cfiCond900) CFA_Y Y+1
        CFI Block cfiPicker901 Using cfiCommon1
        CFI (cfiPicker901) NoFunction
        CFI (cfiPicker901) Picker
        LD	R16, Z
        LDD	R17, Z+1
        CPI	R16, 201
        RJMP	?Subroutine160
        CFI EndBlock cfiCond899
        CFI EndBlock cfiCond900
        CFI EndBlock cfiPicker901

        RSEG FARCODE:CODE:NOROOT(1)
?Subroutine117:
        CFI Block cfiCond902 Using cfiCommon0
        CFI NoFunction
        CFI Conditional ??CrossCallReturnLabel_149
        CFI R24 Frame(CFA_Y, -5)
        CFI R25 Frame(CFA_Y, -4)
        CFI R26 Frame(CFA_Y, -3)
        CFI R27 Frame(CFA_Y, -2)
        CFI R4 Frame(CFA_Y, -1)
        CFI CFA_SP SP+6
        CFI CFA_Y Y+88
        CFI Block cfiCond903 Using cfiCommon0
        CFI (cfiCond903) NoFunction
        CFI (cfiCond903) Conditional ??CrossCallReturnLabel_150
        CFI (cfiCond903) R24 Frame(CFA_Y, -5)
        CFI (cfiCond903) R25 Frame(CFA_Y, -4)
        CFI (cfiCond903) R26 Frame(CFA_Y, -3)
        CFI (cfiCond903) R27 Frame(CFA_Y, -2)
        CFI (cfiCond903) R4 Frame(CFA_Y, -1)
        CFI (cfiCond903) CFA_SP SP+6
        CFI (cfiCond903) CFA_Y Y+88
        CFI Block cfiCond904 Using cfiCommon0
        CFI (cfiCond904) NoFunction
        CFI (cfiCond904) Conditional ??CrossCallReturnLabel_151
        CFI (cfiCond904) R24 Frame(CFA_Y, -1)
        CFI (cfiCond904) CFA_SP SP+6
        CFI (cfiCond904) CFA_Y Y+1
        CFI Block cfiCond905 Using cfiCommon0
        CFI (cfiCond905) NoFunction
        CFI (cfiCond905) Conditional ??CrossCallReturnLabel_152
        CFI (cfiCond905) R24 Frame(CFA_Y, -1)
        CFI (cfiCond905) CFA_SP SP+6
        CFI (cfiCond905) CFA_Y Y+1
        CFI Block cfiPicker906 Using cfiCommon1
        CFI (cfiPicker906) NoFunction
        CFI (cfiPicker906) Picker
        STS	261, R16
        RET
        CFI EndBlock cfiCond902
        CFI EndBlock cfiCond903
        CFI EndBlock cfiCond904
        CFI EndBlock cfiCond905
        CFI EndBlock cfiPicker906

        RSEG FARCODE:CODE:NOROOT(1)
?Subroutine113:
        CFI Block cfiCond907 Using cfiCommon0
        CFI NoFunction
        CFI Conditional ??CrossCallReturnLabel_143
        CFI R24 Frame(CFA_Y, -1)
        CFI CFA_SP SP+6
        CFI CFA_Y Y+1
        CFI Block cfiCond908 Using cfiCommon0
        CFI (cfiCond908) NoFunction
        CFI (cfiCond908) Conditional ??CrossCallReturnLabel_144
        CFI (cfiCond908) R24 Frame(CFA_Y, -1)
        CFI (cfiCond908) CFA_SP SP+6
        CFI (cfiCond908) CFA_Y Y+1
        CFI Block cfiPicker909 Using cfiCommon1
        CFI (cfiPicker909) NoFunction
        CFI (cfiPicker909) Picker
        CALL	s_port
        INC	R24
        CPI	R24, 10
        RET
        CFI EndBlock cfiCond907
        CFI EndBlock cfiCond908
        CFI EndBlock cfiPicker909

        RSEG FARCODE:CODE:NOROOT(1)
?Subroutine108:
        CFI Block cfiCond910 Using cfiCommon0
        CFI NoFunction
        CFI Conditional ??CrossCallReturnLabel_519
        CFI CFA_SP SP+6
        CFI Block cfiCond911 Using cfiCommon0
        CFI (cfiCond911) NoFunction
        CFI (cfiCond911) Conditional ??CrossCallReturnLabel_518
        CFI (cfiCond911) CFA_SP SP+6
        CFI Block cfiPicker912 Using cfiCommon1
        CFI (cfiPicker912) NoFunction
        CFI (cfiPicker912) Picker
        ST	-Y, R24
        CFI (cfiCond910) R24 Frame(CFA_Y, -1)
        CFI (cfiCond910) CFA_Y Y+1
        CFI (cfiCond911) R24 Frame(CFA_Y, -1)
        CFI (cfiCond911) CFA_Y Y+1
        CFI (cfiPicker912) R24 Frame(CFA_Y, -1)
        RJMP	?Subroutine165
        CFI EndBlock cfiCond910
        CFI EndBlock cfiCond911
        CFI EndBlock cfiPicker912

        RSEG FARCODE:CODE:NOROOT(1)
?Subroutine103:
        CFI Block cfiCond913 Using cfiCommon0
        CFI NoFunction
        CFI Conditional ??CrossCallReturnLabel_478
        CFI R24 Frame(CFA_Y, -5)
        CFI R25 Frame(CFA_Y, -4)
        CFI R26 Frame(CFA_Y, -3)
        CFI R27 Frame(CFA_Y, -2)
        CFI R4 Frame(CFA_Y, -1)
        CFI CFA_SP SP+6
        CFI CFA_Y Y+88
        CFI Block cfiCond914 Using cfiCommon0
        CFI (cfiCond914) NoFunction
        CFI (cfiCond914) Conditional ??CrossCallReturnLabel_477
        CFI (cfiCond914) R24 Frame(CFA_Y, -5)
        CFI (cfiCond914) R25 Frame(CFA_Y, -4)
        CFI (cfiCond914) R26 Frame(CFA_Y, -3)
        CFI (cfiCond914) R27 Frame(CFA_Y, -2)
        CFI (cfiCond914) R4 Frame(CFA_Y, -1)
        CFI (cfiCond914) CFA_SP SP+6
        CFI (cfiCond914) CFA_Y Y+88
        CFI Block cfiCond915 Using cfiCommon0
        CFI (cfiCond915) NoFunction
        CFI (cfiCond915) Conditional ??CrossCallReturnLabel_476
        CFI (cfiCond915) R24 Frame(CFA_Y, -9)
        CFI (cfiCond915) R25 Frame(CFA_Y, -8)
        CFI (cfiCond915) R26 Frame(CFA_Y, -7)
        CFI (cfiCond915) R27 Frame(CFA_Y, -6)
        CFI (cfiCond915) R4 Frame(CFA_Y, -5)
        CFI (cfiCond915) R5 Frame(CFA_Y, -4)
        CFI (cfiCond915) R6 Frame(CFA_Y, -3)
        CFI (cfiCond915) R7 Frame(CFA_Y, -2)
        CFI (cfiCond915) R8 Frame(CFA_Y, -1)
        CFI (cfiCond915) CFA_SP SP+6
        CFI (cfiCond915) CFA_Y Y+83
        CFI Block cfiCond916 Using cfiCommon0
        CFI (cfiCond916) NoFunction
        CFI (cfiCond916) Conditional ??CrossCallReturnLabel_475
        CFI (cfiCond916) R24 Frame(CFA_Y, -1)
        CFI (cfiCond916) CFA_SP SP+6
        CFI (cfiCond916) CFA_Y Y+1
        CFI Block cfiCond917 Using cfiCommon0
        CFI (cfiCond917) NoFunction
        CFI (cfiCond917) Conditional ??CrossCallReturnLabel_474
        CFI (cfiCond917) R24 Frame(CFA_Y, -6)
        CFI (cfiCond917) R25 Frame(CFA_Y, -5)
        CFI (cfiCond917) R26 Frame(CFA_Y, -4)
        CFI (cfiCond917) R27 Frame(CFA_Y, -3)
        CFI (cfiCond917) R4 Frame(CFA_Y, -2)
        CFI (cfiCond917) R5 Frame(CFA_Y, -1)
        CFI (cfiCond917) CFA_SP SP+6
        CFI (cfiCond917) CFA_Y Y+19
        CFI Block cfiPicker918 Using cfiCommon1
        CFI (cfiPicker918) NoFunction
        CFI (cfiPicker918) Picker
        CALL	mov_lf
        LDI	R16, 62
        RJMP	??Subroutine167_0
        CFI EndBlock cfiCond913
        CFI EndBlock cfiCond914
        CFI EndBlock cfiCond915
        CFI EndBlock cfiCond916
        CFI EndBlock cfiCond917
        CFI EndBlock cfiPicker918

        RSEG FARCODE:CODE:NOROOT(1)
?Subroutine167:
        CFI Block cfiCond919 Using cfiCommon0
        CFI NoFunction
        CFI Conditional ??CrossCallReturnLabel_517
        CFI R24 Frame(CFA_Y, -5)
        CFI R25 Frame(CFA_Y, -4)
        CFI R26 Frame(CFA_Y, -3)
        CFI R27 Frame(CFA_Y, -2)
        CFI R4 Frame(CFA_Y, -1)
        CFI CFA_SP SP+6
        CFI CFA_Y Y+88
        CFI Block cfiCond920 Using cfiCommon0
        CFI (cfiCond920) NoFunction
        CFI (cfiCond920) Conditional ??CrossCallReturnLabel_516
        CFI (cfiCond920) R24 Frame(CFA_Y, -5)
        CFI (cfiCond920) R25 Frame(CFA_Y, -4)
        CFI (cfiCond920) R26 Frame(CFA_Y, -3)
        CFI (cfiCond920) R27 Frame(CFA_Y, -2)
        CFI (cfiCond920) R4 Frame(CFA_Y, -1)
        CFI (cfiCond920) CFA_SP SP+6
        CFI (cfiCond920) CFA_Y Y+88
        CFI Block cfiCond921 Using cfiCommon0
        CFI (cfiCond921) NoFunction
        CFI (cfiCond921) Conditional ??CrossCallReturnLabel_515
        CFI (cfiCond921) R24 Frame(CFA_Y, -5)
        CFI (cfiCond921) R25 Frame(CFA_Y, -4)
        CFI (cfiCond921) R26 Frame(CFA_Y, -3)
        CFI (cfiCond921) R27 Frame(CFA_Y, -2)
        CFI (cfiCond921) R4 Frame(CFA_Y, -1)
        CFI (cfiCond921) CFA_SP SP+6
        CFI (cfiCond921) CFA_Y Y+88
        CFI Block cfiCond922 Using cfiCommon0
        CFI (cfiCond922) NoFunction
        CFI (cfiCond922) Conditional ??CrossCallReturnLabel_514
        CFI (cfiCond922) R24 Frame(CFA_Y, -5)
        CFI (cfiCond922) R25 Frame(CFA_Y, -4)
        CFI (cfiCond922) R26 Frame(CFA_Y, -3)
        CFI (cfiCond922) R27 Frame(CFA_Y, -2)
        CFI (cfiCond922) R4 Frame(CFA_Y, -1)
        CFI (cfiCond922) CFA_SP SP+6
        CFI (cfiCond922) CFA_Y Y+88
        CFI Block cfiCond923 Using cfiCommon0
        CFI (cfiCond923) NoFunction
        CFI (cfiCond923) Conditional ??CrossCallReturnLabel_513
        CFI (cfiCond923) R24 Frame(CFA_Y, -5)
        CFI (cfiCond923) R25 Frame(CFA_Y, -4)
        CFI (cfiCond923) R26 Frame(CFA_Y, -3)
        CFI (cfiCond923) R27 Frame(CFA_Y, -2)
        CFI (cfiCond923) R4 Frame(CFA_Y, -1)
        CFI (cfiCond923) CFA_SP SP+6
        CFI (cfiCond923) CFA_Y Y+88
        CFI Block cfiCond924 Using cfiCommon0
        CFI (cfiCond924) NoFunction
        CFI (cfiCond924) Conditional ??CrossCallReturnLabel_512
        CFI (cfiCond924) R24 Frame(CFA_Y, -5)
        CFI (cfiCond924) R25 Frame(CFA_Y, -4)
        CFI (cfiCond924) R26 Frame(CFA_Y, -3)
        CFI (cfiCond924) R27 Frame(CFA_Y, -2)
        CFI (cfiCond924) R4 Frame(CFA_Y, -1)
        CFI (cfiCond924) CFA_SP SP+6
        CFI (cfiCond924) CFA_Y Y+88
        CFI Block cfiPicker925 Using cfiCommon1
        CFI (cfiPicker925) NoFunction
        CFI (cfiPicker925) Picker
        LDI	R16, 46
        CFI Block cfiCond926 Using cfiCommon0
        CFI (cfiCond926) NoFunction
        CFI (cfiCond926) Conditional ??CrossCallReturnLabel_511
        CFI (cfiCond926) R24 Frame(CFA_Y, -5)
        CFI (cfiCond926) R25 Frame(CFA_Y, -4)
        CFI (cfiCond926) R26 Frame(CFA_Y, -3)
        CFI (cfiCond926) R27 Frame(CFA_Y, -2)
        CFI (cfiCond926) R4 Frame(CFA_Y, -1)
        CFI (cfiCond926) CFA_SP SP+6
        CFI (cfiCond926) CFA_Y Y+88
        CFI Block cfiCond927 Using cfiCommon0
        CFI (cfiCond927) NoFunction
        CFI (cfiCond927) Conditional ??CrossCallReturnLabel_510
        CFI (cfiCond927) R24 Frame(CFA_Y, -5)
        CFI (cfiCond927) R25 Frame(CFA_Y, -4)
        CFI (cfiCond927) R26 Frame(CFA_Y, -3)
        CFI (cfiCond927) R27 Frame(CFA_Y, -2)
        CFI (cfiCond927) R4 Frame(CFA_Y, -1)
        CFI (cfiCond927) CFA_SP SP+6
        CFI (cfiCond927) CFA_Y Y+88
        CFI Block cfiCond928 Using cfiCommon0
        CFI (cfiCond928) NoFunction
        CFI (cfiCond928) Conditional ??CrossCallReturnLabel_509
        CFI (cfiCond928) R24 Frame(CFA_Y, -5)
        CFI (cfiCond928) R25 Frame(CFA_Y, -4)
        CFI (cfiCond928) R26 Frame(CFA_Y, -3)
        CFI (cfiCond928) R27 Frame(CFA_Y, -2)
        CFI (cfiCond928) R4 Frame(CFA_Y, -1)
        CFI (cfiCond928) CFA_SP SP+6
        CFI (cfiCond928) CFA_Y Y+88
        CFI Block cfiCond929 Using cfiCommon0
        CFI (cfiCond929) NoFunction
        CFI (cfiCond929) Conditional ??CrossCallReturnLabel_508
        CFI (cfiCond929) R24 Frame(CFA_Y, -5)
        CFI (cfiCond929) R25 Frame(CFA_Y, -4)
        CFI (cfiCond929) R26 Frame(CFA_Y, -3)
        CFI (cfiCond929) R27 Frame(CFA_Y, -2)
        CFI (cfiCond929) R4 Frame(CFA_Y, -1)
        CFI (cfiCond929) CFA_SP SP+6
        CFI (cfiCond929) CFA_Y Y+88
        CFI Block cfiCond930 Using cfiCommon0
        CFI (cfiCond930) NoFunction
        CFI (cfiCond930) Conditional ??CrossCallReturnLabel_507
        CFI (cfiCond930) R24 Frame(CFA_Y, -4)
        CFI (cfiCond930) R25 Frame(CFA_Y, -3)
        CFI (cfiCond930) R26 Frame(CFA_Y, -2)
        CFI (cfiCond930) R27 Frame(CFA_Y, -1)
        CFI (cfiCond930) CFA_SP SP+6
        CFI (cfiCond930) CFA_Y Y+4
        CFI Block cfiCond931 Using cfiCommon0
        CFI (cfiCond931) NoFunction
        CFI (cfiCond931) Conditional ??CrossCallReturnLabel_506
        CFI (cfiCond931) R24 Frame(CFA_Y, -5)
        CFI (cfiCond931) R25 Frame(CFA_Y, -4)
        CFI (cfiCond931) R26 Frame(CFA_Y, -3)
        CFI (cfiCond931) R27 Frame(CFA_Y, -2)
        CFI (cfiCond931) R4 Frame(CFA_Y, -1)
        CFI (cfiCond931) CFA_SP SP+6
        CFI (cfiCond931) CFA_Y Y+88
        CFI Block cfiCond932 Using cfiCommon0
        CFI (cfiCond932) NoFunction
        CFI (cfiCond932) Conditional ??CrossCallReturnLabel_505
        CFI (cfiCond932) R24 Frame(CFA_Y, -5)
        CFI (cfiCond932) R25 Frame(CFA_Y, -4)
        CFI (cfiCond932) R26 Frame(CFA_Y, -3)
        CFI (cfiCond932) R27 Frame(CFA_Y, -2)
        CFI (cfiCond932) R4 Frame(CFA_Y, -1)
        CFI (cfiCond932) CFA_SP SP+6
        CFI (cfiCond932) CFA_Y Y+88
        CFI Block cfiCond933 Using cfiCommon0
        CFI (cfiCond933) NoFunction
        CFI (cfiCond933) Conditional ??CrossCallReturnLabel_504
        CFI (cfiCond933) R24 Frame(CFA_Y, -5)
        CFI (cfiCond933) R25 Frame(CFA_Y, -4)
        CFI (cfiCond933) R26 Frame(CFA_Y, -3)
        CFI (cfiCond933) R27 Frame(CFA_Y, -2)
        CFI (cfiCond933) R4 Frame(CFA_Y, -1)
        CFI (cfiCond933) CFA_SP SP+6
        CFI (cfiCond933) CFA_Y Y+88
        CFI Block cfiCond934 Using cfiCommon0
        CFI (cfiCond934) NoFunction
        CFI (cfiCond934) Conditional ??CrossCallReturnLabel_503
        CFI (cfiCond934) R24 Frame(CFA_Y, -5)
        CFI (cfiCond934) R25 Frame(CFA_Y, -4)
        CFI (cfiCond934) R26 Frame(CFA_Y, -3)
        CFI (cfiCond934) R27 Frame(CFA_Y, -2)
        CFI (cfiCond934) R4 Frame(CFA_Y, -1)
        CFI (cfiCond934) CFA_SP SP+6
        CFI (cfiCond934) CFA_Y Y+88
        CFI Block cfiCond935 Using cfiCommon0
        CFI (cfiCond935) NoFunction
        CFI (cfiCond935) Conditional ??CrossCallReturnLabel_502
        CFI (cfiCond935) R24 Frame(CFA_Y, -5)
        CFI (cfiCond935) R25 Frame(CFA_Y, -4)
        CFI (cfiCond935) R26 Frame(CFA_Y, -3)
        CFI (cfiCond935) R27 Frame(CFA_Y, -2)
        CFI (cfiCond935) R4 Frame(CFA_Y, -1)
        CFI (cfiCond935) CFA_SP SP+6
        CFI (cfiCond935) CFA_Y Y+88
        CFI Block cfiCond936 Using cfiCommon0
        CFI (cfiCond936) NoFunction
        CFI (cfiCond936) Conditional ??CrossCallReturnLabel_501
        CFI (cfiCond936) R24 Frame(CFA_Y, -5)
        CFI (cfiCond936) R25 Frame(CFA_Y, -4)
        CFI (cfiCond936) R26 Frame(CFA_Y, -3)
        CFI (cfiCond936) R27 Frame(CFA_Y, -2)
        CFI (cfiCond936) R4 Frame(CFA_Y, -1)
        CFI (cfiCond936) CFA_SP SP+6
        CFI (cfiCond936) CFA_Y Y+88
        CFI Block cfiCond937 Using cfiCommon0
        CFI (cfiCond937) NoFunction
        CFI (cfiCond937) Conditional ??CrossCallReturnLabel_500
        CFI (cfiCond937) R24 Frame(CFA_Y, -5)
        CFI (cfiCond937) R25 Frame(CFA_Y, -4)
        CFI (cfiCond937) R26 Frame(CFA_Y, -3)
        CFI (cfiCond937) R27 Frame(CFA_Y, -2)
        CFI (cfiCond937) R4 Frame(CFA_Y, -1)
        CFI (cfiCond937) CFA_SP SP+6
        CFI (cfiCond937) CFA_Y Y+88
        CFI Block cfiCond938 Using cfiCommon0
        CFI (cfiCond938) NoFunction
        CFI (cfiCond938) Conditional ??CrossCallReturnLabel_499
        CFI (cfiCond938) R24 Frame(CFA_Y, -5)
        CFI (cfiCond938) R25 Frame(CFA_Y, -4)
        CFI (cfiCond938) R26 Frame(CFA_Y, -3)
        CFI (cfiCond938) R27 Frame(CFA_Y, -2)
        CFI (cfiCond938) R4 Frame(CFA_Y, -1)
        CFI (cfiCond938) CFA_SP SP+6
        CFI (cfiCond938) CFA_Y Y+88
        CFI Block cfiCond939 Using cfiCommon0
        CFI (cfiCond939) NoFunction
        CFI (cfiCond939) Conditional ??CrossCallReturnLabel_498
        CFI (cfiCond939) R24 Frame(CFA_Y, -5)
        CFI (cfiCond939) R25 Frame(CFA_Y, -4)
        CFI (cfiCond939) R26 Frame(CFA_Y, -3)
        CFI (cfiCond939) R27 Frame(CFA_Y, -2)
        CFI (cfiCond939) R4 Frame(CFA_Y, -1)
        CFI (cfiCond939) CFA_SP SP+6
        CFI (cfiCond939) CFA_Y Y+88
        CFI Block cfiCond940 Using cfiCommon0
        CFI (cfiCond940) NoFunction
        CFI (cfiCond940) Conditional ??CrossCallReturnLabel_497
        CFI (cfiCond940) R24 Frame(CFA_Y, -5)
        CFI (cfiCond940) R25 Frame(CFA_Y, -4)
        CFI (cfiCond940) R26 Frame(CFA_Y, -3)
        CFI (cfiCond940) R27 Frame(CFA_Y, -2)
        CFI (cfiCond940) R4 Frame(CFA_Y, -1)
        CFI (cfiCond940) CFA_SP SP+6
        CFI (cfiCond940) CFA_Y Y+88
        CFI Block cfiCond941 Using cfiCommon0
        CFI (cfiCond941) NoFunction
        CFI (cfiCond941) Conditional ??CrossCallReturnLabel_496
        CFI (cfiCond941) R24 Frame(CFA_Y, -5)
        CFI (cfiCond941) R25 Frame(CFA_Y, -4)
        CFI (cfiCond941) R26 Frame(CFA_Y, -3)
        CFI (cfiCond941) R27 Frame(CFA_Y, -2)
        CFI (cfiCond941) R4 Frame(CFA_Y, -1)
        CFI (cfiCond941) CFA_SP SP+6
        CFI (cfiCond941) CFA_Y Y+88
        CFI Block cfiCond942 Using cfiCommon0
        CFI (cfiCond942) NoFunction
        CFI (cfiCond942) Conditional ??CrossCallReturnLabel_495
        CFI (cfiCond942) R24 Frame(CFA_Y, -5)
        CFI (cfiCond942) R25 Frame(CFA_Y, -4)
        CFI (cfiCond942) R26 Frame(CFA_Y, -3)
        CFI (cfiCond942) R27 Frame(CFA_Y, -2)
        CFI (cfiCond942) R4 Frame(CFA_Y, -1)
        CFI (cfiCond942) CFA_SP SP+6
        CFI (cfiCond942) CFA_Y Y+88
        CFI Block cfiCond943 Using cfiCommon0
        CFI (cfiCond943) NoFunction
        CFI (cfiCond943) Conditional ??CrossCallReturnLabel_494
        CFI (cfiCond943) R24 Frame(CFA_Y, -5)
        CFI (cfiCond943) R25 Frame(CFA_Y, -4)
        CFI (cfiCond943) R26 Frame(CFA_Y, -3)
        CFI (cfiCond943) R27 Frame(CFA_Y, -2)
        CFI (cfiCond943) R4 Frame(CFA_Y, -1)
        CFI (cfiCond943) CFA_SP SP+6
        CFI (cfiCond943) CFA_Y Y+88
        CFI Block cfiCond944 Using cfiCommon0
        CFI (cfiCond944) NoFunction
        CFI (cfiCond944) Conditional ??CrossCallReturnLabel_493
        CFI (cfiCond944) R24 Frame(CFA_Y, -5)
        CFI (cfiCond944) R25 Frame(CFA_Y, -4)
        CFI (cfiCond944) R26 Frame(CFA_Y, -3)
        CFI (cfiCond944) R27 Frame(CFA_Y, -2)
        CFI (cfiCond944) R4 Frame(CFA_Y, -1)
        CFI (cfiCond944) CFA_SP SP+6
        CFI (cfiCond944) CFA_Y Y+88
        CFI Block cfiCond945 Using cfiCommon0
        CFI (cfiCond945) NoFunction
        CFI (cfiCond945) Conditional ??CrossCallReturnLabel_492
        CFI (cfiCond945) R24 Frame(CFA_Y, -5)
        CFI (cfiCond945) R25 Frame(CFA_Y, -4)
        CFI (cfiCond945) R26 Frame(CFA_Y, -3)
        CFI (cfiCond945) R27 Frame(CFA_Y, -2)
        CFI (cfiCond945) R4 Frame(CFA_Y, -1)
        CFI (cfiCond945) CFA_SP SP+6
        CFI (cfiCond945) CFA_Y Y+88
        CFI Block cfiCond946 Using cfiCommon0
        CFI (cfiCond946) NoFunction
        CFI (cfiCond946) Conditional ??CrossCallReturnLabel_491
        CFI (cfiCond946) R24 Frame(CFA_Y, -5)
        CFI (cfiCond946) R25 Frame(CFA_Y, -4)
        CFI (cfiCond946) R26 Frame(CFA_Y, -3)
        CFI (cfiCond946) R27 Frame(CFA_Y, -2)
        CFI (cfiCond946) R4 Frame(CFA_Y, -1)
        CFI (cfiCond946) CFA_SP SP+6
        CFI (cfiCond946) CFA_Y Y+88
        CFI Block cfiCond947 Using cfiCommon0
        CFI (cfiCond947) NoFunction
        CFI (cfiCond947) Conditional ??CrossCallReturnLabel_490
        CFI (cfiCond947) R24 Frame(CFA_Y, -5)
        CFI (cfiCond947) R25 Frame(CFA_Y, -4)
        CFI (cfiCond947) R26 Frame(CFA_Y, -3)
        CFI (cfiCond947) R27 Frame(CFA_Y, -2)
        CFI (cfiCond947) R4 Frame(CFA_Y, -1)
        CFI (cfiCond947) CFA_SP SP+6
        CFI (cfiCond947) CFA_Y Y+88
        CFI Block cfiCond948 Using cfiCommon0
        CFI (cfiCond948) NoFunction
        CFI (cfiCond948) Conditional ??CrossCallReturnLabel_489
        CFI (cfiCond948) R24 Frame(CFA_Y, -5)
        CFI (cfiCond948) R25 Frame(CFA_Y, -4)
        CFI (cfiCond948) R26 Frame(CFA_Y, -3)
        CFI (cfiCond948) R27 Frame(CFA_Y, -2)
        CFI (cfiCond948) R4 Frame(CFA_Y, -1)
        CFI (cfiCond948) CFA_SP SP+6
        CFI (cfiCond948) CFA_Y Y+88
        CFI Block cfiCond949 Using cfiCommon0
        CFI (cfiCond949) NoFunction
        CFI (cfiCond949) Conditional ??CrossCallReturnLabel_488
        CFI (cfiCond949) R24 Frame(CFA_Y, -5)
        CFI (cfiCond949) R25 Frame(CFA_Y, -4)
        CFI (cfiCond949) R26 Frame(CFA_Y, -3)
        CFI (cfiCond949) R27 Frame(CFA_Y, -2)
        CFI (cfiCond949) R4 Frame(CFA_Y, -1)
        CFI (cfiCond949) CFA_SP SP+6
        CFI (cfiCond949) CFA_Y Y+88
        CFI Block cfiCond950 Using cfiCommon0
        CFI (cfiCond950) NoFunction
        CFI (cfiCond950) Conditional ??CrossCallReturnLabel_487
        CFI (cfiCond950) R24 Frame(CFA_Y, -5)
        CFI (cfiCond950) R25 Frame(CFA_Y, -4)
        CFI (cfiCond950) R26 Frame(CFA_Y, -3)
        CFI (cfiCond950) R27 Frame(CFA_Y, -2)
        CFI (cfiCond950) R4 Frame(CFA_Y, -1)
        CFI (cfiCond950) CFA_SP SP+6
        CFI (cfiCond950) CFA_Y Y+88
        CFI Block cfiCond951 Using cfiCommon0
        CFI (cfiCond951) NoFunction
        CFI (cfiCond951) Conditional ??CrossCallReturnLabel_486
        CFI (cfiCond951) R24 Frame(CFA_Y, -5)
        CFI (cfiCond951) R25 Frame(CFA_Y, -4)
        CFI (cfiCond951) R26 Frame(CFA_Y, -3)
        CFI (cfiCond951) R27 Frame(CFA_Y, -2)
        CFI (cfiCond951) R4 Frame(CFA_Y, -1)
        CFI (cfiCond951) CFA_SP SP+6
        CFI (cfiCond951) CFA_Y Y+88
        CFI Block cfiCond952 Using cfiCommon0
        CFI (cfiCond952) NoFunction
        CFI (cfiCond952) Conditional ??CrossCallReturnLabel_485
        CFI (cfiCond952) R24 Frame(CFA_Y, -5)
        CFI (cfiCond952) R25 Frame(CFA_Y, -4)
        CFI (cfiCond952) R26 Frame(CFA_Y, -3)
        CFI (cfiCond952) R27 Frame(CFA_Y, -2)
        CFI (cfiCond952) R4 Frame(CFA_Y, -1)
        CFI (cfiCond952) CFA_SP SP+6
        CFI (cfiCond952) CFA_Y Y+88
        CFI Block cfiCond953 Using cfiCommon0
        CFI (cfiCond953) NoFunction
        CFI (cfiCond953) Conditional ??CrossCallReturnLabel_484
        CFI (cfiCond953) R24 Frame(CFA_Y, -9)
        CFI (cfiCond953) R25 Frame(CFA_Y, -8)
        CFI (cfiCond953) R26 Frame(CFA_Y, -7)
        CFI (cfiCond953) R27 Frame(CFA_Y, -6)
        CFI (cfiCond953) R4 Frame(CFA_Y, -5)
        CFI (cfiCond953) R5 Frame(CFA_Y, -4)
        CFI (cfiCond953) R6 Frame(CFA_Y, -3)
        CFI (cfiCond953) R7 Frame(CFA_Y, -2)
        CFI (cfiCond953) R8 Frame(CFA_Y, -1)
        CFI (cfiCond953) CFA_SP SP+6
        CFI (cfiCond953) CFA_Y Y+83
        CFI Block cfiCond954 Using cfiCommon0
        CFI (cfiCond954) NoFunction
        CFI (cfiCond954) Conditional ??CrossCallReturnLabel_483
        CFI (cfiCond954) R24 Frame(CFA_Y, -9)
        CFI (cfiCond954) R25 Frame(CFA_Y, -8)
        CFI (cfiCond954) R26 Frame(CFA_Y, -7)
        CFI (cfiCond954) R27 Frame(CFA_Y, -6)
        CFI (cfiCond954) R4 Frame(CFA_Y, -5)
        CFI (cfiCond954) R5 Frame(CFA_Y, -4)
        CFI (cfiCond954) R6 Frame(CFA_Y, -3)
        CFI (cfiCond954) R7 Frame(CFA_Y, -2)
        CFI (cfiCond954) R8 Frame(CFA_Y, -1)
        CFI (cfiCond954) CFA_SP SP+6
        CFI (cfiCond954) CFA_Y Y+83
        CFI Block cfiCond955 Using cfiCommon0
        CFI (cfiCond955) NoFunction
        CFI (cfiCond955) Conditional ??CrossCallReturnLabel_482
        CFI (cfiCond955) R24 Frame(CFA_Y, -9)
        CFI (cfiCond955) R25 Frame(CFA_Y, -8)
        CFI (cfiCond955) R26 Frame(CFA_Y, -7)
        CFI (cfiCond955) R27 Frame(CFA_Y, -6)
        CFI (cfiCond955) R4 Frame(CFA_Y, -5)
        CFI (cfiCond955) R5 Frame(CFA_Y, -4)
        CFI (cfiCond955) R6 Frame(CFA_Y, -3)
        CFI (cfiCond955) R7 Frame(CFA_Y, -2)
        CFI (cfiCond955) R8 Frame(CFA_Y, -1)
        CFI (cfiCond955) CFA_SP SP+6
        CFI (cfiCond955) CFA_Y Y+83
        CFI Block cfiCond956 Using cfiCommon0
        CFI (cfiCond956) NoFunction
        CFI (cfiCond956) Conditional ??CrossCallReturnLabel_481
        CFI (cfiCond956) R24 Frame(CFA_Y, -6)
        CFI (cfiCond956) R25 Frame(CFA_Y, -5)
        CFI (cfiCond956) R26 Frame(CFA_Y, -4)
        CFI (cfiCond956) R27 Frame(CFA_Y, -3)
        CFI (cfiCond956) R4 Frame(CFA_Y, -2)
        CFI (cfiCond956) R5 Frame(CFA_Y, -1)
        CFI (cfiCond956) CFA_SP SP+6
        CFI (cfiCond956) CFA_Y Y+19
        CFI Block cfiCond957 Using cfiCommon0
        CFI (cfiCond957) NoFunction
        CFI (cfiCond957) Conditional ??CrossCallReturnLabel_480
        CFI (cfiCond957) R24 Frame(CFA_Y, -6)
        CFI (cfiCond957) R25 Frame(CFA_Y, -5)
        CFI (cfiCond957) R26 Frame(CFA_Y, -4)
        CFI (cfiCond957) R27 Frame(CFA_Y, -3)
        CFI (cfiCond957) R4 Frame(CFA_Y, -2)
        CFI (cfiCond957) R5 Frame(CFA_Y, -1)
        CFI (cfiCond957) CFA_SP SP+6
        CFI (cfiCond957) CFA_Y Y+19
        CFI Block cfiCond958 Using cfiCommon0
        CFI (cfiCond958) NoFunction
        CFI (cfiCond958) Conditional ??CrossCallReturnLabel_479
        CFI (cfiCond958) R24 Frame(CFA_Y, -6)
        CFI (cfiCond958) R25 Frame(CFA_Y, -5)
        CFI (cfiCond958) R26 Frame(CFA_Y, -4)
        CFI (cfiCond958) R27 Frame(CFA_Y, -3)
        CFI (cfiCond958) R4 Frame(CFA_Y, -2)
        CFI (cfiCond958) R5 Frame(CFA_Y, -1)
        CFI (cfiCond958) CFA_SP SP+6
        CFI (cfiCond958) CFA_Y Y+19
        CFI Block cfiCond959 Using cfiCommon0
        CFI (cfiCond959) NoFunction
        CFI (cfiCond959) Conditional ??CrossCallReturnLabel_478
        CFI (cfiCond959) R24 Frame(CFA_Y, -5)
        CFI (cfiCond959) R25 Frame(CFA_Y, -4)
        CFI (cfiCond959) R26 Frame(CFA_Y, -3)
        CFI (cfiCond959) R27 Frame(CFA_Y, -2)
        CFI (cfiCond959) R4 Frame(CFA_Y, -1)
        CFI (cfiCond959) CFA_SP SP+6
        CFI (cfiCond959) CFA_Y Y+88
        CFI Block cfiCond960 Using cfiCommon0
        CFI (cfiCond960) NoFunction
        CFI (cfiCond960) Conditional ??CrossCallReturnLabel_477
        CFI (cfiCond960) R24 Frame(CFA_Y, -5)
        CFI (cfiCond960) R25 Frame(CFA_Y, -4)
        CFI (cfiCond960) R26 Frame(CFA_Y, -3)
        CFI (cfiCond960) R27 Frame(CFA_Y, -2)
        CFI (cfiCond960) R4 Frame(CFA_Y, -1)
        CFI (cfiCond960) CFA_SP SP+6
        CFI (cfiCond960) CFA_Y Y+88
        CFI Block cfiCond961 Using cfiCommon0
        CFI (cfiCond961) NoFunction
        CFI (cfiCond961) Conditional ??CrossCallReturnLabel_476
        CFI (cfiCond961) R24 Frame(CFA_Y, -9)
        CFI (cfiCond961) R25 Frame(CFA_Y, -8)
        CFI (cfiCond961) R26 Frame(CFA_Y, -7)
        CFI (cfiCond961) R27 Frame(CFA_Y, -6)
        CFI (cfiCond961) R4 Frame(CFA_Y, -5)
        CFI (cfiCond961) R5 Frame(CFA_Y, -4)
        CFI (cfiCond961) R6 Frame(CFA_Y, -3)
        CFI (cfiCond961) R7 Frame(CFA_Y, -2)
        CFI (cfiCond961) R8 Frame(CFA_Y, -1)
        CFI (cfiCond961) CFA_SP SP+6
        CFI (cfiCond961) CFA_Y Y+83
        CFI Block cfiCond962 Using cfiCommon0
        CFI (cfiCond962) NoFunction
        CFI (cfiCond962) Conditional ??CrossCallReturnLabel_475
        CFI (cfiCond962) R24 Frame(CFA_Y, -1)
        CFI (cfiCond962) CFA_SP SP+6
        CFI (cfiCond962) CFA_Y Y+1
        CFI Block cfiCond963 Using cfiCommon0
        CFI (cfiCond963) NoFunction
        CFI (cfiCond963) Conditional ??CrossCallReturnLabel_474
        CFI (cfiCond963) R24 Frame(CFA_Y, -6)
        CFI (cfiCond963) R25 Frame(CFA_Y, -5)
        CFI (cfiCond963) R26 Frame(CFA_Y, -4)
        CFI (cfiCond963) R27 Frame(CFA_Y, -3)
        CFI (cfiCond963) R4 Frame(CFA_Y, -2)
        CFI (cfiCond963) R5 Frame(CFA_Y, -1)
        CFI (cfiCond963) CFA_SP SP+6
        CFI (cfiCond963) CFA_Y Y+19
        CFI Block cfiCond964 Using cfiCommon0
        CFI (cfiCond964) NoFunction
        CFI (cfiCond964) Conditional ??CrossCallReturnLabel_473
        CFI (cfiCond964) R24 Frame(CFA_Y, -1)
        CFI (cfiCond964) CFA_SP SP+6
        CFI (cfiCond964) CFA_Y Y+1
        CFI Block cfiCond965 Using cfiCommon0
        CFI (cfiCond965) NoFunction
        CFI (cfiCond965) Conditional ??CrossCallReturnLabel_472
        CFI (cfiCond965) R24 Frame(CFA_Y, -1)
        CFI (cfiCond965) CFA_SP SP+6
        CFI (cfiCond965) CFA_Y Y+1
        CFI Block cfiCond966 Using cfiCommon0
        CFI (cfiCond966) NoFunction
        CFI (cfiCond966) Conditional ??CrossCallReturnLabel_471
        CFI (cfiCond966) R24 Frame(CFA_Y, -1)
        CFI (cfiCond966) CFA_SP SP+6
        CFI (cfiCond966) CFA_Y Y+1
        CFI Block cfiCond967 Using cfiCommon0
        CFI (cfiCond967) NoFunction
        CFI (cfiCond967) Conditional ??CrossCallReturnLabel_470
        CFI (cfiCond967) R24 Frame(CFA_Y, -1)
        CFI (cfiCond967) CFA_SP SP+6
        CFI (cfiCond967) CFA_Y Y+1
        CFI Block cfiCond968 Using cfiCommon0
        CFI (cfiCond968) NoFunction
        CFI (cfiCond968) Conditional ??CrossCallReturnLabel_469
        CFI (cfiCond968) R24 Frame(CFA_Y, -5)
        CFI (cfiCond968) R25 Frame(CFA_Y, -4)
        CFI (cfiCond968) R26 Frame(CFA_Y, -3)
        CFI (cfiCond968) R27 Frame(CFA_Y, -2)
        CFI (cfiCond968) R4 Frame(CFA_Y, -1)
        CFI (cfiCond968) CFA_SP SP+6
        CFI (cfiCond968) CFA_Y Y+88
        CFI Block cfiCond969 Using cfiCommon0
        CFI (cfiCond969) NoFunction
        CFI (cfiCond969) Conditional ??CrossCallReturnLabel_468
        CFI (cfiCond969) R24 Frame(CFA_Y, -6)
        CFI (cfiCond969) R25 Frame(CFA_Y, -5)
        CFI (cfiCond969) R26 Frame(CFA_Y, -4)
        CFI (cfiCond969) R27 Frame(CFA_Y, -3)
        CFI (cfiCond969) R4 Frame(CFA_Y, -2)
        CFI (cfiCond969) R5 Frame(CFA_Y, -1)
        CFI (cfiCond969) CFA_SP SP+6
        CFI (cfiCond969) CFA_Y Y+19
        CFI Block cfiCond970 Using cfiCommon0
        CFI (cfiCond970) NoFunction
        CFI (cfiCond970) Conditional ??CrossCallReturnLabel_467
        CFI (cfiCond970) R24 Frame(CFA_Y, -5)
        CFI (cfiCond970) R25 Frame(CFA_Y, -4)
        CFI (cfiCond970) R26 Frame(CFA_Y, -3)
        CFI (cfiCond970) R27 Frame(CFA_Y, -2)
        CFI (cfiCond970) R4 Frame(CFA_Y, -1)
        CFI (cfiCond970) CFA_SP SP+6
        CFI (cfiCond970) CFA_Y Y+88
        CFI Block cfiCond971 Using cfiCommon0
        CFI (cfiCond971) NoFunction
        CFI (cfiCond971) Conditional ??CrossCallReturnLabel_466
        CFI (cfiCond971) R24 Frame(CFA_Y, -5)
        CFI (cfiCond971) R25 Frame(CFA_Y, -4)
        CFI (cfiCond971) R26 Frame(CFA_Y, -3)
        CFI (cfiCond971) R27 Frame(CFA_Y, -2)
        CFI (cfiCond971) R4 Frame(CFA_Y, -1)
        CFI (cfiCond971) CFA_SP SP+6
        CFI (cfiCond971) CFA_Y Y+88
        CFI Block cfiCond972 Using cfiCommon0
        CFI (cfiCond972) NoFunction
        CFI (cfiCond972) Conditional ??CrossCallReturnLabel_465
        CFI (cfiCond972) R24 Frame(CFA_Y, -5)
        CFI (cfiCond972) R25 Frame(CFA_Y, -4)
        CFI (cfiCond972) R26 Frame(CFA_Y, -3)
        CFI (cfiCond972) R27 Frame(CFA_Y, -2)
        CFI (cfiCond972) R4 Frame(CFA_Y, -1)
        CFI (cfiCond972) CFA_SP SP+6
        CFI (cfiCond972) CFA_Y Y+88
        CFI Block cfiCond973 Using cfiCommon0
        CFI (cfiCond973) NoFunction
        CFI (cfiCond973) Conditional ??CrossCallReturnLabel_464
        CFI (cfiCond973) R24 Frame(CFA_Y, -6)
        CFI (cfiCond973) R25 Frame(CFA_Y, -5)
        CFI (cfiCond973) R26 Frame(CFA_Y, -4)
        CFI (cfiCond973) R27 Frame(CFA_Y, -3)
        CFI (cfiCond973) R4 Frame(CFA_Y, -2)
        CFI (cfiCond973) R5 Frame(CFA_Y, -1)
        CFI (cfiCond973) CFA_SP SP+6
        CFI (cfiCond973) CFA_Y Y+19
        CFI Block cfiCond974 Using cfiCommon0
        CFI (cfiCond974) NoFunction
        CFI (cfiCond974) Conditional ??CrossCallReturnLabel_463
        CFI (cfiCond974) R24 Frame(CFA_Y, -6)
        CFI (cfiCond974) R25 Frame(CFA_Y, -5)
        CFI (cfiCond974) R26 Frame(CFA_Y, -4)
        CFI (cfiCond974) R27 Frame(CFA_Y, -3)
        CFI (cfiCond974) R4 Frame(CFA_Y, -2)
        CFI (cfiCond974) R5 Frame(CFA_Y, -1)
        CFI (cfiCond974) CFA_SP SP+6
        CFI (cfiCond974) CFA_Y Y+19
        CFI Block cfiCond975 Using cfiCommon0
        CFI (cfiCond975) NoFunction
        CFI (cfiCond975) Conditional ??CrossCallReturnLabel_462
        CFI (cfiCond975) R24 Frame(CFA_Y, -6)
        CFI (cfiCond975) R25 Frame(CFA_Y, -5)
        CFI (cfiCond975) R26 Frame(CFA_Y, -4)
        CFI (cfiCond975) R27 Frame(CFA_Y, -3)
        CFI (cfiCond975) R4 Frame(CFA_Y, -2)
        CFI (cfiCond975) R5 Frame(CFA_Y, -1)
        CFI (cfiCond975) CFA_SP SP+6
        CFI (cfiCond975) CFA_Y Y+19
        CFI Block cfiCond976 Using cfiCommon0
        CFI (cfiCond976) NoFunction
        CFI (cfiCond976) Conditional ??CrossCallReturnLabel_461
        CFI (cfiCond976) R24 Frame(CFA_Y, -6)
        CFI (cfiCond976) R25 Frame(CFA_Y, -5)
        CFI (cfiCond976) R26 Frame(CFA_Y, -4)
        CFI (cfiCond976) R27 Frame(CFA_Y, -3)
        CFI (cfiCond976) R4 Frame(CFA_Y, -2)
        CFI (cfiCond976) R5 Frame(CFA_Y, -1)
        CFI (cfiCond976) CFA_SP SP+6
        CFI (cfiCond976) CFA_Y Y+19
        CFI Block cfiCond977 Using cfiCommon0
        CFI (cfiCond977) NoFunction
        CFI (cfiCond977) Conditional ??CrossCallReturnLabel_460
        CFI (cfiCond977) R24 Frame(CFA_Y, -6)
        CFI (cfiCond977) R25 Frame(CFA_Y, -5)
        CFI (cfiCond977) R26 Frame(CFA_Y, -4)
        CFI (cfiCond977) R27 Frame(CFA_Y, -3)
        CFI (cfiCond977) R4 Frame(CFA_Y, -2)
        CFI (cfiCond977) R5 Frame(CFA_Y, -1)
        CFI (cfiCond977) CFA_SP SP+6
        CFI (cfiCond977) CFA_Y Y+19
??Subroutine167_0:
        JMP	s_port
        CFI EndBlock cfiCond919
        CFI EndBlock cfiCond920
        CFI EndBlock cfiCond921
        CFI EndBlock cfiCond922
        CFI EndBlock cfiCond923
        CFI EndBlock cfiCond924
        CFI EndBlock cfiPicker925
        CFI EndBlock cfiCond926
        CFI EndBlock cfiCond927
        CFI EndBlock cfiCond928
        CFI EndBlock cfiCond929
        CFI EndBlock cfiCond930
        CFI EndBlock cfiCond931
        CFI EndBlock cfiCond932
        CFI EndBlock cfiCond933
        CFI EndBlock cfiCond934
        CFI EndBlock cfiCond935
        CFI EndBlock cfiCond936
        CFI EndBlock cfiCond937
        CFI EndBlock cfiCond938
        CFI EndBlock cfiCond939
        CFI EndBlock cfiCond940
        CFI EndBlock cfiCond941
        CFI EndBlock cfiCond942
        CFI EndBlock cfiCond943
        CFI EndBlock cfiCond944
        CFI EndBlock cfiCond945
        CFI EndBlock cfiCond946
        CFI EndBlock cfiCond947
        CFI EndBlock cfiCond948
        CFI EndBlock cfiCond949
        CFI EndBlock cfiCond950
        CFI EndBlock cfiCond951
        CFI EndBlock cfiCond952
        CFI EndBlock cfiCond953
        CFI EndBlock cfiCond954
        CFI EndBlock cfiCond955
        CFI EndBlock cfiCond956
        CFI EndBlock cfiCond957
        CFI EndBlock cfiCond958
        CFI EndBlock cfiCond959
        CFI EndBlock cfiCond960
        CFI EndBlock cfiCond961
        CFI EndBlock cfiCond962
        CFI EndBlock cfiCond963
        CFI EndBlock cfiCond964
        CFI EndBlock cfiCond965
        CFI EndBlock cfiCond966
        CFI EndBlock cfiCond967
        CFI EndBlock cfiCond968
        CFI EndBlock cfiCond969
        CFI EndBlock cfiCond970
        CFI EndBlock cfiCond971
        CFI EndBlock cfiCond972
        CFI EndBlock cfiCond973
        CFI EndBlock cfiCond974
        CFI EndBlock cfiCond975
        CFI EndBlock cfiCond976
        CFI EndBlock cfiCond977

        RSEG FARCODE:CODE:NOROOT(1)
?Subroutine54:
        CFI Block cfiCond978 Using cfiCommon0
        CFI NoFunction
        CFI Conditional ??CrossCallReturnLabel_473
        CFI R24 Frame(CFA_Y, -1)
        CFI CFA_SP SP+6
        CFI CFA_Y Y+1
        CFI Block cfiCond979 Using cfiCommon0
        CFI (cfiCond979) NoFunction
        CFI (cfiCond979) Conditional ??CrossCallReturnLabel_472
        CFI (cfiCond979) R24 Frame(CFA_Y, -1)
        CFI (cfiCond979) CFA_SP SP+6
        CFI (cfiCond979) CFA_Y Y+1
        CFI Block cfiPicker980 Using cfiCommon1
        CFI (cfiPicker980) NoFunction
        CFI (cfiPicker980) Picker
        LDI	R16, 114
        RJMP	??Subroutine167_0
        CFI EndBlock cfiCond978
        CFI EndBlock cfiCond979
        CFI EndBlock cfiPicker980

        RSEG FARCODE:CODE:NOROOT(1)
?Subroutine53:
        CFI Block cfiCond981 Using cfiCommon0
        CFI NoFunction
        CFI Conditional ??CrossCallReturnLabel_66
        CFI R24 Frame(CFA_Y, -1)
        CFI CFA_SP SP+6
        CFI CFA_Y Y+1
        CFI Block cfiCond982 Using cfiCommon0
        CFI (cfiCond982) NoFunction
        CFI (cfiCond982) Conditional ??CrossCallReturnLabel_67
        CFI (cfiCond982) R24 Frame(CFA_Y, -1)
        CFI (cfiCond982) CFA_SP SP+6
        CFI (cfiCond982) CFA_Y Y+1
        CFI Block cfiPicker983 Using cfiCommon1
        CFI (cfiPicker983) NoFunction
        CFI (cfiPicker983) Picker
        LDI	R16, 114
        CALL	s_port
        LDI	R16, 120
        RET
        CFI EndBlock cfiCond981
        CFI EndBlock cfiCond982
        CFI EndBlock cfiPicker983

        RSEG FARCODE:CODE:NOROOT(1)
?Subroutine51:
        CFI Block cfiCond984 Using cfiCommon0
        CFI NoFunction
        CFI Conditional ??CrossCallReturnLabel_471
        CFI R24 Frame(CFA_Y, -1)
        CFI CFA_SP SP+6
        CFI CFA_Y Y+1
        CFI Block cfiCond985 Using cfiCommon0
        CFI (cfiCond985) NoFunction
        CFI (cfiCond985) Conditional ??CrossCallReturnLabel_470
        CFI (cfiCond985) R24 Frame(CFA_Y, -1)
        CFI (cfiCond985) CFA_SP SP+6
        CFI (cfiCond985) CFA_Y Y+1
        CFI Block cfiPicker986 Using cfiCommon1
        CFI (cfiPicker986) NoFunction
        CFI (cfiPicker986) Picker
        WDR
        LDI	R16, 115
        CALL	s_port
        MOV	R16, R24
        SUBI	R16, 208
        RJMP	??Subroutine167_0
        CFI EndBlock cfiCond984
        CFI EndBlock cfiCond985
        CFI EndBlock cfiPicker986

        RSEG FARCODE:CODE:NOROOT(1)
?Subroutine5:
        CFI Block cfiCond987 Using cfiCommon0
        CFI NoFunction
        CFI Conditional ??CrossCallReturnLabel_323
        CFI R24 Frame(CFA_Y, -1)
        CFI CFA_SP SP+6
        CFI CFA_Y Y+1
        CFI Block cfiCond988 Using cfiCommon0
        CFI (cfiCond988) NoFunction
        CFI (cfiCond988) Conditional ??CrossCallReturnLabel_324
        CFI (cfiCond988) R24 Frame(CFA_Y, -1)
        CFI (cfiCond988) CFA_SP SP+6
        CFI (cfiCond988) CFA_Y Y+1
        CFI Block cfiPicker989 Using cfiCommon1
        CFI (cfiPicker989) NoFunction
        CFI (cfiPicker989) Picker
        LDI	R16, 0
        LDI	R30, LOW(term)
        LDI	R31, (term) >> 8
        RJMP	?Subroutine158
        CFI EndBlock cfiCond987
        CFI EndBlock cfiCond988
        CFI EndBlock cfiPicker989

        RSEG FARCODE:CODE:NOROOT(1)
?Subroutine0:
        CFI Block cfiCond990 Using cfiCommon0
        CFI NoFunction
        CFI Conditional ??CrossCallReturnLabel_0
        CFI R24 Frame(CFA_Y, -1)
        CFI CFA_SP SP+6
        CFI CFA_Y Y+1
        CFI Block cfiCond991 Using cfiCommon0
        CFI (cfiCond991) NoFunction
        CFI (cfiCond991) Conditional ??CrossCallReturnLabel_1
        CFI (cfiCond991) R24 Frame(CFA_Y, -1)
        CFI (cfiCond991) CFA_SP SP+6
        CFI (cfiCond991) CFA_Y Y+1
        CFI Block cfiPicker992 Using cfiCommon1
        CFI (cfiPicker992) NoFunction
        CFI (cfiPicker992) Picker
        LDI	R16, 11
        CALL	mov_s
        CALL	mov_lf
        LDI	R16, 0
        STS	205, R16
        LDI	R16, 207
        STS	204, R16
        LDS	R16, 201
        ORI	R16, 0x18
        STS	201, R16
        LDI	R16, 0
        STS	309, R16
        LDI	R16, 207
        STS	308, R16
        LDS	R16, 305
        ORI	R16, 0x18
        STS	305, R16
        LDS	R16, 206
        LDS	R16, 310
        RET
        CFI EndBlock cfiCond990
        CFI EndBlock cfiCond991
        CFI EndBlock cfiPicker992
// 2624 
// 2625 
// 2626 /////////////////////////////////////////////////  
// 2627 #ifdef  SCENARIO_TEST_MTC_ENABLE

        RSEG FARCODE:CODE:NOROOT(1)
// 2628 void scenario_test_mtc(void)
scenario_test_mtc:
        CFI Block cfiBlock993 Using cfiCommon0
        CFI Function scenario_test_mtc
// 2629 {
        FUNCALL scenario_test_mtc, mov_lf
        LOCFRAME CSTACK, 19, STACK
        LOCFRAME RSTACK, 3, STACK
        FUNCALL scenario_test_mtc, mov_s
        LOCFRAME CSTACK, 19, STACK
        LOCFRAME RSTACK, 3, STACK
        FUNCALL scenario_test_mtc, s_port
        LOCFRAME CSTACK, 19, STACK
        LOCFRAME RSTACK, 3, STACK
        FUNCALL scenario_test_mtc, s_port
        LOCFRAME CSTACK, 19, STACK
        LOCFRAME RSTACK, 3, STACK
        FUNCALL scenario_test_mtc, s_port
        LOCFRAME CSTACK, 19, STACK
        LOCFRAME RSTACK, 3, STACK
        FUNCALL scenario_test_mtc, s_port
        LOCFRAME CSTACK, 19, STACK
        LOCFRAME RSTACK, 3, STACK
        FUNCALL scenario_test_mtc, s_port
        LOCFRAME CSTACK, 19, STACK
        LOCFRAME RSTACK, 3, STACK
        FUNCALL scenario_test_mtc, mov_lf
        LOCFRAME CSTACK, 19, STACK
        LOCFRAME RSTACK, 3, STACK
        FUNCALL scenario_test_mtc, s_port
        LOCFRAME CSTACK, 19, STACK
        LOCFRAME RSTACK, 3, STACK
        FUNCALL scenario_test_mtc, mov_lf
        LOCFRAME CSTACK, 19, STACK
        LOCFRAME RSTACK, 3, STACK
        FUNCALL scenario_test_mtc, mov_s
        LOCFRAME CSTACK, 19, STACK
        LOCFRAME RSTACK, 3, STACK
        FUNCALL scenario_test_mtc, s_port
        LOCFRAME CSTACK, 19, STACK
        LOCFRAME RSTACK, 3, STACK
        FUNCALL scenario_test_mtc, s_port
        LOCFRAME CSTACK, 19, STACK
        LOCFRAME RSTACK, 3, STACK
        FUNCALL scenario_test_mtc, s_port
        LOCFRAME CSTACK, 19, STACK
        LOCFRAME RSTACK, 3, STACK
        FUNCALL scenario_test_mtc, s_port
        LOCFRAME CSTACK, 19, STACK
        LOCFRAME RSTACK, 3, STACK
        FUNCALL scenario_test_mtc, s_port
        LOCFRAME CSTACK, 19, STACK
        LOCFRAME RSTACK, 3, STACK
        FUNCALL scenario_test_mtc, mov_lf
        LOCFRAME CSTACK, 19, STACK
        LOCFRAME RSTACK, 3, STACK
        FUNCALL scenario_test_mtc, s_port
        LOCFRAME CSTACK, 19, STACK
        LOCFRAME RSTACK, 3, STACK
        FUNCALL scenario_test_mtc, mov_lf
        LOCFRAME CSTACK, 19, STACK
        LOCFRAME RSTACK, 3, STACK
        FUNCALL scenario_test_mtc, mov_s
        LOCFRAME CSTACK, 19, STACK
        LOCFRAME RSTACK, 3, STACK
        FUNCALL scenario_test_mtc, s_port
        LOCFRAME CSTACK, 19, STACK
        LOCFRAME RSTACK, 3, STACK
        FUNCALL scenario_test_mtc, s_port
        LOCFRAME CSTACK, 19, STACK
        LOCFRAME RSTACK, 3, STACK
        FUNCALL scenario_test_mtc, s_port
        LOCFRAME CSTACK, 19, STACK
        LOCFRAME RSTACK, 3, STACK
        FUNCALL scenario_test_mtc, s_port
        LOCFRAME CSTACK, 19, STACK
        LOCFRAME RSTACK, 3, STACK
        FUNCALL scenario_test_mtc, s_port
        LOCFRAME CSTACK, 19, STACK
        LOCFRAME RSTACK, 3, STACK
        FUNCALL scenario_test_mtc, mov_lf
        LOCFRAME CSTACK, 19, STACK
        LOCFRAME RSTACK, 3, STACK
        FUNCALL scenario_test_mtc, s_port
        LOCFRAME CSTACK, 19, STACK
        LOCFRAME RSTACK, 3, STACK
        FUNCALL scenario_test_mtc, mov_lf
        LOCFRAME CSTACK, 19, STACK
        LOCFRAME RSTACK, 3, STACK
        FUNCALL scenario_test_mtc, mov_s
        LOCFRAME CSTACK, 19, STACK
        LOCFRAME RSTACK, 3, STACK
        FUNCALL scenario_test_mtc, s_port
        LOCFRAME CSTACK, 19, STACK
        LOCFRAME RSTACK, 3, STACK
        FUNCALL scenario_test_mtc, s_port
        LOCFRAME CSTACK, 19, STACK
        LOCFRAME RSTACK, 3, STACK
        FUNCALL scenario_test_mtc, s_port
        LOCFRAME CSTACK, 19, STACK
        LOCFRAME RSTACK, 3, STACK
        FUNCALL scenario_test_mtc, s_port
        LOCFRAME CSTACK, 19, STACK
        LOCFRAME RSTACK, 3, STACK
        FUNCALL scenario_test_mtc, s_port
        LOCFRAME CSTACK, 19, STACK
        LOCFRAME RSTACK, 3, STACK
        FUNCALL scenario_test_mtc, mov_lf
        LOCFRAME CSTACK, 19, STACK
        LOCFRAME RSTACK, 3, STACK
        FUNCALL scenario_test_mtc, s_port
        LOCFRAME CSTACK, 19, STACK
        LOCFRAME RSTACK, 3, STACK
        FUNCALL scenario_test_mtc, mov_lf
        LOCFRAME CSTACK, 19, STACK
        LOCFRAME RSTACK, 3, STACK
        FUNCALL scenario_test_mtc, mov_s
        LOCFRAME CSTACK, 19, STACK
        LOCFRAME RSTACK, 3, STACK
        FUNCALL scenario_test_mtc, sprintf
        LOCFRAME CSTACK, 21, STACK
        LOCFRAME RSTACK, 3, STACK
        FUNCALL scenario_test_mtc, strlen
        LOCFRAME CSTACK, 19, STACK
        LOCFRAME RSTACK, 3, STACK
        FUNCALL scenario_test_mtc, mov_massiv
        LOCFRAME CSTACK, 19, STACK
        LOCFRAME RSTACK, 3, STACK
        FUNCALL scenario_test_mtc, s_port
        LOCFRAME CSTACK, 19, STACK
        LOCFRAME RSTACK, 3, STACK
        FUNCALL scenario_test_mtc, sprintf
        LOCFRAME CSTACK, 21, STACK
        LOCFRAME RSTACK, 3, STACK
        FUNCALL scenario_test_mtc, strlen
        LOCFRAME CSTACK, 19, STACK
        LOCFRAME RSTACK, 3, STACK
        FUNCALL scenario_test_mtc, mov_massiv
        LOCFRAME CSTACK, 19, STACK
        LOCFRAME RSTACK, 3, STACK
        FUNCALL scenario_test_mtc, mov_lf
        LOCFRAME CSTACK, 19, STACK
        LOCFRAME RSTACK, 3, STACK
        FUNCALL scenario_test_mtc, mov_s
        LOCFRAME CSTACK, 19, STACK
        LOCFRAME RSTACK, 3, STACK
        FUNCALL scenario_test_mtc, s_port
        LOCFRAME CSTACK, 19, STACK
        LOCFRAME RSTACK, 3, STACK
        FUNCALL scenario_test_mtc, s_port
        LOCFRAME CSTACK, 19, STACK
        LOCFRAME RSTACK, 3, STACK
        FUNCALL scenario_test_mtc, s_port
        LOCFRAME CSTACK, 19, STACK
        LOCFRAME RSTACK, 3, STACK
        FUNCALL scenario_test_mtc, s_port
        LOCFRAME CSTACK, 19, STACK
        LOCFRAME RSTACK, 3, STACK
        FUNCALL scenario_test_mtc, mov_lf
        LOCFRAME CSTACK, 19, STACK
        LOCFRAME RSTACK, 3, STACK
        FUNCALL scenario_test_mtc, s_port
        LOCFRAME CSTACK, 19, STACK
        LOCFRAME RSTACK, 3, STACK
        CALL	?PROLOGUE6_L09
        CFI R5 Frame(CFA_Y, -1)
        CFI R4 Frame(CFA_Y, -2)
        CFI R27 Frame(CFA_Y, -3)
        CFI R26 Frame(CFA_Y, -4)
        CFI R25 Frame(CFA_Y, -5)
        CFI R24 Frame(CFA_Y, -6)
        CFI CFA_Y Y+6
        REQUIRE	?Register_R4_is_cg_reg
        REQUIRE	?Register_R5_is_cg_reg
        SBIW	R29:R28, 13
        CFI CFA_Y Y+19
// 2630   char massiv[13];
// 2631   char i;
// 2632 if( test_mtc.enable ==0) return;
        LDI	R26, LOW(test_mtc)
        LDI	R27, (test_mtc) >> 8
        RCALL	?Subroutine40
??CrossCallReturnLabel_50:
        TST	R16
        BRNE	$+2+2
        RJMP	??scenario_test_mtc_0
// 2633 switch( test_mtc.step)
        LDD	R16, Z+2
        LDD	R17, Z+3
        LDI	R18, LOW(modbus_mem1)
        MOV	R4, R18
        LDI	R18, (modbus_mem1) >> 8
        MOV	R5, R18
        LD	R18, X
        TST	R18
        BREQ	??scenario_test_mtc_1
        DEC	R18
        BREQ	??scenario_test_mtc_2
        DEC	R18
        BREQ	??scenario_test_mtc_3
        DEC	R18
        BREQ	??scenario_test_mtc_4
        DEC	R18
        BREQ	??scenario_test_mtc_5
        DEC	R18
        BREQ	??scenario_test_mtc_6
        DEC	R18
        BREQ	??scenario_test_mtc_7
        DEC	R18
        BRNE	$+2+2
        RJMP	??scenario_test_mtc_8
        DEC	R18
        BRNE	$+2+2
        RJMP	??scenario_test_mtc_9
        RJMP	??CrossCallReturnLabel_474
// 2634 {
// 2635 
// 2636 case 0:
// 2637                   TU1_OFF;
??scenario_test_mtc_1:
        CBI	0x02, 0x04
// 2638                   TU2_OFF;
        CBI	0x02, 0x03
// 2639                   test_mtc.step = 1;
        LDI	R16, 1
        ST	X, R16
// 2640                   test_mtc.delay = 1000;
        LDI	R16, 232
        LDI	R17, 3
??scenario_test_mtc_10:
        STD	Z+2, R16
        STD	Z+3, R17
        RJMP	??scenario_test_mtc_0
// 2641                   break;
// 2642 case 1:
// 2643                  
// 2644                   if(test_mtc.delay) {test_mtc.delay --;break;}
??scenario_test_mtc_2:
        OR	R16, R17
        BREQ	??scenario_test_mtc_11
??scenario_test_mtc_12:
        LDD	R16, Z+2
        SUBI	R16, 1
        SBCI	R17, 0
        RJMP	??scenario_test_mtc_10
// 2645                    else 
// 2646                        test_mtc.step = 2;
??scenario_test_mtc_11:
        LDI	R16, 2
??scenario_test_mtc_13:
        ST	X, R16
        RJMP	??scenario_test_mtc_0
// 2647                   break;
// 2648 
// 2649 case 2:
// 2650                 mov_lf();
??scenario_test_mtc_3:
        RCALL	?Subroutine115
// 2651                 mov_s ( sizeof(zp_ts_dop) - 3,zp_ts_dop + 3);           
// 2652                 for(i=0;i<8;i++)if ((modbus_mem1[AD_TS]>>i)&0x01)s_port('1');else s_port('0');
??CrossCallReturnLabel_145:
        RCALL	?Subroutine129
??CrossCallReturnLabel_166:
        RCALL	?Subroutine111
??CrossCallReturnLabel_139:
        BRCS	??CrossCallReturnLabel_145
// 2653                 if( modbus_mem1[AD_TS] == 0x0) { s_port(' ');s_port('O'); s_port('K'); }
        RCALL	?Subroutine130
??CrossCallReturnLabel_171:
        OR	R16, R17
        BRNE	??CrossCallReturnLabel_463
        RCALL	?Subroutine48
// 2654                 mov_lf();
??CrossCallReturnLabel_463:
        RCALL	?Subroutine101
// 2655                 s_port('>'); 
// 2656 
// 2657                   TU1_ON;
// 2658                   TU2_OFF;
??CrossCallReturnLabel_124:
        CBI	0x02, 0x03
// 2659                 test_mtc.delay = 1000;
        RCALL	??Subroutine37_0
// 2660                 test_mtc.step = 3;
??CrossCallReturnLabel_44:
        ST	X, R17
        RJMP	??scenario_test_mtc_0
// 2661                 break; 
// 2662 
// 2663 case 3:
// 2664                  
// 2665                   if(test_mtc.delay) {test_mtc.delay --;break;}
??scenario_test_mtc_4:
        OR	R16, R17
        BRNE	??scenario_test_mtc_12
// 2666                    else 
// 2667                        test_mtc.step = 4;
        LDI	R16, 4
        RJMP	??scenario_test_mtc_13
// 2668                   break;
// 2669 
// 2670 
// 2671 case 4:
// 2672                 mov_lf();
??scenario_test_mtc_5:
        RCALL	?Subroutine115
// 2673                 mov_s ( sizeof(zp_ts_dop) - 3,zp_ts_dop + 3);            
// 2674                 for(i=0;i<8;i++)if ((modbus_mem1[AD_TS]>>i)&0x01)s_port('1');else s_port('0');
??CrossCallReturnLabel_146:
        RCALL	?Subroutine129
??CrossCallReturnLabel_167:
        RCALL	?Subroutine111
??CrossCallReturnLabel_140:
        BRCS	??CrossCallReturnLabel_146
// 2675                if( modbus_mem1[AD_TS] == 0xa5) {s_port(' '); s_port('O'); s_port('K'); }
        RCALL	?Subroutine130
??CrossCallReturnLabel_172:
        CPI	R16, 165
        SBCI	R17, 0
        BRNE	??CrossCallReturnLabel_462
        RCALL	?Subroutine48
// 2676                 mov_lf();
??CrossCallReturnLabel_462:
        RCALL	?Subroutine102
// 2677                 s_port('>'); 
// 2678 
// 2679                   TU1_OFF;
// 2680                   TU2_ON;
??CrossCallReturnLabel_126:
        RCALL	?Subroutine37
// 2681                 test_mtc.delay = 1000;
// 2682                 test_mtc.step = 5;
??CrossCallReturnLabel_42:
        LDI	R16, 5
        RJMP	??scenario_test_mtc_13
// 2683                 break; 
// 2684 
// 2685 case 5:
// 2686                  
// 2687                   if(test_mtc.delay) {test_mtc.delay --;break;}
??scenario_test_mtc_6:
        OR	R16, R17
        BRNE	??scenario_test_mtc_12
// 2688                    else 
// 2689                        test_mtc.step = 6;
        LDI	R16, 6
        RJMP	??scenario_test_mtc_13
// 2690                   break;
// 2691 
// 2692 
// 2693 case 6:
// 2694                 mov_lf();
??scenario_test_mtc_7:
        RCALL	?Subroutine115
// 2695                 mov_s ( sizeof(zp_ts_dop) - 3,zp_ts_dop + 3);            
// 2696                 for(i=0;i<8;i++)if ((modbus_mem1[AD_TS]>>i)&0x01)s_port('1');else s_port('0');
??CrossCallReturnLabel_147:
        RCALL	?Subroutine129
??CrossCallReturnLabel_168:
        RCALL	?Subroutine111
??CrossCallReturnLabel_141:
        BRCS	??CrossCallReturnLabel_147
// 2697                 if( modbus_mem1[AD_TS] == 0x52) { s_port(' ');s_port('O'); s_port('K'); }
        RCALL	?Subroutine130
??CrossCallReturnLabel_173:
        CPI	R16, 82
        SBCI	R17, 0
        BRNE	??CrossCallReturnLabel_461
        RCALL	?Subroutine48
// 2698                 mov_lf();
??CrossCallReturnLabel_461:
        RCALL	?Subroutine101
// 2699                 s_port('>'); 
// 2700 
// 2701                   TU1_ON;
// 2702                   TU2_ON;
??CrossCallReturnLabel_125:
        RCALL	?Subroutine37
// 2703                 test_mtc.delay = 1000;
// 2704                 test_mtc.step = 7;
??CrossCallReturnLabel_43:
        LDI	R16, 7
        RJMP	??scenario_test_mtc_13
// 2705                 break; 
// 2706 
// 2707 
// 2708 case 7:
// 2709                  
// 2710                   if(test_mtc.delay) {test_mtc.delay --;break;}
??scenario_test_mtc_8:
        OR	R16, R17
        BRNE	??scenario_test_mtc_12
// 2711                    else 
// 2712                        test_mtc.step = 8;
        LDI	R16, 8
        RJMP	??scenario_test_mtc_13
// 2713                   break;
// 2714 
// 2715 
// 2716 case 8:
// 2717                 mov_lf();
??scenario_test_mtc_9:
        RCALL	?Subroutine115
// 2718                 mov_s ( sizeof(zp_ts_dop) - 3,zp_ts_dop + 3);           
// 2719                 for(i=0;i<8;i++)if ((modbus_mem1[AD_TS]>>i)&0x01)s_port('1');else s_port('0');
??CrossCallReturnLabel_148:
        RCALL	?Subroutine129
??CrossCallReturnLabel_169:
        RCALL	?Subroutine111
??CrossCallReturnLabel_142:
        BRCS	??CrossCallReturnLabel_148
// 2720                 if( modbus_mem1[AD_TS] == 0xf7) {s_port(' '); s_port('O'); s_port('K'); }
        RCALL	?Subroutine130
??CrossCallReturnLabel_174:
        CPI	R16, 247
        SBCI	R17, 0
        BRNE	??CrossCallReturnLabel_460
        RCALL	?Subroutine48
// 2721                 mov_lf();
??CrossCallReturnLabel_460:
        RCALL	?Subroutine102
// 2722                 s_port('>'); 
// 2723 
// 2724                   TU1_OFF;
// 2725                   TU2_OFF;
??CrossCallReturnLabel_127:
        CBI	0x02, 0x03
// 2726 
// 2727 
// 2728                 mov_lf();
        RCALL	?Subroutine165
// 2729                 mov_s ( sizeof(zp_tit) - 3,zp_tit + 3);     
??CrossCallReturnLabel_521:
        LDI	R18, LOW((versia + 619))
        LDI	R19, HIGH((versia + 619))
        LDI	R16, 4
        CALL	?Subroutine166
// 2730                 sprintf(massiv,"%u\0",modbus_mem1[AD_TIT1]);
??CrossCallReturnLabel_364:
        RCALL	?Subroutine143
??CrossCallReturnLabel_206:
        RCALL	?Subroutine49
// 2731                 mov_massiv(strlen(massiv),massiv);
// 2732                 s_port(' ');
// 2733                 sprintf(massiv,"%u\0",modbus_mem1[AD_TIT2]);
??CrossCallReturnLabel_468:
        RCALL	?Subroutine143
??CrossCallReturnLabel_207:
        LDD	R16, Z+34
        LDD	R17, Z+35
        RCALL	?Subroutine127
        CFI CFA_Y Y+21
??CrossCallReturnLabel_163:
        RCALL	?Subroutine71
        CFI CFA_Y Y+19
// 2734                 mov_massiv(strlen(massiv),massiv);
??CrossCallReturnLabel_81:
        RCALL	?Subroutine70
// 2735                 mov_lf(); 
??CrossCallReturnLabel_78:
        RCALL	?Subroutine165
// 2736                 mov_s ( sizeof(map_test_mtc),map_test_mtc); 
??CrossCallReturnLabel_520:
        LDI	R18, LOW((versia + 142))
        LDI	R19, HIGH((versia + 142))
        LDI	R16, 14
        CALL	?Subroutine166
// 2737                 s_port(' ');
??CrossCallReturnLabel_363:
        RCALL	??Subroutine49_2
// 2738                 s_port('F');
??CrossCallReturnLabel_464:
        LDI	R16, 70
        RCALL	??Subroutine167_0
// 2739                 s_port('I');
??CrossCallReturnLabel_481:
        LDI	R16, 73
        RCALL	??Subroutine167_0
// 2740                 s_port('N');
??CrossCallReturnLabel_480:
        LDI	R16, 78
        RCALL	??Subroutine167_0
// 2741                 mov_lf(); 
??CrossCallReturnLabel_479:
        RCALL	?Subroutine103
// 2742                 s_port('>');
// 2743 
// 2744                 test_mtc.enable = 0;
// 2745                 test_mtc.step = 0;
// 2746                 vol_tx_ppp=0;
// 2747                 break; 
// 2748 
// 2749 default:   
// 2750                 test_mtc.enable = 0;
??CrossCallReturnLabel_474:
        LDI	R16, 0
        MOVW	R31:R30, R27:R26
        STD	Z+1, R16
// 2751                 test_mtc.step = 0;
        ST	X, R16
// 2752                 vol_tx_ppp=0;
        RCALL	?Subroutine132
??CrossCallReturnLabel_181:
        ST	Z, R16
        STD	Z+1, R16
??scenario_test_mtc_0:
        ADIW	R29:R28, 13
        CFI CFA_Y Y+6
        LDI	R30, 6
        JMP	?EPILOGUE_B6_L09
        CFI EndBlock cfiBlock993
// 2753                 break; 
// 2754 }
// 2755 }

        RSEG FARCODE:CODE:NOROOT(1)
?Subroutine130:
        CFI Block cfiCond994 Using cfiCommon0
        CFI NoFunction
        CFI Conditional ??CrossCallReturnLabel_171
        CFI R24 Frame(CFA_Y, -6)
        CFI R25 Frame(CFA_Y, -5)
        CFI R26 Frame(CFA_Y, -4)
        CFI R27 Frame(CFA_Y, -3)
        CFI R4 Frame(CFA_Y, -2)
        CFI R5 Frame(CFA_Y, -1)
        CFI CFA_SP SP+6
        CFI CFA_Y Y+19
        CFI Block cfiCond995 Using cfiCommon0
        CFI (cfiCond995) NoFunction
        CFI (cfiCond995) Conditional ??CrossCallReturnLabel_172
        CFI (cfiCond995) R24 Frame(CFA_Y, -6)
        CFI (cfiCond995) R25 Frame(CFA_Y, -5)
        CFI (cfiCond995) R26 Frame(CFA_Y, -4)
        CFI (cfiCond995) R27 Frame(CFA_Y, -3)
        CFI (cfiCond995) R4 Frame(CFA_Y, -2)
        CFI (cfiCond995) R5 Frame(CFA_Y, -1)
        CFI (cfiCond995) CFA_SP SP+6
        CFI (cfiCond995) CFA_Y Y+19
        CFI Block cfiCond996 Using cfiCommon0
        CFI (cfiCond996) NoFunction
        CFI (cfiCond996) Conditional ??CrossCallReturnLabel_173
        CFI (cfiCond996) R24 Frame(CFA_Y, -6)
        CFI (cfiCond996) R25 Frame(CFA_Y, -5)
        CFI (cfiCond996) R26 Frame(CFA_Y, -4)
        CFI (cfiCond996) R27 Frame(CFA_Y, -3)
        CFI (cfiCond996) R4 Frame(CFA_Y, -2)
        CFI (cfiCond996) R5 Frame(CFA_Y, -1)
        CFI (cfiCond996) CFA_SP SP+6
        CFI (cfiCond996) CFA_Y Y+19
        CFI Block cfiCond997 Using cfiCommon0
        CFI (cfiCond997) NoFunction
        CFI (cfiCond997) Conditional ??CrossCallReturnLabel_174
        CFI (cfiCond997) R24 Frame(CFA_Y, -6)
        CFI (cfiCond997) R25 Frame(CFA_Y, -5)
        CFI (cfiCond997) R26 Frame(CFA_Y, -4)
        CFI (cfiCond997) R27 Frame(CFA_Y, -3)
        CFI (cfiCond997) R4 Frame(CFA_Y, -2)
        CFI (cfiCond997) R5 Frame(CFA_Y, -1)
        CFI (cfiCond997) CFA_SP SP+6
        CFI (cfiCond997) CFA_Y Y+19
        CFI Block cfiPicker998 Using cfiCommon1
        CFI (cfiPicker998) NoFunction
        CFI (cfiPicker998) Picker
        LDI	R30, LOW(modbus_mem1)
        LDI	R31, (modbus_mem1) >> 8
        CFI Block cfiCond999 Using cfiCommon0
        CFI (cfiCond999) NoFunction
        CFI (cfiCond999) Conditional ??CrossCallReturnLabel_170
        CFI (cfiCond999) R24 Frame(CFA_Y, -5)
        CFI (cfiCond999) R25 Frame(CFA_Y, -4)
        CFI (cfiCond999) R26 Frame(CFA_Y, -3)
        CFI (cfiCond999) R27 Frame(CFA_Y, -2)
        CFI (cfiCond999) R4 Frame(CFA_Y, -1)
        CFI (cfiCond999) CFA_SP SP+6
        CFI (cfiCond999) CFA_Y Y+88
??Subroutine130_0:
        LDD	R16, Z+48
        LDD	R17, Z+49
        RET
        CFI EndBlock cfiCond994
        CFI EndBlock cfiCond995
        CFI EndBlock cfiCond996
        CFI EndBlock cfiCond997
        CFI EndBlock cfiPicker998
        CFI EndBlock cfiCond999

        RSEG FARCODE:CODE:NOROOT(1)
?Subroutine129:
        CFI Block cfiCond1000 Using cfiCommon0
        CFI NoFunction
        CFI Conditional ??CrossCallReturnLabel_166
        CFI R24 Frame(CFA_Y, -6)
        CFI R25 Frame(CFA_Y, -5)
        CFI R26 Frame(CFA_Y, -4)
        CFI R27 Frame(CFA_Y, -3)
        CFI R4 Frame(CFA_Y, -2)
        CFI R5 Frame(CFA_Y, -1)
        CFI CFA_SP SP+6
        CFI CFA_Y Y+19
        CFI Block cfiCond1001 Using cfiCommon0
        CFI (cfiCond1001) NoFunction
        CFI (cfiCond1001) Conditional ??CrossCallReturnLabel_167
        CFI (cfiCond1001) R24 Frame(CFA_Y, -6)
        CFI (cfiCond1001) R25 Frame(CFA_Y, -5)
        CFI (cfiCond1001) R26 Frame(CFA_Y, -4)
        CFI (cfiCond1001) R27 Frame(CFA_Y, -3)
        CFI (cfiCond1001) R4 Frame(CFA_Y, -2)
        CFI (cfiCond1001) R5 Frame(CFA_Y, -1)
        CFI (cfiCond1001) CFA_SP SP+6
        CFI (cfiCond1001) CFA_Y Y+19
        CFI Block cfiCond1002 Using cfiCommon0
        CFI (cfiCond1002) NoFunction
        CFI (cfiCond1002) Conditional ??CrossCallReturnLabel_168
        CFI (cfiCond1002) R24 Frame(CFA_Y, -6)
        CFI (cfiCond1002) R25 Frame(CFA_Y, -5)
        CFI (cfiCond1002) R26 Frame(CFA_Y, -4)
        CFI (cfiCond1002) R27 Frame(CFA_Y, -3)
        CFI (cfiCond1002) R4 Frame(CFA_Y, -2)
        CFI (cfiCond1002) R5 Frame(CFA_Y, -1)
        CFI (cfiCond1002) CFA_SP SP+6
        CFI (cfiCond1002) CFA_Y Y+19
        CFI Block cfiCond1003 Using cfiCommon0
        CFI (cfiCond1003) NoFunction
        CFI (cfiCond1003) Conditional ??CrossCallReturnLabel_169
        CFI (cfiCond1003) R24 Frame(CFA_Y, -6)
        CFI (cfiCond1003) R25 Frame(CFA_Y, -5)
        CFI (cfiCond1003) R26 Frame(CFA_Y, -4)
        CFI (cfiCond1003) R27 Frame(CFA_Y, -3)
        CFI (cfiCond1003) R4 Frame(CFA_Y, -2)
        CFI (cfiCond1003) R5 Frame(CFA_Y, -1)
        CFI (cfiCond1003) CFA_SP SP+6
        CFI (cfiCond1003) CFA_Y Y+19
        CFI Block cfiPicker1004 Using cfiCommon1
        CFI (cfiPicker1004) NoFunction
        CFI (cfiPicker1004) Picker
        MOVW	R31:R30, R5:R4
        LDD	R16, Z+48
        LDD	R17, Z+49
        MOV	R20, R24
        CALL	?US_SHR_L02
        ANDI	R16, 0x01
        BREQ	??Subroutine129_0
        LDI	R16, 49
        RET
??Subroutine129_0:
        LDI	R16, 48
        RET
        CFI EndBlock cfiCond1000
        CFI EndBlock cfiCond1001
        CFI EndBlock cfiCond1002
        CFI EndBlock cfiCond1003
        CFI EndBlock cfiPicker1004

        RSEG FARCODE:CODE:NOROOT(1)
?Subroutine127:
        CFI Block cfiCond1005 Using cfiCommon0
        CFI NoFunction
        CFI Conditional ??CrossCallReturnLabel_162
        CFI R24 Frame(CFA_Y, -5)
        CFI R25 Frame(CFA_Y, -4)
        CFI R26 Frame(CFA_Y, -3)
        CFI R27 Frame(CFA_Y, -2)
        CFI R4 Frame(CFA_Y, -1)
        CFI CFA_SP SP+6
        CFI CFA_Y Y+88
        CFI Block cfiCond1006 Using cfiCommon0
        CFI (cfiCond1006) NoFunction
        CFI (cfiCond1006) Conditional ??CrossCallReturnLabel_163
        CFI (cfiCond1006) R24 Frame(CFA_Y, -6)
        CFI (cfiCond1006) R25 Frame(CFA_Y, -5)
        CFI (cfiCond1006) R26 Frame(CFA_Y, -4)
        CFI (cfiCond1006) R27 Frame(CFA_Y, -3)
        CFI (cfiCond1006) R4 Frame(CFA_Y, -2)
        CFI (cfiCond1006) R5 Frame(CFA_Y, -1)
        CFI (cfiCond1006) CFA_SP SP+6
        CFI (cfiCond1006) CFA_Y Y+19
        CFI Block cfiPicker1007 Using cfiCommon1
        CFI (cfiPicker1007) NoFunction
        CFI (cfiPicker1007) Picker
        ST	-Y, R17
        CFI (cfiCond1005) CFA_Y Y+89
        CFI (cfiCond1006) CFA_Y Y+20
        ST	-Y, R16
        CFI (cfiCond1005) CFA_Y Y+90
        CFI (cfiCond1006) CFA_Y Y+21
        LDI	R18, LOW((`?<Constant "%hhi\\000">` + 15))
        LDI	R19, HIGH((`?<Constant "%hhi\\000">` + 15))
        RET
        CFI EndBlock cfiCond1005
        CFI EndBlock cfiCond1006
        CFI EndBlock cfiPicker1007

        RSEG FARCODE:CODE:NOROOT(1)
?Subroutine115:
        CFI Block cfiCond1008 Using cfiCommon0
        CFI NoFunction
        CFI Conditional ??CrossCallReturnLabel_145
        CFI R24 Frame(CFA_Y, -6)
        CFI R25 Frame(CFA_Y, -5)
        CFI R26 Frame(CFA_Y, -4)
        CFI R27 Frame(CFA_Y, -3)
        CFI R4 Frame(CFA_Y, -2)
        CFI R5 Frame(CFA_Y, -1)
        CFI CFA_SP SP+6
        CFI CFA_Y Y+19
        CFI Block cfiCond1009 Using cfiCommon0
        CFI (cfiCond1009) NoFunction
        CFI (cfiCond1009) Conditional ??CrossCallReturnLabel_146
        CFI (cfiCond1009) R24 Frame(CFA_Y, -6)
        CFI (cfiCond1009) R25 Frame(CFA_Y, -5)
        CFI (cfiCond1009) R26 Frame(CFA_Y, -4)
        CFI (cfiCond1009) R27 Frame(CFA_Y, -3)
        CFI (cfiCond1009) R4 Frame(CFA_Y, -2)
        CFI (cfiCond1009) R5 Frame(CFA_Y, -1)
        CFI (cfiCond1009) CFA_SP SP+6
        CFI (cfiCond1009) CFA_Y Y+19
        CFI Block cfiCond1010 Using cfiCommon0
        CFI (cfiCond1010) NoFunction
        CFI (cfiCond1010) Conditional ??CrossCallReturnLabel_147
        CFI (cfiCond1010) R24 Frame(CFA_Y, -6)
        CFI (cfiCond1010) R25 Frame(CFA_Y, -5)
        CFI (cfiCond1010) R26 Frame(CFA_Y, -4)
        CFI (cfiCond1010) R27 Frame(CFA_Y, -3)
        CFI (cfiCond1010) R4 Frame(CFA_Y, -2)
        CFI (cfiCond1010) R5 Frame(CFA_Y, -1)
        CFI (cfiCond1010) CFA_SP SP+6
        CFI (cfiCond1010) CFA_Y Y+19
        CFI Block cfiCond1011 Using cfiCommon0
        CFI (cfiCond1011) NoFunction
        CFI (cfiCond1011) Conditional ??CrossCallReturnLabel_148
        CFI (cfiCond1011) R24 Frame(CFA_Y, -6)
        CFI (cfiCond1011) R25 Frame(CFA_Y, -5)
        CFI (cfiCond1011) R26 Frame(CFA_Y, -4)
        CFI (cfiCond1011) R27 Frame(CFA_Y, -3)
        CFI (cfiCond1011) R4 Frame(CFA_Y, -2)
        CFI (cfiCond1011) R5 Frame(CFA_Y, -1)
        CFI (cfiCond1011) CFA_SP SP+6
        CFI (cfiCond1011) CFA_Y Y+19
        CFI Block cfiPicker1012 Using cfiCommon1
        CFI (cfiPicker1012) NoFunction
        CFI (cfiPicker1012) Picker
        CALL	mov_lf
        LDI	R18, LOW((versia + 612))
        LDI	R19, HIGH((versia + 612))
        LDI	R16, 4
        CALL	mov_s
        LDI	R24, 0
        RET
        CFI EndBlock cfiCond1008
        CFI EndBlock cfiCond1009
        CFI EndBlock cfiCond1010
        CFI EndBlock cfiCond1011
        CFI EndBlock cfiPicker1012

        RSEG FARCODE:CODE:NOROOT(1)
?Subroutine111:
        CFI Block cfiCond1013 Using cfiCommon0
        CFI NoFunction
        CFI Conditional ??CrossCallReturnLabel_138
        CFI R24 Frame(CFA_Y, -5)
        CFI R25 Frame(CFA_Y, -4)
        CFI R26 Frame(CFA_Y, -3)
        CFI R27 Frame(CFA_Y, -2)
        CFI R4 Frame(CFA_Y, -1)
        CFI CFA_SP SP+6
        CFI CFA_Y Y+88
        CFI Block cfiCond1014 Using cfiCommon0
        CFI (cfiCond1014) NoFunction
        CFI (cfiCond1014) Conditional ??CrossCallReturnLabel_139
        CFI (cfiCond1014) R24 Frame(CFA_Y, -6)
        CFI (cfiCond1014) R25 Frame(CFA_Y, -5)
        CFI (cfiCond1014) R26 Frame(CFA_Y, -4)
        CFI (cfiCond1014) R27 Frame(CFA_Y, -3)
        CFI (cfiCond1014) R4 Frame(CFA_Y, -2)
        CFI (cfiCond1014) R5 Frame(CFA_Y, -1)
        CFI (cfiCond1014) CFA_SP SP+6
        CFI (cfiCond1014) CFA_Y Y+19
        CFI Block cfiCond1015 Using cfiCommon0
        CFI (cfiCond1015) NoFunction
        CFI (cfiCond1015) Conditional ??CrossCallReturnLabel_140
        CFI (cfiCond1015) R24 Frame(CFA_Y, -6)
        CFI (cfiCond1015) R25 Frame(CFA_Y, -5)
        CFI (cfiCond1015) R26 Frame(CFA_Y, -4)
        CFI (cfiCond1015) R27 Frame(CFA_Y, -3)
        CFI (cfiCond1015) R4 Frame(CFA_Y, -2)
        CFI (cfiCond1015) R5 Frame(CFA_Y, -1)
        CFI (cfiCond1015) CFA_SP SP+6
        CFI (cfiCond1015) CFA_Y Y+19
        CFI Block cfiCond1016 Using cfiCommon0
        CFI (cfiCond1016) NoFunction
        CFI (cfiCond1016) Conditional ??CrossCallReturnLabel_141
        CFI (cfiCond1016) R24 Frame(CFA_Y, -6)
        CFI (cfiCond1016) R25 Frame(CFA_Y, -5)
        CFI (cfiCond1016) R26 Frame(CFA_Y, -4)
        CFI (cfiCond1016) R27 Frame(CFA_Y, -3)
        CFI (cfiCond1016) R4 Frame(CFA_Y, -2)
        CFI (cfiCond1016) R5 Frame(CFA_Y, -1)
        CFI (cfiCond1016) CFA_SP SP+6
        CFI (cfiCond1016) CFA_Y Y+19
        CFI Block cfiCond1017 Using cfiCommon0
        CFI (cfiCond1017) NoFunction
        CFI (cfiCond1017) Conditional ??CrossCallReturnLabel_142
        CFI (cfiCond1017) R24 Frame(CFA_Y, -6)
        CFI (cfiCond1017) R25 Frame(CFA_Y, -5)
        CFI (cfiCond1017) R26 Frame(CFA_Y, -4)
        CFI (cfiCond1017) R27 Frame(CFA_Y, -3)
        CFI (cfiCond1017) R4 Frame(CFA_Y, -2)
        CFI (cfiCond1017) R5 Frame(CFA_Y, -1)
        CFI (cfiCond1017) CFA_SP SP+6
        CFI (cfiCond1017) CFA_Y Y+19
        CFI Block cfiPicker1018 Using cfiCommon1
        CFI (cfiPicker1018) NoFunction
        CFI (cfiPicker1018) Picker
        CALL	s_port
        INC	R24
        CPI	R24, 8
        RET
        CFI EndBlock cfiCond1013
        CFI EndBlock cfiCond1014
        CFI EndBlock cfiCond1015
        CFI EndBlock cfiCond1016
        CFI EndBlock cfiCond1017
        CFI EndBlock cfiPicker1018

        RSEG FARCODE:CODE:NOROOT(1)
?Subroutine102:
        CFI Block cfiCond1019 Using cfiCommon0
        CFI NoFunction
        CFI Conditional ??CrossCallReturnLabel_126
        CFI R24 Frame(CFA_Y, -6)
        CFI R25 Frame(CFA_Y, -5)
        CFI R26 Frame(CFA_Y, -4)
        CFI R27 Frame(CFA_Y, -3)
        CFI R4 Frame(CFA_Y, -2)
        CFI R5 Frame(CFA_Y, -1)
        CFI CFA_SP SP+6
        CFI CFA_Y Y+19
        CFI Block cfiCond1020 Using cfiCommon0
        CFI (cfiCond1020) NoFunction
        CFI (cfiCond1020) Conditional ??CrossCallReturnLabel_127
        CFI (cfiCond1020) R24 Frame(CFA_Y, -6)
        CFI (cfiCond1020) R25 Frame(CFA_Y, -5)
        CFI (cfiCond1020) R26 Frame(CFA_Y, -4)
        CFI (cfiCond1020) R27 Frame(CFA_Y, -3)
        CFI (cfiCond1020) R4 Frame(CFA_Y, -2)
        CFI (cfiCond1020) R5 Frame(CFA_Y, -1)
        CFI (cfiCond1020) CFA_SP SP+6
        CFI (cfiCond1020) CFA_Y Y+19
        CFI Block cfiPicker1021 Using cfiCommon1
        CFI (cfiPicker1021) NoFunction
        CFI (cfiPicker1021) Picker
        CALL	mov_lf
        LDI	R16, 62
        CALL	s_port
        CBI	0x02, 0x04
        RET
        CFI EndBlock cfiCond1019
        CFI EndBlock cfiCond1020
        CFI EndBlock cfiPicker1021

        RSEG FARCODE:CODE:NOROOT(1)
?Subroutine101:
        CFI Block cfiCond1022 Using cfiCommon0
        CFI NoFunction
        CFI Conditional ??CrossCallReturnLabel_124
        CFI R24 Frame(CFA_Y, -6)
        CFI R25 Frame(CFA_Y, -5)
        CFI R26 Frame(CFA_Y, -4)
        CFI R27 Frame(CFA_Y, -3)
        CFI R4 Frame(CFA_Y, -2)
        CFI R5 Frame(CFA_Y, -1)
        CFI CFA_SP SP+6
        CFI CFA_Y Y+19
        CFI Block cfiCond1023 Using cfiCommon0
        CFI (cfiCond1023) NoFunction
        CFI (cfiCond1023) Conditional ??CrossCallReturnLabel_125
        CFI (cfiCond1023) R24 Frame(CFA_Y, -6)
        CFI (cfiCond1023) R25 Frame(CFA_Y, -5)
        CFI (cfiCond1023) R26 Frame(CFA_Y, -4)
        CFI (cfiCond1023) R27 Frame(CFA_Y, -3)
        CFI (cfiCond1023) R4 Frame(CFA_Y, -2)
        CFI (cfiCond1023) R5 Frame(CFA_Y, -1)
        CFI (cfiCond1023) CFA_SP SP+6
        CFI (cfiCond1023) CFA_Y Y+19
        CFI Block cfiPicker1024 Using cfiCommon1
        CFI (cfiPicker1024) NoFunction
        CFI (cfiPicker1024) Picker
        CALL	mov_lf
        LDI	R16, 62
        CALL	s_port
        SBI	0x02, 0x04
        RET
        CFI EndBlock cfiCond1022
        CFI EndBlock cfiCond1023
        CFI EndBlock cfiPicker1024

        RSEG FARCODE:CODE:NOROOT(1)
?Subroutine71:
        CFI Block cfiCond1025 Using cfiCommon0
        CFI NoFunction
        CFI Conditional ??CrossCallReturnLabel_80
        CFI R24 Frame(CFA_Y, -5)
        CFI R25 Frame(CFA_Y, -4)
        CFI R26 Frame(CFA_Y, -3)
        CFI R27 Frame(CFA_Y, -2)
        CFI R4 Frame(CFA_Y, -1)
        CFI CFA_SP SP+6
        CFI CFA_Y Y+90
        CFI Block cfiCond1026 Using cfiCommon0
        CFI (cfiCond1026) NoFunction
        CFI (cfiCond1026) Conditional ??CrossCallReturnLabel_81
        CFI (cfiCond1026) R24 Frame(CFA_Y, -6)
        CFI (cfiCond1026) R25 Frame(CFA_Y, -5)
        CFI (cfiCond1026) R26 Frame(CFA_Y, -4)
        CFI (cfiCond1026) R27 Frame(CFA_Y, -3)
        CFI (cfiCond1026) R4 Frame(CFA_Y, -2)
        CFI (cfiCond1026) R5 Frame(CFA_Y, -1)
        CFI (cfiCond1026) CFA_SP SP+6
        CFI (cfiCond1026) CFA_Y Y+21
        CFI Block cfiPicker1027 Using cfiCommon1
        CFI (cfiPicker1027) NoFunction
        CFI (cfiPicker1027) Picker
        MOVW	R17:R16, R29:R28
        SUBI	R16, 254
        SBCI	R17, 255
        CALL	sprintf
        ADIW	R29:R28, 2
        CFI (cfiCond1025) CFA_Y Y+88
        CFI (cfiCond1026) CFA_Y Y+19
        RET
        CFI EndBlock cfiCond1025
        CFI EndBlock cfiCond1026
        CFI EndBlock cfiPicker1027

        RSEG FARCODE:CODE:NOROOT(1)
?Subroutine70:
        CFI Block cfiCond1028 Using cfiCommon0
        CFI NoFunction
        CFI Conditional ??CrossCallReturnLabel_79
        CFI R24 Frame(CFA_Y, -5)
        CFI R25 Frame(CFA_Y, -4)
        CFI R26 Frame(CFA_Y, -3)
        CFI R27 Frame(CFA_Y, -2)
        CFI R4 Frame(CFA_Y, -1)
        CFI CFA_SP SP+6
        CFI CFA_Y Y+88
        CFI Block cfiCond1029 Using cfiCommon0
        CFI (cfiCond1029) NoFunction
        CFI (cfiCond1029) Conditional ??CrossCallReturnLabel_78
        CFI (cfiCond1029) R24 Frame(CFA_Y, -6)
        CFI (cfiCond1029) R25 Frame(CFA_Y, -5)
        CFI (cfiCond1029) R26 Frame(CFA_Y, -4)
        CFI (cfiCond1029) R27 Frame(CFA_Y, -3)
        CFI (cfiCond1029) R4 Frame(CFA_Y, -2)
        CFI (cfiCond1029) R5 Frame(CFA_Y, -1)
        CFI (cfiCond1029) CFA_SP SP+6
        CFI (cfiCond1029) CFA_Y Y+19
        CFI Block cfiPicker1030 Using cfiCommon1
        CFI (cfiPicker1030) NoFunction
        CFI (cfiPicker1030) Picker
        MOVW	R17:R16, R29:R28
        CALL	strlen
        MOVW	R19:R18, R29:R28
        JMP	mov_massiv
        CFI EndBlock cfiCond1028
        CFI EndBlock cfiCond1029
        CFI EndBlock cfiPicker1030

        RSEG FARCODE:CODE:NOROOT(1)
?Subroutine49:
        CFI Block cfiCond1031 Using cfiCommon0
        CFI NoFunction
        CFI Conditional ??CrossCallReturnLabel_469
        CFI R24 Frame(CFA_Y, -5)
        CFI R25 Frame(CFA_Y, -4)
        CFI R26 Frame(CFA_Y, -3)
        CFI R27 Frame(CFA_Y, -2)
        CFI R4 Frame(CFA_Y, -1)
        CFI CFA_SP SP+6
        CFI CFA_Y Y+88
        CFI Block cfiCond1032 Using cfiCommon0
        CFI (cfiCond1032) NoFunction
        CFI (cfiCond1032) Conditional ??CrossCallReturnLabel_468
        CFI (cfiCond1032) R24 Frame(CFA_Y, -6)
        CFI (cfiCond1032) R25 Frame(CFA_Y, -5)
        CFI (cfiCond1032) R26 Frame(CFA_Y, -4)
        CFI (cfiCond1032) R27 Frame(CFA_Y, -3)
        CFI (cfiCond1032) R4 Frame(CFA_Y, -2)
        CFI (cfiCond1032) R5 Frame(CFA_Y, -1)
        CFI (cfiCond1032) CFA_SP SP+6
        CFI (cfiCond1032) CFA_Y Y+19
        CFI Block cfiPicker1033 Using cfiCommon1
        CFI (cfiPicker1033) NoFunction
        CFI (cfiPicker1033) Picker
        LDD	R16, Z+32
        LDD	R17, Z+33
        ST	-Y, R17
        CFI (cfiCond1031) CFA_Y Y+89
        CFI (cfiCond1032) CFA_Y Y+20
        ST	-Y, R16
        CFI (cfiCond1031) CFA_Y Y+90
        CFI (cfiCond1032) CFA_Y Y+21
        LDI	R18, LOW((`?<Constant "%hhi\\000">` + 15))
        LDI	R19, HIGH((`?<Constant "%hhi\\000">` + 15))
        CFI Block cfiCond1034 Using cfiCommon0
        CFI (cfiCond1034) NoFunction
        CFI (cfiCond1034) Conditional ??CrossCallReturnLabel_467
        CFI (cfiCond1034) R24 Frame(CFA_Y, -5)
        CFI (cfiCond1034) R25 Frame(CFA_Y, -4)
        CFI (cfiCond1034) R26 Frame(CFA_Y, -3)
        CFI (cfiCond1034) R27 Frame(CFA_Y, -2)
        CFI (cfiCond1034) R4 Frame(CFA_Y, -1)
        CFI (cfiCond1034) CFA_SP SP+6
        CFI (cfiCond1034) CFA_Y Y+90
??Subroutine49_0:
        MOVW	R17:R16, R29:R28
        SUBI	R16, 254
        SBCI	R17, 255
        CALL	sprintf
        ADIW	R29:R28, 2
        CFI (cfiCond1031) CFA_Y Y+88
        CFI (cfiCond1032) CFA_Y Y+19
        CFI (cfiCond1034) CFA_Y Y+88
        CFI Block cfiCond1035 Using cfiCommon0
        CFI (cfiCond1035) NoFunction
        CFI (cfiCond1035) Conditional ??CrossCallReturnLabel_466
        CFI (cfiCond1035) R24 Frame(CFA_Y, -5)
        CFI (cfiCond1035) R25 Frame(CFA_Y, -4)
        CFI (cfiCond1035) R26 Frame(CFA_Y, -3)
        CFI (cfiCond1035) R27 Frame(CFA_Y, -2)
        CFI (cfiCond1035) R4 Frame(CFA_Y, -1)
        CFI (cfiCond1035) CFA_SP SP+6
        CFI (cfiCond1035) CFA_Y Y+88
??Subroutine49_1:
        MOVW	R17:R16, R29:R28
        CALL	strlen
        MOVW	R19:R18, R29:R28
        CALL	mov_massiv
        CFI Block cfiCond1036 Using cfiCommon0
        CFI (cfiCond1036) NoFunction
        CFI (cfiCond1036) Conditional ??CrossCallReturnLabel_465
        CFI (cfiCond1036) R24 Frame(CFA_Y, -5)
        CFI (cfiCond1036) R25 Frame(CFA_Y, -4)
        CFI (cfiCond1036) R26 Frame(CFA_Y, -3)
        CFI (cfiCond1036) R27 Frame(CFA_Y, -2)
        CFI (cfiCond1036) R4 Frame(CFA_Y, -1)
        CFI (cfiCond1036) CFA_SP SP+6
        CFI (cfiCond1036) CFA_Y Y+88
        CFI Block cfiCond1037 Using cfiCommon0
        CFI (cfiCond1037) NoFunction
        CFI (cfiCond1037) Conditional ??CrossCallReturnLabel_464
        CFI (cfiCond1037) R24 Frame(CFA_Y, -6)
        CFI (cfiCond1037) R25 Frame(CFA_Y, -5)
        CFI (cfiCond1037) R26 Frame(CFA_Y, -4)
        CFI (cfiCond1037) R27 Frame(CFA_Y, -3)
        CFI (cfiCond1037) R4 Frame(CFA_Y, -2)
        CFI (cfiCond1037) R5 Frame(CFA_Y, -1)
        CFI (cfiCond1037) CFA_SP SP+6
        CFI (cfiCond1037) CFA_Y Y+19
??Subroutine49_2:
        LDI	R16, 32
        RJMP	??Subroutine167_0
        CFI EndBlock cfiCond1031
        CFI EndBlock cfiCond1032
        CFI EndBlock cfiPicker1033
        CFI EndBlock cfiCond1034
        CFI EndBlock cfiCond1035
        CFI EndBlock cfiCond1036
        CFI EndBlock cfiCond1037

        RSEG FARCODE:CODE:NOROOT(1)
?Subroutine48:
        CFI Block cfiCond1038 Using cfiCommon0
        CFI NoFunction
        CFI Conditional ??CrossCallReturnLabel_463
        CFI R24 Frame(CFA_Y, -6)
        CFI R25 Frame(CFA_Y, -5)
        CFI R26 Frame(CFA_Y, -4)
        CFI R27 Frame(CFA_Y, -3)
        CFI R4 Frame(CFA_Y, -2)
        CFI R5 Frame(CFA_Y, -1)
        CFI CFA_SP SP+6
        CFI CFA_Y Y+19
        CFI Block cfiCond1039 Using cfiCommon0
        CFI (cfiCond1039) NoFunction
        CFI (cfiCond1039) Conditional ??CrossCallReturnLabel_462
        CFI (cfiCond1039) R24 Frame(CFA_Y, -6)
        CFI (cfiCond1039) R25 Frame(CFA_Y, -5)
        CFI (cfiCond1039) R26 Frame(CFA_Y, -4)
        CFI (cfiCond1039) R27 Frame(CFA_Y, -3)
        CFI (cfiCond1039) R4 Frame(CFA_Y, -2)
        CFI (cfiCond1039) R5 Frame(CFA_Y, -1)
        CFI (cfiCond1039) CFA_SP SP+6
        CFI (cfiCond1039) CFA_Y Y+19
        CFI Block cfiCond1040 Using cfiCommon0
        CFI (cfiCond1040) NoFunction
        CFI (cfiCond1040) Conditional ??CrossCallReturnLabel_461
        CFI (cfiCond1040) R24 Frame(CFA_Y, -6)
        CFI (cfiCond1040) R25 Frame(CFA_Y, -5)
        CFI (cfiCond1040) R26 Frame(CFA_Y, -4)
        CFI (cfiCond1040) R27 Frame(CFA_Y, -3)
        CFI (cfiCond1040) R4 Frame(CFA_Y, -2)
        CFI (cfiCond1040) R5 Frame(CFA_Y, -1)
        CFI (cfiCond1040) CFA_SP SP+6
        CFI (cfiCond1040) CFA_Y Y+19
        CFI Block cfiCond1041 Using cfiCommon0
        CFI (cfiCond1041) NoFunction
        CFI (cfiCond1041) Conditional ??CrossCallReturnLabel_460
        CFI (cfiCond1041) R24 Frame(CFA_Y, -6)
        CFI (cfiCond1041) R25 Frame(CFA_Y, -5)
        CFI (cfiCond1041) R26 Frame(CFA_Y, -4)
        CFI (cfiCond1041) R27 Frame(CFA_Y, -3)
        CFI (cfiCond1041) R4 Frame(CFA_Y, -2)
        CFI (cfiCond1041) R5 Frame(CFA_Y, -1)
        CFI (cfiCond1041) CFA_SP SP+6
        CFI (cfiCond1041) CFA_Y Y+19
        CFI Block cfiPicker1042 Using cfiCommon1
        CFI (cfiPicker1042) NoFunction
        CFI (cfiPicker1042) Picker
        LDI	R16, 32
        CALL	s_port
        LDI	R16, 79
        CALL	s_port
        LDI	R16, 75
        RJMP	??Subroutine167_0
        CFI EndBlock cfiCond1038
        CFI EndBlock cfiCond1039
        CFI EndBlock cfiCond1040
        CFI EndBlock cfiCond1041
        CFI EndBlock cfiPicker1042

        RSEG FARCODE:CODE:NOROOT(1)
?Subroutine40:
        CFI Block cfiCond1043 Using cfiCommon0
        CFI NoFunction
        CFI Conditional ??CrossCallReturnLabel_47
        CFI R24 Frame(CFA_Y, -4)
        CFI R25 Frame(CFA_Y, -3)
        CFI R26 Frame(CFA_Y, -2)
        CFI R27 Frame(CFA_Y, -1)
        CFI CFA_SP SP+6
        CFI CFA_Y Y+6
        CFI Block cfiCond1044 Using cfiCommon0
        CFI (cfiCond1044) NoFunction
        CFI (cfiCond1044) Conditional ??CrossCallReturnLabel_48
        CFI (cfiCond1044) R24 Frame(CFA_Y, -4)
        CFI (cfiCond1044) R25 Frame(CFA_Y, -3)
        CFI (cfiCond1044) R26 Frame(CFA_Y, -2)
        CFI (cfiCond1044) R27 Frame(CFA_Y, -1)
        CFI (cfiCond1044) CFA_SP SP+6
        CFI (cfiCond1044) CFA_Y Y+6
        CFI Block cfiCond1045 Using cfiCommon0
        CFI (cfiCond1045) NoFunction
        CFI (cfiCond1045) Conditional ??CrossCallReturnLabel_49
        CFI (cfiCond1045) R24 Frame(CFA_Y, -4)
        CFI (cfiCond1045) R25 Frame(CFA_Y, -3)
        CFI (cfiCond1045) R26 Frame(CFA_Y, -2)
        CFI (cfiCond1045) R27 Frame(CFA_Y, -1)
        CFI (cfiCond1045) CFA_SP SP+6
        CFI (cfiCond1045) CFA_Y Y+6
        CFI Block cfiCond1046 Using cfiCommon0
        CFI (cfiCond1046) NoFunction
        CFI (cfiCond1046) Conditional ??CrossCallReturnLabel_50
        CFI (cfiCond1046) R24 Frame(CFA_Y, -6)
        CFI (cfiCond1046) R25 Frame(CFA_Y, -5)
        CFI (cfiCond1046) R26 Frame(CFA_Y, -4)
        CFI (cfiCond1046) R27 Frame(CFA_Y, -3)
        CFI (cfiCond1046) R4 Frame(CFA_Y, -2)
        CFI (cfiCond1046) R5 Frame(CFA_Y, -1)
        CFI (cfiCond1046) CFA_SP SP+6
        CFI (cfiCond1046) CFA_Y Y+19
        CFI Block cfiPicker1047 Using cfiCommon1
        CFI (cfiPicker1047) NoFunction
        CFI (cfiPicker1047) Picker
        MOVW	R31:R30, R27:R26
        LDD	R16, Z+1
        RET
        CFI EndBlock cfiCond1043
        CFI EndBlock cfiCond1044
        CFI EndBlock cfiCond1045
        CFI EndBlock cfiCond1046
        CFI EndBlock cfiPicker1047

        RSEG FARCODE:CODE:NOROOT(1)
?Subroutine37:
        CFI Block cfiCond1048 Using cfiCommon0
        CFI NoFunction
        CFI Conditional ??CrossCallReturnLabel_42
        CFI R24 Frame(CFA_Y, -6)
        CFI R25 Frame(CFA_Y, -5)
        CFI R26 Frame(CFA_Y, -4)
        CFI R27 Frame(CFA_Y, -3)
        CFI R4 Frame(CFA_Y, -2)
        CFI R5 Frame(CFA_Y, -1)
        CFI CFA_SP SP+6
        CFI CFA_Y Y+19
        CFI Block cfiCond1049 Using cfiCommon0
        CFI (cfiCond1049) NoFunction
        CFI (cfiCond1049) Conditional ??CrossCallReturnLabel_43
        CFI (cfiCond1049) R24 Frame(CFA_Y, -6)
        CFI (cfiCond1049) R25 Frame(CFA_Y, -5)
        CFI (cfiCond1049) R26 Frame(CFA_Y, -4)
        CFI (cfiCond1049) R27 Frame(CFA_Y, -3)
        CFI (cfiCond1049) R4 Frame(CFA_Y, -2)
        CFI (cfiCond1049) R5 Frame(CFA_Y, -1)
        CFI (cfiCond1049) CFA_SP SP+6
        CFI (cfiCond1049) CFA_Y Y+19
        CFI Block cfiPicker1050 Using cfiCommon1
        CFI (cfiPicker1050) NoFunction
        CFI (cfiPicker1050) Picker
        SBI	0x02, 0x03
        CFI Block cfiCond1051 Using cfiCommon0
        CFI (cfiCond1051) NoFunction
        CFI (cfiCond1051) Conditional ??CrossCallReturnLabel_44
        CFI (cfiCond1051) R24 Frame(CFA_Y, -6)
        CFI (cfiCond1051) R25 Frame(CFA_Y, -5)
        CFI (cfiCond1051) R26 Frame(CFA_Y, -4)
        CFI (cfiCond1051) R27 Frame(CFA_Y, -3)
        CFI (cfiCond1051) R4 Frame(CFA_Y, -2)
        CFI (cfiCond1051) R5 Frame(CFA_Y, -1)
        CFI (cfiCond1051) CFA_SP SP+6
        CFI (cfiCond1051) CFA_Y Y+19
??Subroutine37_0:
        LDI	R16, 232
        LDI	R17, 3
        MOVW	R31:R30, R27:R26
        STD	Z+2, R16
        STD	Z+3, R17
        RET
        CFI EndBlock cfiCond1048
        CFI EndBlock cfiCond1049
        CFI EndBlock cfiPicker1050
        CFI EndBlock cfiCond1051

        ASEGN ABSOLUTE:DATA:NOROOT,01fH
__?EECR:

        ASEGN ABSOLUTE:DATA:NOROOT,020H
__?EEDR:

        ASEGN ABSOLUTE:DATA:NOROOT,021H
__?EEARL:

        ASEGN ABSOLUTE:DATA:NOROOT,022H
__?EEARH:

        RSEG NEAR_ID:CODE:NOROOT(0)
`?<Initializer for <Constant "%hhi\\000">>`:
        DB 25H, 68H, 68H, 69H, 0, 0
`?<Initializer for <Constant "%lu\\000">>`:
        DB 25H, 6CH, 75H, 0, 0
`?<Initializer for <Constant "%d\\000">>`:
        DB 25H, 64H, 0, 0
`?<Initializer for <Constant "%u\\000">>`:
        DB 25H, 75H, 0, 0

        RSEG INITTAB:CODE:NOROOT(0)
`?<Segment init: NEAR_I>`:
        DW	SFE(NEAR_I) - SFB(NEAR_I)
        DW	SFB(NEAR_I)
        DP	SFB(NEAR_ID)
        REQUIRE ?need_segment_init

        RSEG INITTAB:CODE:NOROOT(0)
`?<Segment init: NEAR_Z>`:
        DW	SFE(NEAR_Z) - SFB(NEAR_Z)
        DW	SFB(NEAR_Z)
        DP	0
        REQUIRE ?need_segment_init

        RSEG SWITCH:CODE:NOROOT(1)
`?<Jumptable for read_menu>_0`:
        DB	1
        DB	0
        DP	(??read_menu_1) /2
        DW	40
        DP	(??read_menu_3) /2
        DP	(??read_menu_5) /2
        DP	(??read_menu_6) /2
        DP	(??read_menu_16) /2
        DP	(??read_menu_17) /2
        DP	(??read_menu_19) /2
        DP	(??read_menu_22) /2
        DP	(??read_menu_23) /2
        DP	(??read_menu_24) /2
        DP	(??read_menu_25) /2
        DP	(??read_menu_26) /2
        DP	(??read_menu_27) /2
        DP	(??read_menu_28) /2
        DP	(??read_menu_30) /2
        DP	(??read_menu_33) /2
        DP	(??read_menu_35) /2
        DP	(??read_menu_36) /2
        DP	(??read_menu_37) /2
        DP	(??read_menu_39) /2
        DP	(??read_menu_40) /2
        DP	(??read_menu_41) /2
        DP	(??read_menu_43) /2
        DP	(??read_menu_44) /2
        DP	(??read_menu_45) /2
        DP	(??CrossCallReturnLabel_149) /2
        DP	(??read_menu_50) /2
        DP	(??read_menu_51) /2
        DP	(??read_menu_52) /2
        DP	(??read_menu_53) /2
        DP	(??read_menu_55) /2
        DP	(??read_menu_58) /2
        DP	(??read_menu_60) /2
        DP	(??read_menu_61) /2
        DP	(??read_menu_62) /2
        DP	(??read_menu_66) /2
        DP	(??read_menu_67) /2
        DP	(??read_menu_70) /2
        DP	(??read_menu_71) /2
        DP	(??read_menu_73) /2
        DP	(??read_menu_15) /2
        DB	0

        RSEG SWITCH:CODE:NOROOT(1)
`?<Jumptable for write_menu>_0`:
        DB	1
        DB	0
        DP	(??write_menu_3) /2
        DW	40
        DP	(??write_menu_0) /2
        DP	(??write_menu_3) /2
        DP	(??write_menu_2) /2
        DP	(??write_menu_13) /2
        DP	(??write_menu_18) /2
        DP	(??write_menu_20) /2
        DP	(??write_menu_21) /2
        DP	(??write_menu_25) /2
        DP	(??write_menu_27) /2
        DP	(??write_menu_28) /2
        DP	(??write_menu_29) /2
        DP	(??write_menu_30) /2
        DP	(??write_menu_32) /2
        DP	(??write_menu_33) /2
        DP	(??write_menu_36) /2
        DP	(??write_menu_37) /2
        DP	(??write_menu_38) /2
        DP	(??write_menu_39) /2
        DP	(??write_menu_40) /2
        DP	(??write_menu_41) /2
        DP	(??write_menu_42) /2
        DP	(??write_menu_48) /2
        DP	(??write_menu_55) /2
        DP	(??write_menu_61) /2
        DP	(??write_menu_3) /2
        DP	(??write_menu_62) /2
        DP	(??write_menu_63) /2
        DP	(??write_menu_67) /2
        DP	(??write_menu_68) /2
        DP	(??write_menu_71) /2
        DP	(??write_menu_73) /2
        DP	(??write_menu_78) /2
        DP	(??write_menu_83) /2
        DP	(??write_menu_3) /2
        DP	(??write_menu_3) /2
        DP	(??write_menu_85) /2
        DP	(??write_menu_91) /2
        DP	(??write_menu_92) /2
        DP	(??write_menu_1) /2
        DP	(??write_menu_94) /2
        DB	0

        RSEG NEAR_I:DATA:NOROOT(0)
        REQUIRE `?<Segment init: NEAR_I>`
`?<Constant "%hhi\\000">`:
        DS 6
        REQUIRE `?<Initializer for <Constant "%hhi\\000">>`
        DS 5
        REQUIRE `?<Initializer for <Constant "%lu\\000">>`
        DS 4
        REQUIRE `?<Initializer for <Constant "%d\\000">>`
        DS 4
        REQUIRE `?<Initializer for <Constant "%u\\000">>`

        END
// 2756 #endif
// 
//    24 bytes in segment ABSOLUTE
//     2 bytes in segment EEPROM_AN
// 7 290 bytes in segment FARCODE
//    14 bytes in segment INITTAB
//   786 bytes in segment NEAR_F
//    19 bytes in segment NEAR_I
//    19 bytes in segment NEAR_ID
//    30 bytes in segment NEAR_Z
//   256 bytes in segment SWITCH
// 
// 8 339 bytes of CODE  memory (+ 26 bytes shared)
//    49 bytes of DATA  memory (+ 24 bytes shared)
//     0 bytes of XDATA memory (+  2 bytes shared)
//
//Errors: none
//Warnings: none
