//////////////////////////////////////////////////////////////////////////////
//                                                                           /
//                                                     19/Nov/2007  12:15:48 /
// IAR Atmel AVR C/C++ Compiler V4.12A/W32, Evaluation Version               /
// Copyright 1996-2005 IAR Systems. All rights reserved.                     /
//                                                                           /
//    Source file  =  D:\PRJIAR\NSS_BETA\ldterm.c                            /
//    Command line =  D:\PRJIAR\NSS_BETA\ldterm.c --cpu=m1280 -ms -o         /
//                    D:\PRJIAR\NSS_BETA\Debug\Obj\ -lCN                     /
//                    D:\PRJIAR\NSS_BETA\Debug\List\ -lA                     /
//                    D:\PRJIAR\NSS_BETA\Debug\List\ -y                      /
//                    --initializers_in_flash -z6 --no_inline                /
//                    --no_cross_call --no_tbaa --debug -e -I "D:\Program    /
//                    Files\IAR Systems\Embedded Workbench 4.0               /
//                    Evaluation\avr\INC\" -I "D:\Program Files\IAR          /
//                    Systems\Embedded Workbench 4.0                         /
//                    Evaluation\avr\INC\DLIB\" --eeprom_size 4096           /
//                    --dlib_config "D:\Program Files\IAR Systems\Embedded   /
//                    Workbench 4.0 Evaluation\avr\LIB\DLIB\dlAVR-3s-ec-n.h" /
//    List file    =  D:\PRJIAR\NSS_BETA\Debug\List\ldterm.s90               /
//                                                                           /
//                                                                           /
//////////////////////////////////////////////////////////////////////////////

        NAME ldterm

        RTMODEL "__64bit_doubles", "disabled"
        RTMODEL "__cpu", "3"
        RTMODEL "__cpu_name", "ATmega1280"
        RTMODEL "__dlib_file_descriptor", "0"
        RTMODEL "__enhanced_core", "enabled"
        RTMODEL "__has_elpm", "true"
        RTMODEL "__memory_model", "2"
        RTMODEL "__no_rampd", "enabled"
        RTMODEL "__rt_version", "3"

        RSEG CSTACK:DATA:NOROOT(0)
        RSEG RSTACK:DATA:NOROOT(0)

        EXTERN ?CV_SWITCH_L06
        EXTERN ?EPILOGUE_B4_L09
        EXTERN ?EPILOGUE_B8_L09
        EXTERN ?L_EC_MUL_L03
        EXTERN ?PROLOGUE4_L09
        EXTERN ?PROLOGUE8_L09
        EXTERN ?Register_R4_is_cg_reg
        EXTERN ?Register_R5_is_cg_reg
        EXTERN ?Register_R6_is_cg_reg
        EXTERN ?Register_R7_is_cg_reg
        EXTERN ?need_segment_init
        EXTERN __eeget8_16
        EXTERN __eeput8_16

        PUBWEAK `?<Segment init: NEAR_I>`
        PUBWEAK `?<Segment init: NEAR_Z>`
        PUBLIC Regim
        PUBWEAK _A_PINB
        PUBWEAK _A_PORTC
        PUBWEAK _A_PORTG
        PUBWEAK _A_UBRR2
        PUBWEAK _A_UCSR0B
        PUBWEAK _A_UCSR2B
        PUBWEAK _A_WDTCSR
        PUBWEAK __?EEARH
        PUBWEAK __?EEARL
        PUBWEAK __?EECR
        PUBWEAK __?EEDR
        PUBLIC at_mon_232
        FUNCTION at_mon_232,021203H
        LOCFRAME CSTACK, 4, STACK
        LOCFRAME RSTACK, 2, STACK
        PUBWEAK atol
        FUNCTION atol,031203H
        LOCFRAME RSTACK, 2, STACK
        PUBLIC check_keys
        FUNCTION check_keys,021203H
        LOCFRAME CSTACK, 4, STACK
        LOCFRAME RSTACK, 2, STACK
        PUBLIC check_memory_map
        FUNCTION check_memory_map,021203H
        LOCFRAME CSTACK, 74, STACK
        LOCFRAME RSTACK, 2, STACK
        PUBLIC def_apn
        PUBLIC def_apn1
        PUBLIC def_apn2
        PUBLIC def_apn3
        PUBLIC def_apnr
        PUBLIC def_usname
        PUBLIC def_usname1
        PUBLIC def_usname2
        PUBLIC def_usname3
        PUBLIC def_usnamer
        PUBLIC def_uspsw
        PUBLIC def_uspsw1
        PUBLIC def_uspsw2
        PUBLIC def_uspsw3
        PUBLIC def_uspswr
        PUBWEAK e_debug
        PUBWEAK e_first_on
        PUBLIC err_t
        PUBLIC fl_at_mom_232
        PUBLIC index_pa
        PUBLIC keys
        PUBLIC keys_def
        PUBLIC load_par_first
        FUNCTION load_par_first,021203H
        LOCFRAME RSTACK, 4, STACK
        PUBLIC map_vers
        PUBLIC monitor_terminal
        FUNCTION monitor_terminal,021203H
        LOCFRAME CSTACK, 4, STACK
        LOCFRAME RSTACK, 2, STACK
        PUBLIC mov_massiv
        FUNCTION mov_massiv,021203H
        LOCFRAME CSTACK, 4, STACK
        LOCFRAME RSTACK, 2, STACK
        PUBLIC ok_t
        PUBLIC ozu_vers
        PUBLIC read_menu
        FUNCTION read_menu,021203H
        LOCFRAME CSTACK, 84, STACK
        LOCFRAME RSTACK, 4, STACK
        PUBLIC ret_version
        FUNCTION ret_version,0203H
        LOCFRAME RSTACK, 2, STACK
        PUBLIC versia
        PUBLIC vosstan_memory
        FUNCTION vosstan_memory,021203H
        LOCFRAME CSTACK, 72, STACK
        LOCFRAME RSTACK, 2, STACK
        PUBLIC write_menu
        FUNCTION write_menu,021203H
        LOCFRAME CSTACK, 82, STACK
        LOCFRAME RSTACK, 4, STACK
        PUBLIC zp_date
        PUBLIC zp_dbg
        PUBLIC zp_des_seq
        PUBLIC zp_keys
        PUBLIC zp_link
        PUBLIC zp_log_file
        PUBLIC zp_nat
        PUBLIC zp_nat_r
        PUBLIC zp_num
        PUBLIC zp_num_seq
        PUBLIC zp_temp
        PUBLIC zp_time
        PUBLIC zp_tm_cl
        PUBLIC zp_tm_link
        PUBLIC zp_tm_link_res
        PUBLIC zp_tm_no_link
        PUBLIC zp_tm_vz
        PUBLIC zp_ts1
        PUBLIC zp_type_tc1
        PUBLIC zp_type_tc2
        PUBLIC zp_udp
        PUBLIC zp_vosst
        
        CFI Names cfiNames0
        CFI StackFrame CFA_Y Y DATA
        CFI StackFrame CFA_SP SP DATA
        CFI VirtualResource ?RetPad:1, ?RetHigh:8, ?RetLow:8, ?Ret:17
        CFI Resource R0:8, R1:8, R2:8, R3:8, R4:8, R5:8, R6:8, R7:8, R8:8, R9:8
        CFI Resource R10:8, R11:8, R12:8, R13:8, R14:8, R15:8, R16:8, R17:8
        CFI Resource R18:8, R19:8, R20:8, R21:8, R22:8, R23:8, R24:8, R25:8
        CFI Resource R26:8, R27:8, R28:8, R29:8, R30:8, R31:8
        CFI Resource ?RetHighByteMask:8, SP:16, SPH:8, SPL:8, Y:16
        CFI ResourceParts ?Ret ?RetHigh, ?RetLow, ?RetPad
        CFI ResourceParts SP SPH, SPL
        CFI ResourceParts Y R29, R28
        CFI EndNames cfiNames0
        
        CFI Common cfiCommon0 Using cfiNames0
        CFI CodeAlign 1
        CFI DataAlign 1
        CFI ReturnAddress ?Ret CODE
        CFI CFA_Y Y+0
        CFI CFA_SP SP+2
        CFI ?RetPad 0
        CFI ?RetHigh and(load(1, DATA, sub(CFA_SP, 1)), ?RetHighByteMask)
        CFI ?RetLow Frame(CFA_SP, 0)
        CFI ?Ret Concat
        CFI R0 Undefined
        CFI R1 Undefined
        CFI R2 Undefined
        CFI R3 Undefined
        CFI R4 SameValue
        CFI R5 SameValue
        CFI R6 SameValue
        CFI R7 SameValue
        CFI R8 SameValue
        CFI R9 SameValue
        CFI R10 SameValue
        CFI R11 SameValue
        CFI R12 SameValue
        CFI R13 SameValue
        CFI R14 SameValue
        CFI R15 SameValue
        CFI R16 Undefined
        CFI R17 Undefined
        CFI R18 Undefined
        CFI R19 Undefined
        CFI R20 Undefined
        CFI R21 Undefined
        CFI R22 Undefined
        CFI R23 Undefined
        CFI R24 SameValue
        CFI R25 SameValue
        CFI R26 SameValue
        CFI R27 SameValue
        CFI R28 Undefined
        CFI R29 Undefined
        CFI R30 Undefined
        CFI R31 Undefined
        CFI ?RetHighByteMask SameValue
        CFI SPH Undefined
        CFI SPL Undefined
        CFI EndCommon cfiCommon0
        
        EXTERN _Stoul
        FUNCTION _Stoul,010202H
        EXTERN crc_m1
        FUNCTION crc_m1,0202H
        EXTERN WrArrayToFlesh
        FUNCTION WrArrayToFlesh,0202H
        EXTERN RdFromFleshToArr
        FUNCTION RdFromFleshToArr,0202H
        EXTERN s_port
        FUNCTION s_port,0202H
        EXTERN memset
        FUNCTION memset,010202H
        EXTERN mov_lf
        FUNCTION mov_lf,0202H
        EXTERN mov_s
        FUNCTION mov_s,0202H
        EXTERN sprintf
        FUNCTION sprintf,010202H
        EXTERN strlen
        FUNCTION strlen,010202H
        EXTERN burst_ds_r
        FUNCTION burst_ds_r,0202H
        EXTERN set_rlt
        FUNCTION set_rlt,0202H
        EXTERN delay
        FUNCTION delay,0202H
        EXTERN control_temperatura
        FUNCTION control_temperatura,0202H
        EXTERN lock_it
        FUNCTION lock_it,0202H
        EXTERN buf_tx_232
        EXTERN point_log_buf
        EXTERN real_time
        EXTERN struct_tcc1
        EXTERN struct_tcc2
        EXTERN temperatura
        EXTERN vol_tx_ppp

// D:\PRJIAR\NSS_BETA\ldterm.c
//    1 #include <iom1280.h>

        ASEGN ABSOLUTE:DATA:NOROOT,0d4H
// union <unnamed> volatile __io _A_UBRR2
_A_UBRR2:
        DS 2

        ASEGN ABSOLUTE:DATA:NOROOT,0d1H
// union <unnamed> volatile __io _A_UCSR2B
_A_UCSR2B:
        DS 1

        ASEGN ABSOLUTE:DATA:NOROOT,0c1H
// union <unnamed> volatile __io _A_UCSR0B
_A_UCSR0B:
        DS 1

        ASEGN ABSOLUTE:DATA:NOROOT,060H
// union <unnamed> volatile __io _A_WDTCSR
_A_WDTCSR:
        DS 1

        ASEGN ABSOLUTE:DATA:NOROOT,034H
// union <unnamed> volatile __io _A_PORTG
_A_PORTG:
        DS 1

        ASEGN ABSOLUTE:DATA:NOROOT,028H
// union <unnamed> volatile __io _A_PORTC
_A_PORTC:
        DS 1

        ASEGN ABSOLUTE:DATA:NOROOT,023H
// union <unnamed> volatile __io _A_PINB
_A_PINB:
        DS 1
//    2 #include <string.h>
//    3 #include <stdio.h>
//    4 #include <inavr.h>
//    5 #include <stdlib.h>

        RSEG CODE:CODE:NOROOT(1)
// __intrinsic __nearfunc __version_3 long atol(char const *)
atol:
        CFI Block cfiBlock0 Using cfiCommon0
        CFI Function atol
        FUNCALL atol, _Stoul
        LOCFRAME RSTACK, 2, STACK
        LDI	R20, 10
        LDI	R21, 0
        LDI	R18, 0
        LDI	R19, 0
        CALL	_Stoul
        RET
        CFI EndBlock cfiBlock0
//    6 #include "ozu_map.h"
//    7 #include "map_ef.h"
//    8 #include "def_conf.h"
//    9 //#include "def_link.h"
//   10 //#include "def_log.h"
//   11 #include "dfpin.h"
//   12 #include "dfproc.h"
//   13 #include "map_ad.h"
//   14 #include "dfcnst.h"
//   15 
//   16 #define VOL_PUNKT 30 //(ěĺíţ îň 0 äî VOL_PUNKT)  //dobavka
//   17 
//   18 
//   19 #ifdef VERS_BASE
//   20 __flash char ozu_vers[]  =   {'O','K','0','1','.','0','1',':','1','4','0','5','0','7'};
//   21 #endif
//   22 
//   23 #ifdef VERS_LUFKIN
//   24 __flash char ozu_vers[]  =   {'O','K','0','2','.','0','1',':','1','4','0','5','0','7'};
//   25 #endif
//   26 
//   27 #ifdef VERS_UNKNOWN
//   28 __flash char ozu_vers[]  =   {'O','K','0','0','.','0','1',':','1','4','0','5','0','7'};
//   29 #endif
//   30 
//   31 
//   32  #pragma location=FIRST_ON 

        ASEGN EEPROM_AN:XDATA:NOROOT,00H
//   33 __eeprom __no_init unsigned char e_first_on; 
e_first_on:
        DS 1
//   34 
//   35  #pragma location=A_DEBUG 

        ASEGN EEPROM_AN:XDATA:NOROOT,03H
//   36 __eeprom __no_init unsigned char e_debug;
e_debug:
        DS 1

        RSEG NEAR_F:CODE:NOROOT(0)
ozu_vers:
        DB 79, 75, 48, 49, 46, 48, 49, 58, 49, 52, 48, 53, 48, 55
//   37 
//   38 extern unsigned int temperatura;
//   39 
//   40 
//   41 
//   42 extern struct
//   43 {
//   44  
//   45   unsigned char tek_pin :1;
//   46   unsigned char old_pin :1;
//   47   unsigned char fl_ch_tc :1;
//   48   unsigned char real_tc;
//   49   unsigned int count_tc; 
//   50   unsigned char type;
//   51   unsigned char cnt_block_tc;
//   52 }struct_tcc1,struct_tcc2;
//   53 
//   54 
//   55 void control_temperatura(void);
//   56 
//   57 
//   58 unsigned char fl_at_mom_232;
//   59 unsigned char Regim;
//   60 
//   61 extern void WrArrayToFlesh(unsigned int adres_flesh,  unsigned char *adres_ozu, unsigned int num,unsigned char flag,unsigned char znach);   
//   62 extern void RdFromFleshToArr(unsigned int adres_flesh, unsigned char *adres_ozu,unsigned int num);
//   63 
//   64 extern unsigned long int burst_ds_r(void);
//   65 extern void set_rlt(unsigned char address, unsigned char * data);
//   66 
//   67 extern void lock_it(void);
//   68 
//   69 
//   70 
//   71 extern void s_port(unsigned char ch);
//   72 extern void    mov_lf (void);
//   73 extern void    mov_s (char size, char __flash* p);
//   74 
//   75 
//   76 
//   77 extern struct
//   78         { // â äâîč÷íîě ęîäĺ
//   79           char r_sec;
//   80           char r_min;
//   81           char r_hor;
//   82           char r_day;
//   83           char r_date;
//   84           char r_month;
//   85           char r_year;
//   86           char r_control;
//   87         }  real_time;
//   88 
//   89 
//   90 extern unsigned char point_log_buf;
//   91 
//   92 
//   93 __flash char err_t[] = {0xd,0xa,'E','R','R'};
//   94 __flash char ok_t[] = {0xd,0xa,'O','K'};
//   95 
//   96 __flash char map_vers[]  =   {'F','K','0','2','.','0','1',':','2','7','0','9','0','7'};
//   97 __flash char versia[] = {'V','K','0','2','.','0','1',':','1','4','1','1','0','7'};
versia:
        DB 86, 75, 48, 50, 46, 48, 49, 58, 49, 52, 49, 49, 48, 55
//   98 
//   99 __flash char zp_udp[]=        {'U','D','P','p','o','r','t','-','>'};
zp_udp:
        DB 85, 68, 80, 112, 111, 114, 116, 45, 62
//  100 __flash char zp_num[]=        {'N','u','m','-','>'};
zp_num:
        DB 78, 117, 109, 45, 62
//  101 __flash char zp_nat[]=        {'S','e','s',' ','S','I','M','1','-','>'};
zp_nat:
        DB 83, 101, 115, 32, 83, 73, 77, 49, 45, 62
//  102 __flash char zp_nat_r[]=      {'S','e','s',' ','S','I','M','2','-','>'};
zp_nat_r:
        DB 83, 101, 115, 32, 83, 73, 77, 50, 45, 62
//  103 
//  104 __flash char zp_link[]=       {'T','m',' ','c','c','h','-','>'};
zp_link:
        DB 84, 109, 32, 99, 99, 104, 45, 62
//  105 __flash char zp_tm_link[]=    {'T','m',' ','a','n','s','-','>'};
zp_tm_link:
        DB 84, 109, 32, 97, 110, 115, 45, 62
//  106 
//  107 __flash char zp_tm_no_link[]= {'T','m',' ','d','c','n','-','>'};        //!!!!!!!!!!!!!!!!dobavka
zp_tm_no_link:
        DB 84, 109, 32, 100, 99, 110, 45, 62
//  108 __flash char zp_tm_link_res[]={'T','m',' ','r','e','s','-','>'};    //!!!!!!!!!!!!!!!!dobavka
zp_tm_link_res:
        DB 84, 109, 32, 114, 101, 115, 45, 62
//  109 
//  110 __flash char zp_tm_vz[]=      {'T','m',' ','t','a','k','e','-','>'};
zp_tm_vz:
        DB 84, 109, 32, 116, 97, 107, 101, 45, 62
//  111 __flash char zp_tm_cl[]=      {'T','m',' ','c','l','-','>'};
zp_tm_cl:
        DB 84, 109, 32, 99, 108, 45, 62
//  112 __flash char zp_num_seq[]=    {'C','l',' ','m','s','q','-','>'};
zp_num_seq:
        DB 67, 108, 32, 109, 115, 113, 45, 62
//  113 __flash char zp_des_seq[]=    {'D','e','s',' ','m','s','g','-','>'};
zp_des_seq:
        DB 68, 101, 115, 32, 109, 115, 103, 45, 62
//  114 
//  115 __flash char zp_type_tc1[]={'T','y','p','e',' ','T','S','1','-','>'};
zp_type_tc1:
        DB 84, 121, 112, 101, 32, 84, 83, 49, 45, 62
//  116 __flash char zp_type_tc2[]={'T','y','p','e',' ','T','S','2','-','>'};
zp_type_tc2:
        DB 84, 121, 112, 101, 32, 84, 83, 50, 45, 62
//  117 
//  118 __flash char zp_dbg[]=        {'D','B','G','-','>'};
zp_dbg:
        DB 68, 66, 71, 45, 62
//  119 //__flash char zp_gprs_s[]=     {'S','.','r','s','2','3','2','-','>'};
//  120 __flash char zp_ts1[]=        {'T','S','1','-','2','-','>'};
zp_ts1:
        DB 84, 83, 49, 45, 50, 45, 62
//  121 __flash char zp_temp[]=       {'t','-','>'};
zp_temp:
        DB 116, 45, 62
//  122 __flash char zp_vosst[]=      {'S','e','t',' ','d','e','f','-','>'};
zp_vosst:
        DB 83, 101, 116, 32, 100, 101, 102, 45, 62
//  123 __flash char zp_time[]=       {'T','i','m','e','-','>'};
zp_time:
        DB 84, 105, 109, 101, 45, 62
//  124 __flash char zp_date[]=       {'D','a','t','e','-','>'};
zp_date:
        DB 68, 97, 116, 101, 45, 62
//  125 __flash char zp_log_file[]=   {'L','o','g',' ','f','i','l','e','-','>'};
zp_log_file:
        DB 76, 111, 103, 32, 102, 105, 108, 101, 45, 62
//  126 __flash char zp_keys[]=       {'K','e','y',' ','d','e','f','-','>'};
zp_keys:
        DB 75, 101, 121, 32, 100, 101, 102, 45, 62

        RSEG NEAR_F:CODE:NOROOT(0)
//  127 
//  128 __flash unsigned char keys_def[]={'s','m','a','r','t','p','l','u'};
keys_def:
        DB 115, 109, 97, 114, 116, 112, 108, 117
err_t:
        DB 13, 10, 69, 82, 82
ok_t:
        DB 13, 10, 79, 75

        RSEG NEAR_F:CODE:NOROOT(0)
map_vers:
        DB 70, 75, 48, 50, 46, 48, 49, 58, 50, 55, 48, 57, 48, 55
//  129 
//  130 
//  131 __flash unsigned char def_apn[] = {'i','n','t','e','r','n','e','t','.','m','t','s','.','r','u',0x00};
//  132 __flash unsigned char def_usname[] = {0x00};   
//  133 __flash unsigned char def_uspsw[] = {0x00}; 
//  134 
//  135 __flash unsigned char def_apnr[] = {'i','n','t','e','r','n','e','t','.','b','e','e','l','i','n','e','.','r','u',0x00};
//  136 __flash unsigned char def_usnamer[] = {'b','e','e','l','i','n','e',0x00};   
def_usnamer:
        DB 98, 101, 101, 108, 105, 110, 101, 0
//  137 __flash unsigned char def_uspswr[] = {'b','e','e','l','i','n','e',0x00};
def_uspswr:
        DB 98, 101, 101, 108, 105, 110, 101, 0
//  138 
//  139 
//  140 __flash unsigned char def_apn1[] = {'i','n','t','e','r','n','e','t','.','m','t','s','.','r','u',0x00};
//  141 __flash unsigned char def_usname1[] = {0x00};   
//  142 __flash unsigned char def_uspsw1[] = {0x00}; 
//  143 
//  144 __flash unsigned char def_apn2[] = {'i','n','t','e','r','n','e','t','.','b','e','e','l','i','n','e','.','r','u',0x00};
//  145 __flash unsigned char def_usname2[] = {'b','e','e','l','i','n','e',0x00};   
def_usname2:
        DB 98, 101, 101, 108, 105, 110, 101, 0
//  146 __flash unsigned char def_uspsw2[] = {'b','e','e','l','i','n','e',0x00}; 
def_uspsw2:
        DB 98, 101, 101, 108, 105, 110, 101, 0
//  147 
//  148 __flash unsigned char def_apn3[] = {'i','n','t','e','r','n','e','t',0x00};
def_apn3:
        DB 105, 110, 116, 101, 114, 110, 101, 116, 0

        RSEG NEAR_F:CODE:NOROOT(0)
def_apn:
        DB 105, 110, 116, 101, 114, 110, 101, 116, 46, 109, 116, 115, 46, 114
        DB 117, 0
def_apnr:
        DB 105, 110, 116, 101, 114, 110, 101, 116, 46, 98, 101, 101, 108, 105
        DB 110, 101, 46, 114, 117, 0
def_apn1:
        DB 105, 110, 116, 101, 114, 110, 101, 116, 46, 109, 116, 115, 46, 114
        DB 117, 0

        RSEG NEAR_F:CODE:NOROOT(0)
def_usname:
        DB 0

        RSEG NEAR_F:CODE:NOROOT(0)
def_uspsw:
        DB 0

        RSEG NEAR_F:CODE:NOROOT(0)
def_usname1:
        DB 0

        RSEG NEAR_F:CODE:NOROOT(0)
def_uspsw1:
        DB 0

        RSEG NEAR_F:CODE:NOROOT(0)
def_apn2:
        DB 105, 110, 116, 101, 114, 110, 101, 116, 46, 98, 101, 101, 108, 105
        DB 110, 101, 46, 114, 117, 0

        RSEG NEAR_F:CODE:NOROOT(0)
//  149 __flash unsigned char def_usname3[] = {0x00};   
def_usname3:
        DB 0

        RSEG NEAR_F:CODE:NOROOT(0)
//  150 __flash unsigned char def_uspsw3[] = {0x00}; 
def_uspsw3:
        DB 0

        RSEG NEAR_Z:DATA:NOROOT(0)
        REQUIRE `?<Segment init: NEAR_Z>`
fl_at_mom_232:
        DS 1
//  151 
//  152 
//  153 unsigned char keys[10];
//  154 
//  155 extern unsigned int crc_m1(unsigned char *ka,unsigned int num,unsigned int crc);
//  156 extern void delay(unsigned int period);
//  157 
//  158 unsigned char index_pa;
index_pa:
        DS 1

        RSEG NEAR_Z:DATA:NOROOT(0)
        REQUIRE `?<Segment init: NEAR_Z>`
Regim:
        DS 1

        RSEG NEAR_Z:DATA:NOROOT(0)
        REQUIRE `?<Segment init: NEAR_Z>`
keys:
        DS 10
//  159 
//  160 extern unsigned char buf_tx_232[VOL_TX_PPP];
//  161 extern unsigned int vol_tx_ppp;
//  162 
//  163 
//  164 
//  165 
//  166 
//  167 

        RSEG CODE:CODE:NOROOT(1)
//  168 unsigned char ret_version(unsigned char unit,unsigned char *ptr)
ret_version:
        CFI Block cfiBlock1 Using cfiCommon0
        CFI Function ret_version
//  169 {
        MOVW	R21:R20, R27:R26
        MOVW	R27:R26, R19:R18
//  170  unsigned char i;
//  171  
//  172  if(unit==2)
        CPI	R16, 2
        BRNE	??ret_version_0
//  173     {
//  174     for (i=0;i<sizeof(ozu_vers);i++){*ptr=ozu_vers[i];ptr++;}
        LDI	R16, 0
        RJMP	??ret_version_1
??ret_version_2:
        LDI	R30, LOW(ozu_vers)
        LDI	R31, (ozu_vers) >> 8
        LDI	R17, 0
        ADD	R30, R16
        ADC	R31, R17
        LPM	R17, Z
        ST	X+, R17
        INC	R16
??ret_version_1:
        CPI	R16, 14
        BRCS	??ret_version_2
//  175     *ptr=0;
??ret_version_3:
        LDI	R16, 0
        ST	X, R16
//  176     return(sizeof(ozu_vers)+1);
        LDI	R16, 15
        MOVW	R27:R26, R21:R20
        RET
//  177     }
//  178  
//  179  if(unit==0)
??ret_version_0:
        TST	R16
        LDI	R16, 0
        BRNE	??ret_version_4
//  180     {
//  181     for (i=0;i<sizeof(versia);i++){*ptr=versia[i];ptr++;}
??ret_version_5:
        CPI	R16, 14
        BRCC	??ret_version_3
        LDI	R30, LOW((ozu_vers + 14))
        LDI	R31, HIGH((ozu_vers + 14))
        LDI	R17, 0
        ADD	R30, R16
        ADC	R31, R17
        LPM	R17, Z
        ST	X+, R17
        INC	R16
        RJMP	??ret_version_5
//  182     *ptr=0;
//  183     return(sizeof(versia)+1);
//  184     }
//  185     else
//  186     {
//  187     for (i=0;i<sizeof(versia);i++){*ptr=map_vers[i];ptr++;}
??ret_version_4:
        CPI	R16, 14
        BRCC	??ret_version_3
        LDI	R30, LOW(map_vers)
        LDI	R31, (map_vers) >> 8
        LDI	R17, 0
        ADD	R30, R16
        ADC	R31, R17
        LPM	R17, Z
        ST	X+, R17
        INC	R16
        RJMP	??ret_version_4
        CFI EndBlock cfiBlock1
//  188     *ptr=0;
//  189     return(sizeof(map_vers)+1);
//  190     }
//  191 }
//  192 
//  193 
//  194 
//  195 
//  196 
//  197 

        RSEG CODE:CODE:NOROOT(1)
//  198 void vosstan_memory(void)
vosstan_memory:
        CFI Block cfiBlock2 Using cfiCommon0
        CFI Function vosstan_memory
//  199 {
        FUNCALL vosstan_memory, crc_m1
        LOCFRAME CSTACK, 72, STACK
        LOCFRAME RSTACK, 2, STACK
        FUNCALL vosstan_memory, WrArrayToFlesh
        LOCFRAME CSTACK, 72, STACK
        LOCFRAME RSTACK, 2, STACK
        FUNCALL vosstan_memory, crc_m1
        LOCFRAME CSTACK, 72, STACK
        LOCFRAME RSTACK, 2, STACK
        FUNCALL vosstan_memory, WrArrayToFlesh
        LOCFRAME CSTACK, 72, STACK
        LOCFRAME RSTACK, 2, STACK
        FUNCALL vosstan_memory, crc_m1
        LOCFRAME CSTACK, 72, STACK
        LOCFRAME RSTACK, 2, STACK
        FUNCALL vosstan_memory, WrArrayToFlesh
        LOCFRAME CSTACK, 72, STACK
        LOCFRAME RSTACK, 2, STACK
        FUNCALL vosstan_memory, crc_m1
        LOCFRAME CSTACK, 72, STACK
        LOCFRAME RSTACK, 2, STACK
        FUNCALL vosstan_memory, WrArrayToFlesh
        LOCFRAME CSTACK, 72, STACK
        LOCFRAME RSTACK, 2, STACK
        FUNCALL vosstan_memory, crc_m1
        LOCFRAME CSTACK, 72, STACK
        LOCFRAME RSTACK, 2, STACK
        FUNCALL vosstan_memory, WrArrayToFlesh
        LOCFRAME CSTACK, 72, STACK
        LOCFRAME RSTACK, 2, STACK
        FUNCALL vosstan_memory, crc_m1
        LOCFRAME CSTACK, 72, STACK
        LOCFRAME RSTACK, 2, STACK
        FUNCALL vosstan_memory, WrArrayToFlesh
        LOCFRAME CSTACK, 72, STACK
        LOCFRAME RSTACK, 2, STACK
        FUNCALL vosstan_memory, crc_m1
        LOCFRAME CSTACK, 72, STACK
        LOCFRAME RSTACK, 2, STACK
        FUNCALL vosstan_memory, WrArrayToFlesh
        LOCFRAME CSTACK, 72, STACK
        LOCFRAME RSTACK, 2, STACK
        FUNCALL vosstan_memory, crc_m1
        LOCFRAME CSTACK, 72, STACK
        LOCFRAME RSTACK, 2, STACK
        FUNCALL vosstan_memory, WrArrayToFlesh
        LOCFRAME CSTACK, 72, STACK
        LOCFRAME RSTACK, 2, STACK
        FUNCALL vosstan_memory, crc_m1
        LOCFRAME CSTACK, 72, STACK
        LOCFRAME RSTACK, 2, STACK
        FUNCALL vosstan_memory, WrArrayToFlesh
        LOCFRAME CSTACK, 72, STACK
        LOCFRAME RSTACK, 2, STACK
        FUNCALL vosstan_memory, crc_m1
        LOCFRAME CSTACK, 72, STACK
        LOCFRAME RSTACK, 2, STACK
        FUNCALL vosstan_memory, WrArrayToFlesh
        LOCFRAME CSTACK, 72, STACK
        LOCFRAME RSTACK, 2, STACK
        ST	-Y, R27
        CFI R27 Frame(CFA_Y, -1)
        CFI CFA_Y Y+1
        ST	-Y, R26
        CFI R26 Frame(CFA_Y, -2)
        CFI CFA_Y Y+2
        SBIW	R29:R28, 63
        CFI CFA_Y Y+65
        SBIW	R29:R28, 7
        CFI CFA_Y Y+72
//  200 unsigned char i,j,buf[70],temp;
//  201 
//  202 
//  203    j=sizeof(map_vers);
//  204    for(i=0;i<j;i++)buf[i]=map_vers[i];
        LDI	R16, 0
        RJMP	??vosstan_memory_0
??vosstan_memory_1:
        MOV	R18, R16
        LDI	R19, 0
        LDI	R30, LOW(map_vers)
        LDI	R31, (map_vers) >> 8
        ADD	R30, R18
        ADC	R31, R19
        LPM	R17, Z
        MOVW	R31:R30, R29:R28
        ADD	R30, R18
        ADC	R31, R19
        ST	Z, R17
        INC	R16
??vosstan_memory_0:
        CPI	R16, 14
        BRCS	??vosstan_memory_1
//  205    *(unsigned int*)&buf[j]=crc_m1(&buf[0],j,0xffff);
        LDI	R20, 255
        LDI	R21, 255
        LDI	R18, 14
        LDI	R19, 0
        MOVW	R17:R16, R29:R28
        CALL	crc_m1
        STD	Y+14, R16
        STD	Y+15, R17
//  206    WrArrayToFlesh(A_VER_MAP, &buf[0],j+2,0,0);
        LDI	R23, 0
        LDI	R22, 0
        LDI	R20, 16
        LDI	R21, 0
        MOVW	R19:R18, R29:R28
        LDI	R16, 0
        LDI	R17, 0
        CALL	WrArrayToFlesh
//  207 
//  208 
//  209 //çŕăđóçęŕ ďîóěîë÷ŕíčţ
//  210      temp=sizeof(def_apn)-1;
//  211      j=0;
//  212      buf[0]=temp;
        LDI	R16, 15
        ST	Y, R16
//  213      j=1;
        LDI	R18, 1
//  214      for(i=0;i<temp;i++){buf[j]=def_apn[i];j++;}
        LDI	R16, 0
        RJMP	??vosstan_memory_2
??vosstan_memory_3:
        LDI	R30, LOW(def_apn)
        LDI	R31, (def_apn) >> 8
        ADD	R30, R16
        ADC	R31, R19
        LPM	R17, Z
        MOVW	R31:R30, R27:R26
        ST	Z, R17
        INC	R18
        INC	R16
??vosstan_memory_2:
        MOVW	R27:R26, R29:R28
        LDI	R19, 0
        ADD	R26, R18
        ADC	R27, R19
        CPI	R16, 15
        BRCS	??vosstan_memory_3
//  215      
//  216      temp=sizeof(def_usname)-1;
//  217      buf[j]=temp;
        LDI	R16, 0
        ST	X, R19
//  218      j++;
        INC	R18
//  219      for(i=0;i<temp;i++){buf[j]=def_usname[i];j++;} 
//  220      
//  221      temp=sizeof(def_uspsw)-1;
//  222      buf[j]=temp;
        MOVW	R31:R30, R29:R28
        ADD	R30, R18
        ADC	R31, R19
        ST	Z, R19
//  223      j++;
        INC	R18
//  224      for(i=0;i<temp;i++){buf[j]=def_uspsw[i];j++;}
//  225      
//  226      for(i=0;i<L_C_GPRS_MAX;i++){buf[j]=0;j++;}
        RJMP	??vosstan_memory_4
??vosstan_memory_5:
        MOVW	R31:R30, R29:R28
        ADD	R30, R18
        ADC	R31, R19
        ST	Z, R19
        INC	R18
        INC	R16
??vosstan_memory_4:
        CPI	R16, 60
        BRCS	??vosstan_memory_5
//  227      *(unsigned int*)&buf[L_C_GPRS_MAX-2]=crc_m1(&buf[0],L_C_GPRS_MAX-2,0xffff);
        LDI	R20, 255
        LDI	R21, 255
        LDI	R18, 58
        MOVW	R17:R16, R29:R28
        CALL	crc_m1
        STD	Y+58, R16
        STD	Y+59, R17
//  228      WrArrayToFlesh(A_C_GPRS, &buf[0],L_C_GPRS_MAX,0,0);
        LDI	R23, 0
        LDI	R22, 0
        LDI	R20, 60
        LDI	R21, 0
        MOVW	R19:R18, R29:R28
        LDI	R16, 20
        LDI	R17, 0
        CALL	WrArrayToFlesh
//  229      
//  230     
//  231      temp=sizeof(def_apnr)-1;
//  232      j=0;
//  233      buf[0]=temp;
        LDI	R16, 19
        ST	Y, R16
//  234      j=1;
        LDI	R18, 1
//  235      for(i=0;i<temp;i++){buf[j]=def_apnr[i];j++;}
        LDI	R16, 0
        RJMP	??vosstan_memory_6
??vosstan_memory_7:
        LDI	R30, LOW((def_apn + 16))
        LDI	R31, HIGH((def_apn + 16))
        ADD	R30, R16
        ADC	R31, R19
        LPM	R17, Z
        MOVW	R31:R30, R27:R26
        ST	Z, R17
        INC	R18
        INC	R16
??vosstan_memory_6:
        MOVW	R27:R26, R29:R28
        LDI	R19, 0
        ADD	R26, R18
        ADC	R27, R19
        CPI	R16, 19
        BRCS	??vosstan_memory_7
//  236      
//  237      temp=sizeof(def_usnamer)-1;
//  238      buf[j]=temp;
        LDI	R16, 7
        ST	X, R16
//  239      j++;
        INC	R18
//  240      for(i=0;i<temp;i++){buf[j]=def_usnamer[i];j++;} 
        LDI	R16, 0
        RJMP	??vosstan_memory_8
??vosstan_memory_9:
        LDI	R30, LOW((map_vers + 14))
        LDI	R31, HIGH((map_vers + 14))
        ADD	R30, R16
        ADC	R31, R19
        LPM	R17, Z
        MOVW	R31:R30, R27:R26
        ST	Z, R17
        INC	R18
        INC	R16
??vosstan_memory_8:
        MOVW	R27:R26, R29:R28
        ADD	R26, R18
        ADC	R27, R19
        CPI	R16, 7
        BRCS	??vosstan_memory_9
//  241      
//  242      temp=sizeof(def_uspswr)-1;
//  243      buf[j]=temp;
        LDI	R16, 7
        ST	X, R16
//  244      j++;
        INC	R18
//  245      for(i=0;i<temp;i++){buf[j]=def_uspswr[i];j++;}
        LDI	R16, 0
        RJMP	??vosstan_memory_10
??vosstan_memory_11:
        LDI	R30, LOW((map_vers + 22))
        LDI	R31, HIGH((map_vers + 22))
        ADD	R30, R16
        ADC	R31, R19
        LPM	R17, Z
        MOVW	R31:R30, R29:R28
        ADD	R30, R18
        ADC	R31, R19
        ST	Z, R17
        INC	R18
        INC	R16
??vosstan_memory_10:
        CPI	R16, 7
        BRCS	??vosstan_memory_11
//  246      
//  247      for(i=0;i<L_CR_GPRS_MAX;i++){buf[j]=0;j++;}
        LDI	R16, 0
        RJMP	??vosstan_memory_12
??vosstan_memory_13:
        MOVW	R31:R30, R29:R28
        ADD	R30, R18
        ADC	R31, R19
        ST	Z, R19
        INC	R18
        INC	R16
??vosstan_memory_12:
        CPI	R16, 60
        BRCS	??vosstan_memory_13
//  248      *(unsigned int*)&buf[L_CR_GPRS_MAX-2]=crc_m1(&buf[0],L_CR_GPRS_MAX-2,0xffff);
        LDI	R20, 255
        LDI	R21, 255
        LDI	R18, 58
        MOVW	R17:R16, R29:R28
        CALL	crc_m1
        STD	Y+58, R16
        STD	Y+59, R17
//  249      WrArrayToFlesh(A_CR_GPRS, &buf[0],L_CR_GPRS_MAX,0,0);
        LDI	R23, 0
        LDI	R22, 0
        LDI	R20, 60
        LDI	R21, 0
        MOVW	R19:R18, R29:R28
        LDI	R16, 80
        LDI	R17, 0
        CALL	WrArrayToFlesh
//  250      
//  251      
//  252      
//  253      
//  254      buf[OFS_IP]=DEF_IP_SRV_0;
        LDI	R16, 88
        ST	Y, R16
//  255      buf[OFS_IP+1]=DEF_IP_SRV_1;
        LDI	R16, 82
        STD	Y+1, R16
//  256      buf[OFS_IP+2]=DEF_IP_SRV_2;
        LDI	R16, 69
        STD	Y+2, R16
//  257      buf[OFS_IP+3]=DEF_IP_SRV_3;
        LDI	R16, 228
        STD	Y+3, R16
//  258    *(unsigned int*)&buf[OFS_PORT]=DEF_UDP_PORT;//UDP ďîđň
        LDI	R16, 136
        LDI	R17, 19
        STD	Y+4, R16
        STD	Y+5, R17
//  259    *(unsigned int*)&buf[OFS_NUM]=DEF_NUM_SELF;//ńâîé íîěĺđ ďî óěîë÷ŕíčţ  
        LDI	R16, 2
        LDI	R17, 0
        STD	Y+6, R16
        STD	Y+7, R17
//  260    *(unsigned int*)&buf[OFS_IP_PAR_CRC]=crc_m1(&buf[0],L_IP_PAR-2,0xffff);
        LDI	R20, 255
        LDI	R21, 255
        LDI	R18, 8
        LDI	R19, 0
        MOVW	R17:R16, R29:R28
        CALL	crc_m1
        STD	Y+8, R16
        STD	Y+9, R17
//  261      WrArrayToFlesh(A_IP_PAR, &buf[0],L_IP_PAR,0,0);
        LDI	R23, 0
        LDI	R22, 0
        LDI	R20, 10
        LDI	R21, 0
        MOVW	R19:R18, R29:R28
        LDI	R16, 140
        LDI	R17, 0
        CALL	WrArrayToFlesh
//  262      
//  263      
//  264    *(unsigned int*)&buf[OFS_NAT]=DEF_CNTR_NAT;
        LDI	R16, 50
        LDI	R17, 0
        ST	Y, R16
        STD	Y+1, R17
//  265    *(unsigned int*)&buf[OFS_CCH]=DEF_CNTR_LINK;
        LDI	R16, 120
        STD	Y+2, R16
        STD	Y+3, R17
//  266    *(unsigned int*)&buf[OFS_TM_CH]=DEF_TM_CNTR_LINK;
        LDI	R16, 62
        STD	Y+4, R16
        STD	Y+5, R17
//  267    
//  268    *(unsigned int*)&buf[OFS_TM_NO_LINK]=DEF_TM_NO_LINK;       //dobavka
        LDI	R16, 10
        STD	Y+6, R16
        STD	Y+7, R17
//  269    *(unsigned int*)&buf[OFS_TM_LINK_RES]=DEF_TM_LINK_RES;       //dobavka
        LDI	R16, 60
        STD	Y+8, R16
        STD	Y+9, R17
//  270    
//  271    *(unsigned int*)&buf[OFS_NAT_R]=DEF_CNTR_NAT_R;
        LDI	R16, 45
        STD	Y+10, R16
        STD	Y+11, R17
//  272    
//  273    *(unsigned int*)&buf[OFS_C_PAR_CRC]=crc_m1(&buf[0],L_C_PAR-2,0xffff);
        LDI	R20, 255
        LDI	R21, 255
        LDI	R18, 12
        LDI	R19, 0
        MOVW	R17:R16, R29:R28
        CALL	crc_m1
        STD	Y+12, R16
        STD	Y+13, R17
//  274      WrArrayToFlesh(A_C_PAR, &buf[0],L_C_PAR,0,0);
        LDI	R23, 0
        LDI	R22, 0
        LDI	R20, 14
        LDI	R21, 0
        MOVW	R19:R18, R29:R28
        LDI	R16, 150
        LDI	R17, 0
        CALL	WrArrayToFlesh
//  275      
//  276       buf[OFS_DES_SEQ]=(~DEF_DES_SEQ)&0x01; 
        LDI	R16, 0
        ST	Y, R16
//  277    *(unsigned int*)&buf[OFS_NUM_CL]=DEF_NUM_DST_SEQ;
        LDI	R16, 255
        STD	Y+1, R16
        STD	Y+2, R16
//  278    *(unsigned int*)&buf[OFS_TM_VZ]=DEF_VOL_TM_VZAT;
        LDI	R16, 30
        LDI	R17, 0
        STD	Y+3, R16
        STD	Y+4, R17
//  279    *(unsigned int*)&buf[OFS_TM_CL]=DEF_TM_CNTR_CL;
        LDI	R16, 10
        STD	Y+5, R16
        STD	Y+6, R17
//  280     buf[OFS_TP_TS]=DEF_TP_TS1;
        LDI	R16, 1
        STD	Y+7, R16
//  281     buf[OFS_TP_TS+1]=DEF_TP_TS2;
        STD	Y+8, R16
//  282    *(unsigned int*)&buf[OFS_SEQ_PAR_CRC]=crc_m1(&buf[0],L_SEQ_PAR-2,0xffff);
        LDI	R20, 255
        LDI	R21, 255
        LDI	R18, 9
        LDI	R19, 0
        MOVW	R17:R16, R29:R28
        CALL	crc_m1
        STD	Y+9, R16
        STD	Y+10, R17
//  283      WrArrayToFlesh(A_SEQ_PAR, &buf[0],L_SEQ_PAR,0,0);
        LDI	R23, 0
        LDI	R22, 0
        LDI	R20, 11
        LDI	R21, 0
        MOVW	R19:R18, R29:R28
        LDI	R16, 164
        LDI	R17, 0
        CALL	WrArrayToFlesh
//  284      
//  285      buf[OFS_GPRS_DES]=~DEF_DES_PORT_GPRS; 
        LDI	R16, 254
        ST	Y, R16
//  286    *(unsigned long int*)&buf[OFS_GPRS_S]=DEF_PORT_GPRS_S;
        LDI	R16, 128
        LDI	R17, 37
        LDI	R19, 0
        STD	Y+1, R16
        STD	Y+2, R17
        STD	Y+3, R19
        STD	Y+4, R19
//  287    *(unsigned int*)&buf[OFS_PORT_GPRS_CRC]=crc_m1(&buf[0],L_PORT_GPRS-2,0xffff);
        LDI	R20, 255
        LDI	R21, 255
        LDI	R18, 5
        MOVW	R17:R16, R29:R28
        CALL	crc_m1
        STD	Y+5, R16
        STD	Y+6, R17
//  288      WrArrayToFlesh(A_PORT_GPRS, &buf[0],L_PORT_GPRS,0,0);
        LDI	R23, 0
        LDI	R22, 0
        LDI	R20, 7
        LDI	R21, 0
        MOVW	R19:R18, R29:R28
        LDI	R16, 175
        LDI	R17, 0
        CALL	WrArrayToFlesh
//  289  
//  290      j=0;
//  291      temp=sizeof(def_apn1)-1;    
//  292      buf[0]=temp;
        LDI	R16, 15
        ST	Y, R16
//  293      j=1;
        LDI	R18, 1
//  294      for(i=0;i<temp;i++){buf[j]=def_apn1[i];j++;}
        LDI	R16, 0
        RJMP	??vosstan_memory_14
??vosstan_memory_15:
        LDI	R30, LOW((def_apn + 36))
        LDI	R31, HIGH((def_apn + 36))
        ADD	R30, R16
        ADC	R31, R19
        LPM	R17, Z
        MOVW	R31:R30, R27:R26
        ST	Z, R17
        INC	R18
        INC	R16
??vosstan_memory_14:
        MOVW	R27:R26, R29:R28
        LDI	R19, 0
        ADD	R26, R18
        ADC	R27, R19
        CPI	R16, 15
        BRCS	??vosstan_memory_15
//  295     
//  296      temp=sizeof(def_usname1)-1;
//  297      buf[j]=temp;
        LDI	R16, 0
        ST	X, R19
//  298      j++;
        INC	R18
//  299      for(i=0;i<temp;i++){buf[j]=def_usname1[i];j++;} 
//  300     
//  301      temp=sizeof(def_uspsw1)-1;
//  302      buf[j]=temp;
        MOVW	R31:R30, R29:R28
        ADD	R30, R18
        ADC	R31, R19
        ST	Z, R19
//  303      j++;
        INC	R18
//  304      for(i=0;i<temp;i++){buf[j]=def_uspsw1[i];j++;}
//  305     
//  306      for(i=0;i<L_C1_GPRS_MAX;i++){buf[j]=0;j++;}
        RJMP	??vosstan_memory_16
??vosstan_memory_17:
        MOVW	R31:R30, R29:R28
        ADD	R30, R18
        ADC	R31, R19
        ST	Z, R19
        INC	R18
        INC	R16
??vosstan_memory_16:
        CPI	R16, 60
        BRCS	??vosstan_memory_17
//  307      *(unsigned int*)&buf[L_C1_GPRS_MAX-2]=crc_m1(&buf[0],L_C1_GPRS_MAX-2,0xffff);
        LDI	R20, 255
        LDI	R21, 255
        LDI	R18, 58
        MOVW	R17:R16, R29:R28
        CALL	crc_m1
        STD	Y+58, R16
        STD	Y+59, R17
//  308      WrArrayToFlesh(A_C1_GPRS, &buf[0],L_C1_GPRS_MAX,0,0);
        LDI	R23, 0
        LDI	R22, 0
        LDI	R20, 60
        LDI	R21, 0
        MOVW	R19:R18, R29:R28
        LDI	R16, 200
        LDI	R17, 0
        CALL	WrArrayToFlesh
//  309  
//  310      j=0;
//  311      temp=sizeof(def_apn2)-1;
//  312      buf[0]=temp;
        LDI	R16, 19
        ST	Y, R16
//  313      j=1;
        LDI	R18, 1
//  314      for(i=0;i<temp;i++){buf[j]=def_apn2[i];j++;}
        LDI	R16, 0
        RJMP	??vosstan_memory_18
??vosstan_memory_19:
        LDI	R30, LOW(def_apn2)
        LDI	R31, (def_apn2) >> 8
        ADD	R30, R16
        ADC	R31, R19
        LPM	R17, Z
        MOVW	R31:R30, R27:R26
        ST	Z, R17
        INC	R18
        INC	R16
??vosstan_memory_18:
        MOVW	R27:R26, R29:R28
        LDI	R19, 0
        ADD	R26, R18
        ADC	R27, R19
        CPI	R16, 19
        BRCS	??vosstan_memory_19
//  315      
//  316      temp=sizeof(def_usname2)-1;
//  317      buf[j]=temp;
        LDI	R16, 7
        ST	X, R16
//  318      j++;
        INC	R18
//  319      for(i=0;i<temp;i++){buf[j]=def_usname2[i];j++;} 
        LDI	R16, 0
        RJMP	??vosstan_memory_20
??vosstan_memory_21:
        LDI	R30, LOW((map_vers + 30))
        LDI	R31, HIGH((map_vers + 30))
        ADD	R30, R16
        ADC	R31, R19
        LPM	R17, Z
        MOVW	R31:R30, R27:R26
        ST	Z, R17
        INC	R18
        INC	R16
??vosstan_memory_20:
        MOVW	R27:R26, R29:R28
        ADD	R26, R18
        ADC	R27, R19
        CPI	R16, 7
        BRCS	??vosstan_memory_21
//  320      
//  321      temp=sizeof(def_uspsw2)-1;
//  322      buf[j]=temp;
        LDI	R16, 7
        ST	X, R16
//  323      j++;
        INC	R18
//  324      for(i=0;i<temp;i++){buf[j]=def_uspsw2[i];j++;}
        LDI	R16, 0
        RJMP	??vosstan_memory_22
??vosstan_memory_23:
        LDI	R30, LOW((map_vers + 38))
        LDI	R31, HIGH((map_vers + 38))
        ADD	R30, R16
        ADC	R31, R19
        LPM	R17, Z
        MOVW	R31:R30, R29:R28
        ADD	R30, R18
        ADC	R31, R19
        ST	Z, R17
        INC	R18
        INC	R16
??vosstan_memory_22:
        CPI	R16, 7
        BRCS	??vosstan_memory_23
//  325      
//  326      for(i=0;i<L_C2_GPRS_MAX;i++){buf[j]=0;j++;}
        LDI	R16, 0
        RJMP	??vosstan_memory_24
??vosstan_memory_25:
        MOVW	R31:R30, R29:R28
        ADD	R30, R18
        ADC	R31, R19
        ST	Z, R19
        INC	R18
        INC	R16
??vosstan_memory_24:
        CPI	R16, 60
        BRCS	??vosstan_memory_25
//  327      *(unsigned int*)&buf[L_C2_GPRS_MAX-2]=crc_m1(&buf[0],L_C2_GPRS_MAX-2,0xffff);
        LDI	R20, 255
        LDI	R21, 255
        LDI	R18, 58
        MOVW	R17:R16, R29:R28
        CALL	crc_m1
        STD	Y+58, R16
        STD	Y+59, R17
//  328      WrArrayToFlesh(A_C2_GPRS, &buf[0],L_C2_GPRS_MAX,0,0);
        LDI	R23, 0
        LDI	R22, 0
        LDI	R20, 60
        LDI	R21, 0
        MOVW	R19:R18, R29:R28
        LDI	R16, 4
        LDI	R17, 1
        CALL	WrArrayToFlesh
//  329  
//  330  
//  331      j=0;
//  332      temp=sizeof(def_apn3)-1;
//  333      buf[0]=temp;
        LDI	R16, 8
        ST	Y, R16
//  334      j=1;
        LDI	R18, 1
//  335      for(i=0;i<temp;i++){buf[j]=def_apn3[i];j++;}
        LDI	R16, 0
        RJMP	??vosstan_memory_26
??vosstan_memory_27:
        LDI	R30, LOW((map_vers + 46))
        LDI	R31, HIGH((map_vers + 46))
        ADD	R30, R16
        ADC	R31, R19
        LPM	R17, Z
        MOVW	R31:R30, R27:R26
        ST	Z, R17
        INC	R18
        INC	R16
??vosstan_memory_26:
        MOVW	R27:R26, R29:R28
        LDI	R19, 0
        ADD	R26, R18
        ADC	R27, R19
        CPI	R16, 8
        BRCS	??vosstan_memory_27
//  336      
//  337      temp=sizeof(def_usname3)-1;
//  338      buf[j]=temp;
        LDI	R16, 0
        ST	X, R19
//  339      j++;
        INC	R18
//  340      for(i=0;i<temp;i++){buf[j]=def_usname3[i];j++;} 
//  341      
//  342      temp=sizeof(def_uspsw3)-1;
//  343      buf[j]=temp;
        MOVW	R31:R30, R29:R28
        ADD	R30, R18
        ADC	R31, R19
        ST	Z, R19
//  344      j++;
        INC	R18
//  345      for(i=0;i<temp;i++){buf[j]=def_uspsw3[i];j++;}
//  346      
//  347      for(i=0;i<L_C3_GPRS_MAX;i++){buf[j]=0;j++;}
        RJMP	??vosstan_memory_28
??vosstan_memory_29:
        MOVW	R31:R30, R29:R28
        ADD	R30, R18
        ADC	R31, R19
        ST	Z, R19
        INC	R18
        INC	R16
??vosstan_memory_28:
        CPI	R16, 60
        BRCS	??vosstan_memory_29
//  348      *(unsigned int*)&buf[L_C3_GPRS_MAX-2]=crc_m1(&buf[0],L_C3_GPRS_MAX-2,0xffff);
        LDI	R20, 255
        LDI	R21, 255
        LDI	R18, 58
        MOVW	R17:R16, R29:R28
        CALL	crc_m1
        STD	Y+58, R16
        STD	Y+59, R17
//  349      WrArrayToFlesh(A_C3_GPRS, &buf[0],L_C3_GPRS_MAX,0,0);
        LDI	R23, 0
        LDI	R22, 0
        LDI	R20, 60
        LDI	R21, 0
        MOVW	R19:R18, R29:R28
        LDI	R16, 64
        LDI	R17, 1
        CALL	WrArrayToFlesh
//  350 }
        ADIW	R29:R28, 63
        CFI CFA_Y Y+9
        ADIW	R29:R28, 7
        CFI CFA_Y Y+2
        LD	R26, Y+
        CFI R26 SameValue
        CFI CFA_Y Y+1
        LD	R27, Y+
        CFI R27 SameValue
        CFI CFA_Y Y+0
        RET
        CFI EndBlock cfiBlock2
//  351 
//  352 
//  353 
//  354 
//  355 

        RSEG CODE:CODE:NOROOT(1)
//  356 unsigned char check_memory_map(void)
check_memory_map:
        CFI Block cfiBlock3 Using cfiCommon0
        CFI Function check_memory_map
//  357 {
        FUNCALL check_memory_map, RdFromFleshToArr
        LOCFRAME CSTACK, 74, STACK
        LOCFRAME RSTACK, 2, STACK
        FUNCALL check_memory_map, crc_m1
        LOCFRAME CSTACK, 74, STACK
        LOCFRAME RSTACK, 2, STACK
        FUNCALL check_memory_map, RdFromFleshToArr
        LOCFRAME CSTACK, 74, STACK
        LOCFRAME RSTACK, 2, STACK
        FUNCALL check_memory_map, crc_m1
        LOCFRAME CSTACK, 74, STACK
        LOCFRAME RSTACK, 2, STACK
        FUNCALL check_memory_map, crc_m1
        LOCFRAME CSTACK, 74, STACK
        LOCFRAME RSTACK, 2, STACK
        FUNCALL check_memory_map, WrArrayToFlesh
        LOCFRAME CSTACK, 74, STACK
        LOCFRAME RSTACK, 2, STACK
        FUNCALL check_memory_map, RdFromFleshToArr
        LOCFRAME CSTACK, 74, STACK
        LOCFRAME RSTACK, 2, STACK
        FUNCALL check_memory_map, crc_m1
        LOCFRAME CSTACK, 74, STACK
        LOCFRAME RSTACK, 2, STACK
        FUNCALL check_memory_map, crc_m1
        LOCFRAME CSTACK, 74, STACK
        LOCFRAME RSTACK, 2, STACK
        FUNCALL check_memory_map, WrArrayToFlesh
        LOCFRAME CSTACK, 74, STACK
        LOCFRAME RSTACK, 2, STACK
        FUNCALL check_memory_map, RdFromFleshToArr
        LOCFRAME CSTACK, 74, STACK
        LOCFRAME RSTACK, 2, STACK
        FUNCALL check_memory_map, crc_m1
        LOCFRAME CSTACK, 74, STACK
        LOCFRAME RSTACK, 2, STACK
        FUNCALL check_memory_map, crc_m1
        LOCFRAME CSTACK, 74, STACK
        LOCFRAME RSTACK, 2, STACK
        FUNCALL check_memory_map, WrArrayToFlesh
        LOCFRAME CSTACK, 74, STACK
        LOCFRAME RSTACK, 2, STACK
        FUNCALL check_memory_map, RdFromFleshToArr
        LOCFRAME CSTACK, 74, STACK
        LOCFRAME RSTACK, 2, STACK
        FUNCALL check_memory_map, crc_m1
        LOCFRAME CSTACK, 74, STACK
        LOCFRAME RSTACK, 2, STACK
        FUNCALL check_memory_map, crc_m1
        LOCFRAME CSTACK, 74, STACK
        LOCFRAME RSTACK, 2, STACK
        FUNCALL check_memory_map, WrArrayToFlesh
        LOCFRAME CSTACK, 74, STACK
        LOCFRAME RSTACK, 2, STACK
        FUNCALL check_memory_map, RdFromFleshToArr
        LOCFRAME CSTACK, 74, STACK
        LOCFRAME RSTACK, 2, STACK
        FUNCALL check_memory_map, crc_m1
        LOCFRAME CSTACK, 74, STACK
        LOCFRAME RSTACK, 2, STACK
        FUNCALL check_memory_map, crc_m1
        LOCFRAME CSTACK, 74, STACK
        LOCFRAME RSTACK, 2, STACK
        FUNCALL check_memory_map, WrArrayToFlesh
        LOCFRAME CSTACK, 74, STACK
        LOCFRAME RSTACK, 2, STACK
        FUNCALL check_memory_map, RdFromFleshToArr
        LOCFRAME CSTACK, 74, STACK
        LOCFRAME RSTACK, 2, STACK
        FUNCALL check_memory_map, crc_m1
        LOCFRAME CSTACK, 74, STACK
        LOCFRAME RSTACK, 2, STACK
        FUNCALL check_memory_map, crc_m1
        LOCFRAME CSTACK, 74, STACK
        LOCFRAME RSTACK, 2, STACK
        FUNCALL check_memory_map, WrArrayToFlesh
        LOCFRAME CSTACK, 74, STACK
        LOCFRAME RSTACK, 2, STACK
        FUNCALL check_memory_map, RdFromFleshToArr
        LOCFRAME CSTACK, 74, STACK
        LOCFRAME RSTACK, 2, STACK
        FUNCALL check_memory_map, crc_m1
        LOCFRAME CSTACK, 74, STACK
        LOCFRAME RSTACK, 2, STACK
        FUNCALL check_memory_map, crc_m1
        LOCFRAME CSTACK, 74, STACK
        LOCFRAME RSTACK, 2, STACK
        FUNCALL check_memory_map, WrArrayToFlesh
        LOCFRAME CSTACK, 74, STACK
        LOCFRAME RSTACK, 2, STACK
        FUNCALL check_memory_map, RdFromFleshToArr
        LOCFRAME CSTACK, 74, STACK
        LOCFRAME RSTACK, 2, STACK
        FUNCALL check_memory_map, crc_m1
        LOCFRAME CSTACK, 74, STACK
        LOCFRAME RSTACK, 2, STACK
        FUNCALL check_memory_map, crc_m1
        LOCFRAME CSTACK, 74, STACK
        LOCFRAME RSTACK, 2, STACK
        FUNCALL check_memory_map, WrArrayToFlesh
        LOCFRAME CSTACK, 74, STACK
        LOCFRAME RSTACK, 2, STACK
        FUNCALL check_memory_map, RdFromFleshToArr
        LOCFRAME CSTACK, 74, STACK
        LOCFRAME RSTACK, 2, STACK
        FUNCALL check_memory_map, crc_m1
        LOCFRAME CSTACK, 74, STACK
        LOCFRAME RSTACK, 2, STACK
        FUNCALL check_memory_map, crc_m1
        LOCFRAME CSTACK, 74, STACK
        LOCFRAME RSTACK, 2, STACK
        FUNCALL check_memory_map, WrArrayToFlesh
        LOCFRAME CSTACK, 74, STACK
        LOCFRAME RSTACK, 2, STACK
        CALL	?PROLOGUE4_L09
        CFI R27 Frame(CFA_Y, -1)
        CFI R26 Frame(CFA_Y, -2)
        CFI R25 Frame(CFA_Y, -3)
        CFI R24 Frame(CFA_Y, -4)
        CFI CFA_Y Y+4
        SBIW	R29:R28, 63
        CFI CFA_Y Y+67
        SBIW	R29:R28, 7
        CFI CFA_Y Y+74
//  358 unsigned char i,j,buf[70],temp;
//  359 
//  360 
//  361 j=sizeof(map_vers);
//  362  
//  363 RdFromFleshToArr(A_VER_MAP,&buf[0],j+2);
        LDI	R20, 16
        LDI	R21, 0
        MOVW	R19:R18, R29:R28
        LDI	R16, 0
        LDI	R17, 0
        CALL	RdFromFleshToArr
//  364 if(*(unsigned int*)&buf[j]!=crc_m1(&buf[0],j,0xffff))return(1);
        LDD	R24, Y+14
        LDD	R25, Y+15
        LDI	R20, 255
        LDI	R21, 255
        LDI	R18, 14
        LDI	R19, 0
        MOVW	R17:R16, R29:R28
        CALL	crc_m1
        CP	R24, R16
        CPC	R25, R17
        BREQ	??check_memory_map_0
??check_memory_map_1:
        LDI	R16, 1
        RJMP	??check_memory_map_2
//  365 for(i=0;i<j;i++)if(buf[i]==map_vers[i])continue;else return(1);
??check_memory_map_0:
        LDI	R16, 0
        RJMP	??check_memory_map_3
??check_memory_map_4:
        MOV	R18, R16
        LDI	R19, 0
        MOVW	R31:R30, R29:R28
        ADD	R30, R18
        ADC	R31, R19
        LD	R17, Z
        LDI	R30, LOW(map_vers)
        LDI	R31, (map_vers) >> 8
        ADD	R30, R18
        ADC	R31, R19
        LPM	R18, Z
        CP	R17, R18
        BRNE	??check_memory_map_1
        INC	R16
??check_memory_map_3:
        CPI	R16, 14
        BRCS	??check_memory_map_4
//  366 
//  367 
//  368  
//  369   
//  370 RdFromFleshToArr(A_C_GPRS,&buf[0],L_C_GPRS_MAX);
        LDI	R20, 60
        LDI	R21, 0
        MOVW	R19:R18, R29:R28
        LDI	R16, 20
        LDI	R17, 0
        CALL	RdFromFleshToArr
//  371 if(*(unsigned int*)&buf[L_C_GPRS_MAX-2]!=crc_m1(&buf[0],L_C_GPRS_MAX-2,0xffff))
        LDD	R24, Y+58
        LDD	R25, Y+59
        LDI	R20, 255
        LDI	R21, 255
        LDI	R18, 58
        LDI	R19, 0
        MOVW	R17:R16, R29:R28
        CALL	crc_m1
        CP	R24, R16
        CPC	R25, R17
        BREQ	??check_memory_map_5
//  372     {
//  373      
//  374     //çŕăđóçęŕ ďîóěîë÷ŕíčţ
//  375      j=0;
//  376      temp=sizeof(def_apn)-1;
//  377      buf[0]=temp;
        LDI	R16, 15
        ST	Y, R16
//  378      j=1;
        LDI	R18, 1
//  379      for(i=0;i<temp;i++){buf[j]=def_apn[i];j++;}
        LDI	R16, 0
        RJMP	??check_memory_map_6
??check_memory_map_7:
        LDI	R30, LOW(def_apn)
        LDI	R31, (def_apn) >> 8
        ADD	R30, R16
        ADC	R31, R19
        LPM	R17, Z
        MOVW	R31:R30, R27:R26
        ST	Z, R17
        INC	R18
        INC	R16
??check_memory_map_6:
        MOVW	R27:R26, R29:R28
        LDI	R19, 0
        ADD	R26, R18
        ADC	R27, R19
        CPI	R16, 15
        BRCS	??check_memory_map_7
//  380 
//  381      temp=sizeof(def_usname)-1;
//  382      buf[j]=temp;
        LDI	R16, 0
        ST	X, R19
//  383      j++;
        INC	R18
//  384      for(i=0;i<temp;i++){buf[j]=def_usname[i];j++;}
//  385      
//  386      temp=sizeof(def_uspsw)-1;
//  387      buf[j]=temp;
        MOVW	R31:R30, R29:R28
        ADD	R30, R18
        ADC	R31, R19
        ST	Z, R19
//  388      j++;
        INC	R18
//  389      for(i=0;i<temp;i++){buf[j]=def_uspsw[i];j++;}
//  390 
//  391      for(i=0;i<L_C_GPRS_MAX;i++){buf[j]=0;j++;}
        RJMP	??check_memory_map_8
??check_memory_map_9:
        MOVW	R31:R30, R29:R28
        ADD	R30, R18
        ADC	R31, R19
        ST	Z, R19
        INC	R18
        INC	R16
??check_memory_map_8:
        CPI	R16, 60
        BRCS	??check_memory_map_9
//  392 
//  393      *(unsigned int*)&buf[L_C_GPRS_MAX-2]=crc_m1(&buf[0],L_C_GPRS_MAX-2,0xffff);
        LDI	R20, 255
        LDI	R21, 255
        LDI	R18, 58
        MOVW	R17:R16, R29:R28
        CALL	crc_m1
        STD	Y+58, R16
        STD	Y+59, R17
//  394      WrArrayToFlesh(A_C_GPRS, &buf[0],L_C_GPRS_MAX,0,0);
        LDI	R23, 0
        LDI	R22, 0
        LDI	R20, 60
        LDI	R21, 0
        MOVW	R19:R18, R29:R28
        LDI	R16, 20
        LDI	R17, 0
        CALL	WrArrayToFlesh
//  395     }
//  396 
//  397 
//  398 
//  399 RdFromFleshToArr(A_CR_GPRS,&buf[0],L_CR_GPRS_MAX);
??check_memory_map_5:
        LDI	R20, 60
        LDI	R21, 0
        MOVW	R19:R18, R29:R28
        LDI	R16, 80
        LDI	R17, 0
        CALL	RdFromFleshToArr
//  400 if(*(unsigned int*)&buf[L_CR_GPRS_MAX-2]!=crc_m1(&buf[0],L_CR_GPRS_MAX-2,0xffff))
        LDD	R24, Y+58
        LDD	R25, Y+59
        LDI	R20, 255
        LDI	R21, 255
        LDI	R18, 58
        LDI	R19, 0
        MOVW	R17:R16, R29:R28
        CALL	crc_m1
        CP	R24, R16
        CPC	R25, R17
        BRNE	$+2+2
        RJMP	??check_memory_map_10
//  401     {
//  402      
//  403     //çŕăđóçęŕ ďîóěîë÷ŕíčţ
//  404      j=0;
//  405      temp=sizeof(def_apnr)-1;
//  406      buf[0]=temp;
        LDI	R16, 19
        ST	Y, R16
//  407      j=1;
        LDI	R18, 1
//  408      for(i=0;i<temp;i++){buf[j]=def_apnr[i];j++;}
        LDI	R16, 0
        RJMP	??check_memory_map_11
??check_memory_map_12:
        LDI	R30, LOW((def_apn + 16))
        LDI	R31, HIGH((def_apn + 16))
        ADD	R30, R16
        ADC	R31, R19
        LPM	R17, Z
        MOVW	R31:R30, R27:R26
        ST	Z, R17
        INC	R18
        INC	R16
??check_memory_map_11:
        MOVW	R27:R26, R29:R28
        LDI	R19, 0
        ADD	R26, R18
        ADC	R27, R19
        CPI	R16, 19
        BRCS	??check_memory_map_12
//  409 
//  410      temp=sizeof(def_usnamer)-1;
//  411      buf[j]=temp;
        LDI	R16, 7
        ST	X, R16
//  412      j++;
        INC	R18
//  413      for(i=0;i<temp;i++){buf[j]=def_usnamer[i];j++;}
        LDI	R16, 0
        RJMP	??check_memory_map_13
??check_memory_map_14:
        LDI	R30, LOW((map_vers + 14))
        LDI	R31, HIGH((map_vers + 14))
        ADD	R30, R16
        ADC	R31, R19
        LPM	R17, Z
        MOVW	R31:R30, R27:R26
        ST	Z, R17
        INC	R18
        INC	R16
??check_memory_map_13:
        MOVW	R27:R26, R29:R28
        ADD	R26, R18
        ADC	R27, R19
        CPI	R16, 7
        BRCS	??check_memory_map_14
//  414      
//  415      temp=sizeof(def_uspswr)-1;
//  416      buf[j]=temp;
        LDI	R16, 7
        ST	X, R16
//  417      j++;
        INC	R18
//  418      for(i=0;i<temp;i++){buf[j]=def_uspswr[i];j++;}
        LDI	R16, 0
        RJMP	??check_memory_map_15
??check_memory_map_16:
        LDI	R30, LOW((map_vers + 22))
        LDI	R31, HIGH((map_vers + 22))
        ADD	R30, R16
        ADC	R31, R19
        LPM	R17, Z
        MOVW	R31:R30, R29:R28
        ADD	R30, R18
        ADC	R31, R19
        ST	Z, R17
        INC	R18
        INC	R16
??check_memory_map_15:
        CPI	R16, 7
        BRCS	??check_memory_map_16
//  419 
//  420      for(i=0;i<L_CR_GPRS_MAX;i++){buf[j]=0;j++;}
        LDI	R16, 0
        RJMP	??check_memory_map_17
??check_memory_map_18:
        MOVW	R31:R30, R29:R28
        ADD	R30, R18
        ADC	R31, R19
        ST	Z, R19
        INC	R18
        INC	R16
??check_memory_map_17:
        CPI	R16, 60
        BRCS	??check_memory_map_18
//  421 
//  422      *(unsigned int*)&buf[L_CR_GPRS_MAX-2]=crc_m1(&buf[0],L_CR_GPRS_MAX-2,0xffff);
        LDI	R20, 255
        LDI	R21, 255
        LDI	R18, 58
        MOVW	R17:R16, R29:R28
        CALL	crc_m1
        STD	Y+58, R16
        STD	Y+59, R17
//  423      WrArrayToFlesh(A_CR_GPRS, &buf[0],L_CR_GPRS_MAX,0,0);
        LDI	R23, 0
        LDI	R22, 0
        LDI	R20, 60
        LDI	R21, 0
        MOVW	R19:R18, R29:R28
        LDI	R16, 80
        LDI	R17, 0
        CALL	WrArrayToFlesh
//  424     }
//  425 
//  426 
//  427 
//  428 
//  429 
//  430 
//  431 RdFromFleshToArr(A_IP_PAR,&buf[0],L_IP_PAR);
??check_memory_map_10:
        LDI	R20, 10
        LDI	R21, 0
        MOVW	R19:R18, R29:R28
        LDI	R16, 140
        LDI	R17, 0
        CALL	RdFromFleshToArr
//  432 if(*(unsigned int*)&buf[OFS_IP_PAR_CRC]!=crc_m1(&buf[0],L_IP_PAR-2,0xffff))
        LDD	R24, Y+8
        LDD	R25, Y+9
        LDI	R20, 255
        LDI	R21, 255
        LDI	R18, 8
        LDI	R19, 0
        MOVW	R17:R16, R29:R28
        CALL	crc_m1
        CP	R24, R16
        CPC	R25, R17
        BREQ	??check_memory_map_19
//  433   {
//  434  
//  435   
//  436    buf[OFS_IP]=DEF_IP_SRV_0;
        LDI	R16, 88
        ST	Y, R16
//  437    buf[OFS_IP+1]=DEF_IP_SRV_1;
        LDI	R16, 82
        STD	Y+1, R16
//  438    buf[OFS_IP+2]=DEF_IP_SRV_2;
        LDI	R16, 69
        STD	Y+2, R16
//  439    buf[OFS_IP+3]=DEF_IP_SRV_3;
        LDI	R16, 228
        STD	Y+3, R16
//  440    
//  441    *(unsigned int*)&buf[OFS_PORT]=DEF_UDP_PORT;//UDP ďîđň
        LDI	R16, 136
        LDI	R17, 19
        STD	Y+4, R16
        STD	Y+5, R17
//  442    *(unsigned int*)&buf[OFS_NUM]=//ńâîé íîěĺđ ďî óěîë÷ŕíčţ
//  443    
//  444    *(unsigned int*)&buf[OFS_IP_PAR_CRC]=crc_m1(&buf[0],L_IP_PAR-2,0xffff);
        LDI	R20, 255
        LDI	R21, 255
        LDI	R18, 8
        LDI	R19, 0
        MOVW	R17:R16, R29:R28
        CALL	crc_m1
        STD	Y+8, R16
        STD	Y+9, R17
        STD	Y+6, R16
        STD	Y+7, R17
//  445      WrArrayToFlesh(A_IP_PAR, &buf[0],L_IP_PAR,0,0);
        LDI	R23, 0
        LDI	R22, 0
        LDI	R20, 10
        LDI	R21, 0
        MOVW	R19:R18, R29:R28
        LDI	R16, 140
        LDI	R17, 0
        CALL	WrArrayToFlesh
//  446   }
//  447 
//  448 
//  449 RdFromFleshToArr(A_C_PAR,&buf[0],L_C_PAR);
??check_memory_map_19:
        LDI	R20, 14
        LDI	R21, 0
        MOVW	R19:R18, R29:R28
        LDI	R16, 150
        LDI	R17, 0
        CALL	RdFromFleshToArr
//  450 if(*(unsigned int*)&buf[OFS_C_PAR_CRC]!=crc_m1(&buf[0],L_C_PAR-2,0xffff))
        LDD	R24, Y+12
        LDD	R25, Y+13
        LDI	R20, 255
        LDI	R21, 255
        LDI	R18, 12
        LDI	R19, 0
        MOVW	R17:R16, R29:R28
        CALL	crc_m1
        CP	R24, R16
        CPC	R25, R17
        BREQ	??check_memory_map_20
//  451   {
//  452   
//  453   
//  454 
//  455    *(unsigned int*)&buf[OFS_NAT]=DEF_CNTR_NAT;
        LDI	R16, 50
        LDI	R17, 0
        ST	Y, R16
        STD	Y+1, R17
//  456    *(unsigned int*)&buf[OFS_CCH]=DEF_CNTR_LINK;
        LDI	R16, 120
        STD	Y+2, R16
        STD	Y+3, R17
//  457    *(unsigned int*)&buf[OFS_TM_CH]=DEF_TM_CNTR_LINK;
        LDI	R16, 62
        STD	Y+4, R16
        STD	Y+5, R17
//  458    
//  459    *(unsigned int*)&buf[OFS_TM_NO_LINK]=DEF_TM_NO_LINK;       //dobavka
        LDI	R16, 10
        STD	Y+6, R16
        STD	Y+7, R17
//  460    *(unsigned int*)&buf[OFS_TM_LINK_RES]=DEF_TM_LINK_RES;       //dobavka
        LDI	R16, 60
        STD	Y+8, R16
        STD	Y+9, R17
//  461    
//  462    *(unsigned int*)&buf[OFS_NAT_R]=DEF_CNTR_NAT_R;
        LDI	R16, 45
        STD	Y+10, R16
        STD	Y+11, R17
//  463    
//  464    *(unsigned int*)&buf[OFS_C_PAR_CRC]=crc_m1(&buf[0],L_C_PAR-2,0xffff);
        LDI	R20, 255
        LDI	R21, 255
        LDI	R18, 12
        LDI	R19, 0
        MOVW	R17:R16, R29:R28
        CALL	crc_m1
        STD	Y+12, R16
        STD	Y+13, R17
//  465      WrArrayToFlesh(A_C_PAR, &buf[0],L_C_PAR,0,0);
        LDI	R23, 0
        LDI	R22, 0
        LDI	R20, 14
        LDI	R21, 0
        MOVW	R19:R18, R29:R28
        LDI	R16, 150
        LDI	R17, 0
        CALL	WrArrayToFlesh
//  466   }
//  467 
//  468 
//  469 
//  470 RdFromFleshToArr(A_SEQ_PAR,&buf[0],L_SEQ_PAR);
??check_memory_map_20:
        LDI	R20, 11
        LDI	R21, 0
        MOVW	R19:R18, R29:R28
        LDI	R16, 164
        LDI	R17, 0
        CALL	RdFromFleshToArr
//  471 if(*(unsigned int*)&buf[OFS_SEQ_PAR_CRC]!=crc_m1(&buf[0],L_SEQ_PAR-2,0xffff))
        LDD	R24, Y+9
        LDD	R25, Y+10
        LDI	R20, 255
        LDI	R21, 255
        LDI	R18, 9
        LDI	R19, 0
        MOVW	R17:R16, R29:R28
        CALL	crc_m1
        CP	R24, R16
        CPC	R25, R17
        BREQ	??check_memory_map_21
//  472   {
//  473   
//  474   
//  475    buf[OFS_DES_SEQ]=~DEF_DES_SEQ; 
        LDI	R16, 254
        ST	Y, R16
//  476    *(unsigned int*)&buf[OFS_NUM_CL]=DEF_NUM_DST_SEQ;
        LDI	R16, 255
        STD	Y+1, R16
        STD	Y+2, R16
//  477    *(unsigned int*)&buf[OFS_TM_VZ]=DEF_VOL_TM_VZAT;
        LDI	R16, 30
        LDI	R17, 0
        STD	Y+3, R16
        STD	Y+4, R17
//  478    *(unsigned int*)&buf[OFS_TM_CL]=DEF_TM_CNTR_CL;
        LDI	R16, 10
        STD	Y+5, R16
        STD	Y+6, R17
//  479    buf[OFS_TP_TS]=DEF_TP_TS1;
        LDI	R16, 1
        STD	Y+7, R16
//  480    buf[OFS_TP_TS+1]=DEF_TP_TS2;
        STD	Y+8, R16
//  481    *(unsigned int*)&buf[OFS_SEQ_PAR_CRC]=crc_m1(&buf[0],L_SEQ_PAR-2,0xffff);
        LDI	R20, 255
        LDI	R21, 255
        LDI	R18, 9
        LDI	R19, 0
        MOVW	R17:R16, R29:R28
        CALL	crc_m1
        STD	Y+9, R16
        STD	Y+10, R17
//  482      WrArrayToFlesh(A_SEQ_PAR, &buf[0],L_SEQ_PAR,0,0);
        LDI	R23, 0
        LDI	R22, 0
        LDI	R20, 11
        LDI	R21, 0
        MOVW	R19:R18, R29:R28
        LDI	R16, 164
        LDI	R17, 0
        CALL	WrArrayToFlesh
//  483   }
//  484 
//  485 
//  486 
//  487 RdFromFleshToArr(A_PORT_GPRS,&buf[0],L_PORT_GPRS);
??check_memory_map_21:
        LDI	R20, 7
        LDI	R21, 0
        MOVW	R19:R18, R29:R28
        LDI	R16, 175
        LDI	R17, 0
        CALL	RdFromFleshToArr
//  488 if(*(unsigned int*)&buf[OFS_PORT_GPRS_CRC]!=crc_m1(&buf[0],L_PORT_GPRS-2,0xffff))
        LDD	R24, Y+5
        LDD	R25, Y+6
        LDI	R20, 255
        LDI	R21, 255
        LDI	R18, 5
        LDI	R19, 0
        MOVW	R17:R16, R29:R28
        CALL	crc_m1
        CP	R24, R16
        CPC	R25, R17
        BREQ	??check_memory_map_22
//  489   {
//  490  
//  491   
//  492    buf[OFS_GPRS_DES]=~DEF_DES_PORT_GPRS; 
        LDI	R16, 254
        ST	Y, R16
//  493    *(unsigned long int*)&buf[OFS_GPRS_S]=DEF_PORT_GPRS_S;
        LDI	R16, 128
        LDI	R17, 37
        LDI	R19, 0
        STD	Y+1, R16
        STD	Y+2, R17
        STD	Y+3, R19
        STD	Y+4, R19
//  494 
//  495    *(unsigned int*)&buf[OFS_PORT_GPRS_CRC]=crc_m1(&buf[0],L_PORT_GPRS-2,0xffff);
        LDI	R20, 255
        LDI	R21, 255
        LDI	R18, 5
        MOVW	R17:R16, R29:R28
        CALL	crc_m1
        STD	Y+5, R16
        STD	Y+6, R17
//  496      WrArrayToFlesh(A_PORT_GPRS, &buf[0],L_PORT_GPRS,0,0);
        LDI	R23, 0
        LDI	R22, 0
        LDI	R20, 7
        LDI	R21, 0
        MOVW	R19:R18, R29:R28
        LDI	R16, 175
        LDI	R17, 0
        CALL	WrArrayToFlesh
//  497   }
//  498 
//  499 
//  500 
//  501 RdFromFleshToArr(A_C1_GPRS,&buf[0],L_C1_GPRS_MAX);
??check_memory_map_22:
        LDI	R20, 60
        LDI	R21, 0
        MOVW	R19:R18, R29:R28
        LDI	R16, 200
        LDI	R17, 0
        CALL	RdFromFleshToArr
//  502 if(*(unsigned int*)&buf[L_C1_GPRS_MAX-2]!=crc_m1(&buf[0],L_C1_GPRS_MAX-2,0xffff))
        LDD	R24, Y+58
        LDD	R25, Y+59
        LDI	R20, 255
        LDI	R21, 255
        LDI	R18, 58
        LDI	R19, 0
        MOVW	R17:R16, R29:R28
        CALL	crc_m1
        CP	R24, R16
        CPC	R25, R17
        BREQ	??check_memory_map_23
//  503     {
//  504     
//  505     
//  506     
//  507     //çŕăđóçęŕ ďîóěîë÷ŕíčţ
//  508      j=0;
//  509      temp=sizeof(def_apn1)-1;
//  510      buf[0]=temp;
        LDI	R16, 15
        ST	Y, R16
//  511      j=1;
        LDI	R18, 1
//  512      for(i=0;i<temp;i++){buf[j]=def_apn1[i];j++;}
        LDI	R16, 0
        RJMP	??check_memory_map_24
??check_memory_map_25:
        LDI	R30, LOW((def_apn + 36))
        LDI	R31, HIGH((def_apn + 36))
        ADD	R30, R16
        ADC	R31, R19
        LPM	R17, Z
        MOVW	R31:R30, R27:R26
        ST	Z, R17
        INC	R18
        INC	R16
??check_memory_map_24:
        MOVW	R27:R26, R29:R28
        LDI	R19, 0
        ADD	R26, R18
        ADC	R27, R19
        CPI	R16, 15
        BRCS	??check_memory_map_25
//  513 
//  514      temp=sizeof(def_usname1)-1;
//  515      buf[j]=temp;
        LDI	R16, 0
        ST	X, R19
//  516      j++;
        INC	R18
//  517      for(i=0;i<temp;i++){buf[j]=def_usname1[i];j++;}
//  518      
//  519      temp=sizeof(def_uspsw1)-1;
//  520      buf[j]=temp;
        MOVW	R31:R30, R29:R28
        ADD	R30, R18
        ADC	R31, R19
        ST	Z, R19
//  521      j++;
        INC	R18
//  522      for(i=0;i<temp;i++){buf[j]=def_uspsw1[i];j++;}
//  523 
//  524      for(i=0;i<L_C1_GPRS_MAX;i++){buf[j]=0;j++;}
        RJMP	??check_memory_map_26
??check_memory_map_27:
        MOVW	R31:R30, R29:R28
        ADD	R30, R18
        ADC	R31, R19
        ST	Z, R19
        INC	R18
        INC	R16
??check_memory_map_26:
        CPI	R16, 60
        BRCS	??check_memory_map_27
//  525 
//  526      *(unsigned int*)&buf[L_C1_GPRS_MAX-2]=crc_m1(&buf[0],L_C1_GPRS_MAX-2,0xffff);
        LDI	R20, 255
        LDI	R21, 255
        LDI	R18, 58
        MOVW	R17:R16, R29:R28
        CALL	crc_m1
        STD	Y+58, R16
        STD	Y+59, R17
//  527      WrArrayToFlesh(A_C1_GPRS, &buf[0],L_C1_GPRS_MAX,0,0);
        LDI	R23, 0
        LDI	R22, 0
        LDI	R20, 60
        LDI	R21, 0
        MOVW	R19:R18, R29:R28
        LDI	R16, 200
        LDI	R17, 0
        CALL	WrArrayToFlesh
//  528     }
//  529 
//  530 RdFromFleshToArr(A_C2_GPRS,&buf[0],L_C2_GPRS_MAX);
??check_memory_map_23:
        LDI	R20, 60
        LDI	R21, 0
        MOVW	R19:R18, R29:R28
        LDI	R16, 4
        LDI	R17, 1
        CALL	RdFromFleshToArr
//  531 if(*(unsigned int*)&buf[L_C2_GPRS_MAX-2]!=crc_m1(&buf[0],L_C2_GPRS_MAX-2,0xffff))
        LDD	R24, Y+58
        LDD	R25, Y+59
        LDI	R20, 255
        LDI	R21, 255
        LDI	R18, 58
        LDI	R19, 0
        MOVW	R17:R16, R29:R28
        CALL	crc_m1
        CP	R24, R16
        CPC	R25, R17
        BRNE	$+2+2
        RJMP	??check_memory_map_28
//  532     {
//  533     
//  534     
//  535     
//  536     //çŕăđóçęŕ ďîóěîë÷ŕíčţ
//  537      j=0;
//  538      temp=sizeof(def_apn2)-1;
//  539      buf[0]=temp;
        LDI	R16, 19
        ST	Y, R16
//  540      j=1;
        LDI	R18, 1
//  541      for(i=0;i<temp;i++){buf[j]=def_apn2[i];j++;}
        LDI	R16, 0
        RJMP	??check_memory_map_29
??check_memory_map_30:
        LDI	R30, LOW(def_apn2)
        LDI	R31, (def_apn2) >> 8
        ADD	R30, R16
        ADC	R31, R19
        LPM	R17, Z
        MOVW	R31:R30, R27:R26
        ST	Z, R17
        INC	R18
        INC	R16
??check_memory_map_29:
        MOVW	R27:R26, R29:R28
        LDI	R19, 0
        ADD	R26, R18
        ADC	R27, R19
        CPI	R16, 19
        BRCS	??check_memory_map_30
//  542 
//  543      temp=sizeof(def_usname2)-1;
//  544      buf[j]=temp;
        LDI	R16, 7
        ST	X, R16
//  545      j++;
        INC	R18
//  546      for(i=0;i<temp;i++){buf[j]=def_usname2[i];j++;}
        LDI	R16, 0
        RJMP	??check_memory_map_31
??check_memory_map_32:
        LDI	R30, LOW((map_vers + 30))
        LDI	R31, HIGH((map_vers + 30))
        ADD	R30, R16
        ADC	R31, R19
        LPM	R17, Z
        MOVW	R31:R30, R27:R26
        ST	Z, R17
        INC	R18
        INC	R16
??check_memory_map_31:
        MOVW	R27:R26, R29:R28
        ADD	R26, R18
        ADC	R27, R19
        CPI	R16, 7
        BRCS	??check_memory_map_32
//  547      
//  548      temp=sizeof(def_uspsw2)-1;
//  549      buf[j]=temp;
        LDI	R16, 7
        ST	X, R16
//  550      j++;
        INC	R18
//  551      for(i=0;i<temp;i++){buf[j]=def_uspsw2[i];j++;}
        LDI	R16, 0
        RJMP	??check_memory_map_33
??check_memory_map_34:
        LDI	R30, LOW((map_vers + 38))
        LDI	R31, HIGH((map_vers + 38))
        ADD	R30, R16
        ADC	R31, R19
        LPM	R17, Z
        MOVW	R31:R30, R29:R28
        ADD	R30, R18
        ADC	R31, R19
        ST	Z, R17
        INC	R18
        INC	R16
??check_memory_map_33:
        CPI	R16, 7
        BRCS	??check_memory_map_34
//  552 
//  553      for(i=0;i<L_C2_GPRS_MAX;i++){buf[j]=0;j++;}
        LDI	R16, 0
        RJMP	??check_memory_map_35
??check_memory_map_36:
        MOVW	R31:R30, R29:R28
        ADD	R30, R18
        ADC	R31, R19
        ST	Z, R19
        INC	R18
        INC	R16
??check_memory_map_35:
        CPI	R16, 60
        BRCS	??check_memory_map_36
//  554 
//  555      *(unsigned int*)&buf[L_C2_GPRS_MAX-2]=crc_m1(&buf[0],L_C2_GPRS_MAX-2,0xffff);
        LDI	R20, 255
        LDI	R21, 255
        LDI	R18, 58
        MOVW	R17:R16, R29:R28
        CALL	crc_m1
        STD	Y+58, R16
        STD	Y+59, R17
//  556      WrArrayToFlesh(A_C2_GPRS, &buf[0],L_C2_GPRS_MAX,0,0);
        LDI	R23, 0
        LDI	R22, 0
        LDI	R20, 60
        LDI	R21, 0
        MOVW	R19:R18, R29:R28
        LDI	R16, 4
        LDI	R17, 1
        CALL	WrArrayToFlesh
//  557     }
//  558 
//  559 
//  560 RdFromFleshToArr(A_C3_GPRS,&buf[0],L_C3_GPRS_MAX);
??check_memory_map_28:
        LDI	R20, 60
        LDI	R21, 0
        MOVW	R19:R18, R29:R28
        LDI	R16, 64
        LDI	R17, 1
        CALL	RdFromFleshToArr
//  561 if(*(unsigned int*)&buf[L_C3_GPRS_MAX-2]!=crc_m1(&buf[0],L_C3_GPRS_MAX-2,0xffff))
        LDD	R24, Y+58
        LDD	R25, Y+59
        LDI	R20, 255
        LDI	R21, 255
        LDI	R18, 58
        LDI	R19, 0
        MOVW	R17:R16, R29:R28
        CALL	crc_m1
        CP	R24, R16
        CPC	R25, R17
        BREQ	??check_memory_map_37
//  562     {
//  563     
//  564     //çŕăđóçęŕ ďîóěîë÷ŕíčţ
//  565      j=0;
//  566      temp=sizeof(def_apn3)-1;
//  567      buf[0]=temp;
        LDI	R16, 8
        ST	Y, R16
//  568      j=1;
        LDI	R18, 1
//  569      for(i=0;i<temp;i++){buf[j]=def_apn3[i];j++;}
        LDI	R16, 0
        RJMP	??check_memory_map_38
??check_memory_map_39:
        LDI	R30, LOW((map_vers + 46))
        LDI	R31, HIGH((map_vers + 46))
        ADD	R30, R16
        ADC	R31, R19
        LPM	R17, Z
        MOVW	R31:R30, R27:R26
        ST	Z, R17
        INC	R18
        INC	R16
??check_memory_map_38:
        MOVW	R27:R26, R29:R28
        LDI	R19, 0
        ADD	R26, R18
        ADC	R27, R19
        CPI	R16, 8
        BRCS	??check_memory_map_39
//  570 
//  571      temp=sizeof(def_usname3)-1;
//  572      buf[j]=temp;
        LDI	R16, 0
        ST	X, R19
//  573      j++;
        INC	R18
//  574      for(i=0;i<temp;i++){buf[j]=def_usname3[i];j++;}
//  575      
//  576      temp=sizeof(def_uspsw3)-1;
//  577      buf[j]=temp;
        MOVW	R31:R30, R29:R28
        ADD	R30, R18
        ADC	R31, R19
        ST	Z, R19
//  578      j++;
        INC	R18
//  579      for(i=0;i<temp;i++){buf[j]=def_uspsw3[i];j++;}
//  580 
//  581      for(i=0;i<L_C3_GPRS_MAX;i++){buf[j]=0;j++;}
        RJMP	??check_memory_map_40
??check_memory_map_41:
        MOVW	R31:R30, R29:R28
        ADD	R30, R18
        ADC	R31, R19
        ST	Z, R19
        INC	R18
        INC	R16
??check_memory_map_40:
        CPI	R16, 60
        BRCS	??check_memory_map_41
//  582 
//  583      *(unsigned int*)&buf[L_C3_GPRS_MAX-2]=crc_m1(&buf[0],L_C3_GPRS_MAX-2,0xffff);
        LDI	R20, 255
        LDI	R21, 255
        LDI	R18, 58
        MOVW	R17:R16, R29:R28
        CALL	crc_m1
        STD	Y+58, R16
        STD	Y+59, R17
//  584      WrArrayToFlesh(A_C3_GPRS, &buf[0],L_C3_GPRS_MAX,0,0);
        LDI	R23, 0
        LDI	R22, 0
        LDI	R20, 60
        LDI	R21, 0
        MOVW	R19:R18, R29:R28
        LDI	R16, 64
        LDI	R17, 1
        CALL	WrArrayToFlesh
//  585     }
//  586 return(0);  
??check_memory_map_37:
        LDI	R16, 0
??check_memory_map_2:
        ADIW	R29:R28, 63
        CFI CFA_Y Y+11
        ADIW	R29:R28, 7
        CFI CFA_Y Y+4
        LDI	R30, 4
        JMP	?EPILOGUE_B4_L09
        CFI EndBlock cfiBlock3
//  587 }
//  588 
//  589 
//  590 
//  591 

        RSEG CODE:CODE:NOROOT(1)
//  592 void load_par_first(void)
load_par_first:
        CFI Block cfiBlock4 Using cfiCommon0
        CFI Function load_par_first
//  593 {
//  594 if (e_first_on==0xff)
        FUNCALL load_par_first, WrArrayToFlesh
        LOCFRAME RSTACK, 2, STACK
        LDI	R18, 0
        LDI	R19, 0
        MOVW	R21:R20, R19:R18
        CALL	__eeget8_16
        CPI	R16, 255
        BRNE	??load_par_first_0
//  595       {
//  596       __watchdog_reset();
        WDR
//  597       WrArrayToFlesh(BEG_BUF_LOG,0,(L_LOG*6),0x01,0x00);
        LDI	R23, 0
        LDI	R22, 1
        LDI	R20, 240
        LDI	R21, 0
        LDI	R16, 244
        LDI	R17, 1
        CALL	WrArrayToFlesh
//  598       __watchdog_reset();    
        WDR
//  599       e_first_on=0;    
        LDI	R16, 0
        LDI	R18, 0
        LDI	R19, 0
        MOVW	R21:R20, R19:R18
        CALL	__eeput8_16
//  600       }
//  601  if(e_debug>3)e_debug=RG_WORK; //dobavka
??load_par_first_0:
        LDI	R18, 3
        MOVW	R21:R20, R19:R18
        CALL	__eeget8_16
        CPI	R16, 4
        BRCS	??load_par_first_1
        LDI	R16, 0
        MOVW	R21:R20, R19:R18
        CALL	__eeput8_16
//  602  Regim=e_debug;
??load_par_first_1:
        MOVW	R21:R20, R19:R18
        CALL	__eeget8_16
        STS	Regim, R16
//  603 }
        RET
        CFI EndBlock cfiBlock4
//  604 
//  605 
//  606 
//  607 

        RSEG CODE:CODE:NOROOT(1)
//  608 unsigned char check_keys(void)
check_keys:
        CFI Block cfiBlock5 Using cfiCommon0
        CFI Function check_keys
//  609 {
        FUNCALL check_keys, RdFromFleshToArr
        LOCFRAME CSTACK, 4, STACK
        LOCFRAME RSTACK, 2, STACK
        FUNCALL check_keys, crc_m1
        LOCFRAME CSTACK, 4, STACK
        LOCFRAME RSTACK, 2, STACK
        CALL	?PROLOGUE4_L09
        CFI R27 Frame(CFA_Y, -1)
        CFI R26 Frame(CFA_Y, -2)
        CFI R25 Frame(CFA_Y, -3)
        CFI R24 Frame(CFA_Y, -4)
        CFI CFA_Y Y+4
//  610 /*unsigned char i,buf[11];
//  611 
//  612 
//  613 RdFromFleshToArr(A_KEYS,&buf[0],L_KEYS);
//  614 
//  615 if(*(unsigned int*)&buf[L_KEYS-2]==crc_m1(&buf[0],L_KEYS-2,0xffff))
//  616  {
//  617   for(i=0;i<L_KEYS;i++) keys[i]=buf[i];//çŕăđóçęŕ ęëţ÷ĺé â ěŕńńčâ ęëţ÷ĺé  
//  618   return(0);
//  619  }
//  620  
//  621 else return(1);
//  622 */
//  623 
//  624 RdFromFleshToArr(A_KEYS,&keys[0],L_KEYS);
        LDI	R26, LOW(keys)
        LDI	R27, (keys) >> 8
        LDI	R20, 10
        LDI	R21, 0
        MOVW	R19:R18, R27:R26
        LDI	R16, 48
        LDI	R17, 117
        CALL	RdFromFleshToArr
//  625 if(*(unsigned int*)&keys[L_KEYS-2]!=crc_m1(&keys[0],L_KEYS-2,0xffff))return(1);
        ADIW	R27:R26, 8
        LD	R24, X+
        LD	R25, X
        SBIW	R27:R26, 9
        LDI	R20, 255
        LDI	R21, 255
        LDI	R18, 8
        LDI	R19, 0
        MOVW	R17:R16, R27:R26
        CALL	crc_m1
        CP	R24, R16
        CPC	R25, R17
        BREQ	??check_keys_0
        LDI	R16, 1
        RJMP	??check_keys_1
//  626 return(0);
??check_keys_0:
        LDI	R16, 0
??check_keys_1:
        LDI	R30, 4
        JMP	?EPILOGUE_B4_L09
        CFI EndBlock cfiBlock5
//  627 }
//  628 
//  629 
//  630 
//  631 
//  632 ///đŕáîňŕ ń ňĺđěčíŕëîěđŕáîňŕ ń ňĺđěčíŕëîěđŕáîňŕ ń ňĺđěčíŕëîěđŕáîňŕ ń ňĺđěčíŕëîěŕáîňŕ ń ňĺđěčíŕëîěđŕáîňŕ ń ňĺđěčíŕëîěđŕáîňŕ ń ňĺđěčíŕëîěđŕáîňŕ ń ňĺđěčíŕëîě
//  633 

        RSEG CODE:CODE:NOROOT(1)
//  634 void    mov_massiv (char size, char *p)
mov_massiv:
        CFI Block cfiBlock6 Using cfiCommon0
        CFI Function mov_massiv
//  635       {     
        FUNCALL mov_massiv, s_port
        LOCFRAME CSTACK, 4, STACK
        LOCFRAME RSTACK, 2, STACK
        CALL	?PROLOGUE4_L09
        CFI R27 Frame(CFA_Y, -1)
        CFI R26 Frame(CFA_Y, -2)
        CFI R25 Frame(CFA_Y, -3)
        CFI R24 Frame(CFA_Y, -4)
        CFI CFA_Y Y+4
        MOV	R24, R16
        MOVW	R27:R26, R19:R18
        RJMP	??mov_massiv_0
//  636        while(size--) s_port(*p++);
??mov_massiv_1:
        LD	R16, X+
        CALL	s_port
??mov_massiv_0:
        MOV	R16, R24
        DEC	R24
        TST	R16
        BRNE	??mov_massiv_1
//  637       } 
        LDI	R30, 4
        JMP	?EPILOGUE_B4_L09
        CFI EndBlock cfiBlock6
//  638  
//  639 

        RSEG CODE:CODE:NOROOT(1)
//  640  void read_menu(unsigned char index_menu)
read_menu:
        CFI Block cfiBlock7 Using cfiCommon0
        CFI Function read_menu
//  641      {
        FUNCALL read_menu, memset
        LOCFRAME CSTACK, 82, STACK
        LOCFRAME RSTACK, 2, STACK
        FUNCALL read_menu, mov_lf
        LOCFRAME CSTACK, 82, STACK
        LOCFRAME RSTACK, 2, STACK
        FUNCALL read_menu, mov_s
        LOCFRAME CSTACK, 82, STACK
        LOCFRAME RSTACK, 2, STACK
        FUNCALL read_menu, mov_lf
        LOCFRAME CSTACK, 82, STACK
        LOCFRAME RSTACK, 2, STACK
        FUNCALL read_menu, mov_s
        LOCFRAME CSTACK, 82, STACK
        LOCFRAME RSTACK, 2, STACK
        FUNCALL read_menu, mov_lf
        LOCFRAME CSTACK, 82, STACK
        LOCFRAME RSTACK, 2, STACK
        FUNCALL read_menu, mov_s
        LOCFRAME CSTACK, 82, STACK
        LOCFRAME RSTACK, 2, STACK
        FUNCALL read_menu, RdFromFleshToArr
        LOCFRAME CSTACK, 82, STACK
        LOCFRAME RSTACK, 2, STACK
        FUNCALL read_menu, mov_lf
        LOCFRAME CSTACK, 82, STACK
        LOCFRAME RSTACK, 2, STACK
        FUNCALL read_menu, s_port
        LOCFRAME CSTACK, 82, STACK
        LOCFRAME RSTACK, 2, STACK
        FUNCALL read_menu, s_port
        LOCFRAME CSTACK, 82, STACK
        LOCFRAME RSTACK, 2, STACK
        FUNCALL read_menu, s_port
        LOCFRAME CSTACK, 82, STACK
        LOCFRAME RSTACK, 2, STACK
        FUNCALL read_menu, s_port
        LOCFRAME CSTACK, 82, STACK
        LOCFRAME RSTACK, 2, STACK
        FUNCALL read_menu, s_port
        LOCFRAME CSTACK, 82, STACK
        LOCFRAME RSTACK, 2, STACK
        FUNCALL read_menu, s_port
        LOCFRAME CSTACK, 82, STACK
        LOCFRAME RSTACK, 2, STACK
        FUNCALL read_menu, s_port
        LOCFRAME CSTACK, 82, STACK
        LOCFRAME RSTACK, 2, STACK
        FUNCALL read_menu, s_port
        LOCFRAME CSTACK, 82, STACK
        LOCFRAME RSTACK, 2, STACK
        FUNCALL read_menu, s_port
        LOCFRAME CSTACK, 82, STACK
        LOCFRAME RSTACK, 2, STACK
        FUNCALL read_menu, s_port
        LOCFRAME CSTACK, 82, STACK
        LOCFRAME RSTACK, 2, STACK
        FUNCALL read_menu, s_port
        LOCFRAME CSTACK, 82, STACK
        LOCFRAME RSTACK, 2, STACK
        FUNCALL read_menu, s_port
        LOCFRAME CSTACK, 82, STACK
        LOCFRAME RSTACK, 2, STACK
        FUNCALL read_menu, s_port
        LOCFRAME CSTACK, 82, STACK
        LOCFRAME RSTACK, 2, STACK
        FUNCALL read_menu, s_port
        LOCFRAME CSTACK, 82, STACK
        LOCFRAME RSTACK, 2, STACK
        FUNCALL read_menu, s_port
        LOCFRAME CSTACK, 82, STACK
        LOCFRAME RSTACK, 2, STACK
        FUNCALL read_menu, s_port
        LOCFRAME CSTACK, 82, STACK
        LOCFRAME RSTACK, 2, STACK
        FUNCALL read_menu, mov_lf
        LOCFRAME CSTACK, 82, STACK
        LOCFRAME RSTACK, 2, STACK
        FUNCALL read_menu, s_port
        LOCFRAME CSTACK, 82, STACK
        LOCFRAME RSTACK, 2, STACK
        FUNCALL read_menu, RdFromFleshToArr
        LOCFRAME CSTACK, 82, STACK
        LOCFRAME RSTACK, 2, STACK
        FUNCALL read_menu, mov_lf
        LOCFRAME CSTACK, 82, STACK
        LOCFRAME RSTACK, 2, STACK
        FUNCALL read_menu, s_port
        LOCFRAME CSTACK, 82, STACK
        LOCFRAME RSTACK, 2, STACK
        FUNCALL read_menu, s_port
        LOCFRAME CSTACK, 82, STACK
        LOCFRAME RSTACK, 2, STACK
        FUNCALL read_menu, RdFromFleshToArr
        LOCFRAME CSTACK, 82, STACK
        LOCFRAME RSTACK, 2, STACK
        FUNCALL read_menu, mov_lf
        LOCFRAME CSTACK, 82, STACK
        LOCFRAME RSTACK, 2, STACK
        FUNCALL read_menu, sprintf
        LOCFRAME CSTACK, 84, STACK
        LOCFRAME RSTACK, 2, STACK
        FUNCALL read_menu, strlen
        LOCFRAME CSTACK, 82, STACK
        LOCFRAME RSTACK, 2, STACK
        FUNCALL read_menu, mov_massiv
        LOCFRAME CSTACK, 82, STACK
        LOCFRAME RSTACK, 2, STACK
        FUNCALL read_menu, s_port
        LOCFRAME CSTACK, 82, STACK
        LOCFRAME RSTACK, 2, STACK
        FUNCALL read_menu, sprintf
        LOCFRAME CSTACK, 84, STACK
        LOCFRAME RSTACK, 2, STACK
        FUNCALL read_menu, strlen
        LOCFRAME CSTACK, 82, STACK
        LOCFRAME RSTACK, 2, STACK
        FUNCALL read_menu, mov_massiv
        LOCFRAME CSTACK, 82, STACK
        LOCFRAME RSTACK, 2, STACK
        FUNCALL read_menu, s_port
        LOCFRAME CSTACK, 82, STACK
        LOCFRAME RSTACK, 2, STACK
        FUNCALL read_menu, sprintf
        LOCFRAME CSTACK, 84, STACK
        LOCFRAME RSTACK, 2, STACK
        FUNCALL read_menu, strlen
        LOCFRAME CSTACK, 82, STACK
        LOCFRAME RSTACK, 2, STACK
        FUNCALL read_menu, mov_massiv
        LOCFRAME CSTACK, 82, STACK
        LOCFRAME RSTACK, 2, STACK
        FUNCALL read_menu, s_port
        LOCFRAME CSTACK, 82, STACK
        LOCFRAME RSTACK, 2, STACK
        FUNCALL read_menu, sprintf
        LOCFRAME CSTACK, 84, STACK
        LOCFRAME RSTACK, 2, STACK
        FUNCALL read_menu, strlen
        LOCFRAME CSTACK, 82, STACK
        LOCFRAME RSTACK, 2, STACK
        FUNCALL read_menu, mov_massiv
        LOCFRAME CSTACK, 82, STACK
        LOCFRAME RSTACK, 2, STACK
        FUNCALL read_menu, RdFromFleshToArr
        LOCFRAME CSTACK, 82, STACK
        LOCFRAME RSTACK, 2, STACK
        FUNCALL read_menu, mov_lf
        LOCFRAME CSTACK, 82, STACK
        LOCFRAME RSTACK, 2, STACK
        FUNCALL read_menu, mov_s
        LOCFRAME CSTACK, 82, STACK
        LOCFRAME RSTACK, 2, STACK
        FUNCALL read_menu, sprintf
        LOCFRAME CSTACK, 84, STACK
        LOCFRAME RSTACK, 2, STACK
        FUNCALL read_menu, strlen
        LOCFRAME CSTACK, 82, STACK
        LOCFRAME RSTACK, 2, STACK
        FUNCALL read_menu, mov_massiv
        LOCFRAME CSTACK, 82, STACK
        LOCFRAME RSTACK, 2, STACK
        FUNCALL read_menu, RdFromFleshToArr
        LOCFRAME CSTACK, 82, STACK
        LOCFRAME RSTACK, 2, STACK
        FUNCALL read_menu, mov_lf
        LOCFRAME CSTACK, 82, STACK
        LOCFRAME RSTACK, 2, STACK
        FUNCALL read_menu, mov_s
        LOCFRAME CSTACK, 82, STACK
        LOCFRAME RSTACK, 2, STACK
        FUNCALL read_menu, sprintf
        LOCFRAME CSTACK, 84, STACK
        LOCFRAME RSTACK, 2, STACK
        FUNCALL read_menu, strlen
        LOCFRAME CSTACK, 82, STACK
        LOCFRAME RSTACK, 2, STACK
        FUNCALL read_menu, mov_massiv
        LOCFRAME CSTACK, 82, STACK
        LOCFRAME RSTACK, 2, STACK
        FUNCALL read_menu, RdFromFleshToArr
        LOCFRAME CSTACK, 82, STACK
        LOCFRAME RSTACK, 2, STACK
        FUNCALL read_menu, mov_lf
        LOCFRAME CSTACK, 82, STACK
        LOCFRAME RSTACK, 2, STACK
        FUNCALL read_menu, mov_s
        LOCFRAME CSTACK, 82, STACK
        LOCFRAME RSTACK, 2, STACK
        FUNCALL read_menu, sprintf
        LOCFRAME CSTACK, 84, STACK
        LOCFRAME RSTACK, 2, STACK
        FUNCALL read_menu, strlen
        LOCFRAME CSTACK, 82, STACK
        LOCFRAME RSTACK, 2, STACK
        FUNCALL read_menu, mov_massiv
        LOCFRAME CSTACK, 82, STACK
        LOCFRAME RSTACK, 2, STACK
        FUNCALL read_menu, RdFromFleshToArr
        LOCFRAME CSTACK, 82, STACK
        LOCFRAME RSTACK, 2, STACK
        FUNCALL read_menu, mov_lf
        LOCFRAME CSTACK, 82, STACK
        LOCFRAME RSTACK, 2, STACK
        FUNCALL read_menu, mov_s
        LOCFRAME CSTACK, 82, STACK
        LOCFRAME RSTACK, 2, STACK
        FUNCALL read_menu, sprintf
        LOCFRAME CSTACK, 84, STACK
        LOCFRAME RSTACK, 2, STACK
        FUNCALL read_menu, strlen
        LOCFRAME CSTACK, 82, STACK
        LOCFRAME RSTACK, 2, STACK
        FUNCALL read_menu, mov_massiv
        LOCFRAME CSTACK, 82, STACK
        LOCFRAME RSTACK, 2, STACK
        FUNCALL read_menu, RdFromFleshToArr
        LOCFRAME CSTACK, 82, STACK
        LOCFRAME RSTACK, 2, STACK
        FUNCALL read_menu, mov_lf
        LOCFRAME CSTACK, 82, STACK
        LOCFRAME RSTACK, 2, STACK
        FUNCALL read_menu, mov_s
        LOCFRAME CSTACK, 82, STACK
        LOCFRAME RSTACK, 2, STACK
        FUNCALL read_menu, sprintf
        LOCFRAME CSTACK, 84, STACK
        LOCFRAME RSTACK, 2, STACK
        FUNCALL read_menu, strlen
        LOCFRAME CSTACK, 82, STACK
        LOCFRAME RSTACK, 2, STACK
        FUNCALL read_menu, mov_massiv
        LOCFRAME CSTACK, 82, STACK
        LOCFRAME RSTACK, 2, STACK
        FUNCALL read_menu, RdFromFleshToArr
        LOCFRAME CSTACK, 82, STACK
        LOCFRAME RSTACK, 2, STACK
        FUNCALL read_menu, mov_lf
        LOCFRAME CSTACK, 82, STACK
        LOCFRAME RSTACK, 2, STACK
        FUNCALL read_menu, mov_s
        LOCFRAME CSTACK, 82, STACK
        LOCFRAME RSTACK, 2, STACK
        FUNCALL read_menu, sprintf
        LOCFRAME CSTACK, 84, STACK
        LOCFRAME RSTACK, 2, STACK
        FUNCALL read_menu, strlen
        LOCFRAME CSTACK, 82, STACK
        LOCFRAME RSTACK, 2, STACK
        FUNCALL read_menu, mov_massiv
        LOCFRAME CSTACK, 82, STACK
        LOCFRAME RSTACK, 2, STACK
        FUNCALL read_menu, RdFromFleshToArr
        LOCFRAME CSTACK, 82, STACK
        LOCFRAME RSTACK, 2, STACK
        FUNCALL read_menu, mov_lf
        LOCFRAME CSTACK, 82, STACK
        LOCFRAME RSTACK, 2, STACK
        FUNCALL read_menu, mov_s
        LOCFRAME CSTACK, 82, STACK
        LOCFRAME RSTACK, 2, STACK
        FUNCALL read_menu, sprintf
        LOCFRAME CSTACK, 84, STACK
        LOCFRAME RSTACK, 2, STACK
        FUNCALL read_menu, strlen
        LOCFRAME CSTACK, 82, STACK
        LOCFRAME RSTACK, 2, STACK
        FUNCALL read_menu, mov_massiv
        LOCFRAME CSTACK, 82, STACK
        LOCFRAME RSTACK, 2, STACK
        FUNCALL read_menu, RdFromFleshToArr
        LOCFRAME CSTACK, 82, STACK
        LOCFRAME RSTACK, 2, STACK
        FUNCALL read_menu, mov_lf
        LOCFRAME CSTACK, 82, STACK
        LOCFRAME RSTACK, 2, STACK
        FUNCALL read_menu, mov_s
        LOCFRAME CSTACK, 82, STACK
        LOCFRAME RSTACK, 2, STACK
        FUNCALL read_menu, sprintf
        LOCFRAME CSTACK, 84, STACK
        LOCFRAME RSTACK, 2, STACK
        FUNCALL read_menu, strlen
        LOCFRAME CSTACK, 82, STACK
        LOCFRAME RSTACK, 2, STACK
        FUNCALL read_menu, mov_massiv
        LOCFRAME CSTACK, 82, STACK
        LOCFRAME RSTACK, 2, STACK
        FUNCALL read_menu, RdFromFleshToArr
        LOCFRAME CSTACK, 82, STACK
        LOCFRAME RSTACK, 2, STACK
        FUNCALL read_menu, mov_lf
        LOCFRAME CSTACK, 82, STACK
        LOCFRAME RSTACK, 2, STACK
        FUNCALL read_menu, mov_s
        LOCFRAME CSTACK, 82, STACK
        LOCFRAME RSTACK, 2, STACK
        FUNCALL read_menu, s_port
        LOCFRAME CSTACK, 82, STACK
        LOCFRAME RSTACK, 2, STACK
        FUNCALL read_menu, s_port
        LOCFRAME CSTACK, 82, STACK
        LOCFRAME RSTACK, 2, STACK
        FUNCALL read_menu, s_port
        LOCFRAME CSTACK, 82, STACK
        LOCFRAME RSTACK, 2, STACK
        FUNCALL read_menu, s_port
        LOCFRAME CSTACK, 82, STACK
        LOCFRAME RSTACK, 2, STACK
        FUNCALL read_menu, s_port
        LOCFRAME CSTACK, 82, STACK
        LOCFRAME RSTACK, 2, STACK
        FUNCALL read_menu, RdFromFleshToArr
        LOCFRAME CSTACK, 82, STACK
        LOCFRAME RSTACK, 2, STACK
        FUNCALL read_menu, mov_lf
        LOCFRAME CSTACK, 82, STACK
        LOCFRAME RSTACK, 2, STACK
        FUNCALL read_menu, mov_s
        LOCFRAME CSTACK, 82, STACK
        LOCFRAME RSTACK, 2, STACK
        FUNCALL read_menu, sprintf
        LOCFRAME CSTACK, 84, STACK
        LOCFRAME RSTACK, 2, STACK
        FUNCALL read_menu, strlen
        LOCFRAME CSTACK, 82, STACK
        LOCFRAME RSTACK, 2, STACK
        FUNCALL read_menu, mov_massiv
        LOCFRAME CSTACK, 82, STACK
        LOCFRAME RSTACK, 2, STACK
        FUNCALL read_menu, RdFromFleshToArr
        LOCFRAME CSTACK, 82, STACK
        LOCFRAME RSTACK, 2, STACK
        FUNCALL read_menu, mov_lf
        LOCFRAME CSTACK, 82, STACK
        LOCFRAME RSTACK, 2, STACK
        FUNCALL read_menu, mov_s
        LOCFRAME CSTACK, 82, STACK
        LOCFRAME RSTACK, 2, STACK
        FUNCALL read_menu, sprintf
        LOCFRAME CSTACK, 84, STACK
        LOCFRAME RSTACK, 2, STACK
        FUNCALL read_menu, strlen
        LOCFRAME CSTACK, 82, STACK
        LOCFRAME RSTACK, 2, STACK
        FUNCALL read_menu, mov_massiv
        LOCFRAME CSTACK, 82, STACK
        LOCFRAME RSTACK, 2, STACK
        FUNCALL read_menu, RdFromFleshToArr
        LOCFRAME CSTACK, 82, STACK
        LOCFRAME RSTACK, 2, STACK
        FUNCALL read_menu, mov_lf
        LOCFRAME CSTACK, 82, STACK
        LOCFRAME RSTACK, 2, STACK
        FUNCALL read_menu, mov_s
        LOCFRAME CSTACK, 82, STACK
        LOCFRAME RSTACK, 2, STACK
        FUNCALL read_menu, sprintf
        LOCFRAME CSTACK, 84, STACK
        LOCFRAME RSTACK, 2, STACK
        FUNCALL read_menu, strlen
        LOCFRAME CSTACK, 82, STACK
        LOCFRAME RSTACK, 2, STACK
        FUNCALL read_menu, mov_massiv
        LOCFRAME CSTACK, 82, STACK
        LOCFRAME RSTACK, 2, STACK
        FUNCALL read_menu, RdFromFleshToArr
        LOCFRAME CSTACK, 82, STACK
        LOCFRAME RSTACK, 2, STACK
        FUNCALL read_menu, mov_lf
        LOCFRAME CSTACK, 82, STACK
        LOCFRAME RSTACK, 2, STACK
        FUNCALL read_menu, mov_s
        LOCFRAME CSTACK, 82, STACK
        LOCFRAME RSTACK, 2, STACK
        FUNCALL read_menu, sprintf
        LOCFRAME CSTACK, 84, STACK
        LOCFRAME RSTACK, 2, STACK
        FUNCALL read_menu, strlen
        LOCFRAME CSTACK, 82, STACK
        LOCFRAME RSTACK, 2, STACK
        FUNCALL read_menu, mov_massiv
        LOCFRAME CSTACK, 82, STACK
        LOCFRAME RSTACK, 2, STACK
        FUNCALL read_menu, RdFromFleshToArr
        LOCFRAME CSTACK, 82, STACK
        LOCFRAME RSTACK, 2, STACK
        FUNCALL read_menu, mov_lf
        LOCFRAME CSTACK, 82, STACK
        LOCFRAME RSTACK, 2, STACK
        FUNCALL read_menu, mov_s
        LOCFRAME CSTACK, 82, STACK
        LOCFRAME RSTACK, 2, STACK
        FUNCALL read_menu, sprintf
        LOCFRAME CSTACK, 84, STACK
        LOCFRAME RSTACK, 2, STACK
        FUNCALL read_menu, strlen
        LOCFRAME CSTACK, 82, STACK
        LOCFRAME RSTACK, 2, STACK
        FUNCALL read_menu, mov_massiv
        LOCFRAME CSTACK, 82, STACK
        LOCFRAME RSTACK, 2, STACK
        FUNCALL read_menu, mov_lf
        LOCFRAME CSTACK, 82, STACK
        LOCFRAME RSTACK, 2, STACK
        FUNCALL read_menu, mov_s
        LOCFRAME CSTACK, 82, STACK
        LOCFRAME RSTACK, 2, STACK
        FUNCALL read_menu, sprintf
        LOCFRAME CSTACK, 84, STACK
        LOCFRAME RSTACK, 2, STACK
        FUNCALL read_menu, strlen
        LOCFRAME CSTACK, 82, STACK
        LOCFRAME RSTACK, 2, STACK
        FUNCALL read_menu, mov_massiv
        LOCFRAME CSTACK, 82, STACK
        LOCFRAME RSTACK, 2, STACK
        FUNCALL read_menu, RdFromFleshToArr
        LOCFRAME CSTACK, 82, STACK
        LOCFRAME RSTACK, 2, STACK
        FUNCALL read_menu, mov_lf
        LOCFRAME CSTACK, 82, STACK
        LOCFRAME RSTACK, 2, STACK
        FUNCALL read_menu, s_port
        LOCFRAME CSTACK, 82, STACK
        LOCFRAME RSTACK, 2, STACK
        FUNCALL read_menu, s_port
        LOCFRAME CSTACK, 82, STACK
        LOCFRAME RSTACK, 2, STACK
        FUNCALL read_menu, RdFromFleshToArr
        LOCFRAME CSTACK, 82, STACK
        LOCFRAME RSTACK, 2, STACK
        FUNCALL read_menu, mov_lf
        LOCFRAME CSTACK, 82, STACK
        LOCFRAME RSTACK, 2, STACK
        FUNCALL read_menu, s_port
        LOCFRAME CSTACK, 82, STACK
        LOCFRAME RSTACK, 2, STACK
        FUNCALL read_menu, s_port
        LOCFRAME CSTACK, 82, STACK
        LOCFRAME RSTACK, 2, STACK
        FUNCALL read_menu, RdFromFleshToArr
        LOCFRAME CSTACK, 82, STACK
        LOCFRAME RSTACK, 2, STACK
        FUNCALL read_menu, mov_lf
        LOCFRAME CSTACK, 82, STACK
        LOCFRAME RSTACK, 2, STACK
        FUNCALL read_menu, s_port
        LOCFRAME CSTACK, 82, STACK
        LOCFRAME RSTACK, 2, STACK
        FUNCALL read_menu, s_port
        LOCFRAME CSTACK, 82, STACK
        LOCFRAME RSTACK, 2, STACK
        FUNCALL read_menu, mov_lf
        LOCFRAME CSTACK, 82, STACK
        LOCFRAME RSTACK, 2, STACK
        FUNCALL read_menu, mov_s
        LOCFRAME CSTACK, 82, STACK
        LOCFRAME RSTACK, 2, STACK
        FUNCALL read_menu, s_port
        LOCFRAME CSTACK, 82, STACK
        LOCFRAME RSTACK, 2, STACK
        FUNCALL read_menu, s_port
        LOCFRAME CSTACK, 82, STACK
        LOCFRAME RSTACK, 2, STACK
        FUNCALL read_menu, s_port
        LOCFRAME CSTACK, 82, STACK
        LOCFRAME RSTACK, 2, STACK
        FUNCALL read_menu, s_port
        LOCFRAME CSTACK, 82, STACK
        LOCFRAME RSTACK, 2, STACK
        FUNCALL read_menu, mov_lf
        LOCFRAME CSTACK, 82, STACK
        LOCFRAME RSTACK, 2, STACK
        FUNCALL read_menu, mov_s
        LOCFRAME CSTACK, 82, STACK
        LOCFRAME RSTACK, 2, STACK
        FUNCALL read_menu, sprintf
        LOCFRAME CSTACK, 84, STACK
        LOCFRAME RSTACK, 2, STACK
        FUNCALL read_menu, strlen
        LOCFRAME CSTACK, 82, STACK
        LOCFRAME RSTACK, 2, STACK
        FUNCALL read_menu, mov_massiv
        LOCFRAME CSTACK, 82, STACK
        LOCFRAME RSTACK, 2, STACK
        FUNCALL read_menu, mov_lf
        LOCFRAME CSTACK, 82, STACK
        LOCFRAME RSTACK, 2, STACK
        FUNCALL read_menu, mov_s
        LOCFRAME CSTACK, 82, STACK
        LOCFRAME RSTACK, 2, STACK
        FUNCALL read_menu, burst_ds_r
        LOCFRAME CSTACK, 82, STACK
        LOCFRAME RSTACK, 2, STACK
        FUNCALL read_menu, mov_lf
        LOCFRAME CSTACK, 82, STACK
        LOCFRAME RSTACK, 2, STACK
        FUNCALL read_menu, mov_s
        LOCFRAME CSTACK, 82, STACK
        LOCFRAME RSTACK, 2, STACK
        FUNCALL read_menu, sprintf
        LOCFRAME CSTACK, 84, STACK
        LOCFRAME RSTACK, 2, STACK
        FUNCALL read_menu, strlen
        LOCFRAME CSTACK, 82, STACK
        LOCFRAME RSTACK, 2, STACK
        FUNCALL read_menu, mov_massiv
        LOCFRAME CSTACK, 82, STACK
        LOCFRAME RSTACK, 2, STACK
        FUNCALL read_menu, s_port
        LOCFRAME CSTACK, 82, STACK
        LOCFRAME RSTACK, 2, STACK
        FUNCALL read_menu, sprintf
        LOCFRAME CSTACK, 84, STACK
        LOCFRAME RSTACK, 2, STACK
        FUNCALL read_menu, strlen
        LOCFRAME CSTACK, 82, STACK
        LOCFRAME RSTACK, 2, STACK
        FUNCALL read_menu, mov_massiv
        LOCFRAME CSTACK, 82, STACK
        LOCFRAME RSTACK, 2, STACK
        FUNCALL read_menu, s_port
        LOCFRAME CSTACK, 82, STACK
        LOCFRAME RSTACK, 2, STACK
        FUNCALL read_menu, sprintf
        LOCFRAME CSTACK, 84, STACK
        LOCFRAME RSTACK, 2, STACK
        FUNCALL read_menu, strlen
        LOCFRAME CSTACK, 82, STACK
        LOCFRAME RSTACK, 2, STACK
        FUNCALL read_menu, mov_massiv
        LOCFRAME CSTACK, 82, STACK
        LOCFRAME RSTACK, 2, STACK
        FUNCALL read_menu, burst_ds_r
        LOCFRAME CSTACK, 82, STACK
        LOCFRAME RSTACK, 2, STACK
        FUNCALL read_menu, mov_lf
        LOCFRAME CSTACK, 82, STACK
        LOCFRAME RSTACK, 2, STACK
        FUNCALL read_menu, mov_s
        LOCFRAME CSTACK, 82, STACK
        LOCFRAME RSTACK, 2, STACK
        FUNCALL read_menu, sprintf
        LOCFRAME CSTACK, 84, STACK
        LOCFRAME RSTACK, 2, STACK
        FUNCALL read_menu, strlen
        LOCFRAME CSTACK, 82, STACK
        LOCFRAME RSTACK, 2, STACK
        FUNCALL read_menu, mov_massiv
        LOCFRAME CSTACK, 82, STACK
        LOCFRAME RSTACK, 2, STACK
        FUNCALL read_menu, s_port
        LOCFRAME CSTACK, 82, STACK
        LOCFRAME RSTACK, 2, STACK
        FUNCALL read_menu, sprintf
        LOCFRAME CSTACK, 84, STACK
        LOCFRAME RSTACK, 2, STACK
        FUNCALL read_menu, strlen
        LOCFRAME CSTACK, 82, STACK
        LOCFRAME RSTACK, 2, STACK
        FUNCALL read_menu, mov_massiv
        LOCFRAME CSTACK, 82, STACK
        LOCFRAME RSTACK, 2, STACK
        FUNCALL read_menu, s_port
        LOCFRAME CSTACK, 82, STACK
        LOCFRAME RSTACK, 2, STACK
        FUNCALL read_menu, sprintf
        LOCFRAME CSTACK, 84, STACK
        LOCFRAME RSTACK, 2, STACK
        FUNCALL read_menu, strlen
        LOCFRAME CSTACK, 82, STACK
        LOCFRAME RSTACK, 2, STACK
        FUNCALL read_menu, mov_massiv
        LOCFRAME CSTACK, 82, STACK
        LOCFRAME RSTACK, 2, STACK
        FUNCALL read_menu, mov_lf
        LOCFRAME CSTACK, 82, STACK
        LOCFRAME RSTACK, 2, STACK
        FUNCALL read_menu, mov_s
        LOCFRAME CSTACK, 82, STACK
        LOCFRAME RSTACK, 2, STACK
        FUNCALL read_menu, s_port
        LOCFRAME CSTACK, 82, STACK
        LOCFRAME RSTACK, 2, STACK
        FUNCALL read_menu, mov_lf
        LOCFRAME CSTACK, 82, STACK
        LOCFRAME RSTACK, 2, STACK
        FUNCALL read_menu, mov_s
        LOCFRAME CSTACK, 82, STACK
        LOCFRAME RSTACK, 2, STACK
        FUNCALL read_menu, s_port
        LOCFRAME CSTACK, 82, STACK
        LOCFRAME RSTACK, 2, STACK
        FUNCALL read_menu, mov_lf
        LOCFRAME CSTACK, 82, STACK
        LOCFRAME RSTACK, 2, STACK
        FUNCALL read_menu, s_port
        LOCFRAME CSTACK, 82, STACK
        LOCFRAME RSTACK, 2, STACK
        FUNCALL read_menu, RdFromFleshToArr
        LOCFRAME CSTACK, 82, STACK
        LOCFRAME RSTACK, 2, STACK
        FUNCALL read_menu, s_port
        LOCFRAME CSTACK, 82, STACK
        LOCFRAME RSTACK, 2, STACK
        FUNCALL read_menu, s_port
        LOCFRAME CSTACK, 82, STACK
        LOCFRAME RSTACK, 2, STACK
        FUNCALL read_menu, s_port
        LOCFRAME CSTACK, 82, STACK
        LOCFRAME RSTACK, 2, STACK
        FUNCALL read_menu, s_port
        LOCFRAME CSTACK, 82, STACK
        LOCFRAME RSTACK, 2, STACK
        FUNCALL read_menu, s_port
        LOCFRAME CSTACK, 82, STACK
        LOCFRAME RSTACK, 2, STACK
        FUNCALL read_menu, s_port
        LOCFRAME CSTACK, 82, STACK
        LOCFRAME RSTACK, 2, STACK
        FUNCALL read_menu, s_port
        LOCFRAME CSTACK, 82, STACK
        LOCFRAME RSTACK, 2, STACK
        FUNCALL read_menu, s_port
        LOCFRAME CSTACK, 82, STACK
        LOCFRAME RSTACK, 2, STACK
        FUNCALL read_menu, s_port
        LOCFRAME CSTACK, 82, STACK
        LOCFRAME RSTACK, 2, STACK
        FUNCALL read_menu, s_port
        LOCFRAME CSTACK, 82, STACK
        LOCFRAME RSTACK, 2, STACK
        CALL	?PROLOGUE4_L09
        CFI R27 Frame(CFA_Y, -1)
        CFI R26 Frame(CFA_Y, -2)
        CFI R25 Frame(CFA_Y, -3)
        CFI R24 Frame(CFA_Y, -4)
        CFI CFA_Y Y+4
        SBIW	R29:R28, 63
        CFI CFA_Y Y+67
        SBIW	R29:R28, 15
        CFI CFA_Y Y+82
        MOV	R24, R16
//  642    char massiv[8];
//  643    unsigned char buf[70];  
//  644    
//  645    unsigned char i,k; 
//  646     
//  647    
//  648    memset(massiv,0,8); 
        LDI	R20, 8
        LDI	R21, 0
        LDI	R18, 0
        LDI	R19, 0
        MOVW	R17:R16, R29:R28
        CALL	memset
//  649         
//  650         
//  651      switch (index_menu) 
        LDI	R26, LOW(real_time)
        LDI	R27, (real_time) >> 8
        MOV	R16, R24
        LDI	R30, LOW(`?<Jumptable for read_menu>_0`)
        LDI	R31, (`?<Jumptable for read_menu>_0`) >> 16
        OUT	0x3B, R31
        LDI	R31, HIGH(`?<Jumptable for read_menu>_0`)
        JMP	?CV_SWITCH_L06
//  652         
//  653         {
//  654         case 0:
//  655                               
//  656         menu_beg:
//  657                mov_lf();                                   
??read_menu_0:
        CALL	mov_lf
//  658                mov_s ( sizeof(versia),versia);                              
        LDI	R18, LOW((ozu_vers + 14))
        LDI	R19, HIGH((ozu_vers + 14))
??read_menu_1:
        LDI	R16, 14
??read_menu_2:
        CALL	mov_s
        RJMP	??read_menu_3
//  659                mov_lf(); 
//  660                s_port('>');      
//  661                break;                  
//  662         case 1: 
//  663                mov_lf();                                   
??read_menu_4:
        CALL	mov_lf
//  664                mov_s ( sizeof(map_vers),map_vers);                              
        LDI	R18, LOW(map_vers)
        LDI	R19, (map_vers) >> 8
        RJMP	??read_menu_1
//  665                mov_lf(); 
//  666                s_port('>');  
//  667                break;  
//  668         case 2: 
//  669                mov_lf();                                   
??read_menu_5:
        CALL	mov_lf
//  670                mov_s ( sizeof(ozu_vers),ozu_vers);                              
        LDI	R18, LOW(ozu_vers)
        LDI	R19, (ozu_vers) >> 8
        RJMP	??read_menu_1
//  671                mov_lf(); 
//  672                s_port('>');  
//  673                break;
//  674                
//  675         case 3:        
//  676                
//  677                RdFromFleshToArr(A_C_GPRS,&buf[0],L_C_GPRS_MAX);
??read_menu_6:
        LDI	R20, 60
        LDI	R21, 0
        MOVW	R19:R18, R29:R28
        SUBI	R18, 248
        SBCI	R19, 255
        LDI	R16, 20
        LDI	R17, 0
        CALL	RdFromFleshToArr
//  678                mov_lf();
        CALL	mov_lf
//  679                s_port('B');
        LDI	R16, 66
??read_menu_7:
        CALL	s_port
//  680                s_port(':');
        LDI	R16, 58
        CALL	s_port
//  681 povt_1:            
//  682                
//  683                
//  684                if((buf[0]!=0)&&(buf[0]<31))
        LDD	R16, Y+8
        TST	R16
        BRNE	$+2+2
        RJMP	??read_menu_8
        LDD	R16, Y+8
        CPI	R16, 31
        BRCS	$+2+2
        RJMP	??read_menu_8
//  685                {
//  686                 s_port('"');
        LDI	R16, 34
        CALL	s_port
//  687                 i=0;
        LDI	R24, 0
//  688                 k=0;
        RJMP	??read_menu_9
//  689                 while(i<buf[k]){s_port(buf[k+1+i]);i++;}   
??read_menu_10:
        MOVW	R31:R30, R29:R28
        ADIW	R31:R30, 8
        LDI	R25, 0
        ADD	R30, R24
        ADC	R31, R25
        LDD	R16, Z+1
        CALL	s_port
        INC	R24
??read_menu_9:
        LDD	R16, Y+8
        CP	R24, R16
        BRCS	??read_menu_10
//  690                 s_port('"');
        LDI	R16, 34
        CALL	s_port
//  691                
//  692                 s_port('"');           
        LDI	R16, 34
        CALL	s_port
//  693                 k=k+i+1;
        INC	R24
        MOV	R26, R24
//  694                 i=0; 
        LDI	R24, 0
        RJMP	??read_menu_11
//  695                 while(i<buf[k]){s_port(buf[k+1+i]);i++;} 
??read_menu_12:
        MOVW	R31:R30, R29:R28
        ADIW	R31:R30, 8
        MOV	R16, R24
        LDI	R17, 0
        ADD	R16, R26
        ADC	R17, R19
        ADD	R30, R16
        ADC	R31, R17
        LDD	R16, Z+1
        CALL	s_port
        INC	R24
??read_menu_11:
        LDI	R19, 0
        MOVW	R31:R30, R29:R28
        ADIW	R31:R30, 8
        ADD	R30, R26
        ADC	R31, R19
        LD	R16, Z
        CP	R24, R16
        BRCS	??read_menu_12
//  696                 s_port('"');
        LDI	R16, 34
        CALL	s_port
//  697          
//  698                 s_port('"');
        LDI	R16, 34
        CALL	s_port
//  699                 k=k+i+1;
        INC	R24
        ADD	R26, R24
//  700                 i=0; 
        LDI	R24, 0
        RJMP	??read_menu_13
//  701                 while(i<buf[k]){s_port(buf[k+1+i]);i++;}
??read_menu_14:
        MOVW	R31:R30, R29:R28
        ADIW	R31:R30, 8
        MOV	R16, R24
        LDI	R17, 0
        ADD	R16, R26
        ADC	R17, R19
        ADD	R30, R16
        ADC	R31, R17
        LDD	R16, Z+1
        CALL	s_port
        INC	R24
??read_menu_13:
        LDI	R19, 0
        MOVW	R31:R30, R29:R28
        ADIW	R31:R30, 8
        ADD	R30, R26
        ADC	R31, R19
        LD	R16, Z
        CP	R24, R16
        BRCS	??read_menu_14
//  702                 s_port('"');
        LDI	R16, 34
        RJMP	??read_menu_15
//  703                 }else 
//  704                {
//  705                s_port('-');
??read_menu_8:
        LDI	R16, 45
        CALL	s_port
//  706                s_port('-');
        LDI	R16, 45
        CALL	s_port
//  707                s_port('-');
        LDI	R16, 45
        CALL	s_port
//  708                s_port('-');
        LDI	R16, 45
        CALL	s_port
//  709                s_port('-');
        LDI	R16, 45
??read_menu_15:
        CALL	s_port
//  710                }
//  711               
//  712  
//  713                mov_lf(); 
??read_menu_3:
        CALL	mov_lf
//  714                s_port('>');
        LDI	R16, 62
        RJMP	??read_menu_16
//  715                break;        
//  716  
//  717          case 4:        
//  718                
//  719                RdFromFleshToArr(A_CR_GPRS,&buf[0],L_CR_GPRS_MAX);
??read_menu_17:
        LDI	R20, 60
        LDI	R21, 0
        MOVW	R19:R18, R29:R28
        SUBI	R18, 248
        SBCI	R19, 255
        LDI	R16, 80
        LDI	R17, 0
        CALL	RdFromFleshToArr
//  720                mov_lf();
        CALL	mov_lf
//  721                s_port('R');
        LDI	R16, 82
        RJMP	??read_menu_7
//  722                s_port(':');
//  723                goto povt_1;
//  724                
//  725          case 5:    
//  726   
//  727                RdFromFleshToArr(A_IP,&buf[0],4);
??read_menu_18:
        LDI	R20, 4
        LDI	R21, 0
        MOVW	R19:R18, R29:R28
        SUBI	R18, 248
        SBCI	R19, 255
        LDI	R16, 140
        LDI	R17, 0
        CALL	RdFromFleshToArr
//  728                mov_lf();        
        CALL	mov_lf
//  729                               
//  730                sprintf(massiv,"%d\0",buf[0]);
        LDD	R16, Y+8
        LDI	R17, 0
        ST	-Y, R17
        CFI CFA_Y Y+83
        ST	-Y, R16
        CFI CFA_Y Y+84
        LDI	R18, LOW((`?<Constant "%u\\000">` + 4))
        LDI	R19, HIGH((`?<Constant "%u\\000">` + 4))
        MOVW	R17:R16, R29:R28
        SUBI	R16, 254
        SBCI	R17, 255
        CALL	sprintf
        ADIW	R29:R28, 2
        CFI CFA_Y Y+82
//  731                mov_massiv(strlen(massiv),massiv); 
        MOVW	R17:R16, R29:R28
        CALL	strlen
        MOVW	R19:R18, R29:R28
        RCALL	mov_massiv
//  732                s_port('.');     
        LDI	R16, 46
        CALL	s_port
//  733                sprintf(massiv,"%d\0",buf[1]);
        LDD	R16, Y+9
        LDI	R17, 0
        ST	-Y, R17
        CFI CFA_Y Y+83
        ST	-Y, R16
        CFI CFA_Y Y+84
        LDI	R18, LOW((`?<Constant "%u\\000">` + 4))
        LDI	R19, HIGH((`?<Constant "%u\\000">` + 4))
        MOVW	R17:R16, R29:R28
        SUBI	R16, 254
        SBCI	R17, 255
        CALL	sprintf
        ADIW	R29:R28, 2
        CFI CFA_Y Y+82
//  734                mov_massiv(strlen(massiv),massiv); 
        MOVW	R17:R16, R29:R28
        CALL	strlen
        MOVW	R19:R18, R29:R28
        RCALL	mov_massiv
//  735                s_port('.');
        LDI	R16, 46
        CALL	s_port
//  736                sprintf(massiv,"%d\0",buf[2]);
        LDD	R16, Y+10
        LDI	R17, 0
        ST	-Y, R17
        CFI CFA_Y Y+83
        ST	-Y, R16
        CFI CFA_Y Y+84
        LDI	R18, LOW((`?<Constant "%u\\000">` + 4))
        LDI	R19, HIGH((`?<Constant "%u\\000">` + 4))
        MOVW	R17:R16, R29:R28
        SUBI	R16, 254
        SBCI	R17, 255
        CALL	sprintf
        ADIW	R29:R28, 2
        CFI CFA_Y Y+82
//  737                mov_massiv(strlen(massiv),massiv); 
        MOVW	R17:R16, R29:R28
        CALL	strlen
        MOVW	R19:R18, R29:R28
        RCALL	mov_massiv
//  738                s_port('.');
        LDI	R16, 46
        CALL	s_port
//  739                sprintf(massiv,"%d\0",buf[3]);
        LDD	R16, Y+11
??read_menu_19:
        LDI	R17, 0
        ST	-Y, R17
        CFI CFA_Y Y+83
        ST	-Y, R16
        CFI CFA_Y Y+84
        LDI	R18, LOW((`?<Constant "%u\\000">` + 4))
        LDI	R19, HIGH((`?<Constant "%u\\000">` + 4))
??read_menu_20:
        MOVW	R17:R16, R29:R28
        SUBI	R16, 254
        SBCI	R17, 255
        CALL	sprintf
        ADIW	R29:R28, 2
        CFI CFA_Y Y+82
//  740                mov_massiv(strlen(massiv),massiv); 
        MOVW	R17:R16, R29:R28
        CALL	strlen
        MOVW	R19:R18, R29:R28
        RCALL	mov_massiv
        RJMP	??read_menu_3
//  741                
//  742                mov_lf(); 
//  743                s_port('>');
//  744                break;     
//  745      
//  746       case 6:    
//  747   
//  748                RdFromFleshToArr(A_PORT,&buf[0],2);
??read_menu_21:
        LDI	R20, 2
        LDI	R21, 0
        MOVW	R19:R18, R29:R28
        SUBI	R18, 248
        SBCI	R19, 255
        LDI	R16, 144
        LDI	R17, 0
        CALL	RdFromFleshToArr
//  749                mov_lf();        
        CALL	mov_lf
//  750                mov_s ( sizeof(zp_udp),zp_udp);
        LDI	R18, LOW((ozu_vers + 28))
        LDI	R19, HIGH((ozu_vers + 28))
??read_menu_22:
        LDI	R16, 9
??read_menu_23:
        CALL	mov_s
//  751                sprintf(massiv,"%u\0",*(unsigned int*)&buf[0]);         
        LDD	R16, Y+8
        LDD	R17, Y+9
??read_menu_24:
        ST	-Y, R17
        CFI CFA_Y Y+83
        ST	-Y, R16
        CFI CFA_Y Y+84
        LDI	R18, LOW(`?<Constant "%u\\000">`)
        LDI	R19, (`?<Constant "%u\\000">`) >> 8
        RJMP	??read_menu_20
        CFI CFA_Y Y+82
//  752                mov_massiv(strlen(massiv),massiv);      
//  753                mov_lf(); 
//  754                s_port('>');
//  755                break; 
//  756       
//  757      case 7:      
//  758                RdFromFleshToArr(A_NUM,&buf[0],2);
??read_menu_25:
        LDI	R20, 2
        LDI	R21, 0
        MOVW	R19:R18, R29:R28
        SUBI	R18, 248
        SBCI	R19, 255
        LDI	R16, 146
        LDI	R17, 0
        CALL	RdFromFleshToArr
//  759                mov_lf();        
        CALL	mov_lf
//  760                mov_s ( sizeof(zp_num),zp_num);
        LDI	R18, LOW((ozu_vers + 37))
        LDI	R19, HIGH((ozu_vers + 37))
??read_menu_26:
        LDI	R16, 5
        RJMP	??read_menu_23
//  761                sprintf(massiv,"%u\0",*(unsigned int*)&buf[0]);
//  762                mov_massiv(strlen(massiv),massiv);      
//  763                mov_lf(); 
//  764                s_port('>');
//  765                break;               
//  766 
//  767   
//  768         
//  769      case 8:        
//  770                RdFromFleshToArr(A_NAT,&buf[0],2);
??read_menu_27:
        LDI	R20, 2
        LDI	R21, 0
        MOVW	R19:R18, R29:R28
        SUBI	R18, 248
        SBCI	R19, 255
        LDI	R16, 150
        LDI	R17, 0
        CALL	RdFromFleshToArr
//  771                mov_lf();        
        CALL	mov_lf
//  772                mov_s ( sizeof(zp_nat),zp_nat);
        LDI	R18, LOW((ozu_vers + 42))
        LDI	R19, HIGH((ozu_vers + 42))
??read_menu_28:
        LDI	R16, 10
        RJMP	??read_menu_23
//  773                sprintf(massiv,"%u\0",*(unsigned int*)&buf[0]);
//  774                mov_massiv(strlen(massiv),massiv);      
//  775                mov_lf(); 
//  776                s_port('>');
//  777                break;        
//  778       case 9:        
//  779                RdFromFleshToArr(A_NAT_R,&buf[0],2);
??read_menu_29:
        LDI	R20, 2
        LDI	R21, 0
        MOVW	R19:R18, R29:R28
        SUBI	R18, 248
        SBCI	R19, 255
        LDI	R16, 160
        LDI	R17, 0
        CALL	RdFromFleshToArr
//  780                mov_lf();        
        CALL	mov_lf
//  781                mov_s ( sizeof(zp_nat_r),zp_nat_r);
        LDI	R18, LOW((ozu_vers + 52))
        LDI	R19, HIGH((ozu_vers + 52))
        RJMP	??read_menu_28
//  782                sprintf(massiv,"%u\0",*(unsigned int*)&buf[0]);
//  783                mov_massiv(strlen(massiv),massiv);      
//  784                mov_lf(); 
//  785                s_port('>');
//  786                break;    
//  787                
//  788                
//  789          case 10:      
//  790                RdFromFleshToArr(A_CCH,&buf[0],2);
??read_menu_30:
        LDI	R20, 2
        LDI	R21, 0
        MOVW	R19:R18, R29:R28
        SUBI	R18, 248
        SBCI	R19, 255
        LDI	R16, 152
        LDI	R17, 0
        CALL	RdFromFleshToArr
//  791                mov_lf();        
        CALL	mov_lf
//  792                mov_s ( sizeof(zp_link),zp_link);
        LDI	R18, LOW((ozu_vers + 62))
        LDI	R19, HIGH((ozu_vers + 62))
??read_menu_31:
        LDI	R16, 8
        RJMP	??read_menu_23
//  793                sprintf(massiv,"%u\0",*(unsigned int*)&buf[0]);
//  794                mov_massiv(strlen(massiv),massiv);      
//  795                mov_lf(); 
//  796                s_port('>');
//  797                break; 
//  798        case 11:      
//  799                RdFromFleshToArr(A_TM_CH,&buf[0],2);
??read_menu_32:
        LDI	R20, 2
        LDI	R21, 0
        MOVW	R19:R18, R29:R28
        SUBI	R18, 248
        SBCI	R19, 255
        LDI	R16, 154
        LDI	R17, 0
        CALL	RdFromFleshToArr
//  800                mov_lf();        
        CALL	mov_lf
//  801                mov_s ( sizeof(zp_tm_link),zp_tm_link);
        LDI	R18, LOW((ozu_vers + 70))
        LDI	R19, HIGH((ozu_vers + 70))
        RJMP	??read_menu_31
//  802                sprintf(massiv,"%u\0",*(unsigned int*)&buf[0]);
//  803                mov_massiv(strlen(massiv),massiv);      
//  804                mov_lf(); 
//  805                s_port('>');
//  806                break; 
//  807        
//  808              //!!!!!!!!!!!!!!! dobavka!!!!!!!!!!        
//  809        case 12:      
//  810                RdFromFleshToArr(A_TM_NO_LINK,&buf[0],2);
??read_menu_33:
        LDI	R20, 2
        LDI	R21, 0
        MOVW	R19:R18, R29:R28
        SUBI	R18, 248
        SBCI	R19, 255
        LDI	R16, 156
        LDI	R17, 0
        CALL	RdFromFleshToArr
//  811                mov_lf();        
        CALL	mov_lf
//  812                mov_s ( sizeof(zp_tm_no_link),zp_tm_no_link);
        LDI	R18, LOW((ozu_vers + 78))
        LDI	R19, HIGH((ozu_vers + 78))
        RJMP	??read_menu_31
//  813                sprintf(massiv,"%u\0",*(unsigned int*)&buf[0]);
//  814                mov_massiv(strlen(massiv),massiv);      
//  815                mov_lf(); 
//  816                s_port('>');
//  817                break; 
//  818                
//  819                
//  820          case 13:      
//  821                RdFromFleshToArr(A_TM_LINK_RES,&buf[0],2);
??read_menu_34:
        LDI	R20, 2
        LDI	R21, 0
        MOVW	R19:R18, R29:R28
        SUBI	R18, 248
        SBCI	R19, 255
        LDI	R16, 158
        LDI	R17, 0
        CALL	RdFromFleshToArr
//  822                mov_lf();        
        CALL	mov_lf
//  823                mov_s ( sizeof(zp_tm_link_res),zp_tm_link_res);
        LDI	R18, LOW((ozu_vers + 86))
        LDI	R19, HIGH((ozu_vers + 86))
        RJMP	??read_menu_31
//  824                sprintf(massiv,"%u\0",*(unsigned int*)&buf[0]);
//  825                mov_massiv(strlen(massiv),massiv);      
//  826                mov_lf(); 
//  827                s_port('>');
//  828                break;        
//  829         //EEEEEEEEEEEEEEEEE dobavka                
//  830                
//  831                
//  832                
//  833        case 14: 
//  834                   RdFromFleshToArr(A_DES_SEQ,&buf[0],1);
??read_menu_35:
        LDI	R20, 1
        LDI	R21, 0
        MOVW	R19:R18, R29:R28
        SUBI	R18, 248
        SBCI	R19, 255
        LDI	R16, 164
        LDI	R17, 0
        CALL	RdFromFleshToArr
//  835                   mov_lf(); 
        CALL	mov_lf
//  836                   mov_s ( sizeof(zp_des_seq),zp_des_seq);   
        LDI	R18, LOW((ozu_vers + 118))
        LDI	R19, HIGH((ozu_vers + 118))
        LDI	R16, 9
        CALL	mov_s
//  837                   if(buf[0]==1)
        LDD	R16, Y+8
        CPI	R16, 1
        LDI	R16, 111
        BRNE	??read_menu_36
//  838                     {
//  839                     s_port('o');
        CALL	s_port
//  840                     s_port('n');
        LDI	R16, 110
        RJMP	??read_menu_15
//  841                     } 
//  842                     else
//  843                      { 
//  844                         s_port('o');
??read_menu_36:
        CALL	s_port
//  845                         s_port('f');
        LDI	R16, 102
        CALL	s_port
//  846                         s_port('f');
        LDI	R16, 102
        RJMP	??read_menu_15
//  847                      }
//  848                   mov_lf(); 
//  849                   s_port('>');                 
//  850                   break;
//  851  
//  852        case 15:     
//  853    
//  854                RdFromFleshToArr(A_NUM_CL,&buf[0],2);
??read_menu_37:
        LDI	R20, 2
        LDI	R21, 0
        MOVW	R19:R18, R29:R28
        SUBI	R18, 248
        SBCI	R19, 255
        LDI	R16, 165
        LDI	R17, 0
        CALL	RdFromFleshToArr
//  855                mov_lf();        
        CALL	mov_lf
//  856                mov_s ( sizeof(zp_num_seq),zp_num_seq);
        LDI	R18, LOW((ozu_vers + 110))
        LDI	R19, HIGH((ozu_vers + 110))
        RJMP	??read_menu_31
//  857                sprintf(massiv,"%u\0",*(unsigned int*)&buf[0]);
//  858                mov_massiv(strlen(massiv),massiv);      
//  859                mov_lf(); 
//  860                s_port('>');
//  861                break; 
//  862       
//  863       
//  864       case 16:     
//  865   
//  866                RdFromFleshToArr(A_TM_VZ,&buf[0],2);
??read_menu_38:
        LDI	R20, 2
        LDI	R21, 0
        MOVW	R19:R18, R29:R28
        SUBI	R18, 248
        SBCI	R19, 255
        LDI	R16, 167
        LDI	R17, 0
        CALL	RdFromFleshToArr
//  867                mov_lf();        
        CALL	mov_lf
//  868                mov_s ( sizeof(zp_tm_vz),zp_tm_vz);
        LDI	R18, LOW((ozu_vers + 94))
        LDI	R19, HIGH((ozu_vers + 94))
        RJMP	??read_menu_22
//  869                sprintf(massiv,"%u\0",*(unsigned int*)&buf[0]);
//  870                mov_massiv(strlen(massiv),massiv);      
//  871                mov_lf(); 
//  872                s_port('>');
//  873                break; 
//  874  
//  875      case 17:     
//  876   
//  877                RdFromFleshToArr(A_TM_CL,&buf[0],2);
??read_menu_39:
        LDI	R20, 2
        LDI	R21, 0
        MOVW	R19:R18, R29:R28
        SUBI	R18, 248
        SBCI	R19, 255
        LDI	R16, 169
        LDI	R17, 0
        CALL	RdFromFleshToArr
//  878                mov_lf();        
        CALL	mov_lf
//  879                mov_s ( sizeof(zp_tm_cl),zp_tm_cl);
        LDI	R18, LOW((ozu_vers + 103))
        LDI	R19, HIGH((ozu_vers + 103))
        LDI	R16, 7
        RJMP	??read_menu_23
//  880                sprintf(massiv,"%u\0",*(unsigned int*)&buf[0]);
//  881                mov_massiv(strlen(massiv),massiv);      
//  882                mov_lf(); 
//  883                s_port('>');
//  884                break; 
//  885                
//  886      case 18:  RdFromFleshToArr(A_TP_TS,&buf[0],1);
??read_menu_40:
        LDI	R20, 1
        LDI	R21, 0
        MOVW	R19:R18, R29:R28
        SUBI	R18, 248
        SBCI	R19, 255
        LDI	R16, 171
        LDI	R17, 0
        CALL	RdFromFleshToArr
//  887                mov_lf();        
        CALL	mov_lf
//  888                mov_s ( sizeof(zp_type_tc1),zp_type_tc1);
        LDI	R18, LOW((ozu_vers + 127))
        LDI	R19, HIGH((ozu_vers + 127))
??read_menu_41:
        LDI	R16, 10
        CALL	mov_s
//  889                sprintf(massiv,"%u\0",*(unsigned char*)&buf[0]);
        LDD	R16, Y+8
        LDI	R17, 0
        RJMP	??read_menu_24
//  890                mov_massiv(strlen(massiv),massiv);      
//  891                mov_lf(); 
//  892                s_port('>');
//  893                break;
//  894        
//  895     case 19:  RdFromFleshToArr(A_TP_TS+1,&buf[0],1);
??read_menu_42:
        LDI	R20, 1
        LDI	R21, 0
        MOVW	R19:R18, R29:R28
        SUBI	R18, 248
        SBCI	R19, 255
        LDI	R16, 172
        LDI	R17, 0
        CALL	RdFromFleshToArr
//  896                mov_lf();        
        CALL	mov_lf
//  897                mov_s ( sizeof(zp_type_tc2),zp_type_tc2);
        LDI	R18, LOW((ozu_vers + 137))
        LDI	R19, HIGH((ozu_vers + 137))
        RJMP	??read_menu_41
//  898                sprintf(massiv,"%u\0",*(unsigned char*)&buf[0]);
//  899                mov_massiv(strlen(massiv),massiv);      
//  900                mov_lf(); 
//  901                s_port('>'); 
//  902                break;
//  903                         
//  904  
//  905     case 20: 
//  906            
//  907                   buf[0]=e_debug;
??read_menu_43:
        LDI	R19, 0
        LDI	R20, 3
        LDI	R21, 0
        CALL	__eeget8_16
        STD	Y+8, R16
//  908                   buf[1]=0;
        STD	Y+9, R19
//  909                   mov_lf(); 
        CALL	mov_lf
//  910                   mov_s ( sizeof(zp_dbg),zp_dbg);
        LDI	R18, LOW((ozu_vers + 147))
        LDI	R19, HIGH((ozu_vers + 147))
        RJMP	??read_menu_26
//  911                   sprintf(massiv,"%u\0",*(unsigned int*)&buf[0]);
//  912                   mov_massiv(strlen(massiv),massiv); 
//  913                   mov_lf(); 
//  914                   s_port('>');                 
//  915                   break;
//  916         
//  917     
//  918       
//  919       case 21:      
//  920                RdFromFleshToArr(A_C1_GPRS,&buf[0],L_C1_GPRS_MAX);
??read_menu_44:
        LDI	R20, 60
        LDI	R21, 0
        MOVW	R19:R18, R29:R28
        SUBI	R18, 248
        SBCI	R19, 255
        LDI	R16, 200
        LDI	R17, 0
        CALL	RdFromFleshToArr
//  921                mov_lf();
        CALL	mov_lf
//  922                s_port('1');
        LDI	R16, 49
        RJMP	??read_menu_7
//  923                s_port(':');
//  924                goto povt_1;
//  925                          
//  926         
//  927       case 22:  
//  928                RdFromFleshToArr(A_C2_GPRS,&buf[0],L_C2_GPRS_MAX);
??read_menu_45:
        LDI	R20, 60
        LDI	R21, 0
        MOVW	R19:R18, R29:R28
        SUBI	R18, 248
        SBCI	R19, 255
        LDI	R16, 4
        LDI	R17, 1
        CALL	RdFromFleshToArr
//  929                mov_lf(); 
        CALL	mov_lf
//  930                s_port('2');
        LDI	R16, 50
        RJMP	??read_menu_7
//  931                s_port(':');   
//  932                goto povt_1;  
//  933  
//  934       case 23:      
//  935               RdFromFleshToArr(A_C3_GPRS,&buf[0],L_C3_GPRS_MAX);
??read_menu_46:
        LDI	R20, 60
        LDI	R21, 0
        MOVW	R19:R18, R29:R28
        SUBI	R18, 248
        SBCI	R19, 255
        LDI	R16, 64
        LDI	R17, 1
        CALL	RdFromFleshToArr
//  936               mov_lf();
        CALL	mov_lf
//  937               s_port('3');
        LDI	R16, 51
        RJMP	??read_menu_7
//  938               s_port(':');
//  939               goto povt_1; 
//  940     
//  941      case 24:
//  942                 mov_lf();
??read_menu_47:
        CALL	mov_lf
//  943                 mov_s ( sizeof(zp_ts1),zp_ts1);
        LDI	R18, LOW((ozu_vers + 152))
        LDI	R19, HIGH((ozu_vers + 152))
        LDI	R16, 7
        CALL	mov_s
//  944                 if(struct_tcc1.tek_pin==1)s_port('0');else s_port('1');
        LDI	R30, LOW(struct_tcc1)
        LDI	R31, (struct_tcc1) >> 8
        LD	R16, Z
        SBRS	R16, 0
        RJMP	??read_menu_48
        LDI	R16, 48
        RJMP	??read_menu_49
??read_menu_48:
        LDI	R16, 49
??read_menu_49:
        CALL	s_port
//  945                 if(struct_tcc2.tek_pin==1)s_port('0');else s_port('1');               
        LDI	R30, LOW(struct_tcc2)
        LDI	R31, (struct_tcc2) >> 8
        LD	R16, Z
        SBRS	R16, 0
        RJMP	??read_menu_50
        LDI	R16, 48
        RJMP	??read_menu_15
??read_menu_50:
        LDI	R16, 49
        RJMP	??read_menu_15
//  946                 mov_lf(); 
//  947                 s_port('>');  
//  948                 break;
//  949      case 25:
//  950 
//  951                 mov_lf();
??read_menu_51:
        CALL	mov_lf
//  952                 mov_s ( sizeof(zp_temp),zp_temp);
        LDI	R18, LOW((ozu_vers + 159))
        LDI	R19, HIGH((ozu_vers + 159))
        LDI	R16, 3
        CALL	mov_s
//  953                 sprintf(massiv,"%u\0",temperatura);         
        LDI	R30, LOW(temperatura)
        LDI	R31, (temperatura) >> 8
        LD	R16, Z
        LDD	R17, Z+1
        RJMP	??read_menu_24
//  954                 mov_massiv(strlen(massiv),massiv); 
//  955                 mov_lf(); 
//  956                 s_port('>');
//  957                 break;
//  958                 
//  959     case 26:     
//  960   
//  961                mov_lf();        
??read_menu_52:
        CALL	mov_lf
//  962                mov_s ( sizeof(zp_vosst),zp_vosst);     
        LDI	R18, LOW((ozu_vers + 162))
        LDI	R19, HIGH((ozu_vers + 162))
        LDI	R16, 9
        RJMP	??read_menu_2
//  963                mov_lf(); 
//  964                s_port('>');
//  965                break; 
//  966    case 27:
//  967            burst_ds_r();
??read_menu_53:
        CALL	burst_ds_r
//  968            mov_lf();                                   
        CALL	mov_lf
//  969            mov_s ( sizeof(zp_time),zp_time);                              
        LDI	R18, LOW((ozu_vers + 171))
        LDI	R19, HIGH((ozu_vers + 171))
        LDI	R16, 6
        CALL	mov_s
//  970            i=(unsigned char)real_time.r_hor;
//  971            sprintf(massiv,"%d\0",i);
        MOVW	R31:R30, R27:R26
        LDD	R16, Z+2
        LDI	R17, 0
        ST	-Y, R17
        CFI CFA_Y Y+83
        ST	-Y, R16
        CFI CFA_Y Y+84
        LDI	R18, LOW((`?<Constant "%u\\000">` + 4))
        LDI	R19, HIGH((`?<Constant "%u\\000">` + 4))
        MOVW	R17:R16, R29:R28
        SUBI	R16, 254
        SBCI	R17, 255
        CALL	sprintf
        ADIW	R29:R28, 2
        CFI CFA_Y Y+82
//  972            mov_massiv(strlen(massiv),massiv);
        MOVW	R17:R16, R29:R28
        CALL	strlen
        MOVW	R19:R18, R29:R28
        RCALL	mov_massiv
//  973            s_port(':');
        LDI	R16, 58
        CALL	s_port
//  974            i=(unsigned char)real_time.r_min;
//  975            sprintf(massiv,"%d\0",i);
        MOVW	R31:R30, R27:R26
        LDD	R16, Z+1
        LDI	R17, 0
        ST	-Y, R17
        CFI CFA_Y Y+83
        ST	-Y, R16
        CFI CFA_Y Y+84
        LDI	R18, LOW((`?<Constant "%u\\000">` + 4))
        LDI	R19, HIGH((`?<Constant "%u\\000">` + 4))
        MOVW	R17:R16, R29:R28
        SUBI	R16, 254
        SBCI	R17, 255
        CALL	sprintf
        ADIW	R29:R28, 2
        CFI CFA_Y Y+82
//  976            mov_massiv(strlen(massiv),massiv);
        MOVW	R17:R16, R29:R28
        CALL	strlen
        MOVW	R19:R18, R29:R28
        RCALL	mov_massiv
//  977            s_port(':');
        LDI	R16, 58
        CALL	s_port
//  978            i=(unsigned char)real_time.r_sec;
//  979            sprintf(massiv,"%d\0",i);
        LD	R16, X
        RJMP	??read_menu_19
//  980            mov_massiv(strlen(massiv),massiv);
//  981            mov_lf(); 
//  982            s_port('>'); 
//  983            break; 
//  984  
//  985    case 28:
//  986            burst_ds_r();
??read_menu_54:
        CALL	burst_ds_r
//  987            mov_lf();                                   
        CALL	mov_lf
//  988            mov_s ( sizeof(zp_date),zp_date);                              
        LDI	R18, LOW((ozu_vers + 177))
        LDI	R19, HIGH((ozu_vers + 177))
        LDI	R16, 6
        CALL	mov_s
//  989            i=(unsigned char)real_time.r_date;
//  990            sprintf(massiv,"%d\0",i);
        MOVW	R31:R30, R27:R26
        LDD	R16, Z+4
        LDI	R17, 0
        ST	-Y, R17
        CFI CFA_Y Y+83
        ST	-Y, R16
        CFI CFA_Y Y+84
        LDI	R18, LOW((`?<Constant "%u\\000">` + 4))
        LDI	R19, HIGH((`?<Constant "%u\\000">` + 4))
        MOVW	R17:R16, R29:R28
        SUBI	R16, 254
        SBCI	R17, 255
        CALL	sprintf
        ADIW	R29:R28, 2
        CFI CFA_Y Y+82
//  991            mov_massiv(strlen(massiv),massiv);
        MOVW	R17:R16, R29:R28
        CALL	strlen
        MOVW	R19:R18, R29:R28
        RCALL	mov_massiv
//  992            s_port('.'); 
        LDI	R16, 46
        CALL	s_port
//  993            i=(unsigned char)real_time.r_month;
//  994            sprintf(massiv,"%d\0",i);
        MOVW	R31:R30, R27:R26
        LDD	R16, Z+5
        LDI	R17, 0
        ST	-Y, R17
        CFI CFA_Y Y+83
        ST	-Y, R16
        CFI CFA_Y Y+84
        LDI	R18, LOW((`?<Constant "%u\\000">` + 4))
        LDI	R19, HIGH((`?<Constant "%u\\000">` + 4))
        MOVW	R17:R16, R29:R28
        SUBI	R16, 254
        SBCI	R17, 255
        CALL	sprintf
        ADIW	R29:R28, 2
        CFI CFA_Y Y+82
//  995            mov_massiv(strlen(massiv),massiv);
        MOVW	R17:R16, R29:R28
        CALL	strlen
        MOVW	R19:R18, R29:R28
        RCALL	mov_massiv
//  996            s_port('.');
        LDI	R16, 46
        CALL	s_port
//  997            i=(unsigned char)real_time.r_year;
//  998            sprintf(massiv,"%d\0",i);
        MOVW	R31:R30, R27:R26
        LDD	R16, Z+6
        RJMP	??read_menu_19
//  999            mov_massiv(strlen(massiv),massiv);
// 1000            mov_lf(); 
// 1001            s_port('>'); 
// 1002            break;            
// 1003             
// 1004   case 29:      
// 1005             mov_lf(); 
??read_menu_55:
        CALL	mov_lf
// 1006             mov_s ( sizeof(zp_log_file),zp_log_file);                                  
        LDI	R18, LOW((ozu_vers + 183))
        LDI	R19, HIGH((ozu_vers + 183))
        LDI	R16, 10
        CALL	mov_s
// 1007             for(i=0;i<=6;i++) s_port('-');                                          
        LDI	R24, 0
??read_menu_56:
        CPI	R24, 7
        BRCS	$+2+2
        RJMP	??read_menu_3
        LDI	R16, 45
        CALL	s_port
        INC	R24
        RJMP	??read_menu_56
// 1008             mov_lf(); 
// 1009             s_port('>');     
// 1010             break;          
// 1011   case 30:  
// 1012             mov_lf(); 
??read_menu_57:
        CALL	mov_lf
// 1013             mov_s ( sizeof(zp_keys),zp_keys);                                  
        LDI	R18, LOW((ozu_vers + 193))
        LDI	R19, HIGH((ozu_vers + 193))
        LDI	R16, 9
        CALL	mov_s
// 1014             for(i=0;i<=6;i++) s_port('-');                                          
        LDI	R24, 0
        RJMP	??read_menu_58
??read_menu_59:
        LDI	R16, 45
        CALL	s_port
        INC	R24
??read_menu_58:
        CPI	R24, 7
        BRCS	??read_menu_59
// 1015             mov_lf(); 
        CALL	mov_lf
// 1016             s_port('>');  
        LDI	R16, 62
        CALL	s_port
// 1017             RdFromFleshToArr(A_KEYS,&buf[0],L_KEYS); 
        LDI	R20, 10
        LDI	R21, 0
        MOVW	R19:R18, R29:R28
        SUBI	R18, 248
        SBCI	R19, 255
        LDI	R16, 48
        LDI	R17, 117
        CALL	RdFromFleshToArr
// 1018             s_port(buf[0]);
        LDD	R16, Y+8
        CALL	s_port
// 1019             s_port(buf[1]);
        LDD	R16, Y+9
        CALL	s_port
// 1020             s_port(buf[2]);
        LDD	R16, Y+10
        CALL	s_port
// 1021             s_port(buf[3]);
        LDD	R16, Y+11
        CALL	s_port
// 1022             s_port(buf[4]);
        LDD	R16, Y+12
        CALL	s_port
// 1023             s_port(buf[5]);
        LDD	R16, Y+13
        CALL	s_port
// 1024             s_port(buf[6]);
        LDD	R16, Y+14
        CALL	s_port
// 1025             s_port(buf[7]);
        LDD	R16, Y+15
        CALL	s_port
// 1026             s_port(buf[8]);
        LDD	R16, Y+16
        CALL	s_port
// 1027             s_port(buf[9]);
        LDD	R16, Y+17
??read_menu_16:
        CALL	s_port
// 1028             break;       
// 1029             
// 1030   default: goto menu_beg;                    
// 1031                                  
// 1032      }
// 1033   vol_tx_ppp=0;
        LDI	R16, 0
        LDI	R30, LOW(vol_tx_ppp)
        LDI	R31, (vol_tx_ppp) >> 8
        ST	Z, R16
        STD	Z+1, R16
// 1034   }
        ADIW	R29:R28, 63
        CFI CFA_Y Y+19
        ADIW	R29:R28, 15
        CFI CFA_Y Y+4
        LDI	R30, 4
        JMP	?EPILOGUE_B4_L09
        CFI EndBlock cfiBlock7
// 1035 
// 1036 
// 1037 
// 1038 

        RSEG CODE:CODE:NOROOT(1)
// 1039   void write_menu(unsigned char index_menu)
write_menu:
        CFI Block cfiBlock8 Using cfiCommon0
        CFI Function write_menu
// 1040      {
        FUNCALL write_menu, RdFromFleshToArr
        LOCFRAME CSTACK, 82, STACK
        LOCFRAME RSTACK, 2, STACK
        FUNCALL write_menu, mov_s
        LOCFRAME CSTACK, 82, STACK
        LOCFRAME RSTACK, 2, STACK
        FUNCALL write_menu, RdFromFleshToArr
        LOCFRAME CSTACK, 82, STACK
        LOCFRAME RSTACK, 2, STACK
        FUNCALL write_menu, RdFromFleshToArr
        LOCFRAME CSTACK, 82, STACK
        LOCFRAME RSTACK, 2, STACK
        FUNCALL write_menu, crc_m1
        LOCFRAME CSTACK, 82, STACK
        LOCFRAME RSTACK, 2, STACK
        FUNCALL write_menu, WrArrayToFlesh
        LOCFRAME CSTACK, 82, STACK
        LOCFRAME RSTACK, 2, STACK
        FUNCALL write_menu, RdFromFleshToArr
        LOCFRAME CSTACK, 82, STACK
        LOCFRAME RSTACK, 2, STACK
        FUNCALL write_menu, crc_m1
        LOCFRAME CSTACK, 82, STACK
        LOCFRAME RSTACK, 2, STACK
        FUNCALL write_menu, WrArrayToFlesh
        LOCFRAME CSTACK, 82, STACK
        LOCFRAME RSTACK, 2, STACK
        FUNCALL write_menu, RdFromFleshToArr
        LOCFRAME CSTACK, 82, STACK
        LOCFRAME RSTACK, 2, STACK
        FUNCALL write_menu, RdFromFleshToArr
        LOCFRAME CSTACK, 82, STACK
        LOCFRAME RSTACK, 2, STACK
        FUNCALL write_menu, RdFromFleshToArr
        LOCFRAME CSTACK, 82, STACK
        LOCFRAME RSTACK, 2, STACK
        FUNCALL write_menu, atol
        LOCFRAME CSTACK, 82, STACK
        LOCFRAME RSTACK, 2, STACK
        FUNCALL write_menu, atol
        LOCFRAME CSTACK, 82, STACK
        LOCFRAME RSTACK, 2, STACK
        FUNCALL write_menu, atol
        LOCFRAME CSTACK, 82, STACK
        LOCFRAME RSTACK, 2, STACK
        FUNCALL write_menu, atol
        LOCFRAME CSTACK, 82, STACK
        LOCFRAME RSTACK, 2, STACK
        FUNCALL write_menu, crc_m1
        LOCFRAME CSTACK, 82, STACK
        LOCFRAME RSTACK, 2, STACK
        FUNCALL write_menu, WrArrayToFlesh
        LOCFRAME CSTACK, 82, STACK
        LOCFRAME RSTACK, 2, STACK
        FUNCALL write_menu, atol
        LOCFRAME CSTACK, 82, STACK
        LOCFRAME RSTACK, 2, STACK
        FUNCALL write_menu, RdFromFleshToArr
        LOCFRAME CSTACK, 82, STACK
        LOCFRAME RSTACK, 2, STACK
        FUNCALL write_menu, crc_m1
        LOCFRAME CSTACK, 82, STACK
        LOCFRAME RSTACK, 2, STACK
        FUNCALL write_menu, WrArrayToFlesh
        LOCFRAME CSTACK, 82, STACK
        LOCFRAME RSTACK, 2, STACK
        FUNCALL write_menu, atol
        LOCFRAME CSTACK, 82, STACK
        LOCFRAME RSTACK, 2, STACK
        FUNCALL write_menu, RdFromFleshToArr
        LOCFRAME CSTACK, 82, STACK
        LOCFRAME RSTACK, 2, STACK
        FUNCALL write_menu, crc_m1
        LOCFRAME CSTACK, 82, STACK
        LOCFRAME RSTACK, 2, STACK
        FUNCALL write_menu, WrArrayToFlesh
        LOCFRAME CSTACK, 82, STACK
        LOCFRAME RSTACK, 2, STACK
        FUNCALL write_menu, atol
        LOCFRAME CSTACK, 82, STACK
        LOCFRAME RSTACK, 2, STACK
        FUNCALL write_menu, RdFromFleshToArr
        LOCFRAME CSTACK, 82, STACK
        LOCFRAME RSTACK, 2, STACK
        FUNCALL write_menu, crc_m1
        LOCFRAME CSTACK, 82, STACK
        LOCFRAME RSTACK, 2, STACK
        FUNCALL write_menu, WrArrayToFlesh
        LOCFRAME CSTACK, 82, STACK
        LOCFRAME RSTACK, 2, STACK
        FUNCALL write_menu, atol
        LOCFRAME CSTACK, 82, STACK
        LOCFRAME RSTACK, 2, STACK
        FUNCALL write_menu, RdFromFleshToArr
        LOCFRAME CSTACK, 82, STACK
        LOCFRAME RSTACK, 2, STACK
        FUNCALL write_menu, crc_m1
        LOCFRAME CSTACK, 82, STACK
        LOCFRAME RSTACK, 2, STACK
        FUNCALL write_menu, WrArrayToFlesh
        LOCFRAME CSTACK, 82, STACK
        LOCFRAME RSTACK, 2, STACK
        FUNCALL write_menu, atol
        LOCFRAME CSTACK, 82, STACK
        LOCFRAME RSTACK, 2, STACK
        FUNCALL write_menu, RdFromFleshToArr
        LOCFRAME CSTACK, 82, STACK
        LOCFRAME RSTACK, 2, STACK
        FUNCALL write_menu, crc_m1
        LOCFRAME CSTACK, 82, STACK
        LOCFRAME RSTACK, 2, STACK
        FUNCALL write_menu, WrArrayToFlesh
        LOCFRAME CSTACK, 82, STACK
        LOCFRAME RSTACK, 2, STACK
        FUNCALL write_menu, atol
        LOCFRAME CSTACK, 82, STACK
        LOCFRAME RSTACK, 2, STACK
        FUNCALL write_menu, RdFromFleshToArr
        LOCFRAME CSTACK, 82, STACK
        LOCFRAME RSTACK, 2, STACK
        FUNCALL write_menu, crc_m1
        LOCFRAME CSTACK, 82, STACK
        LOCFRAME RSTACK, 2, STACK
        FUNCALL write_menu, WrArrayToFlesh
        LOCFRAME CSTACK, 82, STACK
        LOCFRAME RSTACK, 2, STACK
        FUNCALL write_menu, atol
        LOCFRAME CSTACK, 82, STACK
        LOCFRAME RSTACK, 2, STACK
        FUNCALL write_menu, RdFromFleshToArr
        LOCFRAME CSTACK, 82, STACK
        LOCFRAME RSTACK, 2, STACK
        FUNCALL write_menu, crc_m1
        LOCFRAME CSTACK, 82, STACK
        LOCFRAME RSTACK, 2, STACK
        FUNCALL write_menu, WrArrayToFlesh
        LOCFRAME CSTACK, 82, STACK
        LOCFRAME RSTACK, 2, STACK
        FUNCALL write_menu, atol
        LOCFRAME CSTACK, 82, STACK
        LOCFRAME RSTACK, 2, STACK
        FUNCALL write_menu, RdFromFleshToArr
        LOCFRAME CSTACK, 82, STACK
        LOCFRAME RSTACK, 2, STACK
        FUNCALL write_menu, crc_m1
        LOCFRAME CSTACK, 82, STACK
        LOCFRAME RSTACK, 2, STACK
        FUNCALL write_menu, WrArrayToFlesh
        LOCFRAME CSTACK, 82, STACK
        LOCFRAME RSTACK, 2, STACK
        FUNCALL write_menu, RdFromFleshToArr
        LOCFRAME CSTACK, 82, STACK
        LOCFRAME RSTACK, 2, STACK
        FUNCALL write_menu, crc_m1
        LOCFRAME CSTACK, 82, STACK
        LOCFRAME RSTACK, 2, STACK
        FUNCALL write_menu, WrArrayToFlesh
        LOCFRAME CSTACK, 82, STACK
        LOCFRAME RSTACK, 2, STACK
        FUNCALL write_menu, atol
        LOCFRAME CSTACK, 82, STACK
        LOCFRAME RSTACK, 2, STACK
        FUNCALL write_menu, RdFromFleshToArr
        LOCFRAME CSTACK, 82, STACK
        LOCFRAME RSTACK, 2, STACK
        FUNCALL write_menu, crc_m1
        LOCFRAME CSTACK, 82, STACK
        LOCFRAME RSTACK, 2, STACK
        FUNCALL write_menu, WrArrayToFlesh
        LOCFRAME CSTACK, 82, STACK
        LOCFRAME RSTACK, 2, STACK
        FUNCALL write_menu, atol
        LOCFRAME CSTACK, 82, STACK
        LOCFRAME RSTACK, 2, STACK
        FUNCALL write_menu, RdFromFleshToArr
        LOCFRAME CSTACK, 82, STACK
        LOCFRAME RSTACK, 2, STACK
        FUNCALL write_menu, crc_m1
        LOCFRAME CSTACK, 82, STACK
        LOCFRAME RSTACK, 2, STACK
        FUNCALL write_menu, WrArrayToFlesh
        LOCFRAME CSTACK, 82, STACK
        LOCFRAME RSTACK, 2, STACK
        FUNCALL write_menu, atol
        LOCFRAME CSTACK, 82, STACK
        LOCFRAME RSTACK, 2, STACK
        FUNCALL write_menu, RdFromFleshToArr
        LOCFRAME CSTACK, 82, STACK
        LOCFRAME RSTACK, 2, STACK
        FUNCALL write_menu, crc_m1
        LOCFRAME CSTACK, 82, STACK
        LOCFRAME RSTACK, 2, STACK
        FUNCALL write_menu, WrArrayToFlesh
        LOCFRAME CSTACK, 82, STACK
        LOCFRAME RSTACK, 2, STACK
        FUNCALL write_menu, atol
        LOCFRAME CSTACK, 82, STACK
        LOCFRAME RSTACK, 2, STACK
        FUNCALL write_menu, RdFromFleshToArr
        LOCFRAME CSTACK, 82, STACK
        LOCFRAME RSTACK, 2, STACK
        FUNCALL write_menu, crc_m1
        LOCFRAME CSTACK, 82, STACK
        LOCFRAME RSTACK, 2, STACK
        FUNCALL write_menu, WrArrayToFlesh
        LOCFRAME CSTACK, 82, STACK
        LOCFRAME RSTACK, 2, STACK
        FUNCALL write_menu, atol
        LOCFRAME CSTACK, 82, STACK
        LOCFRAME RSTACK, 2, STACK
        FUNCALL write_menu, RdFromFleshToArr
        LOCFRAME CSTACK, 82, STACK
        LOCFRAME RSTACK, 2, STACK
        FUNCALL write_menu, crc_m1
        LOCFRAME CSTACK, 82, STACK
        LOCFRAME RSTACK, 2, STACK
        FUNCALL write_menu, WrArrayToFlesh
        LOCFRAME CSTACK, 82, STACK
        LOCFRAME RSTACK, 2, STACK
        FUNCALL write_menu, atol
        LOCFRAME CSTACK, 82, STACK
        LOCFRAME RSTACK, 2, STACK
        FUNCALL write_menu, RdFromFleshToArr
        LOCFRAME CSTACK, 82, STACK
        LOCFRAME RSTACK, 2, STACK
        FUNCALL write_menu, crc_m1
        LOCFRAME CSTACK, 82, STACK
        LOCFRAME RSTACK, 2, STACK
        FUNCALL write_menu, WrArrayToFlesh
        LOCFRAME CSTACK, 82, STACK
        LOCFRAME RSTACK, 2, STACK
        FUNCALL write_menu, mov_s
        LOCFRAME CSTACK, 82, STACK
        LOCFRAME RSTACK, 2, STACK
        FUNCALL write_menu, RdFromFleshToArr
        LOCFRAME CSTACK, 82, STACK
        LOCFRAME RSTACK, 2, STACK
        FUNCALL write_menu, crc_m1
        LOCFRAME CSTACK, 82, STACK
        LOCFRAME RSTACK, 2, STACK
        FUNCALL write_menu, WrArrayToFlesh
        LOCFRAME CSTACK, 82, STACK
        LOCFRAME RSTACK, 2, STACK
        FUNCALL write_menu, RdFromFleshToArr
        LOCFRAME CSTACK, 82, STACK
        LOCFRAME RSTACK, 2, STACK
        FUNCALL write_menu, crc_m1
        LOCFRAME CSTACK, 82, STACK
        LOCFRAME RSTACK, 2, STACK
        FUNCALL write_menu, WrArrayToFlesh
        LOCFRAME CSTACK, 82, STACK
        LOCFRAME RSTACK, 2, STACK
        FUNCALL write_menu, vosstan_memory
        LOCFRAME CSTACK, 82, STACK
        LOCFRAME RSTACK, 2, STACK
        FUNCALL write_menu, burst_ds_r
        LOCFRAME CSTACK, 82, STACK
        LOCFRAME RSTACK, 2, STACK
        FUNCALL write_menu, atol
        LOCFRAME CSTACK, 82, STACK
        LOCFRAME RSTACK, 2, STACK
        FUNCALL write_menu, atol
        LOCFRAME CSTACK, 82, STACK
        LOCFRAME RSTACK, 2, STACK
        FUNCALL write_menu, atol
        LOCFRAME CSTACK, 82, STACK
        LOCFRAME RSTACK, 2, STACK
        FUNCALL write_menu, set_rlt
        LOCFRAME CSTACK, 82, STACK
        LOCFRAME RSTACK, 2, STACK
        FUNCALL write_menu, burst_ds_r
        LOCFRAME CSTACK, 82, STACK
        LOCFRAME RSTACK, 2, STACK
        FUNCALL write_menu, atol
        LOCFRAME CSTACK, 82, STACK
        LOCFRAME RSTACK, 2, STACK
        FUNCALL write_menu, atol
        LOCFRAME CSTACK, 82, STACK
        LOCFRAME RSTACK, 2, STACK
        FUNCALL write_menu, atol
        LOCFRAME CSTACK, 82, STACK
        LOCFRAME RSTACK, 2, STACK
        FUNCALL write_menu, set_rlt
        LOCFRAME CSTACK, 82, STACK
        LOCFRAME RSTACK, 2, STACK
        FUNCALL write_menu, WrArrayToFlesh
        LOCFRAME CSTACK, 82, STACK
        LOCFRAME RSTACK, 2, STACK
        FUNCALL write_menu, RdFromFleshToArr
        LOCFRAME CSTACK, 82, STACK
        LOCFRAME RSTACK, 2, STACK
        FUNCALL write_menu, s_port
        LOCFRAME CSTACK, 82, STACK
        LOCFRAME RSTACK, 2, STACK
        FUNCALL write_menu, s_port
        LOCFRAME CSTACK, 82, STACK
        LOCFRAME RSTACK, 2, STACK
        FUNCALL write_menu, s_port
        LOCFRAME CSTACK, 82, STACK
        LOCFRAME RSTACK, 2, STACK
        FUNCALL write_menu, crc_m1
        LOCFRAME CSTACK, 82, STACK
        LOCFRAME RSTACK, 2, STACK
        FUNCALL write_menu, WrArrayToFlesh
        LOCFRAME CSTACK, 82, STACK
        LOCFRAME RSTACK, 2, STACK
        FUNCALL write_menu, check_keys
        LOCFRAME CSTACK, 82, STACK
        LOCFRAME RSTACK, 2, STACK
        FUNCALL write_menu, mov_s
        LOCFRAME CSTACK, 82, STACK
        LOCFRAME RSTACK, 2, STACK
        CALL	?PROLOGUE8_L09
        CFI R7 Frame(CFA_Y, -1)
        CFI R6 Frame(CFA_Y, -2)
        CFI R5 Frame(CFA_Y, -3)
        CFI R4 Frame(CFA_Y, -4)
        CFI R27 Frame(CFA_Y, -5)
        CFI R26 Frame(CFA_Y, -6)
        CFI R25 Frame(CFA_Y, -7)
        CFI R24 Frame(CFA_Y, -8)
        CFI CFA_Y Y+8
        REQUIRE	?Register_R4_is_cg_reg
        REQUIRE	?Register_R5_is_cg_reg
        REQUIRE	?Register_R6_is_cg_reg
        REQUIRE	?Register_R7_is_cg_reg
        SBIW	R29:R28, 63
        CFI CFA_Y Y+71
        SBIW	R29:R28, 11
        CFI CFA_Y Y+82
// 1041 
// 1042        union
// 1043    {
// 1044    unsigned char bytes[4]; 
// 1045    unsigned long int word;
// 1046    } cifra_long;  
// 1047   
// 1048    unsigned char i,j,k,m,n;
// 1049    unsigned char jj;    
// 1050     unsigned char buf[70];
// 1051        
// 1052        switch(index_menu)
        LDI	R26, LOW(buf_tx_232)
        LDI	R27, (buf_tx_232) >> 8
        LDI	R30, LOW(vol_tx_ppp)
        LDI	R31, (vol_tx_ppp) >> 8
        LD	R18, Z
        LDD	R19, Z+1
        MOVW	R5:R4, R27:R26
        ADD	R4, R18
        ADC	R5, R19
        LDI	R17, 254
        ADD	R4, R17
        LDI	R17, 255
        ADC	R5, R17
        MOVW	R31:R30, R27:R26
        LDD	R6, Z+2
        LDI	R24, LOW(real_time)
        LDI	R25, (real_time) >> 8
        LDI	R30, LOW(`?<Jumptable for write_menu>_0`)
        LDI	R31, (`?<Jumptable for write_menu>_0`) >> 16
        OUT	0x3B, R31
        LDI	R31, HIGH(`?<Jumptable for write_menu>_0`)
        JMP	?CV_SWITCH_L06
// 1053         {      
// 1054                  
// 1055                
// 1056                   
// 1057                              
// 1058                 
// 1059                 
// 1060                  case 3: 
// 1061                         if(vol_tx_ppp!=2)goto bad_com_232;
??write_menu_0:
        LDI	R30, LOW(vol_tx_ppp)
        LDI	R31, (vol_tx_ppp) >> 8
        LD	R16, Z
        LDD	R17, Z+1
        CPI	R16, 2
        LDI	R18, 0
        CPC	R17, R18
        BRNE	??write_menu_1
// 1062                          
// 1063                          
// 1064                       switch(buf_tx_232[0])
        LD	R16, X
        SUBI	R16, 49
        BREQ	??write_menu_2
        DEC	R16
        BREQ	??write_menu_3
        DEC	R16
        BREQ	??write_menu_4
        RJMP	??write_menu_1
// 1065                          
// 1066                            {
// 1067                             case '1':
// 1068                                   RdFromFleshToArr(A_C1_GPRS,&buf[0],L_C1_GPRS_MAX);
??write_menu_2:
        LDI	R20, 60
        LDI	R21, 0
        MOVW	R19:R18, R29:R28
        SUBI	R18, 252
        SBCI	R19, 255
        LDI	R16, 200
        LDI	R17, 0
        CALL	RdFromFleshToArr
// 1069                                   if((buf[0]==0)||(buf[0]>30))goto bad_com_232;
        LDD	R16, Y+4
        TST	R16
        BREQ	??write_menu_1
??write_menu_5:
        LDD	R16, Y+4
        CPI	R16, 31
        BRCS	??write_menu_6
// 1070                                  break;
// 1071                             case '2':
// 1072                                  RdFromFleshToArr(A_C2_GPRS,&buf[0],L_C2_GPRS_MAX);
// 1073                                  if((buf[0]==0)||(buf[0]>30))goto bad_com_232;
// 1074                                  break;
// 1075                             case '3': 
// 1076                                  RdFromFleshToArr(A_C3_GPRS,&buf[0],L_C3_GPRS_MAX); 
// 1077                                  if((buf[0]==0)||(buf[0]>30))goto bad_com_232;                              
// 1078                                  break;
// 1079                            default: goto bad_com_232;
// 1080                            }
// 1081                             
// 1082                         *(unsigned int*)&buf[L_C_GPRS_MAX-2]=crc_m1(&buf[0],L_C_GPRS_MAX-2,0xffff);             
// 1083                         WrArrayToFlesh(A_C_GPRS, &buf[0],L_C_GPRS_MAX,0,0);   
// 1084                         
// 1085                         vol_tx_ppp=0;                                                                                      
// 1086                         mov_s ( sizeof(ok_t),ok_t); 
// 1087                         return;                 
// 1088                 
// 1089                 case 4: 
// 1090                         if(vol_tx_ppp!=2)goto bad_com_232;
// 1091                          
// 1092                          
// 1093                       switch(buf_tx_232[0])
// 1094                          
// 1095                            {
// 1096                             case '1':
// 1097                                   RdFromFleshToArr(A_C1_GPRS,&buf[0],L_C1_GPRS_MAX);
// 1098                                   if((buf[0]==0)||(buf[0]>30))goto bad_com_232;
// 1099                                  break;
// 1100                             case '2':
// 1101                                  RdFromFleshToArr(A_C2_GPRS,&buf[0],L_C2_GPRS_MAX);
// 1102                                  if((buf[0]==0)||(buf[0]>30))goto bad_com_232;
// 1103                                  break;
// 1104                             case '3': 
// 1105                                  RdFromFleshToArr(A_C3_GPRS,&buf[0],L_C3_GPRS_MAX); 
// 1106                                  if((buf[0]==0)||(buf[0]>30))goto bad_com_232;                              
// 1107                                  break;
// 1108                            default: goto bad_com_232;
// 1109                            }
// 1110                             
// 1111                         *(unsigned int*)&buf[L_CR_GPRS_MAX-2]=crc_m1(&buf[0],L_CR_GPRS_MAX-2,0xffff);             
// 1112                         WrArrayToFlesh(A_CR_GPRS, &buf[0],L_CR_GPRS_MAX,0,0);   
// 1113                         
// 1114                         vol_tx_ppp=0;                                                                                      
// 1115                         mov_s ( sizeof(ok_t),ok_t); 
// 1116                         return;         
// 1117                         
// 1118                         
// 1119                  case 5:
// 1120                          if(vol_tx_ppp!=16)goto bad_com_232;
// 1121                          if(buf_tx_232[3]!='.')goto bad_com_232;
// 1122                          if(buf_tx_232[7]!='.')goto bad_com_232;
// 1123                          if(buf_tx_232[11]!='.')goto bad_com_232;
// 1124                          
// 1125                          RdFromFleshToArr(A_IP_PAR,&buf[0],L_IP_PAR); 
// 1126  
// 1127                          
// 1128                          cifra_long.word=atol((char *)&buf_tx_232[0]); 
// 1129                          if(cifra_long.word>255)goto bad_com_232;
// 1130                             else buf[OFS_IP]=cifra_long.bytes[0];
// 1131        
// 1132                          cifra_long.word=atol((char *)&buf_tx_232[4]);  
// 1133                          if(cifra_long.word>255)goto bad_com_232;
// 1134                             else buf[OFS_IP+1]=cifra_long.bytes[0];
// 1135                          
// 1136                          cifra_long.word=atol((char *)&buf_tx_232[8]); 
// 1137                           if(cifra_long.word>255)goto bad_com_232;
// 1138                               else buf[OFS_IP+2]=cifra_long.bytes[0];
// 1139                          
// 1140                             
// 1141                          cifra_long.word=atol((char *)&buf_tx_232[12]); 
// 1142                           if(cifra_long.word>255)goto bad_com_232;
// 1143                               else buf[OFS_IP+3]=cifra_long.bytes[0];
// 1144  
// 1145                       *(unsigned int*)&buf[OFS_IP_PAR_CRC]=crc_m1(&buf[0],L_IP_PAR-2,0xffff);
// 1146                       WrArrayToFlesh(A_IP_PAR, &buf[0],L_IP_PAR,0,0);
// 1147                          
// 1148                             
// 1149                       vol_tx_ppp=0;                                                                                      
// 1150                       mov_s ( sizeof(ok_t),ok_t); 
// 1151                       return; 
// 1152                  
// 1153                  
// 1154                  case 6:
// 1155                       cifra_long.word=atol((char *)&buf_tx_232[0]);                                                                                      
// 1156                       if (cifra_long.word>65535) goto bad_com_232;
// 1157   
// 1158                       RdFromFleshToArr(A_IP_PAR,&buf[0],L_IP_PAR); 
// 1159                       *(unsigned int*)&buf[OFS_PORT]=cifra_long.word;//UDP ďîđň
// 1160                       *(unsigned int*)&buf[OFS_IP_PAR_CRC]=crc_m1(&buf[0],L_IP_PAR-2,0xffff);
// 1161                       WrArrayToFlesh(A_IP_PAR, &buf[0],L_IP_PAR,0,0);
// 1162                       
// 1163                       vol_tx_ppp=0;                                                                                      
// 1164                       mov_s ( sizeof(ok_t),ok_t);  
// 1165                       return;
// 1166                
// 1167                  case 7:
// 1168                       cifra_long.word=atol((char *)&buf_tx_232[0]);                                                                                      
// 1169                       if (cifra_long.word<3)goto bad_com_232;
// 1170                       if (cifra_long.word>65535) goto bad_com_232;
// 1171   
// 1172                       RdFromFleshToArr(A_IP_PAR,&buf[0],L_IP_PAR); 
// 1173                       *(unsigned int*)&buf[OFS_NUM]=cifra_long.word;
// 1174                       *(unsigned int*)&buf[OFS_IP_PAR_CRC]=crc_m1(&buf[0],L_IP_PAR-2,0xffff);
// 1175                       WrArrayToFlesh(A_IP_PAR, &buf[0],L_IP_PAR,0,0);
// 1176                       
// 1177                       vol_tx_ppp=0;                                                                                      
// 1178                       mov_s ( sizeof(ok_t),ok_t);  
// 1179                       return;
// 1180                  
// 1181                  case 8:
// 1182                       
// 1183                       cifra_long.word=atol((char *)&buf_tx_232[0]);                                                                                      
// 1184                       if (cifra_long.word<10)goto bad_com_232;
// 1185                       if (cifra_long.word>65535) goto bad_com_232;
// 1186   
// 1187                       RdFromFleshToArr(A_C_PAR,&buf[0],L_C_PAR); 
// 1188                       *(unsigned int*)&buf[OFS_NAT]=cifra_long.word;
// 1189                       *(unsigned int*)&buf[OFS_C_PAR_CRC]=crc_m1(&buf[0],L_C_PAR-2,0xffff);
// 1190                       WrArrayToFlesh(A_C_PAR, &buf[0],L_C_PAR,0,0);
// 1191                       
// 1192                       vol_tx_ppp=0;                                                                                      
// 1193                       mov_s ( sizeof(ok_t),ok_t);  
// 1194                       return;
// 1195                       
// 1196                case 9:
// 1197                       
// 1198                       cifra_long.word=atol((char *)&buf_tx_232[0]);                                                                                      
// 1199                       if (cifra_long.word<10)goto bad_com_232;
// 1200                       if (cifra_long.word>65535) goto bad_com_232;
// 1201   
// 1202                       RdFromFleshToArr(A_C_PAR,&buf[0],L_C_PAR); 
// 1203                       *(unsigned int*)&buf[OFS_NAT_R]=cifra_long.word;
// 1204                       *(unsigned int*)&buf[OFS_C_PAR_CRC]=crc_m1(&buf[0],L_C_PAR-2,0xffff);
// 1205                       WrArrayToFlesh(A_C_PAR, &buf[0],L_C_PAR,0,0);
// 1206                       
// 1207                       vol_tx_ppp=0;                                                                                      
// 1208                       mov_s ( sizeof(ok_t),ok_t);  
// 1209                       return;       
// 1210                 
// 1211                 case 10:
// 1212                       
// 1213                       cifra_long.word=atol((char *)&buf_tx_232[0]);                                                                                      
// 1214                       if (cifra_long.word<10)goto bad_com_232;
// 1215                       if (cifra_long.word>65535) goto bad_com_232;
// 1216   
// 1217                       RdFromFleshToArr(A_C_PAR,&buf[0],L_C_PAR); 
// 1218                       *(unsigned int*)&buf[OFS_CCH]=cifra_long.word;
// 1219                       *(unsigned int*)&buf[OFS_C_PAR_CRC]=crc_m1(&buf[0],L_C_PAR-2,0xffff);
// 1220                       WrArrayToFlesh(A_C_PAR, &buf[0],L_C_PAR,0,0);
// 1221                       
// 1222                       vol_tx_ppp=0;                                                                                      
// 1223                       mov_s ( sizeof(ok_t),ok_t);  
// 1224                       return;
// 1225                 
// 1226                 case 11:
// 1227                       
// 1228                       cifra_long.word=atol((char *)&buf_tx_232[0]);                                                                                      
// 1229                       if (cifra_long.word<5)goto bad_com_232;
// 1230                       if (cifra_long.word>65535) goto bad_com_232;
// 1231   
// 1232                       RdFromFleshToArr(A_C_PAR,&buf[0],L_C_PAR); 
// 1233                       *(unsigned int*)&buf[OFS_TM_CH]=cifra_long.word;
// 1234                       *(unsigned int*)&buf[OFS_C_PAR_CRC]=crc_m1(&buf[0],L_C_PAR-2,0xffff);
// 1235                       WrArrayToFlesh(A_C_PAR, &buf[0],L_C_PAR,0,0);
// 1236                       
// 1237                       vol_tx_ppp=0;                                                                                      
// 1238                       mov_s ( sizeof(ok_t),ok_t);  
// 1239                       return;
// 1240 
// 1241      //!!!!!!!!!!! dobavka        
// 1242                case 12:
// 1243                       
// 1244                       cifra_long.word=atol((char *)&buf_tx_232[0]);                                                                                      
// 1245 
// 1246                       if (cifra_long.word>65535) goto bad_com_232;
// 1247                       
// 1248                       RdFromFleshToArr(A_C_PAR,&buf[0],L_C_PAR); 
// 1249                       
// 1250                       if(cifra_long.word!=0)                                                       
// 1251                       if((cifra_long.word *60) <= (*(unsigned int*)&buf[OFS_CCH]))goto bad_com_232;
// 1252                       
// 1253                       *(unsigned int*)&buf[OFS_TM_NO_LINK]=cifra_long.word;
// 1254                       *(unsigned int*)&buf[OFS_C_PAR_CRC]=crc_m1(&buf[0],L_C_PAR-2,0xffff);
// 1255                       WrArrayToFlesh(A_C_PAR, &buf[0],L_C_PAR,0,0);
// 1256                       
// 1257                       vol_tx_ppp=0;                                                                                      
// 1258                       mov_s ( sizeof(ok_t),ok_t);  
// 1259                       return;
// 1260              
// 1261                       
// 1262               case 13:
// 1263                       
// 1264                       cifra_long.word=atol((char *)&buf_tx_232[0]);                                                                                      
// 1265                       if (cifra_long.word<MIN_TM_LINK_RES) goto bad_com_232;
// 1266                       if (cifra_long.word>65535) goto bad_com_232;
// 1267                       
// 1268                       RdFromFleshToArr(A_C_PAR,&buf[0],L_C_PAR); 
// 1269                                                                                
// 1270                       if((cifra_long.word *60) <=  (*(unsigned int*)&buf[OFS_CCH]))goto bad_com_232;
// 1271                       
// 1272                       *(unsigned int*)&buf[OFS_TM_LINK_RES]=cifra_long.word;
// 1273                       *(unsigned int*)&buf[OFS_C_PAR_CRC]=crc_m1(&buf[0],L_C_PAR-2,0xffff);
// 1274                       WrArrayToFlesh(A_C_PAR, &buf[0],L_C_PAR,0,0);
// 1275                       
// 1276                       vol_tx_ppp=0;                                                                                      
// 1277                       mov_s ( sizeof(ok_t),ok_t);  
// 1278                       return;         
// 1279              //EEEEEEEEEEEEEEEEE dobavka                           
// 1280                       
// 1281               
// 1282               case 14: 
// 1283                          if(vol_tx_ppp!=2)goto bad_com_232;
// 1284                          if((buf_tx_232[0]=='0')||(buf_tx_232[0]=='1'))cifra_long.bytes[0]=buf_tx_232[0]-0x30;
// 1285                             else goto bad_com_232;
// 1286                       
// 1287                       RdFromFleshToArr(A_SEQ_PAR,&buf[0],L_SEQ_PAR); 
// 1288                       buf[OFS_DES_SEQ]=cifra_long.bytes[0];
// 1289                       *(unsigned int*)&buf[OFS_SEQ_PAR_CRC]=crc_m1(&buf[0],L_SEQ_PAR-2,0xffff);
// 1290                       WrArrayToFlesh(A_SEQ_PAR, &buf[0],L_SEQ_PAR,0,0);
// 1291                       
// 1292                       vol_tx_ppp=0;                                                                                      
// 1293                       mov_s ( sizeof(ok_t),ok_t);  
// 1294                       return;    
// 1295                
// 1296                
// 1297                
// 1298                 case 15:
// 1299                       
// 1300                       cifra_long.word=atol((char *)&buf_tx_232[0]);                                                                                      
// 1301                       if (cifra_long.word<3) goto bad_com_232;
// 1302                       if (cifra_long.word>65535) goto bad_com_232;
// 1303 
// 1304                       RdFromFleshToArr(A_SEQ_PAR,&buf[0],L_SEQ_PAR); 
// 1305                       *(unsigned int*)&buf[OFS_NUM_CL]=cifra_long.word;
// 1306                       *(unsigned int*)&buf[OFS_SEQ_PAR_CRC]=crc_m1(&buf[0],L_SEQ_PAR-2,0xffff);
// 1307                       WrArrayToFlesh(A_SEQ_PAR, &buf[0],L_SEQ_PAR,0,0);
// 1308                       
// 1309                       vol_tx_ppp=0;                                                                                      
// 1310                       mov_s ( sizeof(ok_t),ok_t);  
// 1311                       return;
// 1312                 
// 1313                 case 16:
// 1314                       
// 1315                       cifra_long.word=atol((char *)&buf_tx_232[0]);                                                                                      
// 1316                       if (cifra_long.word==0)goto bad_com_232;
// 1317                       if (cifra_long.word>65535) goto bad_com_232;
// 1318 
// 1319                       RdFromFleshToArr(A_SEQ_PAR,&buf[0],L_SEQ_PAR); 
// 1320                       *(unsigned int*)&buf[OFS_TM_VZ]=cifra_long.word;
// 1321                       *(unsigned int*)&buf[OFS_SEQ_PAR_CRC]=crc_m1(&buf[0],L_SEQ_PAR-2,0xffff);
// 1322                       WrArrayToFlesh(A_SEQ_PAR, &buf[0],L_SEQ_PAR,0,0);
// 1323                       
// 1324                       vol_tx_ppp=0;                                                                                      
// 1325                       mov_s ( sizeof(ok_t),ok_t);  
// 1326                       return;
// 1327                       
// 1328                 case 17:
// 1329                       
// 1330                       cifra_long.word=atol((char *)&buf_tx_232[0]);                                                                                      
// 1331                       if (cifra_long.word<5)goto bad_com_232;
// 1332                       if (cifra_long.word>65535) goto bad_com_232;
// 1333 
// 1334                       RdFromFleshToArr(A_SEQ_PAR,&buf[0],L_SEQ_PAR); 
// 1335                       *(unsigned int*)&buf[OFS_TM_CL]=cifra_long.word;
// 1336                       *(unsigned int*)&buf[OFS_SEQ_PAR_CRC]=crc_m1(&buf[0],L_SEQ_PAR-2,0xffff);
// 1337                       WrArrayToFlesh(A_SEQ_PAR, &buf[0],L_SEQ_PAR,0,0);
// 1338                       
// 1339                       vol_tx_ppp=0;                                                                                      
// 1340                       mov_s ( sizeof(ok_t),ok_t);  
// 1341                       return;      
// 1342                 
// 1343                       
// 1344                  case 18:
// 1345                       
// 1346                       cifra_long.word=atol((char *)&buf_tx_232[0]);                                                                                      
// 1347                       if (cifra_long.word>2) goto bad_com_232;
// 1348                       RdFromFleshToArr(A_SEQ_PAR,&buf[0],L_SEQ_PAR); 
// 1349                       *(unsigned char*)&buf[OFS_TP_TS]=cifra_long.word;
// 1350                       *(unsigned int*)&buf[OFS_SEQ_PAR_CRC]=crc_m1(&buf[0],L_SEQ_PAR-2,0xffff);
// 1351                       WrArrayToFlesh(A_SEQ_PAR, &buf[0],L_SEQ_PAR,0,0);
// 1352                       
// 1353                       vol_tx_ppp=0;                                                                                      
// 1354                       mov_s ( sizeof(ok_t),ok_t);  
// 1355                       return;         
// 1356                       
// 1357                 case 19:
// 1358                       
// 1359                       cifra_long.word=atol((char *)&buf_tx_232[0]);                                                                                      
// 1360                       if (cifra_long.word>1) goto bad_com_232;
// 1361                       RdFromFleshToArr(A_SEQ_PAR,&buf[0],L_SEQ_PAR); 
// 1362                       *(unsigned char*)&buf[OFS_TP_TS+1]=cifra_long.word;
// 1363                       *(unsigned int*)&buf[OFS_SEQ_PAR_CRC]=crc_m1(&buf[0],L_SEQ_PAR-2,0xffff);
// 1364                       WrArrayToFlesh(A_SEQ_PAR, &buf[0],L_SEQ_PAR,0,0);
// 1365                       
// 1366                       vol_tx_ppp=0;                                                                                      
// 1367                       mov_s ( sizeof(ok_t),ok_t);  
// 1368                       return;        
// 1369                       
// 1370                       
// 1371                       
// 1372                 
// 1373                case 20: 
// 1374                          cifra_long.word=atol((char *)&buf_tx_232[0]);
// 1375                           if (cifra_long.word>3)goto bad_com_232;   //dobavka 
// 1376                          e_debug=cifra_long.bytes[0];
// 1377 
// 1378                       vol_tx_ppp=0;                                                                                      
// 1379                       mov_s ( sizeof(ok_t),ok_t);  
// 1380                       return;    
// 1381                 
// 1382                 
// 1383 
// 1384                case 21:
// 1385                      if((vol_tx_ppp<7)||(vol_tx_ppp>60))goto bad_com_232;
// 1386                      
// 1387                      if(buf_tx_232[0]!='"')goto bad_com_232;
// 1388                      if(buf_tx_232[vol_tx_ppp-2]!='"')goto bad_com_232;
// 1389                      
// 1390                      RdFromFleshToArr(A_C1_GPRS,&buf[0],L_C1_GPRS_MAX);
// 1391                       
// 1392                      i=0;
// 1393                      j=1;
// 1394                      n=i;
// 1395                      m=j;
// 1396                      while(buf_tx_232[j]!='"'){j++;i++;}
// 1397                      if (j>=vol_tx_ppp-2)goto bad_com_232;
// 1398                      j++;
// 1399                      if (buf_tx_232[j]!='"')goto bad_com_232;
// 1400                      if (j>=vol_tx_ppp-1)goto bad_com_232;
// 1401                      buf[n]=i;
// 1402                      for(k=0;k<buf[n];k++)buf[n+1+k]=buf_tx_232[m+k];
// 1403                           
// 1404                      n=n+buf[n]+1;
// 1405                      i=0;
// 1406                      j++;
// 1407                      m=j;
// 1408                      while(buf_tx_232[j]!='"'){j++;i++;}
// 1409                      if (j>=vol_tx_ppp-2)goto bad_com_232;
// 1410                      j++;
// 1411                      if (buf_tx_232[j]!='"')goto bad_com_232;
// 1412                      if (j>=vol_tx_ppp-1)goto bad_com_232;
// 1413                      buf[n]=i;
// 1414                      for(k=0;k<buf[n];k++)buf[n+1+k]=buf_tx_232[m+k];
// 1415                      
// 1416                      
// 1417                      n=n+buf[n]+1;
// 1418                      i=0;
// 1419                      j++;
// 1420                      m=j;
// 1421                      while(buf_tx_232[j]!='"'){j++;i++;}
// 1422                      if (j>=vol_tx_ppp-1)goto bad_com_232;
// 1423                      buf[n]=i;
// 1424                      for(k=0;k<buf[n];k++)buf[n+1+k]=buf_tx_232[m+k];   
// 1425                      
// 1426                      *(unsigned int*)&buf[L_C1_GPRS_MAX-2]=crc_m1(&buf[0],L_C1_GPRS_MAX-2,0xffff);             
// 1427                      WrArrayToFlesh(A_C1_GPRS, &buf[0],L_C1_GPRS_MAX,0,0);
// 1428                      
// 1429                       vol_tx_ppp=0;
// 1430                       mov_s ( sizeof(ok_t),ok_t);  
// 1431              
// 1432              case 22:
// 1433                      if((vol_tx_ppp<7)||(vol_tx_ppp>60))goto bad_com_232;
// 1434                      
// 1435                      if(buf_tx_232[0]!='"')goto bad_com_232;
// 1436                      if(buf_tx_232[vol_tx_ppp-2]!='"')goto bad_com_232;
// 1437                      
// 1438                      RdFromFleshToArr(A_C2_GPRS,&buf[0],L_C2_GPRS_MAX);
// 1439                       
// 1440                      i=0;
// 1441                      j=1;
// 1442                      n=i;
// 1443                      m=j;
// 1444                      while(buf_tx_232[j]!='"'){j++;i++;}
// 1445                      if (j>=vol_tx_ppp-2)goto bad_com_232;
// 1446                      j++;
// 1447                      if (buf_tx_232[j]!='"')goto bad_com_232;
// 1448                      if (j>=vol_tx_ppp-1)goto bad_com_232;
// 1449                      buf[n]=i;
// 1450                      for(k=0;k<buf[n];k++)buf[n+1+k]=buf_tx_232[m+k];
// 1451                           
// 1452                      n=n+buf[n]+1;
// 1453                      i=0;
// 1454                      j++;
// 1455                      m=j;
// 1456                      while(buf_tx_232[j]!='"'){j++;i++;}
// 1457                      if (j>=vol_tx_ppp-2)goto bad_com_232;
// 1458                      j++;
// 1459                      if (buf_tx_232[j]!='"')goto bad_com_232;
// 1460                      if (j>=vol_tx_ppp-1)goto bad_com_232;
// 1461                      buf[n]=i;
// 1462                      for(k=0;k<buf[n];k++)buf[n+1+k]=buf_tx_232[m+k];
// 1463                      
// 1464                      
// 1465                      n=n+buf[n]+1;
// 1466                      i=0;
// 1467                      j++;
// 1468                      m=j;
// 1469                      while(buf_tx_232[j]!='"'){j++;i++;}
// 1470                      if (j>=vol_tx_ppp-1)goto bad_com_232;
// 1471                      buf[n]=i;
// 1472                      for(k=0;k<buf[n];k++)buf[n+1+k]=buf_tx_232[m+k];   
// 1473                      
// 1474                      *(unsigned int*)&buf[L_C2_GPRS_MAX-2]=crc_m1(&buf[0],L_C2_GPRS_MAX-2,0xffff);               
// 1475                      WrArrayToFlesh(A_C2_GPRS, &buf[0],L_C2_GPRS_MAX,0,0);
// 1476                      
// 1477                       vol_tx_ppp=0;
// 1478                       mov_s ( sizeof(ok_t),ok_t);  
// 1479                       return;                      
// 1480    
// 1481                 case 23:
// 1482                      if((vol_tx_ppp<7)||(vol_tx_ppp>60))goto bad_com_232;
// 1483                      
// 1484                      if(buf_tx_232[0]!='"')goto bad_com_232;
// 1485                      if(buf_tx_232[vol_tx_ppp-2]!='"')goto bad_com_232;
// 1486                      
// 1487                      RdFromFleshToArr(A_C3_GPRS,&buf[0],L_C3_GPRS_MAX);
// 1488                       
// 1489                      i=0;
// 1490                      j=1;
// 1491                      n=i;
// 1492                      m=j;
// 1493                      while(buf_tx_232[j]!='"'){j++;i++;}
// 1494                      if (j>=vol_tx_ppp-2)goto bad_com_232;
// 1495                      j++;
// 1496                      if (buf_tx_232[j]!='"')goto bad_com_232;
// 1497                      if (j>=vol_tx_ppp-1)goto bad_com_232;
// 1498                      buf[n]=i;
// 1499                      for(k=0;k<buf[n];k++)buf[n+1+k]=buf_tx_232[m+k];
// 1500                           
// 1501                      n=n+buf[n]+1;
// 1502                      i=0;
// 1503                      j++;
// 1504                      m=j;
// 1505                      while(buf_tx_232[j]!='"'){j++;i++;}
// 1506                      if (j>=vol_tx_ppp-2)goto bad_com_232;
// 1507                      j++;
// 1508                      if (buf_tx_232[j]!='"')goto bad_com_232;
// 1509                      if (j>=vol_tx_ppp-1)goto bad_com_232;
// 1510                      buf[n]=i;
// 1511                      for(k=0;k<buf[n];k++)buf[n+1+k]=buf_tx_232[m+k];
// 1512                      
// 1513                      
// 1514                      n=n+buf[n]+1;
// 1515                      i=0;
// 1516                      j++;
// 1517                      m=j;
// 1518                      while(buf_tx_232[j]!='"'){j++;i++;}
// 1519                      if (j>=vol_tx_ppp-1)goto bad_com_232;
// 1520                      buf[n]=i;
// 1521                      for(k=0;k<buf[n];k++)buf[n+1+k]=buf_tx_232[m+k];   
// 1522                      
// 1523                      *(unsigned int*)&buf[L_C3_GPRS_MAX-2]=crc_m1(&buf[0],L_C3_GPRS_MAX-2,0xffff);               
// 1524                      WrArrayToFlesh(A_C3_GPRS, &buf[0],L_C3_GPRS_MAX,0,0);
// 1525                      
// 1526                       vol_tx_ppp=0;
// 1527                       mov_s ( sizeof(ok_t),ok_t);  
// 1528                       return;   
// 1529    
// 1530    
// 1531     case 26: 
// 1532                          if(vol_tx_ppp!=2)goto bad_com_232;
// 1533                          if(buf_tx_232[0]!='1')goto bad_com_232;
// 1534                         
// 1535                       
// 1536                       e_debug=RG_WORK;  
// 1537                       vosstan_memory();
// 1538                       
// 1539                       vol_tx_ppp=0;                                                                                      
// 1540                       mov_s ( sizeof(ok_t),ok_t);  
// 1541                       return;    
// 1542    case 27:
// 1543               if(vol_tx_ppp!=9)goto bad_com_232; 
// 1544               if(buf_tx_232[2]!=':')goto bad_com_232;
// 1545               if(buf_tx_232[5]!=':')goto bad_com_232;
// 1546               
// 1547               
// 1548              burst_ds_r();
// 1549              buf[3]=real_time.r_date;
// 1550              buf[4]=real_time.r_month;
// 1551              buf[5]=real_time.r_year;
// 1552             
// 1553             
// 1554               cifra_long.word=atol(( char *)&buf_tx_232[6]); 
// 1555               if(cifra_long.word>59)goto bad_com_232;
// 1556               else buf[0]=cifra_long.bytes[0];
// 1557               
// 1558      
// 1559               cifra_long.word=atol((char *)&buf_tx_232[3]); 
// 1560               if(cifra_long.word>59)goto bad_com_232;
// 1561               else buf[1]=cifra_long.bytes[0];
// 1562        
// 1563               cifra_long.word=atol((char *)&buf_tx_232[0]); 
// 1564               if(cifra_long.word>23)goto bad_com_232;
// 1565               else buf[2]=cifra_long.bytes[0];
// 1566 
// 1567 
// 1568                          
// 1569             set_rlt(2,&buf[0]);
// 1570             vol_tx_ppp=0;                                                                                      
// 1571             mov_s ( sizeof(ok_t),ok_t);  
// 1572             return;
// 1573             
// 1574             
// 1575    case 28:
// 1576               if(vol_tx_ppp!=9)goto bad_com_232; 
// 1577               if(buf_tx_232[2]!='.')goto bad_com_232;
// 1578               if(buf_tx_232[5]!='.')goto bad_com_232;
// 1579               
// 1580               
// 1581              burst_ds_r();
// 1582              buf[0]=real_time.r_sec;
// 1583              buf[1]=real_time.r_min;
// 1584              buf[2]=real_time.r_hor;
// 1585             
// 1586             
// 1587               cifra_long.word=atol(( char *)&buf_tx_232[0]); 
// 1588               if(cifra_long.word==0)goto bad_com_232;
// 1589               if(cifra_long.word>31)goto bad_com_232;
// 1590               else buf[3]=cifra_long.bytes[0];
// 1591               
// 1592      
// 1593               cifra_long.word=atol((char *)&buf_tx_232[3]); 
// 1594               if(cifra_long.word==0)goto bad_com_232;
// 1595               if(cifra_long.word>12)goto bad_com_232;
// 1596               else buf[4]=cifra_long.bytes[0];
// 1597        
// 1598             
// 1599               cifra_long.word=atol((char *)&buf_tx_232[6]); 
// 1600               buf[5]=cifra_long.bytes[0];
// 1601             
// 1602             set_rlt(2,&buf[0]);
// 1603             vol_tx_ppp=0;                                                                                      
// 1604             mov_s ( sizeof(ok_t),ok_t);  
// 1605             return;
// 1606  
// 1607    
// 1608    case 29: 
// 1609                          if((vol_tx_ppp==2)&&(buf_tx_232[0]=='0'))
// 1610                          {
// 1611                          WrArrayToFlesh(BEG_BUF_LOG,0,(L_LOG*6),0x01,0x00);
// 1612                          point_log_buf=0;      
// 1613                          vol_tx_ppp=0; 
// 1614                          mov_s ( sizeof(ok_t),ok_t);  
// 1615                          return;                         
// 1616                          }
// 1617                          
// 1618                          
// 1619                          if(vol_tx_ppp!=4)goto bad_com_232;
// 1620                          if(buf_tx_232[0]!='l')goto bad_com_232;
// 1621                          if(buf_tx_232[1]!='o')goto bad_com_232;
// 1622                          if(buf_tx_232[2]!='g')goto bad_com_232;
// 1623                          
// 1624                          RdFromFleshToArr(BEG_BUF_LOG,&buf_tx_232[0],(L_LOG*6));                      
// 1625                          
// 1626                          s_port(0xd);
// 1627                          s_port(0xa);
// 1628                          for(jj=0;jj<(L_LOG*6);jj++) s_port(buf_tx_232[jj]);
// 1629                          vol_tx_ppp=0; 
// 1630                          mov_s ( sizeof(ok_t),ok_t);  
// 1631                          return;       
// 1632  
// 1633    case 30:      
// 1634                       if((vol_tx_ppp==2)&&(buf_tx_232[0]=='1'))
// 1635                          { 
// 1636                          for(i=0;i<(L_KEYS-2);i++)buf[i]=keys_def[i];
// 1637                          *(unsigned int*)&buf[L_KEYS-2]=crc_m1(&buf[0],L_KEYS-2,0xffff);
// 1638                          WrArrayToFlesh(A_KEYS,&buf[0],L_KEYS,0,0); 
// 1639                          
// 1640                          if(check_keys()==1)goto bad_com_232;
// 1641                          
// 1642                          mov_s ( sizeof(ok_t),ok_t); 
// 1643                          return;
// 1644                          }else goto bad_com_232;
// 1645                       
// 1646  
// 1647                       
// 1648                       
// 1649   default:goto bad_com_232;
// 1650                                                                
// 1651          }                                                                     
// 1652 
// 1653   
// 1654   //***//*************************************************************
// 1655   
// 1656   bad_com_232:                        
// 1657           vol_tx_ppp=0;                                   
??write_menu_1:
        LDI	R16, 0
        LDI	R30, LOW(vol_tx_ppp)
        LDI	R31, (vol_tx_ppp) >> 8
        ST	Z, R16
        STD	Z+1, R16
// 1658           mov_s ( sizeof(err_t),err_t);
        LDI	R18, LOW((keys_def + 8))
        LDI	R19, HIGH((keys_def + 8))
        LDI	R16, 5
??write_menu_7:
        CALL	mov_s
// 1659          // read_menu(index_menu);
// 1660           return;  
        ADIW	R29:R28, 63
        CFI CFA_Y Y+19
        ADIW	R29:R28, 11
        CFI CFA_Y Y+8
        LDI	R30, 8
        JMP	?EPILOGUE_B8_L09
        CFI CFA_Y Y+82
??write_menu_3:
        LDI	R20, 60
        LDI	R21, 0
        MOVW	R19:R18, R29:R28
        SUBI	R18, 252
        SBCI	R19, 255
        LDI	R16, 4
??write_menu_8:
        LDI	R17, 1
        CALL	RdFromFleshToArr
        LDD	R16, Y+4
        TST	R16
        BRNE	??write_menu_5
        RJMP	??write_menu_1
??write_menu_4:
        LDI	R20, 60
        LDI	R21, 0
        MOVW	R19:R18, R29:R28
        SUBI	R18, 252
        SBCI	R19, 255
        LDI	R16, 64
        RJMP	??write_menu_8
??write_menu_6:
        LDI	R20, 255
        LDI	R21, 255
        LDI	R18, 58
        LDI	R19, 0
        MOVW	R17:R16, R29:R28
        SUBI	R16, 252
        SBCI	R17, 255
        CALL	crc_m1
        STD	Y+62, R16
        STD	Y+63, R17
        LDI	R23, 0
        LDI	R22, 0
        LDI	R20, 60
        LDI	R21, 0
        MOVW	R19:R18, R29:R28
        SUBI	R18, 252
        SBCI	R19, 255
        LDI	R16, 20
??write_menu_9:
        LDI	R17, 0
??write_menu_10:
        CALL	WrArrayToFlesh
        RJMP	??write_menu_11
??write_menu_12:
        LDI	R30, LOW(vol_tx_ppp)
        LDI	R31, (vol_tx_ppp) >> 8
        LD	R16, Z
        LDD	R17, Z+1
        CPI	R16, 2
        LDI	R18, 0
        CPC	R17, R18
        BREQ	$+2+2
        RJMP	??write_menu_1
        LD	R16, X
        SUBI	R16, 49
        BREQ	??write_menu_13
        DEC	R16
        BREQ	??write_menu_14
        DEC	R16
        BREQ	??write_menu_15
        RJMP	??write_menu_1
??write_menu_13:
        LDI	R20, 60
        LDI	R21, 0
        MOVW	R19:R18, R29:R28
        SUBI	R18, 252
        SBCI	R19, 255
        LDI	R16, 200
        LDI	R17, 0
        CALL	RdFromFleshToArr
        LDD	R16, Y+4
        TST	R16
        BRNE	$+2+2
        RJMP	??write_menu_1
??write_menu_16:
        LDD	R16, Y+4
        CPI	R16, 31
        BRCS	$+2+2
        RJMP	??write_menu_1
        LDI	R20, 255
        LDI	R21, 255
        LDI	R18, 58
        LDI	R19, 0
        MOVW	R17:R16, R29:R28
        SUBI	R16, 252
        SBCI	R17, 255
        CALL	crc_m1
        STD	Y+62, R16
        STD	Y+63, R17
        LDI	R23, 0
        LDI	R22, 0
        LDI	R20, 60
        LDI	R21, 0
        MOVW	R19:R18, R29:R28
        SUBI	R18, 252
        SBCI	R19, 255
        LDI	R16, 80
        RJMP	??write_menu_9
??write_menu_14:
        LDI	R20, 60
        LDI	R21, 0
        MOVW	R19:R18, R29:R28
        SUBI	R18, 252
        SBCI	R19, 255
        LDI	R16, 4
??write_menu_17:
        LDI	R17, 1
        CALL	RdFromFleshToArr
        LDD	R16, Y+4
        TST	R16
        BRNE	??write_menu_16
        RJMP	??write_menu_1
??write_menu_15:
        LDI	R20, 60
        LDI	R21, 0
        MOVW	R19:R18, R29:R28
        SUBI	R18, 252
        SBCI	R19, 255
        LDI	R16, 64
        RJMP	??write_menu_17
??write_menu_18:
        LDI	R30, LOW(vol_tx_ppp)
        LDI	R31, (vol_tx_ppp) >> 8
        LD	R16, Z
        LDD	R17, Z+1
        CPI	R16, 16
        LDI	R18, 0
        CPC	R17, R18
        BREQ	$+2+2
        RJMP	??write_menu_1
        MOVW	R31:R30, R27:R26
        LDD	R16, Z+3
        CPI	R16, 46
        BREQ	$+2+2
        RJMP	??write_menu_1
        LDD	R16, Z+7
        CPI	R16, 46
        BREQ	$+2+2
        RJMP	??write_menu_1
        LDD	R16, Z+11
        CPI	R16, 46
        BREQ	$+2+2
        RJMP	??write_menu_1
        LDI	R20, 10
        LDI	R21, 0
        MOVW	R19:R18, R29:R28
        SUBI	R18, 252
        SBCI	R19, 255
        LDI	R16, 140
        LDI	R17, 0
        CALL	RdFromFleshToArr
        MOVW	R17:R16, R27:R26
        CALL	atol
        ST	Y, R16
        STD	Y+1, R17
        STD	Y+2, R18
        STD	Y+3, R19
        LD	R16, Y
        LDD	R17, Y+1
        LDD	R18, Y+2
        LDD	R19, Y+3
        CPI	R16, 0
        LDI	R20, 1
        CPC	R17, R20
        LDI	R20, 0
        CPC	R18, R20
        CPC	R19, R20
        BRCS	$+2+2
        RJMP	??write_menu_1
        LD	R16, Y
        STD	Y+4, R16
        MOVW	R17:R16, R27:R26
        SUBI	R16, 252
        SBCI	R17, 255
        CALL	atol
        ST	Y, R16
        STD	Y+1, R17
        STD	Y+2, R18
        STD	Y+3, R19
        LD	R16, Y
        LDD	R17, Y+1
        LDD	R18, Y+2
        LDD	R19, Y+3
        CPI	R16, 0
        LDI	R20, 1
        CPC	R17, R20
        LDI	R20, 0
        CPC	R18, R20
        CPC	R19, R20
        BRCS	$+2+2
        RJMP	??write_menu_1
        LD	R16, Y
        STD	Y+5, R16
        MOVW	R17:R16, R27:R26
        SUBI	R16, 248
        SBCI	R17, 255
        CALL	atol
        ST	Y, R16
        STD	Y+1, R17
        STD	Y+2, R18
        STD	Y+3, R19
        LD	R16, Y
        LDD	R17, Y+1
        LDD	R18, Y+2
        LDD	R19, Y+3
        CPI	R16, 0
        LDI	R20, 1
        CPC	R17, R20
        LDI	R20, 0
        CPC	R18, R20
        CPC	R19, R20
        BRCS	$+2+2
        RJMP	??write_menu_1
        LD	R16, Y
        STD	Y+6, R16
        ADIW	R27:R26, 12
        MOVW	R17:R16, R27:R26
        CALL	atol
        ST	Y, R16
        STD	Y+1, R17
        STD	Y+2, R18
        STD	Y+3, R19
        LD	R16, Y
        LDD	R17, Y+1
        LDD	R18, Y+2
        LDD	R19, Y+3
        CPI	R16, 0
        LDI	R20, 1
        CPC	R17, R20
        LDI	R20, 0
        CPC	R18, R20
        CPC	R19, R20
        BRCS	$+2+2
        RJMP	??write_menu_1
        LD	R16, Y
        STD	Y+7, R16
??write_menu_19:
        LDI	R20, 255
        LDI	R21, 255
        LDI	R18, 8
        LDI	R19, 0
        MOVW	R17:R16, R29:R28
        SUBI	R16, 252
        SBCI	R17, 255
        CALL	crc_m1
        STD	Y+12, R16
        STD	Y+13, R17
        LDI	R23, 0
        LDI	R22, 0
        LDI	R20, 10
        LDI	R21, 0
        MOVW	R19:R18, R29:R28
        SUBI	R18, 252
        SBCI	R19, 255
        LDI	R16, 140
        RJMP	??write_menu_9
??write_menu_20:
        MOVW	R17:R16, R27:R26
        CALL	atol
        ST	Y, R16
        STD	Y+1, R17
        STD	Y+2, R18
        STD	Y+3, R19
        LD	R16, Y
        LDD	R17, Y+1
        LDD	R18, Y+2
        LDD	R19, Y+3
        CPI	R16, 0
        LDI	R20, 0
        CPC	R17, R20
        LDI	R20, 1
        CPC	R18, R20
        LDI	R20, 0
        CPC	R19, R20
        BRCS	$+2+2
        RJMP	??write_menu_1
        LDI	R20, 10
        LDI	R21, 0
        MOVW	R19:R18, R29:R28
        SUBI	R18, 252
        SBCI	R19, 255
        LDI	R16, 140
        LDI	R17, 0
        CALL	RdFromFleshToArr
        LD	R16, Y
        LDD	R17, Y+1
        STD	Y+8, R16
        STD	Y+9, R17
        RJMP	??write_menu_19
??write_menu_21:
        MOVW	R17:R16, R27:R26
        CALL	atol
        ST	Y, R16
        STD	Y+1, R17
        STD	Y+2, R18
        STD	Y+3, R19
        LD	R16, Y
        LDD	R17, Y+1
        LDD	R18, Y+2
        LDD	R19, Y+3
        CPI	R16, 3
        LDI	R20, 0
        CPC	R17, R20
        CPC	R18, R20
        CPC	R19, R20
        BRCC	$+2+2
        RJMP	??write_menu_1
        LD	R16, Y
        LDD	R17, Y+1
        LDD	R18, Y+2
        LDD	R19, Y+3
        CPI	R16, 0
        CPC	R17, R20
        LDI	R20, 1
        CPC	R18, R20
        LDI	R20, 0
        CPC	R19, R20
        BRCS	$+2+2
        RJMP	??write_menu_1
        LDI	R20, 10
        LDI	R21, 0
        MOVW	R19:R18, R29:R28
        SUBI	R18, 252
        SBCI	R19, 255
        LDI	R16, 140
        LDI	R17, 0
        CALL	RdFromFleshToArr
        LD	R16, Y
        LDD	R17, Y+1
        STD	Y+10, R16
        STD	Y+11, R17
        RJMP	??write_menu_19
??write_menu_22:
        MOVW	R17:R16, R27:R26
        CALL	atol
        ST	Y, R16
        STD	Y+1, R17
        STD	Y+2, R18
        STD	Y+3, R19
        LD	R16, Y
        LDD	R17, Y+1
        LDD	R18, Y+2
        LDD	R19, Y+3
        CPI	R16, 10
        LDI	R20, 0
        CPC	R17, R20
        CPC	R18, R20
        CPC	R19, R20
        BRCC	$+2+2
        RJMP	??write_menu_1
        LD	R16, Y
        LDD	R17, Y+1
        LDD	R18, Y+2
        LDD	R19, Y+3
        CPI	R16, 0
        CPC	R17, R20
        LDI	R20, 1
        CPC	R18, R20
        LDI	R20, 0
        CPC	R19, R20
        BRCS	$+2+2
        RJMP	??write_menu_1
        LDI	R20, 14
        LDI	R21, 0
        MOVW	R19:R18, R29:R28
        SUBI	R18, 252
        SBCI	R19, 255
        LDI	R16, 150
        LDI	R17, 0
        CALL	RdFromFleshToArr
        LD	R16, Y
        LDD	R17, Y+1
        STD	Y+4, R16
        STD	Y+5, R17
??write_menu_23:
        LDI	R20, 255
        LDI	R21, 255
        LDI	R18, 12
        LDI	R19, 0
        MOVW	R17:R16, R29:R28
        SUBI	R16, 252
        SBCI	R17, 255
        CALL	crc_m1
        STD	Y+16, R16
        STD	Y+17, R17
        LDI	R23, 0
        LDI	R22, 0
        LDI	R20, 14
        LDI	R21, 0
        MOVW	R19:R18, R29:R28
        SUBI	R18, 252
        SBCI	R19, 255
        LDI	R16, 150
        RJMP	??write_menu_9
??write_menu_24:
        MOVW	R17:R16, R27:R26
        CALL	atol
        ST	Y, R16
        STD	Y+1, R17
        STD	Y+2, R18
        STD	Y+3, R19
        LD	R16, Y
        LDD	R17, Y+1
        LDD	R18, Y+2
        LDD	R19, Y+3
        CPI	R16, 10
        LDI	R20, 0
        CPC	R17, R20
        CPC	R18, R20
        CPC	R19, R20
        BRCC	$+2+2
        RJMP	??write_menu_1
        LD	R16, Y
        LDD	R17, Y+1
        LDD	R18, Y+2
        LDD	R19, Y+3
        CPI	R16, 0
        CPC	R17, R20
        LDI	R20, 1
        CPC	R18, R20
        LDI	R20, 0
        CPC	R19, R20
        BRCS	$+2+2
        RJMP	??write_menu_1
        LDI	R20, 14
        LDI	R21, 0
        MOVW	R19:R18, R29:R28
        SUBI	R18, 252
        SBCI	R19, 255
        LDI	R16, 150
        LDI	R17, 0
        CALL	RdFromFleshToArr
        LD	R16, Y
        LDD	R17, Y+1
        STD	Y+14, R16
        STD	Y+15, R17
        RJMP	??write_menu_23
??write_menu_25:
        MOVW	R17:R16, R27:R26
        CALL	atol
        ST	Y, R16
        STD	Y+1, R17
        STD	Y+2, R18
        STD	Y+3, R19
        LD	R16, Y
        LDD	R17, Y+1
        LDD	R18, Y+2
        LDD	R19, Y+3
        CPI	R16, 10
        LDI	R20, 0
        CPC	R17, R20
        CPC	R18, R20
        CPC	R19, R20
        BRCC	$+2+2
        RJMP	??write_menu_1
        LD	R16, Y
        LDD	R17, Y+1
        LDD	R18, Y+2
        LDD	R19, Y+3
        CPI	R16, 0
        CPC	R17, R20
        LDI	R20, 1
        CPC	R18, R20
        LDI	R20, 0
        CPC	R19, R20
        BRCS	$+2+2
        RJMP	??write_menu_1
        LDI	R20, 14
        LDI	R21, 0
        MOVW	R19:R18, R29:R28
        SUBI	R18, 252
        SBCI	R19, 255
        LDI	R16, 150
        LDI	R17, 0
        CALL	RdFromFleshToArr
        LD	R16, Y
        LDD	R17, Y+1
        STD	Y+6, R16
        STD	Y+7, R17
        RJMP	??write_menu_23
??write_menu_26:
        MOVW	R17:R16, R27:R26
        CALL	atol
        ST	Y, R16
        STD	Y+1, R17
        STD	Y+2, R18
        STD	Y+3, R19
        LD	R16, Y
        LDD	R17, Y+1
        LDD	R18, Y+2
        LDD	R19, Y+3
        CPI	R16, 5
        LDI	R20, 0
        CPC	R17, R20
        CPC	R18, R20
        CPC	R19, R20
        BRCC	$+2+2
        RJMP	??write_menu_1
        LD	R16, Y
        LDD	R17, Y+1
        LDD	R18, Y+2
        LDD	R19, Y+3
        CPI	R16, 0
        CPC	R17, R20
        LDI	R20, 1
        CPC	R18, R20
        LDI	R20, 0
        CPC	R19, R20
        BRCS	$+2+2
        RJMP	??write_menu_1
        LDI	R20, 14
        LDI	R21, 0
        MOVW	R19:R18, R29:R28
        SUBI	R18, 252
        SBCI	R19, 255
        LDI	R16, 150
        LDI	R17, 0
        CALL	RdFromFleshToArr
        LD	R16, Y
        LDD	R17, Y+1
        STD	Y+8, R16
        STD	Y+9, R17
        RJMP	??write_menu_23
??write_menu_27:
        MOVW	R17:R16, R27:R26
        CALL	atol
        ST	Y, R16
        STD	Y+1, R17
        STD	Y+2, R18
        STD	Y+3, R19
        LD	R16, Y
        LDD	R17, Y+1
        LDD	R18, Y+2
        LDD	R19, Y+3
        CPI	R16, 0
        LDI	R20, 0
        CPC	R17, R20
        LDI	R20, 1
        CPC	R18, R20
        LDI	R20, 0
        CPC	R19, R20
        BRCS	$+2+2
        RJMP	??write_menu_1
        LDI	R20, 14
        LDI	R21, 0
        MOVW	R19:R18, R29:R28
        SUBI	R18, 252
        SBCI	R19, 255
        LDI	R16, 150
        LDI	R17, 0
        CALL	RdFromFleshToArr
        LD	R16, Y
        LDD	R17, Y+1
        LDD	R18, Y+2
        LDD	R19, Y+3
        OR	R16, R17
        OR	R16, R18
        OR	R16, R19
        BREQ	??write_menu_28
        LDD	R24, Y+6
        LDD	R25, Y+7
        LDI	R26, 0
        LDI	R27, 0
        LD	R20, Y
        LDD	R21, Y+1
        LDD	R22, Y+2
        LDD	R23, Y+3
        LDI	R16, 60
        LDI	R17, 0
        LDI	R18, 0
        LDI	R19, 0
        CALL	?L_EC_MUL_L03
        CP	R24, R16
        CPC	R25, R17
        CPC	R26, R18
        CPC	R27, R19
        BRCS	$+2+2
        RJMP	??write_menu_1
??write_menu_28:
        LD	R16, Y
        LDD	R17, Y+1
        STD	Y+10, R16
        STD	Y+11, R17
        RJMP	??write_menu_23
??write_menu_29:
        MOVW	R17:R16, R27:R26
        CALL	atol
        ST	Y, R16
        STD	Y+1, R17
        STD	Y+2, R18
        STD	Y+3, R19
        LD	R16, Y
        LDD	R17, Y+1
        LDD	R18, Y+2
        LDD	R19, Y+3
        CPI	R16, 30
        LDI	R20, 0
        CPC	R17, R20
        CPC	R18, R20
        CPC	R19, R20
        BRCC	$+2+2
        RJMP	??write_menu_1
        LD	R16, Y
        LDD	R17, Y+1
        LDD	R18, Y+2
        LDD	R19, Y+3
        CPI	R16, 0
        CPC	R17, R20
        LDI	R20, 1
        CPC	R18, R20
        LDI	R20, 0
        CPC	R19, R20
        BRCS	$+2+2
        RJMP	??write_menu_1
        LDI	R20, 14
        LDI	R21, 0
        MOVW	R19:R18, R29:R28
        SUBI	R18, 252
        SBCI	R19, 255
        LDI	R16, 150
        LDI	R17, 0
        CALL	RdFromFleshToArr
        LDD	R24, Y+6
        LDD	R25, Y+7
        LDI	R26, 0
        LDI	R27, 0
        LD	R20, Y
        LDD	R21, Y+1
        LDD	R22, Y+2
        LDD	R23, Y+3
        LDI	R16, 60
        LDI	R17, 0
        LDI	R18, 0
        LDI	R19, 0
        CALL	?L_EC_MUL_L03
        CP	R24, R16
        CPC	R25, R17
        CPC	R26, R18
        CPC	R27, R19
        BRCS	$+2+2
        RJMP	??write_menu_1
        LD	R16, Y
        LDD	R17, Y+1
        STD	Y+12, R16
        STD	Y+13, R17
        RJMP	??write_menu_23
??write_menu_30:
        LDI	R30, LOW(vol_tx_ppp)
        LDI	R31, (vol_tx_ppp) >> 8
        LD	R16, Z
        LDD	R17, Z+1
        CPI	R16, 2
        LDI	R18, 0
        CPC	R17, R18
        BREQ	$+2+2
        RJMP	??write_menu_1
        LD	R16, X
        CPI	R16, 48
        BREQ	??write_menu_31
        LD	R16, X
        CPI	R16, 49
        BREQ	$+2+2
        RJMP	??write_menu_1
??write_menu_31:
        LD	R16, X
        SUBI	R16, 48
        ST	Y, R16
        LDI	R20, 11
        LDI	R21, 0
        MOVW	R19:R18, R29:R28
        SUBI	R18, 252
        SBCI	R19, 255
        LDI	R16, 164
        LDI	R17, 0
        CALL	RdFromFleshToArr
        LD	R16, Y
        STD	Y+4, R16
??write_menu_32:
        LDI	R20, 255
        LDI	R21, 255
        LDI	R18, 9
        LDI	R19, 0
        MOVW	R17:R16, R29:R28
        SUBI	R16, 252
        SBCI	R17, 255
        CALL	crc_m1
        STD	Y+13, R16
        STD	Y+14, R17
        LDI	R23, 0
        LDI	R22, 0
        LDI	R20, 11
        LDI	R21, 0
        MOVW	R19:R18, R29:R28
        SUBI	R18, 252
        SBCI	R19, 255
        LDI	R16, 164
        RJMP	??write_menu_9
??write_menu_33:
        MOVW	R17:R16, R27:R26
        CALL	atol
        ST	Y, R16
        STD	Y+1, R17
        STD	Y+2, R18
        STD	Y+3, R19
        LD	R16, Y
        LDD	R17, Y+1
        LDD	R18, Y+2
        LDD	R19, Y+3
        CPI	R16, 3
        LDI	R20, 0
        CPC	R17, R20
        CPC	R18, R20
        CPC	R19, R20
        BRCC	$+2+2
        RJMP	??write_menu_1
        LD	R16, Y
        LDD	R17, Y+1
        LDD	R18, Y+2
        LDD	R19, Y+3
        CPI	R16, 0
        CPC	R17, R20
        LDI	R20, 1
        CPC	R18, R20
        LDI	R20, 0
        CPC	R19, R20
        BRCS	$+2+2
        RJMP	??write_menu_1
        LDI	R20, 11
        LDI	R21, 0
        MOVW	R19:R18, R29:R28
        SUBI	R18, 252
        SBCI	R19, 255
        LDI	R16, 164
        LDI	R17, 0
        CALL	RdFromFleshToArr
        LD	R16, Y
        LDD	R17, Y+1
        STD	Y+5, R16
        STD	Y+6, R17
        RJMP	??write_menu_32
??write_menu_34:
        MOVW	R17:R16, R27:R26
        CALL	atol
        ST	Y, R16
        STD	Y+1, R17
        STD	Y+2, R18
        STD	Y+3, R19
        LD	R16, Y
        LDD	R17, Y+1
        LDD	R18, Y+2
        LDD	R19, Y+3
        OR	R16, R17
        OR	R16, R18
        OR	R16, R19
        BRNE	$+2+2
        RJMP	??write_menu_1
        LD	R16, Y
        LDD	R17, Y+1
        LDD	R18, Y+2
        LDD	R19, Y+3
        CPI	R16, 0
        LDI	R20, 0
        CPC	R17, R20
        LDI	R20, 1
        CPC	R18, R20
        LDI	R20, 0
        CPC	R19, R20
        BRCS	$+2+2
        RJMP	??write_menu_1
        LDI	R20, 11
        LDI	R21, 0
        MOVW	R19:R18, R29:R28
        SUBI	R18, 252
        SBCI	R19, 255
        LDI	R16, 164
        LDI	R17, 0
        CALL	RdFromFleshToArr
        LD	R16, Y
        LDD	R17, Y+1
        STD	Y+7, R16
        STD	Y+8, R17
        RJMP	??write_menu_32
??write_menu_35:
        MOVW	R17:R16, R27:R26
        CALL	atol
        ST	Y, R16
        STD	Y+1, R17
        STD	Y+2, R18
        STD	Y+3, R19
        LD	R16, Y
        LDD	R17, Y+1
        LDD	R18, Y+2
        LDD	R19, Y+3
        CPI	R16, 5
        LDI	R20, 0
        CPC	R17, R20
        CPC	R18, R20
        CPC	R19, R20
        BRCC	$+2+2
        RJMP	??write_menu_1
        LD	R16, Y
        LDD	R17, Y+1
        LDD	R18, Y+2
        LDD	R19, Y+3
        CPI	R16, 0
        CPC	R17, R20
        LDI	R20, 1
        CPC	R18, R20
        LDI	R20, 0
        CPC	R19, R20
        BRCS	$+2+2
        RJMP	??write_menu_1
        LDI	R20, 11
        LDI	R21, 0
        MOVW	R19:R18, R29:R28
        SUBI	R18, 252
        SBCI	R19, 255
        LDI	R16, 164
        LDI	R17, 0
        CALL	RdFromFleshToArr
        LD	R16, Y
        LDD	R17, Y+1
        STD	Y+9, R16
        STD	Y+10, R17
        RJMP	??write_menu_32
??write_menu_36:
        MOVW	R17:R16, R27:R26
        CALL	atol
        ST	Y, R16
        STD	Y+1, R17
        STD	Y+2, R18
        STD	Y+3, R19
        LD	R16, Y
        LDD	R17, Y+1
        LDD	R18, Y+2
        LDD	R19, Y+3
        CPI	R16, 3
        LDI	R20, 0
        CPC	R17, R20
        CPC	R18, R20
        CPC	R19, R20
        BRCS	$+2+2
        RJMP	??write_menu_1
        LDI	R20, 11
        LDI	R21, 0
        MOVW	R19:R18, R29:R28
        SUBI	R18, 252
        SBCI	R19, 255
        LDI	R16, 164
        LDI	R17, 0
        CALL	RdFromFleshToArr
        LD	R16, Y
        STD	Y+11, R16
        RJMP	??write_menu_32
??write_menu_37:
        MOVW	R17:R16, R27:R26
        CALL	atol
        ST	Y, R16
        STD	Y+1, R17
        STD	Y+2, R18
        STD	Y+3, R19
        LD	R16, Y
        LDD	R17, Y+1
        LDD	R18, Y+2
        LDD	R19, Y+3
        CPI	R16, 2
        LDI	R20, 0
        CPC	R17, R20
        CPC	R18, R20
        CPC	R19, R20
        BRCS	$+2+2
        RJMP	??write_menu_1
        LDI	R20, 11
        LDI	R21, 0
        MOVW	R19:R18, R29:R28
        SUBI	R18, 252
        SBCI	R19, 255
        LDI	R16, 164
        LDI	R17, 0
        CALL	RdFromFleshToArr
        LD	R16, Y
        STD	Y+12, R16
        RJMP	??write_menu_32
??write_menu_38:
        MOVW	R17:R16, R27:R26
        CALL	atol
        ST	Y, R16
        STD	Y+1, R17
        STD	Y+2, R18
        STD	Y+3, R19
        LD	R16, Y
        LDD	R17, Y+1
        LDD	R18, Y+2
        LDD	R19, Y+3
        CPI	R16, 4
        LDI	R20, 0
        CPC	R17, R20
        CPC	R18, R20
        CPC	R19, R20
        BRCS	$+2+2
        RJMP	??write_menu_1
        LD	R16, Y
        LDI	R20, 3
        LDI	R21, 0
        CALL	__eeput8_16
        RJMP	??write_menu_11
??write_menu_39:
        LDI	R30, LOW(vol_tx_ppp)
        LDI	R31, (vol_tx_ppp) >> 8
        LD	R24, Z
        LDD	R25, Z+1
        CPI	R24, 7
        SBCI	R25, 0
        BRCC	$+2+2
        RJMP	??write_menu_1
        LD	R16, Z
        LDD	R17, Z+1
        CPI	R16, 61
        LDI	R18, 0
        CPC	R17, R18
        BRCS	$+2+2
        RJMP	??write_menu_1
        LD	R16, X
        CPI	R16, 34
        BREQ	$+2+2
        RJMP	??write_menu_1
        MOVW	R31:R30, R5:R4
        LD	R16, Z
        CPI	R16, 34
        BREQ	$+2+2
        RJMP	??write_menu_1
        LDI	R20, 60
        LDI	R21, 0
        MOVW	R19:R18, R29:R28
        SUBI	R18, 252
        SBCI	R19, 255
        LDI	R16, 200
        LDI	R17, 0
        CALL	RdFromFleshToArr
        LDI	R18, 0
        LDI	R16, 1
        RJMP	??write_menu_40
??write_menu_41:
        INC	R16
        INC	R18
??write_menu_40:
        LDI	R17, 0
        MOVW	R31:R30, R27:R26
        ADD	R30, R16
        ADC	R31, R17
        LD	R17, Z
        CPI	R17, 34
        BRNE	??write_menu_41
        LDI	R30, LOW(vol_tx_ppp)
        LDI	R31, (vol_tx_ppp) >> 8
        LD	R0, Z
        LDD	R1, Z+1
        LDI	R17, 254
        ADD	R0, R17
        LDI	R17, 255
        ADC	R1, R17
        LDI	R17, 0
        CP	R16, R0
        CPC	R17, R1
        BRCS	$+2+2
        RJMP	??write_menu_1
        INC	R16
        MOVW	R31:R30, R27:R26
        ADD	R30, R16
        ADC	R31, R17
        LD	R17, Z
        CPI	R17, 34
        BREQ	$+2+2
        RJMP	??write_menu_1
        LDI	R30, LOW(vol_tx_ppp)
        LDI	R31, (vol_tx_ppp) >> 8
        LD	R24, Z
        LDD	R25, Z+1
        SBIW	R25:R24, 1
        LDI	R17, 0
        CP	R16, R24
        CPC	R17, R25
        BRCS	$+2+2
        RJMP	??write_menu_1
        STD	Y+4, R18
        LDI	R18, 0
        RJMP	??write_menu_42
??write_menu_43:
        MOV	R20, R18
        LDI	R21, 0
        MOVW	R31:R30, R27:R26
        ADD	R30, R20
        ADC	R31, R21
        LDD	R17, Z+1
        MOVW	R31:R30, R29:R28
        ADIW	R31:R30, 4
        ADD	R30, R20
        ADC	R31, R21
        STD	Z+1, R17
        INC	R18
??write_menu_42:
        LDD	R17, Y+4
        CP	R18, R17
        BRCS	??write_menu_43
        LDD	R20, Y+4
        INC	R20
        LDI	R18, 0
        INC	R16
        MOV	R22, R16
        RJMP	??write_menu_44
??write_menu_45:
        INC	R16
        INC	R18
??write_menu_44:
        LDI	R17, 0
        MOVW	R31:R30, R27:R26
        ADD	R30, R16
        ADC	R31, R17
        LD	R17, Z
        CPI	R17, 34
        BRNE	??write_menu_45
        LDI	R17, 0
        CP	R16, R0
        CPC	R17, R1
        BRCS	$+2+2
        RJMP	??write_menu_1
        INC	R16
        MOVW	R31:R30, R27:R26
        ADD	R30, R16
        ADC	R31, R17
        LD	R17, Z
        CPI	R17, 34
        BREQ	$+2+2
        RJMP	??write_menu_1
        LDI	R17, 0
        CP	R16, R24
        CPC	R17, R25
        BRCS	$+2+2
        RJMP	??write_menu_1
        CLR	R3
        MOVW	R1:R0, R29:R28
        LDI	R17, 4
        ADD	R0, R17
        ADC	R1, R3
        ADD	R0, R20
        ADC	R1, R3
        MOVW	R31:R30, R1:R0
        ST	Z, R18
        LDI	R18, 0
        RJMP	??write_menu_46
??write_menu_47:
        MOV	R4, R18
        CLR	R5
        MOV	R6, R22
        CLR	R7
        ADD	R6, R4
        ADC	R7, R3
        MOVW	R31:R30, R27:R26
        ADD	R30, R6
        ADC	R31, R7
        LD	R19, Z
        MOVW	R31:R30, R29:R28
        ADIW	R31:R30, 4
        ADD	R4, R20
        ADC	R5, R3
        ADD	R30, R4
        ADC	R31, R5
        STD	Z+1, R19
        INC	R18
??write_menu_46:
        MOVW	R31:R30, R1:R0
        LD	R17, Z
        CP	R18, R17
        BRCS	??write_menu_47
        INC	R17
        ADD	R20, R17
        LDI	R18, 0
        INC	R16
        MOV	R22, R16
        RJMP	??write_menu_48
??write_menu_49:
        INC	R16
        INC	R18
??write_menu_48:
        MOVW	R31:R30, R27:R26
        ADD	R30, R16
        ADC	R31, R3
        LD	R17, Z
        CPI	R17, 34
        BRNE	??write_menu_49
        LDI	R17, 0
        CP	R16, R24
        CPC	R17, R25
        BRCS	$+2+2
        RJMP	??write_menu_1
        LDI	R21, 0
        MOVW	R17:R16, R29:R28
        SUBI	R16, 252
        SBCI	R17, 255
        ADD	R16, R20
        ADC	R17, R3
        MOVW	R31:R30, R17:R16
        ST	Z, R18
        LDI	R18, 0
        RJMP	??write_menu_50
??write_menu_51:
        MOV	R0, R18
        CLR	R1
        MOV	R2, R22
        CLR	R3
        ADD	R2, R0
        ADC	R3, R21
        MOVW	R31:R30, R27:R26
        ADD	R30, R2
        ADC	R31, R3
        LD	R19, Z
        MOVW	R31:R30, R29:R28
        ADIW	R31:R30, 4
        ADD	R0, R20
        ADC	R1, R21
        ADD	R30, R0
        ADC	R31, R1
        STD	Z+1, R19
        INC	R18
??write_menu_50:
        MOVW	R31:R30, R17:R16
        LD	R19, Z
        CP	R18, R19
        BRCS	??write_menu_51
        LDI	R20, 255
        LDI	R21, 255
        LDI	R18, 58
        LDI	R19, 0
        MOVW	R17:R16, R29:R28
        SUBI	R16, 252
        SBCI	R17, 255
        CALL	crc_m1
        STD	Y+62, R16
        STD	Y+63, R17
        LDI	R23, 0
        LDI	R22, 0
        LDI	R20, 60
        LDI	R21, 0
        MOVW	R19:R18, R29:R28
        SUBI	R18, 252
        SBCI	R19, 255
        LDI	R16, 200
        LDI	R17, 0
        CALL	WrArrayToFlesh
        LDI	R16, 0
        LDI	R30, LOW(vol_tx_ppp)
        LDI	R31, (vol_tx_ppp) >> 8
        ST	Z, R16
        STD	Z+1, R16
        LDI	R18, LOW((keys_def + 13))
        LDI	R19, HIGH((keys_def + 13))
        LDI	R16, 4
        CALL	mov_s
??write_menu_52:
        LDI	R30, LOW(vol_tx_ppp)
        LDI	R31, (vol_tx_ppp) >> 8
        LD	R24, Z
        LDD	R25, Z+1
        CPI	R24, 7
        SBCI	R25, 0
        BRCC	$+2+2
        RJMP	??write_menu_1
        LD	R16, Z
        LDD	R17, Z+1
        CPI	R16, 61
        LDI	R18, 0
        CPC	R17, R18
        BRCS	$+2+2
        RJMP	??write_menu_1
        LD	R16, X
        CPI	R16, 34
        BREQ	$+2+2
        RJMP	??write_menu_1
        LD	R16, Z
        LDD	R17, Z+1
        MOVW	R31:R30, R27:R26
        ADD	R30, R16
        ADC	R31, R17
        SBIW	R31:R30, 2
        LD	R16, Z
        CPI	R16, 34
        BREQ	$+2+2
        RJMP	??write_menu_1
        LDI	R20, 60
        LDI	R21, 0
        MOVW	R19:R18, R29:R28
        SUBI	R18, 252
        SBCI	R19, 255
        LDI	R16, 4
        LDI	R17, 1
        CALL	RdFromFleshToArr
        LDI	R18, 0
        LDI	R16, 1
        RJMP	??write_menu_53
??write_menu_54:
        INC	R16
        INC	R18
??write_menu_53:
        LDI	R17, 0
        MOVW	R31:R30, R27:R26
        ADD	R30, R16
        ADC	R31, R17
        LD	R17, Z
        CPI	R17, 34
        BRNE	??write_menu_54
        LDI	R30, LOW(vol_tx_ppp)
        LDI	R31, (vol_tx_ppp) >> 8
        LD	R0, Z
        LDD	R1, Z+1
        LDI	R17, 254
        ADD	R0, R17
        LDI	R17, 255
        ADC	R1, R17
        LDI	R17, 0
        CP	R16, R0
        CPC	R17, R1
        BRCS	$+2+2
        RJMP	??write_menu_1
        INC	R16
        MOVW	R31:R30, R27:R26
        ADD	R30, R16
        ADC	R31, R17
        LD	R17, Z
        CPI	R17, 34
        BREQ	$+2+2
        RJMP	??write_menu_1
        LDI	R30, LOW(vol_tx_ppp)
        LDI	R31, (vol_tx_ppp) >> 8
        LD	R24, Z
        LDD	R25, Z+1
        SBIW	R25:R24, 1
        LDI	R17, 0
        CP	R16, R24
        CPC	R17, R25
        BRCS	$+2+2
        RJMP	??write_menu_1
        STD	Y+4, R18
        LDI	R18, 0
        RJMP	??write_menu_55
??write_menu_56:
        MOV	R20, R18
        LDI	R21, 0
        MOVW	R31:R30, R27:R26
        ADD	R30, R20
        ADC	R31, R21
        LDD	R17, Z+1
        MOVW	R31:R30, R29:R28
        ADIW	R31:R30, 4
        ADD	R30, R20
        ADC	R31, R21
        STD	Z+1, R17
        INC	R18
??write_menu_55:
        LDD	R17, Y+4
        CP	R18, R17
        BRCS	??write_menu_56
        LDD	R20, Y+4
        INC	R20
        LDI	R18, 0
        INC	R16
        MOV	R22, R16
        RJMP	??write_menu_57
??write_menu_58:
        INC	R16
        INC	R18
??write_menu_57:
        LDI	R17, 0
        MOVW	R31:R30, R27:R26
        ADD	R30, R16
        ADC	R31, R17
        LD	R17, Z
        CPI	R17, 34
        BRNE	??write_menu_58
        LDI	R17, 0
        CP	R16, R0
        CPC	R17, R1
        BRCS	$+2+2
        RJMP	??write_menu_1
        INC	R16
        MOVW	R31:R30, R27:R26
        ADD	R30, R16
        ADC	R31, R17
        LD	R17, Z
        CPI	R17, 34
        BREQ	$+2+2
        RJMP	??write_menu_1
        LDI	R17, 0
        CP	R16, R24
        CPC	R17, R25
        BRCS	$+2+2
        RJMP	??write_menu_1
        CLR	R3
        MOVW	R1:R0, R29:R28
        LDI	R17, 4
        ADD	R0, R17
        ADC	R1, R3
        ADD	R0, R20
        ADC	R1, R3
        MOVW	R31:R30, R1:R0
        ST	Z, R18
        LDI	R18, 0
        RJMP	??write_menu_59
??write_menu_60:
        MOV	R4, R18
        CLR	R5
        MOV	R6, R22
        CLR	R7
        ADD	R6, R4
        ADC	R7, R3
        MOVW	R31:R30, R27:R26
        ADD	R30, R6
        ADC	R31, R7
        LD	R19, Z
        MOVW	R31:R30, R29:R28
        ADIW	R31:R30, 4
        ADD	R4, R20
        ADC	R5, R3
        ADD	R30, R4
        ADC	R31, R5
        STD	Z+1, R19
        INC	R18
??write_menu_59:
        MOVW	R31:R30, R1:R0
        LD	R17, Z
        CP	R18, R17
        BRCS	??write_menu_60
        INC	R17
        ADD	R20, R17
        LDI	R18, 0
        INC	R16
        MOV	R22, R16
        RJMP	??write_menu_61
??write_menu_62:
        INC	R16
        INC	R18
??write_menu_61:
        MOVW	R31:R30, R27:R26
        ADD	R30, R16
        ADC	R31, R3
        LD	R17, Z
        CPI	R17, 34
        BRNE	??write_menu_62
        LDI	R17, 0
        CP	R16, R24
        CPC	R17, R25
        BRCS	$+2+2
        RJMP	??write_menu_1
        LDI	R21, 0
        MOVW	R17:R16, R29:R28
        SUBI	R16, 252
        SBCI	R17, 255
        ADD	R16, R20
        ADC	R17, R3
        MOVW	R31:R30, R17:R16
        ST	Z, R18
        LDI	R18, 0
        RJMP	??write_menu_63
??write_menu_64:
        MOV	R0, R18
        CLR	R1
        MOV	R2, R22
        CLR	R3
        ADD	R2, R0
        ADC	R3, R21
        MOVW	R31:R30, R27:R26
        ADD	R30, R2
        ADC	R31, R3
        LD	R19, Z
        MOVW	R31:R30, R29:R28
        ADIW	R31:R30, 4
        ADD	R0, R20
        ADC	R1, R21
        ADD	R30, R0
        ADC	R31, R1
        STD	Z+1, R19
        INC	R18
??write_menu_63:
        MOVW	R31:R30, R17:R16
        LD	R19, Z
        CP	R18, R19
        BRCS	??write_menu_64
        LDI	R20, 255
        LDI	R21, 255
        LDI	R18, 58
        LDI	R19, 0
        MOVW	R17:R16, R29:R28
        SUBI	R16, 252
        SBCI	R17, 255
        CALL	crc_m1
        STD	Y+62, R16
        STD	Y+63, R17
        LDI	R23, 0
        LDI	R22, 0
        LDI	R20, 60
        LDI	R21, 0
        MOVW	R19:R18, R29:R28
        SUBI	R18, 252
        SBCI	R19, 255
        LDI	R16, 4
??write_menu_65:
        LDI	R17, 1
        RJMP	??write_menu_10
??write_menu_66:
        LDI	R30, LOW(vol_tx_ppp)
        LDI	R31, (vol_tx_ppp) >> 8
        LD	R24, Z
        LDD	R25, Z+1
        CPI	R24, 7
        SBCI	R25, 0
        BRCC	$+2+2
        RJMP	??write_menu_1
        LD	R16, Z
        LDD	R17, Z+1
        CPI	R16, 61
        LDI	R18, 0
        CPC	R17, R18
        BRCS	$+2+2
        RJMP	??write_menu_1
        LD	R16, X
        CPI	R16, 34
        BREQ	$+2+2
        RJMP	??write_menu_1
        MOVW	R31:R30, R5:R4
        LD	R16, Z
        CPI	R16, 34
        BREQ	$+2+2
        RJMP	??write_menu_1
        LDI	R20, 60
        LDI	R21, 0
        MOVW	R19:R18, R29:R28
        SUBI	R18, 252
        SBCI	R19, 255
        LDI	R16, 64
        LDI	R17, 1
        CALL	RdFromFleshToArr
        LDI	R18, 0
        LDI	R16, 1
        RJMP	??write_menu_67
??write_menu_68:
        INC	R16
        INC	R18
??write_menu_67:
        LDI	R17, 0
        MOVW	R31:R30, R27:R26
        ADD	R30, R16
        ADC	R31, R17
        LD	R17, Z
        CPI	R17, 34
        BRNE	??write_menu_68
        LDI	R30, LOW(vol_tx_ppp)
        LDI	R31, (vol_tx_ppp) >> 8
        LD	R0, Z
        LDD	R1, Z+1
        LDI	R17, 254
        ADD	R0, R17
        LDI	R17, 255
        ADC	R1, R17
        LDI	R17, 0
        CP	R16, R0
        CPC	R17, R1
        BRCS	$+2+2
        RJMP	??write_menu_1
        INC	R16
        MOVW	R31:R30, R27:R26
        ADD	R30, R16
        ADC	R31, R17
        LD	R17, Z
        CPI	R17, 34
        BREQ	$+2+2
        RJMP	??write_menu_1
        LDI	R30, LOW(vol_tx_ppp)
        LDI	R31, (vol_tx_ppp) >> 8
        LD	R24, Z
        LDD	R25, Z+1
        SBIW	R25:R24, 1
        LDI	R17, 0
        CP	R16, R24
        CPC	R17, R25
        BRCS	$+2+2
        RJMP	??write_menu_1
        STD	Y+4, R18
        LDI	R18, 0
        RJMP	??write_menu_69
??write_menu_70:
        MOV	R20, R18
        LDI	R21, 0
        MOVW	R31:R30, R27:R26
        ADD	R30, R20
        ADC	R31, R21
        LDD	R17, Z+1
        MOVW	R31:R30, R29:R28
        ADIW	R31:R30, 4
        ADD	R30, R20
        ADC	R31, R21
        STD	Z+1, R17
        INC	R18
??write_menu_69:
        LDD	R17, Y+4
        CP	R18, R17
        BRCS	??write_menu_70
        LDD	R20, Y+4
        INC	R20
        LDI	R18, 0
        INC	R16
        MOV	R22, R16
        RJMP	??write_menu_71
??write_menu_72:
        INC	R16
        INC	R18
??write_menu_71:
        LDI	R17, 0
        MOVW	R31:R30, R27:R26
        ADD	R30, R16
        ADC	R31, R17
        LD	R17, Z
        CPI	R17, 34
        BRNE	??write_menu_72
        LDI	R17, 0
        CP	R16, R0
        CPC	R17, R1
        BRCS	$+2+2
        RJMP	??write_menu_1
        INC	R16
        MOVW	R31:R30, R27:R26
        ADD	R30, R16
        ADC	R31, R17
        LD	R17, Z
        CPI	R17, 34
        BREQ	$+2+2
        RJMP	??write_menu_1
        LDI	R17, 0
        CP	R16, R24
        CPC	R17, R25
        BRCS	$+2+2
        RJMP	??write_menu_1
        CLR	R3
        MOVW	R1:R0, R29:R28
        LDI	R17, 4
        ADD	R0, R17
        ADC	R1, R3
        ADD	R0, R20
        ADC	R1, R3
        MOVW	R31:R30, R1:R0
        ST	Z, R18
        LDI	R18, 0
        RJMP	??write_menu_73
??write_menu_74:
        MOV	R4, R18
        CLR	R5
        MOV	R6, R22
        CLR	R7
        ADD	R6, R4
        ADC	R7, R3
        MOVW	R31:R30, R27:R26
        ADD	R30, R6
        ADC	R31, R7
        LD	R19, Z
        MOVW	R31:R30, R29:R28
        ADIW	R31:R30, 4
        ADD	R4, R20
        ADC	R5, R3
        ADD	R30, R4
        ADC	R31, R5
        STD	Z+1, R19
        INC	R18
??write_menu_73:
        MOVW	R31:R30, R1:R0
        LD	R17, Z
        CP	R18, R17
        BRCS	??write_menu_74
        INC	R17
        ADD	R20, R17
        LDI	R18, 0
        INC	R16
        MOV	R22, R16
        RJMP	??write_menu_75
??write_menu_76:
        INC	R16
        INC	R18
??write_menu_75:
        MOVW	R31:R30, R27:R26
        ADD	R30, R16
        ADC	R31, R3
        LD	R17, Z
        CPI	R17, 34
        BRNE	??write_menu_76
        LDI	R17, 0
        CP	R16, R24
        CPC	R17, R25
        BRCS	$+2+2
        RJMP	??write_menu_1
        LDI	R21, 0
        MOVW	R17:R16, R29:R28
        SUBI	R16, 252
        SBCI	R17, 255
        ADD	R16, R20
        ADC	R17, R3
        MOVW	R31:R30, R17:R16
        ST	Z, R18
        LDI	R18, 0
        RJMP	??write_menu_77
??write_menu_78:
        MOV	R0, R18
        CLR	R1
        MOV	R2, R22
        CLR	R3
        ADD	R2, R0
        ADC	R3, R21
        MOVW	R31:R30, R27:R26
        ADD	R30, R2
        ADC	R31, R3
        LD	R19, Z
        MOVW	R31:R30, R29:R28
        ADIW	R31:R30, 4
        ADD	R0, R20
        ADC	R1, R21
        ADD	R30, R0
        ADC	R31, R1
        STD	Z+1, R19
        INC	R18
??write_menu_77:
        MOVW	R31:R30, R17:R16
        LD	R19, Z
        CP	R18, R19
        BRCS	??write_menu_78
        LDI	R20, 255
        LDI	R21, 255
        LDI	R18, 58
        LDI	R19, 0
        MOVW	R17:R16, R29:R28
        SUBI	R16, 252
        SBCI	R17, 255
        CALL	crc_m1
        STD	Y+62, R16
        STD	Y+63, R17
        LDI	R23, 0
        LDI	R22, 0
        LDI	R20, 60
        LDI	R21, 0
        MOVW	R19:R18, R29:R28
        SUBI	R18, 252
        SBCI	R19, 255
        LDI	R16, 64
        RJMP	??write_menu_65
??write_menu_79:
        LDI	R30, LOW(vol_tx_ppp)
        LDI	R31, (vol_tx_ppp) >> 8
        LD	R16, Z
        LDD	R17, Z+1
        CPI	R16, 2
        LDI	R18, 0
        CPC	R17, R18
        BREQ	$+2+2
        RJMP	??write_menu_1
        LD	R16, X
        CPI	R16, 49
        BREQ	$+2+2
        RJMP	??write_menu_1
        LDI	R16, 0
        LDI	R20, 3
        LDI	R21, 0
        CALL	__eeput8_16
        CALL	vosstan_memory
        RJMP	??write_menu_11
??write_menu_80:
        LDI	R30, LOW(vol_tx_ppp)
        LDI	R31, (vol_tx_ppp) >> 8
        LD	R16, Z
        LDD	R17, Z+1
        CPI	R16, 9
        LDI	R18, 0
        CPC	R17, R18
        BREQ	$+2+2
        RJMP	??write_menu_1
        LDI	R16, 58
        CP	R6, R16
        BREQ	$+2+2
        RJMP	??write_menu_1
        MOVW	R31:R30, R27:R26
        LDD	R16, Z+5
        CPI	R16, 58
        BREQ	$+2+2
        RJMP	??write_menu_1
        CALL	burst_ds_r
        MOVW	R31:R30, R25:R24
        LDD	R16, Z+4
        STD	Y+7, R16
        LDD	R16, Z+5
        STD	Y+8, R16
        LDD	R16, Z+6
        STD	Y+9, R16
        MOVW	R17:R16, R27:R26
        SUBI	R16, 250
        SBCI	R17, 255
        CALL	atol
        ST	Y, R16
        STD	Y+1, R17
        STD	Y+2, R18
        STD	Y+3, R19
        LD	R16, Y
        LDD	R17, Y+1
        LDD	R18, Y+2
        LDD	R19, Y+3
        CPI	R16, 60
        LDI	R20, 0
        CPC	R17, R20
        CPC	R18, R20
        CPC	R19, R20
        BRCS	$+2+2
        RJMP	??write_menu_1
        LD	R16, Y
        STD	Y+4, R16
        MOVW	R17:R16, R27:R26
        SUBI	R16, 253
        SBCI	R17, 255
        CALL	atol
        ST	Y, R16
        STD	Y+1, R17
        STD	Y+2, R18
        STD	Y+3, R19
        LD	R16, Y
        LDD	R17, Y+1
        LDD	R18, Y+2
        LDD	R19, Y+3
        CPI	R16, 60
        LDI	R20, 0
        CPC	R17, R20
        CPC	R18, R20
        CPC	R19, R20
        BRCS	$+2+2
        RJMP	??write_menu_1
        LD	R16, Y
        STD	Y+5, R16
        MOVW	R17:R16, R27:R26
        CALL	atol
        ST	Y, R16
        STD	Y+1, R17
        STD	Y+2, R18
        STD	Y+3, R19
        LD	R16, Y
        LDD	R17, Y+1
        LDD	R18, Y+2
        LDD	R19, Y+3
        CPI	R16, 24
        LDI	R20, 0
        CPC	R17, R20
        CPC	R18, R20
        CPC	R19, R20
        BRCS	$+2+2
        RJMP	??write_menu_1
        LD	R16, Y
        STD	Y+6, R16
??write_menu_81:
        MOVW	R19:R18, R29:R28
        SUBI	R18, 252
        SBCI	R19, 255
        LDI	R16, 2
        CALL	set_rlt
        RJMP	??write_menu_11
??write_menu_82:
        LDI	R30, LOW(vol_tx_ppp)
        LDI	R31, (vol_tx_ppp) >> 8
        LD	R16, Z
        LDD	R17, Z+1
        CPI	R16, 9
        LDI	R18, 0
        CPC	R17, R18
        BREQ	$+2+2
        RJMP	??write_menu_1
        LDI	R16, 46
        CP	R6, R16
        BREQ	$+2+2
        RJMP	??write_menu_1
        MOVW	R31:R30, R27:R26
        LDD	R16, Z+5
        CPI	R16, 46
        BREQ	$+2+2
        RJMP	??write_menu_1
        CALL	burst_ds_r
        MOVW	R31:R30, R25:R24
        LD	R16, Z
        STD	Y+4, R16
        LDD	R16, Z+1
        STD	Y+5, R16
        LDD	R16, Z+2
        STD	Y+6, R16
        MOVW	R17:R16, R27:R26
        CALL	atol
        ST	Y, R16
        STD	Y+1, R17
        STD	Y+2, R18
        STD	Y+3, R19
        LD	R16, Y
        LDD	R17, Y+1
        LDD	R18, Y+2
        LDD	R19, Y+3
        OR	R16, R17
        OR	R16, R18
        OR	R16, R19
        BRNE	$+2+2
        RJMP	??write_menu_1
        LD	R16, Y
        LDD	R17, Y+1
        LDD	R18, Y+2
        LDD	R19, Y+3
        CPI	R16, 32
        LDI	R20, 0
        CPC	R17, R20
        CPC	R18, R20
        CPC	R19, R20
        BRCS	$+2+2
        RJMP	??write_menu_1
        LD	R16, Y
        STD	Y+7, R16
        MOVW	R17:R16, R27:R26
        SUBI	R16, 253
        SBCI	R17, 255
        CALL	atol
        ST	Y, R16
        STD	Y+1, R17
        STD	Y+2, R18
        STD	Y+3, R19
        LD	R16, Y
        LDD	R17, Y+1
        LDD	R18, Y+2
        LDD	R19, Y+3
        OR	R16, R17
        OR	R16, R18
        OR	R16, R19
        BRNE	$+2+2
        RJMP	??write_menu_1
        LD	R16, Y
        LDD	R17, Y+1
        LDD	R18, Y+2
        LDD	R19, Y+3
        CPI	R16, 13
        LDI	R20, 0
        CPC	R17, R20
        CPC	R18, R20
        CPC	R19, R20
        BRCS	$+2+2
        RJMP	??write_menu_1
        LD	R16, Y
        STD	Y+8, R16
        ADIW	R27:R26, 6
        MOVW	R17:R16, R27:R26
        CALL	atol
        ST	Y, R16
        STD	Y+1, R17
        STD	Y+2, R18
        STD	Y+3, R19
        LD	R16, Y
        STD	Y+9, R16
        RJMP	??write_menu_81
??write_menu_83:
        LDI	R30, LOW(vol_tx_ppp)
        LDI	R31, (vol_tx_ppp) >> 8
        LD	R16, Z
        LDD	R17, Z+1
        CPI	R16, 2
        LDI	R18, 0
        CPC	R17, R18
        BRNE	??write_menu_84
        LD	R16, X
        CPI	R16, 48
        BRNE	??write_menu_84
        LDI	R23, 0
        LDI	R22, 1
        LDI	R20, 240
        LDI	R21, 0
        LDI	R19, 0
        LDI	R16, 244
        LDI	R17, 1
        CALL	WrArrayToFlesh
        LDI	R16, 0
        STS	point_log_buf, R16
        RJMP	??write_menu_11
??write_menu_84:
        LD	R16, Z
        LDD	R17, Z+1
        CPI	R16, 4
        CPC	R17, R18
        BREQ	$+2+2
        RJMP	??write_menu_1
        LD	R16, X
        CPI	R16, 108
        BREQ	$+2+2
        RJMP	??write_menu_1
        MOVW	R31:R30, R27:R26
        LDD	R16, Z+1
        CPI	R16, 111
        BREQ	$+2+2
        RJMP	??write_menu_1
        LDD	R16, Z+2
        CPI	R16, 103
        BREQ	$+2+2
        RJMP	??write_menu_1
        LDI	R20, 240
        LDI	R21, 0
        MOVW	R19:R18, R27:R26
        LDI	R16, 244
        LDI	R17, 1
        CALL	RdFromFleshToArr
        LDI	R16, 13
        CALL	s_port
        LDI	R16, 10
        CALL	s_port
        LDI	R24, 0
        RJMP	??write_menu_85
??write_menu_86:
        LDI	R25, 0
        MOVW	R31:R30, R27:R26
        ADD	R30, R24
        ADC	R31, R25
        LD	R16, Z
        CALL	s_port
        INC	R24
??write_menu_85:
        CPI	R24, 240
        BRCS	??write_menu_86
??write_menu_11:
        LDI	R16, 0
        LDI	R30, LOW(vol_tx_ppp)
        LDI	R31, (vol_tx_ppp) >> 8
        ST	Z, R16
        STD	Z+1, R16
        RJMP	??write_menu_87
??write_menu_88:
        LDI	R30, LOW(vol_tx_ppp)
        LDI	R31, (vol_tx_ppp) >> 8
        LD	R16, Z
        LDD	R17, Z+1
        CPI	R16, 2
        LDI	R18, 0
        CPC	R17, R18
        BREQ	$+2+2
        RJMP	??write_menu_1
        LD	R16, X
        CPI	R16, 49
        BREQ	$+2+2
        RJMP	??write_menu_1
        RJMP	??write_menu_89
??write_menu_90:
        MOV	R16, R18
        LDI	R17, 0
        LDI	R30, LOW(keys_def)
        LDI	R31, (keys_def) >> 8
        ADD	R30, R16
        ADC	R31, R17
        LPM	R19, Z
        MOVW	R31:R30, R29:R28
        ADIW	R31:R30, 4
        ADD	R30, R16
        ADC	R31, R17
        ST	Z, R19
        INC	R18
??write_menu_89:
        CPI	R18, 8
        BRCS	??write_menu_90
        LDI	R20, 255
        LDI	R21, 255
        LDI	R18, 8
        LDI	R19, 0
        MOVW	R17:R16, R29:R28
        SUBI	R16, 252
        SBCI	R17, 255
        CALL	crc_m1
        STD	Y+12, R16
        STD	Y+13, R17
        LDI	R23, 0
        LDI	R22, 0
        LDI	R20, 10
        LDI	R21, 0
        MOVW	R19:R18, R29:R28
        SUBI	R18, 252
        SBCI	R19, 255
        LDI	R16, 48
        LDI	R17, 117
        CALL	WrArrayToFlesh
        CALL	check_keys
        CPI	R16, 1
        BRNE	$+2+2
        RJMP	??write_menu_1
??write_menu_87:
        LDI	R18, LOW((keys_def + 13))
        LDI	R19, HIGH((keys_def + 13))
        LDI	R16, 4
        RJMP	??write_menu_7
        CFI EndBlock cfiBlock8
// 1661     
// 1662     
// 1663       }
// 1664 
// 1665 
// 1666 
// 1667 
// 1668 
// 1669 
// 1670 
// 1671 
// 1672 
// 1673 
// 1674 
// 1675 
// 1676 
// 1677 
// 1678 

        RSEG CODE:CODE:NOROOT(1)
// 1679    void at_mon_232(void)
at_mon_232:
        CFI Block cfiBlock9 Using cfiCommon0
        CFI Function at_mon_232
// 1680     {             
        FUNCALL at_mon_232, read_menu
        LOCFRAME CSTACK, 4, STACK
        LOCFRAME RSTACK, 2, STACK
        FUNCALL at_mon_232, read_menu
        LOCFRAME CSTACK, 4, STACK
        LOCFRAME RSTACK, 2, STACK
        FUNCALL at_mon_232, read_menu
        LOCFRAME CSTACK, 4, STACK
        LOCFRAME RSTACK, 2, STACK
        FUNCALL at_mon_232, write_menu
        LOCFRAME CSTACK, 4, STACK
        LOCFRAME RSTACK, 2, STACK
        FUNCALL at_mon_232, read_menu
        LOCFRAME CSTACK, 4, STACK
        LOCFRAME RSTACK, 2, STACK
        CALL	?PROLOGUE4_L09
        CFI R27 Frame(CFA_Y, -1)
        CFI R26 Frame(CFA_Y, -2)
        CFI R25 Frame(CFA_Y, -3)
        CFI R24 Frame(CFA_Y, -4)
        CFI CFA_Y Y+4
// 1681   
// 1682 
// 1683 
// 1684  //************************    
// 1685              
// 1686 switch (buf_tx_232[vol_tx_ppp-1])
        LDI	R26, LOW(fl_at_mom_232)
        LDI	R27, (fl_at_mom_232) >> 8
        MOVW	R31:R30, R27:R26
        LDD	R16, Z+1
        LDI	R30, LOW(vol_tx_ppp)
        LDI	R31, (vol_tx_ppp) >> 8
        LD	R18, Z
        LDD	R19, Z+1
        MOVW	R31:R30, R19:R18
        SUBI	R30, LOW((-(buf_tx_232 - 1) & 0xFFFF))
        SBCI	R31, HIGH((-(buf_tx_232 - 1) & 0xFFFF))
        LD	R17, Z
        SUBI	R17, 13
        BREQ	??at_mon_232_0
        SUBI	R17, 14
        BREQ	??at_mon_232_1
        SUBI	R17, 16
        BREQ	??at_mon_232_2
        SUBI	R17, 2
        BREQ	??at_mon_232_3
        RJMP	??at_mon_232_4
// 1687       {
// 1688        case 0x1b:
// 1689                   {  
// 1690                                
// 1691                   UCSR0B=UCSR0B & ~0x90;                   
??at_mon_232_1:
        LDS	R16, 193
        ANDI	R16, 0x6F
        STS	193, R16
// 1692                   index_pa=1;
        LDI	R16, 1
        MOVW	R31:R30, R27:R26
        STD	Z+1, R16
// 1693                   read_menu(index_pa-1);
        LDI	R16, 0
        RJMP	??at_mon_232_5
// 1694                   buf_tx_232[vol_tx_ppp-1]=0xff;  
// 1695                   vol_tx_ppp=0;                                  
// 1696                   UCSR0B=UCSR0B | 0x90; 
// 1697                   break;
// 1698                   
// 1699 
// 1700                   }
// 1701         case 0x2b:   // âĺđő
// 1702                   {    
// 1703                     
// 1704                   UCSR0B=UCSR0B & ~0x90;
??at_mon_232_2:
        LDS	R16, 193
        ANDI	R16, 0x6F
        STS	193, R16
// 1705                     
// 1706 pusto:            
// 1707 
// 1708 
// 1709                    index_pa++;  
??at_mon_232_6:
        MOVW	R31:R30, R27:R26
        LDD	R16, Z+1
        INC	R16
        STD	Z+1, R16
// 1710                    if ((index_pa-1) > VOL_PUNKT) index_pa=1;
        LDD	R24, Z+1
        LDI	R25, 0
        SBIW	R25:R24, 1
        CPI	R24, 31
        SBCI	R25, 0
        BRLT	??at_mon_232_7
        LDI	R16, 1
??at_mon_232_8:
        STD	Z+1, R16
// 1711                    read_menu(index_pa-1);                                    
        RJMP	??at_mon_232_7
// 1712                    buf_tx_232[vol_tx_ppp-1]=0xff;  
// 1713                    vol_tx_ppp=0; 
// 1714                    UCSR0B=UCSR0B | 0x90; 
// 1715                    break;
// 1716                   }                  
// 1717                    
// 1718          case 0x2d:   // âíčç
// 1719                   { 
// 1720                     UCSR0B=UCSR0B & ~0x90;
??at_mon_232_3:
        LDS	R17, 193
        ANDI	R17, 0x6F
        STS	193, R17
// 1721                     if(index_pa==0)index_pa=1;  
        TST	R16
        BRNE	??at_mon_232_9
        LDI	R16, 1
        MOVW	R31:R30, R27:R26
        STD	Z+1, R16
// 1722                     if ((index_pa-1) != 0) index_pa--;else index_pa=VOL_PUNKT+1;                    
??at_mon_232_9:
        MOVW	R31:R30, R27:R26
        LDD	R16, Z+1
        MOV	R30, R16
        LDI	R31, 0
        SBIW	R31:R30, 1
        BREQ	??at_mon_232_10
        MOVW	R31:R30, R27:R26
        LDD	R16, Z+1
        DEC	R16
        RJMP	??at_mon_232_8
??at_mon_232_10:
        LDI	R16, 31
        MOVW	R31:R30, R27:R26
        RJMP	??at_mon_232_8
// 1723                     read_menu(index_pa-1);  
// 1724                     buf_tx_232[vol_tx_ppp-1]=0xff;  
// 1725                     vol_tx_ppp=0; 
// 1726                     UCSR0B=UCSR0B | 0x90; 
// 1727                     break;                     
// 1728                   }           
// 1729                   
// 1730            case 0x0d:   // ââîä
// 1731                   {  
// 1732               
// 1733                    UCSR0B=UCSR0B & ~0x90;       
??at_mon_232_0:
        LDS	R17, 193
        ANDI	R17, 0x6F
        STS	193, R17
// 1734                    if ((vol_tx_ppp==1)||(index_pa==0)) goto pusto; 
        LDI	R30, LOW(vol_tx_ppp)
        LDI	R31, (vol_tx_ppp) >> 8
        LD	R18, Z
        LDD	R19, Z+1
        CPI	R18, 1
        LDI	R17, 0
        CPC	R19, R17
        BREQ	??at_mon_232_6
        TST	R16
        BREQ	??at_mon_232_6
// 1735                    write_menu(index_pa-1); 
        DEC	R16
        CALL	write_menu
// 1736                    read_menu(index_pa-1);
        MOVW	R31:R30, R27:R26
??at_mon_232_7:
        LDD	R16, Z+1
        DEC	R16
??at_mon_232_5:
        CALL	read_menu
// 1737                    buf_tx_232[vol_tx_ppp-1]=0xff;  
        LDI	R16, 255
        LDI	R30, LOW(vol_tx_ppp)
        LDI	R31, (vol_tx_ppp) >> 8
        LD	R18, Z
        LDD	R19, Z+1
        MOVW	R31:R30, R19:R18
        SUBI	R30, LOW((-(buf_tx_232 - 1) & 0xFFFF))
        SBCI	R31, HIGH((-(buf_tx_232 - 1) & 0xFFFF))
        ST	Z, R16
// 1738                    vol_tx_ppp=0;   
        LDI	R16, 0
        LDI	R30, LOW(vol_tx_ppp)
        LDI	R31, (vol_tx_ppp) >> 8
        ST	Z, R16
        STD	Z+1, R16
// 1739                    UCSR0B=UCSR0B | 0x90;
        LDS	R16, 193
        ORI	R16, 0x90
        STS	193, R16
// 1740                    break;                                     
// 1741                   }                 
// 1742           
// 1743         
// 1744       }                     
// 1745 
// 1746     }
??at_mon_232_4:
        LDI	R30, 4
        JMP	?EPILOGUE_B4_L09
        CFI EndBlock cfiBlock9
// 1747 
// 1748 
// 1749 
// 1750 
// 1751 
// 1752 
// 1753 
// 1754 
// 1755 
// 1756 
// 1757 
// 1758 

        RSEG CODE:CODE:NOROOT(1)
// 1759 void monitor_terminal(void)
monitor_terminal:
        CFI Block cfiBlock10 Using cfiCommon0
        CFI Function monitor_terminal
// 1760             {
        FUNCALL monitor_terminal, delay
        LOCFRAME CSTACK, 4, STACK
        LOCFRAME RSTACK, 2, STACK
        FUNCALL monitor_terminal, control_temperatura
        LOCFRAME CSTACK, 4, STACK
        LOCFRAME RSTACK, 2, STACK
        FUNCALL monitor_terminal, at_mon_232
        LOCFRAME CSTACK, 4, STACK
        LOCFRAME RSTACK, 2, STACK
        FUNCALL monitor_terminal, lock_it
        LOCFRAME CSTACK, 4, STACK
        LOCFRAME RSTACK, 2, STACK
        CALL	?PROLOGUE4_L09
        CFI R27 Frame(CFA_Y, -1)
        CFI R26 Frame(CFA_Y, -2)
        CFI R25 Frame(CFA_Y, -3)
        CFI R24 Frame(CFA_Y, -4)
        CFI CFA_Y Y+4
// 1761    
// 1762    union
// 1763      {
// 1764       unsigned char bytes[4]; 
// 1765       unsigned long int word;
// 1766      }temp_long;   
// 1767 
// 1768 
// 1769             
// 1770 
// 1771 //
// 1772 //        rts invers
// 1773 //
// 1774              if((PINB & CTS2)==CTS2)
        SBIS	0x03, 0x01
        RJMP	??monitor_terminal_0
// 1775                     { 
// 1776                       fl_at_mom_232=1;      
        LDI	R30, LOW(fl_at_mom_232)
        LDI	R31, (fl_at_mom_232) >> 8
        LDI	R16, 1
        ST	Z, R16
// 1777                       index_pa=0;
        LDI	R16, 0
        STD	Z+1, R16
// 1778                       temp_long.word=0; 
        LDI	R24, 0
        LDI	R25, 0
        LDI	R26, 0
        LDI	R27, 0
// 1779                       vol_tx_ppp=1;                     
        LDI	R16, 1
        LDI	R30, LOW(vol_tx_ppp)
        LDI	R31, (vol_tx_ppp) >> 8
        ST	Z, R16
        STD	Z+1, R24
// 1780                       buf_tx_232[0]=0x0d;
        LDI	R16, 13
        STS	buf_tx_232, R16
// 1781                       UCSR2B=0; 
        STS	209, R24
// 1782                       UBRR2H = R4800_H;
        STS	213, R24
// 1783                       UBRR2L = R4800_L;      /* the baud rate */
        LDI	R16, 207
        STS	212, R16
// 1784                       UCSR2B=UCSR2B | RXCIE | RXEN | TXEN;
        LDS	R16, 209
        ORI	R16, 0x98
        STS	209, R16
// 1785                                
// 1786                        WDTCSR=0x18; 
        LDI	R16, 24
        STS	96, R16
// 1787                        WDTCSR=0x0f;
        LDI	R16, 15
        STS	96, R16
// 1788                        __watchdog_reset(); 
        WDR
// 1789                      
// 1790                     __enable_interrupt();                
        SEI
// 1791                      delay(30000);
        LDI	R16, 48
        LDI	R17, 117
        CALL	delay
// 1792                      
// 1793                      
// 1794                      S1_RD;
        SBI	0x14, 0x00
        CBI	0x14, 0x01
// 1795                      S2_GR;
        CBI	0x08, 0x00
        SBI	0x08, 0x01
// 1796                      S4_RD;
        SBI	0x08, 0x02
        CBI	0x08, 0x03
// 1797                      S3_GR;
        CBI	0x08, 0x04
        SBI	0x08, 0x05
// 1798                      S5_RD;
        SBI	0x08, 0x06
        CBI	0x08, 0x07
// 1799                      
// 1800                       do
// 1801                           {   
// 1802                           __watchdog_reset(); 
??monitor_terminal_1:
        WDR
// 1803                           
// 1804                           control_temperatura();
        CALL	control_temperatura
// 1805                             
// 1806                           temp_long.word++;
        SUBI	R24, 255
        SBCI	R25, 255
        SBCI	R26, 255
        SBCI	R27, 255
// 1807                           if(temp_long.word>=30000)
        CPI	R24, 48
        LDI	R16, 117
        CPC	R25, R16
        LDI	R16, 0
        CPC	R26, R16
        CPC	R27, R16
        BRCS	??monitor_terminal_2
// 1808                              {
// 1809                                S1_CH;
        LDI	R16, 1
        IN	R17, 0x14
        EOR	R17, R16
        OUT	0x14, R17
        LDI	R16, 2
        IN	R17, 0x14
        EOR	R17, R16
        OUT	0x14, R17
// 1810                                S2_CH;
        LDI	R16, 1
        IN	R17, 0x08
        EOR	R17, R16
        OUT	0x08, R17
        LDI	R16, 2
        IN	R17, 0x08
        EOR	R17, R16
        OUT	0x08, R17
// 1811                                S3_CH;
        LDI	R16, 16
        IN	R17, 0x08
        EOR	R17, R16
        OUT	0x08, R17
        LDI	R16, 32
        IN	R17, 0x08
        EOR	R17, R16
        OUT	0x08, R17
// 1812                                S4_CH;
        LDI	R16, 4
        IN	R17, 0x08
        EOR	R17, R16
        OUT	0x08, R17
        LDI	R16, 8
        IN	R17, 0x08
        EOR	R17, R16
        OUT	0x08, R17
// 1813                                S5_CH;
        LDI	R16, 64
        IN	R17, 0x08
        EOR	R17, R16
        OUT	0x08, R17
        LDI	R16, 128
        IN	R17, 0x08
        EOR	R17, R16
        OUT	0x08, R17
// 1814                                temp_long.word=0;
        LDI	R24, 0
        LDI	R25, 0
        LDI	R26, 0
        LDI	R27, 0
// 1815                              }
// 1816                              
// 1817                              
// 1818                              at_mon_232();
??monitor_terminal_2:
        RCALL	at_mon_232
// 1819    
// 1820                           } while((PINB & CTS2)!=0);//
        SBIC	0x03, 0x01
        RJMP	??monitor_terminal_1
// 1821                      
// 1822                       lock_it(); //äîëćíŕ áűňü ôóíęöč˙ ďĺđĺçŕăđóçęč
        CALL	lock_it
// 1823            
// 1824       }
// 1825 
// 1826 }
??monitor_terminal_0:
        LDI	R30, 4
        JMP	?EPILOGUE_B4_L09
        CFI EndBlock cfiBlock10

        ASEGN ABSOLUTE:DATA:NOROOT,01fH
__?EECR:

        ASEGN ABSOLUTE:DATA:NOROOT,020H
__?EEDR:

        ASEGN ABSOLUTE:DATA:NOROOT,021H
__?EEARL:

        ASEGN ABSOLUTE:DATA:NOROOT,022H
__?EEARH:

        RSEG NEAR_ID:CODE:NOROOT(0)
`?<Initializer for <Constant "%u\\000">>`:
        DB 25H, 75H, 0, 0
`?<Initializer for <Constant "%d\\000">>`:
        DB 25H, 64H, 0, 0

        RSEG INITTAB:CODE:NOROOT(0)
`?<Segment init: NEAR_I>`:
        DW	SFE(NEAR_I) - SFB(NEAR_I)
        DW	SFB(NEAR_I)
        DP	SFB(NEAR_ID)
        REQUIRE ?need_segment_init

        RSEG INITTAB:CODE:NOROOT(0)
`?<Segment init: NEAR_Z>`:
        DW	SFE(NEAR_Z) - SFB(NEAR_Z)
        DW	SFB(NEAR_Z)
        DP	0
        REQUIRE ?need_segment_init

        RSEG SWITCH:CODE:NOROOT(1)
`?<Jumptable for read_menu>_0`:
        DB	1
        DB	0
        DW	(??read_menu_0) /2
        DW	30
        DW	(??read_menu_4) /2
        DW	(??read_menu_5) /2
        DW	(??read_menu_6) /2
        DW	(??read_menu_17) /2
        DW	(??read_menu_18) /2
        DW	(??read_menu_21) /2
        DW	(??read_menu_25) /2
        DW	(??read_menu_27) /2
        DW	(??read_menu_29) /2
        DW	(??read_menu_30) /2
        DW	(??read_menu_32) /2
        DW	(??read_menu_33) /2
        DW	(??read_menu_34) /2
        DW	(??read_menu_35) /2
        DW	(??read_menu_37) /2
        DW	(??read_menu_38) /2
        DW	(??read_menu_39) /2
        DW	(??read_menu_40) /2
        DW	(??read_menu_42) /2
        DW	(??read_menu_43) /2
        DW	(??read_menu_44) /2
        DW	(??read_menu_45) /2
        DW	(??read_menu_46) /2
        DW	(??read_menu_47) /2
        DW	(??read_menu_51) /2
        DW	(??read_menu_52) /2
        DW	(??read_menu_53) /2
        DW	(??read_menu_54) /2
        DW	(??read_menu_55) /2
        DW	(??read_menu_57) /2

        RSEG SWITCH:CODE:NOROOT(1)
`?<Jumptable for write_menu>_0`:
        DB	3
        DB	0
        DW	(??write_menu_1) /2
        DW	28
        DW	(??write_menu_0) /2
        DW	(??write_menu_12) /2
        DW	(??write_menu_18) /2
        DW	(??write_menu_20) /2
        DW	(??write_menu_21) /2
        DW	(??write_menu_22) /2
        DW	(??write_menu_24) /2
        DW	(??write_menu_25) /2
        DW	(??write_menu_26) /2
        DW	(??write_menu_27) /2
        DW	(??write_menu_29) /2
        DW	(??write_menu_30) /2
        DW	(??write_menu_33) /2
        DW	(??write_menu_34) /2
        DW	(??write_menu_35) /2
        DW	(??write_menu_36) /2
        DW	(??write_menu_37) /2
        DW	(??write_menu_38) /2
        DW	(??write_menu_39) /2
        DW	(??write_menu_52) /2
        DW	(??write_menu_66) /2
        DW	(??write_menu_1) /2
        DW	(??write_menu_1) /2
        DW	(??write_menu_79) /2
        DW	(??write_menu_80) /2
        DW	(??write_menu_82) /2
        DW	(??write_menu_83) /2
        DW	(??write_menu_88) /2

        RSEG NEAR_I:DATA:NOROOT(0)
        REQUIRE `?<Segment init: NEAR_I>`
`?<Constant "%u\\000">`:
        DS 4
        REQUIRE `?<Initializer for <Constant "%u\\000">>`
        DS 4
        REQUIRE `?<Initializer for <Constant "%d\\000">>`

        END
// 1827 
// 1828 
// 1829 //////
// 1830 
// 1831 
// 
//     8 bytes in segment ABSOLUTE
// 8 800 bytes in segment CODE
//     2 bytes in segment EEPROM_AN
//    14 bytes in segment INITTAB
//   352 bytes in segment NEAR_F
//     8 bytes in segment NEAR_I
//     8 bytes in segment NEAR_ID
//    13 bytes in segment NEAR_Z
//   128 bytes in segment SWITCH
// 
// 9 274 bytes of CODE  memory (+ 28 bytes shared)
//    21 bytes of DATA  memory (+  8 bytes shared)
//     0 bytes of XDATA memory (+  2 bytes shared)
//
//Errors: none
//Warnings: none
