//////////////////////////////////////////////////////////////////////////////
//                                                                           /
//                                                     24/Oct/2025  13:29:17 /
// IAR Atmel AVR C/C++ Compiler V4.12A/W32, Evaluation Version               /
// Copyright 1996-2005 IAR Systems. All rights reserved.                     /
//                                                                           /
//    Source file  =  E:\sim800Elam2560_bootnew_i2cerr_a7682e\local.c        /
//    Command line =  E:\sim800Elam2560_bootnew_i2cerr_a7682e\local.c        /
//                    --cpu=m2560 -ms -o E:\sim800Elam2560_bootnew_i2cerr_a7 /
//                    682e\Debug\Obj\ -lCN E:\sim800Elam2560_bootnew_i2cerr_ /
//                    a7682e\Debug\List\ -lA E:\sim800Elam2560_bootnew_i2cer /
//                    r_a7682e\Debug\List\ -y --initializers_in_flash -z9    /
//                    --no_inline --no_tbaa --cross_call_passes=1 --debug    /
//                    -e -I "E:\box\IAR Systems\Embedded Workbench 4.0       /
//                    Evaluation\avr\INC\" -I "E:\box\IAR Systems\Embedded   /
//                    Workbench 4.0 Evaluation\avr\INC\DLIB\" --eeprom_size  /
//                    4096 --dlib_config "E:\box\IAR Systems\Embedded        /
//                    Workbench 4.0 Evaluation\avr\LIB\DLIB\dlAVR-5s-ec-n.h" /
//    List file    =  E:\sim800Elam2560_bootnew_i2cerr_a7682e\Debug\List\loc /
//                    al.s90                                                 /
//                                                                           /
//                                                                           /
//////////////////////////////////////////////////////////////////////////////

        NAME local

        RTMODEL "__64bit_doubles", "disabled"
        RTMODEL "__cpu", "5"
        RTMODEL "__cpu_name", "ATmega2560"
        RTMODEL "__enhanced_core", "enabled"
        RTMODEL "__has_elpm", "true"
        RTMODEL "__memory_model", "2"
        RTMODEL "__no_rampd", "enabled"
        RTMODEL "__rt_version", "3"

        RSEG CSTACK:DATA:NOROOT(0)
        RSEG RSTACK:DATA:NOROOT(0)

        EXTERN ?EPILOGUE_B11_L09
        EXTERN ?EPILOGUE_B12_L09
        EXTERN ?EPILOGUE_B13_L09
        EXTERN ?EPILOGUE_B16_L09
        EXTERN ?EPILOGUE_B3_L09
        EXTERN ?EPILOGUE_B4_L09
        EXTERN ?EPILOGUE_B5_L09
        EXTERN ?EPILOGUE_B6_L09
        EXTERN ?EPILOGUE_B8_L09
        EXTERN ?EPILOGUE_B9_L09
        EXTERN ?L_EC_MUL_L03
        EXTERN ?PROLOGUE11_L09
        EXTERN ?PROLOGUE12_L09
        EXTERN ?PROLOGUE13_L09
        EXTERN ?PROLOGUE16_L09
        EXTERN ?PROLOGUE3_L09
        EXTERN ?PROLOGUE4_L09
        EXTERN ?PROLOGUE5_L09
        EXTERN ?PROLOGUE6_L09
        EXTERN ?PROLOGUE8_L09
        EXTERN ?PROLOGUE9_L09
        EXTERN ?Register_R10_is_cg_reg
        EXTERN ?Register_R11_is_cg_reg
        EXTERN ?Register_R12_is_cg_reg
        EXTERN ?Register_R13_is_cg_reg
        EXTERN ?Register_R14_is_cg_reg
        EXTERN ?Register_R15_is_cg_reg
        EXTERN ?Register_R4_is_cg_reg
        EXTERN ?Register_R5_is_cg_reg
        EXTERN ?Register_R6_is_cg_reg
        EXTERN ?Register_R7_is_cg_reg
        EXTERN ?Register_R8_is_cg_reg
        EXTERN ?Register_R9_is_cg_reg
        EXTERN ?SV_SWITCH_L06
        EXTERN ?S_EC_MUL_L02
        EXTERN ?S_SHL_L02
        EXTERN ?UC_DIVMOD_L01
        EXTERN ?UL_DIVMOD_L03
        EXTERN ?US_SHR_L02
        EXTERN ?need_segment_init

        PUBWEAK `?<Segment init: NEAR_I>`
        PUBWEAK `?<Segment init: NEAR_Z>`
?Subroutine30 EQU 0
?Subroutine57 EQU 0
?Subroutine73 EQU 0
        PUBWEAK _A_PORTA
        PUBWEAK __?EEARH
        PUBWEAK __?EEARL
        PUBWEAK __?EECR
        PUBWEAK __?EEDR
        PUBLIC arr_tii_32
        PUBLIC bit_level
        PUBLIC bit_level_psm
        PUBLIC bit_zamer_psm
        PUBLIC c1_byte
        PUBLIC c2_byte
        PUBLIC cnt_moto
        PUBLIC cnt_sec
        PUBLIC cnt_try_ys
        PUBLIC count_sboj
        PUBLIC count_try
        PUBLIC crc_sum
        FUNCTION crc_sum,0203H
        LOCFRAME RSTACK, 3, STACK
        PUBLIC day_accum
        PUBLIC day_chan
        PUBLIC day_good
        PUBLIC day_unix
        PUBLIC day_zamer
        FUNCTION day_zamer,021203H
        LOCFRAME CSTACK, 30, STACK
        LOCFRAME RSTACK, 6, STACK
        PUBLIC day_zap
        PUBLIC delta_ys
        PUBLIC end_zamer
        FUNCTION end_zamer,021203H
        LOCFRAME CSTACK, 13, STACK
        LOCFRAME RSTACK, 6, STACK
        PUBLIC end_zamer_tit
        FUNCTION end_zamer_tit,021203H
        LOCFRAME CSTACK, 12, STACK
        LOCFRAME RSTACK, 6, STACK
        PUBLIC energy_plus
        FUNCTION energy_plus,021203H
        LOCFRAME CSTACK, 13, STACK
        LOCFRAME RSTACK, 6, STACK
        PUBLIC err_psm
        PUBLIC err_switch
        PUBLIC fin_ys
        PUBLIC global_try
        PUBLIC insert_zapis_kd
        FUNCTION insert_zapis_kd,021203H
        LOCFRAME CSTACK, 24, STACK
        LOCFRAME RSTACK, 6, STACK
        PUBLIC insert_zapis_tc
        FUNCTION insert_zapis_tc,021203H
        LOCFRAME CSTACK, 20, STACK
        LOCFRAME RSTACK, 6, STACK
        PUBLIC insert_zapis_tit
        FUNCTION insert_zapis_tit,021203H
        LOCFRAME CSTACK, 20, STACK
        LOCFRAME RSTACK, 6, STACK
        PUBLIC local_psm
        FUNCTION local_psm,021203H
        LOCFRAME CSTACK, 34, STACK
        LOCFRAME RSTACK, 6, STACK
        PUBLIC lock_arh
        FUNCTION lock_arh,021203H
        LOCFRAME CSTACK, 1, STACK
        LOCFRAME RSTACK, 6, STACK
        PUBLIC lock_arh_tit
        FUNCTION lock_arh_tit,021203H
        LOCFRAME CSTACK, 1, STACK
        LOCFRAME RSTACK, 6, STACK
        PUBLIC lock_bit
        PUBLIC lock_bit_tit
        PUBLIC old_realsec
        PUBLIC pred_mask
        PUBLIC read_arhiv_tii
        FUNCTION read_arhiv_tii,021203H
        LOCFRAME CSTACK, 24, STACK
        LOCFRAME RSTACK, 6, STACK
        PUBLIC refresh_a
        FUNCTION refresh_a,021203H
        LOCFRAME CSTACK, 4, STACK
        LOCFRAME RSTACK, 3, STACK
        PUBLIC set_end_time
        FUNCTION set_end_time,0203H
        LOCFRAME CSTACK, 9, STACK
        LOCFRAME RSTACK, 6, STACK
        PUBLIC set_time_day_zamer
        FUNCTION set_time_day_zamer,0203H
        LOCFRAME CSTACK, 6, STACK
        LOCFRAME RSTACK, 6, STACK
        PUBLIC sost_psm
        PUBLIC start_a
        FUNCTION start_a,021203H
        LOCFRAME CSTACK, 8, STACK
        LOCFRAME RSTACK, 3, STACK
        PUBLIC start_aa
        FUNCTION start_aa,021203H
        LOCFRAME CSTACK, 4, STACK
        LOCFRAME RSTACK, 3, STACK
        PUBLIC start_day_zamer
        PUBLIC start_tii_gzu
        PUBLIC start_ttii
        PUBLIC store_tii
        FUNCTION store_tii,021203H
        LOCFRAME CSTACK, 26, STACK
        LOCFRAME RSTACK, 6, STACK
        PUBLIC store_tii_lock
        FUNCTION store_tii_lock,021203H
        LOCFRAME CSTACK, 26, STACK
        LOCFRAME RSTACK, 6, STACK
        PUBLIC store_tit_lock
        FUNCTION store_tit_lock,021203H
        LOCFRAME CSTACK, 24, STACK
        LOCFRAME RSTACK, 6, STACK
        PUBLIC store_ys
        FUNCTION store_ys,021203H
        LOCFRAME CSTACK, 4, STACK
        LOCFRAME RSTACK, 3, STACK
        PUBLIC store_ys_lock
        FUNCTION store_ys_lock,021203H
        LOCFRAME CSTACK, 26, STACK
        LOCFRAME RSTACK, 6, STACK
        PUBLIC store_ys_minut
        FUNCTION store_ys_minut,021203H
        LOCFRAME CSTACK, 26, STACK
        LOCFRAME RSTACK, 6, STACK
        PUBLIC tarhiv
        PUBLIC tekpsm
        PUBLIC test_nenull
        FUNCTION test_nenull,0203H
        LOCFRAME RSTACK, 3, STACK
        PUBLIC test_switch_psm
        FUNCTION test_switch_psm,0203H
        LOCFRAME RSTACK, 3, STACK
        PUBLIC tii_bit
        PUBLIC tii_bit_minut
        PUBLIC tii_moto
        PUBLIC time_sutok
        PUBLIC timer_psm
        PUBLIC timer_tii
        PUBLIC timer_tit
        PUBLIC tit_bit
        PUBLIC try_find_arhiv
        FUNCTION try_find_arhiv,021203H
        LOCFRAME CSTACK, 29, STACK
        LOCFRAME RSTACK, 6, STACK
        PUBLIC try_form_arhiv
        FUNCTION try_form_arhiv,021203H
        LOCFRAME CSTACK, 26, STACK
        LOCFRAME RSTACK, 6, STACK
        PUBLIC try_ty
        PUBLIC unix_psm
        PUBLIC zadan_ys
        
        CFI Names cfiNames0
        CFI StackFrame CFA_Y Y DATA
        CFI StackFrame CFA_SP SP DATA
        CFI VirtualResource ?RetPad:1, ?RetByte3:8, ?RetHigh:8, ?RetLow:8
        CFI VirtualResource ?Ret:25
        CFI Resource R0:8, R1:8, R2:8, R3:8, R4:8, R5:8, R6:8, R7:8, R8:8, R9:8
        CFI Resource R10:8, R11:8, R12:8, R13:8, R14:8, R15:8, R16:8, R17:8
        CFI Resource R18:8, R19:8, R20:8, R21:8, R22:8, R23:8, R24:8, R25:8
        CFI Resource R26:8, R27:8, R28:8, R29:8, R30:8, R31:8
        CFI Resource ?RetHighByteMask:8, SP:16, SPH:8, SPL:8, Y:16
        CFI ResourceParts ?Ret ?RetByte3, ?RetHigh, ?RetLow, ?RetPad
        CFI ResourceParts SP SPH, SPL
        CFI ResourceParts Y R29, R28
        CFI EndNames cfiNames0
        
        CFI Common cfiCommon0 Using cfiNames0
        CFI CodeAlign 1
        CFI DataAlign 1
        CFI ReturnAddress ?Ret CODE
        CFI CFA_Y Y+0
        CFI CFA_SP SP+3
        CFI ?RetPad 0
        CFI ?RetByte3 and(load(1, DATA, sub(CFA_SP, 2)), ?RetHighByteMask)
        CFI ?RetHigh Frame(CFA_SP, -1)
        CFI ?RetLow Frame(CFA_SP, 0)
        CFI ?Ret Concat
        CFI R0 Undefined
        CFI R1 Undefined
        CFI R2 Undefined
        CFI R3 Undefined
        CFI R4 SameValue
        CFI R5 SameValue
        CFI R6 SameValue
        CFI R7 SameValue
        CFI R8 SameValue
        CFI R9 SameValue
        CFI R10 SameValue
        CFI R11 SameValue
        CFI R12 SameValue
        CFI R13 SameValue
        CFI R14 SameValue
        CFI R15 SameValue
        CFI R16 Undefined
        CFI R17 Undefined
        CFI R18 Undefined
        CFI R19 Undefined
        CFI R20 Undefined
        CFI R21 Undefined
        CFI R22 Undefined
        CFI R23 Undefined
        CFI R24 SameValue
        CFI R25 SameValue
        CFI R26 SameValue
        CFI R27 SameValue
        CFI R28 Undefined
        CFI R29 Undefined
        CFI R30 Undefined
        CFI R31 Undefined
        CFI ?RetHighByteMask SameValue
        CFI SPH Undefined
        CFI SPL Undefined
        CFI EndCommon cfiCommon0
        
        
        CFI Common cfiCommon1 Using cfiNames0
        CFI CodeAlign 1
        CFI DataAlign 1
        CFI ReturnAddress ?Ret CODE
        CFI CFA_Y Notused
        CFI CFA_SP SP+3
        CFI ?RetPad 0
        CFI ?RetByte3 and(load(1, DATA, sub(CFA_SP, 2)), ?RetHighByteMask)
        CFI ?RetHigh Frame(CFA_SP, -1)
        CFI ?RetLow Frame(CFA_SP, 0)
        CFI ?Ret Concat
        CFI R0 SameValue
        CFI R1 SameValue
        CFI R2 SameValue
        CFI R3 SameValue
        CFI R4 SameValue
        CFI R5 SameValue
        CFI R6 SameValue
        CFI R7 SameValue
        CFI R8 SameValue
        CFI R9 SameValue
        CFI R10 SameValue
        CFI R11 SameValue
        CFI R12 SameValue
        CFI R13 SameValue
        CFI R14 SameValue
        CFI R15 SameValue
        CFI R16 SameValue
        CFI R17 SameValue
        CFI R18 SameValue
        CFI R19 SameValue
        CFI R20 SameValue
        CFI R21 SameValue
        CFI R22 SameValue
        CFI R23 SameValue
        CFI R24 SameValue
        CFI R25 SameValue
        CFI R26 SameValue
        CFI R27 SameValue
        CFI R28 Undefined
        CFI R29 Undefined
        CFI R30 SameValue
        CFI R31 SameValue
        CFI ?RetHighByteMask SameValue
        CFI SPH Undefined
        CFI SPL Undefined
        CFI Y SameValue
        CFI EndCommon cfiCommon1
        
        EXTERN RdFromFleshToArr
        FUNCTION RdFromFleshToArr,0202H
        EXTERN WrArrayToFlesh
        FUNCTION WrArrayToFlesh,0202H
        EXTERN bpa_avtomat
        FUNCTION bpa_avtomat,0202H
        EXTERN burst_ds_r
        FUNCTION burst_ds_r,0202H
        EXTERN kodec
        EXTERN modbus_mem1
        EXTERN real_time
        EXTERN sel_modul
        EXTERN unix

// E:\sim800Elam2560_bootnew_i2cerr_a7682e\local.c
//    1 #include <iom2560.h>      

        ASEGN ABSOLUTE:DATA:NOROOT,022H
// union <unnamed> volatile __io _A_PORTA
_A_PORTA:
        DS 1
//    2 #include <inavr.h>
//    3 
//    4 #include "map_ef.h"
//    5 #include "map_mbus.h"
//    6 #include "dfcnst.h"
//    7 #include "dfpin.h"
//    8 #include "dfproc.h"
//    9 #include "bpa.h"
//   10 
//   11 //__flash char prov1[]={'P','R','O','V','1'};
//   12 //__flash char prov2[]={'P','R','O','V','2'};
//   13 char try_find_arhiv(unsigned long int matrix,char m);
//   14 char try_form_arhiv(char m);
//   15 
//   16 extern void RdFromFleshToArr(unsigned int adres_flesh, unsigned char *adres_ozu,unsigned int num);
//   17 extern void WrArrayToFlesh(unsigned int adres_flesh,  unsigned char *adres_ozu, unsigned int num,unsigned char flag,unsigned char znach);
//   18 
//   19 int crc_sum(unsigned char *ff,unsigned char kol);
//   20 
//   21 extern unsigned long int burst_ds_r(void);
//   22              
//   23 extern unsigned int modbus_mem1[SEG1];
//   24                  
//   25 extern void s_port(unsigned char ch); 
//   26 
//   27 //extern void send_info(char size,char __flash *p,unsigned char fl_id,unsigned char id);
//   28 
//   29   /*                                      
//   30    extern   union
//   31             {
//   32           char arr_tii_byte[32];
//   33           unsigned int  arr_tii[16];
//   34             } sstii; 
//   35     
//   36   */
//   37  
//   38      
//   39       
//   40 // для разрешения счета мотоминут
//   41 // аналогично как в УЗЭП надо сделать
//   42 union
//   43             {                        // структура байта управления
//   44              unsigned int config;
//   45              struct
//   46                    {
//   47                    unsigned int interval_zamera      :11;       // 
//   48                    unsigned int type_zam   :2;
//   49                    unsigned int TC_zam     :3;  
//   50                   // unsigned int level_tc             :1;       // ТС_ON_OFF
//   51                   // unsigned int nomer_tc             :3;       // номер ТС 0-7
//   52                   // unsigned int enable               :1;  
//   53                    }  bit;
//   54              }tii_moto; 
//   55 
//   56 
//   57  
//   58  
//   59    
//   60    extern  struct
//   61         { // в двоичном коде
//   62           char r_sec;
//   63           char r_min;
//   64           char r_hor;
//   65           char r_day;
//   66           char r_date;
//   67           char r_month;
//   68           char r_year;
//   69           char r_control;
//   70         }  real_time;
//   71 
//   72 

        RSEG NEAR_Z:DATA:NOROOT(0)
        REQUIRE `?<Segment init: NEAR_Z>`
//   73 unsigned long int cnt_moto[16];
cnt_moto:
        DS 64
//   74 
//   75  
//   76   
//   77  
//   78 
//   79 
//   80  //YES!!! //YES!!! //YES!!! 
//   81 
//   82 //char err_cnt[8];
//   83 
//   84 union {
//   85        unsigned char mb[SEG3*2];//байтовый массив 

        RSEG NEAR_Z:DATA:NOROOT(0)
        REQUIRE `?<Segment init: NEAR_Z>`
//   86        } c2_byte; //1я страница конфигурации 
c2_byte:
        DS 68
//   87 
//   88 union {
//   89        unsigned char mb[SEG99*2];//байтовый массив 

        RSEG NEAR_Z:DATA:NOROOT(0)
        REQUIRE `?<Segment init: NEAR_Z>`
//   90        } c1_byte; // страница конфигурации ГЗУ 
c1_byte:
        DS 40
//   91 
//   92 char bit_zamer_psm,sost_psm ;
//   93 unsigned long int timer_psm,unix_psm;
//   94 

        RSEG NEAR_Z:DATA:NOROOT(0)
        REQUIRE `?<Segment init: NEAR_Z>`
//   95 unsigned long int timer_tii[16],timer_tit[2];
timer_tii:
        DS 64

        RSEG NEAR_Z:DATA:NOROOT(0)
        REQUIRE `?<Segment init: NEAR_Z>`
//   96 char old_realsec[16];
old_realsec:
        DS 16
//   97 
//   98 unsigned int lock_bit,tii_bit,tii_bit_minut;
//   99 unsigned char lock_bit_tit,tit_bit;
//  100 
//  101 extern unsigned long int unix; 
//  102 
//  103 extern char kodec[4];
//  104 extern unsigned char sel_modul;
//  105 //char arr_cnt_tii_heap;
//  106 
//  107 char bit_level,bit_level_psm; 
//  108 
//  109 unsigned char tarhiv;

        RSEG NEAR_Z:DATA:NOROOT(0)
        REQUIRE `?<Segment init: NEAR_Z>`
//  110 unsigned long int start_ttii[16],arr_tii_32[16],start_tii_gzu,delta_ys;
start_ttii:
        DS 64

        RSEG NEAR_Z:DATA:NOROOT(0)
        REQUIRE `?<Segment init: NEAR_Z>`
arr_tii_32:
        DS 64
//  111 unsigned int cnt_sec;
//  112 //YES!!!  //YES!!! //YES!!! //YES!!! 
//  113 
//  114 

        RSEG NEAR_Z:DATA:NOROOT(0)
        REQUIRE `?<Segment init: NEAR_Z>`
//  115 unsigned long int day_accum; 
day_accum:
        DS 4
//  116 char day_chan,day_zap,start_day_zamer,day_good;
//  117 unsigned long int day_unix,time_sutok;
day_unix:
        DS 4
time_sutok:
        DS 4
day_chan:
        DS 1
day_zap:
        DS 1
start_day_zamer:
        DS 1
day_good:
        DS 1
//  118 

        RSEG NEAR_Z:DATA:NOROOT(0)
        REQUIRE `?<Segment init: NEAR_Z>`
//  119 char err_psm,err_switch,cnt_try_ys,tekpsm,pred_mask,fin_ys,count_try,count_sboj,try_ty;
count_try:
        DS 1

        RSEG NEAR_Z:DATA:NOROOT(0)
        REQUIRE `?<Segment init: NEAR_Z>`
try_ty:
        DS 1

        RSEG NEAR_I:DATA:NOROOT(0)
        REQUIRE `?<Segment init: NEAR_I>`
timer_psm:
        DS 4
        REQUIRE `?<Initializer for timer_psm>`
unix_psm:
        DS 4
        REQUIRE `?<Initializer for unix_psm>`
timer_tit:
        DS 8
        REQUIRE `?<Initializer for timer_tit>`
start_tii_gzu:
        DS 4
        REQUIRE `?<Initializer for start_tii_gzu>`
delta_ys:
        DS 4
        REQUIRE `?<Initializer for delta_ys>`
tii_moto:
        DS 2
        REQUIRE `?<Initializer for tii_moto>`
lock_bit:
        DS 2
        REQUIRE `?<Initializer for lock_bit>`
tii_bit:
        DS 2
        REQUIRE `?<Initializer for tii_bit>`
tii_bit_minut:
        DS 2
        REQUIRE `?<Initializer for tii_bit_minut>`
cnt_sec:
        DS 2
        REQUIRE `?<Initializer for cnt_sec>`
bit_zamer_psm:
        DS 1
        REQUIRE `?<Initializer for bit_zamer_psm>`
lock_bit_tit:
        DS 1
        REQUIRE `?<Initializer for lock_bit_tit>`
tit_bit:
        DS 1
        REQUIRE `?<Initializer for tit_bit>`
bit_level:
        DS 1
        REQUIRE `?<Initializer for bit_level>`
bit_level_psm:
        DS 1
        REQUIRE `?<Initializer for bit_level_psm>`
tarhiv:
        DS 1
        REQUIRE `?<Initializer for tarhiv>`
err_psm:
        DS 1
        REQUIRE `?<Initializer for err_psm>`
err_switch:
        DS 1
        REQUIRE `?<Initializer for err_switch>`
cnt_try_ys:
        DS 1
        REQUIRE `?<Initializer for cnt_try_ys>`
tekpsm:
        DS 1
        REQUIRE `?<Initializer for tekpsm>`
pred_mask:
        DS 1
        REQUIRE `?<Initializer for pred_mask>`
fin_ys:
        DS 1
        REQUIRE `?<Initializer for fin_ys>`
count_sboj:
        DS 1
        REQUIRE `?<Initializer for count_sboj>`
//  120 char zadan_ys,global_try=3,sost_psm;
zadan_ys:
        DS 1
        REQUIRE `?<Initializer for zadan_ys>`
global_try:
        DS 1
        REQUIRE `?<Initializer for global_try>`
sost_psm:
        DS 1
        REQUIRE `?<Initializer for sost_psm>`
//  121  
//  122 
//  123 
//  124 ///////// 
//  125 //////////////////////
//  126 void end_zamer(char m);
//  127 unsigned long int set_end_time(char mi,char ch,char da,char ma,char ye);
//  128 
//  129 

        RSEG FARCODE:CODE:NOROOT(1)
//  130 void insert_zapis_kd(unsigned char nomer,unsigned char type)
insert_zapis_kd:
        CFI Block cfiBlock0 Using cfiCommon0
        CFI Function insert_zapis_kd
//  131 {
        FUNCALL insert_zapis_kd, RdFromFleshToArr
        LOCFRAME CSTACK, 24, STACK
        LOCFRAME RSTACK, 3, STACK
        FUNCALL insert_zapis_kd, crc_sum
        LOCFRAME CSTACK, 24, STACK
        LOCFRAME RSTACK, 3, STACK
        FUNCALL insert_zapis_kd, WrArrayToFlesh
        LOCFRAME CSTACK, 24, STACK
        LOCFRAME RSTACK, 3, STACK
        FUNCALL insert_zapis_kd, WrArrayToFlesh
        LOCFRAME CSTACK, 24, STACK
        LOCFRAME RSTACK, 3, STACK
        CALL	?PROLOGUE3_L09
        CFI R26 Frame(CFA_Y, -1)
        CFI R25 Frame(CFA_Y, -2)
        CFI R24 Frame(CFA_Y, -3)
        CFI CFA_Y Y+3
        SBIW	R29:R28, 18
        CFI CFA_Y Y+21
        MOV	R24, R16
        MOV	R26, R17
//  132      unsigned char i,buf[4];
//  133      unsigned char zapis[14];
//  134 
//  135      for(i=0;i<12;i++)zapis[i]=0;
        LDI	R16, 0
??insert_zapis_kd_0:
        LDI	R18, 0
        MOVW	R31:R30, R29:R28
        RCALL	?Subroutine15
??CrossCallReturnLabel_16:
        CPI	R16, 12
        BRCS	??insert_zapis_kd_0
//  136       *(unsigned long int*)&zapis[0]=unix;
        RCALL	?Subroutine22
//  137       zapis[4]=0;
??CrossCallReturnLabel_219:
        LDI	R16, 0
        STD	Y+4, R16
//  138       zapis[5]=0;
        STD	Y+5, R16
//  139       for(i=0;i<6;i++)zapis[4+i]=0;
??insert_zapis_kd_1:
        LDI	R18, 0
        MOVW	R31:R30, R29:R28
        ADIW	R31:R30, 4
        LDI	R17, 0
        RCALL	?Subroutine15
??CrossCallReturnLabel_17:
        CPI	R16, 6
        BRCS	??insert_zapis_kd_1
//  140     //  if(nomer!=0)for(i=0;i<4;i++)zapis[6+i]=tab_proxy[(nomer-1)*4+i];   
//  141       
//  142       if(nomer!=0)
        TST	R24
        BREQ	??insert_zapis_kd_2
//  143       {
//  144         
//  145         if(nomer!=254)
        CPI	R24, 254
        BREQ	??insert_zapis_kd_3
//  146         {
//  147         RdFromFleshToArr(A_SEG6+((nomer-1)*4),&buf[0],4);
        LDI	R20, 4
        LDI	R21, 0
        MOVW	R19:R18, R29:R28
        SUBI	R18, 242
        SBCI	R19, 255
        MUL	R24, R20
        LDI	R16, 252
        ADD	R0, R16
        LDI	R16, 47
        ADC	R1, R16
        MOVW	R17:R16, R1:R0
        CALL	?Subroutine39
//  148         for(i=0;i<4;i++)zapis[6+i]=buf[i]; 
??CrossCallReturnLabel_48:
        LDI	R16, 0
??insert_zapis_kd_4:
        LDI	R19, 0
        MOVW	R31:R30, R29:R28
        ADIW	R31:R30, 14
        ADD	R30, R16
        ADC	R31, R19
        RCALL	?Subroutine8
??CrossCallReturnLabel_6:
        BRCC	??insert_zapis_kd_5
        RJMP	??insert_zapis_kd_4
//  149         }
//  150         else
//  151         {
//  152           for(i=0;i<4;i++)zapis[6+i]=kodec[i];
??insert_zapis_kd_3:
        LDI	R16, 0
??insert_zapis_kd_6:
        MOV	R18, R16
        LDI	R19, 0
        MOVW	R31:R30, R19:R18
        SUBI	R30, LOW((-(kodec) & 0xFFFF))
        SBCI	R31, (-(kodec) & 0xFFFF) >> 8
        RCALL	?Subroutine8
??CrossCallReturnLabel_7:
        BRCC	??insert_zapis_kd_5
        RJMP	??insert_zapis_kd_6
//  153         }
//  154         
//  155       }
//  156       
//  157       if(nomer==0)
//  158       {
//  159        for(i=0;i<4;i++)zapis[6+i]=0x55;
??insert_zapis_kd_2:
        LDI	R16, 0
??insert_zapis_kd_7:
        LDI	R18, 85
        MOVW	R31:R30, R29:R28
        ADIW	R31:R30, 6
        RCALL	??Subroutine16_0
??CrossCallReturnLabel_20:
        ST	Z, R18
        INC	R16
        CPI	R16, 4
        BRCS	??insert_zapis_kd_7
//  160       }
//  161       
//  162 
//  163       *(unsigned int*)&zapis[4]=nomer;
??insert_zapis_kd_5:
        LDI	R25, 0
        STD	Y+4, R24
        STD	Y+5, R25
//  164       *(unsigned int*)&zapis[10]=type;  
        STD	Y+10, R26
        STD	Y+11, R25
//  165       *(unsigned int*)&zapis[12]=crc_sum(&zapis[0],12); 
        LDI	R18, 12
        MOVW	R17:R16, R29:R28
        RCALL	crc_sum
        STD	Y+12, R16
        STD	Y+13, R17
//  166      
//  167      WrArrayToFlesh(STRUCT_TII_HEAP + (int)modbus_mem1[AD_IND_DNS]*14,&zapis[0],14,0,0);      
        RCALL	?Subroutine44
??CrossCallReturnLabel_53:
        RCALL	??Subroutine3_0
//  168      modbus_mem1[AD_IND_DNS]++;
//  169      if ( modbus_mem1[AD_IND_DNS] >99 ) {modbus_mem1[AD_IND_DNS]=0;}          
//  170      i=modbus_mem1[AD_IND_DNS];     
//  171      WrArrayToFlesh(A_IND_DNS,0,1,1,i);
//  172 }
??CrossCallReturnLabel_269:
        ADIW	R29:R28, 18
        CFI CFA_Y Y+3
        LDI	R30, 3
        JMP	?EPILOGUE_B3_L09
        CFI EndBlock cfiBlock0

        RSEG FARCODE:CODE:NOROOT(1)
?Subroutine15:
        CFI Block cfiCond1 Using cfiCommon0
        CFI NoFunction
        CFI Conditional ??CrossCallReturnLabel_16
        CFI R24 Frame(CFA_Y, -3)
        CFI R25 Frame(CFA_Y, -2)
        CFI R26 Frame(CFA_Y, -1)
        CFI CFA_SP SP+6
        CFI CFA_Y Y+21
        CFI Block cfiCond2 Using cfiCommon0
        CFI (cfiCond2) NoFunction
        CFI (cfiCond2) Conditional ??CrossCallReturnLabel_17
        CFI (cfiCond2) R24 Frame(CFA_Y, -3)
        CFI (cfiCond2) R25 Frame(CFA_Y, -2)
        CFI (cfiCond2) R26 Frame(CFA_Y, -1)
        CFI (cfiCond2) CFA_SP SP+6
        CFI (cfiCond2) CFA_Y Y+21
        CFI Block cfiPicker3 Using cfiCommon1
        CFI (cfiPicker3) NoFunction
        CFI (cfiPicker3) Picker
        ADD	R30, R16
        ADC	R31, R18
        ST	Z, R18
        INC	R16
        RET
        CFI EndBlock cfiCond1
        CFI EndBlock cfiCond2
        CFI EndBlock cfiPicker3

        RSEG FARCODE:CODE:NOROOT(1)
?Subroutine8:
        CFI Block cfiCond4 Using cfiCommon0
        CFI NoFunction
        CFI Conditional ??CrossCallReturnLabel_6
        CFI R24 Frame(CFA_Y, -3)
        CFI R25 Frame(CFA_Y, -2)
        CFI R26 Frame(CFA_Y, -1)
        CFI CFA_SP SP+6
        CFI CFA_Y Y+21
        CFI Block cfiCond5 Using cfiCommon0
        CFI (cfiCond5) NoFunction
        CFI (cfiCond5) Conditional ??CrossCallReturnLabel_7
        CFI (cfiCond5) R24 Frame(CFA_Y, -3)
        CFI (cfiCond5) R25 Frame(CFA_Y, -2)
        CFI (cfiCond5) R26 Frame(CFA_Y, -1)
        CFI (cfiCond5) CFA_SP SP+6
        CFI (cfiCond5) CFA_Y Y+21
        CFI Block cfiPicker6 Using cfiCommon1
        CFI (cfiPicker6) NoFunction
        CFI (cfiPicker6) Picker
        LD	R17, Z
        MOVW	R31:R30, R29:R28
        ADIW	R31:R30, 6
        ADD	R30, R16
        ADC	R31, R19
        ST	Z, R17
        INC	R16
        CPI	R16, 4
        RET
        CFI EndBlock cfiCond4
        CFI EndBlock cfiCond5
        CFI EndBlock cfiPicker6
//  173 
//  174 
//  175 
//  176 

        RSEG FARCODE:CODE:NOROOT(1)
//  177 void insert_zapis_tc(unsigned char nomer, unsigned char kod)
insert_zapis_tc:
        CFI Block cfiBlock7 Using cfiCommon0
        CFI Function insert_zapis_tc
//  178 {
        FUNCALL insert_zapis_tc, crc_sum
        LOCFRAME CSTACK, 20, STACK
        LOCFRAME RSTACK, 3, STACK
        FUNCALL insert_zapis_tc, WrArrayToFlesh
        LOCFRAME CSTACK, 20, STACK
        LOCFRAME RSTACK, 3, STACK
        FUNCALL insert_zapis_tc, WrArrayToFlesh
        LOCFRAME CSTACK, 20, STACK
        LOCFRAME RSTACK, 3, STACK
        ST	-Y, R25
        CFI R25 Frame(CFA_Y, -1)
        CFI CFA_Y Y+1
        ST	-Y, R24
        CFI R24 Frame(CFA_Y, -2)
        CFI CFA_Y Y+2
        SBIW	R29:R28, 14
        CFI CFA_Y Y+16
        MOV	R20, R16
        MOV	R18, R17
//  179     unsigned char i;
//  180     unsigned char zapis[14];
//  181 
//  182      for(i=0;i<12;i++)zapis[i]=0;
        LDI	R16, 0
??insert_zapis_tc_0:
        LDI	R19, 0
        MOVW	R31:R30, R29:R28
        ADD	R30, R16
        ADC	R31, R19
        ST	Z, R19
        INC	R16
        CPI	R16, 12
        BRCS	??insert_zapis_tc_0
//  183      *(unsigned long int*)&zapis[0]=unix;
        CALL	?Subroutine23
??CrossCallReturnLabel_213:
        RCALL	?Subroutine49
//  184      *(unsigned int*)&zapis[4]=nomer+1;
??CrossCallReturnLabel_58:
        MOV	R24, R20
        LDI	R25, 0
        ADIW	R25:R24, 1
        STD	Y+4, R24
        STD	Y+5, R25
//  185      *(unsigned int*)&zapis[6]=modbus_mem1[AD_TS];
        RCALL	?Subroutine52
??CrossCallReturnLabel_65:
        LDD	R16, Z+48
        LDD	R17, Z+49
        STD	Y+6, R16
        STD	Y+7, R17
//  186      *(unsigned int*)&zapis[8]=(modbus_mem1[AD_TS]>>nomer) & 0x01;
        CALL	??Subroutine53_0
??CrossCallReturnLabel_70:
        STD	Y+8, R16
        STD	Y+9, R19
//  187      *(unsigned int*)&zapis[10]=kod; 
        STD	Y+10, R18
        STD	Y+11, R19
//  188      *(unsigned int*)&zapis[12]=crc_sum(&zapis[0],12); 
        RJMP	?Subroutine0
        CFI EndBlock cfiBlock7
//  189      
//  190      WrArrayToFlesh(STRUCT_TII_HEAP + (int)modbus_mem1[AD_IND_DNS]*14,&zapis[0],14,0,0);      
//  191      modbus_mem1[AD_IND_DNS]++;
//  192      if ( modbus_mem1[AD_IND_DNS] >99 ) {modbus_mem1[AD_IND_DNS]=0;}          
//  193      i=modbus_mem1[AD_IND_DNS];     
//  194      WrArrayToFlesh(A_IND_DNS,0,1,1,i);
//  195 }  
//  196 
//  197 

        RSEG FARCODE:CODE:NOROOT(1)
//  198 void insert_zapis_tit(unsigned char nomer)
insert_zapis_tit:
        CFI Block cfiBlock8 Using cfiCommon0
        CFI Function insert_zapis_tit
//  199 {
        FUNCALL insert_zapis_tit, crc_sum
        LOCFRAME CSTACK, 20, STACK
        LOCFRAME RSTACK, 3, STACK
        FUNCALL insert_zapis_tit, WrArrayToFlesh
        LOCFRAME CSTACK, 20, STACK
        LOCFRAME RSTACK, 3, STACK
        FUNCALL insert_zapis_tit, WrArrayToFlesh
        LOCFRAME CSTACK, 20, STACK
        LOCFRAME RSTACK, 3, STACK
        ST	-Y, R25
        CFI R25 Frame(CFA_Y, -1)
        CFI CFA_Y Y+1
        ST	-Y, R24
        CFI R24 Frame(CFA_Y, -2)
        CFI CFA_Y Y+2
        SBIW	R29:R28, 14
        CFI CFA_Y Y+16
//  200     unsigned char i;
//  201     unsigned char zapis[14];
//  202 
//  203      for(i=0;i<12;i++)zapis[i]=0;
        LDI	R18, 0
??insert_zapis_tit_0:
        LDI	R17, 0
        MOVW	R31:R30, R29:R28
        ADD	R30, R18
        ADC	R31, R17
        ST	Z, R17
        INC	R18
        CPI	R18, 12
        BRCS	??insert_zapis_tit_0
//  204      *(unsigned long int*)&zapis[0]=unix;
        RCALL	?Subroutine21
??CrossCallReturnLabel_200:
        RCALL	?Subroutine51
//  205      
//  206      *(unsigned int*)&zapis[6]=modbus_mem1[AD_TIT1+nomer];
??CrossCallReturnLabel_62:
        MOVW	R25:R24, R17:R16
        RCALL	??Subroutine54_0
??CrossCallReturnLabel_73:
        MOVW	R31:R30, R17:R16
        SUBI	R30, LOW((-(modbus_mem1) & 0xFFFF))
        SBCI	R31, (-(modbus_mem1) & 0xFFFF) >> 8
        LDD	R16, Z+32
        LDD	R17, Z+33
        STD	Y+6, R16
        STD	Y+7, R17
//  207      
//  208      *(unsigned int*)&zapis[10]=16+nomer; 
        ADIW	R25:R24, 16
        STD	Y+10, R24
        STD	Y+11, R25
        CFI EndBlock cfiBlock8
//  209      *(unsigned int*)&zapis[12]=crc_sum(&zapis[0],12); 
        REQUIRE ?Subroutine0
        ;		// Fall through to label ?Subroutine0
//  210      
//  211      WrArrayToFlesh(STRUCT_TII_HEAP + (int)modbus_mem1[AD_IND_DNS]*14,&zapis[0],14,0,0);      
//  212      modbus_mem1[AD_IND_DNS]++;
//  213      if ( modbus_mem1[AD_IND_DNS] >99 ) {modbus_mem1[AD_IND_DNS]=0;}          
//  214      i=modbus_mem1[AD_IND_DNS];     
//  215      WrArrayToFlesh(A_IND_DNS,0,1,1,i);
//  216 }  

        RSEG FARCODE:CODE:NOROOT(1)
?Subroutine0:
        CFI Block cfiBlock9 Using cfiCommon0
        CFI NoFunction
        CFI CFA_Y Y+16
        CFI R24 Frame(CFA_Y, -2)
        CFI R25 Frame(CFA_Y, -1)
        CFI Block cfiPicker10 Using cfiCommon1
        CFI (cfiPicker10) NoFunction
        CFI (cfiPicker10) Picker
        LDI	R18, 12
        MOVW	R17:R16, R29:R28
        RCALL	crc_sum
        STD	Y+12, R16
        STD	Y+13, R17
        LDI	R23, 0
        LDI	R22, 0
        MOVW	R19:R18, R29:R28
        LDI	R30, LOW((modbus_mem1 + 64))
        LDI	R31, HIGH((modbus_mem1 + 64))
        LD	R20, Z
        LDD	R21, Z+1
        LDI	R16, 14
        LDI	R17, 0
        CALL	?S_EC_MUL_L02
        SUBI	R17, 160
        LDI	R20, 14
        LDI	R21, 0
        CALL	WrArrayToFlesh
        LDI	R30, LOW((modbus_mem1 + 64))
        LDI	R31, HIGH((modbus_mem1 + 64))
        LD	R16, Z
        LDD	R17, Z+1
        SUBI	R16, 255
        SBCI	R17, 255
        ST	Z, R16
        STD	Z+1, R17
        CPI	R16, 100
        LDI	R18, 0
        SBCI	R17, 0
        BRCS	??Subroutine0_0
        ST	Z, R18
        STD	Z+1, R18
??Subroutine0_0:
        LD	R23, Z
        LDI	R22, 1
        LDI	R20, 1
        LDI	R21, 0
        LDI	R19, 0
        LDI	R16, 240
        LDI	R17, 3
        CALL	WrArrayToFlesh
        ADIW	R29:R28, 14
        CFI EndBlock cfiBlock9
        CFI EndBlock cfiPicker10
        REQUIRE ?Subroutine110
        ;		// Fall through to label ?Subroutine110

        RSEG FARCODE:CODE:NOROOT(1)
?Subroutine110:
        CFI Block cfiBlock11 Using cfiCommon0
        CFI NoFunction
        CFI CFA_Y Y+2
        CFI R24 Frame(CFA_Y, -2)
        CFI R25 Frame(CFA_Y, -1)
        CFI Block cfiPicker12 Using cfiCommon1
        CFI (cfiPicker12) NoFunction
        CFI (cfiPicker12) Picker
        LD	R24, Y+
        CFI (cfiBlock11) CFA_Y Y+1
        CFI (cfiBlock11) R24 SameValue
        LD	R25, Y+
        CFI (cfiBlock11) CFA_Y Y+0
        CFI (cfiBlock11) R25 SameValue
        RET
        CFI EndBlock cfiBlock11
        CFI EndBlock cfiPicker12
//  217 ////////////////////////////////////////// 10 11 2014
//  218 

        RSEG FARCODE:CODE:NOROOT(1)
//  219 void day_zamer(void)
day_zamer:
        CFI Block cfiBlock13 Using cfiCommon0
        CFI Function day_zamer
//  220   {  
        FUNCALL day_zamer, RdFromFleshToArr
        LOCFRAME CSTACK, 30, STACK
        LOCFRAME RSTACK, 3, STACK
        FUNCALL day_zamer, crc_sum
        LOCFRAME CSTACK, 30, STACK
        LOCFRAME RSTACK, 3, STACK
        FUNCALL day_zamer, crc_sum
        LOCFRAME CSTACK, 30, STACK
        LOCFRAME RSTACK, 3, STACK
        FUNCALL day_zamer, WrArrayToFlesh
        LOCFRAME CSTACK, 30, STACK
        LOCFRAME RSTACK, 3, STACK
        FUNCALL day_zamer, WrArrayToFlesh
        LOCFRAME CSTACK, 30, STACK
        LOCFRAME RSTACK, 3, STACK
        CALL	?PROLOGUE6_L09
        CFI R5 Frame(CFA_Y, -1)
        CFI R4 Frame(CFA_Y, -2)
        CFI R27 Frame(CFA_Y, -3)
        CFI R26 Frame(CFA_Y, -4)
        CFI R25 Frame(CFA_Y, -5)
        CFI R24 Frame(CFA_Y, -6)
        CFI CFA_Y Y+6
        REQUIRE	?Register_R4_is_cg_reg
        REQUIRE	?Register_R5_is_cg_reg
        SBIW	R29:R28, 22
        CFI CFA_Y Y+28
//  221     
//  222     int zamer;
//  223     unsigned char i;
//  224 //    char i, akaka, mus;
//  225   
//  226   
//  227     unsigned char zapis[14];
//  228 
//  229    union
//  230    {     
//  231    long int unix;
//  232    char st[4]; 
//  233    } tik;
//  234    
//  235     union
//  236    {     
//  237    long int acc;
//  238    char a[4]; 
//  239    } sum;
//  240    
//  241    // проверка совпадения на время суточного замера
//  242    
//  243    
//  244     if( start_day_zamer==0) 
        LDI	R26, LOW(day_accum)
        LDI	R27, (day_accum) >> 8
        MOVW	R31:R30, R27:R26
        LDD	R16, Z+14
        TST	R16
        BRNE	??day_zamer_0
//  245           {
//  246     
//  247      if (unix <= time_sutok)   return;
        LDD	R16, Z+8
        LDD	R17, Z+9
        LDD	R18, Z+10
        LDD	R19, Z+11
        RCALL	?Subroutine21
??CrossCallReturnLabel_201:
        CALL	?Subroutine108
??CrossCallReturnLabel_223:
        BRCC	??CrossCallReturnLabel_96
//  248    
//  249    
//  250  // время ч
//  251  time_sutok+=86400;
        MOVW	R31:R30, R27:R26
        RCALL	?Subroutine60
??CrossCallReturnLabel_86:
        SBCI	R19, 255
        RCALL	?Subroutine62
//  252     
//  253  
//  254       start_day_zamer=1;
??CrossCallReturnLabel_91:
        LDI	R16, 1
        STD	Z+14, R16
//  255       day_good=0;
        LDI	R16, 0
        RCALL	?Subroutine61
//  256       day_accum=0;
//  257       day_chan=0;
??CrossCallReturnLabel_89:
        STD	Z+12, R16
//  258       day_zap=0;
        STD	Z+13, R16
//  259       
//  260       day_unix=unix;
        CALL	?Subroutine68
//  261       return;
??CrossCallReturnLabel_96:
        ADIW	R29:R28, 22
        CFI CFA_Y Y+6
        RJMP	?Subroutine118
        CFI CFA_Y Y+28
//  262            }
//  263            
//  264     
//  265      if ( (day_chan>8) && (day_chan<14)) 
??day_zamer_0:
        LDD	R16, Z+12
        CPI	R16, 9
        BRCS	??day_zamer_1
        CPI	R16, 14
        BRCC	??day_zamer_1
//  266      {
//  267      day_zap=0;day_good=0; day_accum=0;day_chan++; return; 
        LDI	R16, 0
        STD	Z+13, R16
        RCALL	?Subroutine61
??CrossCallReturnLabel_90:
        LDD	R16, Z+12
        INC	R16
        STD	Z+12, R16
        RJMP	??CrossCallReturnLabel_96
//  268                   
//  269      }
//  270            
//  271                              zamer=c2_byte.mb[0+(2*day_chan)]+(c2_byte.mb[1+(2*day_chan)] & 7)*256;
??day_zamer_1:
        RCALL	?Subroutine69
??CrossCallReturnLabel_98:
        LDI	R17, 2
        MUL	R16, R17
        ADD	R30, R0
        ADC	R31, R1
        RCALL	?Subroutine65
//  272                          if (  (zamer >= 1440)  || (zamer ==0)  )  // не снимать замеры для таких каналов
??CrossCallReturnLabel_93:
        CPI	R18, 160
        LDI	R18, 5
        CPC	R17, R18
        BRGE	??day_zamer_2
        OR	R16, R17
        BRNE	??day_zamer_3
//  273                                                         {
//  274                                                         day_zap=0;
??day_zamer_2:
        RCALL	?Subroutine13
??CrossCallReturnLabel_245:
        STD	Z+13, R16
//  275                                                         day_good=0;
        STD	Z+15, R16
//  276                                             day_accum=0;
        LDI	R17, 0
        ST	X+, R16
        ST	X+, R16
        ST	X+, R16
        ST	X, R16
//  277                                             day_chan++;
        LDD	R16, Z+12
        INC	R16
        STD	Z+12, R16
//  278                                          
//  279                                             if (day_chan==16) start_day_zamer=0;
        CPI	R16, 16
        BRNE	??CrossCallReturnLabel_96
        STD	Z+14, R17
        RJMP	??CrossCallReturnLabel_96
//  280                                            
//  281                                             return;
//  282                                                         }
//  283                        /*
//  284                        ДОЛЖНА БЫТЬ ЧТЕНИЕ!!!!!!!!! ПРОВЕРКРЙ СРС!!!
//  285                          if (eprom_busy()==1)  return;
//  286                        p_sys1= & zapis[0];// point to arr                
//  287                        sys1= STRUCT_TII_HEAP + (int)day_zap*14;
//  288                        sys2=12;  
//  289                        sys3=sys1+12;   
//  290                        w_result(22);   
//  291                        */
//  292                   
//  293                        RdFromFleshToArr(STRUCT_TII_HEAP + (int)day_zap*14,&zapis[0],14);   
??day_zamer_3:
        LDI	R20, 14
        LDI	R21, 0
        MOVW	R19:R18, R29:R28
        SUBI	R18, 248
        SBCI	R19, 255
        MOVW	R5:R4, R21:R20
        MOVW	R31:R30, R27:R26
        LDD	R20, Z+13
        CALL	?Subroutine36
??CrossCallReturnLabel_39:
        MOVW	R21:R20, R5:R4
        RCALL	?Subroutine39
//  294                          
//  295                          
//  296                       
//  297                        // считали правильно
//  298                        day_zap++; 
??CrossCallReturnLabel_47:
        MOVW	R31:R30, R27:R26
        LDD	R16, Z+13
        INC	R16
        STD	Z+13, R16
//  299                        if((*(int*)&zapis[12])==crc_sum(&zapis[0],12))  //!!!!!ДОЛЖНА БЫТЬ ЧТЕНИЕ!!!!!!!!! ПРОВЕРКРЙ СРС!!! записи
        LDD	R24, Y+20
        LDD	R25, Y+21
        RCALL	?Subroutine43
??CrossCallReturnLabel_264:
        CP	R24, R16
        CPC	R25, R17
        BREQ	$+2+2
        RJMP	??day_zamer_4
//  300                                         {
//  301                                         
//  302                                         if ( zapis[10]!=day_chan)  goto hlop;  // ищем записи только для даного канала в куче
        LDD	R16, Y+18
        MOVW	R31:R30, R27:R26
        LDD	R17, Z+12
        CP	R16, R17
        BRNE	??day_zamer_4
//  303                                         
//  304                                         
//  305                                          tik.st[0]=zapis[0];
        LDD	R16, Y+8
        ST	Y, R16
//  306                                          tik.st[1]=zapis[1];
        LDD	R16, Y+9
        STD	Y+1, R16
//  307                                          tik.st[2]=zapis[2];
        LDD	R16, Y+10
        STD	Y+2, R16
//  308                                          tik.st[3]=zapis[3];  // круг назад и еще 200 секунд  чтобы не зацепить замеры
        LDD	R16, Y+11
        STD	Y+3, R16
//  309                                          if ( ( tik.unix >= (day_unix-86400-200) ) && ( tik.unix < (day_unix -10)))
        RCALL	?Subroutine72
??CrossCallReturnLabel_112:
        LD	R0, Y
        LDD	R1, Y+1
        LDD	R2, Y+2
        MOV	R3, R16
        MOVW	R17:R16, R21:R20
        MOVW	R19:R18, R23:R22
        SUBI	R16, 72
        SBCI	R17, 82
        SBCI	R18, 1
        SBCI	R19, 0
        CP	R0, R16
        CPC	R1, R17
        CPC	R2, R18
        CPC	R3, R19
        BRCS	??day_zamer_4
        MOVW	R17:R16, R1:R0
        MOVW	R19:R18, R3:R2
        SUBI	R20, 10
        RCALL	??Subroutine71_0
??CrossCallReturnLabel_109:
        RCALL	?Subroutine108
??CrossCallReturnLabel_224:
        BRCC	??day_zamer_4
//  310                                                       {
//  311                                                     if ( (zapis[5]==5) && (zapis[4]==0xa0) ) {goto hlop;} // если есть суточная запись не писать
        LDD	R16, Y+13
        CPI	R16, 5
        BRNE	??day_zamer_5
        LDD	R16, Y+12
        CPI	R16, 160
        BREQ	??day_zamer_4
//  312                                                      day_good++;
??day_zamer_5:
        LDD	R16, Z+15
        INC	R16
        STD	Z+15, R16
//  313                                                     
//  314                                                     /*
//  315                                                       #if DEBUG==1
//  316                                                      day_accum++;
//  317                                                       #endif
//  318                                                       #if DEBUG==0
//  319                                                       */
//  320                                                      
//  321                                                       sum.a[0]=zapis[6];
        LDD	R16, Y+14
        STD	Y+4, R16
//  322                                                       sum.a[1]=zapis[7];
        LDD	R16, Y+15
        STD	Y+5, R16
//  323                                                       sum.a[2]=zapis[8];
        LDD	R16, Y+16
        STD	Y+6, R16
//  324                                                       sum.a[3]=zapis[9];
        LDD	R16, Y+17
        STD	Y+7, R16
//  325                                                       day_accum=day_accum+sum.acc;
        LDD	R16, Y+4
        LDD	R17, Y+5
        LDD	R18, Y+6
        LDD	R19, Y+7
        LD	R20, X+
        LD	R21, X+
        LD	R22, X+
        LD	R23, X
        RCALL	?Subroutine105
??CrossCallReturnLabel_205:
        ST	X, R23
        ST	-X, R22
        ST	-X, R21
        ST	-X, R20
//  326                                                       
//  327                                                      
//  328                                                     //  #endif
//  329                                                       }
//  330                                         } 
//  331                                         
//  332                                         
//  333                          
//  334                                         
//  335                                         
//  336                                         
//  337 hlop:                                         
//  338                        if(day_zap >99)  
??day_zamer_4:
        MOVW	R31:R30, R27:R26
        LDD	R16, Z+13
        CPI	R16, 100
        BRCC	$+2+2
        RJMP	??CrossCallReturnLabel_96
//  339                                          { 
//  340                                        
//  341                                        
//  342                                        if (day_good==0) goto no_zap;   // если нет ни одного замера то нет и суточного
        LDD	R16, Z+15
        TST	R16
        BRNE	$+2+2
        RJMP	??day_zamer_2
//  343                                        
//  344                                        
//  345                                         tik.unix=day_unix+2;        
        RCALL	?Subroutine75
??CrossCallReturnLabel_114:
        RCALL	?Subroutine76
??CrossCallReturnLabel_116:
        RCALL	?Subroutine107
//  346                                         zapis[0]=tik.st[0];
??CrossCallReturnLabel_217:
        STD	Y+8, R16
//  347                                         zapis[1]=tik.st[1];
        STD	Y+9, R17
//  348                                         zapis[2]=tik.st[2];
        STD	Y+10, R18
//  349                                         zapis[3]=tik.st[3]; 
        STD	Y+11, R19
//  350   zapis[4]=0xa0;    // 1440  записать суточное время по этому каналу 
        LDI	R16, 160
        STD	Y+12, R16
//  351   zapis[5]=5;
        LDI	R16, 5
        STD	Y+13, R16
//  352   
//  353   
//  354   zapis[10]=day_chan;    
        LDD	R16, Z+12
        STD	Y+18, R16
//  355   zapis[11]=0;
        STD	Y+19, R5
//  356   
//  357   sum.acc=day_accum;
        RCALL	?Subroutine74
??CrossCallReturnLabel_253:
        STD	Y+4, R16
        STD	Y+5, R17
        STD	Y+6, R18
        STD	Y+7, R19
//  358   
//  359   zapis[6]=sum.a[0];
        STD	Y+14, R16
//  360   zapis[7]=sum.a[1];
        STD	Y+15, R17
//  361   zapis[8]=sum.a[2];
        STD	Y+16, R18
//  362   zapis[9]=sum.a[3]; 
        STD	Y+17, R19
//  363  
//  364 
//  365  
//  366 /* ДОЛЖНА БЫТЬ ЗАПИСЬ В ОСНОВНУЮ КУЧУ!!!!!!!! 
//  367        
//  368 
//  369 */ 
//  370  
//  371   
//  372 *(int*)&zapis[12]=crc_sum(&zapis[0],12);     
        RCALL	?Subroutine43
??CrossCallReturnLabel_263:
        STD	Y+20, R16
        STD	Y+21, R17
//  373 WrArrayToFlesh(STRUCT_TII_HEAP + (int)modbus_mem1[AD_IND_DNS]*14,&zapis[0],14,0,0);
        RCALL	?Subroutine44
??CrossCallReturnLabel_54:
        SUBI	R18, 248
        RCALL	?Subroutine3
//  374   
//  375   
//  376   
//  377   
//  378 /* 
//  379             arr_cnt_tii_heap++; 
//  380             if ( arr_cnt_tii_heap >99) {arr_cnt_tii_heap=0;arr_cnt_tii_heap_modbus=99;}
//  381                                          else arr_cnt_tii_heap_modbus=arr_cnt_tii_heap-1;
//  382                      
//  383            
//  384              dop_sys1=CNT_TII;
//  385              dop_sys2=arr_cnt_tii_heap; 
//  386               
//  387              w_result(23);
//  388             
//  389   передвижка указателя
//  390   */     
//  391   
//  392                         
//  393            modbus_mem1[AD_IND_DNS]++;
//  394            if ( modbus_mem1[AD_IND_DNS] >99 ) {modbus_mem1[AD_IND_DNS]=0;}
//  395            i=modbus_mem1[AD_IND_DNS];
//  396            WrArrayToFlesh(A_IND_DNS,0,1,1,i);
??CrossCallReturnLabel_271:
        RJMP	??day_zamer_2
        CFI EndBlock cfiBlock13
//  397 
//  398   
//  399             
//  400             no_zap:
//  401             
//  402                                             day_zap=0;
//  403                                             day_good=0;
//  404                                             day_accum=0;
//  405                                             day_chan++;
//  406                                             if (day_chan==16) start_day_zamer=0;
//  407                                             
//  408                                           }
//  409            
//  410     }       

        RSEG FARCODE:CODE:NOROOT(1)
?Subroutine61:
        CFI Block cfiCond14 Using cfiCommon0
        CFI NoFunction
        CFI Conditional ??CrossCallReturnLabel_89
        CFI R24 Frame(CFA_Y, -6)
        CFI R25 Frame(CFA_Y, -5)
        CFI R26 Frame(CFA_Y, -4)
        CFI R27 Frame(CFA_Y, -3)
        CFI R4 Frame(CFA_Y, -2)
        CFI R5 Frame(CFA_Y, -1)
        CFI CFA_SP SP+6
        CFI CFA_Y Y+28
        CFI Block cfiCond15 Using cfiCommon0
        CFI (cfiCond15) NoFunction
        CFI (cfiCond15) Conditional ??CrossCallReturnLabel_90
        CFI (cfiCond15) R24 Frame(CFA_Y, -6)
        CFI (cfiCond15) R25 Frame(CFA_Y, -5)
        CFI (cfiCond15) R26 Frame(CFA_Y, -4)
        CFI (cfiCond15) R27 Frame(CFA_Y, -3)
        CFI (cfiCond15) R4 Frame(CFA_Y, -2)
        CFI (cfiCond15) R5 Frame(CFA_Y, -1)
        CFI (cfiCond15) CFA_SP SP+6
        CFI (cfiCond15) CFA_Y Y+28
        CFI Block cfiPicker16 Using cfiCommon1
        CFI (cfiPicker16) NoFunction
        CFI (cfiPicker16) Picker
        STD	Z+15, R16
        ST	X+, R16
        ST	X+, R16
        ST	X+, R16
        ST	X, R16
        RET
        CFI EndBlock cfiCond14
        CFI EndBlock cfiCond15
        CFI EndBlock cfiPicker16

        RSEG FARCODE:CODE:NOROOT(1)
?Subroutine44:
        CFI Block cfiCond17 Using cfiCommon0
        CFI NoFunction
        CFI Conditional ??CrossCallReturnLabel_53
        CFI R24 Frame(CFA_Y, -3)
        CFI R25 Frame(CFA_Y, -2)
        CFI R26 Frame(CFA_Y, -1)
        CFI CFA_SP SP+6
        CFI CFA_Y Y+21
        CFI Block cfiCond18 Using cfiCommon0
        CFI (cfiCond18) NoFunction
        CFI (cfiCond18) Conditional ??CrossCallReturnLabel_54
        CFI (cfiCond18) R24 Frame(CFA_Y, -6)
        CFI (cfiCond18) R25 Frame(CFA_Y, -5)
        CFI (cfiCond18) R26 Frame(CFA_Y, -4)
        CFI (cfiCond18) R27 Frame(CFA_Y, -3)
        CFI (cfiCond18) R4 Frame(CFA_Y, -2)
        CFI (cfiCond18) R5 Frame(CFA_Y, -1)
        CFI (cfiCond18) CFA_SP SP+6
        CFI (cfiCond18) CFA_Y Y+28
        CFI Block cfiCond19 Using cfiCommon0
        CFI (cfiCond19) NoFunction
        CFI (cfiCond19) Conditional ??CrossCallReturnLabel_55
        CFI (cfiCond19) R24 Frame(CFA_Y, -5)
        CFI (cfiCond19) R25 Frame(CFA_Y, -4)
        CFI (cfiCond19) R26 Frame(CFA_Y, -3)
        CFI (cfiCond19) R27 Frame(CFA_Y, -2)
        CFI (cfiCond19) R4 Frame(CFA_Y, -1)
        CFI (cfiCond19) CFA_SP SP+6
        CFI (cfiCond19) CFA_Y Y+23
        CFI Block cfiPicker20 Using cfiCommon1
        CFI (cfiPicker20) NoFunction
        CFI (cfiPicker20) Picker
        LDI	R23, 0
        LDI	R22, 0
        MOVW	R19:R18, R29:R28
        RET
        CFI EndBlock cfiCond17
        CFI EndBlock cfiCond18
        CFI EndBlock cfiCond19
        CFI EndBlock cfiPicker20

        RSEG FARCODE:CODE:NOROOT(1)
?Subroutine43:
        CFI Block cfiCond21 Using cfiCommon0
        CFI NoFunction
        CFI Conditional ??CrossCallReturnLabel_264
        CFI R24 Frame(CFA_Y, -6)
        CFI R25 Frame(CFA_Y, -5)
        CFI R26 Frame(CFA_Y, -4)
        CFI R27 Frame(CFA_Y, -3)
        CFI R4 Frame(CFA_Y, -2)
        CFI R5 Frame(CFA_Y, -1)
        CFI CFA_SP SP+6
        CFI CFA_Y Y+28
        CFI Block cfiCond22 Using cfiCommon0
        CFI (cfiCond22) NoFunction
        CFI (cfiCond22) Conditional ??CrossCallReturnLabel_263
        CFI (cfiCond22) R24 Frame(CFA_Y, -6)
        CFI (cfiCond22) R25 Frame(CFA_Y, -5)
        CFI (cfiCond22) R26 Frame(CFA_Y, -4)
        CFI (cfiCond22) R27 Frame(CFA_Y, -3)
        CFI (cfiCond22) R4 Frame(CFA_Y, -2)
        CFI (cfiCond22) R5 Frame(CFA_Y, -1)
        CFI (cfiCond22) CFA_SP SP+6
        CFI (cfiCond22) CFA_Y Y+28
        CFI Block cfiPicker23 Using cfiCommon1
        CFI (cfiPicker23) NoFunction
        CFI (cfiPicker23) Picker
        LDI	R18, 12
        MOVW	R17:R16, R29:R28
        SUBI	R16, 248
        CFI EndBlock cfiCond21
        CFI EndBlock cfiCond22
        CFI EndBlock cfiPicker23
        REQUIRE ?Subroutine119
        ;		// Fall through to label ?Subroutine119

        RSEG FARCODE:CODE:NOROOT(1)
?Subroutine119:
        CFI Block cfiCond24 Using cfiCommon0
        CFI NoFunction
        CFI Conditional ??CrossCallReturnLabel_264
        CFI R24 Frame(CFA_Y, -6)
        CFI R25 Frame(CFA_Y, -5)
        CFI R26 Frame(CFA_Y, -4)
        CFI R27 Frame(CFA_Y, -3)
        CFI R4 Frame(CFA_Y, -2)
        CFI R5 Frame(CFA_Y, -1)
        CFI CFA_SP SP+6
        CFI CFA_Y Y+28
        CFI Block cfiCond25 Using cfiCommon0
        CFI (cfiCond25) NoFunction
        CFI (cfiCond25) Conditional ??CrossCallReturnLabel_263
        CFI (cfiCond25) R24 Frame(CFA_Y, -6)
        CFI (cfiCond25) R25 Frame(CFA_Y, -5)
        CFI (cfiCond25) R26 Frame(CFA_Y, -4)
        CFI (cfiCond25) R27 Frame(CFA_Y, -3)
        CFI (cfiCond25) R4 Frame(CFA_Y, -2)
        CFI (cfiCond25) R5 Frame(CFA_Y, -1)
        CFI (cfiCond25) CFA_SP SP+6
        CFI (cfiCond25) CFA_Y Y+28
        CFI Block cfiCond26 Using cfiCommon0
        CFI (cfiCond26) NoFunction
        CFI (cfiCond26) Conditional ??CrossCallReturnLabel_262
        CFI (cfiCond26) CFA_SP SP+6
        CFI (cfiCond26) CFA_Y Y+18
        CFI Block cfiCond27 Using cfiCommon0
        CFI (cfiCond27) NoFunction
        CFI (cfiCond27) Conditional ??CrossCallReturnLabel_261
        CFI (cfiCond27) R24 Frame(CFA_Y, -11)
        CFI (cfiCond27) R25 Frame(CFA_Y, -10)
        CFI (cfiCond27) R26 Frame(CFA_Y, -9)
        CFI (cfiCond27) R27 Frame(CFA_Y, -8)
        CFI (cfiCond27) R4 Frame(CFA_Y, -7)
        CFI (cfiCond27) R5 Frame(CFA_Y, -6)
        CFI (cfiCond27) R6 Frame(CFA_Y, -5)
        CFI (cfiCond27) R7 Frame(CFA_Y, -4)
        CFI (cfiCond27) R8 Frame(CFA_Y, -3)
        CFI (cfiCond27) R9 Frame(CFA_Y, -2)
        CFI (cfiCond27) R10 Frame(CFA_Y, -1)
        CFI (cfiCond27) CFA_SP SP+6
        CFI (cfiCond27) CFA_Y Y+29
        CFI Block cfiCond28 Using cfiCommon0
        CFI (cfiCond28) NoFunction
        CFI (cfiCond28) Conditional ??CrossCallReturnLabel_260
        CFI (cfiCond28) R24 Frame(CFA_Y, -16)
        CFI (cfiCond28) R25 Frame(CFA_Y, -15)
        CFI (cfiCond28) R26 Frame(CFA_Y, -14)
        CFI (cfiCond28) R27 Frame(CFA_Y, -13)
        CFI (cfiCond28) R4 Frame(CFA_Y, -12)
        CFI (cfiCond28) R5 Frame(CFA_Y, -11)
        CFI (cfiCond28) R6 Frame(CFA_Y, -10)
        CFI (cfiCond28) R7 Frame(CFA_Y, -9)
        CFI (cfiCond28) R8 Frame(CFA_Y, -8)
        CFI (cfiCond28) R9 Frame(CFA_Y, -7)
        CFI (cfiCond28) R10 Frame(CFA_Y, -6)
        CFI (cfiCond28) R11 Frame(CFA_Y, -5)
        CFI (cfiCond28) R12 Frame(CFA_Y, -4)
        CFI (cfiCond28) R13 Frame(CFA_Y, -3)
        CFI (cfiCond28) R14 Frame(CFA_Y, -2)
        CFI (cfiCond28) R15 Frame(CFA_Y, -1)
        CFI (cfiCond28) CFA_SP SP+6
        CFI (cfiCond28) CFA_Y Y+34
        CFI Block cfiPicker29 Using cfiCommon1
        CFI (cfiPicker29) NoFunction
        CFI (cfiPicker29) Picker
        SBCI	R17, 255
        RJMP	crc_sum
        CFI EndBlock cfiCond24
        CFI EndBlock cfiCond25
        CFI EndBlock cfiCond26
        CFI EndBlock cfiCond27
        CFI EndBlock cfiCond28
        CFI EndBlock cfiPicker29

        RSEG FARCODE:CODE:NOROOT(1)
?Subroutine21:
        CFI Block cfiCond30 Using cfiCommon0
        CFI NoFunction
        CFI Conditional ??CrossCallReturnLabel_200
        CFI R24 Frame(CFA_Y, -2)
        CFI R25 Frame(CFA_Y, -1)
        CFI CFA_SP SP+6
        CFI CFA_Y Y+16
        CFI Block cfiCond31 Using cfiCommon0
        CFI (cfiCond31) NoFunction
        CFI (cfiCond31) Conditional ??CrossCallReturnLabel_201
        CFI (cfiCond31) R24 Frame(CFA_Y, -6)
        CFI (cfiCond31) R25 Frame(CFA_Y, -5)
        CFI (cfiCond31) R26 Frame(CFA_Y, -4)
        CFI (cfiCond31) R27 Frame(CFA_Y, -3)
        CFI (cfiCond31) R4 Frame(CFA_Y, -2)
        CFI (cfiCond31) R5 Frame(CFA_Y, -1)
        CFI (cfiCond31) CFA_SP SP+6
        CFI (cfiCond31) CFA_Y Y+28
        CFI Block cfiCond32 Using cfiCommon0
        CFI (cfiCond32) NoFunction
        CFI (cfiCond32) Conditional ??CrossCallReturnLabel_202
        CFI (cfiCond32) R24 Frame(CFA_Y, -16)
        CFI (cfiCond32) R25 Frame(CFA_Y, -15)
        CFI (cfiCond32) R26 Frame(CFA_Y, -14)
        CFI (cfiCond32) R27 Frame(CFA_Y, -13)
        CFI (cfiCond32) R4 Frame(CFA_Y, -12)
        CFI (cfiCond32) R5 Frame(CFA_Y, -11)
        CFI (cfiCond32) R6 Frame(CFA_Y, -10)
        CFI (cfiCond32) R7 Frame(CFA_Y, -9)
        CFI (cfiCond32) R8 Frame(CFA_Y, -8)
        CFI (cfiCond32) R9 Frame(CFA_Y, -7)
        CFI (cfiCond32) R10 Frame(CFA_Y, -6)
        CFI (cfiCond32) R11 Frame(CFA_Y, -5)
        CFI (cfiCond32) R12 Frame(CFA_Y, -4)
        CFI (cfiCond32) R13 Frame(CFA_Y, -3)
        CFI (cfiCond32) R14 Frame(CFA_Y, -2)
        CFI (cfiCond32) R15 Frame(CFA_Y, -1)
        CFI (cfiCond32) CFA_SP SP+6
        CFI (cfiCond32) CFA_Y Y+34
        CFI Block cfiPicker33 Using cfiCommon1
        CFI (cfiPicker33) NoFunction
        CFI (cfiPicker33) Picker
        LDI	R30, LOW(unix)
        LDI	R31, (unix) >> 8
        CFI EndBlock cfiCond30
        CFI EndBlock cfiCond31
        CFI EndBlock cfiCond32
        CFI EndBlock cfiPicker33
        REQUIRE ?Subroutine104
        ;		// Fall through to label ?Subroutine104

        RSEG FARCODE:CODE:NOROOT(1)
?Subroutine104:
        CFI Block cfiCond34 Using cfiCommon0
        CFI NoFunction
        CFI Conditional ??CrossCallReturnLabel_200
        CFI R24 Frame(CFA_Y, -2)
        CFI R25 Frame(CFA_Y, -1)
        CFI CFA_SP SP+6
        CFI CFA_Y Y+16
        CFI Block cfiCond35 Using cfiCommon0
        CFI (cfiCond35) NoFunction
        CFI (cfiCond35) Conditional ??CrossCallReturnLabel_201
        CFI (cfiCond35) R24 Frame(CFA_Y, -6)
        CFI (cfiCond35) R25 Frame(CFA_Y, -5)
        CFI (cfiCond35) R26 Frame(CFA_Y, -4)
        CFI (cfiCond35) R27 Frame(CFA_Y, -3)
        CFI (cfiCond35) R4 Frame(CFA_Y, -2)
        CFI (cfiCond35) R5 Frame(CFA_Y, -1)
        CFI (cfiCond35) CFA_SP SP+6
        CFI (cfiCond35) CFA_Y Y+28
        CFI Block cfiCond36 Using cfiCommon0
        CFI (cfiCond36) NoFunction
        CFI (cfiCond36) Conditional ??CrossCallReturnLabel_202
        CFI (cfiCond36) R24 Frame(CFA_Y, -16)
        CFI (cfiCond36) R25 Frame(CFA_Y, -15)
        CFI (cfiCond36) R26 Frame(CFA_Y, -14)
        CFI (cfiCond36) R27 Frame(CFA_Y, -13)
        CFI (cfiCond36) R4 Frame(CFA_Y, -12)
        CFI (cfiCond36) R5 Frame(CFA_Y, -11)
        CFI (cfiCond36) R6 Frame(CFA_Y, -10)
        CFI (cfiCond36) R7 Frame(CFA_Y, -9)
        CFI (cfiCond36) R8 Frame(CFA_Y, -8)
        CFI (cfiCond36) R9 Frame(CFA_Y, -7)
        CFI (cfiCond36) R10 Frame(CFA_Y, -6)
        CFI (cfiCond36) R11 Frame(CFA_Y, -5)
        CFI (cfiCond36) R12 Frame(CFA_Y, -4)
        CFI (cfiCond36) R13 Frame(CFA_Y, -3)
        CFI (cfiCond36) R14 Frame(CFA_Y, -2)
        CFI (cfiCond36) R15 Frame(CFA_Y, -1)
        CFI (cfiCond36) CFA_SP SP+6
        CFI (cfiCond36) CFA_Y Y+34
        CFI Block cfiCond37 Using cfiCommon0
        CFI (cfiCond37) NoFunction
        CFI (cfiCond37) Conditional ??CrossCallReturnLabel_203
        CFI (cfiCond37) R24 Frame(CFA_Y, -2)
        CFI (cfiCond37) R25 Frame(CFA_Y, -1)
        CFI (cfiCond37) CFA_SP SP+6
        CFI (cfiCond37) CFA_Y Y+20
        CFI Block cfiCond38 Using cfiCommon0
        CFI (cfiCond38) NoFunction
        CFI (cfiCond38) Conditional ??CrossCallReturnLabel_204
        CFI (cfiCond38) R24 Frame(CFA_Y, -6)
        CFI (cfiCond38) R25 Frame(CFA_Y, -5)
        CFI (cfiCond38) R26 Frame(CFA_Y, -4)
        CFI (cfiCond38) R27 Frame(CFA_Y, -3)
        CFI (cfiCond38) R4 Frame(CFA_Y, -2)
        CFI (cfiCond38) R5 Frame(CFA_Y, -1)
        CFI (cfiCond38) CFA_SP SP+6
        CFI (cfiCond38) CFA_Y Y+24
        CFI Block cfiCond39 Using cfiCommon0
        CFI (cfiCond39) NoFunction
        CFI (cfiCond39) Conditional ??CrossCallReturnLabel_199
        CFI (cfiCond39) R24 Frame(CFA_Y, -2)
        CFI (cfiCond39) R25 Frame(CFA_Y, -1)
        CFI (cfiCond39) CFA_SP SP+6
        CFI (cfiCond39) CFA_Y Y+20
        CFI Block cfiPicker40 Using cfiCommon1
        CFI (cfiPicker40) NoFunction
        CFI (cfiPicker40) Picker
        LD	R20, Z
        LDD	R21, Z+1
        LDD	R22, Z+2
        LDD	R23, Z+3
        RET
        CFI EndBlock cfiCond34
        CFI EndBlock cfiCond35
        CFI EndBlock cfiCond36
        CFI EndBlock cfiCond37
        CFI EndBlock cfiCond38
        CFI EndBlock cfiCond39
        CFI EndBlock cfiPicker40

        RSEG FARCODE:CODE:NOROOT(1)
?Subroutine3:
        CFI Block cfiCond41 Using cfiCommon0
        CFI NoFunction
        CFI Conditional ??CrossCallReturnLabel_271
        CFI R24 Frame(CFA_Y, -6)
        CFI R25 Frame(CFA_Y, -5)
        CFI R26 Frame(CFA_Y, -4)
        CFI R27 Frame(CFA_Y, -3)
        CFI R4 Frame(CFA_Y, -2)
        CFI R5 Frame(CFA_Y, -1)
        CFI CFA_SP SP+6
        CFI CFA_Y Y+28
        CFI Block cfiCond42 Using cfiCommon0
        CFI (cfiCond42) NoFunction
        CFI (cfiCond42) Conditional ??CrossCallReturnLabel_270
        CFI (cfiCond42) R24 Frame(CFA_Y, -5)
        CFI (cfiCond42) R25 Frame(CFA_Y, -4)
        CFI (cfiCond42) R26 Frame(CFA_Y, -3)
        CFI (cfiCond42) R27 Frame(CFA_Y, -2)
        CFI (cfiCond42) R4 Frame(CFA_Y, -1)
        CFI (cfiCond42) CFA_SP SP+6
        CFI (cfiCond42) CFA_Y Y+23
        CFI Block cfiPicker43 Using cfiCommon1
        CFI (cfiPicker43) NoFunction
        CFI (cfiPicker43) Picker
        SBCI	R19, 255
        CFI Block cfiCond44 Using cfiCommon0
        CFI (cfiCond44) NoFunction
        CFI (cfiCond44) Conditional ??CrossCallReturnLabel_269
        CFI (cfiCond44) R24 Frame(CFA_Y, -3)
        CFI (cfiCond44) R25 Frame(CFA_Y, -2)
        CFI (cfiCond44) R26 Frame(CFA_Y, -1)
        CFI (cfiCond44) CFA_SP SP+6
        CFI (cfiCond44) CFA_Y Y+21
??Subroutine3_0:
        LDI	R30, LOW((modbus_mem1 + 64))
        LDI	R31, HIGH((modbus_mem1 + 64))
        LD	R20, Z
        LDD	R21, Z+1
        LDI	R16, 14
        LDI	R17, 0
        CALL	?S_EC_MUL_L02
        SUBI	R17, 160
        LDI	R20, 14
        LDI	R21, 0
        CALL	WrArrayToFlesh
        LDI	R30, LOW((modbus_mem1 + 64))
        LDI	R31, HIGH((modbus_mem1 + 64))
        LD	R16, Z
        LDD	R17, Z+1
        SUBI	R16, 255
        SBCI	R17, 255
        ST	Z, R16
        STD	Z+1, R17
        CPI	R16, 100
        LDI	R18, 0
        SBCI	R17, 0
        BRCS	??Subroutine3_1
        ST	Z, R18
        STD	Z+1, R18
??Subroutine3_1:
        LD	R23, Z
        LDI	R22, 1
        LDI	R20, 1
        LDI	R21, 0
        LDI	R19, 0
        LDI	R16, 240
        LDI	R17, 3
        CFI EndBlock cfiCond41
        CFI EndBlock cfiCond42
        CFI EndBlock cfiPicker43
        CFI EndBlock cfiCond44
        REQUIRE ?Subroutine120
        ;		// Fall through to label ?Subroutine120

        RSEG FARCODE:CODE:NOROOT(1)
?Subroutine120:
        CFI Block cfiCond45 Using cfiCommon0
        CFI NoFunction
        CFI Conditional ??CrossCallReturnLabel_271
        CFI R24 Frame(CFA_Y, -6)
        CFI R25 Frame(CFA_Y, -5)
        CFI R26 Frame(CFA_Y, -4)
        CFI R27 Frame(CFA_Y, -3)
        CFI R4 Frame(CFA_Y, -2)
        CFI R5 Frame(CFA_Y, -1)
        CFI CFA_SP SP+6
        CFI CFA_Y Y+28
        CFI Block cfiCond46 Using cfiCommon0
        CFI (cfiCond46) NoFunction
        CFI (cfiCond46) Conditional ??CrossCallReturnLabel_270
        CFI (cfiCond46) R24 Frame(CFA_Y, -5)
        CFI (cfiCond46) R25 Frame(CFA_Y, -4)
        CFI (cfiCond46) R26 Frame(CFA_Y, -3)
        CFI (cfiCond46) R27 Frame(CFA_Y, -2)
        CFI (cfiCond46) R4 Frame(CFA_Y, -1)
        CFI (cfiCond46) CFA_SP SP+6
        CFI (cfiCond46) CFA_Y Y+23
        CFI Block cfiCond47 Using cfiCommon0
        CFI (cfiCond47) NoFunction
        CFI (cfiCond47) Conditional ??CrossCallReturnLabel_269
        CFI (cfiCond47) R24 Frame(CFA_Y, -3)
        CFI (cfiCond47) R25 Frame(CFA_Y, -2)
        CFI (cfiCond47) R26 Frame(CFA_Y, -1)
        CFI (cfiCond47) CFA_SP SP+6
        CFI (cfiCond47) CFA_Y Y+21
        CFI Block cfiCond48 Using cfiCommon0
        CFI (cfiCond48) NoFunction
        CFI (cfiCond48) Conditional ??CrossCallReturnLabel_268
        CFI (cfiCond48) R24 Frame(CFA_Y, -2)
        CFI (cfiCond48) R25 Frame(CFA_Y, -1)
        CFI (cfiCond48) CFA_SP SP+6
        CFI (cfiCond48) CFA_Y Y+20
        CFI Block cfiCond49 Using cfiCommon0
        CFI (cfiCond49) NoFunction
        CFI (cfiCond49) Conditional ??CrossCallReturnLabel_267
        CFI (cfiCond49) R24 Frame(CFA_Y, -8)
        CFI (cfiCond49) R25 Frame(CFA_Y, -7)
        CFI (cfiCond49) R26 Frame(CFA_Y, -6)
        CFI (cfiCond49) R27 Frame(CFA_Y, -5)
        CFI (cfiCond49) R4 Frame(CFA_Y, -4)
        CFI (cfiCond49) R5 Frame(CFA_Y, -3)
        CFI (cfiCond49) R6 Frame(CFA_Y, -2)
        CFI (cfiCond49) R7 Frame(CFA_Y, -1)
        CFI (cfiCond49) CFA_SP SP+6
        CFI (cfiCond49) CFA_Y Y+26
        CFI Block cfiCond50 Using cfiCommon0
        CFI (cfiCond50) NoFunction
        CFI (cfiCond50) Conditional ??CrossCallReturnLabel_266
        CFI (cfiCond50) R24 Frame(CFA_Y, -8)
        CFI (cfiCond50) R25 Frame(CFA_Y, -7)
        CFI (cfiCond50) R26 Frame(CFA_Y, -6)
        CFI (cfiCond50) R27 Frame(CFA_Y, -5)
        CFI (cfiCond50) R4 Frame(CFA_Y, -4)
        CFI (cfiCond50) R5 Frame(CFA_Y, -3)
        CFI (cfiCond50) R6 Frame(CFA_Y, -2)
        CFI (cfiCond50) R7 Frame(CFA_Y, -1)
        CFI (cfiCond50) CFA_SP SP+6
        CFI (cfiCond50) CFA_Y Y+26
        CFI Block cfiCond51 Using cfiCommon0
        CFI (cfiCond51) NoFunction
        CFI (cfiCond51) Conditional ??CrossCallReturnLabel_265
        CFI (cfiCond51) CFA_SP SP+6
        CFI (cfiCond51) CFA_Y Y+18
        CFI Block cfiPicker52 Using cfiCommon1
        CFI (cfiPicker52) NoFunction
        CFI (cfiPicker52) Picker
        JMP	WrArrayToFlesh
        CFI EndBlock cfiCond45
        CFI EndBlock cfiCond46
        CFI EndBlock cfiCond47
        CFI EndBlock cfiCond48
        CFI EndBlock cfiCond49
        CFI EndBlock cfiCond50
        CFI EndBlock cfiCond51
        CFI EndBlock cfiPicker52
//  411 
//  412 
//  413 /////////////////////////////////////////
//  414 
//  415 
//  416 
//  417 ////////////////////////////////////////////// 10 11 14
//  418 

        RSEG FARCODE:CODE:NOROOT(1)
//  419 unsigned long int set_time_day_zamer(char date,char month,char year)
set_time_day_zamer:
        CFI Block cfiBlock53 Using cfiCommon0
        CFI Function set_time_day_zamer
//  420 { unsigned long int sek_32;
        CALL	?PROLOGUE5_L09
        CFI R4 Frame(CFA_Y, -1)
        CFI R27 Frame(CFA_Y, -2)
        CFI R26 Frame(CFA_Y, -3)
        CFI R25 Frame(CFA_Y, -4)
        CFI R24 Frame(CFA_Y, -5)
        CFI CFA_Y Y+5
        REQUIRE	?Register_R4_is_cg_reg
        MOV	R4, R16
        MOV	R24, R17
        MOV	R26, R18
//  421   struct
//  422         { // в двоичном коде
//  423           char r_sec;
//  424           char r_min;
//  425           char r_hor;
//  426           char r_day;
//  427           char r_date;
//  428           char r_month;
//  429           char r_year;
//  430           char r_control;
//  431         }  real_time;   
//  432          
//  433         real_time.r_sec=c2_byte.mb[0x12*2];
//  434         real_time.r_min=c2_byte.mb[0x11*2];
//  435         real_time.r_hor=c2_byte.mb[0x10*2];
//  436         real_time.r_date=date;
//  437         real_time.r_month=month;
//  438         real_time.r_year=year; 
//  439 //  real_time.r_year = real_time.r_year & 0x7F; 
//  440 //  if (real_time.r_year > 99) real_time.r_year = 0; 
//  441 //  if ( (real_time.r_date > 31) | (real_time.r_date <1) ) real_time.r_date = 1;    
//  442 //  if (real_time.r_hor > 60) real_time.r_hor = 0;      
//  443 //  if (real_time.r_min > 60) real_time.r_min = 0;  
//  444 //  if (real_time.r_sec > 60) real_time.r_sec = 1;  
//  445 //  
//  446    sek_32 = ( ( (unsigned long int)real_time.r_year * 365 ) + (real_time.r_year>>2) );
        MOV	R20, R18
        RCALL	?Subroutine5
//  447    
//  448      switch ( real_time.r_month )
??CrossCallReturnLabel_208:
        MOV	R16, R4
        RCALL	?Subroutine37
??CrossCallReturnLabel_41:
        BREQ	??set_time_day_zamer_0
        DEC	R30
        BREQ	??set_time_day_zamer_1
        DEC	R30
        BREQ	??set_time_day_zamer_2
        DEC	R30
        BREQ	??set_time_day_zamer_3
        DEC	R30
        BREQ	??set_time_day_zamer_4
        DEC	R30
        BREQ	??set_time_day_zamer_5
        DEC	R30
        BREQ	??set_time_day_zamer_6
        DEC	R30
        BREQ	??set_time_day_zamer_7
        DEC	R30
        BREQ	??set_time_day_zamer_8
        DEC	R30
        BREQ	??set_time_day_zamer_9
        DEC	R30
        BREQ	??set_time_day_zamer_10
//  449          {
//  450           case 1: sek_32 = (sek_32 + real_time.r_date); break;
        ADD	R20, R4
        ADC	R21, R19
        RJMP	??set_time_day_zamer_11
//  451           case 2: sek_32 = (sek_32 + real_time.r_date + 31); break;
??set_time_day_zamer_0:
        SUBI	R16, 225
??set_time_day_zamer_12:
        SBCI	R17, 255
        RJMP	??set_time_day_zamer_13
//  452           case 3: sek_32 = (sek_32 + real_time.r_date + 59); break;
??set_time_day_zamer_1:
        SUBI	R16, 197
        RJMP	??set_time_day_zamer_12
//  453           case 4: sek_32 = (sek_32 + real_time.r_date + 90); break;
??set_time_day_zamer_2:
        SUBI	R16, 166
        RJMP	??set_time_day_zamer_12
//  454           case 5: sek_32 = (sek_32 + real_time.r_date + 120); break;
??set_time_day_zamer_3:
        SUBI	R16, 136
        RJMP	??set_time_day_zamer_12
//  455           case 6: sek_32 = (sek_32 + real_time.r_date + 151); break;
??set_time_day_zamer_4:
        SUBI	R16, 105
        RJMP	??set_time_day_zamer_12
//  456           case 7: sek_32 = (sek_32 + real_time.r_date + 181); break;
??set_time_day_zamer_5:
        SUBI	R16, 75
        RJMP	??set_time_day_zamer_12
//  457           case 8: sek_32 = (sek_32 + real_time.r_date + 212); break;
??set_time_day_zamer_6:
        SUBI	R16, 44
        RJMP	??set_time_day_zamer_12
//  458           case 9: sek_32 = (sek_32 + real_time.r_date + 243); break;
??set_time_day_zamer_7:
        SUBI	R16, 13
        RJMP	??set_time_day_zamer_12
//  459           case 10: sek_32 = (sek_32 + real_time.r_date + 273); break;
??set_time_day_zamer_8:
        SUBI	R16, 239
        RJMP	??set_time_day_zamer_14
//  460           case 11: sek_32 = (sek_32 + real_time.r_date + 304); break;
??set_time_day_zamer_9:
        SUBI	R16, 208
        RJMP	??set_time_day_zamer_14
//  461           case 12: sek_32 = (sek_32 + real_time.r_date + 334); break;
??set_time_day_zamer_10:
        SUBI	R16, 178
??set_time_day_zamer_14:
        SBCI	R17, 254
??set_time_day_zamer_13:
        ADD	R20, R16
        ADC	R21, R17
??set_time_day_zamer_11:
        ADC	R22, R19
        ADC	R23, R19
//  462           default:
//  463           sek_32 = (sek_32 + real_time.r_date);
//  464          }
//  465     if ( (real_time.r_year & 0x03) == 0 )
        ANDI	R26, 0x03
        BRNE	??CrossCallReturnLabel_110
//  466          {
//  467           if (real_time.r_month < 3) sek_32--;
        CPI	R24, 3
        BRCC	??CrossCallReturnLabel_110
        RCALL	?Subroutine71
//  468          }
//  469   sek_32 = ((sek_32 * 86400)+((unsigned long int)real_time.r_hor * 3600)+((unsigned long int)real_time.r_min * 60)+real_time.r_sec );
//  470   sek_32=sek_32+2;   // чтобы избежать 00 часов
//  471  // cek_Unix_2000 = 946684800   
//  472    return sek_32;
??CrossCallReturnLabel_110:
        RCALL	?Subroutine78
??CrossCallReturnLabel_233:
        RCALL	?Subroutine69
??CrossCallReturnLabel_99:
        LDD	R20, Z+32
        RCALL	?Subroutine6
??CrossCallReturnLabel_231:
        LDD	R20, Z+34
        RCALL	?Subroutine7
??CrossCallReturnLabel_4:
        LDD	R20, Z+36
        RCALL	?Subroutine105
??CrossCallReturnLabel_206:
        SUBI	R20, 254
        SBCI	R21, 255
        SBCI	R22, 255
        SBCI	R23, 255
        MOVW	R17:R16, R21:R20
        MOVW	R19:R18, R23:R22
        CFI EndBlock cfiBlock53
        REQUIRE ?Subroutine121
        ;		// Fall through to label ?Subroutine121
//  473 } 

        RSEG FARCODE:CODE:NOROOT(1)
?Subroutine121:
        CFI Block cfiBlock54 Using cfiCommon0
        CFI NoFunction
        CFI CFA_Y Y+5
        CFI R4 Frame(CFA_Y, -1)
        CFI R24 Frame(CFA_Y, -5)
        CFI R25 Frame(CFA_Y, -4)
        CFI R26 Frame(CFA_Y, -3)
        CFI R27 Frame(CFA_Y, -2)
        LDI	R30, 5
        JMP	?EPILOGUE_B5_L09
        CFI EndBlock cfiBlock54

        RSEG FARCODE:CODE:NOROOT(1)
?Subroutine105:
        CFI Block cfiCond55 Using cfiCommon0
        CFI NoFunction
        CFI Conditional ??CrossCallReturnLabel_205
        CFI R24 Frame(CFA_Y, -6)
        CFI R25 Frame(CFA_Y, -5)
        CFI R26 Frame(CFA_Y, -4)
        CFI R27 Frame(CFA_Y, -3)
        CFI R4 Frame(CFA_Y, -2)
        CFI R5 Frame(CFA_Y, -1)
        CFI CFA_SP SP+6
        CFI CFA_Y Y+28
        CFI Block cfiCond56 Using cfiCommon0
        CFI (cfiCond56) NoFunction
        CFI (cfiCond56) Conditional ??CrossCallReturnLabel_206
        CFI (cfiCond56) R24 Frame(CFA_Y, -5)
        CFI (cfiCond56) R25 Frame(CFA_Y, -4)
        CFI (cfiCond56) R26 Frame(CFA_Y, -3)
        CFI (cfiCond56) R27 Frame(CFA_Y, -2)
        CFI (cfiCond56) R4 Frame(CFA_Y, -1)
        CFI (cfiCond56) CFA_SP SP+6
        CFI (cfiCond56) CFA_Y Y+5
        CFI Block cfiCond57 Using cfiCommon0
        CFI (cfiCond57) NoFunction
        CFI (cfiCond57) Conditional ??CrossCallReturnLabel_207
        CFI (cfiCond57) R24 Frame(CFA_Y, -16)
        CFI (cfiCond57) R25 Frame(CFA_Y, -15)
        CFI (cfiCond57) R26 Frame(CFA_Y, -14)
        CFI (cfiCond57) R27 Frame(CFA_Y, -13)
        CFI (cfiCond57) R4 Frame(CFA_Y, -12)
        CFI (cfiCond57) R5 Frame(CFA_Y, -11)
        CFI (cfiCond57) R6 Frame(CFA_Y, -10)
        CFI (cfiCond57) R7 Frame(CFA_Y, -9)
        CFI (cfiCond57) R8 Frame(CFA_Y, -8)
        CFI (cfiCond57) R9 Frame(CFA_Y, -7)
        CFI (cfiCond57) R10 Frame(CFA_Y, -6)
        CFI (cfiCond57) R11 Frame(CFA_Y, -5)
        CFI (cfiCond57) R12 Frame(CFA_Y, -4)
        CFI (cfiCond57) R13 Frame(CFA_Y, -3)
        CFI (cfiCond57) R14 Frame(CFA_Y, -2)
        CFI (cfiCond57) R15 Frame(CFA_Y, -1)
        CFI (cfiCond57) CFA_SP SP+6
        CFI (cfiCond57) CFA_Y Y+34
        CFI Block cfiCond58 Using cfiCommon0
        CFI (cfiCond58) NoFunction
        CFI (cfiCond58) Conditional ??CrossCallReturnLabel_208
        CFI (cfiCond58) R24 Frame(CFA_Y, -5)
        CFI (cfiCond58) R25 Frame(CFA_Y, -4)
        CFI (cfiCond58) R26 Frame(CFA_Y, -3)
        CFI (cfiCond58) R27 Frame(CFA_Y, -2)
        CFI (cfiCond58) R4 Frame(CFA_Y, -1)
        CFI (cfiCond58) CFA_SP SP+6
        CFI (cfiCond58) CFA_Y Y+5
        CFI Block cfiCond59 Using cfiCommon0
        CFI (cfiCond59) NoFunction
        CFI (cfiCond59) Conditional ??CrossCallReturnLabel_209
        CFI (cfiCond59) R24 Frame(CFA_Y, -9)
        CFI (cfiCond59) R25 Frame(CFA_Y, -8)
        CFI (cfiCond59) R26 Frame(CFA_Y, -7)
        CFI (cfiCond59) R27 Frame(CFA_Y, -6)
        CFI (cfiCond59) R4 Frame(CFA_Y, -5)
        CFI (cfiCond59) R5 Frame(CFA_Y, -4)
        CFI (cfiCond59) R6 Frame(CFA_Y, -3)
        CFI (cfiCond59) R7 Frame(CFA_Y, -2)
        CFI (cfiCond59) R8 Frame(CFA_Y, -1)
        CFI (cfiCond59) CFA_SP SP+6
        CFI (cfiCond59) CFA_Y Y+9
        CFI Block cfiPicker60 Using cfiCommon1
        CFI (cfiPicker60) NoFunction
        CFI (cfiPicker60) Picker
        ADD	R20, R16
        ADC	R21, R17
        ADC	R22, R18
        ADC	R23, R19
        RET
        CFI EndBlock cfiCond55
        CFI EndBlock cfiCond56
        CFI EndBlock cfiCond57
        CFI EndBlock cfiCond58
        CFI EndBlock cfiCond59
        CFI EndBlock cfiPicker60

        RSEG FARCODE:CODE:NOROOT(1)
?Subroutine71:
        CFI Block cfiCond61 Using cfiCommon0
        CFI NoFunction
        CFI Conditional ??CrossCallReturnLabel_110
        CFI R24 Frame(CFA_Y, -5)
        CFI R25 Frame(CFA_Y, -4)
        CFI R26 Frame(CFA_Y, -3)
        CFI R27 Frame(CFA_Y, -2)
        CFI R4 Frame(CFA_Y, -1)
        CFI CFA_SP SP+6
        CFI CFA_Y Y+5
        CFI Block cfiCond62 Using cfiCommon0
        CFI (cfiCond62) NoFunction
        CFI (cfiCond62) Conditional ??CrossCallReturnLabel_111
        CFI (cfiCond62) R24 Frame(CFA_Y, -9)
        CFI (cfiCond62) R25 Frame(CFA_Y, -8)
        CFI (cfiCond62) R26 Frame(CFA_Y, -7)
        CFI (cfiCond62) R27 Frame(CFA_Y, -6)
        CFI (cfiCond62) R4 Frame(CFA_Y, -5)
        CFI (cfiCond62) R5 Frame(CFA_Y, -4)
        CFI (cfiCond62) R6 Frame(CFA_Y, -3)
        CFI (cfiCond62) R7 Frame(CFA_Y, -2)
        CFI (cfiCond62) R8 Frame(CFA_Y, -1)
        CFI (cfiCond62) CFA_SP SP+6
        CFI (cfiCond62) CFA_Y Y+9
        CFI Block cfiPicker63 Using cfiCommon1
        CFI (cfiPicker63) NoFunction
        CFI (cfiPicker63) Picker
        SUBI	R20, 1
        CFI Block cfiCond64 Using cfiCommon0
        CFI (cfiCond64) NoFunction
        CFI (cfiCond64) Conditional ??CrossCallReturnLabel_109
        CFI (cfiCond64) R24 Frame(CFA_Y, -6)
        CFI (cfiCond64) R25 Frame(CFA_Y, -5)
        CFI (cfiCond64) R26 Frame(CFA_Y, -4)
        CFI (cfiCond64) R27 Frame(CFA_Y, -3)
        CFI (cfiCond64) R4 Frame(CFA_Y, -2)
        CFI (cfiCond64) R5 Frame(CFA_Y, -1)
        CFI (cfiCond64) CFA_SP SP+6
        CFI (cfiCond64) CFA_Y Y+28
??Subroutine71_0:
        SBCI	R21, 0
        SBCI	R22, 0
        SBCI	R23, 0
        RET
        CFI EndBlock cfiCond61
        CFI EndBlock cfiCond62
        CFI EndBlock cfiPicker63
        CFI EndBlock cfiCond64

        RSEG FARCODE:CODE:NOROOT(1)
?Subroutine69:
        CFI Block cfiCond65 Using cfiCommon0
        CFI NoFunction
        CFI Conditional ??CrossCallReturnLabel_98
        CFI R24 Frame(CFA_Y, -6)
        CFI R25 Frame(CFA_Y, -5)
        CFI R26 Frame(CFA_Y, -4)
        CFI R27 Frame(CFA_Y, -3)
        CFI R4 Frame(CFA_Y, -2)
        CFI R5 Frame(CFA_Y, -1)
        CFI CFA_SP SP+6
        CFI CFA_Y Y+28
        CFI Block cfiCond66 Using cfiCommon0
        CFI (cfiCond66) NoFunction
        CFI (cfiCond66) Conditional ??CrossCallReturnLabel_99
        CFI (cfiCond66) R24 Frame(CFA_Y, -5)
        CFI (cfiCond66) R25 Frame(CFA_Y, -4)
        CFI (cfiCond66) R26 Frame(CFA_Y, -3)
        CFI (cfiCond66) R27 Frame(CFA_Y, -2)
        CFI (cfiCond66) R4 Frame(CFA_Y, -1)
        CFI (cfiCond66) CFA_SP SP+6
        CFI (cfiCond66) CFA_Y Y+5
        CFI Block cfiCond67 Using cfiCommon0
        CFI (cfiCond67) NoFunction
        CFI (cfiCond67) Conditional ??CrossCallReturnLabel_100
        CFI (cfiCond67) R24 Frame(CFA_Y, -13)
        CFI (cfiCond67) R25 Frame(CFA_Y, -12)
        CFI (cfiCond67) R26 Frame(CFA_Y, -11)
        CFI (cfiCond67) R27 Frame(CFA_Y, -10)
        CFI (cfiCond67) R4 Frame(CFA_Y, -9)
        CFI (cfiCond67) R5 Frame(CFA_Y, -8)
        CFI (cfiCond67) R6 Frame(CFA_Y, -7)
        CFI (cfiCond67) R7 Frame(CFA_Y, -6)
        CFI (cfiCond67) R8 Frame(CFA_Y, -5)
        CFI (cfiCond67) R9 Frame(CFA_Y, -4)
        CFI (cfiCond67) R10 Frame(CFA_Y, -3)
        CFI (cfiCond67) R11 Frame(CFA_Y, -2)
        CFI (cfiCond67) R12 Frame(CFA_Y, -1)
        CFI (cfiCond67) CFA_SP SP+6
        CFI (cfiCond67) CFA_Y Y+13
        CFI Block cfiCond68 Using cfiCommon0
        CFI (cfiCond68) NoFunction
        CFI (cfiCond68) Conditional ??CrossCallReturnLabel_101
        CFI (cfiCond68) R24 Frame(CFA_Y, -13)
        CFI (cfiCond68) R25 Frame(CFA_Y, -12)
        CFI (cfiCond68) R26 Frame(CFA_Y, -11)
        CFI (cfiCond68) R27 Frame(CFA_Y, -10)
        CFI (cfiCond68) R4 Frame(CFA_Y, -9)
        CFI (cfiCond68) R5 Frame(CFA_Y, -8)
        CFI (cfiCond68) R6 Frame(CFA_Y, -7)
        CFI (cfiCond68) R7 Frame(CFA_Y, -6)
        CFI (cfiCond68) R8 Frame(CFA_Y, -5)
        CFI (cfiCond68) R9 Frame(CFA_Y, -4)
        CFI (cfiCond68) R10 Frame(CFA_Y, -3)
        CFI (cfiCond68) R11 Frame(CFA_Y, -2)
        CFI (cfiCond68) R12 Frame(CFA_Y, -1)
        CFI (cfiCond68) CFA_SP SP+6
        CFI (cfiCond68) CFA_Y Y+13
        CFI Block cfiPicker69 Using cfiCommon1
        CFI (cfiPicker69) NoFunction
        CFI (cfiPicker69) Picker
        LDI	R30, LOW(c2_byte)
        LDI	R31, (c2_byte) >> 8
        RET
        CFI EndBlock cfiCond65
        CFI EndBlock cfiCond66
        CFI EndBlock cfiCond67
        CFI EndBlock cfiCond68
        CFI EndBlock cfiPicker69
//  474 
//  475 
//  476 
//  477   
//  478 
//  479 

        RSEG FARCODE:CODE:NOROOT(1)
//  480    void  end_zamer(char m)
end_zamer:
        CFI Block cfiBlock70 Using cfiCommon0
        CFI Function end_zamer
//  481 {
        FUNCALL end_zamer, set_end_time
        LOCFRAME CSTACK, 13, STACK
        LOCFRAME RSTACK, 3, STACK
        FUNCALL end_zamer, set_end_time
        LOCFRAME CSTACK, 13, STACK
        LOCFRAME RSTACK, 3, STACK
        FUNCALL end_zamer, set_end_time
        LOCFRAME CSTACK, 13, STACK
        LOCFRAME RSTACK, 3, STACK
        FUNCALL end_zamer, set_end_time
        LOCFRAME CSTACK, 13, STACK
        LOCFRAME RSTACK, 3, STACK
        FUNCALL end_zamer, set_end_time
        LOCFRAME CSTACK, 13, STACK
        LOCFRAME RSTACK, 3, STACK
        FUNCALL end_zamer, set_end_time
        LOCFRAME CSTACK, 13, STACK
        LOCFRAME RSTACK, 3, STACK
        FUNCALL end_zamer, set_end_time
        LOCFRAME CSTACK, 13, STACK
        LOCFRAME RSTACK, 3, STACK
        FUNCALL end_zamer, set_end_time
        LOCFRAME CSTACK, 13, STACK
        LOCFRAME RSTACK, 3, STACK
        CALL	?PROLOGUE13_L09
        CFI R12 Frame(CFA_Y, -1)
        CFI R11 Frame(CFA_Y, -2)
        CFI R10 Frame(CFA_Y, -3)
        CFI R9 Frame(CFA_Y, -4)
        CFI R8 Frame(CFA_Y, -5)
        CFI R7 Frame(CFA_Y, -6)
        CFI R6 Frame(CFA_Y, -7)
        CFI R5 Frame(CFA_Y, -8)
        CFI R4 Frame(CFA_Y, -9)
        CFI R27 Frame(CFA_Y, -10)
        CFI R26 Frame(CFA_Y, -11)
        CFI R25 Frame(CFA_Y, -12)
        CFI R24 Frame(CFA_Y, -13)
        CFI CFA_Y Y+13
        REQUIRE	?Register_R4_is_cg_reg
        REQUIRE	?Register_R5_is_cg_reg
        REQUIRE	?Register_R6_is_cg_reg
        REQUIRE	?Register_R7_is_cg_reg
        REQUIRE	?Register_R8_is_cg_reg
        REQUIRE	?Register_R9_is_cg_reg
        REQUIRE	?Register_R10_is_cg_reg
        REQUIRE	?Register_R11_is_cg_reg
        REQUIRE	?Register_R12_is_cg_reg
        MOV	R12, R16
//  482 unsigned long int u_i;
//  483 unsigned int zamer;                                     
//  484                               ////////////////////
//  485                              
//  486                                             
//  487                                             zamer=c2_byte.mb[0+(2*m)]+(c2_byte.mb[1+(2*m)] & 7)*256;
        MOV	R22, R16
        LDI	R23, 0
        LDI	R16, LOW(c2_byte)
        MOV	R6, R16
        LDI	R16, (c2_byte) >> 8
        MOV	R7, R16
        RCALL	?Subroutine54
??CrossCallReturnLabel_74:
        MOVW	R5:R4, R7:R6
        ADD	R4, R16
        ADC	R5, R17
        MOVW	R31:R30, R5:R4
        LD	R16, Z
        LDD	R20, Z+1
        ANDI	R20, 0x07
        MOV	R21, R20
        MOV	R20, R16
//  488                                             if ( zamer> 1440) {timer_tii[m]=0;cnt_moto[m]=0;return;}
        RCALL	?Subroutine54
??CrossCallReturnLabel_75:
        RCALL	??Subroutine54_0
??CrossCallReturnLabel_76:
        LDI	R24, LOW(timer_tii)
        LDI	R25, (timer_tii) >> 8
        ADD	R24, R16
        ADC	R25, R17
        LDI	R30, LOW(cnt_moto)
        LDI	R31, (cnt_moto) >> 8
        RCALL	??Subroutine16_0
??CrossCallReturnLabel_21:
        CPI	R20, 161
        LDI	R16, 5
        CPC	R21, R16
        BRCS	??end_zamer_0
        MOVW	R27:R26, R25:R24
        ST	X+, R23
        ST	X+, R23
        ST	X+, R23
        ST	X, R23
        RCALL	?Subroutine81
??CrossCallReturnLabel_130:
        LDI	R30, 13
        JMP	?EPILOGUE_B13_L09
//  489                                             cnt_moto[m]=0;
??end_zamer_0:
        RCALL	?Subroutine81
//  490                                             old_realsec[m]=real_time.r_sec;
??CrossCallReturnLabel_131:
        LDI	R26, LOW(real_time)
        LDI	R27, (real_time) >> 8
        LD	R16, X
        MOVW	R31:R30, R23:R22
        SUBI	R30, LOW((-(old_realsec) & 0xFFFF))
        SBCI	R31, (-(old_realsec) & 0xFFFF) >> 8
        ST	Z, R16
//  491                                          switch(zamer)
        MOVW	R17:R16, R21:R20
        LDI	R30, LOW(`?<Jumptable for end_zamer>_0`)
        LDI	R31, (`?<Jumptable for end_zamer>_0`) >> 16
        OUT	0x3B, R31
        LDI	R31, HIGH(`?<Jumptable for end_zamer>_0`)
        JMP	?SV_SWITCH_L06
//  492                                               {              
//  493                                                  
//  494                                                  case 10: 
//  495                                                  {  
//  496                                                
//  497                   timer_tii[m]=set_end_time((real_time.r_min/10)*10,
//  498                                              real_time.r_hor,
//  499                                              real_time.r_date,
//  500                                              real_time.r_month,
//  501                                              real_time.r_year)+600; 
??end_zamer_1:
        RCALL	?Subroutine55
??CrossCallReturnLabel_78:
        RCALL	?Subroutine80
??CrossCallReturnLabel_123:
        LDI	R17, 10
        RCALL	?Subroutine64
??CrossCallReturnLabel_278:
        SUBI	R16, 168
        SBCI	R17, 253
        RJMP	??end_zamer_2
//  502                                              
//  503                                              lock_bit= lock_bit & ~(1<<m);
//  504                                                 
//  505                                                  break;
//  506                                                  } 
//  507                                                 
//  508                                                  
//  509                                                   case 20: 
//  510                                                  { 
//  511                   timer_tii[m]=set_end_time((real_time.r_min/20)*20,
//  512                                              real_time.r_hor,
//  513                                              real_time.r_date,
//  514                                              real_time.r_month,
//  515                                              real_time.r_year)+1200; 
??end_zamer_3:
        RCALL	?Subroutine55
??CrossCallReturnLabel_79:
        LDI	R20, 20
        RCALL	??Subroutine80_0
??CrossCallReturnLabel_124:
        LDI	R17, 20
        RCALL	?Subroutine64
??CrossCallReturnLabel_277:
        SUBI	R16, 80
        SBCI	R17, 251
        RJMP	??end_zamer_2
//  516                                              
//  517                                                lock_bit= lock_bit & ~(1<<m);
//  518                                               
//  519                                                  break;
//  520                                                  }  
//  521                                                   case 30: 
//  522                                                  {
//  523                     timer_tii[m]=set_end_time((real_time.r_min/30)*30,
//  524                                              real_time.r_hor,
//  525                                              real_time.r_date,
//  526                                              real_time.r_month,
//  527                                              real_time.r_year)+1800;                                
??end_zamer_4:
        RCALL	?Subroutine55
??CrossCallReturnLabel_80:
        LDI	R20, 30
        RCALL	??Subroutine80_0
??CrossCallReturnLabel_125:
        LDI	R17, 30
        RCALL	?Subroutine64
??CrossCallReturnLabel_276:
        SUBI	R16, 248
        SBCI	R17, 248
        RJMP	??end_zamer_2
//  528                                                    
//  529                                                lock_bit= lock_bit & ~(1<<m);
//  530                                                 
//  531                                                  break;
//  532                                                  }
//  533                                                  
//  534                                                  case 60: 
//  535                                                  {
//  536                   timer_tii[m]=set_end_time(0,
//  537                                              real_time.r_hor,
//  538                                              real_time.r_date,
//  539                                              real_time.r_month,
//  540                                              real_time.r_year)+3600;                                  
??end_zamer_5:
        RCALL	?Subroutine56
??CrossCallReturnLabel_81:
        RCALL	?Subroutine9
??CrossCallReturnLabel_8:
        RJMP	??end_zamer_2
//  541                                                    
//  542                                                lock_bit= lock_bit & ~(1<<m);
//  543                                                 
//  544                                                  break;
//  545                                                  }
//  546                                                
//  547                                                  case 120: 
//  548                                                  { 
//  549                  timer_tii[m]=set_end_time(0,
//  550                                              (real_time.r_hor/2)*2,
//  551                                              real_time.r_date,
//  552                                              real_time.r_month,
//  553                                              real_time.r_year)+7200;                                   
??end_zamer_6:
        RCALL	?Subroutine56
??CrossCallReturnLabel_82:
        ANDI	R17, 0xFE
        RCALL	?Subroutine10
??CrossCallReturnLabel_10:
        RJMP	??end_zamer_2
//  554                                                
//  555                                                lock_bit= lock_bit & ~(1<<m);
//  556                                                 
//  557                                                  break;
//  558                                                  } 
//  559                                                
//  560                                                  case 240: 
//  561                                                  { 
//  562                  timer_tii[m]=set_end_time(0,
//  563                                              (real_time.r_hor/4)*4,
//  564                                              real_time.r_date,
//  565                                              real_time.r_month,
//  566                                              real_time.r_year)+14400;                                   
??end_zamer_7:
        RCALL	?Subroutine56
??CrossCallReturnLabel_83:
        ANDI	R17, 0xFC
        RCALL	?Subroutine11
??CrossCallReturnLabel_12:
        RJMP	??end_zamer_2
//  567                                               
//  568                                                lock_bit= lock_bit & ~(1<<m);
//  569                                                
//  570                                                  break;
//  571                                                  }
//  572                                                  
//  573                                                  case 360: 
//  574                                                  {
//  575            timer_tii[m]=set_end_time(0,
//  576                                              (real_time.r_hor/6)*6,
//  577                                              real_time.r_date,
//  578                                              real_time.r_month,
//  579                                              real_time.r_year)+21600;                                   
??end_zamer_8:
        MOVW	R31:R30, R27:R26
        LDD	R6, Z+6
        LDD	R19, Z+5
        LDD	R18, Z+4
        LDD	R16, Z+2
        RCALL	?Subroutine79
??CrossCallReturnLabel_121:
        MOV	R20, R6
        RCALL	?Subroutine12
??CrossCallReturnLabel_14:
        RJMP	??end_zamer_2
//  580                                               
//  581                                                lock_bit= lock_bit & ~(1<<m);
//  582                                               
//  583                                                  break;
//  584                                                  }    
//  585                                                  case 0: {timer_tii[m]=0;break;}
??end_zamer_9:
        LDI	R16, 0
        MOVW	R31:R30, R25:R24
        ST	Z, R16
        STD	Z+1, R16
        STD	Z+2, R16
        STD	Z+3, R16
        RJMP	??CrossCallReturnLabel_130
//  586                                                  
//  587                                                  
//  588                                    case 1440:
//  589                                                       {  
//  590                                      u_i=set_end_time(c2_byte.mb[34],
//  591                                              c2_byte.mb[32],
//  592                                              real_time.r_date,
//  593                                              real_time.r_month,
//  594                                              real_time.r_year)+(unsigned long int)c2_byte.mb[36];                                   
??end_zamer_10:
        MOVW	R31:R30, R27:R26
        LDD	R20, Z+6
        LDD	R19, Z+5
        LDD	R18, Z+4
        RCALL	?Subroutine69
??CrossCallReturnLabel_100:
        RCALL	?Subroutine82
??CrossCallReturnLabel_132:
        RCALL	?Subroutine69
??CrossCallReturnLabel_101:
        RCALL	?Subroutine1
//  595                                       if (u_i <= unix ) timer_tii[m]=u_i+86400;  // если время окончания замера меньше текущего
??CrossCallReturnLabel_0:
        BRCS	??end_zamer_11
        RCALL	?Subroutine60
??CrossCallReturnLabel_87:
        RJMP	??end_zamer_12
//  596                                       else  timer_tii[m]=u_i+5;       
??end_zamer_11:
        SUBI	R16, 251
        SBCI	R17, 255
??end_zamer_2:
        SBCI	R18, 255
??end_zamer_12:
        SBCI	R19, 255
??end_zamer_13:
        MOVW	R31:R30, R25:R24
        ST	Z, R16
        STD	Z+1, R17
        STD	Z+2, R18
        STD	Z+3, R19
//  597                                                lock_bit= lock_bit & ~(1<<m); 
        RCALL	?Subroutine59
??CrossCallReturnLabel_237:
        MOV	R20, R12
        RCALL	?Subroutine83
??CrossCallReturnLabel_134:
        RCALL	??Subroutine84_0
??CrossCallReturnLabel_140:
        LDD	R18, Z+26
        LDD	R19, Z+27
        AND	R18, R16
        AND	R19, R17
        STD	Z+26, R18
        STD	Z+27, R19
//  598                                                                           
//  599                                      
//  600                                                       break;
        RJMP	??CrossCallReturnLabel_130
//  601                                                       }               
//  602                                                  
//  603                                                  
//  604                                                  
//  605                                                  
//  606                                                  
//  607                                                     
//  608                                                 default:
//  609                                                              {
//  610                                                
//  611                                                timer_tii[m]=unix+( (long int)c2_byte.mb[0+2*m]+(long int)(c2_byte.mb[1+2*m] & 7)*256)*60; 
??end_zamer_14:
        LDI	R30, LOW(unix)
        LDI	R31, (unix) >> 8
        LD	R8, Z
        LDD	R9, Z+1
        LDD	R10, Z+2
        LDD	R11, Z+3
        MOVW	R31:R30, R5:R4
        RCALL	?Subroutine4
??CrossCallReturnLabel_279:
        ADD	R16, R8
        ADC	R17, R9
        ADC	R18, R10
        ADC	R19, R11
        RJMP	??end_zamer_13
        CFI EndBlock cfiBlock70
//  612                                                lock_bit= lock_bit & ~(1<<m);
//  613                                                
//  614                                                               break;
//  615                                                               }
//  616                                               }     // sw
//  617                                               
//  618                                           
//  619                              /////////////////////
//  620                                 
//  621     }                     

        RSEG FARCODE:CODE:NOROOT(1)
?Subroutine81:
        CFI Block cfiCond71 Using cfiCommon0
        CFI NoFunction
        CFI Conditional ??CrossCallReturnLabel_130
        CFI R24 Frame(CFA_Y, -13)
        CFI R25 Frame(CFA_Y, -12)
        CFI R26 Frame(CFA_Y, -11)
        CFI R27 Frame(CFA_Y, -10)
        CFI R4 Frame(CFA_Y, -9)
        CFI R5 Frame(CFA_Y, -8)
        CFI R6 Frame(CFA_Y, -7)
        CFI R7 Frame(CFA_Y, -6)
        CFI R8 Frame(CFA_Y, -5)
        CFI R9 Frame(CFA_Y, -4)
        CFI R10 Frame(CFA_Y, -3)
        CFI R11 Frame(CFA_Y, -2)
        CFI R12 Frame(CFA_Y, -1)
        CFI CFA_SP SP+6
        CFI CFA_Y Y+13
        CFI Block cfiCond72 Using cfiCommon0
        CFI (cfiCond72) NoFunction
        CFI (cfiCond72) Conditional ??CrossCallReturnLabel_131
        CFI (cfiCond72) R24 Frame(CFA_Y, -13)
        CFI (cfiCond72) R25 Frame(CFA_Y, -12)
        CFI (cfiCond72) R26 Frame(CFA_Y, -11)
        CFI (cfiCond72) R27 Frame(CFA_Y, -10)
        CFI (cfiCond72) R4 Frame(CFA_Y, -9)
        CFI (cfiCond72) R5 Frame(CFA_Y, -8)
        CFI (cfiCond72) R6 Frame(CFA_Y, -7)
        CFI (cfiCond72) R7 Frame(CFA_Y, -6)
        CFI (cfiCond72) R8 Frame(CFA_Y, -5)
        CFI (cfiCond72) R9 Frame(CFA_Y, -4)
        CFI (cfiCond72) R10 Frame(CFA_Y, -3)
        CFI (cfiCond72) R11 Frame(CFA_Y, -2)
        CFI (cfiCond72) R12 Frame(CFA_Y, -1)
        CFI (cfiCond72) CFA_SP SP+6
        CFI (cfiCond72) CFA_Y Y+13
        CFI Block cfiPicker73 Using cfiCommon1
        CFI (cfiPicker73) NoFunction
        CFI (cfiPicker73) Picker
        ST	Z, R23
        STD	Z+1, R23
        STD	Z+2, R23
        STD	Z+3, R23
        RET
        CFI EndBlock cfiCond71
        CFI EndBlock cfiCond72
        CFI EndBlock cfiPicker73

        RSEG FARCODE:CODE:NOROOT(1)
?Subroutine64:
        CFI Block cfiCond74 Using cfiCommon0
        CFI NoFunction
        CFI Conditional ??CrossCallReturnLabel_278
        CFI R24 Frame(CFA_Y, -13)
        CFI R25 Frame(CFA_Y, -12)
        CFI R26 Frame(CFA_Y, -11)
        CFI R27 Frame(CFA_Y, -10)
        CFI R4 Frame(CFA_Y, -9)
        CFI R5 Frame(CFA_Y, -8)
        CFI R6 Frame(CFA_Y, -7)
        CFI R7 Frame(CFA_Y, -6)
        CFI R8 Frame(CFA_Y, -5)
        CFI R9 Frame(CFA_Y, -4)
        CFI R10 Frame(CFA_Y, -3)
        CFI R11 Frame(CFA_Y, -2)
        CFI R12 Frame(CFA_Y, -1)
        CFI CFA_SP SP+6
        CFI CFA_Y Y+13
        CFI Block cfiCond75 Using cfiCommon0
        CFI (cfiCond75) NoFunction
        CFI (cfiCond75) Conditional ??CrossCallReturnLabel_277
        CFI (cfiCond75) R24 Frame(CFA_Y, -13)
        CFI (cfiCond75) R25 Frame(CFA_Y, -12)
        CFI (cfiCond75) R26 Frame(CFA_Y, -11)
        CFI (cfiCond75) R27 Frame(CFA_Y, -10)
        CFI (cfiCond75) R4 Frame(CFA_Y, -9)
        CFI (cfiCond75) R5 Frame(CFA_Y, -8)
        CFI (cfiCond75) R6 Frame(CFA_Y, -7)
        CFI (cfiCond75) R7 Frame(CFA_Y, -6)
        CFI (cfiCond75) R8 Frame(CFA_Y, -5)
        CFI (cfiCond75) R9 Frame(CFA_Y, -4)
        CFI (cfiCond75) R10 Frame(CFA_Y, -3)
        CFI (cfiCond75) R11 Frame(CFA_Y, -2)
        CFI (cfiCond75) R12 Frame(CFA_Y, -1)
        CFI (cfiCond75) CFA_SP SP+6
        CFI (cfiCond75) CFA_Y Y+13
        CFI Block cfiCond76 Using cfiCommon0
        CFI (cfiCond76) NoFunction
        CFI (cfiCond76) Conditional ??CrossCallReturnLabel_276
        CFI (cfiCond76) R24 Frame(CFA_Y, -13)
        CFI (cfiCond76) R25 Frame(CFA_Y, -12)
        CFI (cfiCond76) R26 Frame(CFA_Y, -11)
        CFI (cfiCond76) R27 Frame(CFA_Y, -10)
        CFI (cfiCond76) R4 Frame(CFA_Y, -9)
        CFI (cfiCond76) R5 Frame(CFA_Y, -8)
        CFI (cfiCond76) R6 Frame(CFA_Y, -7)
        CFI (cfiCond76) R7 Frame(CFA_Y, -6)
        CFI (cfiCond76) R8 Frame(CFA_Y, -5)
        CFI (cfiCond76) R9 Frame(CFA_Y, -4)
        CFI (cfiCond76) R10 Frame(CFA_Y, -3)
        CFI (cfiCond76) R11 Frame(CFA_Y, -2)
        CFI (cfiCond76) R12 Frame(CFA_Y, -1)
        CFI (cfiCond76) CFA_SP SP+6
        CFI (cfiCond76) CFA_Y Y+13
        CFI Block cfiPicker77 Using cfiCommon1
        CFI (cfiPicker77) NoFunction
        CFI (cfiPicker77) Picker
        MUL	R16, R17
        MOV	R16, R0
        MOV	R20, R7
        CFI EndBlock cfiCond74
        CFI EndBlock cfiCond75
        CFI EndBlock cfiCond76
        CFI EndBlock cfiPicker77
        REQUIRE ?Subroutine122
        ;		// Fall through to label ?Subroutine122

        RSEG FARCODE:CODE:NOROOT(1)
?Subroutine122:
        CFI Block cfiCond78 Using cfiCommon0
        CFI NoFunction
        CFI Conditional ??CrossCallReturnLabel_278
        CFI R24 Frame(CFA_Y, -13)
        CFI R25 Frame(CFA_Y, -12)
        CFI R26 Frame(CFA_Y, -11)
        CFI R27 Frame(CFA_Y, -10)
        CFI R4 Frame(CFA_Y, -9)
        CFI R5 Frame(CFA_Y, -8)
        CFI R6 Frame(CFA_Y, -7)
        CFI R7 Frame(CFA_Y, -6)
        CFI R8 Frame(CFA_Y, -5)
        CFI R9 Frame(CFA_Y, -4)
        CFI R10 Frame(CFA_Y, -3)
        CFI R11 Frame(CFA_Y, -2)
        CFI R12 Frame(CFA_Y, -1)
        CFI CFA_SP SP+6
        CFI CFA_Y Y+13
        CFI Block cfiCond79 Using cfiCommon0
        CFI (cfiCond79) NoFunction
        CFI (cfiCond79) Conditional ??CrossCallReturnLabel_277
        CFI (cfiCond79) R24 Frame(CFA_Y, -13)
        CFI (cfiCond79) R25 Frame(CFA_Y, -12)
        CFI (cfiCond79) R26 Frame(CFA_Y, -11)
        CFI (cfiCond79) R27 Frame(CFA_Y, -10)
        CFI (cfiCond79) R4 Frame(CFA_Y, -9)
        CFI (cfiCond79) R5 Frame(CFA_Y, -8)
        CFI (cfiCond79) R6 Frame(CFA_Y, -7)
        CFI (cfiCond79) R7 Frame(CFA_Y, -6)
        CFI (cfiCond79) R8 Frame(CFA_Y, -5)
        CFI (cfiCond79) R9 Frame(CFA_Y, -4)
        CFI (cfiCond79) R10 Frame(CFA_Y, -3)
        CFI (cfiCond79) R11 Frame(CFA_Y, -2)
        CFI (cfiCond79) R12 Frame(CFA_Y, -1)
        CFI (cfiCond79) CFA_SP SP+6
        CFI (cfiCond79) CFA_Y Y+13
        CFI Block cfiCond80 Using cfiCommon0
        CFI (cfiCond80) NoFunction
        CFI (cfiCond80) Conditional ??CrossCallReturnLabel_276
        CFI (cfiCond80) R24 Frame(CFA_Y, -13)
        CFI (cfiCond80) R25 Frame(CFA_Y, -12)
        CFI (cfiCond80) R26 Frame(CFA_Y, -11)
        CFI (cfiCond80) R27 Frame(CFA_Y, -10)
        CFI (cfiCond80) R4 Frame(CFA_Y, -9)
        CFI (cfiCond80) R5 Frame(CFA_Y, -8)
        CFI (cfiCond80) R6 Frame(CFA_Y, -7)
        CFI (cfiCond80) R7 Frame(CFA_Y, -6)
        CFI (cfiCond80) R8 Frame(CFA_Y, -5)
        CFI (cfiCond80) R9 Frame(CFA_Y, -4)
        CFI (cfiCond80) R10 Frame(CFA_Y, -3)
        CFI (cfiCond80) R11 Frame(CFA_Y, -2)
        CFI (cfiCond80) R12 Frame(CFA_Y, -1)
        CFI (cfiCond80) CFA_SP SP+6
        CFI (cfiCond80) CFA_Y Y+13
        CFI Block cfiCond81 Using cfiCommon0
        CFI (cfiCond81) NoFunction
        CFI (cfiCond81) Conditional ??CrossCallReturnLabel_275
        CFI (cfiCond81) R24 Frame(CFA_Y, -12)
        CFI (cfiCond81) R25 Frame(CFA_Y, -11)
        CFI (cfiCond81) R26 Frame(CFA_Y, -10)
        CFI (cfiCond81) R27 Frame(CFA_Y, -9)
        CFI (cfiCond81) R4 Frame(CFA_Y, -8)
        CFI (cfiCond81) R5 Frame(CFA_Y, -7)
        CFI (cfiCond81) R6 Frame(CFA_Y, -6)
        CFI (cfiCond81) R7 Frame(CFA_Y, -5)
        CFI (cfiCond81) R8 Frame(CFA_Y, -4)
        CFI (cfiCond81) R9 Frame(CFA_Y, -3)
        CFI (cfiCond81) R10 Frame(CFA_Y, -2)
        CFI (cfiCond81) R11 Frame(CFA_Y, -1)
        CFI (cfiCond81) CFA_SP SP+6
        CFI (cfiCond81) CFA_Y Y+12
        CFI Block cfiCond82 Using cfiCommon0
        CFI (cfiCond82) NoFunction
        CFI (cfiCond82) Conditional ??CrossCallReturnLabel_274
        CFI (cfiCond82) R24 Frame(CFA_Y, -12)
        CFI (cfiCond82) R25 Frame(CFA_Y, -11)
        CFI (cfiCond82) R26 Frame(CFA_Y, -10)
        CFI (cfiCond82) R27 Frame(CFA_Y, -9)
        CFI (cfiCond82) R4 Frame(CFA_Y, -8)
        CFI (cfiCond82) R5 Frame(CFA_Y, -7)
        CFI (cfiCond82) R6 Frame(CFA_Y, -6)
        CFI (cfiCond82) R7 Frame(CFA_Y, -5)
        CFI (cfiCond82) R8 Frame(CFA_Y, -4)
        CFI (cfiCond82) R9 Frame(CFA_Y, -3)
        CFI (cfiCond82) R10 Frame(CFA_Y, -2)
        CFI (cfiCond82) R11 Frame(CFA_Y, -1)
        CFI (cfiCond82) CFA_SP SP+6
        CFI (cfiCond82) CFA_Y Y+12
        CFI Block cfiCond83 Using cfiCommon0
        CFI (cfiCond83) NoFunction
        CFI (cfiCond83) Conditional ??CrossCallReturnLabel_273
        CFI (cfiCond83) R24 Frame(CFA_Y, -12)
        CFI (cfiCond83) R25 Frame(CFA_Y, -11)
        CFI (cfiCond83) R26 Frame(CFA_Y, -10)
        CFI (cfiCond83) R27 Frame(CFA_Y, -9)
        CFI (cfiCond83) R4 Frame(CFA_Y, -8)
        CFI (cfiCond83) R5 Frame(CFA_Y, -7)
        CFI (cfiCond83) R6 Frame(CFA_Y, -6)
        CFI (cfiCond83) R7 Frame(CFA_Y, -5)
        CFI (cfiCond83) R8 Frame(CFA_Y, -4)
        CFI (cfiCond83) R9 Frame(CFA_Y, -3)
        CFI (cfiCond83) R10 Frame(CFA_Y, -2)
        CFI (cfiCond83) R11 Frame(CFA_Y, -1)
        CFI (cfiCond83) CFA_SP SP+6
        CFI (cfiCond83) CFA_Y Y+12
        CFI Block cfiCond84 Using cfiCommon0
        CFI (cfiCond84) NoFunction
        CFI (cfiCond84) Conditional ??CrossCallReturnLabel_272
        CFI (cfiCond84) R24 Frame(CFA_Y, -12)
        CFI (cfiCond84) R25 Frame(CFA_Y, -11)
        CFI (cfiCond84) R26 Frame(CFA_Y, -10)
        CFI (cfiCond84) R27 Frame(CFA_Y, -9)
        CFI (cfiCond84) R4 Frame(CFA_Y, -8)
        CFI (cfiCond84) R5 Frame(CFA_Y, -7)
        CFI (cfiCond84) R6 Frame(CFA_Y, -6)
        CFI (cfiCond84) R7 Frame(CFA_Y, -5)
        CFI (cfiCond84) R8 Frame(CFA_Y, -4)
        CFI (cfiCond84) R9 Frame(CFA_Y, -3)
        CFI (cfiCond84) R10 Frame(CFA_Y, -2)
        CFI (cfiCond84) R11 Frame(CFA_Y, -1)
        CFI (cfiCond84) CFA_SP SP+6
        CFI (cfiCond84) CFA_Y Y+12
        CFI Block cfiPicker85 Using cfiCommon1
        CFI (cfiPicker85) NoFunction
        CFI (cfiPicker85) Picker
        MOV	R17, R4
        RJMP	set_end_time
        CFI EndBlock cfiCond78
        CFI EndBlock cfiCond79
        CFI EndBlock cfiCond80
        CFI EndBlock cfiCond81
        CFI EndBlock cfiCond82
        CFI EndBlock cfiCond83
        CFI EndBlock cfiCond84
        CFI EndBlock cfiPicker85

        RSEG FARCODE:CODE:NOROOT(1)
?Subroutine60:
        CFI Block cfiCond86 Using cfiCommon0
        CFI NoFunction
        CFI Conditional ??CrossCallReturnLabel_86
        CFI R24 Frame(CFA_Y, -6)
        CFI R25 Frame(CFA_Y, -5)
        CFI R26 Frame(CFA_Y, -4)
        CFI R27 Frame(CFA_Y, -3)
        CFI R4 Frame(CFA_Y, -2)
        CFI R5 Frame(CFA_Y, -1)
        CFI CFA_SP SP+6
        CFI CFA_Y Y+28
        CFI Block cfiCond87 Using cfiCommon0
        CFI (cfiCond87) NoFunction
        CFI (cfiCond87) Conditional ??CrossCallReturnLabel_87
        CFI (cfiCond87) R24 Frame(CFA_Y, -13)
        CFI (cfiCond87) R25 Frame(CFA_Y, -12)
        CFI (cfiCond87) R26 Frame(CFA_Y, -11)
        CFI (cfiCond87) R27 Frame(CFA_Y, -10)
        CFI (cfiCond87) R4 Frame(CFA_Y, -9)
        CFI (cfiCond87) R5 Frame(CFA_Y, -8)
        CFI (cfiCond87) R6 Frame(CFA_Y, -7)
        CFI (cfiCond87) R7 Frame(CFA_Y, -6)
        CFI (cfiCond87) R8 Frame(CFA_Y, -5)
        CFI (cfiCond87) R9 Frame(CFA_Y, -4)
        CFI (cfiCond87) R10 Frame(CFA_Y, -3)
        CFI (cfiCond87) R11 Frame(CFA_Y, -2)
        CFI (cfiCond87) R12 Frame(CFA_Y, -1)
        CFI (cfiCond87) CFA_SP SP+6
        CFI (cfiCond87) CFA_Y Y+13
        CFI Block cfiCond88 Using cfiCommon0
        CFI (cfiCond88) NoFunction
        CFI (cfiCond88) Conditional ??CrossCallReturnLabel_88
        CFI (cfiCond88) R24 Frame(CFA_Y, -12)
        CFI (cfiCond88) R25 Frame(CFA_Y, -11)
        CFI (cfiCond88) R26 Frame(CFA_Y, -10)
        CFI (cfiCond88) R27 Frame(CFA_Y, -9)
        CFI (cfiCond88) R4 Frame(CFA_Y, -8)
        CFI (cfiCond88) R5 Frame(CFA_Y, -7)
        CFI (cfiCond88) R6 Frame(CFA_Y, -6)
        CFI (cfiCond88) R7 Frame(CFA_Y, -5)
        CFI (cfiCond88) R8 Frame(CFA_Y, -4)
        CFI (cfiCond88) R9 Frame(CFA_Y, -3)
        CFI (cfiCond88) R10 Frame(CFA_Y, -2)
        CFI (cfiCond88) R11 Frame(CFA_Y, -1)
        CFI (cfiCond88) CFA_SP SP+6
        CFI (cfiCond88) CFA_Y Y+12
        CFI Block cfiPicker89 Using cfiCommon1
        CFI (cfiPicker89) NoFunction
        CFI (cfiPicker89) Picker
        SUBI	R16, 128
        SBCI	R17, 174
        SBCI	R18, 254
        RET
        CFI EndBlock cfiCond86
        CFI EndBlock cfiCond87
        CFI EndBlock cfiCond88
        CFI EndBlock cfiPicker89

        RSEG FARCODE:CODE:NOROOT(1)
?Subroutine56:
        CFI Block cfiCond90 Using cfiCommon0
        CFI NoFunction
        CFI Conditional ??CrossCallReturnLabel_81
        CFI R24 Frame(CFA_Y, -13)
        CFI R25 Frame(CFA_Y, -12)
        CFI R26 Frame(CFA_Y, -11)
        CFI R27 Frame(CFA_Y, -10)
        CFI R4 Frame(CFA_Y, -9)
        CFI R5 Frame(CFA_Y, -8)
        CFI R6 Frame(CFA_Y, -7)
        CFI R7 Frame(CFA_Y, -6)
        CFI R8 Frame(CFA_Y, -5)
        CFI R9 Frame(CFA_Y, -4)
        CFI R10 Frame(CFA_Y, -3)
        CFI R11 Frame(CFA_Y, -2)
        CFI R12 Frame(CFA_Y, -1)
        CFI CFA_SP SP+6
        CFI CFA_Y Y+13
        CFI Block cfiCond91 Using cfiCommon0
        CFI (cfiCond91) NoFunction
        CFI (cfiCond91) Conditional ??CrossCallReturnLabel_82
        CFI (cfiCond91) R24 Frame(CFA_Y, -13)
        CFI (cfiCond91) R25 Frame(CFA_Y, -12)
        CFI (cfiCond91) R26 Frame(CFA_Y, -11)
        CFI (cfiCond91) R27 Frame(CFA_Y, -10)
        CFI (cfiCond91) R4 Frame(CFA_Y, -9)
        CFI (cfiCond91) R5 Frame(CFA_Y, -8)
        CFI (cfiCond91) R6 Frame(CFA_Y, -7)
        CFI (cfiCond91) R7 Frame(CFA_Y, -6)
        CFI (cfiCond91) R8 Frame(CFA_Y, -5)
        CFI (cfiCond91) R9 Frame(CFA_Y, -4)
        CFI (cfiCond91) R10 Frame(CFA_Y, -3)
        CFI (cfiCond91) R11 Frame(CFA_Y, -2)
        CFI (cfiCond91) R12 Frame(CFA_Y, -1)
        CFI (cfiCond91) CFA_SP SP+6
        CFI (cfiCond91) CFA_Y Y+13
        CFI Block cfiCond92 Using cfiCommon0
        CFI (cfiCond92) NoFunction
        CFI (cfiCond92) Conditional ??CrossCallReturnLabel_83
        CFI (cfiCond92) R24 Frame(CFA_Y, -13)
        CFI (cfiCond92) R25 Frame(CFA_Y, -12)
        CFI (cfiCond92) R26 Frame(CFA_Y, -11)
        CFI (cfiCond92) R27 Frame(CFA_Y, -10)
        CFI (cfiCond92) R4 Frame(CFA_Y, -9)
        CFI (cfiCond92) R5 Frame(CFA_Y, -8)
        CFI (cfiCond92) R6 Frame(CFA_Y, -7)
        CFI (cfiCond92) R7 Frame(CFA_Y, -6)
        CFI (cfiCond92) R8 Frame(CFA_Y, -5)
        CFI (cfiCond92) R9 Frame(CFA_Y, -4)
        CFI (cfiCond92) R10 Frame(CFA_Y, -3)
        CFI (cfiCond92) R11 Frame(CFA_Y, -2)
        CFI (cfiCond92) R12 Frame(CFA_Y, -1)
        CFI (cfiCond92) CFA_SP SP+6
        CFI (cfiCond92) CFA_Y Y+13
        CFI Block cfiPicker93 Using cfiCommon1
        CFI (cfiPicker93) NoFunction
        CFI (cfiPicker93) Picker
        MOVW	R31:R30, R27:R26
        LDD	R20, Z+6
        LDD	R19, Z+5
        LDD	R18, Z+4
        LDD	R17, Z+2
        RET
        CFI EndBlock cfiCond90
        CFI EndBlock cfiCond91
        CFI EndBlock cfiCond92
        CFI EndBlock cfiPicker93

        RSEG FARCODE:CODE:NOROOT(1)
?Subroutine55:
        CFI Block cfiCond94 Using cfiCommon0
        CFI NoFunction
        CFI Conditional ??CrossCallReturnLabel_78
        CFI R24 Frame(CFA_Y, -13)
        CFI R25 Frame(CFA_Y, -12)
        CFI R26 Frame(CFA_Y, -11)
        CFI R27 Frame(CFA_Y, -10)
        CFI R4 Frame(CFA_Y, -9)
        CFI R5 Frame(CFA_Y, -8)
        CFI R6 Frame(CFA_Y, -7)
        CFI R7 Frame(CFA_Y, -6)
        CFI R8 Frame(CFA_Y, -5)
        CFI R9 Frame(CFA_Y, -4)
        CFI R10 Frame(CFA_Y, -3)
        CFI R11 Frame(CFA_Y, -2)
        CFI R12 Frame(CFA_Y, -1)
        CFI CFA_SP SP+6
        CFI CFA_Y Y+13
        CFI Block cfiCond95 Using cfiCommon0
        CFI (cfiCond95) NoFunction
        CFI (cfiCond95) Conditional ??CrossCallReturnLabel_79
        CFI (cfiCond95) R24 Frame(CFA_Y, -13)
        CFI (cfiCond95) R25 Frame(CFA_Y, -12)
        CFI (cfiCond95) R26 Frame(CFA_Y, -11)
        CFI (cfiCond95) R27 Frame(CFA_Y, -10)
        CFI (cfiCond95) R4 Frame(CFA_Y, -9)
        CFI (cfiCond95) R5 Frame(CFA_Y, -8)
        CFI (cfiCond95) R6 Frame(CFA_Y, -7)
        CFI (cfiCond95) R7 Frame(CFA_Y, -6)
        CFI (cfiCond95) R8 Frame(CFA_Y, -5)
        CFI (cfiCond95) R9 Frame(CFA_Y, -4)
        CFI (cfiCond95) R10 Frame(CFA_Y, -3)
        CFI (cfiCond95) R11 Frame(CFA_Y, -2)
        CFI (cfiCond95) R12 Frame(CFA_Y, -1)
        CFI (cfiCond95) CFA_SP SP+6
        CFI (cfiCond95) CFA_Y Y+13
        CFI Block cfiCond96 Using cfiCommon0
        CFI (cfiCond96) NoFunction
        CFI (cfiCond96) Conditional ??CrossCallReturnLabel_80
        CFI (cfiCond96) R24 Frame(CFA_Y, -13)
        CFI (cfiCond96) R25 Frame(CFA_Y, -12)
        CFI (cfiCond96) R26 Frame(CFA_Y, -11)
        CFI (cfiCond96) R27 Frame(CFA_Y, -10)
        CFI (cfiCond96) R4 Frame(CFA_Y, -9)
        CFI (cfiCond96) R5 Frame(CFA_Y, -8)
        CFI (cfiCond96) R6 Frame(CFA_Y, -7)
        CFI (cfiCond96) R7 Frame(CFA_Y, -6)
        CFI (cfiCond96) R8 Frame(CFA_Y, -5)
        CFI (cfiCond96) R9 Frame(CFA_Y, -4)
        CFI (cfiCond96) R10 Frame(CFA_Y, -3)
        CFI (cfiCond96) R11 Frame(CFA_Y, -2)
        CFI (cfiCond96) R12 Frame(CFA_Y, -1)
        CFI (cfiCond96) CFA_SP SP+6
        CFI (cfiCond96) CFA_Y Y+13
        CFI Block cfiPicker97 Using cfiCommon1
        CFI (cfiPicker97) NoFunction
        CFI (cfiPicker97) Picker
        MOVW	R31:R30, R27:R26
        LDD	R7, Z+6
        LDD	R19, Z+5
        LDD	R18, Z+4
        LDD	R4, Z+2
        LDD	R16, Z+1
        RET
        CFI EndBlock cfiCond94
        CFI EndBlock cfiCond95
        CFI EndBlock cfiCond96
        CFI EndBlock cfiPicker97

        RSEG FARCODE:CODE:NOROOT(1)
?Subroutine54:
        CFI Block cfiCond98 Using cfiCommon0
        CFI NoFunction
        CFI Conditional ??CrossCallReturnLabel_74
        CFI R24 Frame(CFA_Y, -13)
        CFI R25 Frame(CFA_Y, -12)
        CFI R26 Frame(CFA_Y, -11)
        CFI R27 Frame(CFA_Y, -10)
        CFI R4 Frame(CFA_Y, -9)
        CFI R5 Frame(CFA_Y, -8)
        CFI R6 Frame(CFA_Y, -7)
        CFI R7 Frame(CFA_Y, -6)
        CFI R8 Frame(CFA_Y, -5)
        CFI R9 Frame(CFA_Y, -4)
        CFI R10 Frame(CFA_Y, -3)
        CFI R11 Frame(CFA_Y, -2)
        CFI R12 Frame(CFA_Y, -1)
        CFI CFA_SP SP+6
        CFI CFA_Y Y+13
        CFI Block cfiCond99 Using cfiCommon0
        CFI (cfiCond99) NoFunction
        CFI (cfiCond99) Conditional ??CrossCallReturnLabel_75
        CFI (cfiCond99) R24 Frame(CFA_Y, -13)
        CFI (cfiCond99) R25 Frame(CFA_Y, -12)
        CFI (cfiCond99) R26 Frame(CFA_Y, -11)
        CFI (cfiCond99) R27 Frame(CFA_Y, -10)
        CFI (cfiCond99) R4 Frame(CFA_Y, -9)
        CFI (cfiCond99) R5 Frame(CFA_Y, -8)
        CFI (cfiCond99) R6 Frame(CFA_Y, -7)
        CFI (cfiCond99) R7 Frame(CFA_Y, -6)
        CFI (cfiCond99) R8 Frame(CFA_Y, -5)
        CFI (cfiCond99) R9 Frame(CFA_Y, -4)
        CFI (cfiCond99) R10 Frame(CFA_Y, -3)
        CFI (cfiCond99) R11 Frame(CFA_Y, -2)
        CFI (cfiCond99) R12 Frame(CFA_Y, -1)
        CFI (cfiCond99) CFA_SP SP+6
        CFI (cfiCond99) CFA_Y Y+13
        CFI Block cfiPicker100 Using cfiCommon1
        CFI (cfiPicker100) NoFunction
        CFI (cfiPicker100) Picker
        MOVW	R17:R16, R23:R22
        CFI Block cfiCond101 Using cfiCommon0
        CFI (cfiCond101) NoFunction
        CFI (cfiCond101) Conditional ??CrossCallReturnLabel_73
        CFI (cfiCond101) R24 Frame(CFA_Y, -2)
        CFI (cfiCond101) R25 Frame(CFA_Y, -1)
        CFI (cfiCond101) CFA_SP SP+6
        CFI (cfiCond101) CFA_Y Y+16
        CFI Block cfiCond102 Using cfiCommon0
        CFI (cfiCond102) NoFunction
        CFI (cfiCond102) Conditional ??CrossCallReturnLabel_76
        CFI (cfiCond102) R24 Frame(CFA_Y, -13)
        CFI (cfiCond102) R25 Frame(CFA_Y, -12)
        CFI (cfiCond102) R26 Frame(CFA_Y, -11)
        CFI (cfiCond102) R27 Frame(CFA_Y, -10)
        CFI (cfiCond102) R4 Frame(CFA_Y, -9)
        CFI (cfiCond102) R5 Frame(CFA_Y, -8)
        CFI (cfiCond102) R6 Frame(CFA_Y, -7)
        CFI (cfiCond102) R7 Frame(CFA_Y, -6)
        CFI (cfiCond102) R8 Frame(CFA_Y, -5)
        CFI (cfiCond102) R9 Frame(CFA_Y, -4)
        CFI (cfiCond102) R10 Frame(CFA_Y, -3)
        CFI (cfiCond102) R11 Frame(CFA_Y, -2)
        CFI (cfiCond102) R12 Frame(CFA_Y, -1)
        CFI (cfiCond102) CFA_SP SP+6
        CFI (cfiCond102) CFA_Y Y+13
        CFI Block cfiCond103 Using cfiCommon0
        CFI (cfiCond103) NoFunction
        CFI (cfiCond103) Conditional ??CrossCallReturnLabel_77
        CFI (cfiCond103) R24 Frame(CFA_Y, -12)
        CFI (cfiCond103) R25 Frame(CFA_Y, -11)
        CFI (cfiCond103) R26 Frame(CFA_Y, -10)
        CFI (cfiCond103) R27 Frame(CFA_Y, -9)
        CFI (cfiCond103) R4 Frame(CFA_Y, -8)
        CFI (cfiCond103) R5 Frame(CFA_Y, -7)
        CFI (cfiCond103) R6 Frame(CFA_Y, -6)
        CFI (cfiCond103) R7 Frame(CFA_Y, -5)
        CFI (cfiCond103) R8 Frame(CFA_Y, -4)
        CFI (cfiCond103) R9 Frame(CFA_Y, -3)
        CFI (cfiCond103) R10 Frame(CFA_Y, -2)
        CFI (cfiCond103) R11 Frame(CFA_Y, -1)
        CFI (cfiCond103) CFA_SP SP+6
        CFI (cfiCond103) CFA_Y Y+12
??Subroutine54_0:
        LSL	R16
        ROL	R17
        RET
        CFI EndBlock cfiCond98
        CFI EndBlock cfiCond99
        CFI EndBlock cfiPicker100
        CFI EndBlock cfiCond101
        CFI EndBlock cfiCond102
        CFI EndBlock cfiCond103
//  622  
//  623 
//  624 
//  625 // замеры по ТИТ
//  626 //

        RSEG FARCODE:CODE:NOROOT(1)
//  627 void  end_zamer_tit(char m)
end_zamer_tit:
        CFI Block cfiBlock104 Using cfiCommon0
        CFI Function end_zamer_tit
//  628 {
        FUNCALL end_zamer_tit, set_end_time
        LOCFRAME CSTACK, 12, STACK
        LOCFRAME RSTACK, 3, STACK
        FUNCALL end_zamer_tit, set_end_time
        LOCFRAME CSTACK, 12, STACK
        LOCFRAME RSTACK, 3, STACK
        FUNCALL end_zamer_tit, set_end_time
        LOCFRAME CSTACK, 12, STACK
        LOCFRAME RSTACK, 3, STACK
        FUNCALL end_zamer_tit, set_end_time
        LOCFRAME CSTACK, 12, STACK
        LOCFRAME RSTACK, 3, STACK
        FUNCALL end_zamer_tit, set_end_time
        LOCFRAME CSTACK, 12, STACK
        LOCFRAME RSTACK, 3, STACK
        FUNCALL end_zamer_tit, set_end_time
        LOCFRAME CSTACK, 12, STACK
        LOCFRAME RSTACK, 3, STACK
        FUNCALL end_zamer_tit, set_end_time
        LOCFRAME CSTACK, 12, STACK
        LOCFRAME RSTACK, 3, STACK
        FUNCALL end_zamer_tit, set_end_time
        LOCFRAME CSTACK, 12, STACK
        LOCFRAME RSTACK, 3, STACK
        FUNCALL end_zamer_tit, set_end_time
        LOCFRAME CSTACK, 12, STACK
        LOCFRAME RSTACK, 3, STACK
        CALL	?PROLOGUE12_L09
        CFI R11 Frame(CFA_Y, -1)
        CFI R10 Frame(CFA_Y, -2)
        CFI R9 Frame(CFA_Y, -3)
        CFI R8 Frame(CFA_Y, -4)
        CFI R7 Frame(CFA_Y, -5)
        CFI R6 Frame(CFA_Y, -6)
        CFI R5 Frame(CFA_Y, -7)
        CFI R4 Frame(CFA_Y, -8)
        CFI R27 Frame(CFA_Y, -9)
        CFI R26 Frame(CFA_Y, -10)
        CFI R25 Frame(CFA_Y, -11)
        CFI R24 Frame(CFA_Y, -12)
        CFI CFA_Y Y+12
        REQUIRE	?Register_R4_is_cg_reg
        REQUIRE	?Register_R5_is_cg_reg
        REQUIRE	?Register_R6_is_cg_reg
        REQUIRE	?Register_R7_is_cg_reg
        REQUIRE	?Register_R8_is_cg_reg
        REQUIRE	?Register_R9_is_cg_reg
        REQUIRE	?Register_R10_is_cg_reg
        REQUIRE	?Register_R11_is_cg_reg
        MOV	R10, R16
//  629 unsigned long int u_i;
//  630 unsigned int zamer;    
//  631 if ( m>=2 ) return;                                 
        LDI	R16, 2
        CP	R10, R16
        BRCC	??end_zamer_tit_0
//  632                               ////////////////////
//  633                                          
//  634                                             zamer=c2_byte.mb[0x40+(2*m)]+(c2_byte.mb[0x41+(2*m)] & 7)*256;
        MOV	R20, R10
        LDI	R21, 0
        LDI	R24, LOW(c2_byte)
        LDI	R25, (c2_byte) >> 8
        MOVW	R17:R16, R21:R20
        RCALL	??Subroutine54_0
??CrossCallReturnLabel_77:
        MOVW	R9:R8, R25:R24
        ADD	R8, R16
        ADC	R9, R17
        LDI	R16, 64
        ADD	R8, R16
        ADC	R9, R21
        MOVW	R31:R30, R9:R8
        RCALL	?Subroutine65
//  635                                             if ( zamer> 1440) {timer_tit[m]=0;return;}
??CrossCallReturnLabel_94:
        LDI	R26, LOW(timer_psm)
        LDI	R27, (timer_psm) >> 8
        RCALL	?Subroutine86
??CrossCallReturnLabel_147:
        ADD	R26, R20
        ADC	R27, R21
        CPI	R18, 161
        LDI	R18, 5
        CPC	R17, R18
        BRCS	??end_zamer_tit_1
??end_zamer_tit_2:
        RCALL	?Subroutine13
??CrossCallReturnLabel_246:
        STD	Z+8, R16
        STD	Z+9, R16
        STD	Z+10, R16
        STD	Z+11, R16
??end_zamer_tit_0:
        LDI	R30, 12
        JMP	?EPILOGUE_B12_L09
//  636                                          switch(zamer)
??end_zamer_tit_1:
        LDI	R30, LOW(real_time)
        LDI	R31, (real_time) >> 8
        LDD	R7, Z+1
        LDD	R4, Z+2
        LDD	R5, Z+4
        LDD	R6, Z+5
        LDD	R11, Z+6
        LDI	R30, LOW(`?<Jumptable for end_zamer_tit>_0`)
        LDI	R31, (`?<Jumptable for end_zamer_tit>_0`) >> 16
        OUT	0x3B, R31
        LDI	R31, HIGH(`?<Jumptable for end_zamer_tit>_0`)
        JMP	?SV_SWITCH_L06
//  637                                               {
//  638                                               
//  639                                               
//  640                                               case 5: 
//  641                                                  {  
//  642                                                
//  643                   timer_tit[m]=set_end_time((real_time.r_min/5)*5,
//  644                                              real_time.r_hor,
//  645                                              real_time.r_date,
//  646                                              real_time.r_month,
//  647                                              real_time.r_year)+300; 
??end_zamer_tit_3:
        RCALL	?Subroutine87
??CrossCallReturnLabel_149:
        LDI	R20, 5
        RCALL	??Subroutine80_0
??CrossCallReturnLabel_126:
        LDI	R17, 5
        RCALL	?Subroutine63
??CrossCallReturnLabel_275:
        SUBI	R16, 212
        SBCI	R17, 254
        RJMP	??end_zamer_tit_4
//  648                                              
//  649                                              lock_bit_tit= lock_bit_tit & ~(1<<m);
//  650                                                 
//  651                                                  break;
//  652                                                  }               
//  653                                                  
//  654                                                  case 10: 
//  655                                                  {  
//  656                                                
//  657                   timer_tit[m]=set_end_time((real_time.r_min/10)*10,
//  658                                              real_time.r_hor,
//  659                                              real_time.r_date,
//  660                                              real_time.r_month,
//  661                                              real_time.r_year)+600; 
??end_zamer_tit_5:
        RCALL	?Subroutine87
??CrossCallReturnLabel_150:
        RCALL	?Subroutine80
??CrossCallReturnLabel_127:
        LDI	R17, 10
        RCALL	?Subroutine63
??CrossCallReturnLabel_274:
        SUBI	R16, 168
        SBCI	R17, 253
        RJMP	??end_zamer_tit_4
//  662                                              
//  663                                              lock_bit_tit= lock_bit_tit & ~(1<<m);
//  664                                                 
//  665                                                  break;
//  666                                                  } 
//  667                                                 
//  668                                                  
//  669                                                   case 20: 
//  670                                                  { 
//  671                   timer_tit[m]=set_end_time((real_time.r_min/20)*20,
//  672                                              real_time.r_hor,
//  673                                              real_time.r_date,
//  674                                              real_time.r_month,
//  675                                              real_time.r_year)+1200; 
??end_zamer_tit_6:
        RCALL	?Subroutine87
??CrossCallReturnLabel_151:
        LDI	R20, 20
        RCALL	??Subroutine80_0
??CrossCallReturnLabel_128:
        LDI	R17, 20
        RCALL	?Subroutine63
??CrossCallReturnLabel_273:
        SUBI	R16, 80
        SBCI	R17, 251
        RJMP	??end_zamer_tit_4
//  676                                              
//  677                                                lock_bit_tit= lock_bit_tit & ~(1<<m);
//  678                                               
//  679                                                  break;
//  680                                                  }  
//  681                                                   case 30: 
//  682                                                  {
//  683                     timer_tit[m]=set_end_time((real_time.r_min/30)*30,
//  684                                              real_time.r_hor,
//  685                                              real_time.r_date,
//  686                                              real_time.r_month,
//  687                                              real_time.r_year)+1800;                                
??end_zamer_tit_7:
        RCALL	?Subroutine87
??CrossCallReturnLabel_152:
        LDI	R20, 30
        RCALL	??Subroutine80_0
??CrossCallReturnLabel_129:
        LDI	R17, 30
        RCALL	?Subroutine63
??CrossCallReturnLabel_272:
        SUBI	R16, 248
        SBCI	R17, 248
        RJMP	??end_zamer_tit_4
//  688                                                    
//  689                                                lock_bit_tit= lock_bit_tit & ~(1<<m);
//  690                                                 
//  691                                                  break;
//  692                                                  }
//  693                                                  
//  694                                                  case 60: 
//  695                                                  {
//  696                   timer_tit[m]=set_end_time(0,
//  697                                              real_time.r_hor,
//  698                                              real_time.r_date,
//  699                                              real_time.r_month,
//  700                                              real_time.r_year)+3600;                                  
??end_zamer_tit_8:
        RCALL	?Subroutine88
??CrossCallReturnLabel_153:
        MOV	R17, R4
        RCALL	?Subroutine9
??CrossCallReturnLabel_9:
        RJMP	??end_zamer_tit_4
//  701                                                    
//  702                                                lock_bit_tit= lock_bit_tit & ~(1<<m);
//  703                                                 
//  704                                                  break;
//  705                                                  }
//  706                                                
//  707                                                  case 120: 
//  708                                                  { 
//  709                  timer_tit[m]=set_end_time(0,
//  710                                              (real_time.r_hor/2)*2,
//  711                                              real_time.r_date,
//  712                                              real_time.r_month,
//  713                                              real_time.r_year)+7200;                                   
??end_zamer_tit_9:
        RCALL	?Subroutine88
??CrossCallReturnLabel_154:
        LDI	R16, 254
        AND	R4, R16
        MOV	R17, R4
        RCALL	?Subroutine10
??CrossCallReturnLabel_11:
        RJMP	??end_zamer_tit_4
//  714                                                
//  715                                                lock_bit_tit= lock_bit_tit & ~(1<<m);
//  716                                                 
//  717                                                  break;
//  718                                                  } 
//  719                                                
//  720                                                  case 240: 
//  721                                                  { 
//  722                  timer_tit[m]=set_end_time(0,
//  723                                              (real_time.r_hor/4)*4,
//  724                                              real_time.r_date,
//  725                                              real_time.r_month,
//  726                                              real_time.r_year)+14400;                                   
??end_zamer_tit_10:
        RCALL	?Subroutine88
??CrossCallReturnLabel_155:
        LDI	R16, 252
        AND	R4, R16
        MOV	R17, R4
        RCALL	?Subroutine11
??CrossCallReturnLabel_13:
        RJMP	??end_zamer_tit_4
//  727                                               
//  728                                                lock_bit_tit= lock_bit_tit & ~(1<<m);
//  729                                                
//  730                                                  break;
//  731                                                  }
//  732                                                  
//  733                                                  case 360: 
//  734                                                  {
//  735            timer_tit[m]=set_end_time(0,
//  736                                              (real_time.r_hor/6)*6,
//  737                                              real_time.r_date,
//  738                                              real_time.r_month,
//  739                                              real_time.r_year)+21600;                                   
??end_zamer_tit_11:
        MOV	R19, R6
        MOV	R18, R5
        MOV	R16, R4
        RCALL	?Subroutine79
??CrossCallReturnLabel_122:
        MOV	R20, R11
        RCALL	?Subroutine12
??CrossCallReturnLabel_15:
        RJMP	??end_zamer_tit_4
//  740                                               
//  741                                                lock_bit_tit= lock_bit_tit & ~(1<<m);
//  742                                               
//  743                                                  break;
//  744                                                  }    
//  745                                                  case 0: {timer_tit[m]=0;break;}
//  746                                                  
//  747                                                  
//  748                                    case 1440:
//  749                                                       {  
//  750                                      u_i=set_end_time(c2_byte.mb[34],
//  751                                              c2_byte.mb[32],
//  752                                              real_time.r_date,
//  753                                              real_time.r_month,
//  754                                              real_time.r_year)+(unsigned long int)c2_byte.mb[36];                                   
??end_zamer_tit_12:
        RCALL	?Subroutine88
??CrossCallReturnLabel_156:
        MOVW	R31:R30, R25:R24
        RCALL	?Subroutine82
??CrossCallReturnLabel_133:
        MOVW	R31:R30, R25:R24
        RCALL	?Subroutine1
//  755                                       if (u_i <= unix ) timer_tit[m]=u_i+86400;  // если время окончания замера меньше текущего
??CrossCallReturnLabel_1:
        BRCS	??end_zamer_tit_13
        RCALL	?Subroutine60
??CrossCallReturnLabel_88:
        RJMP	??end_zamer_tit_14
//  756                                       else  timer_tit[m]=u_i+5;   
??end_zamer_tit_13:
        SUBI	R16, 251
        SBCI	R17, 255
??end_zamer_tit_4:
        SBCI	R18, 255
??end_zamer_tit_14:
        SBCI	R19, 255
??end_zamer_tit_15:
        MOVW	R31:R30, R27:R26
        RCALL	?Subroutine62
//  757                                       
//  758                                      
//  759                                       
//  760                                           
//  761                                                lock_bit_tit= lock_bit_tit & ~(1<<m); 
??CrossCallReturnLabel_92:
        RCALL	?Subroutine59
??CrossCallReturnLabel_238:
        MOV	R20, R10
        RCALL	?Subroutine85
??CrossCallReturnLabel_144:
        COM	R16
        RCALL	??Subroutine84_0
??CrossCallReturnLabel_141:
        LDD	R17, Z+35
        AND	R17, R16
        STD	Z+35, R17
//  762                                                                           
//  763                                      
//  764                                                       break;
        RJMP	??end_zamer_tit_0
//  765                                                       }               
//  766                                                  
//  767                                                  
//  768                                                  
//  769                                                  
//  770                                                  
//  771                                                     
//  772                                                 default:
//  773                                                              {
//  774                                                
//  775                                                timer_tit[m]=unix+( (long int)c2_byte.mb[0x40+ (2*m)]+(long int)(c2_byte.mb[0x41+ (2*m)] & 7)*256)*60; 
??end_zamer_tit_16:
        CALL	?Subroutine24
??CrossCallReturnLabel_31:
        MOVW	R31:R30, R9:R8
        RCALL	?Subroutine4
??CrossCallReturnLabel_280:
        ADD	R16, R4
        ADC	R17, R5
        ADC	R18, R6
        ADC	R19, R7
        RJMP	??end_zamer_tit_15
        CFI EndBlock cfiBlock104
//  776                                                lock_bit_tit= lock_bit_tit & ~(1<<m);
//  777                                                
//  778                                                               break;
//  779                                                               }
//  780                                               }     // sw
//  781                                               
//  782                                           
//  783                              /////////////////////
//  784                                 
//  785     }                     

        RSEG FARCODE:CODE:NOROOT(1)
?Subroutine88:
        CFI Block cfiCond105 Using cfiCommon0
        CFI NoFunction
        CFI Conditional ??CrossCallReturnLabel_153
        CFI R24 Frame(CFA_Y, -12)
        CFI R25 Frame(CFA_Y, -11)
        CFI R26 Frame(CFA_Y, -10)
        CFI R27 Frame(CFA_Y, -9)
        CFI R4 Frame(CFA_Y, -8)
        CFI R5 Frame(CFA_Y, -7)
        CFI R6 Frame(CFA_Y, -6)
        CFI R7 Frame(CFA_Y, -5)
        CFI R8 Frame(CFA_Y, -4)
        CFI R9 Frame(CFA_Y, -3)
        CFI R10 Frame(CFA_Y, -2)
        CFI R11 Frame(CFA_Y, -1)
        CFI CFA_SP SP+6
        CFI CFA_Y Y+12
        CFI Block cfiCond106 Using cfiCommon0
        CFI (cfiCond106) NoFunction
        CFI (cfiCond106) Conditional ??CrossCallReturnLabel_154
        CFI (cfiCond106) R24 Frame(CFA_Y, -12)
        CFI (cfiCond106) R25 Frame(CFA_Y, -11)
        CFI (cfiCond106) R26 Frame(CFA_Y, -10)
        CFI (cfiCond106) R27 Frame(CFA_Y, -9)
        CFI (cfiCond106) R4 Frame(CFA_Y, -8)
        CFI (cfiCond106) R5 Frame(CFA_Y, -7)
        CFI (cfiCond106) R6 Frame(CFA_Y, -6)
        CFI (cfiCond106) R7 Frame(CFA_Y, -5)
        CFI (cfiCond106) R8 Frame(CFA_Y, -4)
        CFI (cfiCond106) R9 Frame(CFA_Y, -3)
        CFI (cfiCond106) R10 Frame(CFA_Y, -2)
        CFI (cfiCond106) R11 Frame(CFA_Y, -1)
        CFI (cfiCond106) CFA_SP SP+6
        CFI (cfiCond106) CFA_Y Y+12
        CFI Block cfiCond107 Using cfiCommon0
        CFI (cfiCond107) NoFunction
        CFI (cfiCond107) Conditional ??CrossCallReturnLabel_155
        CFI (cfiCond107) R24 Frame(CFA_Y, -12)
        CFI (cfiCond107) R25 Frame(CFA_Y, -11)
        CFI (cfiCond107) R26 Frame(CFA_Y, -10)
        CFI (cfiCond107) R27 Frame(CFA_Y, -9)
        CFI (cfiCond107) R4 Frame(CFA_Y, -8)
        CFI (cfiCond107) R5 Frame(CFA_Y, -7)
        CFI (cfiCond107) R6 Frame(CFA_Y, -6)
        CFI (cfiCond107) R7 Frame(CFA_Y, -5)
        CFI (cfiCond107) R8 Frame(CFA_Y, -4)
        CFI (cfiCond107) R9 Frame(CFA_Y, -3)
        CFI (cfiCond107) R10 Frame(CFA_Y, -2)
        CFI (cfiCond107) R11 Frame(CFA_Y, -1)
        CFI (cfiCond107) CFA_SP SP+6
        CFI (cfiCond107) CFA_Y Y+12
        CFI Block cfiCond108 Using cfiCommon0
        CFI (cfiCond108) NoFunction
        CFI (cfiCond108) Conditional ??CrossCallReturnLabel_156
        CFI (cfiCond108) R24 Frame(CFA_Y, -12)
        CFI (cfiCond108) R25 Frame(CFA_Y, -11)
        CFI (cfiCond108) R26 Frame(CFA_Y, -10)
        CFI (cfiCond108) R27 Frame(CFA_Y, -9)
        CFI (cfiCond108) R4 Frame(CFA_Y, -8)
        CFI (cfiCond108) R5 Frame(CFA_Y, -7)
        CFI (cfiCond108) R6 Frame(CFA_Y, -6)
        CFI (cfiCond108) R7 Frame(CFA_Y, -5)
        CFI (cfiCond108) R8 Frame(CFA_Y, -4)
        CFI (cfiCond108) R9 Frame(CFA_Y, -3)
        CFI (cfiCond108) R10 Frame(CFA_Y, -2)
        CFI (cfiCond108) R11 Frame(CFA_Y, -1)
        CFI (cfiCond108) CFA_SP SP+6
        CFI (cfiCond108) CFA_Y Y+12
        CFI Block cfiPicker109 Using cfiCommon1
        CFI (cfiPicker109) NoFunction
        CFI (cfiPicker109) Picker
        MOV	R20, R11
        MOV	R19, R6
        MOV	R18, R5
        RET
        CFI EndBlock cfiCond105
        CFI EndBlock cfiCond106
        CFI EndBlock cfiCond107
        CFI EndBlock cfiCond108
        CFI EndBlock cfiPicker109

        RSEG FARCODE:CODE:NOROOT(1)
?Subroutine87:
        CFI Block cfiCond110 Using cfiCommon0
        CFI NoFunction
        CFI Conditional ??CrossCallReturnLabel_149
        CFI R24 Frame(CFA_Y, -12)
        CFI R25 Frame(CFA_Y, -11)
        CFI R26 Frame(CFA_Y, -10)
        CFI R27 Frame(CFA_Y, -9)
        CFI R4 Frame(CFA_Y, -8)
        CFI R5 Frame(CFA_Y, -7)
        CFI R6 Frame(CFA_Y, -6)
        CFI R7 Frame(CFA_Y, -5)
        CFI R8 Frame(CFA_Y, -4)
        CFI R9 Frame(CFA_Y, -3)
        CFI R10 Frame(CFA_Y, -2)
        CFI R11 Frame(CFA_Y, -1)
        CFI CFA_SP SP+6
        CFI CFA_Y Y+12
        CFI Block cfiCond111 Using cfiCommon0
        CFI (cfiCond111) NoFunction
        CFI (cfiCond111) Conditional ??CrossCallReturnLabel_150
        CFI (cfiCond111) R24 Frame(CFA_Y, -12)
        CFI (cfiCond111) R25 Frame(CFA_Y, -11)
        CFI (cfiCond111) R26 Frame(CFA_Y, -10)
        CFI (cfiCond111) R27 Frame(CFA_Y, -9)
        CFI (cfiCond111) R4 Frame(CFA_Y, -8)
        CFI (cfiCond111) R5 Frame(CFA_Y, -7)
        CFI (cfiCond111) R6 Frame(CFA_Y, -6)
        CFI (cfiCond111) R7 Frame(CFA_Y, -5)
        CFI (cfiCond111) R8 Frame(CFA_Y, -4)
        CFI (cfiCond111) R9 Frame(CFA_Y, -3)
        CFI (cfiCond111) R10 Frame(CFA_Y, -2)
        CFI (cfiCond111) R11 Frame(CFA_Y, -1)
        CFI (cfiCond111) CFA_SP SP+6
        CFI (cfiCond111) CFA_Y Y+12
        CFI Block cfiCond112 Using cfiCommon0
        CFI (cfiCond112) NoFunction
        CFI (cfiCond112) Conditional ??CrossCallReturnLabel_151
        CFI (cfiCond112) R24 Frame(CFA_Y, -12)
        CFI (cfiCond112) R25 Frame(CFA_Y, -11)
        CFI (cfiCond112) R26 Frame(CFA_Y, -10)
        CFI (cfiCond112) R27 Frame(CFA_Y, -9)
        CFI (cfiCond112) R4 Frame(CFA_Y, -8)
        CFI (cfiCond112) R5 Frame(CFA_Y, -7)
        CFI (cfiCond112) R6 Frame(CFA_Y, -6)
        CFI (cfiCond112) R7 Frame(CFA_Y, -5)
        CFI (cfiCond112) R8 Frame(CFA_Y, -4)
        CFI (cfiCond112) R9 Frame(CFA_Y, -3)
        CFI (cfiCond112) R10 Frame(CFA_Y, -2)
        CFI (cfiCond112) R11 Frame(CFA_Y, -1)
        CFI (cfiCond112) CFA_SP SP+6
        CFI (cfiCond112) CFA_Y Y+12
        CFI Block cfiCond113 Using cfiCommon0
        CFI (cfiCond113) NoFunction
        CFI (cfiCond113) Conditional ??CrossCallReturnLabel_152
        CFI (cfiCond113) R24 Frame(CFA_Y, -12)
        CFI (cfiCond113) R25 Frame(CFA_Y, -11)
        CFI (cfiCond113) R26 Frame(CFA_Y, -10)
        CFI (cfiCond113) R27 Frame(CFA_Y, -9)
        CFI (cfiCond113) R4 Frame(CFA_Y, -8)
        CFI (cfiCond113) R5 Frame(CFA_Y, -7)
        CFI (cfiCond113) R6 Frame(CFA_Y, -6)
        CFI (cfiCond113) R7 Frame(CFA_Y, -5)
        CFI (cfiCond113) R8 Frame(CFA_Y, -4)
        CFI (cfiCond113) R9 Frame(CFA_Y, -3)
        CFI (cfiCond113) R10 Frame(CFA_Y, -2)
        CFI (cfiCond113) R11 Frame(CFA_Y, -1)
        CFI (cfiCond113) CFA_SP SP+6
        CFI (cfiCond113) CFA_Y Y+12
        CFI Block cfiPicker114 Using cfiCommon1
        CFI (cfiPicker114) NoFunction
        CFI (cfiPicker114) Picker
        MOV	R19, R6
        MOV	R18, R5
        MOV	R16, R7
        RET
        CFI EndBlock cfiCond110
        CFI EndBlock cfiCond111
        CFI EndBlock cfiCond112
        CFI EndBlock cfiCond113
        CFI EndBlock cfiPicker114

        RSEG FARCODE:CODE:NOROOT(1)
?Subroutine82:
        CFI Block cfiCond115 Using cfiCommon0
        CFI NoFunction
        CFI Conditional ??CrossCallReturnLabel_132
        CFI R24 Frame(CFA_Y, -13)
        CFI R25 Frame(CFA_Y, -12)
        CFI R26 Frame(CFA_Y, -11)
        CFI R27 Frame(CFA_Y, -10)
        CFI R4 Frame(CFA_Y, -9)
        CFI R5 Frame(CFA_Y, -8)
        CFI R6 Frame(CFA_Y, -7)
        CFI R7 Frame(CFA_Y, -6)
        CFI R8 Frame(CFA_Y, -5)
        CFI R9 Frame(CFA_Y, -4)
        CFI R10 Frame(CFA_Y, -3)
        CFI R11 Frame(CFA_Y, -2)
        CFI R12 Frame(CFA_Y, -1)
        CFI CFA_SP SP+6
        CFI CFA_Y Y+13
        CFI Block cfiCond116 Using cfiCommon0
        CFI (cfiCond116) NoFunction
        CFI (cfiCond116) Conditional ??CrossCallReturnLabel_133
        CFI (cfiCond116) R24 Frame(CFA_Y, -12)
        CFI (cfiCond116) R25 Frame(CFA_Y, -11)
        CFI (cfiCond116) R26 Frame(CFA_Y, -10)
        CFI (cfiCond116) R27 Frame(CFA_Y, -9)
        CFI (cfiCond116) R4 Frame(CFA_Y, -8)
        CFI (cfiCond116) R5 Frame(CFA_Y, -7)
        CFI (cfiCond116) R6 Frame(CFA_Y, -6)
        CFI (cfiCond116) R7 Frame(CFA_Y, -5)
        CFI (cfiCond116) R8 Frame(CFA_Y, -4)
        CFI (cfiCond116) R9 Frame(CFA_Y, -3)
        CFI (cfiCond116) R10 Frame(CFA_Y, -2)
        CFI (cfiCond116) R11 Frame(CFA_Y, -1)
        CFI (cfiCond116) CFA_SP SP+6
        CFI (cfiCond116) CFA_Y Y+12
        CFI Block cfiPicker117 Using cfiCommon1
        CFI (cfiPicker117) NoFunction
        CFI (cfiPicker117) Picker
        LDD	R17, Z+32
        LDD	R16, Z+34
        RCALL	set_end_time
        MOVW	R21:R20, R17:R16
        MOVW	R23:R22, R19:R18
        RET
        CFI EndBlock cfiCond115
        CFI EndBlock cfiCond116
        CFI EndBlock cfiPicker117

        RSEG FARCODE:CODE:NOROOT(1)
?Subroutine80:
        CFI Block cfiCond118 Using cfiCommon0
        CFI NoFunction
        CFI Conditional ??CrossCallReturnLabel_123
        CFI R24 Frame(CFA_Y, -13)
        CFI R25 Frame(CFA_Y, -12)
        CFI R26 Frame(CFA_Y, -11)
        CFI R27 Frame(CFA_Y, -10)
        CFI R4 Frame(CFA_Y, -9)
        CFI R5 Frame(CFA_Y, -8)
        CFI R6 Frame(CFA_Y, -7)
        CFI R7 Frame(CFA_Y, -6)
        CFI R8 Frame(CFA_Y, -5)
        CFI R9 Frame(CFA_Y, -4)
        CFI R10 Frame(CFA_Y, -3)
        CFI R11 Frame(CFA_Y, -2)
        CFI R12 Frame(CFA_Y, -1)
        CFI CFA_SP SP+6
        CFI CFA_Y Y+13
        CFI Block cfiCond119 Using cfiCommon0
        CFI (cfiCond119) NoFunction
        CFI (cfiCond119) Conditional ??CrossCallReturnLabel_127
        CFI (cfiCond119) R24 Frame(CFA_Y, -12)
        CFI (cfiCond119) R25 Frame(CFA_Y, -11)
        CFI (cfiCond119) R26 Frame(CFA_Y, -10)
        CFI (cfiCond119) R27 Frame(CFA_Y, -9)
        CFI (cfiCond119) R4 Frame(CFA_Y, -8)
        CFI (cfiCond119) R5 Frame(CFA_Y, -7)
        CFI (cfiCond119) R6 Frame(CFA_Y, -6)
        CFI (cfiCond119) R7 Frame(CFA_Y, -5)
        CFI (cfiCond119) R8 Frame(CFA_Y, -4)
        CFI (cfiCond119) R9 Frame(CFA_Y, -3)
        CFI (cfiCond119) R10 Frame(CFA_Y, -2)
        CFI (cfiCond119) R11 Frame(CFA_Y, -1)
        CFI (cfiCond119) CFA_SP SP+6
        CFI (cfiCond119) CFA_Y Y+12
        CFI Block cfiPicker120 Using cfiCommon1
        CFI (cfiPicker120) NoFunction
        CFI (cfiPicker120) Picker
        LDI	R20, 10
        CFI Block cfiCond121 Using cfiCommon0
        CFI (cfiCond121) NoFunction
        CFI (cfiCond121) Conditional ??CrossCallReturnLabel_124
        CFI (cfiCond121) R24 Frame(CFA_Y, -13)
        CFI (cfiCond121) R25 Frame(CFA_Y, -12)
        CFI (cfiCond121) R26 Frame(CFA_Y, -11)
        CFI (cfiCond121) R27 Frame(CFA_Y, -10)
        CFI (cfiCond121) R4 Frame(CFA_Y, -9)
        CFI (cfiCond121) R5 Frame(CFA_Y, -8)
        CFI (cfiCond121) R6 Frame(CFA_Y, -7)
        CFI (cfiCond121) R7 Frame(CFA_Y, -6)
        CFI (cfiCond121) R8 Frame(CFA_Y, -5)
        CFI (cfiCond121) R9 Frame(CFA_Y, -4)
        CFI (cfiCond121) R10 Frame(CFA_Y, -3)
        CFI (cfiCond121) R11 Frame(CFA_Y, -2)
        CFI (cfiCond121) R12 Frame(CFA_Y, -1)
        CFI (cfiCond121) CFA_SP SP+6
        CFI (cfiCond121) CFA_Y Y+13
        CFI Block cfiCond122 Using cfiCommon0
        CFI (cfiCond122) NoFunction
        CFI (cfiCond122) Conditional ??CrossCallReturnLabel_125
        CFI (cfiCond122) R24 Frame(CFA_Y, -13)
        CFI (cfiCond122) R25 Frame(CFA_Y, -12)
        CFI (cfiCond122) R26 Frame(CFA_Y, -11)
        CFI (cfiCond122) R27 Frame(CFA_Y, -10)
        CFI (cfiCond122) R4 Frame(CFA_Y, -9)
        CFI (cfiCond122) R5 Frame(CFA_Y, -8)
        CFI (cfiCond122) R6 Frame(CFA_Y, -7)
        CFI (cfiCond122) R7 Frame(CFA_Y, -6)
        CFI (cfiCond122) R8 Frame(CFA_Y, -5)
        CFI (cfiCond122) R9 Frame(CFA_Y, -4)
        CFI (cfiCond122) R10 Frame(CFA_Y, -3)
        CFI (cfiCond122) R11 Frame(CFA_Y, -2)
        CFI (cfiCond122) R12 Frame(CFA_Y, -1)
        CFI (cfiCond122) CFA_SP SP+6
        CFI (cfiCond122) CFA_Y Y+13
        CFI Block cfiCond123 Using cfiCommon0
        CFI (cfiCond123) NoFunction
        CFI (cfiCond123) Conditional ??CrossCallReturnLabel_126
        CFI (cfiCond123) R24 Frame(CFA_Y, -12)
        CFI (cfiCond123) R25 Frame(CFA_Y, -11)
        CFI (cfiCond123) R26 Frame(CFA_Y, -10)
        CFI (cfiCond123) R27 Frame(CFA_Y, -9)
        CFI (cfiCond123) R4 Frame(CFA_Y, -8)
        CFI (cfiCond123) R5 Frame(CFA_Y, -7)
        CFI (cfiCond123) R6 Frame(CFA_Y, -6)
        CFI (cfiCond123) R7 Frame(CFA_Y, -5)
        CFI (cfiCond123) R8 Frame(CFA_Y, -4)
        CFI (cfiCond123) R9 Frame(CFA_Y, -3)
        CFI (cfiCond123) R10 Frame(CFA_Y, -2)
        CFI (cfiCond123) R11 Frame(CFA_Y, -1)
        CFI (cfiCond123) CFA_SP SP+6
        CFI (cfiCond123) CFA_Y Y+12
        CFI Block cfiCond124 Using cfiCommon0
        CFI (cfiCond124) NoFunction
        CFI (cfiCond124) Conditional ??CrossCallReturnLabel_128
        CFI (cfiCond124) R24 Frame(CFA_Y, -12)
        CFI (cfiCond124) R25 Frame(CFA_Y, -11)
        CFI (cfiCond124) R26 Frame(CFA_Y, -10)
        CFI (cfiCond124) R27 Frame(CFA_Y, -9)
        CFI (cfiCond124) R4 Frame(CFA_Y, -8)
        CFI (cfiCond124) R5 Frame(CFA_Y, -7)
        CFI (cfiCond124) R6 Frame(CFA_Y, -6)
        CFI (cfiCond124) R7 Frame(CFA_Y, -5)
        CFI (cfiCond124) R8 Frame(CFA_Y, -4)
        CFI (cfiCond124) R9 Frame(CFA_Y, -3)
        CFI (cfiCond124) R10 Frame(CFA_Y, -2)
        CFI (cfiCond124) R11 Frame(CFA_Y, -1)
        CFI (cfiCond124) CFA_SP SP+6
        CFI (cfiCond124) CFA_Y Y+12
        CFI Block cfiCond125 Using cfiCommon0
        CFI (cfiCond125) NoFunction
        CFI (cfiCond125) Conditional ??CrossCallReturnLabel_129
        CFI (cfiCond125) R24 Frame(CFA_Y, -12)
        CFI (cfiCond125) R25 Frame(CFA_Y, -11)
        CFI (cfiCond125) R26 Frame(CFA_Y, -10)
        CFI (cfiCond125) R27 Frame(CFA_Y, -9)
        CFI (cfiCond125) R4 Frame(CFA_Y, -8)
        CFI (cfiCond125) R5 Frame(CFA_Y, -7)
        CFI (cfiCond125) R6 Frame(CFA_Y, -6)
        CFI (cfiCond125) R7 Frame(CFA_Y, -5)
        CFI (cfiCond125) R8 Frame(CFA_Y, -4)
        CFI (cfiCond125) R9 Frame(CFA_Y, -3)
        CFI (cfiCond125) R10 Frame(CFA_Y, -2)
        CFI (cfiCond125) R11 Frame(CFA_Y, -1)
        CFI (cfiCond125) CFA_SP SP+6
        CFI (cfiCond125) CFA_Y Y+12
??Subroutine80_0:
        JMP	?UC_DIVMOD_L01
        CFI EndBlock cfiCond118
        CFI EndBlock cfiCond119
        CFI EndBlock cfiPicker120
        CFI EndBlock cfiCond121
        CFI EndBlock cfiCond122
        CFI EndBlock cfiCond123
        CFI EndBlock cfiCond124
        CFI EndBlock cfiCond125

        RSEG FARCODE:CODE:NOROOT(1)
?Subroutine79:
        CFI Block cfiCond126 Using cfiCommon0
        CFI NoFunction
        CFI Conditional ??CrossCallReturnLabel_121
        CFI R24 Frame(CFA_Y, -13)
        CFI R25 Frame(CFA_Y, -12)
        CFI R26 Frame(CFA_Y, -11)
        CFI R27 Frame(CFA_Y, -10)
        CFI R4 Frame(CFA_Y, -9)
        CFI R5 Frame(CFA_Y, -8)
        CFI R6 Frame(CFA_Y, -7)
        CFI R7 Frame(CFA_Y, -6)
        CFI R8 Frame(CFA_Y, -5)
        CFI R9 Frame(CFA_Y, -4)
        CFI R10 Frame(CFA_Y, -3)
        CFI R11 Frame(CFA_Y, -2)
        CFI R12 Frame(CFA_Y, -1)
        CFI CFA_SP SP+6
        CFI CFA_Y Y+13
        CFI Block cfiCond127 Using cfiCommon0
        CFI (cfiCond127) NoFunction
        CFI (cfiCond127) Conditional ??CrossCallReturnLabel_122
        CFI (cfiCond127) R24 Frame(CFA_Y, -12)
        CFI (cfiCond127) R25 Frame(CFA_Y, -11)
        CFI (cfiCond127) R26 Frame(CFA_Y, -10)
        CFI (cfiCond127) R27 Frame(CFA_Y, -9)
        CFI (cfiCond127) R4 Frame(CFA_Y, -8)
        CFI (cfiCond127) R5 Frame(CFA_Y, -7)
        CFI (cfiCond127) R6 Frame(CFA_Y, -6)
        CFI (cfiCond127) R7 Frame(CFA_Y, -5)
        CFI (cfiCond127) R8 Frame(CFA_Y, -4)
        CFI (cfiCond127) R9 Frame(CFA_Y, -3)
        CFI (cfiCond127) R10 Frame(CFA_Y, -2)
        CFI (cfiCond127) R11 Frame(CFA_Y, -1)
        CFI (cfiCond127) CFA_SP SP+6
        CFI (cfiCond127) CFA_Y Y+12
        CFI Block cfiPicker128 Using cfiCommon1
        CFI (cfiPicker128) NoFunction
        CFI (cfiPicker128) Picker
        LDI	R20, 6
        CALL	?UC_DIVMOD_L01
        LDI	R17, 6
        MUL	R16, R17
        MOV	R17, R0
        RET
        CFI EndBlock cfiCond126
        CFI EndBlock cfiCond127
        CFI EndBlock cfiPicker128

        RSEG FARCODE:CODE:NOROOT(1)
?Subroutine65:
        CFI Block cfiCond129 Using cfiCommon0
        CFI NoFunction
        CFI Conditional ??CrossCallReturnLabel_93
        CFI R24 Frame(CFA_Y, -6)
        CFI R25 Frame(CFA_Y, -5)
        CFI R26 Frame(CFA_Y, -4)
        CFI R27 Frame(CFA_Y, -3)
        CFI R4 Frame(CFA_Y, -2)
        CFI R5 Frame(CFA_Y, -1)
        CFI CFA_SP SP+6
        CFI CFA_Y Y+28
        CFI Block cfiCond130 Using cfiCommon0
        CFI (cfiCond130) NoFunction
        CFI (cfiCond130) Conditional ??CrossCallReturnLabel_94
        CFI (cfiCond130) R24 Frame(CFA_Y, -12)
        CFI (cfiCond130) R25 Frame(CFA_Y, -11)
        CFI (cfiCond130) R26 Frame(CFA_Y, -10)
        CFI (cfiCond130) R27 Frame(CFA_Y, -9)
        CFI (cfiCond130) R4 Frame(CFA_Y, -8)
        CFI (cfiCond130) R5 Frame(CFA_Y, -7)
        CFI (cfiCond130) R6 Frame(CFA_Y, -6)
        CFI (cfiCond130) R7 Frame(CFA_Y, -5)
        CFI (cfiCond130) R8 Frame(CFA_Y, -4)
        CFI (cfiCond130) R9 Frame(CFA_Y, -3)
        CFI (cfiCond130) R10 Frame(CFA_Y, -2)
        CFI (cfiCond130) R11 Frame(CFA_Y, -1)
        CFI (cfiCond130) CFA_SP SP+6
        CFI (cfiCond130) CFA_Y Y+12
        CFI Block cfiCond131 Using cfiCommon0
        CFI (cfiCond131) NoFunction
        CFI (cfiCond131) Conditional ??CrossCallReturnLabel_95
        CFI (cfiCond131) R24 Frame(CFA_Y, -8)
        CFI (cfiCond131) R25 Frame(CFA_Y, -7)
        CFI (cfiCond131) R26 Frame(CFA_Y, -6)
        CFI (cfiCond131) R27 Frame(CFA_Y, -5)
        CFI (cfiCond131) R4 Frame(CFA_Y, -4)
        CFI (cfiCond131) R5 Frame(CFA_Y, -3)
        CFI (cfiCond131) R6 Frame(CFA_Y, -2)
        CFI (cfiCond131) R7 Frame(CFA_Y, -1)
        CFI (cfiCond131) CFA_SP SP+6
        CFI (cfiCond131) CFA_Y Y+26
        CFI Block cfiPicker132 Using cfiCommon1
        CFI (cfiPicker132) NoFunction
        CFI (cfiPicker132) Picker
        LD	R18, Z
        LDD	R16, Z+1
        ANDI	R16, 0x07
        MOV	R17, R16
        MOV	R16, R18
        RET
        CFI EndBlock cfiCond129
        CFI EndBlock cfiCond130
        CFI EndBlock cfiCond131
        CFI EndBlock cfiPicker132

        RSEG FARCODE:CODE:NOROOT(1)
?Subroutine63:
        CFI Block cfiCond133 Using cfiCommon0
        CFI NoFunction
        CFI Conditional ??CrossCallReturnLabel_275
        CFI R24 Frame(CFA_Y, -12)
        CFI R25 Frame(CFA_Y, -11)
        CFI R26 Frame(CFA_Y, -10)
        CFI R27 Frame(CFA_Y, -9)
        CFI R4 Frame(CFA_Y, -8)
        CFI R5 Frame(CFA_Y, -7)
        CFI R6 Frame(CFA_Y, -6)
        CFI R7 Frame(CFA_Y, -5)
        CFI R8 Frame(CFA_Y, -4)
        CFI R9 Frame(CFA_Y, -3)
        CFI R10 Frame(CFA_Y, -2)
        CFI R11 Frame(CFA_Y, -1)
        CFI CFA_SP SP+6
        CFI CFA_Y Y+12
        CFI Block cfiCond134 Using cfiCommon0
        CFI (cfiCond134) NoFunction
        CFI (cfiCond134) Conditional ??CrossCallReturnLabel_274
        CFI (cfiCond134) R24 Frame(CFA_Y, -12)
        CFI (cfiCond134) R25 Frame(CFA_Y, -11)
        CFI (cfiCond134) R26 Frame(CFA_Y, -10)
        CFI (cfiCond134) R27 Frame(CFA_Y, -9)
        CFI (cfiCond134) R4 Frame(CFA_Y, -8)
        CFI (cfiCond134) R5 Frame(CFA_Y, -7)
        CFI (cfiCond134) R6 Frame(CFA_Y, -6)
        CFI (cfiCond134) R7 Frame(CFA_Y, -5)
        CFI (cfiCond134) R8 Frame(CFA_Y, -4)
        CFI (cfiCond134) R9 Frame(CFA_Y, -3)
        CFI (cfiCond134) R10 Frame(CFA_Y, -2)
        CFI (cfiCond134) R11 Frame(CFA_Y, -1)
        CFI (cfiCond134) CFA_SP SP+6
        CFI (cfiCond134) CFA_Y Y+12
        CFI Block cfiCond135 Using cfiCommon0
        CFI (cfiCond135) NoFunction
        CFI (cfiCond135) Conditional ??CrossCallReturnLabel_273
        CFI (cfiCond135) R24 Frame(CFA_Y, -12)
        CFI (cfiCond135) R25 Frame(CFA_Y, -11)
        CFI (cfiCond135) R26 Frame(CFA_Y, -10)
        CFI (cfiCond135) R27 Frame(CFA_Y, -9)
        CFI (cfiCond135) R4 Frame(CFA_Y, -8)
        CFI (cfiCond135) R5 Frame(CFA_Y, -7)
        CFI (cfiCond135) R6 Frame(CFA_Y, -6)
        CFI (cfiCond135) R7 Frame(CFA_Y, -5)
        CFI (cfiCond135) R8 Frame(CFA_Y, -4)
        CFI (cfiCond135) R9 Frame(CFA_Y, -3)
        CFI (cfiCond135) R10 Frame(CFA_Y, -2)
        CFI (cfiCond135) R11 Frame(CFA_Y, -1)
        CFI (cfiCond135) CFA_SP SP+6
        CFI (cfiCond135) CFA_Y Y+12
        CFI Block cfiCond136 Using cfiCommon0
        CFI (cfiCond136) NoFunction
        CFI (cfiCond136) Conditional ??CrossCallReturnLabel_272
        CFI (cfiCond136) R24 Frame(CFA_Y, -12)
        CFI (cfiCond136) R25 Frame(CFA_Y, -11)
        CFI (cfiCond136) R26 Frame(CFA_Y, -10)
        CFI (cfiCond136) R27 Frame(CFA_Y, -9)
        CFI (cfiCond136) R4 Frame(CFA_Y, -8)
        CFI (cfiCond136) R5 Frame(CFA_Y, -7)
        CFI (cfiCond136) R6 Frame(CFA_Y, -6)
        CFI (cfiCond136) R7 Frame(CFA_Y, -5)
        CFI (cfiCond136) R8 Frame(CFA_Y, -4)
        CFI (cfiCond136) R9 Frame(CFA_Y, -3)
        CFI (cfiCond136) R10 Frame(CFA_Y, -2)
        CFI (cfiCond136) R11 Frame(CFA_Y, -1)
        CFI (cfiCond136) CFA_SP SP+6
        CFI (cfiCond136) CFA_Y Y+12
        CFI Block cfiPicker137 Using cfiCommon1
        CFI (cfiPicker137) NoFunction
        CFI (cfiPicker137) Picker
        MUL	R16, R17
        MOV	R16, R0
        MOV	R20, R11
        RJMP	?Subroutine122
        CFI EndBlock cfiCond133
        CFI EndBlock cfiCond134
        CFI EndBlock cfiCond135
        CFI EndBlock cfiCond136
        CFI EndBlock cfiPicker137

        RSEG FARCODE:CODE:NOROOT(1)
?Subroutine62:
        CFI Block cfiCond138 Using cfiCommon0
        CFI NoFunction
        CFI Conditional ??CrossCallReturnLabel_91
        CFI R24 Frame(CFA_Y, -6)
        CFI R25 Frame(CFA_Y, -5)
        CFI R26 Frame(CFA_Y, -4)
        CFI R27 Frame(CFA_Y, -3)
        CFI R4 Frame(CFA_Y, -2)
        CFI R5 Frame(CFA_Y, -1)
        CFI CFA_SP SP+6
        CFI CFA_Y Y+28
        CFI Block cfiCond139 Using cfiCommon0
        CFI (cfiCond139) NoFunction
        CFI (cfiCond139) Conditional ??CrossCallReturnLabel_92
        CFI (cfiCond139) R24 Frame(CFA_Y, -12)
        CFI (cfiCond139) R25 Frame(CFA_Y, -11)
        CFI (cfiCond139) R26 Frame(CFA_Y, -10)
        CFI (cfiCond139) R27 Frame(CFA_Y, -9)
        CFI (cfiCond139) R4 Frame(CFA_Y, -8)
        CFI (cfiCond139) R5 Frame(CFA_Y, -7)
        CFI (cfiCond139) R6 Frame(CFA_Y, -6)
        CFI (cfiCond139) R7 Frame(CFA_Y, -5)
        CFI (cfiCond139) R8 Frame(CFA_Y, -4)
        CFI (cfiCond139) R9 Frame(CFA_Y, -3)
        CFI (cfiCond139) R10 Frame(CFA_Y, -2)
        CFI (cfiCond139) R11 Frame(CFA_Y, -1)
        CFI (cfiCond139) CFA_SP SP+6
        CFI (cfiCond139) CFA_Y Y+12
        CFI Block cfiPicker140 Using cfiCommon1
        CFI (cfiPicker140) NoFunction
        CFI (cfiPicker140) Picker
        STD	Z+8, R16
        STD	Z+9, R17
        STD	Z+10, R18
        STD	Z+11, R19
        RET
        CFI EndBlock cfiCond138
        CFI EndBlock cfiCond139
        CFI EndBlock cfiPicker140

        RSEG FARCODE:CODE:NOROOT(1)
?Subroutine12:
        CFI Block cfiCond141 Using cfiCommon0
        CFI NoFunction
        CFI Conditional ??CrossCallReturnLabel_14
        CFI R24 Frame(CFA_Y, -13)
        CFI R25 Frame(CFA_Y, -12)
        CFI R26 Frame(CFA_Y, -11)
        CFI R27 Frame(CFA_Y, -10)
        CFI R4 Frame(CFA_Y, -9)
        CFI R5 Frame(CFA_Y, -8)
        CFI R6 Frame(CFA_Y, -7)
        CFI R7 Frame(CFA_Y, -6)
        CFI R8 Frame(CFA_Y, -5)
        CFI R9 Frame(CFA_Y, -4)
        CFI R10 Frame(CFA_Y, -3)
        CFI R11 Frame(CFA_Y, -2)
        CFI R12 Frame(CFA_Y, -1)
        CFI CFA_SP SP+6
        CFI CFA_Y Y+13
        CFI Block cfiCond142 Using cfiCommon0
        CFI (cfiCond142) NoFunction
        CFI (cfiCond142) Conditional ??CrossCallReturnLabel_15
        CFI (cfiCond142) R24 Frame(CFA_Y, -12)
        CFI (cfiCond142) R25 Frame(CFA_Y, -11)
        CFI (cfiCond142) R26 Frame(CFA_Y, -10)
        CFI (cfiCond142) R27 Frame(CFA_Y, -9)
        CFI (cfiCond142) R4 Frame(CFA_Y, -8)
        CFI (cfiCond142) R5 Frame(CFA_Y, -7)
        CFI (cfiCond142) R6 Frame(CFA_Y, -6)
        CFI (cfiCond142) R7 Frame(CFA_Y, -5)
        CFI (cfiCond142) R8 Frame(CFA_Y, -4)
        CFI (cfiCond142) R9 Frame(CFA_Y, -3)
        CFI (cfiCond142) R10 Frame(CFA_Y, -2)
        CFI (cfiCond142) R11 Frame(CFA_Y, -1)
        CFI (cfiCond142) CFA_SP SP+6
        CFI (cfiCond142) CFA_Y Y+12
        CFI Block cfiPicker143 Using cfiCommon1
        CFI (cfiPicker143) NoFunction
        CFI (cfiPicker143) Picker
        LDI	R16, 0
        RCALL	set_end_time
        SUBI	R16, 160
        SBCI	R17, 171
        RET
        CFI EndBlock cfiCond141
        CFI EndBlock cfiCond142
        CFI EndBlock cfiPicker143

        RSEG FARCODE:CODE:NOROOT(1)
?Subroutine11:
        CFI Block cfiCond144 Using cfiCommon0
        CFI NoFunction
        CFI Conditional ??CrossCallReturnLabel_12
        CFI R24 Frame(CFA_Y, -13)
        CFI R25 Frame(CFA_Y, -12)
        CFI R26 Frame(CFA_Y, -11)
        CFI R27 Frame(CFA_Y, -10)
        CFI R4 Frame(CFA_Y, -9)
        CFI R5 Frame(CFA_Y, -8)
        CFI R6 Frame(CFA_Y, -7)
        CFI R7 Frame(CFA_Y, -6)
        CFI R8 Frame(CFA_Y, -5)
        CFI R9 Frame(CFA_Y, -4)
        CFI R10 Frame(CFA_Y, -3)
        CFI R11 Frame(CFA_Y, -2)
        CFI R12 Frame(CFA_Y, -1)
        CFI CFA_SP SP+6
        CFI CFA_Y Y+13
        CFI Block cfiCond145 Using cfiCommon0
        CFI (cfiCond145) NoFunction
        CFI (cfiCond145) Conditional ??CrossCallReturnLabel_13
        CFI (cfiCond145) R24 Frame(CFA_Y, -12)
        CFI (cfiCond145) R25 Frame(CFA_Y, -11)
        CFI (cfiCond145) R26 Frame(CFA_Y, -10)
        CFI (cfiCond145) R27 Frame(CFA_Y, -9)
        CFI (cfiCond145) R4 Frame(CFA_Y, -8)
        CFI (cfiCond145) R5 Frame(CFA_Y, -7)
        CFI (cfiCond145) R6 Frame(CFA_Y, -6)
        CFI (cfiCond145) R7 Frame(CFA_Y, -5)
        CFI (cfiCond145) R8 Frame(CFA_Y, -4)
        CFI (cfiCond145) R9 Frame(CFA_Y, -3)
        CFI (cfiCond145) R10 Frame(CFA_Y, -2)
        CFI (cfiCond145) R11 Frame(CFA_Y, -1)
        CFI (cfiCond145) CFA_SP SP+6
        CFI (cfiCond145) CFA_Y Y+12
        CFI Block cfiPicker146 Using cfiCommon1
        CFI (cfiPicker146) NoFunction
        CFI (cfiPicker146) Picker
        LDI	R16, 0
        RCALL	set_end_time
        SUBI	R16, 192
        SBCI	R17, 199
        RET
        CFI EndBlock cfiCond144
        CFI EndBlock cfiCond145
        CFI EndBlock cfiPicker146

        RSEG FARCODE:CODE:NOROOT(1)
?Subroutine10:
        CFI Block cfiCond147 Using cfiCommon0
        CFI NoFunction
        CFI Conditional ??CrossCallReturnLabel_10
        CFI R24 Frame(CFA_Y, -13)
        CFI R25 Frame(CFA_Y, -12)
        CFI R26 Frame(CFA_Y, -11)
        CFI R27 Frame(CFA_Y, -10)
        CFI R4 Frame(CFA_Y, -9)
        CFI R5 Frame(CFA_Y, -8)
        CFI R6 Frame(CFA_Y, -7)
        CFI R7 Frame(CFA_Y, -6)
        CFI R8 Frame(CFA_Y, -5)
        CFI R9 Frame(CFA_Y, -4)
        CFI R10 Frame(CFA_Y, -3)
        CFI R11 Frame(CFA_Y, -2)
        CFI R12 Frame(CFA_Y, -1)
        CFI CFA_SP SP+6
        CFI CFA_Y Y+13
        CFI Block cfiCond148 Using cfiCommon0
        CFI (cfiCond148) NoFunction
        CFI (cfiCond148) Conditional ??CrossCallReturnLabel_11
        CFI (cfiCond148) R24 Frame(CFA_Y, -12)
        CFI (cfiCond148) R25 Frame(CFA_Y, -11)
        CFI (cfiCond148) R26 Frame(CFA_Y, -10)
        CFI (cfiCond148) R27 Frame(CFA_Y, -9)
        CFI (cfiCond148) R4 Frame(CFA_Y, -8)
        CFI (cfiCond148) R5 Frame(CFA_Y, -7)
        CFI (cfiCond148) R6 Frame(CFA_Y, -6)
        CFI (cfiCond148) R7 Frame(CFA_Y, -5)
        CFI (cfiCond148) R8 Frame(CFA_Y, -4)
        CFI (cfiCond148) R9 Frame(CFA_Y, -3)
        CFI (cfiCond148) R10 Frame(CFA_Y, -2)
        CFI (cfiCond148) R11 Frame(CFA_Y, -1)
        CFI (cfiCond148) CFA_SP SP+6
        CFI (cfiCond148) CFA_Y Y+12
        CFI Block cfiPicker149 Using cfiCommon1
        CFI (cfiPicker149) NoFunction
        CFI (cfiPicker149) Picker
        LDI	R16, 0
        RCALL	set_end_time
        SUBI	R16, 224
        SBCI	R17, 227
        RET
        CFI EndBlock cfiCond147
        CFI EndBlock cfiCond148
        CFI EndBlock cfiPicker149

        RSEG FARCODE:CODE:NOROOT(1)
?Subroutine9:
        CFI Block cfiCond150 Using cfiCommon0
        CFI NoFunction
        CFI Conditional ??CrossCallReturnLabel_8
        CFI R24 Frame(CFA_Y, -13)
        CFI R25 Frame(CFA_Y, -12)
        CFI R26 Frame(CFA_Y, -11)
        CFI R27 Frame(CFA_Y, -10)
        CFI R4 Frame(CFA_Y, -9)
        CFI R5 Frame(CFA_Y, -8)
        CFI R6 Frame(CFA_Y, -7)
        CFI R7 Frame(CFA_Y, -6)
        CFI R8 Frame(CFA_Y, -5)
        CFI R9 Frame(CFA_Y, -4)
        CFI R10 Frame(CFA_Y, -3)
        CFI R11 Frame(CFA_Y, -2)
        CFI R12 Frame(CFA_Y, -1)
        CFI CFA_SP SP+6
        CFI CFA_Y Y+13
        CFI Block cfiCond151 Using cfiCommon0
        CFI (cfiCond151) NoFunction
        CFI (cfiCond151) Conditional ??CrossCallReturnLabel_9
        CFI (cfiCond151) R24 Frame(CFA_Y, -12)
        CFI (cfiCond151) R25 Frame(CFA_Y, -11)
        CFI (cfiCond151) R26 Frame(CFA_Y, -10)
        CFI (cfiCond151) R27 Frame(CFA_Y, -9)
        CFI (cfiCond151) R4 Frame(CFA_Y, -8)
        CFI (cfiCond151) R5 Frame(CFA_Y, -7)
        CFI (cfiCond151) R6 Frame(CFA_Y, -6)
        CFI (cfiCond151) R7 Frame(CFA_Y, -5)
        CFI (cfiCond151) R8 Frame(CFA_Y, -4)
        CFI (cfiCond151) R9 Frame(CFA_Y, -3)
        CFI (cfiCond151) R10 Frame(CFA_Y, -2)
        CFI (cfiCond151) R11 Frame(CFA_Y, -1)
        CFI (cfiCond151) CFA_SP SP+6
        CFI (cfiCond151) CFA_Y Y+12
        CFI Block cfiPicker152 Using cfiCommon1
        CFI (cfiPicker152) NoFunction
        CFI (cfiPicker152) Picker
        LDI	R16, 0
        RCALL	set_end_time
        SUBI	R16, 240
        SBCI	R17, 241
        RET
        CFI EndBlock cfiCond150
        CFI EndBlock cfiCond151
        CFI EndBlock cfiPicker152

        RSEG FARCODE:CODE:NOROOT(1)
?Subroutine4:
        CFI Block cfiCond153 Using cfiCommon0
        CFI NoFunction
        CFI Conditional ??CrossCallReturnLabel_279
        CFI R24 Frame(CFA_Y, -13)
        CFI R25 Frame(CFA_Y, -12)
        CFI R26 Frame(CFA_Y, -11)
        CFI R27 Frame(CFA_Y, -10)
        CFI R4 Frame(CFA_Y, -9)
        CFI R5 Frame(CFA_Y, -8)
        CFI R6 Frame(CFA_Y, -7)
        CFI R7 Frame(CFA_Y, -6)
        CFI R8 Frame(CFA_Y, -5)
        CFI R9 Frame(CFA_Y, -4)
        CFI R10 Frame(CFA_Y, -3)
        CFI R11 Frame(CFA_Y, -2)
        CFI R12 Frame(CFA_Y, -1)
        CFI CFA_SP SP+6
        CFI CFA_Y Y+13
        CFI Block cfiCond154 Using cfiCommon0
        CFI (cfiCond154) NoFunction
        CFI (cfiCond154) Conditional ??CrossCallReturnLabel_280
        CFI (cfiCond154) R24 Frame(CFA_Y, -12)
        CFI (cfiCond154) R25 Frame(CFA_Y, -11)
        CFI (cfiCond154) R26 Frame(CFA_Y, -10)
        CFI (cfiCond154) R27 Frame(CFA_Y, -9)
        CFI (cfiCond154) R4 Frame(CFA_Y, -8)
        CFI (cfiCond154) R5 Frame(CFA_Y, -7)
        CFI (cfiCond154) R6 Frame(CFA_Y, -6)
        CFI (cfiCond154) R7 Frame(CFA_Y, -5)
        CFI (cfiCond154) R8 Frame(CFA_Y, -4)
        CFI (cfiCond154) R9 Frame(CFA_Y, -3)
        CFI (cfiCond154) R10 Frame(CFA_Y, -2)
        CFI (cfiCond154) R11 Frame(CFA_Y, -1)
        CFI (cfiCond154) CFA_SP SP+6
        CFI (cfiCond154) CFA_Y Y+12
        CFI Block cfiPicker155 Using cfiCommon1
        CFI (cfiPicker155) NoFunction
        CFI (cfiPicker155) Picker
        LD	R16, Z
        LDI	R17, 0
        LDI	R18, 0
        LDI	R19, 0
        LDD	R20, Z+1
        LDI	R22, 0
        ANDI	R20, 0x07
        LDI	R23, 0
        MOV	R21, R20
        MOV	R20, R16
        LDI	R16, 60
        CFI EndBlock cfiCond153
        CFI EndBlock cfiCond154
        CFI EndBlock cfiPicker155
        REQUIRE ?Subroutine123
        ;		// Fall through to label ?Subroutine123

        RSEG FARCODE:CODE:NOROOT(1)
?Subroutine123:
        CFI Block cfiCond156 Using cfiCommon0
        CFI NoFunction
        CFI Conditional ??CrossCallReturnLabel_279
        CFI R24 Frame(CFA_Y, -13)
        CFI R25 Frame(CFA_Y, -12)
        CFI R26 Frame(CFA_Y, -11)
        CFI R27 Frame(CFA_Y, -10)
        CFI R4 Frame(CFA_Y, -9)
        CFI R5 Frame(CFA_Y, -8)
        CFI R6 Frame(CFA_Y, -7)
        CFI R7 Frame(CFA_Y, -6)
        CFI R8 Frame(CFA_Y, -5)
        CFI R9 Frame(CFA_Y, -4)
        CFI R10 Frame(CFA_Y, -3)
        CFI R11 Frame(CFA_Y, -2)
        CFI R12 Frame(CFA_Y, -1)
        CFI CFA_SP SP+6
        CFI CFA_Y Y+13
        CFI Block cfiCond157 Using cfiCommon0
        CFI (cfiCond157) NoFunction
        CFI (cfiCond157) Conditional ??CrossCallReturnLabel_280
        CFI (cfiCond157) R24 Frame(CFA_Y, -12)
        CFI (cfiCond157) R25 Frame(CFA_Y, -11)
        CFI (cfiCond157) R26 Frame(CFA_Y, -10)
        CFI (cfiCond157) R27 Frame(CFA_Y, -9)
        CFI (cfiCond157) R4 Frame(CFA_Y, -8)
        CFI (cfiCond157) R5 Frame(CFA_Y, -7)
        CFI (cfiCond157) R6 Frame(CFA_Y, -6)
        CFI (cfiCond157) R7 Frame(CFA_Y, -5)
        CFI (cfiCond157) R8 Frame(CFA_Y, -4)
        CFI (cfiCond157) R9 Frame(CFA_Y, -3)
        CFI (cfiCond157) R10 Frame(CFA_Y, -2)
        CFI (cfiCond157) R11 Frame(CFA_Y, -1)
        CFI (cfiCond157) CFA_SP SP+6
        CFI (cfiCond157) CFA_Y Y+12
        CFI Block cfiCond158 Using cfiCommon0
        CFI (cfiCond158) NoFunction
        CFI (cfiCond158) Conditional ??CrossCallReturnLabel_281
        CFI (cfiCond158) R24 Frame(CFA_Y, -16)
        CFI (cfiCond158) R25 Frame(CFA_Y, -15)
        CFI (cfiCond158) R26 Frame(CFA_Y, -14)
        CFI (cfiCond158) R27 Frame(CFA_Y, -13)
        CFI (cfiCond158) R4 Frame(CFA_Y, -12)
        CFI (cfiCond158) R5 Frame(CFA_Y, -11)
        CFI (cfiCond158) R6 Frame(CFA_Y, -10)
        CFI (cfiCond158) R7 Frame(CFA_Y, -9)
        CFI (cfiCond158) R8 Frame(CFA_Y, -8)
        CFI (cfiCond158) R9 Frame(CFA_Y, -7)
        CFI (cfiCond158) R10 Frame(CFA_Y, -6)
        CFI (cfiCond158) R11 Frame(CFA_Y, -5)
        CFI (cfiCond158) R12 Frame(CFA_Y, -4)
        CFI (cfiCond158) R13 Frame(CFA_Y, -3)
        CFI (cfiCond158) R14 Frame(CFA_Y, -2)
        CFI (cfiCond158) R15 Frame(CFA_Y, -1)
        CFI (cfiCond158) CFA_SP SP+6
        CFI (cfiCond158) CFA_Y Y+34
        CFI Block cfiCond159 Using cfiCommon0
        CFI (cfiCond159) NoFunction
        CFI (cfiCond159) Conditional ??CrossCallReturnLabel_282
        CFI (cfiCond159) R24 Frame(CFA_Y, -16)
        CFI (cfiCond159) R25 Frame(CFA_Y, -15)
        CFI (cfiCond159) R26 Frame(CFA_Y, -14)
        CFI (cfiCond159) R27 Frame(CFA_Y, -13)
        CFI (cfiCond159) R4 Frame(CFA_Y, -12)
        CFI (cfiCond159) R5 Frame(CFA_Y, -11)
        CFI (cfiCond159) R6 Frame(CFA_Y, -10)
        CFI (cfiCond159) R7 Frame(CFA_Y, -9)
        CFI (cfiCond159) R8 Frame(CFA_Y, -8)
        CFI (cfiCond159) R9 Frame(CFA_Y, -7)
        CFI (cfiCond159) R10 Frame(CFA_Y, -6)
        CFI (cfiCond159) R11 Frame(CFA_Y, -5)
        CFI (cfiCond159) R12 Frame(CFA_Y, -4)
        CFI (cfiCond159) R13 Frame(CFA_Y, -3)
        CFI (cfiCond159) R14 Frame(CFA_Y, -2)
        CFI (cfiCond159) R15 Frame(CFA_Y, -1)
        CFI (cfiCond159) CFA_SP SP+6
        CFI (cfiCond159) CFA_Y Y+34
        CFI Block cfiPicker160 Using cfiCommon1
        CFI (cfiPicker160) NoFunction
        CFI (cfiPicker160) Picker
        JMP	?L_EC_MUL_L03
        CFI EndBlock cfiCond156
        CFI EndBlock cfiCond157
        CFI EndBlock cfiCond158
        CFI EndBlock cfiCond159
        CFI EndBlock cfiPicker160

        RSEG FARCODE:CODE:NOROOT(1)
?Subroutine1:
        CFI Block cfiCond161 Using cfiCommon0
        CFI NoFunction
        CFI Conditional ??CrossCallReturnLabel_0
        CFI R24 Frame(CFA_Y, -13)
        CFI R25 Frame(CFA_Y, -12)
        CFI R26 Frame(CFA_Y, -11)
        CFI R27 Frame(CFA_Y, -10)
        CFI R4 Frame(CFA_Y, -9)
        CFI R5 Frame(CFA_Y, -8)
        CFI R6 Frame(CFA_Y, -7)
        CFI R7 Frame(CFA_Y, -6)
        CFI R8 Frame(CFA_Y, -5)
        CFI R9 Frame(CFA_Y, -4)
        CFI R10 Frame(CFA_Y, -3)
        CFI R11 Frame(CFA_Y, -2)
        CFI R12 Frame(CFA_Y, -1)
        CFI CFA_SP SP+6
        CFI CFA_Y Y+13
        CFI Block cfiCond162 Using cfiCommon0
        CFI (cfiCond162) NoFunction
        CFI (cfiCond162) Conditional ??CrossCallReturnLabel_1
        CFI (cfiCond162) R24 Frame(CFA_Y, -12)
        CFI (cfiCond162) R25 Frame(CFA_Y, -11)
        CFI (cfiCond162) R26 Frame(CFA_Y, -10)
        CFI (cfiCond162) R27 Frame(CFA_Y, -9)
        CFI (cfiCond162) R4 Frame(CFA_Y, -8)
        CFI (cfiCond162) R5 Frame(CFA_Y, -7)
        CFI (cfiCond162) R6 Frame(CFA_Y, -6)
        CFI (cfiCond162) R7 Frame(CFA_Y, -5)
        CFI (cfiCond162) R8 Frame(CFA_Y, -4)
        CFI (cfiCond162) R9 Frame(CFA_Y, -3)
        CFI (cfiCond162) R10 Frame(CFA_Y, -2)
        CFI (cfiCond162) R11 Frame(CFA_Y, -1)
        CFI (cfiCond162) CFA_SP SP+6
        CFI (cfiCond162) CFA_Y Y+12
        CFI Block cfiPicker163 Using cfiCommon1
        CFI (cfiPicker163) NoFunction
        CFI (cfiPicker163) Picker
        LDD	R16, Z+36
        LDI	R17, 0
        LDI	R18, 0
        LDI	R19, 0
        ADD	R16, R20
        ADC	R17, R21
        ADC	R18, R22
        ADC	R19, R23
        LDI	R30, LOW(unix)
        LDI	R31, (unix) >> 8
        LD	R20, Z
        LDD	R21, Z+1
        LDD	R22, Z+2
        LDD	R23, Z+3
        CP	R20, R16
        CPC	R21, R17
        CPC	R22, R18
        CPC	R23, R19
        RET
        CFI EndBlock cfiCond161
        CFI EndBlock cfiCond162
        CFI EndBlock cfiPicker163
//  786 
//  787 
//  788     
//  789 ////////////////////// 

        RSEG FARCODE:CODE:NOROOT(1)
//  790 unsigned long int set_end_time(char mi,char ch,char da,char ma,char ye)
set_end_time:
        CFI Block cfiBlock164 Using cfiCommon0
        CFI Function set_end_time
//  791 { unsigned long int sek_32;
        CALL	?PROLOGUE9_L09
        CFI R8 Frame(CFA_Y, -1)
        CFI R7 Frame(CFA_Y, -2)
        CFI R6 Frame(CFA_Y, -3)
        CFI R5 Frame(CFA_Y, -4)
        CFI R4 Frame(CFA_Y, -5)
        CFI R27 Frame(CFA_Y, -6)
        CFI R26 Frame(CFA_Y, -7)
        CFI R25 Frame(CFA_Y, -8)
        CFI R24 Frame(CFA_Y, -9)
        CFI CFA_Y Y+9
        REQUIRE	?Register_R4_is_cg_reg
        REQUIRE	?Register_R6_is_cg_reg
        REQUIRE	?Register_R8_is_cg_reg
        MOV	R6, R16
        MOV	R4, R17
        MOV	R8, R18
        MOV	R24, R19
        MOV	R26, R20
//  792   struct
//  793         { // в двоичном коде
//  794           char r_sec;
//  795           char r_min;
//  796           char r_hor;
//  797           char r_day;
//  798           char r_date;
//  799           char r_month;
//  800           char r_year;
//  801           char r_control;
//  802         }  real_time;   
//  803          
//  804         real_time.r_sec=0;
//  805         real_time.r_min=mi;
//  806         real_time.r_hor=ch;
//  807         real_time.r_date=da;
//  808         real_time.r_month=ma;
//  809         real_time.r_year=ye; 
//  810   
//  811    sek_32 = ( ( (unsigned long int)real_time.r_year * 365 ) + (real_time.r_year>>2) );
        RCALL	?Subroutine5
//  812    
//  813      switch ( real_time.r_month )
??CrossCallReturnLabel_209:
        MOV	R16, R8
        RCALL	?Subroutine37
??CrossCallReturnLabel_42:
        BREQ	??set_end_time_0
        DEC	R30
        BREQ	??set_end_time_1
        DEC	R30
        BREQ	??set_end_time_2
        DEC	R30
        BREQ	??set_end_time_3
        DEC	R30
        BREQ	??set_end_time_4
        DEC	R30
        BREQ	??set_end_time_5
        DEC	R30
        BREQ	??set_end_time_6
        DEC	R30
        BREQ	??set_end_time_7
        DEC	R30
        BREQ	??set_end_time_8
        DEC	R30
        BREQ	??set_end_time_9
        DEC	R30
        BREQ	??set_end_time_10
//  814          {
//  815           case 1: sek_32 = (sek_32 + real_time.r_date); break;
        ADD	R20, R8
        ADC	R21, R19
        RJMP	??set_end_time_11
//  816           case 2: sek_32 = (sek_32 + real_time.r_date + 31); break;
??set_end_time_0:
        SUBI	R16, 225
??set_end_time_12:
        SBCI	R17, 255
        RJMP	??set_end_time_13
//  817           case 3: sek_32 = (sek_32 + real_time.r_date + 59); break;
??set_end_time_1:
        SUBI	R16, 197
        RJMP	??set_end_time_12
//  818           case 4: sek_32 = (sek_32 + real_time.r_date + 90); break;
??set_end_time_2:
        SUBI	R16, 166
        RJMP	??set_end_time_12
//  819           case 5: sek_32 = (sek_32 + real_time.r_date + 120); break;
??set_end_time_3:
        SUBI	R16, 136
        RJMP	??set_end_time_12
//  820           case 6: sek_32 = (sek_32 + real_time.r_date + 151); break;
??set_end_time_4:
        SUBI	R16, 105
        RJMP	??set_end_time_12
//  821           case 7: sek_32 = (sek_32 + real_time.r_date + 181); break;
??set_end_time_5:
        SUBI	R16, 75
        RJMP	??set_end_time_12
//  822           case 8: sek_32 = (sek_32 + real_time.r_date + 212); break;
??set_end_time_6:
        SUBI	R16, 44
        RJMP	??set_end_time_12
//  823           case 9: sek_32 = (sek_32 + real_time.r_date + 243); break;
??set_end_time_7:
        SUBI	R16, 13
        RJMP	??set_end_time_12
//  824           case 10: sek_32 = (sek_32 + real_time.r_date + 273); break;
??set_end_time_8:
        SUBI	R16, 239
        RJMP	??set_end_time_14
//  825           case 11: sek_32 = (sek_32 + real_time.r_date + 304); break;
??set_end_time_9:
        SUBI	R16, 208
        RJMP	??set_end_time_14
//  826           case 12: sek_32 = (sek_32 + real_time.r_date + 334); break;
??set_end_time_10:
        SUBI	R16, 178
??set_end_time_14:
        SBCI	R17, 254
??set_end_time_13:
        ADD	R20, R16
        ADC	R21, R17
??set_end_time_11:
        ADC	R22, R19
        ADC	R23, R19
//  827           default:
//  828           sek_32 = (sek_32 + real_time.r_date);
//  829          }
//  830     if ( (real_time.r_year & 0x03) == 0 )
        ANDI	R26, 0x03
        BRNE	??CrossCallReturnLabel_111
//  831          {
//  832           if (real_time.r_month < 3) sek_32--;
        CPI	R24, 3
        BRCC	??CrossCallReturnLabel_111
        RCALL	?Subroutine71
//  833          }
//  834   sek_32 = ((sek_32 * 86400)+((unsigned long int)real_time.r_hor * 3600)+((unsigned long int)real_time.r_min * 60)+real_time.r_sec );
//  835   sek_32=sek_32+2;   // чтобы избежать 00 часов
//  836    return sek_32;
??CrossCallReturnLabel_111:
        RCALL	?Subroutine78
??CrossCallReturnLabel_234:
        MOV	R20, R4
        RCALL	?Subroutine6
??CrossCallReturnLabel_232:
        MOV	R20, R6
        RCALL	?Subroutine7
??CrossCallReturnLabel_5:
        RCALL	?Subroutine76
        CFI EndBlock cfiBlock164
??CrossCallReturnLabel_117:
        REQUIRE ?Subroutine124
        ;		// Fall through to label ?Subroutine124
//  837 } 

        RSEG FARCODE:CODE:NOROOT(1)
?Subroutine124:
        CFI Block cfiBlock165 Using cfiCommon0
        CFI NoFunction
        CFI CFA_Y Y+9
        CFI R4 Frame(CFA_Y, -5)
        CFI R5 Frame(CFA_Y, -4)
        CFI R6 Frame(CFA_Y, -3)
        CFI R7 Frame(CFA_Y, -2)
        CFI R8 Frame(CFA_Y, -1)
        CFI R24 Frame(CFA_Y, -9)
        CFI R25 Frame(CFA_Y, -8)
        CFI R26 Frame(CFA_Y, -7)
        CFI R27 Frame(CFA_Y, -6)
        LDI	R30, 9
        JMP	?EPILOGUE_B9_L09
        CFI EndBlock cfiBlock165

        RSEG FARCODE:CODE:NOROOT(1)
?Subroutine78:
        CFI Block cfiCond166 Using cfiCommon0
        CFI NoFunction
        CFI Conditional ??CrossCallReturnLabel_233
        CFI R24 Frame(CFA_Y, -5)
        CFI R25 Frame(CFA_Y, -4)
        CFI R26 Frame(CFA_Y, -3)
        CFI R27 Frame(CFA_Y, -2)
        CFI R4 Frame(CFA_Y, -1)
        CFI CFA_SP SP+6
        CFI CFA_Y Y+5
        CFI Block cfiCond167 Using cfiCommon0
        CFI (cfiCond167) NoFunction
        CFI (cfiCond167) Conditional ??CrossCallReturnLabel_234
        CFI (cfiCond167) R24 Frame(CFA_Y, -9)
        CFI (cfiCond167) R25 Frame(CFA_Y, -8)
        CFI (cfiCond167) R26 Frame(CFA_Y, -7)
        CFI (cfiCond167) R27 Frame(CFA_Y, -6)
        CFI (cfiCond167) R4 Frame(CFA_Y, -5)
        CFI (cfiCond167) R5 Frame(CFA_Y, -4)
        CFI (cfiCond167) R6 Frame(CFA_Y, -3)
        CFI (cfiCond167) R7 Frame(CFA_Y, -2)
        CFI (cfiCond167) R8 Frame(CFA_Y, -1)
        CFI (cfiCond167) CFA_SP SP+6
        CFI (cfiCond167) CFA_Y Y+9
        CFI Block cfiPicker168 Using cfiCommon1
        CFI (cfiPicker168) NoFunction
        CFI (cfiPicker168) Picker
        LDI	R16, 128
        LDI	R17, 81
        LDI	R18, 1
        CALL	?L_EC_MUL_L03
        CFI EndBlock cfiCond166
        CFI EndBlock cfiCond167
        CFI EndBlock cfiPicker168
        REQUIRE ?Subroutine111
        ;		// Fall through to label ?Subroutine111

        RSEG FARCODE:CODE:NOROOT(1)
?Subroutine111:
        CFI Block cfiCond169 Using cfiCommon0
        CFI NoFunction
        CFI Conditional ??CrossCallReturnLabel_233
        CFI R24 Frame(CFA_Y, -5)
        CFI R25 Frame(CFA_Y, -4)
        CFI R26 Frame(CFA_Y, -3)
        CFI R27 Frame(CFA_Y, -2)
        CFI R4 Frame(CFA_Y, -1)
        CFI CFA_SP SP+6
        CFI CFA_Y Y+5
        CFI Block cfiCond170 Using cfiCommon0
        CFI (cfiCond170) NoFunction
        CFI (cfiCond170) Conditional ??CrossCallReturnLabel_234
        CFI (cfiCond170) R24 Frame(CFA_Y, -9)
        CFI (cfiCond170) R25 Frame(CFA_Y, -8)
        CFI (cfiCond170) R26 Frame(CFA_Y, -7)
        CFI (cfiCond170) R27 Frame(CFA_Y, -6)
        CFI (cfiCond170) R4 Frame(CFA_Y, -5)
        CFI (cfiCond170) R5 Frame(CFA_Y, -4)
        CFI (cfiCond170) R6 Frame(CFA_Y, -3)
        CFI (cfiCond170) R7 Frame(CFA_Y, -2)
        CFI (cfiCond170) R8 Frame(CFA_Y, -1)
        CFI (cfiCond170) CFA_SP SP+6
        CFI (cfiCond170) CFA_Y Y+9
        CFI Block cfiCond171 Using cfiCommon0
        CFI (cfiCond171) NoFunction
        CFI (cfiCond171) Conditional ??CrossCallReturnLabel_231
        CFI (cfiCond171) R24 Frame(CFA_Y, -5)
        CFI (cfiCond171) R25 Frame(CFA_Y, -4)
        CFI (cfiCond171) R26 Frame(CFA_Y, -3)
        CFI (cfiCond171) R27 Frame(CFA_Y, -2)
        CFI (cfiCond171) R4 Frame(CFA_Y, -1)
        CFI (cfiCond171) CFA_SP SP+6
        CFI (cfiCond171) CFA_Y Y+5
        CFI Block cfiCond172 Using cfiCommon0
        CFI (cfiCond172) NoFunction
        CFI (cfiCond172) Conditional ??CrossCallReturnLabel_232
        CFI (cfiCond172) R24 Frame(CFA_Y, -9)
        CFI (cfiCond172) R25 Frame(CFA_Y, -8)
        CFI (cfiCond172) R26 Frame(CFA_Y, -7)
        CFI (cfiCond172) R27 Frame(CFA_Y, -6)
        CFI (cfiCond172) R4 Frame(CFA_Y, -5)
        CFI (cfiCond172) R5 Frame(CFA_Y, -4)
        CFI (cfiCond172) R6 Frame(CFA_Y, -3)
        CFI (cfiCond172) R7 Frame(CFA_Y, -2)
        CFI (cfiCond172) R8 Frame(CFA_Y, -1)
        CFI (cfiCond172) CFA_SP SP+6
        CFI (cfiCond172) CFA_Y Y+9
        CFI Block cfiPicker173 Using cfiCommon1
        CFI (cfiPicker173) NoFunction
        CFI (cfiPicker173) Picker
        MOVW	R25:R24, R17:R16
        MOVW	R27:R26, R19:R18
        RET
        CFI EndBlock cfiCond169
        CFI EndBlock cfiCond170
        CFI EndBlock cfiCond171
        CFI EndBlock cfiCond172
        CFI EndBlock cfiPicker173

        RSEG FARCODE:CODE:NOROOT(1)
?Subroutine76:
        CFI Block cfiCond174 Using cfiCommon0
        CFI NoFunction
        CFI Conditional ??CrossCallReturnLabel_116
        CFI R24 Frame(CFA_Y, -6)
        CFI R25 Frame(CFA_Y, -5)
        CFI R26 Frame(CFA_Y, -4)
        CFI R27 Frame(CFA_Y, -3)
        CFI R4 Frame(CFA_Y, -2)
        CFI R5 Frame(CFA_Y, -1)
        CFI CFA_SP SP+6
        CFI CFA_Y Y+28
        CFI Block cfiCond175 Using cfiCommon0
        CFI (cfiCond175) NoFunction
        CFI (cfiCond175) Conditional ??CrossCallReturnLabel_117
        CFI (cfiCond175) R24 Frame(CFA_Y, -9)
        CFI (cfiCond175) R25 Frame(CFA_Y, -8)
        CFI (cfiCond175) R26 Frame(CFA_Y, -7)
        CFI (cfiCond175) R27 Frame(CFA_Y, -6)
        CFI (cfiCond175) R4 Frame(CFA_Y, -5)
        CFI (cfiCond175) R5 Frame(CFA_Y, -4)
        CFI (cfiCond175) R6 Frame(CFA_Y, -3)
        CFI (cfiCond175) R7 Frame(CFA_Y, -2)
        CFI (cfiCond175) R8 Frame(CFA_Y, -1)
        CFI (cfiCond175) CFA_SP SP+6
        CFI (cfiCond175) CFA_Y Y+9
        CFI Block cfiPicker176 Using cfiCommon1
        CFI (cfiPicker176) NoFunction
        CFI (cfiPicker176) Picker
        SUBI	R16, 254
        SBCI	R17, 255
        SBCI	R18, 255
        SBCI	R19, 255
        RET
        CFI EndBlock cfiCond174
        CFI EndBlock cfiCond175
        CFI EndBlock cfiPicker176

        RSEG FARCODE:CODE:NOROOT(1)
?Subroutine37:
        CFI Block cfiCond177 Using cfiCommon0
        CFI NoFunction
        CFI Conditional ??CrossCallReturnLabel_41
        CFI R24 Frame(CFA_Y, -5)
        CFI R25 Frame(CFA_Y, -4)
        CFI R26 Frame(CFA_Y, -3)
        CFI R27 Frame(CFA_Y, -2)
        CFI R4 Frame(CFA_Y, -1)
        CFI CFA_SP SP+6
        CFI CFA_Y Y+5
        CFI Block cfiCond178 Using cfiCommon0
        CFI (cfiCond178) NoFunction
        CFI (cfiCond178) Conditional ??CrossCallReturnLabel_42
        CFI (cfiCond178) R24 Frame(CFA_Y, -9)
        CFI (cfiCond178) R25 Frame(CFA_Y, -8)
        CFI (cfiCond178) R26 Frame(CFA_Y, -7)
        CFI (cfiCond178) R27 Frame(CFA_Y, -6)
        CFI (cfiCond178) R4 Frame(CFA_Y, -5)
        CFI (cfiCond178) R5 Frame(CFA_Y, -4)
        CFI (cfiCond178) R6 Frame(CFA_Y, -3)
        CFI (cfiCond178) R7 Frame(CFA_Y, -2)
        CFI (cfiCond178) R8 Frame(CFA_Y, -1)
        CFI (cfiCond178) CFA_SP SP+6
        CFI (cfiCond178) CFA_Y Y+9
        CFI Block cfiPicker179 Using cfiCommon1
        CFI (cfiPicker179) NoFunction
        CFI (cfiPicker179) Picker
        LDI	R17, 0
        LDI	R19, 0
        MOV	R30, R24
        SUBI	R30, 2
        RET
        CFI EndBlock cfiCond177
        CFI EndBlock cfiCond178
        CFI EndBlock cfiPicker179

        RSEG FARCODE:CODE:NOROOT(1)
?Subroutine7:
        CFI Block cfiCond180 Using cfiCommon0
        CFI NoFunction
        CFI Conditional ??CrossCallReturnLabel_4
        CFI R24 Frame(CFA_Y, -5)
        CFI R25 Frame(CFA_Y, -4)
        CFI R26 Frame(CFA_Y, -3)
        CFI R27 Frame(CFA_Y, -2)
        CFI R4 Frame(CFA_Y, -1)
        CFI CFA_SP SP+6
        CFI CFA_Y Y+5
        CFI Block cfiCond181 Using cfiCommon0
        CFI (cfiCond181) NoFunction
        CFI (cfiCond181) Conditional ??CrossCallReturnLabel_5
        CFI (cfiCond181) R24 Frame(CFA_Y, -9)
        CFI (cfiCond181) R25 Frame(CFA_Y, -8)
        CFI (cfiCond181) R26 Frame(CFA_Y, -7)
        CFI (cfiCond181) R27 Frame(CFA_Y, -6)
        CFI (cfiCond181) R4 Frame(CFA_Y, -5)
        CFI (cfiCond181) R5 Frame(CFA_Y, -4)
        CFI (cfiCond181) R6 Frame(CFA_Y, -3)
        CFI (cfiCond181) R7 Frame(CFA_Y, -2)
        CFI (cfiCond181) R8 Frame(CFA_Y, -1)
        CFI (cfiCond181) CFA_SP SP+6
        CFI (cfiCond181) CFA_Y Y+9
        CFI Block cfiPicker182 Using cfiCommon1
        CFI (cfiPicker182) NoFunction
        CFI (cfiPicker182) Picker
        LDI	R16, 60
        LDI	R17, 0
        LDI	R18, 0
        LDI	R19, 0
        CALL	?L_EC_MUL_L03
        ADD	R16, R24
        ADC	R17, R25
        ADC	R18, R26
        ADC	R19, R27
        RET
        CFI EndBlock cfiCond180
        CFI EndBlock cfiCond181
        CFI EndBlock cfiPicker182

        RSEG FARCODE:CODE:NOROOT(1)
?Subroutine6:
        CFI Block cfiCond183 Using cfiCommon0
        CFI NoFunction
        CFI Conditional ??CrossCallReturnLabel_231
        CFI R24 Frame(CFA_Y, -5)
        CFI R25 Frame(CFA_Y, -4)
        CFI R26 Frame(CFA_Y, -3)
        CFI R27 Frame(CFA_Y, -2)
        CFI R4 Frame(CFA_Y, -1)
        CFI CFA_SP SP+6
        CFI CFA_Y Y+5
        CFI Block cfiCond184 Using cfiCommon0
        CFI (cfiCond184) NoFunction
        CFI (cfiCond184) Conditional ??CrossCallReturnLabel_232
        CFI (cfiCond184) R24 Frame(CFA_Y, -9)
        CFI (cfiCond184) R25 Frame(CFA_Y, -8)
        CFI (cfiCond184) R26 Frame(CFA_Y, -7)
        CFI (cfiCond184) R27 Frame(CFA_Y, -6)
        CFI (cfiCond184) R4 Frame(CFA_Y, -5)
        CFI (cfiCond184) R5 Frame(CFA_Y, -4)
        CFI (cfiCond184) R6 Frame(CFA_Y, -3)
        CFI (cfiCond184) R7 Frame(CFA_Y, -2)
        CFI (cfiCond184) R8 Frame(CFA_Y, -1)
        CFI (cfiCond184) CFA_SP SP+6
        CFI (cfiCond184) CFA_Y Y+9
        CFI Block cfiPicker185 Using cfiCommon1
        CFI (cfiPicker185) NoFunction
        CFI (cfiPicker185) Picker
        LDI	R21, 0
        LDI	R22, 0
        LDI	R23, 0
        LDI	R16, 16
        LDI	R17, 14
        LDI	R18, 0
        LDI	R19, 0
        CALL	?L_EC_MUL_L03
        ADD	R16, R24
        ADC	R17, R25
        ADC	R18, R26
        ADC	R19, R27
        RJMP	?Subroutine111
        CFI EndBlock cfiCond183
        CFI EndBlock cfiCond184
        CFI EndBlock cfiPicker185

        RSEG FARCODE:CODE:NOROOT(1)
?Subroutine5:
        CFI Block cfiCond186 Using cfiCommon0
        CFI NoFunction
        CFI Conditional ??CrossCallReturnLabel_208
        CFI R24 Frame(CFA_Y, -5)
        CFI R25 Frame(CFA_Y, -4)
        CFI R26 Frame(CFA_Y, -3)
        CFI R27 Frame(CFA_Y, -2)
        CFI R4 Frame(CFA_Y, -1)
        CFI CFA_SP SP+6
        CFI CFA_Y Y+5
        CFI Block cfiCond187 Using cfiCommon0
        CFI (cfiCond187) NoFunction
        CFI (cfiCond187) Conditional ??CrossCallReturnLabel_209
        CFI (cfiCond187) R24 Frame(CFA_Y, -9)
        CFI (cfiCond187) R25 Frame(CFA_Y, -8)
        CFI (cfiCond187) R26 Frame(CFA_Y, -7)
        CFI (cfiCond187) R27 Frame(CFA_Y, -6)
        CFI (cfiCond187) R4 Frame(CFA_Y, -5)
        CFI (cfiCond187) R5 Frame(CFA_Y, -4)
        CFI (cfiCond187) R6 Frame(CFA_Y, -3)
        CFI (cfiCond187) R7 Frame(CFA_Y, -2)
        CFI (cfiCond187) R8 Frame(CFA_Y, -1)
        CFI (cfiCond187) CFA_SP SP+6
        CFI (cfiCond187) CFA_Y Y+9
        CFI Block cfiPicker188 Using cfiCommon1
        CFI (cfiPicker188) NoFunction
        CFI (cfiPicker188) Picker
        LDI	R21, 0
        LDI	R22, 0
        LDI	R23, 0
        LDI	R16, 109
        LDI	R17, 1
        LDI	R18, 0
        LDI	R19, 0
        CALL	?L_EC_MUL_L03
        LSR	R20
        LSR	R20
        RJMP	?Subroutine105
        CFI EndBlock cfiCond186
        CFI EndBlock cfiCond187
        CFI EndBlock cfiPicker188
//  838 //////////////////////////////////
//  839 
//  840   

        RSEG FARCODE:CODE:NOROOT(1)
//  841 int crc_sum(unsigned char *ff,unsigned char kol)
crc_sum:
        CFI Block cfiBlock189 Using cfiCommon0
        CFI Function crc_sum
//  842 {
//  843   int sum_crc;
//  844   char i;
//  845   sum_crc=0;
        LDI	R20, 0
        LDI	R21, 0
//  846                
//  847                for (i=0;i<kol;i++)
        LDI	R19, 0
        RJMP	??crc_sum_0
//  848                                 {
//  849                                 sum_crc+= *ff;                                
??crc_sum_1:
        MOVW	R31:R30, R17:R16
        LD	R22, Z+
        MOVW	R17:R16, R31:R30
        LDI	R23, 0
        ADD	R20, R22
        ADC	R21, R23
//  850                                 *ff++ ;
//  851                                  }     
        INC	R19
??crc_sum_0:
        CP	R19, R18
        BRCS	??crc_sum_1
//  852   
//  853   return(sum_crc);
        MOVW	R17:R16, R21:R20
        RET
        CFI EndBlock cfiBlock189
//  854 }
//  855 
//  856 
//  857 
//  858 //////////////////
//  859 // прочитать сначала архивы на предмет действительности

        RSEG FARCODE:CODE:NOROOT(1)
//  860  unsigned long int read_arhiv_tii(char m)  // 
read_arhiv_tii:
        CFI Block cfiBlock190 Using cfiCommon0
        CFI Function read_arhiv_tii
//  861  {
        FUNCALL read_arhiv_tii, RdFromFleshToArr
        LOCFRAME CSTACK, 24, STACK
        LOCFRAME RSTACK, 3, STACK
        FUNCALL read_arhiv_tii, crc_sum
        LOCFRAME CSTACK, 24, STACK
        LOCFRAME RSTACK, 3, STACK
        RCALL	?Subroutine89
        CFI R24 Frame(CFA_Y, -4)
        CFI R25 Frame(CFA_Y, -3)
        CFI R26 Frame(CFA_Y, -2)
        CFI R27 Frame(CFA_Y, -1)
        CFI CFA_Y Y+4
??CrossCallReturnLabel_157:
        SBIW	R29:R28, 18
        CFI CFA_Y Y+22
//  862  char index;
//  863 
//  864  unsigned int t_i; 
//  865   union
//  866    {     
//  867    long int unix;
//  868    char st[4]; 
//  869    } tik;
//  870    
//  871 unsigned char zapis[14];
//  872  
//  873 index=0+m*2; 
        MOV	R18, R16
        LSL	R18
//  874 t_i=  ( ( unsigned long int)c2_byte.mb[index] + ( unsigned long int)(c2_byte.mb[index+1] & 7)*256);
        RCALL	?Subroutine38
//  875 if (t_i > 1440) return(0);
??CrossCallReturnLabel_43:
        CPI	R20, 161
        LDI	R17, 5
        CPC	R19, R17
        BRCS	??read_arhiv_tii_0
??read_arhiv_tii_1:
        LDI	R16, 0
        LDI	R17, 0
        LDI	R18, 0
        LDI	R19, 0
        RJMP	??CrossCallReturnLabel_161
//  876 if (t_i==0) return(0);
??read_arhiv_tii_0:
        OR	R18, R19
        BREQ	??read_arhiv_tii_1
//  877                        
//  878 
//  879 
//  880                         
//  881                       RdFromFleshToArr(STRUCT_TII+m*14,&zapis[0],14); 
        RCALL	?Subroutine31
//  882                      
//  883                      /*
//  884                       //proverka
//  885                      
//  886                       __disable_interrupt(); 
//  887                       UCSR2B=0; 
//  888                       UBRR2H = R115200_H;
//  889                       UBRR2L = R115200_L;     
//  890                       UCSR2B=UCSR2B | TXEN;
//  891                       s_port('r');
//  892                       s_port('d');
//  893                       s_port(' ');
//  894                       s_port('f');
//  895                       s_port('l');
//  896                       s_port('a');
//  897                       s_port('s');
//  898                       s_port('h');
//  899                       s_port(':');
//  900                       s_port(zapis[0]);
//  901                       s_port(zapis[1]);
//  902                       s_port(zapis[2]);
//  903                       s_port(zapis[3]);
//  904                       s_port(zapis[4]);
//  905                       s_port(zapis[5]);
//  906                       s_port(zapis[6]);
//  907                       s_port(zapis[7]);
//  908                       s_port(zapis[8]);
//  909                       s_port(zapis[9]);
//  910                       s_port(zapis[10]);
//  911                       s_port(zapis[11]);
//  912                       s_port(zapis[12]);
//  913                       s_port(zapis[13]);
//  914                       */
//  915                       
//  916                       if((*(int*)&zapis[12])==crc_sum(&zapis[0],12)) 
??CrossCallReturnLabel_37:
        BRNE	??read_arhiv_tii_1
//  917                                         {     
//  918                                            tik.st[0]=zapis[0];
        RCALL	?Subroutine27
//  919                                            tik.st[1]=zapis[1];
//  920                                            tik.st[2]=zapis[2];
//  921                                            tik.st[3]=zapis[3];
//  922                                            
//  923                                            /*
//  924                                            S3_RD;//proverka
//  925                                             s_port('r');
//  926                                             s_port('d');
//  927                                             s_port(' ');
//  928                                             s_port('t');
//  929                                             s_port('i');
//  930                                             s_port('k');
//  931                                             s_port(':');
//  932                                            
//  933                                            s_port(tik.st[0]);
//  934                                            s_port(tik.st[1]);
//  935                                            s_port(tik.st[2]);
//  936                                            s_port(tik.st[3]);
//  937                                            s_port('e');
//  938                                            s_port('n');
//  939                                            s_port('d');
//  940                                              */
//  941                                            
//  942                                            
//  943                                           if( tik.unix==timer_tii[m])
??CrossCallReturnLabel_221:
        BRNE	??read_arhiv_tii_1
//  944                                                                       {
//  945                                                                       tik.st[0]=zapis[6];
        LDD	R16, Y+10
        ST	Y, R16
//  946                                                                       tik.st[1]=zapis[7];
        LDD	R16, Y+11
        STD	Y+1, R16
//  947                                                                       tik.st[2]=zapis[8];
        LDD	R16, Y+12
        STD	Y+2, R16
//  948                                                                       tik.st[3]=zapis[9];
        LDD	R16, Y+13
        STD	Y+3, R16
//  949                                                                    //   err_cnt[m]=1;
//  950                                                                     
//  951                                                                       return(tik.unix);  // пишем в тот же архив
        RCALL	?Subroutine90
??CrossCallReturnLabel_161:
        ADIW	R29:R28, 18
        CFI CFA_Y Y+4
        RJMP	?Subroutine125
        CFI EndBlock cfiBlock190
//  952                                                                       
//  953                                                                       }
//  954                                           
//  955                                             
//  956                                            
//  957                                           else
//  958                                                           {
//  959                                                       //    err_cnt[m]=2;                                         
//  960                                                           return(0);  // создаем новый архив 
//  961                                                           }
//  962                                           }
//  963                        else  
//  964                        
//  965                                                          {
//  966                                                       //    err_cnt[m]=3;                                         
//  967                                                           return(0);  // архив неправильный 
//  968                                                           }      
//  969                                                        
//  970 /////////////////////////////////
//  971 }                  
//  972  //////////           
//  973 
//  974 
//  975 

        RSEG FARCODE:CODE:NOROOT(1)
//  976  void store_tii(void)  // записать в архив значения 1 минутные
store_tii:
        CFI Block cfiBlock191 Using cfiCommon0
        CFI Function store_tii
//  977  {
        FUNCALL store_tii, crc_sum
        LOCFRAME CSTACK, 26, STACK
        LOCFRAME RSTACK, 3, STACK
        FUNCALL store_tii, WrArrayToFlesh
        LOCFRAME CSTACK, 26, STACK
        LOCFRAME RSTACK, 3, STACK
        ST	-Y, R25
        CFI R25 Frame(CFA_Y, -1)
        CFI CFA_Y Y+1
        ST	-Y, R24
        CFI R24 Frame(CFA_Y, -2)
        CFI CFA_Y Y+2
        SBIW	R29:R28, 18
        CFI CFA_Y Y+20
//  978  char index,m;
//  979  unsigned char zapis[14];
//  980  
//  981  unsigned int t_i,te; 
//  982  
//  983   union
//  984    {     
//  985    long int unix;
//  986    char st[4]; 
//  987    } tik;
//  988    
//  989  te=tii_bit_minut;   
        RCALL	??Subroutine84_0
??CrossCallReturnLabel_142:
        LDD	R16, Z+30
        LDD	R17, Z+31
//  990  if (te==0) return;   
        MOV	R18, R16
        OR	R18, R17
        BRNE	$+2+2
        RJMP	??CrossCallReturnLabel_268
//  991  
//  992  if( te & 0x8000) { m=15;goto zap_tii; }
        BST	R17, 7
        BRTC	??store_tii_0
        LDI	R18, 15
        RJMP	??store_tii_1
//  993  if( te & 0x4000) { m=14;goto zap_tii; }
??store_tii_0:
        BST	R17, 6
        BRTC	??store_tii_2
        LDI	R18, 14
        RJMP	??store_tii_1
//  994  
//  995 
//  996  if(sel_modul==1)
??store_tii_2:
        LDS	R18, sel_modul
        CPI	R18, 1
        LDI	R18, 0
        BRNE	??store_tii_3
//  997  {
//  998    for (m=0; m < 5;m++)
//  999           {
// 1000           if( te & 1)goto zap_tii; 
??store_tii_4:
        SBRC	R16, 0
        RJMP	??store_tii_1
// 1001                           
// 1002            te=te >> 1;               
        RCALL	?Subroutine91
// 1003           }
??CrossCallReturnLabel_164:
        INC	R18
        CPI	R18, 5
        BRCC	??store_tii_1
        RJMP	??store_tii_4
// 1004  }
// 1005  else
// 1006  {
// 1007  for (m=0; m < 8;m++)
// 1008           {
// 1009           if( te & 1)goto zap_tii; 
??store_tii_3:
        SBRC	R16, 0
        RJMP	??store_tii_1
// 1010                           
// 1011            te=te >> 1;               
        RCALL	?Subroutine91
// 1012           }
??CrossCallReturnLabel_165:
        INC	R18
        CPI	R18, 8
        BRCS	??store_tii_3
// 1013  
// 1014  }
// 1015  
// 1016 zap_tii:               
// 1017  
// 1018       
// 1019 te=  1<<m;
// 1020                           
// 1021 tii_bit_minut= tii_bit_minut & ~te; 
??store_tii_1:
        RCALL	?Subroutine59
??CrossCallReturnLabel_239:
        MOV	R20, R18
        RCALL	?Subroutine83
??CrossCallReturnLabel_135:
        LDD	R20, Z+30
        LDD	R21, Z+31
        AND	R20, R16
        AND	R21, R17
        STD	Z+30, R20
        STD	Z+31, R21
// 1022  
// 1023 index=0+m*2; 
        MOV	R16, R18
        RCALL	?Subroutine16
// 1024 t_i=  ( ( unsigned long int)c2_byte.mb[index] + ( unsigned long int)(c2_byte.mb[index+1] & 7)*256);
??CrossCallReturnLabel_18:
        LD	R20, Z
        LDD	R16, Z+1
        ANDI	R16, 0x07
        MOV	R17, R16
        MOV	R16, R20
// 1025 if (t_i > 1440) return;
        CPI	R20, 161
        LDI	R19, 5
        CPC	R17, R19
        BRCC	??CrossCallReturnLabel_268
// 1026 if (t_i==0) return;
        MOV	R19, R20
        OR	R19, R17
        BREQ	??CrossCallReturnLabel_268
// 1027 
// 1028                       
// 1029                                         {
// 1030                                         tik.unix=timer_tii[m];        
        MOV	R24, R18
        LDI	R25, 0
        MOVW	R1:R0, R25:R24
        LSL	R0
        ROL	R1
        LSL	R0
        ROL	R1
        MOVW	R31:R30, R1:R0
        SUBI	R30, LOW((-(timer_tii) & 0xFFFF))
        SBCI	R31, (-(timer_tii) & 0xFFFF) >> 8
        RCALL	?Subroutine104
??CrossCallReturnLabel_199:
        RCALL	?Subroutine51
// 1031      
// 1032                                          zapis[0]=tik.st[0];
??CrossCallReturnLabel_63:
        STD	Y+4, R20
// 1033                                          zapis[1]=tik.st[1];
        STD	Y+5, R21
// 1034                                          zapis[2]=tik.st[2];
        STD	Y+6, R22
// 1035                                          zapis[3]=tik.st[3];
        STD	Y+7, R23
// 1036                                              
// 1037  
// 1038   
// 1039     __disable_interrupt();
        CLI
// 1040   tik.unix=(arr_tii_32[m ]- start_ttii[m]);
        RCALL	?Subroutine45
??CrossCallReturnLabel_203:
        MOVW	R31:R30, R1:R0
        SUBI	R30, LOW((-(start_ttii) & 0xFFFF))
        SBCI	R31, (-(start_ttii) & 0xFFFF) >> 8
        RCALL	?Subroutine106
??CrossCallReturnLabel_210:
        RCALL	?Subroutine92
??CrossCallReturnLabel_168:
        RCALL	?Subroutine51
// 1041    __enable_interrupt();
??CrossCallReturnLabel_64:
        SEI
// 1042   
// 1043                                          zapis[6]=tik.st[0];
        STD	Y+10, R20
// 1044                                          zapis[7]=tik.st[1];
        STD	Y+11, R21
// 1045                                          zapis[8]=tik.st[2];
        STD	Y+12, R22
// 1046                                          zapis[9]=tik.st[3];
        STD	Y+13, R23
// 1047   
// 1048   
// 1049   
// 1050 
// 1051   
// 1052   zapis[4]=t_i;
        STD	Y+8, R16
// 1053   zapis[5]=(t_i >>8);  
        STD	Y+9, R17
// 1054   
// 1055   zapis[10]=m;
        STD	Y+14, R18
// 1056   zapis[11]=0;  
        STD	Y+15, R25
// 1057                                      }
// 1058  *(int*)&zapis[12]=crc_sum(&zapis[0],12);
        RCALL	?Subroutine34
// 1059   
// 1060 
// 1061 //send_info(sizeof(prov1),prov1,0,0);
// 1062    
// 1063 WrArrayToFlesh(STRUCT_TII+m*14,&zapis[0],14,0,0);            
// 1064 
// 1065                      /*
// 1066                      //proverka
// 1067                       S4_CH;
// 1068                       UCSR2B=0; 
// 1069                       UBRR2H = R115200_H;
// 1070                       UBRR2L = R115200_L;     
// 1071                       UCSR2B=UCSR2B | TXEN;
// 1072                       s_port('w');
// 1073                       s_port('r');
// 1074                       s_port(' ');
// 1075                       s_port('f');
// 1076                       s_port('l');
// 1077                       s_port('a');
// 1078                       s_port('s');
// 1079                       s_port('h');
// 1080                       s_port(':');
// 1081                       s_port(zapis[0]);
// 1082                       s_port(zapis[1]);
// 1083                       s_port(zapis[2]);
// 1084                       s_port(zapis[3]);
// 1085                       s_port(zapis[4]);
// 1086                       s_port(zapis[5]);
// 1087                       s_port(zapis[6]);
// 1088                       s_port(zapis[7]);
// 1089                       s_port(zapis[8]);
// 1090                       s_port(zapis[9]);
// 1091                       s_port(zapis[10]);
// 1092                       s_port(zapis[11]);
// 1093                       s_port(zapis[12]);
// 1094                       s_port(zapis[13]);
// 1095                       */
// 1096 
// 1097 /////////////////////////////////
// 1098 }                  
??CrossCallReturnLabel_268:
        ADIW	R29:R28, 18
        CFI CFA_Y Y+2
        RJMP	?Subroutine110
        CFI EndBlock cfiBlock191

        RSEG FARCODE:CODE:NOROOT(1)
?Subroutine51:
        CFI Block cfiCond192 Using cfiCommon0
        CFI NoFunction
        CFI Conditional ??CrossCallReturnLabel_62
        CFI R24 Frame(CFA_Y, -2)
        CFI R25 Frame(CFA_Y, -1)
        CFI CFA_SP SP+6
        CFI CFA_Y Y+16
        CFI Block cfiCond193 Using cfiCommon0
        CFI (cfiCond193) NoFunction
        CFI (cfiCond193) Conditional ??CrossCallReturnLabel_63
        CFI (cfiCond193) R24 Frame(CFA_Y, -2)
        CFI (cfiCond193) R25 Frame(CFA_Y, -1)
        CFI (cfiCond193) CFA_SP SP+6
        CFI (cfiCond193) CFA_Y Y+20
        CFI Block cfiCond194 Using cfiCommon0
        CFI (cfiCond194) NoFunction
        CFI (cfiCond194) Conditional ??CrossCallReturnLabel_64
        CFI (cfiCond194) R24 Frame(CFA_Y, -2)
        CFI (cfiCond194) R25 Frame(CFA_Y, -1)
        CFI (cfiCond194) CFA_SP SP+6
        CFI (cfiCond194) CFA_Y Y+20
        CFI Block cfiPicker195 Using cfiCommon1
        CFI (cfiPicker195) NoFunction
        CFI (cfiPicker195) Picker
        ST	Y, R20
        STD	Y+1, R21
        STD	Y+2, R22
        STD	Y+3, R23
        RET
        CFI EndBlock cfiCond192
        CFI EndBlock cfiCond193
        CFI EndBlock cfiCond194
        CFI EndBlock cfiPicker195

        RSEG FARCODE:CODE:NOROOT(1)
?Subroutine16:
        CFI Block cfiCond196 Using cfiCommon0
        CFI NoFunction
        CFI Conditional ??CrossCallReturnLabel_18
        CFI R24 Frame(CFA_Y, -2)
        CFI R25 Frame(CFA_Y, -1)
        CFI CFA_SP SP+6
        CFI CFA_Y Y+20
        CFI Block cfiCond197 Using cfiCommon0
        CFI (cfiCond197) NoFunction
        CFI (cfiCond197) Conditional ??CrossCallReturnLabel_19
        CFI (cfiCond197) R24 Frame(CFA_Y, -8)
        CFI (cfiCond197) R25 Frame(CFA_Y, -7)
        CFI (cfiCond197) R26 Frame(CFA_Y, -6)
        CFI (cfiCond197) R27 Frame(CFA_Y, -5)
        CFI (cfiCond197) R4 Frame(CFA_Y, -4)
        CFI (cfiCond197) R5 Frame(CFA_Y, -3)
        CFI (cfiCond197) R6 Frame(CFA_Y, -2)
        CFI (cfiCond197) R7 Frame(CFA_Y, -1)
        CFI (cfiCond197) CFA_SP SP+6
        CFI (cfiCond197) CFA_Y Y+26
        CFI Block cfiPicker198 Using cfiCommon1
        CFI (cfiPicker198) NoFunction
        CFI (cfiPicker198) Picker
        LSL	R16
        LDI	R30, LOW(c2_byte)
        LDI	R31, (c2_byte) >> 8
        LDI	R17, 0
        CFI Block cfiCond199 Using cfiCommon0
        CFI (cfiCond199) NoFunction
        CFI (cfiCond199) Conditional ??CrossCallReturnLabel_20
        CFI (cfiCond199) R24 Frame(CFA_Y, -3)
        CFI (cfiCond199) R25 Frame(CFA_Y, -2)
        CFI (cfiCond199) R26 Frame(CFA_Y, -1)
        CFI (cfiCond199) CFA_SP SP+6
        CFI (cfiCond199) CFA_Y Y+21
        CFI Block cfiCond200 Using cfiCommon0
        CFI (cfiCond200) NoFunction
        CFI (cfiCond200) Conditional ??CrossCallReturnLabel_21
        CFI (cfiCond200) R24 Frame(CFA_Y, -13)
        CFI (cfiCond200) R25 Frame(CFA_Y, -12)
        CFI (cfiCond200) R26 Frame(CFA_Y, -11)
        CFI (cfiCond200) R27 Frame(CFA_Y, -10)
        CFI (cfiCond200) R4 Frame(CFA_Y, -9)
        CFI (cfiCond200) R5 Frame(CFA_Y, -8)
        CFI (cfiCond200) R6 Frame(CFA_Y, -7)
        CFI (cfiCond200) R7 Frame(CFA_Y, -6)
        CFI (cfiCond200) R8 Frame(CFA_Y, -5)
        CFI (cfiCond200) R9 Frame(CFA_Y, -4)
        CFI (cfiCond200) R10 Frame(CFA_Y, -3)
        CFI (cfiCond200) R11 Frame(CFA_Y, -2)
        CFI (cfiCond200) R12 Frame(CFA_Y, -1)
        CFI (cfiCond200) CFA_SP SP+6
        CFI (cfiCond200) CFA_Y Y+13
??Subroutine16_0:
        ADD	R30, R16
        ADC	R31, R17
        RET
        CFI EndBlock cfiCond196
        CFI EndBlock cfiCond197
        CFI EndBlock cfiPicker198
        CFI EndBlock cfiCond199
        CFI EndBlock cfiCond200
// 1099  //////////
// 1100  
// 1101  
// 1102  

        RSEG FARCODE:CODE:NOROOT(1)
// 1103  void store_tii_lock(char m)  // записать в архив значения 1 минутные
store_tii_lock:
        CFI Block cfiBlock201 Using cfiCommon0
        CFI Function store_tii_lock
// 1104  {
        FUNCALL store_tii_lock, crc_sum
        LOCFRAME CSTACK, 26, STACK
        LOCFRAME RSTACK, 3, STACK
        FUNCALL store_tii_lock, WrArrayToFlesh
        LOCFRAME CSTACK, 26, STACK
        LOCFRAME RSTACK, 3, STACK
        FUNCALL store_tii_lock, WrArrayToFlesh
        LOCFRAME CSTACK, 26, STACK
        LOCFRAME RSTACK, 3, STACK
        RCALL	?Subroutine95
        CFI R24 Frame(CFA_Y, -8)
        CFI R25 Frame(CFA_Y, -7)
        CFI R26 Frame(CFA_Y, -6)
        CFI R27 Frame(CFA_Y, -5)
        CFI R4 Frame(CFA_Y, -4)
        CFI R5 Frame(CFA_Y, -3)
        CFI R6 Frame(CFA_Y, -2)
        CFI R7 Frame(CFA_Y, -1)
        CFI CFA_Y Y+8
??CrossCallReturnLabel_177:
        REQUIRE	?Register_R4_is_cg_reg
        REQUIRE	?Register_R5_is_cg_reg
        REQUIRE	?Register_R6_is_cg_reg
        REQUIRE	?Register_R7_is_cg_reg
        SBIW	R29:R28, 18
        CFI CFA_Y Y+26
        MOV	R20, R16
// 1105  char index;
// 1106  unsigned char zapis[14];
// 1107  unsigned int t_i,te; 
// 1108  
// 1109   union
// 1110    {     
// 1111    long int unix;
// 1112    char st[4]; 
// 1113    } tik;
// 1114    
// 1115  
// 1116  
// 1117 
// 1118  
// 1119 index=0+m*2; 
        RCALL	?Subroutine16
// 1120 t_i=  ( ( unsigned long int)c2_byte.mb[index] + ( unsigned long int)(c2_byte.mb[index+1] & 7)*256);
??CrossCallReturnLabel_19:
        RCALL	?Subroutine65
// 1121 if (t_i > 1440) return;
??CrossCallReturnLabel_95:
        CPI	R18, 161
        LDI	R18, 5
        CPC	R17, R18
        BRCS	$+2+2
        RJMP	??CrossCallReturnLabel_266
// 1122 if (t_i==0) return;
        MOV	R18, R16
        OR	R18, R17
        BRNE	$+2+2
        RJMP	??CrossCallReturnLabel_266
// 1123 
// 1124                       
// 1125                                         {
// 1126                                         tik.unix=timer_tii[m];        
        MOV	R24, R20
        LDI	R25, 0
        MOVW	R19:R18, R25:R24
        LSL	R18
        ROL	R19
        LSL	R18
        ROL	R19
        MOVW	R31:R30, R19:R18
        SUBI	R30, LOW((-(timer_tii) & 0xFFFF))
        SBCI	R31, (-(timer_tii) & 0xFFFF) >> 8
        RCALL	?Subroutine106
??CrossCallReturnLabel_211:
        RCALL	?Subroutine48
// 1127      
// 1128                                          zapis[0]=tik.st[0];
// 1129                                          zapis[1]=tik.st[1];
// 1130                                          zapis[2]=tik.st[2];
// 1131                                          zapis[3]=tik.st[3];
// 1132                                              
// 1133  
// 1134  __disable_interrupt();
??CrossCallReturnLabel_56:
        CLI
// 1135   tik.unix=(arr_tii_32[m ]- start_ttii[m]);
        MOVW	R31:R30, R19:R18
        RCALL	?Subroutine47
??CrossCallReturnLabel_215:
        MOVW	R31:R30, R19:R18
        SUBI	R30, LOW((-(start_ttii) & 0xFFFF))
        SBCI	R31, (-(start_ttii) & 0xFFFF) >> 8
        LD	R4, Z
        LDD	R5, Z+1
        LDD	R6, Z+2
        LDD	R7, Z+3
        RCALL	?Subroutine96
??CrossCallReturnLabel_180:
        RCALL	?Subroutine49
// 1136   __enable_interrupt();
??CrossCallReturnLabel_59:
        SEI
// 1137                                          zapis[6]=tik.st[0];
        RCALL	?Subroutine97
// 1138                                          zapis[7]=tik.st[1];
// 1139                                          zapis[8]=tik.st[2];
// 1140                                          zapis[9]=tik.st[3];
// 1141   
// 1142   // записываем в архив либо замер импульсов либо мотоминуты
// 1143   
// 1144                         tii_moto.config=*(unsigned int*)&c2_byte.mb[m<<1];
??CrossCallReturnLabel_182:
        MOVW	R23:R22, R25:R24
        LSL	R22
        ROL	R23
        MOVW	R31:R30, R23:R22
        SUBI	R30, LOW((-(c2_byte) & 0xFFFF))
        SBCI	R31, (-(c2_byte) & 0xFFFF) >> 8
        LD	R0, Z
        LDD	R1, Z+1
        LDI	R26, LOW(timer_psm)
        LDI	R27, (timer_psm) >> 8
        MOVW	R31:R30, R27:R26
        STD	Z+24, R0
        STD	Z+25, R1
// 1145                         if (tii_moto.bit.type_zam==1)  { *(unsigned long int*)&zapis[6]=cnt_moto[m];   }
        LDI	R23, 24
        AND	R23, R1
        CPI	R25, 0
        SBCI	R23, 8
        BRNE	??CrossCallReturnLabel_183
        MOVW	R31:R30, R19:R18
        SUBI	R30, LOW((-(cnt_moto) & 0xFFFF))
        SBCI	R31, (-(cnt_moto) & 0xFFFF) >> 8
        RCALL	?Subroutine106
??CrossCallReturnLabel_212:
        RCALL	?Subroutine97
// 1146                          *(unsigned int*)&zapis[4]=t_i; 
??CrossCallReturnLabel_183:
        STD	Y+8, R16
        STD	Y+9, R17
// 1147                         
// 1148   
// 1149   
// 1150   //zapis[4]=t_i;
// 1151   //zapis[5]=(t_i >>8);  
// 1152   
// 1153   zapis[10]=m;
        STD	Y+14, R20
// 1154   zapis[11]=0;  
        STD	Y+15, R25
// 1155                                      }
// 1156   
// 1157   
// 1158 
// 1159  te=  1<<m;
// 1160                           
// 1161 tii_bit_minut= tii_bit_minut & ~te;         
        RCALL	?Subroutine59
??CrossCallReturnLabel_240:
        RCALL	?Subroutine83
??CrossCallReturnLabel_136:
        MOVW	R31:R30, R27:R26
        LDD	R18, Z+30
        LDD	R19, Z+31
        AND	R18, R16
        AND	R19, R17
        STD	Z+30, R18
        STD	Z+31, R19
// 1162                           
// 1163                                                    
// 1164 *(int*)&zapis[12]=crc_sum(&zapis[0],12);     
        RCALL	?Subroutine34
// 1165 WrArrayToFlesh(STRUCT_TII+m*14,&zapis[0],14,0,0);   
// 1166 
// 1167 
// 1168  // записать в общую кучу
// 1169 
// 1170 
// 1171 
// 1172 WrArrayToFlesh(STRUCT_TII_HEAP + (int)modbus_mem1[AD_IND_DNS]*14,&zapis[0],14,0,0);
??CrossCallReturnLabel_267:
        RCALL	?Subroutine33
// 1173 
// 1174 
// 1175 
// 1176  
// 1177 }                  
??CrossCallReturnLabel_266:
        ADIW	R29:R28, 18
        CFI EndBlock cfiBlock201
        REQUIRE ?Subroutine126
        ;		// Fall through to label ?Subroutine126

        RSEG FARCODE:CODE:NOROOT(1)
?Subroutine126:
        CFI Block cfiBlock202 Using cfiCommon0
        CFI NoFunction
        CFI CFA_Y Y+8
        CFI R4 Frame(CFA_Y, -4)
        CFI R5 Frame(CFA_Y, -3)
        CFI R6 Frame(CFA_Y, -2)
        CFI R7 Frame(CFA_Y, -1)
        CFI R24 Frame(CFA_Y, -8)
        CFI R25 Frame(CFA_Y, -7)
        CFI R26 Frame(CFA_Y, -6)
        CFI R27 Frame(CFA_Y, -5)
        LDI	R30, 8
        JMP	?EPILOGUE_B8_L09
        CFI EndBlock cfiBlock202

        RSEG FARCODE:CODE:NOROOT(1)
?Subroutine97:
        CFI Block cfiCond203 Using cfiCommon0
        CFI NoFunction
        CFI Conditional ??CrossCallReturnLabel_182
        CFI R24 Frame(CFA_Y, -8)
        CFI R25 Frame(CFA_Y, -7)
        CFI R26 Frame(CFA_Y, -6)
        CFI R27 Frame(CFA_Y, -5)
        CFI R4 Frame(CFA_Y, -4)
        CFI R5 Frame(CFA_Y, -3)
        CFI R6 Frame(CFA_Y, -2)
        CFI R7 Frame(CFA_Y, -1)
        CFI CFA_SP SP+6
        CFI CFA_Y Y+26
        CFI Block cfiCond204 Using cfiCommon0
        CFI (cfiCond204) NoFunction
        CFI (cfiCond204) Conditional ??CrossCallReturnLabel_183
        CFI (cfiCond204) R24 Frame(CFA_Y, -8)
        CFI (cfiCond204) R25 Frame(CFA_Y, -7)
        CFI (cfiCond204) R26 Frame(CFA_Y, -6)
        CFI (cfiCond204) R27 Frame(CFA_Y, -5)
        CFI (cfiCond204) R4 Frame(CFA_Y, -4)
        CFI (cfiCond204) R5 Frame(CFA_Y, -3)
        CFI (cfiCond204) R6 Frame(CFA_Y, -2)
        CFI (cfiCond204) R7 Frame(CFA_Y, -1)
        CFI (cfiCond204) CFA_SP SP+6
        CFI (cfiCond204) CFA_Y Y+26
        CFI Block cfiPicker205 Using cfiCommon1
        CFI (cfiPicker205) NoFunction
        CFI (cfiPicker205) Picker
        STD	Y+10, R0
        STD	Y+11, R1
        STD	Y+12, R2
        STD	Y+13, R3
        RET
        CFI EndBlock cfiCond203
        CFI EndBlock cfiCond204
        CFI EndBlock cfiPicker205

        RSEG FARCODE:CODE:NOROOT(1)
?Subroutine83:
        CFI Block cfiCond206 Using cfiCommon0
        CFI NoFunction
        CFI Conditional ??CrossCallReturnLabel_134
        CFI R24 Frame(CFA_Y, -13)
        CFI R25 Frame(CFA_Y, -12)
        CFI R26 Frame(CFA_Y, -11)
        CFI R27 Frame(CFA_Y, -10)
        CFI R4 Frame(CFA_Y, -9)
        CFI R5 Frame(CFA_Y, -8)
        CFI R6 Frame(CFA_Y, -7)
        CFI R7 Frame(CFA_Y, -6)
        CFI R8 Frame(CFA_Y, -5)
        CFI R9 Frame(CFA_Y, -4)
        CFI R10 Frame(CFA_Y, -3)
        CFI R11 Frame(CFA_Y, -2)
        CFI R12 Frame(CFA_Y, -1)
        CFI CFA_SP SP+6
        CFI CFA_Y Y+13
        CFI Block cfiCond207 Using cfiCommon0
        CFI (cfiCond207) NoFunction
        CFI (cfiCond207) Conditional ??CrossCallReturnLabel_135
        CFI (cfiCond207) R24 Frame(CFA_Y, -2)
        CFI (cfiCond207) R25 Frame(CFA_Y, -1)
        CFI (cfiCond207) CFA_SP SP+6
        CFI (cfiCond207) CFA_Y Y+20
        CFI Block cfiCond208 Using cfiCommon0
        CFI (cfiCond208) NoFunction
        CFI (cfiCond208) Conditional ??CrossCallReturnLabel_136
        CFI (cfiCond208) R24 Frame(CFA_Y, -8)
        CFI (cfiCond208) R25 Frame(CFA_Y, -7)
        CFI (cfiCond208) R26 Frame(CFA_Y, -6)
        CFI (cfiCond208) R27 Frame(CFA_Y, -5)
        CFI (cfiCond208) R4 Frame(CFA_Y, -4)
        CFI (cfiCond208) R5 Frame(CFA_Y, -3)
        CFI (cfiCond208) R6 Frame(CFA_Y, -2)
        CFI (cfiCond208) R7 Frame(CFA_Y, -1)
        CFI (cfiCond208) CFA_SP SP+6
        CFI (cfiCond208) CFA_Y Y+26
        CFI Block cfiCond209 Using cfiCommon0
        CFI (cfiCond209) NoFunction
        CFI (cfiCond209) Conditional ??CrossCallReturnLabel_137
        CFI (cfiCond209) R24 Frame(CFA_Y, -1)
        CFI (cfiCond209) CFA_SP SP+6
        CFI (cfiCond209) CFA_Y Y+1
        CFI Block cfiPicker210 Using cfiCommon1
        CFI (cfiPicker210) NoFunction
        CFI (cfiPicker210) Picker
        CALL	?S_SHL_L02
        COM	R16
        COM	R17
        RET
        CFI EndBlock cfiCond206
        CFI EndBlock cfiCond207
        CFI EndBlock cfiCond208
        CFI EndBlock cfiCond209
        CFI EndBlock cfiPicker210

        RSEG FARCODE:CODE:NOROOT(1)
?Subroutine59:
        CFI Block cfiCond211 Using cfiCommon0
        CFI NoFunction
        CFI Conditional ??CrossCallReturnLabel_237
        CFI R24 Frame(CFA_Y, -13)
        CFI R25 Frame(CFA_Y, -12)
        CFI R26 Frame(CFA_Y, -11)
        CFI R27 Frame(CFA_Y, -10)
        CFI R4 Frame(CFA_Y, -9)
        CFI R5 Frame(CFA_Y, -8)
        CFI R6 Frame(CFA_Y, -7)
        CFI R7 Frame(CFA_Y, -6)
        CFI R8 Frame(CFA_Y, -5)
        CFI R9 Frame(CFA_Y, -4)
        CFI R10 Frame(CFA_Y, -3)
        CFI R11 Frame(CFA_Y, -2)
        CFI R12 Frame(CFA_Y, -1)
        CFI CFA_SP SP+6
        CFI CFA_Y Y+13
        CFI Block cfiCond212 Using cfiCommon0
        CFI (cfiCond212) NoFunction
        CFI (cfiCond212) Conditional ??CrossCallReturnLabel_238
        CFI (cfiCond212) R24 Frame(CFA_Y, -12)
        CFI (cfiCond212) R25 Frame(CFA_Y, -11)
        CFI (cfiCond212) R26 Frame(CFA_Y, -10)
        CFI (cfiCond212) R27 Frame(CFA_Y, -9)
        CFI (cfiCond212) R4 Frame(CFA_Y, -8)
        CFI (cfiCond212) R5 Frame(CFA_Y, -7)
        CFI (cfiCond212) R6 Frame(CFA_Y, -6)
        CFI (cfiCond212) R7 Frame(CFA_Y, -5)
        CFI (cfiCond212) R8 Frame(CFA_Y, -4)
        CFI (cfiCond212) R9 Frame(CFA_Y, -3)
        CFI (cfiCond212) R10 Frame(CFA_Y, -2)
        CFI (cfiCond212) R11 Frame(CFA_Y, -1)
        CFI (cfiCond212) CFA_SP SP+6
        CFI (cfiCond212) CFA_Y Y+12
        CFI Block cfiCond213 Using cfiCommon0
        CFI (cfiCond213) NoFunction
        CFI (cfiCond213) Conditional ??CrossCallReturnLabel_239
        CFI (cfiCond213) R24 Frame(CFA_Y, -2)
        CFI (cfiCond213) R25 Frame(CFA_Y, -1)
        CFI (cfiCond213) CFA_SP SP+6
        CFI (cfiCond213) CFA_Y Y+20
        CFI Block cfiCond214 Using cfiCommon0
        CFI (cfiCond214) NoFunction
        CFI (cfiCond214) Conditional ??CrossCallReturnLabel_240
        CFI (cfiCond214) R24 Frame(CFA_Y, -8)
        CFI (cfiCond214) R25 Frame(CFA_Y, -7)
        CFI (cfiCond214) R26 Frame(CFA_Y, -6)
        CFI (cfiCond214) R27 Frame(CFA_Y, -5)
        CFI (cfiCond214) R4 Frame(CFA_Y, -4)
        CFI (cfiCond214) R5 Frame(CFA_Y, -3)
        CFI (cfiCond214) R6 Frame(CFA_Y, -2)
        CFI (cfiCond214) R7 Frame(CFA_Y, -1)
        CFI (cfiCond214) CFA_SP SP+6
        CFI (cfiCond214) CFA_Y Y+26
        CFI Block cfiCond215 Using cfiCommon0
        CFI (cfiCond215) NoFunction
        CFI (cfiCond215) Conditional ??CrossCallReturnLabel_241
        CFI (cfiCond215) R24 Frame(CFA_Y, -1)
        CFI (cfiCond215) CFA_SP SP+6
        CFI (cfiCond215) CFA_Y Y+1
        CFI Block cfiCond216 Using cfiCommon0
        CFI (cfiCond216) NoFunction
        CFI (cfiCond216) Conditional ??CrossCallReturnLabel_242
        CFI (cfiCond216) R24 Frame(CFA_Y, -9)
        CFI (cfiCond216) R25 Frame(CFA_Y, -8)
        CFI (cfiCond216) R26 Frame(CFA_Y, -7)
        CFI (cfiCond216) R27 Frame(CFA_Y, -6)
        CFI (cfiCond216) R4 Frame(CFA_Y, -5)
        CFI (cfiCond216) R5 Frame(CFA_Y, -4)
        CFI (cfiCond216) R6 Frame(CFA_Y, -3)
        CFI (cfiCond216) R7 Frame(CFA_Y, -2)
        CFI (cfiCond216) R8 Frame(CFA_Y, -1)
        CFI (cfiCond216) CFA_SP SP+6
        CFI (cfiCond216) CFA_Y Y+9
        CFI Block cfiPicker217 Using cfiCommon1
        CFI (cfiPicker217) NoFunction
        CFI (cfiPicker217) Picker
        LDI	R16, 1
        CFI EndBlock cfiCond211
        CFI EndBlock cfiCond212
        CFI EndBlock cfiCond213
        CFI EndBlock cfiCond214
        CFI EndBlock cfiCond215
        CFI EndBlock cfiCond216
        CFI EndBlock cfiPicker217
        REQUIRE ?Subroutine112
        ;		// Fall through to label ?Subroutine112

        RSEG FARCODE:CODE:NOROOT(1)
?Subroutine112:
        CFI Block cfiCond218 Using cfiCommon0
        CFI NoFunction
        CFI Conditional ??CrossCallReturnLabel_237
        CFI R24 Frame(CFA_Y, -13)
        CFI R25 Frame(CFA_Y, -12)
        CFI R26 Frame(CFA_Y, -11)
        CFI R27 Frame(CFA_Y, -10)
        CFI R4 Frame(CFA_Y, -9)
        CFI R5 Frame(CFA_Y, -8)
        CFI R6 Frame(CFA_Y, -7)
        CFI R7 Frame(CFA_Y, -6)
        CFI R8 Frame(CFA_Y, -5)
        CFI R9 Frame(CFA_Y, -4)
        CFI R10 Frame(CFA_Y, -3)
        CFI R11 Frame(CFA_Y, -2)
        CFI R12 Frame(CFA_Y, -1)
        CFI CFA_SP SP+6
        CFI CFA_Y Y+13
        CFI Block cfiCond219 Using cfiCommon0
        CFI (cfiCond219) NoFunction
        CFI (cfiCond219) Conditional ??CrossCallReturnLabel_238
        CFI (cfiCond219) R24 Frame(CFA_Y, -12)
        CFI (cfiCond219) R25 Frame(CFA_Y, -11)
        CFI (cfiCond219) R26 Frame(CFA_Y, -10)
        CFI (cfiCond219) R27 Frame(CFA_Y, -9)
        CFI (cfiCond219) R4 Frame(CFA_Y, -8)
        CFI (cfiCond219) R5 Frame(CFA_Y, -7)
        CFI (cfiCond219) R6 Frame(CFA_Y, -6)
        CFI (cfiCond219) R7 Frame(CFA_Y, -5)
        CFI (cfiCond219) R8 Frame(CFA_Y, -4)
        CFI (cfiCond219) R9 Frame(CFA_Y, -3)
        CFI (cfiCond219) R10 Frame(CFA_Y, -2)
        CFI (cfiCond219) R11 Frame(CFA_Y, -1)
        CFI (cfiCond219) CFA_SP SP+6
        CFI (cfiCond219) CFA_Y Y+12
        CFI Block cfiCond220 Using cfiCommon0
        CFI (cfiCond220) NoFunction
        CFI (cfiCond220) Conditional ??CrossCallReturnLabel_239
        CFI (cfiCond220) R24 Frame(CFA_Y, -2)
        CFI (cfiCond220) R25 Frame(CFA_Y, -1)
        CFI (cfiCond220) CFA_SP SP+6
        CFI (cfiCond220) CFA_Y Y+20
        CFI Block cfiCond221 Using cfiCommon0
        CFI (cfiCond221) NoFunction
        CFI (cfiCond221) Conditional ??CrossCallReturnLabel_240
        CFI (cfiCond221) R24 Frame(CFA_Y, -8)
        CFI (cfiCond221) R25 Frame(CFA_Y, -7)
        CFI (cfiCond221) R26 Frame(CFA_Y, -6)
        CFI (cfiCond221) R27 Frame(CFA_Y, -5)
        CFI (cfiCond221) R4 Frame(CFA_Y, -4)
        CFI (cfiCond221) R5 Frame(CFA_Y, -3)
        CFI (cfiCond221) R6 Frame(CFA_Y, -2)
        CFI (cfiCond221) R7 Frame(CFA_Y, -1)
        CFI (cfiCond221) CFA_SP SP+6
        CFI (cfiCond221) CFA_Y Y+26
        CFI Block cfiCond222 Using cfiCommon0
        CFI (cfiCond222) NoFunction
        CFI (cfiCond222) Conditional ??CrossCallReturnLabel_241
        CFI (cfiCond222) R24 Frame(CFA_Y, -1)
        CFI (cfiCond222) CFA_SP SP+6
        CFI (cfiCond222) CFA_Y Y+1
        CFI Block cfiCond223 Using cfiCommon0
        CFI (cfiCond223) NoFunction
        CFI (cfiCond223) Conditional ??CrossCallReturnLabel_242
        CFI (cfiCond223) R24 Frame(CFA_Y, -9)
        CFI (cfiCond223) R25 Frame(CFA_Y, -8)
        CFI (cfiCond223) R26 Frame(CFA_Y, -7)
        CFI (cfiCond223) R27 Frame(CFA_Y, -6)
        CFI (cfiCond223) R4 Frame(CFA_Y, -5)
        CFI (cfiCond223) R5 Frame(CFA_Y, -4)
        CFI (cfiCond223) R6 Frame(CFA_Y, -3)
        CFI (cfiCond223) R7 Frame(CFA_Y, -2)
        CFI (cfiCond223) R8 Frame(CFA_Y, -1)
        CFI (cfiCond223) CFA_SP SP+6
        CFI (cfiCond223) CFA_Y Y+9
        CFI Block cfiCond224 Using cfiCommon0
        CFI (cfiCond224) NoFunction
        CFI (cfiCond224) Conditional ??CrossCallReturnLabel_235
        CFI (cfiCond224) R24 Frame(CFA_Y, -16)
        CFI (cfiCond224) R25 Frame(CFA_Y, -15)
        CFI (cfiCond224) R26 Frame(CFA_Y, -14)
        CFI (cfiCond224) R27 Frame(CFA_Y, -13)
        CFI (cfiCond224) R4 Frame(CFA_Y, -12)
        CFI (cfiCond224) R5 Frame(CFA_Y, -11)
        CFI (cfiCond224) R6 Frame(CFA_Y, -10)
        CFI (cfiCond224) R7 Frame(CFA_Y, -9)
        CFI (cfiCond224) R8 Frame(CFA_Y, -8)
        CFI (cfiCond224) R9 Frame(CFA_Y, -7)
        CFI (cfiCond224) R10 Frame(CFA_Y, -6)
        CFI (cfiCond224) R11 Frame(CFA_Y, -5)
        CFI (cfiCond224) R12 Frame(CFA_Y, -4)
        CFI (cfiCond224) R13 Frame(CFA_Y, -3)
        CFI (cfiCond224) R14 Frame(CFA_Y, -2)
        CFI (cfiCond224) R15 Frame(CFA_Y, -1)
        CFI (cfiCond224) CFA_SP SP+6
        CFI (cfiCond224) CFA_Y Y+34
        CFI Block cfiCond225 Using cfiCommon0
        CFI (cfiCond225) NoFunction
        CFI (cfiCond225) Conditional ??CrossCallReturnLabel_236
        CFI (cfiCond225) R24 Frame(CFA_Y, -16)
        CFI (cfiCond225) R25 Frame(CFA_Y, -15)
        CFI (cfiCond225) R26 Frame(CFA_Y, -14)
        CFI (cfiCond225) R27 Frame(CFA_Y, -13)
        CFI (cfiCond225) R4 Frame(CFA_Y, -12)
        CFI (cfiCond225) R5 Frame(CFA_Y, -11)
        CFI (cfiCond225) R6 Frame(CFA_Y, -10)
        CFI (cfiCond225) R7 Frame(CFA_Y, -9)
        CFI (cfiCond225) R8 Frame(CFA_Y, -8)
        CFI (cfiCond225) R9 Frame(CFA_Y, -7)
        CFI (cfiCond225) R10 Frame(CFA_Y, -6)
        CFI (cfiCond225) R11 Frame(CFA_Y, -5)
        CFI (cfiCond225) R12 Frame(CFA_Y, -4)
        CFI (cfiCond225) R13 Frame(CFA_Y, -3)
        CFI (cfiCond225) R14 Frame(CFA_Y, -2)
        CFI (cfiCond225) R15 Frame(CFA_Y, -1)
        CFI (cfiCond225) CFA_SP SP+6
        CFI (cfiCond225) CFA_Y Y+34
        CFI Block cfiPicker226 Using cfiCommon1
        CFI (cfiPicker226) NoFunction
        CFI (cfiPicker226) Picker
        LDI	R17, 0
        RET
        CFI EndBlock cfiCond218
        CFI EndBlock cfiCond219
        CFI EndBlock cfiCond220
        CFI EndBlock cfiCond221
        CFI EndBlock cfiCond222
        CFI EndBlock cfiCond223
        CFI EndBlock cfiCond224
        CFI EndBlock cfiCond225
        CFI EndBlock cfiPicker226

        RSEG FARCODE:CODE:NOROOT(1)
?Subroutine49:
        CFI Block cfiCond227 Using cfiCommon0
        CFI NoFunction
        CFI Conditional ??CrossCallReturnLabel_58
        CFI R24 Frame(CFA_Y, -2)
        CFI R25 Frame(CFA_Y, -1)
        CFI CFA_SP SP+6
        CFI CFA_Y Y+16
        CFI Block cfiCond228 Using cfiCommon0
        CFI (cfiCond228) NoFunction
        CFI (cfiCond228) Conditional ??CrossCallReturnLabel_59
        CFI (cfiCond228) R24 Frame(CFA_Y, -8)
        CFI (cfiCond228) R25 Frame(CFA_Y, -7)
        CFI (cfiCond228) R26 Frame(CFA_Y, -6)
        CFI (cfiCond228) R27 Frame(CFA_Y, -5)
        CFI (cfiCond228) R4 Frame(CFA_Y, -4)
        CFI (cfiCond228) R5 Frame(CFA_Y, -3)
        CFI (cfiCond228) R6 Frame(CFA_Y, -2)
        CFI (cfiCond228) R7 Frame(CFA_Y, -1)
        CFI (cfiCond228) CFA_SP SP+6
        CFI (cfiCond228) CFA_Y Y+26
        CFI Block cfiPicker229 Using cfiCommon1
        CFI (cfiPicker229) NoFunction
        CFI (cfiPicker229) Picker
        ST	Y, R0
        STD	Y+1, R1
        STD	Y+2, R2
        STD	Y+3, R3
        RET
        CFI EndBlock cfiCond227
        CFI EndBlock cfiCond228
        CFI EndBlock cfiPicker229

        RSEG FARCODE:CODE:NOROOT(1)
?Subroutine47:
        CFI Block cfiCond230 Using cfiCommon0
        CFI NoFunction
        CFI Conditional ??CrossCallReturnLabel_215
        CFI R24 Frame(CFA_Y, -8)
        CFI R25 Frame(CFA_Y, -7)
        CFI R26 Frame(CFA_Y, -6)
        CFI R27 Frame(CFA_Y, -5)
        CFI R4 Frame(CFA_Y, -4)
        CFI R5 Frame(CFA_Y, -3)
        CFI R6 Frame(CFA_Y, -2)
        CFI R7 Frame(CFA_Y, -1)
        CFI CFA_SP SP+6
        CFI CFA_Y Y+26
        CFI Block cfiCond231 Using cfiCommon0
        CFI (cfiCond231) NoFunction
        CFI (cfiCond231) Conditional ??CrossCallReturnLabel_216
        CFI (cfiCond231) R24 Frame(CFA_Y, -8)
        CFI (cfiCond231) R25 Frame(CFA_Y, -7)
        CFI (cfiCond231) R26 Frame(CFA_Y, -6)
        CFI (cfiCond231) R27 Frame(CFA_Y, -5)
        CFI (cfiCond231) R4 Frame(CFA_Y, -4)
        CFI (cfiCond231) R5 Frame(CFA_Y, -3)
        CFI (cfiCond231) R6 Frame(CFA_Y, -2)
        CFI (cfiCond231) R7 Frame(CFA_Y, -1)
        CFI (cfiCond231) CFA_SP SP+6
        CFI (cfiCond231) CFA_Y Y+26
        CFI Block cfiPicker232 Using cfiCommon1
        CFI (cfiPicker232) NoFunction
        CFI (cfiPicker232) Picker
        SUBI	R30, LOW((-(arr_tii_32) & 0xFFFF))
        SBCI	R31, (-(arr_tii_32) & 0xFFFF) >> 8
        CFI EndBlock cfiCond230
        CFI EndBlock cfiCond231
        CFI EndBlock cfiPicker232
        REQUIRE ?Subroutine106
        ;		// Fall through to label ?Subroutine106

        RSEG FARCODE:CODE:NOROOT(1)
?Subroutine106:
        CFI Block cfiCond233 Using cfiCommon0
        CFI NoFunction
        CFI Conditional ??CrossCallReturnLabel_215
        CFI R24 Frame(CFA_Y, -8)
        CFI R25 Frame(CFA_Y, -7)
        CFI R26 Frame(CFA_Y, -6)
        CFI R27 Frame(CFA_Y, -5)
        CFI R4 Frame(CFA_Y, -4)
        CFI R5 Frame(CFA_Y, -3)
        CFI R6 Frame(CFA_Y, -2)
        CFI R7 Frame(CFA_Y, -1)
        CFI CFA_SP SP+6
        CFI CFA_Y Y+26
        CFI Block cfiCond234 Using cfiCommon0
        CFI (cfiCond234) NoFunction
        CFI (cfiCond234) Conditional ??CrossCallReturnLabel_216
        CFI (cfiCond234) R24 Frame(CFA_Y, -8)
        CFI (cfiCond234) R25 Frame(CFA_Y, -7)
        CFI (cfiCond234) R26 Frame(CFA_Y, -6)
        CFI (cfiCond234) R27 Frame(CFA_Y, -5)
        CFI (cfiCond234) R4 Frame(CFA_Y, -4)
        CFI (cfiCond234) R5 Frame(CFA_Y, -3)
        CFI (cfiCond234) R6 Frame(CFA_Y, -2)
        CFI (cfiCond234) R7 Frame(CFA_Y, -1)
        CFI (cfiCond234) CFA_SP SP+6
        CFI (cfiCond234) CFA_Y Y+26
        CFI Block cfiCond235 Using cfiCommon0
        CFI (cfiCond235) NoFunction
        CFI (cfiCond235) Conditional ??CrossCallReturnLabel_210
        CFI (cfiCond235) R24 Frame(CFA_Y, -2)
        CFI (cfiCond235) R25 Frame(CFA_Y, -1)
        CFI (cfiCond235) CFA_SP SP+6
        CFI (cfiCond235) CFA_Y Y+20
        CFI Block cfiCond236 Using cfiCommon0
        CFI (cfiCond236) NoFunction
        CFI (cfiCond236) Conditional ??CrossCallReturnLabel_211
        CFI (cfiCond236) R24 Frame(CFA_Y, -8)
        CFI (cfiCond236) R25 Frame(CFA_Y, -7)
        CFI (cfiCond236) R26 Frame(CFA_Y, -6)
        CFI (cfiCond236) R27 Frame(CFA_Y, -5)
        CFI (cfiCond236) R4 Frame(CFA_Y, -4)
        CFI (cfiCond236) R5 Frame(CFA_Y, -3)
        CFI (cfiCond236) R6 Frame(CFA_Y, -2)
        CFI (cfiCond236) R7 Frame(CFA_Y, -1)
        CFI (cfiCond236) CFA_SP SP+6
        CFI (cfiCond236) CFA_Y Y+26
        CFI Block cfiCond237 Using cfiCommon0
        CFI (cfiCond237) NoFunction
        CFI (cfiCond237) Conditional ??CrossCallReturnLabel_212
        CFI (cfiCond237) R24 Frame(CFA_Y, -8)
        CFI (cfiCond237) R25 Frame(CFA_Y, -7)
        CFI (cfiCond237) R26 Frame(CFA_Y, -6)
        CFI (cfiCond237) R27 Frame(CFA_Y, -5)
        CFI (cfiCond237) R4 Frame(CFA_Y, -4)
        CFI (cfiCond237) R5 Frame(CFA_Y, -3)
        CFI (cfiCond237) R6 Frame(CFA_Y, -2)
        CFI (cfiCond237) R7 Frame(CFA_Y, -1)
        CFI (cfiCond237) CFA_SP SP+6
        CFI (cfiCond237) CFA_Y Y+26
        CFI Block cfiCond238 Using cfiCommon0
        CFI (cfiCond238) NoFunction
        CFI (cfiCond238) Conditional ??CrossCallReturnLabel_213
        CFI (cfiCond238) R24 Frame(CFA_Y, -2)
        CFI (cfiCond238) R25 Frame(CFA_Y, -1)
        CFI (cfiCond238) CFA_SP SP+6
        CFI (cfiCond238) CFA_Y Y+16
        CFI Block cfiCond239 Using cfiCommon0
        CFI (cfiCond239) NoFunction
        CFI (cfiCond239) Conditional ??CrossCallReturnLabel_214
        CFI (cfiCond239) R24 Frame(CFA_Y, -16)
        CFI (cfiCond239) R25 Frame(CFA_Y, -15)
        CFI (cfiCond239) R26 Frame(CFA_Y, -14)
        CFI (cfiCond239) R27 Frame(CFA_Y, -13)
        CFI (cfiCond239) R4 Frame(CFA_Y, -12)
        CFI (cfiCond239) R5 Frame(CFA_Y, -11)
        CFI (cfiCond239) R6 Frame(CFA_Y, -10)
        CFI (cfiCond239) R7 Frame(CFA_Y, -9)
        CFI (cfiCond239) R8 Frame(CFA_Y, -8)
        CFI (cfiCond239) R9 Frame(CFA_Y, -7)
        CFI (cfiCond239) R10 Frame(CFA_Y, -6)
        CFI (cfiCond239) R11 Frame(CFA_Y, -5)
        CFI (cfiCond239) R12 Frame(CFA_Y, -4)
        CFI (cfiCond239) R13 Frame(CFA_Y, -3)
        CFI (cfiCond239) R14 Frame(CFA_Y, -2)
        CFI (cfiCond239) R15 Frame(CFA_Y, -1)
        CFI (cfiCond239) CFA_SP SP+6
        CFI (cfiCond239) CFA_Y Y+34
        CFI Block cfiPicker240 Using cfiCommon1
        CFI (cfiPicker240) NoFunction
        CFI (cfiPicker240) Picker
        LD	R0, Z
        LDD	R1, Z+1
        LDD	R2, Z+2
        LDD	R3, Z+3
        RET
        CFI EndBlock cfiCond233
        CFI EndBlock cfiCond234
        CFI EndBlock cfiCond235
        CFI EndBlock cfiCond236
        CFI EndBlock cfiCond237
        CFI EndBlock cfiCond238
        CFI EndBlock cfiCond239
        CFI EndBlock cfiPicker240

        RSEG FARCODE:CODE:NOROOT(1)
?Subroutine34:
        CFI Block cfiCond241 Using cfiCommon0
        CFI NoFunction
        CFI Conditional ??CrossCallReturnLabel_268
        CFI R24 Frame(CFA_Y, -2)
        CFI R25 Frame(CFA_Y, -1)
        CFI CFA_SP SP+6
        CFI CFA_Y Y+20
        CFI Block cfiCond242 Using cfiCommon0
        CFI (cfiCond242) NoFunction
        CFI (cfiCond242) Conditional ??CrossCallReturnLabel_267
        CFI (cfiCond242) R24 Frame(CFA_Y, -8)
        CFI (cfiCond242) R25 Frame(CFA_Y, -7)
        CFI (cfiCond242) R26 Frame(CFA_Y, -6)
        CFI (cfiCond242) R27 Frame(CFA_Y, -5)
        CFI (cfiCond242) R4 Frame(CFA_Y, -4)
        CFI (cfiCond242) R5 Frame(CFA_Y, -3)
        CFI (cfiCond242) R6 Frame(CFA_Y, -2)
        CFI (cfiCond242) R7 Frame(CFA_Y, -1)
        CFI (cfiCond242) CFA_SP SP+6
        CFI (cfiCond242) CFA_Y Y+26
        CFI Block cfiPicker243 Using cfiCommon1
        CFI (cfiPicker243) NoFunction
        CFI (cfiPicker243) Picker
        LDI	R18, 12
        MOVW	R17:R16, R29:R28
        SUBI	R16, 252
        SBCI	R17, 255
        RCALL	crc_sum
        STD	Y+16, R16
        STD	Y+17, R17
        LDI	R23, 0
        LDI	R22, 0
        MOVW	R19:R18, R29:R28
        SUBI	R18, 252
        SBCI	R19, 255
        MOVW	R21:R20, R25:R24
        LDI	R16, 14
        LDI	R17, 0
        CALL	?S_EC_MUL_L02
        SUBI	R17, 144
        LDI	R20, 14
        RJMP	?Subroutine120
        CFI EndBlock cfiCond241
        CFI EndBlock cfiCond242
        CFI EndBlock cfiPicker243
// 1178  ////////// 
// 1179 
// 1180 

        RSEG FARCODE:CODE:NOROOT(1)
// 1181  void store_tit_lock(char m)  // записать в архив значения 1 минутные
store_tit_lock:
        CFI Block cfiBlock244 Using cfiCommon0
        CFI Function store_tit_lock
// 1182  {
        FUNCALL store_tit_lock, crc_sum
        LOCFRAME CSTACK, 24, STACK
        LOCFRAME RSTACK, 3, STACK
        FUNCALL store_tit_lock, WrArrayToFlesh
        LOCFRAME CSTACK, 24, STACK
        LOCFRAME RSTACK, 3, STACK
        SBIW	R29:R28, 18
        CFI CFA_Y Y+18
// 1183  char index;
// 1184  unsigned char zapis[14];
// 1185  unsigned int t_i; 
// 1186  
// 1187   union
// 1188    {     
// 1189    long int unix;
// 1190    char st[4]; 
// 1191    } tik;
// 1192    
// 1193  
// 1194  
// 1195 
// 1196  
// 1197 index=0x40+m*2; 
        MOV	R18, R16
        LSL	R18
        SUBI	R18, 192
// 1198 t_i=  ( ( unsigned long int)c2_byte.mb[index] + ( unsigned long int)(c2_byte.mb[index+1] & 7)*256);
        RCALL	?Subroutine38
// 1199 
// 1200 
// 1201                       
// 1202                                         {
// 1203                                         tik.unix=timer_tit[m];        
??CrossCallReturnLabel_44:
        MOV	R22, R16
        LDI	R23, 0
        MOVW	R21:R20, R23:R22
        RCALL	?Subroutine86
??CrossCallReturnLabel_148:
        MOVW	R31:R30, R21:R20
        SUBI	R30, LOW((-(timer_psm) & 0xFFFF))
        SBCI	R31, (-(timer_psm) & 0xFFFF) >> 8
        RCALL	?Subroutine98
??CrossCallReturnLabel_184:
        RCALL	?Subroutine48
// 1204      
// 1205                                          zapis[0]=tik.st[0];
// 1206                                          zapis[1]=tik.st[1];
// 1207                                          zapis[2]=tik.st[2];
// 1208                                          zapis[3]=tik.st[3];
??CrossCallReturnLabel_57:
        RCALL	?Subroutine52
??CrossCallReturnLabel_66:
        LSL	R22
        ROL	R23
        ADD	R30, R22
        ADC	R31, R23
        LDD	R17, Z+32
        LDD	R20, Z+33
        STD	Y+10, R17
// 1209                                              
// 1210 
// 1211                                          zapis[6]=modbus_mem1[AD_TIT1+m];
// 1212                                          zapis[7]=modbus_mem1[AD_TIT1+m]>>8;
        STD	Y+11, R20
// 1213                                          zapis[8]=0;
        LDI	R17, 0
        STD	Y+12, R17
// 1214                                          zapis[9]=0;
        STD	Y+13, R17
// 1215   
// 1216   
// 1217   
// 1218 
// 1219   
// 1220   
// 1221   zapis[4]=t_i;
        STD	Y+8, R18
// 1222   zapis[5]=(t_i >>8);  
        STD	Y+9, R19
// 1223   
// 1224   zapis[10]=m+80;
        SUBI	R16, 176
        STD	Y+14, R16
// 1225   zapis[11]=0;  
        STD	Y+15, R17
// 1226                                      }
// 1227   
// 1228   
// 1229 
// 1230      
// 1231                           
// 1232                                                    
// 1233 *(int*)&zapis[12]=crc_sum(&zapis[0],12);     
        RCALL	?Subroutine42
??CrossCallReturnLabel_262:
        STD	Y+16, R16
        STD	Y+17, R17
// 1234 //WrArrayToFlesh(STRUCT_TII+m*14,&zapis[0],14,0,0);   26 01 2015
// 1235 
// 1236 
// 1237  // записать в общую кучу
// 1238 
// 1239 
// 1240 
// 1241 WrArrayToFlesh(STRUCT_TII_HEAP + (int)modbus_mem1[AD_IND_DNS]*14,&zapis[0],14,0,0);
        RCALL	?Subroutine33
        CFI EndBlock cfiBlock244
// 1242 
// 1243 
// 1244 
// 1245  
// 1246 }                  
??CrossCallReturnLabel_265:
        REQUIRE ?Subroutine113
        ;		// Fall through to label ?Subroutine113

        RSEG FARCODE:CODE:NOROOT(1)
?Subroutine113:
        CFI Block cfiCond245 Using cfiCommon0
        CFI NoFunction
        CFI Conditional ??CrossCallReturnLabel_243
        CFI R24 Frame(CFA_Y, -8)
        CFI R25 Frame(CFA_Y, -7)
        CFI R26 Frame(CFA_Y, -6)
        CFI R27 Frame(CFA_Y, -5)
        CFI R4 Frame(CFA_Y, -4)
        CFI R5 Frame(CFA_Y, -3)
        CFI R6 Frame(CFA_Y, -2)
        CFI R7 Frame(CFA_Y, -1)
        CFI CFA_SP SP+6
        CFI CFA_Y Y+26
        CFI Block cfiCond246 Using cfiCommon0
        CFI (cfiCond246) NoFunction
        CFI (cfiCond246) Conditional ??CrossCallReturnLabel_244
        CFI (cfiCond246) R24 Frame(CFA_Y, -6)
        CFI (cfiCond246) R25 Frame(CFA_Y, -5)
        CFI (cfiCond246) R26 Frame(CFA_Y, -4)
        CFI (cfiCond246) R27 Frame(CFA_Y, -3)
        CFI (cfiCond246) R4 Frame(CFA_Y, -2)
        CFI (cfiCond246) R5 Frame(CFA_Y, -1)
        CFI (cfiCond246) CFA_SP SP+6
        CFI (cfiCond246) CFA_Y Y+24
        CFI Block cfiBlock247 Using cfiCommon0
        CFI (cfiBlock247) NoFunction
        CFI (cfiBlock247) CFA_Y Y+18
        CFI Block cfiPicker248 Using cfiCommon1
        CFI (cfiPicker248) NoFunction
        CFI (cfiPicker248) Picker
        ADIW	R29:R28, 18
        CFI (cfiCond245) CFA_Y Y+8
        CFI (cfiCond246) CFA_Y Y+6
        CFI (cfiBlock247) CFA_Y Y+0
        RET
        CFI EndBlock cfiCond245
        CFI EndBlock cfiCond246
        CFI EndBlock cfiBlock247
        CFI EndBlock cfiPicker248

        RSEG FARCODE:CODE:NOROOT(1)
?Subroutine86:
        CFI Block cfiCond249 Using cfiCommon0
        CFI NoFunction
        CFI Conditional ??CrossCallReturnLabel_147
        CFI R24 Frame(CFA_Y, -12)
        CFI R25 Frame(CFA_Y, -11)
        CFI R26 Frame(CFA_Y, -10)
        CFI R27 Frame(CFA_Y, -9)
        CFI R4 Frame(CFA_Y, -8)
        CFI R5 Frame(CFA_Y, -7)
        CFI R6 Frame(CFA_Y, -6)
        CFI R7 Frame(CFA_Y, -5)
        CFI R8 Frame(CFA_Y, -4)
        CFI R9 Frame(CFA_Y, -3)
        CFI R10 Frame(CFA_Y, -2)
        CFI R11 Frame(CFA_Y, -1)
        CFI CFA_SP SP+6
        CFI CFA_Y Y+12
        CFI Block cfiCond250 Using cfiCommon0
        CFI (cfiCond250) NoFunction
        CFI (cfiCond250) Conditional ??CrossCallReturnLabel_148
        CFI (cfiCond250) CFA_SP SP+6
        CFI (cfiCond250) CFA_Y Y+18
        CFI Block cfiPicker251 Using cfiCommon1
        CFI (cfiPicker251) NoFunction
        CFI (cfiPicker251) Picker
        LSL	R20
        ROL	R21
        LSL	R20
        ROL	R21
        RET
        CFI EndBlock cfiCond249
        CFI EndBlock cfiCond250
        CFI EndBlock cfiPicker251

        RSEG FARCODE:CODE:NOROOT(1)
?Subroutine48:
        CFI Block cfiCond252 Using cfiCommon0
        CFI NoFunction
        CFI Conditional ??CrossCallReturnLabel_56
        CFI R24 Frame(CFA_Y, -8)
        CFI R25 Frame(CFA_Y, -7)
        CFI R26 Frame(CFA_Y, -6)
        CFI R27 Frame(CFA_Y, -5)
        CFI R4 Frame(CFA_Y, -4)
        CFI R5 Frame(CFA_Y, -3)
        CFI R6 Frame(CFA_Y, -2)
        CFI R7 Frame(CFA_Y, -1)
        CFI CFA_SP SP+6
        CFI CFA_Y Y+26
        CFI Block cfiCond253 Using cfiCommon0
        CFI (cfiCond253) NoFunction
        CFI (cfiCond253) Conditional ??CrossCallReturnLabel_57
        CFI (cfiCond253) CFA_SP SP+6
        CFI (cfiCond253) CFA_Y Y+18
        CFI Block cfiPicker254 Using cfiCommon1
        CFI (cfiPicker254) NoFunction
        CFI (cfiPicker254) Picker
        ST	Y, R0
        STD	Y+1, R1
        STD	Y+2, R2
        STD	Y+3, R3
        STD	Y+4, R0
        STD	Y+5, R1
        STD	Y+6, R2
        STD	Y+7, R3
        RET
        CFI EndBlock cfiCond252
        CFI EndBlock cfiCond253
        CFI EndBlock cfiPicker254

        RSEG FARCODE:CODE:NOROOT(1)
?Subroutine42:
        CFI Block cfiCond255 Using cfiCommon0
        CFI NoFunction
        CFI Conditional ??CrossCallReturnLabel_262
        CFI CFA_SP SP+6
        CFI CFA_Y Y+18
        CFI Block cfiCond256 Using cfiCommon0
        CFI (cfiCond256) NoFunction
        CFI (cfiCond256) Conditional ??CrossCallReturnLabel_261
        CFI (cfiCond256) R24 Frame(CFA_Y, -11)
        CFI (cfiCond256) R25 Frame(CFA_Y, -10)
        CFI (cfiCond256) R26 Frame(CFA_Y, -9)
        CFI (cfiCond256) R27 Frame(CFA_Y, -8)
        CFI (cfiCond256) R4 Frame(CFA_Y, -7)
        CFI (cfiCond256) R5 Frame(CFA_Y, -6)
        CFI (cfiCond256) R6 Frame(CFA_Y, -5)
        CFI (cfiCond256) R7 Frame(CFA_Y, -4)
        CFI (cfiCond256) R8 Frame(CFA_Y, -3)
        CFI (cfiCond256) R9 Frame(CFA_Y, -2)
        CFI (cfiCond256) R10 Frame(CFA_Y, -1)
        CFI (cfiCond256) CFA_SP SP+6
        CFI (cfiCond256) CFA_Y Y+29
        CFI Block cfiPicker257 Using cfiCommon1
        CFI (cfiPicker257) NoFunction
        CFI (cfiPicker257) Picker
        LDI	R18, 12
        CFI Block cfiCond258 Using cfiCommon0
        CFI (cfiCond258) NoFunction
        CFI (cfiCond258) Conditional ??CrossCallReturnLabel_260
        CFI (cfiCond258) R24 Frame(CFA_Y, -16)
        CFI (cfiCond258) R25 Frame(CFA_Y, -15)
        CFI (cfiCond258) R26 Frame(CFA_Y, -14)
        CFI (cfiCond258) R27 Frame(CFA_Y, -13)
        CFI (cfiCond258) R4 Frame(CFA_Y, -12)
        CFI (cfiCond258) R5 Frame(CFA_Y, -11)
        CFI (cfiCond258) R6 Frame(CFA_Y, -10)
        CFI (cfiCond258) R7 Frame(CFA_Y, -9)
        CFI (cfiCond258) R8 Frame(CFA_Y, -8)
        CFI (cfiCond258) R9 Frame(CFA_Y, -7)
        CFI (cfiCond258) R10 Frame(CFA_Y, -6)
        CFI (cfiCond258) R11 Frame(CFA_Y, -5)
        CFI (cfiCond258) R12 Frame(CFA_Y, -4)
        CFI (cfiCond258) R13 Frame(CFA_Y, -3)
        CFI (cfiCond258) R14 Frame(CFA_Y, -2)
        CFI (cfiCond258) R15 Frame(CFA_Y, -1)
        CFI (cfiCond258) CFA_SP SP+6
        CFI (cfiCond258) CFA_Y Y+34
??Subroutine42_0:
        MOVW	R17:R16, R29:R28
        SUBI	R16, 252
        RJMP	?Subroutine119
        CFI EndBlock cfiCond255
        CFI EndBlock cfiCond256
        CFI EndBlock cfiPicker257
        CFI EndBlock cfiCond258

        RSEG FARCODE:CODE:NOROOT(1)
?Subroutine38:
        CFI Block cfiCond259 Using cfiCommon0
        CFI NoFunction
        CFI Conditional ??CrossCallReturnLabel_43
        CFI R24 Frame(CFA_Y, -4)
        CFI R25 Frame(CFA_Y, -3)
        CFI R26 Frame(CFA_Y, -2)
        CFI R27 Frame(CFA_Y, -1)
        CFI CFA_SP SP+6
        CFI CFA_Y Y+22
        CFI Block cfiCond260 Using cfiCommon0
        CFI (cfiCond260) NoFunction
        CFI (cfiCond260) Conditional ??CrossCallReturnLabel_44
        CFI (cfiCond260) CFA_SP SP+6
        CFI (cfiCond260) CFA_Y Y+18
        CFI Block cfiPicker261 Using cfiCommon1
        CFI (cfiPicker261) NoFunction
        CFI (cfiPicker261) Picker
        LDI	R30, LOW(c2_byte)
        LDI	R31, (c2_byte) >> 8
        LDI	R19, 0
        ADD	R30, R18
        ADC	R31, R19
        LD	R20, Z
        LDD	R18, Z+1
        ANDI	R18, 0x07
        MOV	R19, R18
        MOV	R18, R20
        RET
        CFI EndBlock cfiCond259
        CFI EndBlock cfiCond260
        CFI EndBlock cfiPicker261

        RSEG FARCODE:CODE:NOROOT(1)
?Subroutine33:
        CFI Block cfiCond262 Using cfiCommon0
        CFI NoFunction
        CFI Conditional ??CrossCallReturnLabel_266
        CFI R24 Frame(CFA_Y, -8)
        CFI R25 Frame(CFA_Y, -7)
        CFI R26 Frame(CFA_Y, -6)
        CFI R27 Frame(CFA_Y, -5)
        CFI R4 Frame(CFA_Y, -4)
        CFI R5 Frame(CFA_Y, -3)
        CFI R6 Frame(CFA_Y, -2)
        CFI R7 Frame(CFA_Y, -1)
        CFI CFA_SP SP+6
        CFI CFA_Y Y+26
        CFI Block cfiCond263 Using cfiCommon0
        CFI (cfiCond263) NoFunction
        CFI (cfiCond263) Conditional ??CrossCallReturnLabel_265
        CFI (cfiCond263) CFA_SP SP+6
        CFI (cfiCond263) CFA_Y Y+18
        CFI Block cfiPicker264 Using cfiCommon1
        CFI (cfiPicker264) NoFunction
        CFI (cfiPicker264) Picker
        LDI	R23, 0
        LDI	R22, 0
        MOVW	R19:R18, R29:R28
        SUBI	R18, 252
        SBCI	R19, 255
        LDI	R30, LOW((modbus_mem1 + 64))
        LDI	R31, HIGH((modbus_mem1 + 64))
        LD	R20, Z
        LDD	R21, Z+1
        LDI	R16, 14
        LDI	R17, 0
        CALL	?S_EC_MUL_L02
        SUBI	R17, 160
        LDI	R20, 14
        LDI	R21, 0
        RJMP	?Subroutine120
        CFI EndBlock cfiCond262
        CFI EndBlock cfiCond263
        CFI EndBlock cfiPicker264
// 1247  ////////// 
// 1248 
// 1249 
// 1250 

        RSEG FARCODE:CODE:NOROOT(1)
// 1251 void lock_arh_tit(void)  // записать в архив значения 
lock_arh_tit:
        CFI Block cfiBlock265 Using cfiCommon0
        CFI Function lock_arh_tit
// 1252  {
        FUNCALL lock_arh_tit, store_tit_lock
        LOCFRAME CSTACK, 1, STACK
        LOCFRAME RSTACK, 3, STACK
        FUNCALL lock_arh_tit, WrArrayToFlesh
        LOCFRAME CSTACK, 1, STACK
        LOCFRAME RSTACK, 3, STACK
        FUNCALL lock_arh_tit, end_zamer_tit
        LOCFRAME CSTACK, 1, STACK
        LOCFRAME RSTACK, 3, STACK
        RCALL	?Subroutine84
        CFI R24 Frame(CFA_Y, -1)
        CFI CFA_Y Y+1
// 1253  char m;
// 1254  unsigned char i;
// 1255 
// 1256  unsigned int te; 
// 1257  
// 1258    
// 1259  te=tit_bit;   
??CrossCallReturnLabel_138:
        LDD	R16, Z+36
        LDI	R17, 0
// 1260  if (te==0) return; 
        TST	R16
        BREQ	??CrossCallReturnLabel_176
// 1261  
// 1262  
// 1263  
// 1264   
// 1265  for (m=0; m < 2;m++)
        LDI	R24, 0
        RJMP	??lock_arh_tit_0
// 1266           {
// 1267           if( te & 1)goto zap_titx; 
// 1268                           
// 1269            te=te >> 1;               
??lock_arh_tit_1:
        LSR	R16
        INC	R24
        CPI	R24, 2
        BRCC	??CrossCallReturnLabel_176
??lock_arh_tit_0:
        SBRS	R16, 0
        RJMP	??lock_arh_tit_1
// 1270           }
// 1271  return;
// 1272   
// 1273 zap_titx:   
// 1274      
// 1275 
// 1276   
// 1277   
// 1278     te=  1<<m;
// 1279                           
// 1280 tit_bit= tit_bit & ~te;
        LDI	R16, 1
        MOV	R20, R24
        RCALL	?Subroutine85
??CrossCallReturnLabel_145:
        COM	R16
        LDD	R17, Z+36
        AND	R17, R16
        STD	Z+36, R17
// 1281 
// 1282   //          send_info(sizeof(prov2),prov2,0,0);
// 1283 
// 1284             store_tit_lock(m);    // записать результат
        MOV	R16, R24
        RCALL	store_tit_lock
// 1285            
// 1286            
// 1287              
// 1288             
// 1289             
// 1290             /*
// 1291             arr_cnt_tii_heap++; 
// 1292            if ( arr_cnt_tii_heap >99) arr_cnt_tii_heap=0;
// 1293            i=arr_cnt_tii_heap; */
// 1294            
// 1295            modbus_mem1[AD_IND_DNS]++;
        RCALL	?Subroutine2
// 1296            if ( modbus_mem1[AD_IND_DNS] >99 ) {modbus_mem1[AD_IND_DNS]=0;}
// 1297            i=modbus_mem1[AD_IND_DNS];
// 1298           
// 1299            
// 1300            
// 1301            
// 1302            WrArrayToFlesh(A_IND_DNS,0,1,1,i);
// 1303            //WrArrayToFlesh(A_IND_DNS+1,0,1,1,0);
// 1304   
// 1305          
// 1306            
// 1307             end_zamer_tit(m);    // вычислить время окончания замера
??CrossCallReturnLabel_2:
        RCALL	?Subroutine94
        CFI EndBlock cfiBlock265
// 1308            
// 1309        
// 1310            
// 1311                    
// 1312   } 
??CrossCallReturnLabel_176:
        REQUIRE ?Subroutine114
        ;		// Fall through to label ?Subroutine114

        RSEG FARCODE:CODE:NOROOT(1)
?Subroutine114:
        CFI Block cfiBlock266 Using cfiCommon0
        CFI NoFunction
        CFI CFA_Y Y+1
        CFI R24 Frame(CFA_Y, -1)
        LD	R24, Y+
        CFI CFA_Y Y+0
        CFI R24 SameValue
        RET
        CFI EndBlock cfiBlock266

        RSEG FARCODE:CODE:NOROOT(1)
?Subroutine85:
        CFI Block cfiCond267 Using cfiCommon0
        CFI NoFunction
        CFI Conditional ??CrossCallReturnLabel_144
        CFI R24 Frame(CFA_Y, -12)
        CFI R25 Frame(CFA_Y, -11)
        CFI R26 Frame(CFA_Y, -10)
        CFI R27 Frame(CFA_Y, -9)
        CFI R4 Frame(CFA_Y, -8)
        CFI R5 Frame(CFA_Y, -7)
        CFI R6 Frame(CFA_Y, -6)
        CFI R7 Frame(CFA_Y, -5)
        CFI R8 Frame(CFA_Y, -4)
        CFI R9 Frame(CFA_Y, -3)
        CFI R10 Frame(CFA_Y, -2)
        CFI R11 Frame(CFA_Y, -1)
        CFI CFA_SP SP+6
        CFI CFA_Y Y+12
        CFI Block cfiCond268 Using cfiCommon0
        CFI (cfiCond268) NoFunction
        CFI (cfiCond268) Conditional ??CrossCallReturnLabel_145
        CFI (cfiCond268) R24 Frame(CFA_Y, -1)
        CFI (cfiCond268) CFA_SP SP+6
        CFI (cfiCond268) CFA_Y Y+1
        CFI Block cfiCond269 Using cfiCommon0
        CFI (cfiCond269) NoFunction
        CFI (cfiCond269) Conditional ??CrossCallReturnLabel_146
        CFI (cfiCond269) R24 Frame(CFA_Y, -9)
        CFI (cfiCond269) R25 Frame(CFA_Y, -8)
        CFI (cfiCond269) R26 Frame(CFA_Y, -7)
        CFI (cfiCond269) R27 Frame(CFA_Y, -6)
        CFI (cfiCond269) R4 Frame(CFA_Y, -5)
        CFI (cfiCond269) R5 Frame(CFA_Y, -4)
        CFI (cfiCond269) R6 Frame(CFA_Y, -3)
        CFI (cfiCond269) R7 Frame(CFA_Y, -2)
        CFI (cfiCond269) R8 Frame(CFA_Y, -1)
        CFI (cfiCond269) CFA_SP SP+6
        CFI (cfiCond269) CFA_Y Y+9
        CFI Block cfiPicker270 Using cfiCommon1
        CFI (cfiPicker270) NoFunction
        CFI (cfiPicker270) Picker
        JMP	?S_SHL_L02
        CFI EndBlock cfiCond267
        CFI EndBlock cfiCond268
        CFI EndBlock cfiCond269
        CFI EndBlock cfiPicker270
// 1313 
// 1314 
// 1315                    

        RSEG FARCODE:CODE:NOROOT(1)
// 1316 void lock_arh(void)  // записать в архив значения 
lock_arh:
        CFI Block cfiBlock271 Using cfiCommon0
        CFI Function lock_arh
// 1317  {
        FUNCALL lock_arh, store_tii_lock
        LOCFRAME CSTACK, 1, STACK
        LOCFRAME RSTACK, 3, STACK
        FUNCALL lock_arh, WrArrayToFlesh
        LOCFRAME CSTACK, 1, STACK
        LOCFRAME RSTACK, 3, STACK
        FUNCALL lock_arh, end_zamer
        LOCFRAME CSTACK, 1, STACK
        LOCFRAME RSTACK, 3, STACK
        RCALL	?Subroutine84
        CFI R24 Frame(CFA_Y, -1)
        CFI CFA_Y Y+1
// 1318  char m;
// 1319  unsigned char i;
// 1320 
// 1321  unsigned int te; 
// 1322  
// 1323    
// 1324  te=tii_bit;   
??CrossCallReturnLabel_139:
        LDD	R16, Z+28
        LDD	R17, Z+29
// 1325  if (te==0) return; 
        MOV	R18, R16
        OR	R18, R17
        BREQ	??CrossCallReturnLabel_27
// 1326  
// 1327  
// 1328  if( te & 0x8000) { m=15;goto zap_tiix; }
        BST	R17, 7
        BRTC	??lock_arh_0
        LDI	R24, 15
        RJMP	??lock_arh_1
// 1329  if( te & 0x4000) { m=14;goto zap_tiix; }
??lock_arh_0:
        BST	R17, 6
        BRTC	??lock_arh_2
        LDI	R24, 14
        RJMP	??lock_arh_1
// 1330  
// 1331   if(sel_modul==1)
??lock_arh_2:
        LDS	R18, sel_modul
        CPI	R18, 1
        LDI	R24, 0
        BRNE	??lock_arh_3
// 1332   {
// 1333     for (m=0; m < 5;m++)
// 1334           {
// 1335           if( te & 1)goto zap_tiix; 
??lock_arh_4:
        SBRC	R16, 0
        RJMP	??lock_arh_1
// 1336                           
// 1337            te=te >> 1;               
        RCALL	?Subroutine91
// 1338           }
??CrossCallReturnLabel_166:
        INC	R24
        CPI	R24, 5
        BRCC	??lock_arh_1
        RJMP	??lock_arh_4
// 1339   }
// 1340   else
// 1341   {
// 1342  for (m=0; m < 8;m++)
// 1343           {
// 1344           if( te & 1)goto zap_tiix; 
??lock_arh_3:
        SBRC	R16, 0
        RJMP	??lock_arh_1
// 1345                           
// 1346            te=te >> 1;               
        RCALL	?Subroutine91
// 1347           }
??CrossCallReturnLabel_167:
        INC	R24
        CPI	R24, 8
        BRCS	??lock_arh_3
// 1348   }
// 1349 zap_tiix:   
// 1350      
// 1351 
// 1352   
// 1353   
// 1354     te=  1<<m;
// 1355                           
// 1356 tii_bit= tii_bit & ~te;
??lock_arh_1:
        RCALL	?Subroutine59
??CrossCallReturnLabel_241:
        MOV	R20, R24
        RCALL	?Subroutine83
??CrossCallReturnLabel_137:
        LDD	R18, Z+28
        LDD	R19, Z+29
        AND	R18, R16
        AND	R19, R17
        STD	Z+28, R18
        STD	Z+29, R19
// 1357 
// 1358   //          send_info(sizeof(prov2),prov2,0,0);
// 1359 
// 1360             store_tii_lock(m);    // записать результат
        MOV	R16, R24
        RCALL	store_tii_lock
// 1361            
// 1362            
// 1363              
// 1364             
// 1365             
// 1366             /*
// 1367             arr_cnt_tii_heap++; 
// 1368            if ( arr_cnt_tii_heap >99) arr_cnt_tii_heap=0;
// 1369            i=arr_cnt_tii_heap; */
// 1370            
// 1371            modbus_mem1[AD_IND_DNS]++;
        RCALL	?Subroutine2
// 1372            if ( modbus_mem1[AD_IND_DNS] >99 ) {modbus_mem1[AD_IND_DNS]=0;}
// 1373            i=modbus_mem1[AD_IND_DNS];
// 1374           
// 1375            
// 1376            
// 1377            
// 1378            WrArrayToFlesh(A_IND_DNS,0,1,1,i);
// 1379            //WrArrayToFlesh(A_IND_DNS+1,0,1,1,0);
// 1380   
// 1381          
// 1382            
// 1383             end_zamer(m);    // вычислить время окончания замера
??CrossCallReturnLabel_3:
        RCALL	?Subroutine19
// 1384            
// 1385  __disable_interrupt();
// 1386      start_ttii[m]=arr_tii_32[m ]; // начать новый  заме               
// 1387   __enable_interrupt();            
// 1388            
// 1389                    
// 1390   } 
??CrossCallReturnLabel_27:
        RJMP	?Subroutine114
        CFI EndBlock cfiBlock271

        RSEG FARCODE:CODE:NOROOT(1)
?Subroutine91:
        CFI Block cfiCond272 Using cfiCommon0
        CFI NoFunction
        CFI Conditional ??CrossCallReturnLabel_164
        CFI R24 Frame(CFA_Y, -2)
        CFI R25 Frame(CFA_Y, -1)
        CFI CFA_SP SP+6
        CFI CFA_Y Y+20
        CFI Block cfiCond273 Using cfiCommon0
        CFI (cfiCond273) NoFunction
        CFI (cfiCond273) Conditional ??CrossCallReturnLabel_165
        CFI (cfiCond273) R24 Frame(CFA_Y, -2)
        CFI (cfiCond273) R25 Frame(CFA_Y, -1)
        CFI (cfiCond273) CFA_SP SP+6
        CFI (cfiCond273) CFA_Y Y+20
        CFI Block cfiCond274 Using cfiCommon0
        CFI (cfiCond274) NoFunction
        CFI (cfiCond274) Conditional ??CrossCallReturnLabel_166
        CFI (cfiCond274) R24 Frame(CFA_Y, -1)
        CFI (cfiCond274) CFA_SP SP+6
        CFI (cfiCond274) CFA_Y Y+1
        CFI Block cfiCond275 Using cfiCommon0
        CFI (cfiCond275) NoFunction
        CFI (cfiCond275) Conditional ??CrossCallReturnLabel_167
        CFI (cfiCond275) R24 Frame(CFA_Y, -1)
        CFI (cfiCond275) CFA_SP SP+6
        CFI (cfiCond275) CFA_Y Y+1
        CFI Block cfiPicker276 Using cfiCommon1
        CFI (cfiPicker276) NoFunction
        CFI (cfiPicker276) Picker
        LSR	R17
        ROR	R16
        RET
        CFI EndBlock cfiCond272
        CFI EndBlock cfiCond273
        CFI EndBlock cfiCond274
        CFI EndBlock cfiCond275
        CFI EndBlock cfiPicker276

        RSEG FARCODE:CODE:NOROOT(1)
?Subroutine2:
        CFI Block cfiCond277 Using cfiCommon0
        CFI NoFunction
        CFI Conditional ??CrossCallReturnLabel_2
        CFI R24 Frame(CFA_Y, -1)
        CFI CFA_SP SP+6
        CFI CFA_Y Y+1
        CFI Block cfiCond278 Using cfiCommon0
        CFI (cfiCond278) NoFunction
        CFI (cfiCond278) Conditional ??CrossCallReturnLabel_3
        CFI (cfiCond278) R24 Frame(CFA_Y, -1)
        CFI (cfiCond278) CFA_SP SP+6
        CFI (cfiCond278) CFA_Y Y+1
        CFI Block cfiPicker279 Using cfiCommon1
        CFI (cfiPicker279) NoFunction
        CFI (cfiPicker279) Picker
        LDI	R30, LOW((modbus_mem1 + 64))
        LDI	R31, HIGH((modbus_mem1 + 64))
        LD	R16, Z
        LDD	R17, Z+1
        SUBI	R16, 255
        SBCI	R17, 255
        ST	Z, R16
        STD	Z+1, R17
        CPI	R16, 100
        LDI	R18, 0
        SBCI	R17, 0
        BRCS	??Subroutine2_0
        ST	Z, R18
        STD	Z+1, R18
??Subroutine2_0:
        LD	R23, Z
        LDI	R22, 1
        LDI	R20, 1
        LDI	R21, 0
        LDI	R19, 0
        LDI	R16, 240
        LDI	R17, 3
        CALL	WrArrayToFlesh
        MOV	R16, R24
        RET
        CFI EndBlock cfiCond277
        CFI EndBlock cfiCond278
        CFI EndBlock cfiPicker279
// 1391  
// 1392 // ***************************************************процедуры ГЗУ

        RSEG FARCODE:CODE:NOROOT(1)
// 1393   char test_nenull(void)
test_nenull:
        CFI Block cfiBlock280 Using cfiCommon0
        CFI Function test_nenull
// 1394     { 
        MOV	R21, R27
        MOV	R22, R26
// 1395     char c,i,index;
// 1396     int t_i; 
// 1397    c=0;
        LDI	R16, 0
// 1398    for (i=0;i<c1_byte.mb[1*2];i++)
        LDI	R17, 0
        LDI	R30, LOW(c1_byte)
        LDI	R31, (c1_byte) >> 8
        RJMP	??test_nenull_0
// 1399                                                             {
// 1400                                                             index=6*2+i*2;
??test_nenull_1:
        MOV	R18, R17
        LSL	R18
        SUBI	R18, 244
// 1401                                          t_i=  c1_byte.mb[index] + c1_byte.mb[index+1]*256;
// 1402                                                              if ( t_i !=0) c++;
        LDI	R19, 0
        MOVW	R27:R26, R31:R30
        ADD	R26, R18
        ADC	R27, R19
        LD	R20, X
        MOVW	R27:R26, R31:R30
        ADD	R26, R18
        ADC	R27, R19
        ADIW	R27:R26, 1
        LD	R19, X
        MOV	R18, R20
        OR	R18, R19
        BREQ	??test_nenull_2
        INC	R16
// 1403                                                                          
// 1404                                                             }
??test_nenull_2:
        INC	R17
??test_nenull_0:
        LDD	R18, Z+2
        CP	R17, R18
        BRCS	??test_nenull_1
// 1405      return(c);                                                            
        MOV	R26, R22
        MOV	R27, R21
        RET
        CFI EndBlock cfiBlock280
// 1406      }
// 1407      
// 1408                                                             

        RSEG FARCODE:CODE:NOROOT(1)
// 1409 char test_switch_psm(void)
test_switch_psm:
        CFI Block cfiBlock281 Using cfiCommon0
        CFI Function test_switch_psm
// 1410 {
        LDS	R18, (modbus_mem1 + 48)
        LDS	R30, (timer_psm + 44)
        LDS	R16, (c1_byte + 2)
        CPI	R16, 8
        BRNE	??test_switch_psm_0
// 1411  if (c1_byte.mb[1*2]==8) 
// 1412                                        {                                   
// 1413                                        if ( pred_mask==8)
        CPI	R30, 8
        BRNE	??test_switch_psm_1
// 1414                                                { 
// 1415                                                   if( ((modbus_mem1[AD_TS]>> 4) &0xf) !=1 ) return(0);
??test_switch_psm_2:
        MOV	R16, R18
        ANDI	R16, 0xF0
        CPI	R16, 16
        BREQ	??test_switch_psm_3
??test_switch_psm_4:
        LDI	R16, 0
        RET
// 1416                                                   return(1);
// 1417                                                }
// 1418                                        if ( (pred_mask+1) != ((modbus_mem1[AD_TS]>> 4) &0xf) ) return(0);        
// 1419                                        return(1);
// 1420                                                     
// 1421                                        } 
// 1422 ////////////////
// 1423   if (c1_byte.mb[1*2]==14) 
??test_switch_psm_0:
        CPI	R16, 14
        BRNE	??test_switch_psm_4
// 1424                                        {                                   
// 1425                                        if ( pred_mask==14)
        CPI	R30, 14
        BREQ	??test_switch_psm_2
// 1426                                                { 
// 1427                                                   if( ((modbus_mem1[AD_TS]>> 4) &0xf) !=1 ) return(0);
// 1428                                                   return(1);
// 1429                                                }
// 1430                                        if ( (pred_mask+1) != ((modbus_mem1[AD_TS]>> 4) &0xf) ) return(0);        
// 1431                                        return(1);
// 1432                                                     
// 1433                                        }
??test_switch_psm_1:
        LDI	R31, 0
        ADIW	R31:R30, 1
        SWAP	R18
        ANDI	R18, 0x0F
        CP	R30, R18
        SBCI	R31, 0
        BRNE	??test_switch_psm_4
??test_switch_psm_3:
        LDI	R16, 1
        RET
        CFI EndBlock cfiBlock281
// 1434  return(0);                                                                             
// 1435 }
// 1436 
// 1437 
// 1438 
// 1439 
// 1440   
// 1441   ////////////////////////////////////////

        RSEG FARCODE:CODE:NOROOT(1)
// 1442 void store_ys_minut(void)  // записать в архив значения за минуту
store_ys_minut:
        CFI Block cfiBlock282 Using cfiCommon0
        CFI Function store_ys_minut
// 1443  {
        FUNCALL store_ys_minut, crc_sum
        LOCFRAME CSTACK, 26, STACK
        LOCFRAME RSTACK, 3, STACK
        FUNCALL store_ys_minut, WrArrayToFlesh
        LOCFRAME CSTACK, 26, STACK
        LOCFRAME RSTACK, 3, STACK
        RCALL	?Subroutine95
        CFI R24 Frame(CFA_Y, -8)
        CFI R25 Frame(CFA_Y, -7)
        CFI R26 Frame(CFA_Y, -6)
        CFI R27 Frame(CFA_Y, -5)
        CFI R4 Frame(CFA_Y, -4)
        CFI R5 Frame(CFA_Y, -3)
        CFI R6 Frame(CFA_Y, -2)
        CFI R7 Frame(CFA_Y, -1)
        CFI CFA_Y Y+8
??CrossCallReturnLabel_178:
        REQUIRE	?Register_R4_is_cg_reg
        REQUIRE	?Register_R5_is_cg_reg
        REQUIRE	?Register_R6_is_cg_reg
        REQUIRE	?Register_R7_is_cg_reg
        SBIW	R29:R28, 18
        CFI CFA_Y Y+26
// 1444  char index;
// 1445 unsigned int t_i;
// 1446 union
// 1447    {     
// 1448    long int unix;
// 1449    char st[4]; 
// 1450    } tik;     
// 1451 unsigned char zapis[14];  
// 1452        
// 1453            
// 1454            
// 1455            bit_zamer_psm=0;
        LDI	R26, LOW(timer_psm)
        LDI	R27, (timer_psm) >> 8
        RCALL	?Subroutine13
??CrossCallReturnLabel_247:
        STD	Z+34, R16
// 1456 
// 1457                                         
// 1458                                         tik.unix=unix_psm;        
        RCALL	?Subroutine75
??CrossCallReturnLabel_115:
        RCALL	?Subroutine107
// 1459      
// 1460                                          zapis[0]=tik.st[0];
??CrossCallReturnLabel_218:
        RCALL	?Subroutine29
// 1461                                          zapis[1]=tik.st[1];
// 1462                                          zapis[2]=tik.st[2];
// 1463                                          zapis[3]=tik.st[3];
// 1464                                            
// 1465      __disable_interrupt();
// 1466   t_i=delta_ys+(arr_tii_32[c1_byte.mb[4*2] ]- start_tii_gzu)/2;
??CrossCallReturnLabel_35:
        LDD	R20, Z+20
        LDD	R21, Z+21
        MOVW	R31:R30, R17:R16
        LDD	R18, Z+8
        LDI	R19, 4
        MUL	R18, R19
        MOVW	R31:R30, R1:R0
        RCALL	?Subroutine47
??CrossCallReturnLabel_216:
        MOVW	R31:R30, R27:R26
        LDD	R4, Z+16
        LDD	R5, Z+17
        LDD	R6, Z+18
        LDD	R7, Z+19
        RCALL	?Subroutine96
??CrossCallReturnLabel_181:
        LSR	R3
        ROR	R2
        ROR	R1
        ROR	R0
        ADD	R0, R20
        ADC	R1, R21
// 1467    __enable_interrupt(); 
        SEI
// 1468   zapis[6]=t_i;
        STD	Y+10, R0
// 1469   zapis[7]=t_i >>8; 
        STD	Y+11, R1
// 1470   
// 1471                                         
// 1472   
// 1473 //////    
// 1474  index=6*2+( tekpsm-1)*2;    
        LDD	R20, Z+43
        MOV	R18, R20
        RCALL	?Subroutine40
// 1475   
// 1476   t_i=  (( ( unsigned long int)c1_byte.mb[index] + ( unsigned long int)c1_byte.mb[index+1]*256)); // реальное время замера
??CrossCallReturnLabel_49:
        LD	R18, Z
        LDD	R1, Z+1
// 1477   zapis[4]=t_i;
        STD	Y+8, R18
// 1478   zapis[5]=t_i >>8;       
        STD	Y+9, R1
// 1479   
// 1480   zapis[8]=tekpsm;
        STD	Y+12, R20
// 1481   zapis[9]=0; 
        STD	Y+13, R19
// 1482   
// 1483       
// 1484                           
// 1485                                                    
// 1486 *(int*)&zapis[10]=crc_sum(&zapis[0],10);     
        RCALL	?Subroutine32
        CFI CFA_Y Y+8
// 1487 WrArrayToFlesh(STRUCT_US  + modbus_mem1[AD_IND_GZU]*12,&zapis[0],12,0,0);
// 1488   
// 1489  
// 1490             bit_zamer_psm=0; 
// 1491            
// 1492  }
??CrossCallReturnLabel_243:
        RJMP	?Subroutine126
        CFI EndBlock cfiBlock282

        RSEG FARCODE:CODE:NOROOT(1)
?Subroutine96:
        CFI Block cfiCond283 Using cfiCommon0
        CFI NoFunction
        CFI Conditional ??CrossCallReturnLabel_180
        CFI R24 Frame(CFA_Y, -8)
        CFI R25 Frame(CFA_Y, -7)
        CFI R26 Frame(CFA_Y, -6)
        CFI R27 Frame(CFA_Y, -5)
        CFI R4 Frame(CFA_Y, -4)
        CFI R5 Frame(CFA_Y, -3)
        CFI R6 Frame(CFA_Y, -2)
        CFI R7 Frame(CFA_Y, -1)
        CFI CFA_SP SP+6
        CFI CFA_Y Y+26
        CFI Block cfiCond284 Using cfiCommon0
        CFI (cfiCond284) NoFunction
        CFI (cfiCond284) Conditional ??CrossCallReturnLabel_181
        CFI (cfiCond284) R24 Frame(CFA_Y, -8)
        CFI (cfiCond284) R25 Frame(CFA_Y, -7)
        CFI (cfiCond284) R26 Frame(CFA_Y, -6)
        CFI (cfiCond284) R27 Frame(CFA_Y, -5)
        CFI (cfiCond284) R4 Frame(CFA_Y, -4)
        CFI (cfiCond284) R5 Frame(CFA_Y, -3)
        CFI (cfiCond284) R6 Frame(CFA_Y, -2)
        CFI (cfiCond284) R7 Frame(CFA_Y, -1)
        CFI (cfiCond284) CFA_SP SP+6
        CFI (cfiCond284) CFA_Y Y+26
        CFI Block cfiPicker285 Using cfiCommon1
        CFI (cfiPicker285) NoFunction
        CFI (cfiPicker285) Picker
        SUB	R0, R4
        SBC	R1, R5
        SBC	R2, R6
        SBC	R3, R7
        RET
        CFI EndBlock cfiCond283
        CFI EndBlock cfiCond284
        CFI EndBlock cfiPicker285

        RSEG FARCODE:CODE:NOROOT(1)
?Subroutine95:
        CFI Block cfiCond286 Using cfiCommon0
        CFI NoFunction
        CFI Conditional ??CrossCallReturnLabel_177
        CFI CFA_SP SP+6
        CFI Block cfiCond287 Using cfiCommon0
        CFI (cfiCond287) NoFunction
        CFI (cfiCond287) Conditional ??CrossCallReturnLabel_178
        CFI (cfiCond287) CFA_SP SP+6
        CFI Block cfiCond288 Using cfiCommon0
        CFI (cfiCond288) NoFunction
        CFI (cfiCond288) Conditional ??CrossCallReturnLabel_179
        CFI (cfiCond288) CFA_SP SP+6
        CFI Block cfiPicker289 Using cfiCommon1
        CFI (cfiPicker289) NoFunction
        CFI (cfiPicker289) Picker
        JMP	?PROLOGUE8_L09
        CFI EndBlock cfiCond286
        CFI EndBlock cfiCond287
        CFI EndBlock cfiCond288
        CFI EndBlock cfiPicker289

        RSEG FARCODE:CODE:NOROOT(1)
?Subroutine75:
        CFI Block cfiCond290 Using cfiCommon0
        CFI NoFunction
        CFI Conditional ??CrossCallReturnLabel_114
        CFI R24 Frame(CFA_Y, -6)
        CFI R25 Frame(CFA_Y, -5)
        CFI R26 Frame(CFA_Y, -4)
        CFI R27 Frame(CFA_Y, -3)
        CFI R4 Frame(CFA_Y, -2)
        CFI R5 Frame(CFA_Y, -1)
        CFI CFA_SP SP+6
        CFI CFA_Y Y+28
        CFI Block cfiCond291 Using cfiCommon0
        CFI (cfiCond291) NoFunction
        CFI (cfiCond291) Conditional ??CrossCallReturnLabel_115
        CFI (cfiCond291) R24 Frame(CFA_Y, -8)
        CFI (cfiCond291) R25 Frame(CFA_Y, -7)
        CFI (cfiCond291) R26 Frame(CFA_Y, -6)
        CFI (cfiCond291) R27 Frame(CFA_Y, -5)
        CFI (cfiCond291) R4 Frame(CFA_Y, -4)
        CFI (cfiCond291) R5 Frame(CFA_Y, -3)
        CFI (cfiCond291) R6 Frame(CFA_Y, -2)
        CFI (cfiCond291) R7 Frame(CFA_Y, -1)
        CFI (cfiCond291) CFA_SP SP+6
        CFI (cfiCond291) CFA_Y Y+26
        CFI Block cfiPicker292 Using cfiCommon1
        CFI (cfiPicker292) NoFunction
        CFI (cfiPicker292) Picker
        LDD	R16, Z+4
        LDD	R17, Z+5
        LDD	R18, Z+6
        LDD	R19, Z+7
        RET
        CFI EndBlock cfiCond290
        CFI EndBlock cfiCond291
        CFI EndBlock cfiPicker292

        RSEG FARCODE:CODE:NOROOT(1)
?Subroutine107:
        CFI Block cfiCond293 Using cfiCommon0
        CFI NoFunction
        CFI Conditional ??CrossCallReturnLabel_217
        CFI R24 Frame(CFA_Y, -6)
        CFI R25 Frame(CFA_Y, -5)
        CFI R26 Frame(CFA_Y, -4)
        CFI R27 Frame(CFA_Y, -3)
        CFI R4 Frame(CFA_Y, -2)
        CFI R5 Frame(CFA_Y, -1)
        CFI CFA_SP SP+6
        CFI CFA_Y Y+28
        CFI Block cfiCond294 Using cfiCommon0
        CFI (cfiCond294) NoFunction
        CFI (cfiCond294) Conditional ??CrossCallReturnLabel_218
        CFI (cfiCond294) R24 Frame(CFA_Y, -8)
        CFI (cfiCond294) R25 Frame(CFA_Y, -7)
        CFI (cfiCond294) R26 Frame(CFA_Y, -6)
        CFI (cfiCond294) R27 Frame(CFA_Y, -5)
        CFI (cfiCond294) R4 Frame(CFA_Y, -4)
        CFI (cfiCond294) R5 Frame(CFA_Y, -3)
        CFI (cfiCond294) R6 Frame(CFA_Y, -2)
        CFI (cfiCond294) R7 Frame(CFA_Y, -1)
        CFI (cfiCond294) CFA_SP SP+6
        CFI (cfiCond294) CFA_Y Y+26
        CFI Block cfiCond295 Using cfiCommon0
        CFI (cfiCond295) NoFunction
        CFI (cfiCond295) Conditional ??CrossCallReturnLabel_219
        CFI (cfiCond295) R24 Frame(CFA_Y, -3)
        CFI (cfiCond295) R25 Frame(CFA_Y, -2)
        CFI (cfiCond295) R26 Frame(CFA_Y, -1)
        CFI (cfiCond295) CFA_SP SP+6
        CFI (cfiCond295) CFA_Y Y+21
        CFI Block cfiCond296 Using cfiCommon0
        CFI (cfiCond296) NoFunction
        CFI (cfiCond296) Conditional ??CrossCallReturnLabel_220
        CFI (cfiCond296) R24 Frame(CFA_Y, -6)
        CFI (cfiCond296) R25 Frame(CFA_Y, -5)
        CFI (cfiCond296) R26 Frame(CFA_Y, -4)
        CFI (cfiCond296) R27 Frame(CFA_Y, -3)
        CFI (cfiCond296) R4 Frame(CFA_Y, -2)
        CFI (cfiCond296) R5 Frame(CFA_Y, -1)
        CFI (cfiCond296) CFA_SP SP+6
        CFI (cfiCond296) CFA_Y Y+24
        CFI Block cfiPicker297 Using cfiCommon1
        CFI (cfiPicker297) NoFunction
        CFI (cfiPicker297) Picker
        ST	Y, R16
        STD	Y+1, R17
        STD	Y+2, R18
        STD	Y+3, R19
        RET
        CFI EndBlock cfiCond293
        CFI EndBlock cfiCond294
        CFI EndBlock cfiCond295
        CFI EndBlock cfiCond296
        CFI EndBlock cfiPicker297

        RSEG FARCODE:CODE:NOROOT(1)
?Subroutine13:
        CFI Block cfiCond298 Using cfiCommon0
        CFI NoFunction
        CFI Conditional ??CrossCallReturnLabel_245
        CFI R24 Frame(CFA_Y, -6)
        CFI R25 Frame(CFA_Y, -5)
        CFI R26 Frame(CFA_Y, -4)
        CFI R27 Frame(CFA_Y, -3)
        CFI R4 Frame(CFA_Y, -2)
        CFI R5 Frame(CFA_Y, -1)
        CFI CFA_SP SP+6
        CFI CFA_Y Y+28
        CFI Block cfiCond299 Using cfiCommon0
        CFI (cfiCond299) NoFunction
        CFI (cfiCond299) Conditional ??CrossCallReturnLabel_246
        CFI (cfiCond299) R24 Frame(CFA_Y, -12)
        CFI (cfiCond299) R25 Frame(CFA_Y, -11)
        CFI (cfiCond299) R26 Frame(CFA_Y, -10)
        CFI (cfiCond299) R27 Frame(CFA_Y, -9)
        CFI (cfiCond299) R4 Frame(CFA_Y, -8)
        CFI (cfiCond299) R5 Frame(CFA_Y, -7)
        CFI (cfiCond299) R6 Frame(CFA_Y, -6)
        CFI (cfiCond299) R7 Frame(CFA_Y, -5)
        CFI (cfiCond299) R8 Frame(CFA_Y, -4)
        CFI (cfiCond299) R9 Frame(CFA_Y, -3)
        CFI (cfiCond299) R10 Frame(CFA_Y, -2)
        CFI (cfiCond299) R11 Frame(CFA_Y, -1)
        CFI (cfiCond299) CFA_SP SP+6
        CFI (cfiCond299) CFA_Y Y+12
        CFI Block cfiCond300 Using cfiCommon0
        CFI (cfiCond300) NoFunction
        CFI (cfiCond300) Conditional ??CrossCallReturnLabel_247
        CFI (cfiCond300) R24 Frame(CFA_Y, -8)
        CFI (cfiCond300) R25 Frame(CFA_Y, -7)
        CFI (cfiCond300) R26 Frame(CFA_Y, -6)
        CFI (cfiCond300) R27 Frame(CFA_Y, -5)
        CFI (cfiCond300) R4 Frame(CFA_Y, -4)
        CFI (cfiCond300) R5 Frame(CFA_Y, -3)
        CFI (cfiCond300) R6 Frame(CFA_Y, -2)
        CFI (cfiCond300) R7 Frame(CFA_Y, -1)
        CFI (cfiCond300) CFA_SP SP+6
        CFI (cfiCond300) CFA_Y Y+26
        CFI Block cfiCond301 Using cfiCommon0
        CFI (cfiCond301) NoFunction
        CFI (cfiCond301) Conditional ??CrossCallReturnLabel_248
        CFI (cfiCond301) R24 Frame(CFA_Y, -6)
        CFI (cfiCond301) R25 Frame(CFA_Y, -5)
        CFI (cfiCond301) R26 Frame(CFA_Y, -4)
        CFI (cfiCond301) R27 Frame(CFA_Y, -3)
        CFI (cfiCond301) R4 Frame(CFA_Y, -2)
        CFI (cfiCond301) R5 Frame(CFA_Y, -1)
        CFI (cfiCond301) CFA_SP SP+6
        CFI (cfiCond301) CFA_Y Y+24
        CFI Block cfiPicker302 Using cfiCommon1
        CFI (cfiPicker302) NoFunction
        CFI (cfiPicker302) Picker
        LDI	R16, 0
        CFI EndBlock cfiCond298
        CFI EndBlock cfiCond299
        CFI EndBlock cfiCond300
        CFI EndBlock cfiCond301
        CFI EndBlock cfiPicker302
        REQUIRE ?Subroutine115
        ;		// Fall through to label ?Subroutine115

        RSEG FARCODE:CODE:NOROOT(1)
?Subroutine115:
        CFI Block cfiCond303 Using cfiCommon0
        CFI NoFunction
        CFI Conditional ??CrossCallReturnLabel_245
        CFI R24 Frame(CFA_Y, -6)
        CFI R25 Frame(CFA_Y, -5)
        CFI R26 Frame(CFA_Y, -4)
        CFI R27 Frame(CFA_Y, -3)
        CFI R4 Frame(CFA_Y, -2)
        CFI R5 Frame(CFA_Y, -1)
        CFI CFA_SP SP+6
        CFI CFA_Y Y+28
        CFI Block cfiCond304 Using cfiCommon0
        CFI (cfiCond304) NoFunction
        CFI (cfiCond304) Conditional ??CrossCallReturnLabel_246
        CFI (cfiCond304) R24 Frame(CFA_Y, -12)
        CFI (cfiCond304) R25 Frame(CFA_Y, -11)
        CFI (cfiCond304) R26 Frame(CFA_Y, -10)
        CFI (cfiCond304) R27 Frame(CFA_Y, -9)
        CFI (cfiCond304) R4 Frame(CFA_Y, -8)
        CFI (cfiCond304) R5 Frame(CFA_Y, -7)
        CFI (cfiCond304) R6 Frame(CFA_Y, -6)
        CFI (cfiCond304) R7 Frame(CFA_Y, -5)
        CFI (cfiCond304) R8 Frame(CFA_Y, -4)
        CFI (cfiCond304) R9 Frame(CFA_Y, -3)
        CFI (cfiCond304) R10 Frame(CFA_Y, -2)
        CFI (cfiCond304) R11 Frame(CFA_Y, -1)
        CFI (cfiCond304) CFA_SP SP+6
        CFI (cfiCond304) CFA_Y Y+12
        CFI Block cfiCond305 Using cfiCommon0
        CFI (cfiCond305) NoFunction
        CFI (cfiCond305) Conditional ??CrossCallReturnLabel_247
        CFI (cfiCond305) R24 Frame(CFA_Y, -8)
        CFI (cfiCond305) R25 Frame(CFA_Y, -7)
        CFI (cfiCond305) R26 Frame(CFA_Y, -6)
        CFI (cfiCond305) R27 Frame(CFA_Y, -5)
        CFI (cfiCond305) R4 Frame(CFA_Y, -4)
        CFI (cfiCond305) R5 Frame(CFA_Y, -3)
        CFI (cfiCond305) R6 Frame(CFA_Y, -2)
        CFI (cfiCond305) R7 Frame(CFA_Y, -1)
        CFI (cfiCond305) CFA_SP SP+6
        CFI (cfiCond305) CFA_Y Y+26
        CFI Block cfiCond306 Using cfiCommon0
        CFI (cfiCond306) NoFunction
        CFI (cfiCond306) Conditional ??CrossCallReturnLabel_248
        CFI (cfiCond306) R24 Frame(CFA_Y, -6)
        CFI (cfiCond306) R25 Frame(CFA_Y, -5)
        CFI (cfiCond306) R26 Frame(CFA_Y, -4)
        CFI (cfiCond306) R27 Frame(CFA_Y, -3)
        CFI (cfiCond306) R4 Frame(CFA_Y, -2)
        CFI (cfiCond306) R5 Frame(CFA_Y, -1)
        CFI (cfiCond306) CFA_SP SP+6
        CFI (cfiCond306) CFA_Y Y+24
        CFI Block cfiCond307 Using cfiCommon0
        CFI (cfiCond307) NoFunction
        CFI (cfiCond307) Conditional ??CrossCallReturnLabel_249
        CFI (cfiCond307) R24 Frame(CFA_Y, -16)
        CFI (cfiCond307) R25 Frame(CFA_Y, -15)
        CFI (cfiCond307) R26 Frame(CFA_Y, -14)
        CFI (cfiCond307) R27 Frame(CFA_Y, -13)
        CFI (cfiCond307) R4 Frame(CFA_Y, -12)
        CFI (cfiCond307) R5 Frame(CFA_Y, -11)
        CFI (cfiCond307) R6 Frame(CFA_Y, -10)
        CFI (cfiCond307) R7 Frame(CFA_Y, -9)
        CFI (cfiCond307) R8 Frame(CFA_Y, -8)
        CFI (cfiCond307) R9 Frame(CFA_Y, -7)
        CFI (cfiCond307) R10 Frame(CFA_Y, -6)
        CFI (cfiCond307) R11 Frame(CFA_Y, -5)
        CFI (cfiCond307) R12 Frame(CFA_Y, -4)
        CFI (cfiCond307) R13 Frame(CFA_Y, -3)
        CFI (cfiCond307) R14 Frame(CFA_Y, -2)
        CFI (cfiCond307) R15 Frame(CFA_Y, -1)
        CFI (cfiCond307) CFA_SP SP+6
        CFI (cfiCond307) CFA_Y Y+34
        CFI Block cfiCond308 Using cfiCommon0
        CFI (cfiCond308) NoFunction
        CFI (cfiCond308) Conditional ??CrossCallReturnLabel_250
        CFI (cfiCond308) R24 Frame(CFA_Y, -16)
        CFI (cfiCond308) R25 Frame(CFA_Y, -15)
        CFI (cfiCond308) R26 Frame(CFA_Y, -14)
        CFI (cfiCond308) R27 Frame(CFA_Y, -13)
        CFI (cfiCond308) R4 Frame(CFA_Y, -12)
        CFI (cfiCond308) R5 Frame(CFA_Y, -11)
        CFI (cfiCond308) R6 Frame(CFA_Y, -10)
        CFI (cfiCond308) R7 Frame(CFA_Y, -9)
        CFI (cfiCond308) R8 Frame(CFA_Y, -8)
        CFI (cfiCond308) R9 Frame(CFA_Y, -7)
        CFI (cfiCond308) R10 Frame(CFA_Y, -6)
        CFI (cfiCond308) R11 Frame(CFA_Y, -5)
        CFI (cfiCond308) R12 Frame(CFA_Y, -4)
        CFI (cfiCond308) R13 Frame(CFA_Y, -3)
        CFI (cfiCond308) R14 Frame(CFA_Y, -2)
        CFI (cfiCond308) R15 Frame(CFA_Y, -1)
        CFI (cfiCond308) CFA_SP SP+6
        CFI (cfiCond308) CFA_Y Y+34
        CFI Block cfiPicker309 Using cfiCommon1
        CFI (cfiPicker309) NoFunction
        CFI (cfiPicker309) Picker
        MOVW	R31:R30, R27:R26
        RET
        CFI EndBlock cfiCond303
        CFI EndBlock cfiCond304
        CFI EndBlock cfiCond305
        CFI EndBlock cfiCond306
        CFI EndBlock cfiCond307
        CFI EndBlock cfiCond308
        CFI EndBlock cfiPicker309
// 1493 ///////////////////////////           

        RSEG FARCODE:CODE:NOROOT(1)
// 1494 void store_ys_lock(void)  // записать в архив значения 
store_ys_lock:
        CFI Block cfiBlock310 Using cfiCommon0
        CFI Function store_ys_lock
// 1495  {
        FUNCALL store_ys_lock, crc_sum
        LOCFRAME CSTACK, 26, STACK
        LOCFRAME RSTACK, 3, STACK
        FUNCALL store_ys_lock, WrArrayToFlesh
        LOCFRAME CSTACK, 26, STACK
        LOCFRAME RSTACK, 3, STACK
        CALL	?PROLOGUE6_L09
        CFI R5 Frame(CFA_Y, -1)
        CFI R4 Frame(CFA_Y, -2)
        CFI R27 Frame(CFA_Y, -3)
        CFI R26 Frame(CFA_Y, -4)
        CFI R25 Frame(CFA_Y, -5)
        CFI R24 Frame(CFA_Y, -6)
        CFI CFA_Y Y+6
        REQUIRE	?Register_R4_is_cg_reg
        REQUIRE	?Register_R5_is_cg_reg
        SBIW	R29:R28, 18
        CFI CFA_Y Y+24
// 1496  char index;
// 1497 unsigned int t_i;
// 1498 union
// 1499    {     
// 1500    long int unix;
// 1501    char st[4]; 
// 1502    } tik;     
// 1503 unsigned char zapis[14]; 
// 1504   
// 1505                    
// 1506            bit_zamer_psm=0;
        LDI	R26, LOW(timer_psm)
        LDI	R27, (timer_psm) >> 8
        RCALL	?Subroutine13
??CrossCallReturnLabel_248:
        STD	Z+34, R16
// 1507 
// 1508                                         
// 1509                                         tik.unix=unix;    //  unix_psm;   27 06 06     
        RCALL	?Subroutine22
// 1510      
// 1511                                          zapis[0]=tik.st[0];
??CrossCallReturnLabel_220:
        RCALL	?Subroutine29
// 1512                                          zapis[1]=tik.st[1];
// 1513                                          zapis[2]=tik.st[2];
// 1514                                          zapis[3]=tik.st[3];
// 1515                                            
// 1516     __disable_interrupt();
// 1517   t_i=delta_ys+(arr_tii_32[c1_byte.mb[4*2] ]- start_tii_gzu)/2;
??CrossCallReturnLabel_36:
        MOVW	R31:R30, R27:R26
        LDD	R20, Z+20
        LDD	R21, Z+21
        MOVW	R19:R18, R21:R20
        MOVW	R31:R30, R17:R16
        LDD	R20, Z+8
        LDI	R21, 4
        MUL	R20, R21
        RCALL	?Subroutine45
??CrossCallReturnLabel_204:
        MOVW	R31:R30, R27:R26
        LDD	R0, Z+16
        LDD	R1, Z+17
        LDD	R2, Z+18
        LDD	R3, Z+19
        RCALL	?Subroutine92
??CrossCallReturnLabel_169:
        LSR	R23
        ROR	R22
        ROR	R21
        ROR	R20
        ADD	R18, R20
        ADC	R21, R19
// 1518     __enable_interrupt(); 
        SEI
// 1519   zapis[6]=t_i;
        STD	Y+10, R18
// 1520   zapis[7]=t_i >>8; 
        STD	Y+11, R21
// 1521   
// 1522                                         
// 1523   
// 1524 //////    
// 1525  index=6*2+( tekpsm-1)*2;    
        LDD	R24, Z+43
        MOV	R18, R24
        RCALL	?Subroutine40
// 1526  //  t_i=global_count_psm/60;
// 1527  //  if ( (global_count_psm%60) >20 ) t_i++;
// 1528    
// 1529   t_i=  (( ( unsigned long int)c1_byte.mb[index] + ( unsigned long int)c1_byte.mb[index+1]*256)); 
// 1530   t_i=t_i- (timer_psm/60);            // реальный интервал замера 07 02 2013
??CrossCallReturnLabel_50:
        LD	R4, Z
        LDD	R5, Z+1
        RCALL	?Subroutine74
??CrossCallReturnLabel_254:
        LDI	R20, 60
        LDI	R21, 0
        LDI	R22, 0
        LDI	R23, 0
        CALL	?UL_DIVMOD_L03
        MOVW	R21:R20, R5:R4
        SUB	R20, R16
        SBC	R21, R17
// 1531   if ( t_i==0) t_i=1;
        MOV	R16, R20
        OR	R16, R21
        BRNE	??store_ys_lock_0
        LDI	R20, 1
        LDI	R21, 0
// 1532   
// 1533   zapis[4]=t_i;
??store_ys_lock_0:
        STD	Y+8, R20
// 1534   zapis[5]=t_i >>8;  
        STD	Y+9, R21
// 1535   
// 1536    zapis[8]=tekpsm;
        STD	Y+12, R24
// 1537   zapis[9]=0; 
        LDI	R16, 0
        STD	Y+13, R16
// 1538   
// 1539                                                      
// 1540 *(int*)&zapis[10]=crc_sum(&zapis[0],10);     
        RCALL	?Subroutine32
        CFI CFA_Y Y+6
        CFI EndBlock cfiBlock310
// 1541 WrArrayToFlesh(STRUCT_US  + modbus_mem1[AD_IND_GZU]*12,&zapis[0],12,0,0);
// 1542 bit_zamer_psm=0;
// 1543              
// 1544            
// 1545  }
??CrossCallReturnLabel_244:
        REQUIRE ?Subroutine118
        ;		// Fall through to label ?Subroutine118

        RSEG FARCODE:CODE:NOROOT(1)
?Subroutine118:
        CFI Block cfiBlock311 Using cfiCommon0
        CFI NoFunction
        CFI CFA_Y Y+6
        CFI R4 Frame(CFA_Y, -2)
        CFI R5 Frame(CFA_Y, -1)
        CFI R24 Frame(CFA_Y, -6)
        CFI R25 Frame(CFA_Y, -5)
        CFI R26 Frame(CFA_Y, -4)
        CFI R27 Frame(CFA_Y, -3)
        LDI	R30, 6
        JMP	?EPILOGUE_B6_L09
        CFI EndBlock cfiBlock311

        RSEG FARCODE:CODE:NOROOT(1)
?Subroutine92:
        CFI Block cfiCond312 Using cfiCommon0
        CFI NoFunction
        CFI Conditional ??CrossCallReturnLabel_168
        CFI R24 Frame(CFA_Y, -2)
        CFI R25 Frame(CFA_Y, -1)
        CFI CFA_SP SP+6
        CFI CFA_Y Y+20
        CFI Block cfiCond313 Using cfiCommon0
        CFI (cfiCond313) NoFunction
        CFI (cfiCond313) Conditional ??CrossCallReturnLabel_169
        CFI (cfiCond313) R24 Frame(CFA_Y, -6)
        CFI (cfiCond313) R25 Frame(CFA_Y, -5)
        CFI (cfiCond313) R26 Frame(CFA_Y, -4)
        CFI (cfiCond313) R27 Frame(CFA_Y, -3)
        CFI (cfiCond313) R4 Frame(CFA_Y, -2)
        CFI (cfiCond313) R5 Frame(CFA_Y, -1)
        CFI (cfiCond313) CFA_SP SP+6
        CFI (cfiCond313) CFA_Y Y+24
        CFI Block cfiPicker314 Using cfiCommon1
        CFI (cfiPicker314) NoFunction
        CFI (cfiPicker314) Picker
        SUB	R20, R0
        SBC	R21, R1
        SBC	R22, R2
        SBC	R23, R3
        RET
        CFI EndBlock cfiCond312
        CFI EndBlock cfiCond313
        CFI EndBlock cfiPicker314

        RSEG FARCODE:CODE:NOROOT(1)
?Subroutine74:
        CFI Block cfiCond315 Using cfiCommon0
        CFI NoFunction
        CFI Conditional ??CrossCallReturnLabel_253
        CFI R24 Frame(CFA_Y, -6)
        CFI R25 Frame(CFA_Y, -5)
        CFI R26 Frame(CFA_Y, -4)
        CFI R27 Frame(CFA_Y, -3)
        CFI R4 Frame(CFA_Y, -2)
        CFI R5 Frame(CFA_Y, -1)
        CFI CFA_SP SP+6
        CFI CFA_Y Y+28
        CFI Block cfiCond316 Using cfiCommon0
        CFI (cfiCond316) NoFunction
        CFI (cfiCond316) Conditional ??CrossCallReturnLabel_254
        CFI (cfiCond316) R24 Frame(CFA_Y, -6)
        CFI (cfiCond316) R25 Frame(CFA_Y, -5)
        CFI (cfiCond316) R26 Frame(CFA_Y, -4)
        CFI (cfiCond316) R27 Frame(CFA_Y, -3)
        CFI (cfiCond316) R4 Frame(CFA_Y, -2)
        CFI (cfiCond316) R5 Frame(CFA_Y, -1)
        CFI (cfiCond316) CFA_SP SP+6
        CFI (cfiCond316) CFA_Y Y+24
        CFI Block cfiPicker317 Using cfiCommon1
        CFI (cfiPicker317) NoFunction
        CFI (cfiPicker317) Picker
        LD	R16, X+
        LD	R17, X+
        LD	R18, X+
        LD	R19, X
        CFI EndBlock cfiCond315
        CFI EndBlock cfiCond316
        CFI EndBlock cfiPicker317
        REQUIRE ?Subroutine116
        ;		// Fall through to label ?Subroutine116

        RSEG FARCODE:CODE:NOROOT(1)
?Subroutine116:
        CFI Block cfiCond318 Using cfiCommon0
        CFI NoFunction
        CFI Conditional ??CrossCallReturnLabel_253
        CFI R24 Frame(CFA_Y, -6)
        CFI R25 Frame(CFA_Y, -5)
        CFI R26 Frame(CFA_Y, -4)
        CFI R27 Frame(CFA_Y, -3)
        CFI R4 Frame(CFA_Y, -2)
        CFI R5 Frame(CFA_Y, -1)
        CFI CFA_SP SP+6
        CFI CFA_Y Y+28
        CFI Block cfiCond319 Using cfiCommon0
        CFI (cfiCond319) NoFunction
        CFI (cfiCond319) Conditional ??CrossCallReturnLabel_254
        CFI (cfiCond319) R24 Frame(CFA_Y, -6)
        CFI (cfiCond319) R25 Frame(CFA_Y, -5)
        CFI (cfiCond319) R26 Frame(CFA_Y, -4)
        CFI (cfiCond319) R27 Frame(CFA_Y, -3)
        CFI (cfiCond319) R4 Frame(CFA_Y, -2)
        CFI (cfiCond319) R5 Frame(CFA_Y, -1)
        CFI (cfiCond319) CFA_SP SP+6
        CFI (cfiCond319) CFA_Y Y+24
        CFI Block cfiCond320 Using cfiCommon0
        CFI (cfiCond320) NoFunction
        CFI (cfiCond320) Conditional ??CrossCallReturnLabel_251
        CFI (cfiCond320) R24 Frame(CFA_Y, -16)
        CFI (cfiCond320) R25 Frame(CFA_Y, -15)
        CFI (cfiCond320) R26 Frame(CFA_Y, -14)
        CFI (cfiCond320) R27 Frame(CFA_Y, -13)
        CFI (cfiCond320) R4 Frame(CFA_Y, -12)
        CFI (cfiCond320) R5 Frame(CFA_Y, -11)
        CFI (cfiCond320) R6 Frame(CFA_Y, -10)
        CFI (cfiCond320) R7 Frame(CFA_Y, -9)
        CFI (cfiCond320) R8 Frame(CFA_Y, -8)
        CFI (cfiCond320) R9 Frame(CFA_Y, -7)
        CFI (cfiCond320) R10 Frame(CFA_Y, -6)
        CFI (cfiCond320) R11 Frame(CFA_Y, -5)
        CFI (cfiCond320) R12 Frame(CFA_Y, -4)
        CFI (cfiCond320) R13 Frame(CFA_Y, -3)
        CFI (cfiCond320) R14 Frame(CFA_Y, -2)
        CFI (cfiCond320) R15 Frame(CFA_Y, -1)
        CFI (cfiCond320) CFA_SP SP+6
        CFI (cfiCond320) CFA_Y Y+34
        CFI Block cfiCond321 Using cfiCommon0
        CFI (cfiCond321) NoFunction
        CFI (cfiCond321) Conditional ??CrossCallReturnLabel_252
        CFI (cfiCond321) R24 Frame(CFA_Y, -16)
        CFI (cfiCond321) R25 Frame(CFA_Y, -15)
        CFI (cfiCond321) R26 Frame(CFA_Y, -14)
        CFI (cfiCond321) R27 Frame(CFA_Y, -13)
        CFI (cfiCond321) R4 Frame(CFA_Y, -12)
        CFI (cfiCond321) R5 Frame(CFA_Y, -11)
        CFI (cfiCond321) R6 Frame(CFA_Y, -10)
        CFI (cfiCond321) R7 Frame(CFA_Y, -9)
        CFI (cfiCond321) R8 Frame(CFA_Y, -8)
        CFI (cfiCond321) R9 Frame(CFA_Y, -7)
        CFI (cfiCond321) R10 Frame(CFA_Y, -6)
        CFI (cfiCond321) R11 Frame(CFA_Y, -5)
        CFI (cfiCond321) R12 Frame(CFA_Y, -4)
        CFI (cfiCond321) R13 Frame(CFA_Y, -3)
        CFI (cfiCond321) R14 Frame(CFA_Y, -2)
        CFI (cfiCond321) R15 Frame(CFA_Y, -1)
        CFI (cfiCond321) CFA_SP SP+6
        CFI (cfiCond321) CFA_Y Y+34
        CFI Block cfiPicker322 Using cfiCommon1
        CFI (cfiPicker322) NoFunction
        CFI (cfiPicker322) Picker
        SBIW	R27:R26, 3
        RET
        CFI EndBlock cfiCond318
        CFI EndBlock cfiCond319
        CFI EndBlock cfiCond320
        CFI EndBlock cfiCond321
        CFI EndBlock cfiPicker322

        RSEG FARCODE:CODE:NOROOT(1)
?Subroutine45:
        CFI Block cfiCond323 Using cfiCommon0
        CFI NoFunction
        CFI Conditional ??CrossCallReturnLabel_203
        CFI R24 Frame(CFA_Y, -2)
        CFI R25 Frame(CFA_Y, -1)
        CFI CFA_SP SP+6
        CFI CFA_Y Y+20
        CFI Block cfiCond324 Using cfiCommon0
        CFI (cfiCond324) NoFunction
        CFI (cfiCond324) Conditional ??CrossCallReturnLabel_204
        CFI (cfiCond324) R24 Frame(CFA_Y, -6)
        CFI (cfiCond324) R25 Frame(CFA_Y, -5)
        CFI (cfiCond324) R26 Frame(CFA_Y, -4)
        CFI (cfiCond324) R27 Frame(CFA_Y, -3)
        CFI (cfiCond324) R4 Frame(CFA_Y, -2)
        CFI (cfiCond324) R5 Frame(CFA_Y, -1)
        CFI (cfiCond324) CFA_SP SP+6
        CFI (cfiCond324) CFA_Y Y+24
        CFI Block cfiPicker325 Using cfiCommon1
        CFI (cfiPicker325) NoFunction
        CFI (cfiPicker325) Picker
        MOVW	R31:R30, R1:R0
        SUBI	R30, LOW((-(arr_tii_32) & 0xFFFF))
        SBCI	R31, (-(arr_tii_32) & 0xFFFF) >> 8
        RJMP	?Subroutine104
        CFI EndBlock cfiCond323
        CFI EndBlock cfiCond324
        CFI EndBlock cfiPicker325

        RSEG FARCODE:CODE:NOROOT(1)
?Subroutine40:
        CFI Block cfiCond326 Using cfiCommon0
        CFI NoFunction
        CFI Conditional ??CrossCallReturnLabel_49
        CFI R24 Frame(CFA_Y, -8)
        CFI R25 Frame(CFA_Y, -7)
        CFI R26 Frame(CFA_Y, -6)
        CFI R27 Frame(CFA_Y, -5)
        CFI R4 Frame(CFA_Y, -4)
        CFI R5 Frame(CFA_Y, -3)
        CFI R6 Frame(CFA_Y, -2)
        CFI R7 Frame(CFA_Y, -1)
        CFI CFA_SP SP+6
        CFI CFA_Y Y+26
        CFI Block cfiCond327 Using cfiCommon0
        CFI (cfiCond327) NoFunction
        CFI (cfiCond327) Conditional ??CrossCallReturnLabel_50
        CFI (cfiCond327) R24 Frame(CFA_Y, -6)
        CFI (cfiCond327) R25 Frame(CFA_Y, -5)
        CFI (cfiCond327) R26 Frame(CFA_Y, -4)
        CFI (cfiCond327) R27 Frame(CFA_Y, -3)
        CFI (cfiCond327) R4 Frame(CFA_Y, -2)
        CFI (cfiCond327) R5 Frame(CFA_Y, -1)
        CFI (cfiCond327) CFA_SP SP+6
        CFI (cfiCond327) CFA_Y Y+24
        CFI Block cfiPicker328 Using cfiCommon1
        CFI (cfiPicker328) NoFunction
        CFI (cfiPicker328) Picker
        LSL	R18
        SUBI	R18, 246
        LDI	R19, 0
        ADD	R16, R18
        ADC	R17, R19
        MOVW	R31:R30, R17:R16
        RET
        CFI EndBlock cfiCond326
        CFI EndBlock cfiCond327
        CFI EndBlock cfiPicker328

        RSEG FARCODE:CODE:NOROOT(1)
?Subroutine32:
        CFI Block cfiCond329 Using cfiCommon0
        CFI NoFunction
        CFI Conditional ??CrossCallReturnLabel_243
        CFI R24 Frame(CFA_Y, -8)
        CFI R25 Frame(CFA_Y, -7)
        CFI R26 Frame(CFA_Y, -6)
        CFI R27 Frame(CFA_Y, -5)
        CFI R4 Frame(CFA_Y, -4)
        CFI R5 Frame(CFA_Y, -3)
        CFI R6 Frame(CFA_Y, -2)
        CFI R7 Frame(CFA_Y, -1)
        CFI CFA_SP SP+6
        CFI CFA_Y Y+26
        CFI Block cfiCond330 Using cfiCommon0
        CFI (cfiCond330) NoFunction
        CFI (cfiCond330) Conditional ??CrossCallReturnLabel_244
        CFI (cfiCond330) R24 Frame(CFA_Y, -6)
        CFI (cfiCond330) R25 Frame(CFA_Y, -5)
        CFI (cfiCond330) R26 Frame(CFA_Y, -4)
        CFI (cfiCond330) R27 Frame(CFA_Y, -3)
        CFI (cfiCond330) R4 Frame(CFA_Y, -2)
        CFI (cfiCond330) R5 Frame(CFA_Y, -1)
        CFI (cfiCond330) CFA_SP SP+6
        CFI (cfiCond330) CFA_Y Y+24
        CFI Block cfiPicker331 Using cfiCommon1
        CFI (cfiPicker331) NoFunction
        CFI (cfiPicker331) Picker
        LDI	R18, 10
        MOVW	R17:R16, R29:R28
        SUBI	R16, 252
        SBCI	R17, 255
        RCALL	crc_sum
        STD	Y+14, R16
        STD	Y+15, R17
        LDI	R23, 0
        LDI	R22, 0
        LDI	R20, 12
        LDI	R21, 0
        MOVW	R19:R18, R29:R28
        SUBI	R18, 252
        SBCI	R19, 255
        MOVW	R5:R4, R21:R20
        LDI	R30, LOW((modbus_mem1 + 62))
        LDI	R31, HIGH((modbus_mem1 + 62))
        LD	R20, Z
        LDD	R21, Z+1
        LDI	R16, 12
        LDI	R17, 0
        CALL	?S_EC_MUL_L02
        SUBI	R17, 224
        MOVW	R21:R20, R5:R4
        CALL	WrArrayToFlesh
        MOVW	R31:R30, R27:R26
        STD	Z+34, R5
        RJMP	?Subroutine113
        CFI EndBlock cfiCond329
        CFI EndBlock cfiCond330
        CFI EndBlock cfiPicker331

        RSEG FARCODE:CODE:NOROOT(1)
?Subroutine29:
        CFI Block cfiCond332 Using cfiCommon0
        CFI NoFunction
        CFI Conditional ??CrossCallReturnLabel_35
        CFI R24 Frame(CFA_Y, -8)
        CFI R25 Frame(CFA_Y, -7)
        CFI R26 Frame(CFA_Y, -6)
        CFI R27 Frame(CFA_Y, -5)
        CFI R4 Frame(CFA_Y, -4)
        CFI R5 Frame(CFA_Y, -3)
        CFI R6 Frame(CFA_Y, -2)
        CFI R7 Frame(CFA_Y, -1)
        CFI CFA_SP SP+6
        CFI CFA_Y Y+26
        CFI Block cfiCond333 Using cfiCommon0
        CFI (cfiCond333) NoFunction
        CFI (cfiCond333) Conditional ??CrossCallReturnLabel_36
        CFI (cfiCond333) R24 Frame(CFA_Y, -6)
        CFI (cfiCond333) R25 Frame(CFA_Y, -5)
        CFI (cfiCond333) R26 Frame(CFA_Y, -4)
        CFI (cfiCond333) R27 Frame(CFA_Y, -3)
        CFI (cfiCond333) R4 Frame(CFA_Y, -2)
        CFI (cfiCond333) R5 Frame(CFA_Y, -1)
        CFI (cfiCond333) CFA_SP SP+6
        CFI (cfiCond333) CFA_Y Y+24
        CFI Block cfiPicker334 Using cfiCommon1
        CFI (cfiPicker334) NoFunction
        CFI (cfiPicker334) Picker
        STD	Y+4, R16
        STD	Y+5, R17
        STD	Y+6, R18
        STD	Y+7, R19
        CLI
        LDI	R16, LOW(c1_byte)
        LDI	R17, (c1_byte) >> 8
        RET
        CFI EndBlock cfiCond332
        CFI EndBlock cfiCond333
        CFI EndBlock cfiPicker334

        RSEG FARCODE:CODE:NOROOT(1)
?Subroutine22:
        CFI Block cfiCond335 Using cfiCommon0
        CFI NoFunction
        CFI Conditional ??CrossCallReturnLabel_219
        CFI R24 Frame(CFA_Y, -3)
        CFI R25 Frame(CFA_Y, -2)
        CFI R26 Frame(CFA_Y, -1)
        CFI CFA_SP SP+6
        CFI CFA_Y Y+21
        CFI Block cfiCond336 Using cfiCommon0
        CFI (cfiCond336) NoFunction
        CFI (cfiCond336) Conditional ??CrossCallReturnLabel_220
        CFI (cfiCond336) R24 Frame(CFA_Y, -6)
        CFI (cfiCond336) R25 Frame(CFA_Y, -5)
        CFI (cfiCond336) R26 Frame(CFA_Y, -4)
        CFI (cfiCond336) R27 Frame(CFA_Y, -3)
        CFI (cfiCond336) R4 Frame(CFA_Y, -2)
        CFI (cfiCond336) R5 Frame(CFA_Y, -1)
        CFI (cfiCond336) CFA_SP SP+6
        CFI (cfiCond336) CFA_Y Y+24
        CFI Block cfiPicker337 Using cfiCommon1
        CFI (cfiPicker337) NoFunction
        CFI (cfiPicker337) Picker
        LDI	R30, LOW(unix)
        LDI	R31, (unix) >> 8
        LD	R16, Z
        LDD	R17, Z+1
        LDD	R18, Z+2
        LDD	R19, Z+3
        RJMP	?Subroutine107
        CFI EndBlock cfiCond335
        CFI EndBlock cfiCond336
        CFI EndBlock cfiPicker337
// 1546 ///////////////////////////   
// 1547    
// 1548    ////////////////////////////////////  
// 1549   

        RSEG FARCODE:CODE:NOROOT(1)
// 1550  void store_ys(void)  // записать в архив значения
store_ys:
        CFI Block cfiBlock338 Using cfiCommon0
        CFI Function store_ys
// 1551  {
        FUNCALL store_ys, store_ys_lock
        LOCFRAME CSTACK, 4, STACK
        LOCFRAME RSTACK, 3, STACK
        FUNCALL store_ys, WrArrayToFlesh
        LOCFRAME CSTACK, 4, STACK
        LOCFRAME RSTACK, 3, STACK
        RCALL	?Subroutine89
        CFI R24 Frame(CFA_Y, -4)
        CFI R25 Frame(CFA_Y, -3)
        CFI R26 Frame(CFA_Y, -2)
        CFI R27 Frame(CFA_Y, -1)
        CFI CFA_Y Y+4
// 1552    char i;
// 1553  
// 1554            store_ys_lock();
??CrossCallReturnLabel_158:
        RCALL	store_ys_lock
// 1555            
// 1556       
// 1557            
// 1558            
// 1559             modbus_mem1[AD_IND_GZU]++;
        RCALL	?Subroutine52
??CrossCallReturnLabel_67:
        MOVW	R27:R26, R31:R30
        ADIW	R27:R26, 62
        LD	R16, X+
        LD	R17, X
        SUBI	R16, 255
        SBCI	R17, 255
        ST	X, R17
        ST	-X, R16
// 1560            if ( modbus_mem1[AD_IND_GZU] >54 ) {modbus_mem1[AD_IND_GZU]=0;}
        MOVW	R25:R24, R17:R16
        CPI	R16, 55
        SBCI	R25, 0
        BRCS	??store_ys_0
        LDI	R16, 0
        MOVW	R27:R26, R31:R30
        ADIW	R27:R26, 62
        ST	X+, R16
        ST	X, R16
// 1561            i=modbus_mem1[AD_IND_GZU];
// 1562           
// 1563            
// 1564            
// 1565            
// 1566            WrArrayToFlesh(A_IND_GZU,0,1,1,i);
??store_ys_0:
        ADIW	R31:R30, 62
        LD	R23, Z
        LDI	R22, 1
        LDI	R20, 1
        LDI	R21, 0
        LDI	R18, 0
        LDI	R19, 0
        LDI	R16, 242
        LDI	R17, 3
        CALL	WrArrayToFlesh
// 1567            
// 1568           
// 1569  }
        RJMP	?Subroutine125
        CFI EndBlock cfiBlock338

        RSEG FARCODE:CODE:NOROOT(1)
?Subroutine52:
        CFI Block cfiCond339 Using cfiCommon0
        CFI NoFunction
        CFI Conditional ??CrossCallReturnLabel_65
        CFI R24 Frame(CFA_Y, -2)
        CFI R25 Frame(CFA_Y, -1)
        CFI CFA_SP SP+6
        CFI CFA_Y Y+16
        CFI Block cfiCond340 Using cfiCommon0
        CFI (cfiCond340) NoFunction
        CFI (cfiCond340) Conditional ??CrossCallReturnLabel_66
        CFI (cfiCond340) CFA_SP SP+6
        CFI (cfiCond340) CFA_Y Y+18
        CFI Block cfiCond341 Using cfiCommon0
        CFI (cfiCond341) NoFunction
        CFI (cfiCond341) Conditional ??CrossCallReturnLabel_67
        CFI (cfiCond341) R24 Frame(CFA_Y, -4)
        CFI (cfiCond341) R25 Frame(CFA_Y, -3)
        CFI (cfiCond341) R26 Frame(CFA_Y, -2)
        CFI (cfiCond341) R27 Frame(CFA_Y, -1)
        CFI (cfiCond341) CFA_SP SP+6
        CFI (cfiCond341) CFA_Y Y+4
        CFI Block cfiCond342 Using cfiCommon0
        CFI (cfiCond342) NoFunction
        CFI (cfiCond342) Conditional ??CrossCallReturnLabel_68
        CFI (cfiCond342) R24 Frame(CFA_Y, -16)
        CFI (cfiCond342) R25 Frame(CFA_Y, -15)
        CFI (cfiCond342) R26 Frame(CFA_Y, -14)
        CFI (cfiCond342) R27 Frame(CFA_Y, -13)
        CFI (cfiCond342) R4 Frame(CFA_Y, -12)
        CFI (cfiCond342) R5 Frame(CFA_Y, -11)
        CFI (cfiCond342) R6 Frame(CFA_Y, -10)
        CFI (cfiCond342) R7 Frame(CFA_Y, -9)
        CFI (cfiCond342) R8 Frame(CFA_Y, -8)
        CFI (cfiCond342) R9 Frame(CFA_Y, -7)
        CFI (cfiCond342) R10 Frame(CFA_Y, -6)
        CFI (cfiCond342) R11 Frame(CFA_Y, -5)
        CFI (cfiCond342) R12 Frame(CFA_Y, -4)
        CFI (cfiCond342) R13 Frame(CFA_Y, -3)
        CFI (cfiCond342) R14 Frame(CFA_Y, -2)
        CFI (cfiCond342) R15 Frame(CFA_Y, -1)
        CFI (cfiCond342) CFA_SP SP+6
        CFI (cfiCond342) CFA_Y Y+34
        CFI Block cfiCond343 Using cfiCommon0
        CFI (cfiCond343) NoFunction
        CFI (cfiCond343) Conditional ??CrossCallReturnLabel_69
        CFI (cfiCond343) R24 Frame(CFA_Y, -9)
        CFI (cfiCond343) R25 Frame(CFA_Y, -8)
        CFI (cfiCond343) R26 Frame(CFA_Y, -7)
        CFI (cfiCond343) R27 Frame(CFA_Y, -6)
        CFI (cfiCond343) R4 Frame(CFA_Y, -5)
        CFI (cfiCond343) R5 Frame(CFA_Y, -4)
        CFI (cfiCond343) R6 Frame(CFA_Y, -3)
        CFI (cfiCond343) R7 Frame(CFA_Y, -2)
        CFI (cfiCond343) R8 Frame(CFA_Y, -1)
        CFI (cfiCond343) CFA_SP SP+6
        CFI (cfiCond343) CFA_Y Y+9
        CFI Block cfiPicker344 Using cfiCommon1
        CFI (cfiPicker344) NoFunction
        CFI (cfiPicker344) Picker
        LDI	R30, LOW(modbus_mem1)
        LDI	R31, (modbus_mem1) >> 8
        RET
        CFI EndBlock cfiCond339
        CFI EndBlock cfiCond340
        CFI EndBlock cfiCond341
        CFI EndBlock cfiCond342
        CFI EndBlock cfiCond343
        CFI EndBlock cfiPicker344
// 1570 
// 1571 ////////////////////////// автомат состояний ГЗУ

        RSEG FARCODE:CODE:NOROOT(1)
// 1572 void local_psm(void) 
local_psm:
        CFI Block cfiBlock345 Using cfiCommon0
        CFI Function local_psm
// 1573 {     
        FUNCALL local_psm, store_ys
        LOCFRAME CSTACK, 34, STACK
        LOCFRAME RSTACK, 3, STACK
        FUNCALL local_psm, test_nenull
        LOCFRAME CSTACK, 34, STACK
        LOCFRAME RSTACK, 3, STACK
        FUNCALL local_psm, RdFromFleshToArr
        LOCFRAME CSTACK, 34, STACK
        LOCFRAME RSTACK, 3, STACK
        FUNCALL local_psm, crc_sum
        LOCFRAME CSTACK, 34, STACK
        LOCFRAME RSTACK, 3, STACK
        FUNCALL local_psm, store_ys_minut
        LOCFRAME CSTACK, 34, STACK
        LOCFRAME RSTACK, 3, STACK
        FUNCALL local_psm, store_ys
        LOCFRAME CSTACK, 34, STACK
        LOCFRAME RSTACK, 3, STACK
        FUNCALL local_psm, test_nenull
        LOCFRAME CSTACK, 34, STACK
        LOCFRAME RSTACK, 3, STACK
        FUNCALL local_psm, store_ys
        LOCFRAME CSTACK, 34, STACK
        LOCFRAME RSTACK, 3, STACK
        FUNCALL local_psm, test_nenull
        LOCFRAME CSTACK, 34, STACK
        LOCFRAME RSTACK, 3, STACK
        FUNCALL local_psm, test_switch_psm
        LOCFRAME CSTACK, 34, STACK
        LOCFRAME RSTACK, 3, STACK
        FUNCALL local_psm, test_switch_psm
        LOCFRAME CSTACK, 34, STACK
        LOCFRAME RSTACK, 3, STACK
        CALL	?PROLOGUE16_L09
        CFI R15 Frame(CFA_Y, -1)
        CFI R14 Frame(CFA_Y, -2)
        CFI R13 Frame(CFA_Y, -3)
        CFI R12 Frame(CFA_Y, -4)
        CFI R11 Frame(CFA_Y, -5)
        CFI R10 Frame(CFA_Y, -6)
        CFI R9 Frame(CFA_Y, -7)
        CFI R8 Frame(CFA_Y, -8)
        CFI R7 Frame(CFA_Y, -9)
        CFI R6 Frame(CFA_Y, -10)
        CFI R5 Frame(CFA_Y, -11)
        CFI R4 Frame(CFA_Y, -12)
        CFI R27 Frame(CFA_Y, -13)
        CFI R26 Frame(CFA_Y, -14)
        CFI R25 Frame(CFA_Y, -15)
        CFI R24 Frame(CFA_Y, -16)
        CFI CFA_Y Y+16
        REQUIRE	?Register_R4_is_cg_reg
        REQUIRE	?Register_R5_is_cg_reg
        REQUIRE	?Register_R6_is_cg_reg
        REQUIRE	?Register_R7_is_cg_reg
        REQUIRE	?Register_R10_is_cg_reg
        REQUIRE	?Register_R11_is_cg_reg
        REQUIRE	?Register_R12_is_cg_reg
        REQUIRE	?Register_R13_is_cg_reg
        REQUIRE	?Register_R14_is_cg_reg
        REQUIRE	?Register_R15_is_cg_reg
        SBIW	R29:R28, 18
        CFI CFA_Y Y+34
// 1574    char  c,index;
// 1575    unsigned int t_i;
// 1576    union
// 1577    {     
// 1578    long int unix;
// 1579    char st[4]; 
// 1580    } tik;  
// 1581   unsigned char zapis[14];
// 1582   
// 1583   
// 1584   
// 1585    if (c1_byte.mb[0]!=0x55){ err_psm=1;sost_psm=1;return;} 
        LDI	R26, LOW(timer_psm)
        LDI	R27, (timer_psm) >> 8
        LDI	R24, LOW(c1_byte)
        LDI	R25, (c1_byte) >> 8
        MOVW	R31:R30, R25:R24
        LD	R16, Z
        CPI	R16, 85
        BREQ	??local_psm_0
??local_psm_1:
        LDI	R16, 1
        MOVW	R31:R30, R27:R26
        STD	Z+40, R16
        RJMP	??local_psm_2
// 1586   
// 1587                
// 1588    // переключение  до заданного усане зависимо от положения ручной автомат
// 1589    
// 1590    if (  (zadan_ys > 0) && (zadan_ys <15)  )
??local_psm_0:
        MOVW	R31:R30, R27:R26
        LDD	R16, Z+49
        LDD	R13, Z+43
        LDD	R17, Z+47
        TST	R17
        BREQ	??local_psm_3
        CPI	R17, 15
        BRCC	??local_psm_3
// 1591            {
// 1592            fin_ys=zadan_ys; 
        STD	Z+45, R17
// 1593            zadan_ys=0; 
        LDI	R18, 0
        STD	Z+47, R18
// 1594            if ( tekpsm !=fin_ys)
        CP	R13, R17
        BREQ	??local_psm_4
// 1595                                 {
// 1596                                 if ( sost_psm==4) store_ys();  
        CPI	R16, 4
        BRNE	??CrossCallReturnLabel_191
        RCALL	?Subroutine100
// 1597                                 global_try=3; 
??CrossCallReturnLabel_191:
        LDI	R16, 3
        MOVW	R31:R30, R27:R26
        STD	Z+48, R16
// 1598                                 count_sboj=15;
        LDI	R16, 15
        STD	Z+46, R16
        RJMP	??local_psm_5
// 1599                                 sost_psm=9;
// 1600                                 return;
// 1601                                 }
// 1602             global_try=3;
??local_psm_4:
        LDI	R17, 3
        STD	Z+48, R17
// 1603            }
// 1604            
// 1605            
// 1606            
// 1607   
// 1608                   
// 1609       
// 1610                         
// 1611                
// 1612 switch (sost_psm) 
??local_psm_3:
        MOV	R11, R13
        LSL	R11
        LDI	R17, 10
        ADD	R11, R17
        RCALL	?Subroutine52
??CrossCallReturnLabel_68:
        LDD	R18, Z+48
        MOV	R10, R18
        SWAP	R10
        LDI	R17, 15
        AND	R10, R17
        MOVW	R31:R30, R25:R24
        LDD	R4, Z+6
        CLR	R5
        LDD	R15, Z+10
        MOVW	R31:R30, R27:R26
        LDD	R14, Z+48
        LDD	R12, Z+44
        DEC	R16
        BREQ	??local_psm_6
        DEC	R16
        BREQ	??local_psm_7
        DEC	R16
        BRNE	$+2+2
        RJMP	??local_psm_8
        DEC	R16
        BRNE	$+2+2
        RJMP	??local_psm_9
        DEC	R16
        BRNE	$+2+2
        RJMP	??local_psm_10
        DEC	R16
        BRNE	$+2+2
        RJMP	??local_psm_11
        DEC	R16
        BRNE	$+2+2
        RJMP	??local_psm_12
        DEC	R16
        BRNE	$+2+2
        RJMP	??local_psm_13
        DEC	R16
        BRNE	$+2+2
        RJMP	??local_psm_14
        DEC	R16
        BRNE	$+2+2
        RJMP	??local_psm_15
        DEC	R16
        BRNE	$+2+2
        RJMP	??local_psm_16
        RJMP	??local_psm_2
??local_psm_6:
        SWAP	R18
        ANDI	R18, 0x0F
        MOVW	R31:R30, R25:R24
        LDD	R16, Z+2
        CPI	R16, 8
        BRNE	??local_psm_17
// 1613    {              
// 1614       case 1:
// 1615               {     
// 1616               
// 1617                   if (c1_byte.mb[1*2]==8) 
// 1618                                        {
// 1619                                         c=((modbus_mem1[AD_TS]>> 4) &0xf);
// 1620                                         if ( (c==0) | (c > 8) ) 
        TST	R18
        BREQ	??local_psm_18
        CPI	R18, 9
        BRCC	??local_psm_18
// 1621                                                         {
// 1622                                                         err_psm=1;
// 1623                                                         break;
// 1624                                                         } 
// 1625                                         tekpsm=c;  
        MOVW	R31:R30, R27:R26
        STD	Z+43, R10
// 1626                                         err_psm=0;               
        STD	Z+40, R5
// 1627                                         sost_psm=2;
        LDI	R16, 2
        RJMP	??local_psm_19
??local_psm_18:
        LDI	R16, 1
        MOVW	R31:R30, R27:R26
        STD	Z+40, R16
        RJMP	??local_psm_20
// 1628                                         break;                
// 1629                                        }
// 1630                   if (c1_byte.mb[1*2]==14) 
??local_psm_17:
        CPI	R16, 14
        BREQ	$+2+2
        RJMP	??local_psm_20
// 1631                                        {
// 1632                                         c=((modbus_mem1[AD_TS]>> 4) &0xf);
// 1633                                         if ( (c==0) | (c > 14) ) 
        TST	R18
        BREQ	??local_psm_18
        CPI	R18, 15
        BRCC	??local_psm_18
// 1634                                                         {
// 1635                                                         err_psm=1;
// 1636                                                         break;
// 1637                                                         }
// 1638                                         sost_psm=2; 
        LDI	R17, 2
        MOVW	R31:R30, R27:R26
        STD	Z+49, R17
// 1639                                         err_psm=0;
        STD	Z+40, R5
// 1640                                         tekpsm=c;   
        STD	Z+43, R10
// 1641                                         break;                
        RJMP	??local_psm_20
// 1642                                        } 
// 1643                   break;                      
// 1644               }         // end case 1
// 1645               
// 1646            case 2:               // переход на  коррекцию
// 1647                      {                                    
// 1648                      
// 1649                      
// 1650                                                       
// 1651                       if (test_nenull()==0)  {err_psm=1; sost_psm=1;break;} 
??local_psm_7:
        RCALL	?Subroutine99
??CrossCallReturnLabel_186:
        BRNE	$+2+2
        RJMP	??local_psm_1
// 1652                       timer_psm=(unsigned long int)c1_byte.mb[2*2]*60;
        MOVW	R31:R30, R25:R24
        LDD	R20, Z+4
        LDI	R21, 0
        RCALL	?Subroutine46
??CrossCallReturnLabel_235:
        LDI	R18, 0
        LDI	R19, 0
        CALL	?L_EC_MUL_L03
        RCALL	?Subroutine67
// 1653                       index=6*2+( tekpsm-1)*2;
// 1654                                          t_i=  c1_byte.mb[index] + c1_byte.mb[index+1]*256;
// 1655                                         
// 1656                                          
// 1657                                        if ( t_i==0) 
??CrossCallReturnLabel_251:
        RCALL	?Subroutine25
??CrossCallReturnLabel_255:
        BRNE	??local_psm_21
// 1658                                                     {
// 1659                                                    if  ( c1_byte.mb[5*2]==0) {err_psm=1;sost_psm=1;break;}  // ручной  
        TST	R15
        BRNE	$+2+2
        RJMP	??local_psm_1
// 1660                                                     else {cnt_try_ys=3;sost_psm=5;break;}   // автомат
??local_psm_22:
        LDI	R16, 3
        MOVW	R31:R30, R27:R26
??local_psm_23:
        STD	Z+42, R16
        LDI	R16, 5
        RJMP	??local_psm_19
// 1661                                                     }
// 1662                                        
// 1663                                        
// 1664                       sost_psm=3;
??local_psm_21:
        LDI	R16, 3
??local_psm_24:
        MOVW	R31:R30, R27:R26
        RJMP	??local_psm_19
// 1665                      break;
// 1666                      }   
// 1667            case 3:               // ожидание коррекции
// 1668                      {     
// 1669                       if (timer_psm==0) 
??local_psm_8:
        RCALL	?Subroutine70
??CrossCallReturnLabel_102:
        BREQ	$+2+2
        RJMP	??local_psm_25
// 1670                                         {
// 1671                                          sost_psm=4;  // постановка на замер  
        LDI	R16, 4
        STD	Z+49, R16
// 1672                                          
// 1673                                          start_tii_gzu=arr_tii_32[c1_byte.mb[4*2] ];// запомнить значение тии
        MOVW	R31:R30, R25:R24
        LDD	R16, Z+8
        LDI	R17, 4
        MUL	R16, R17
        MOVW	R31:R30, R1:R0
        SUBI	R30, LOW((-(arr_tii_32) & 0xFFFF))
        SBCI	R31, (-(arr_tii_32) & 0xFFFF) >> 8
        RCALL	?Subroutine26
??CrossCallReturnLabel_249:
        STD	Z+16, R16
        STD	Z+17, R17
        STD	Z+18, R18
        STD	Z+19, R19
// 1674                                         
// 1675 ////////////////////////
// 1676 RdFromFleshToArr(STRUCT_US + modbus_mem1[AD_IND_GZU]*12,(unsigned char *)&zapis[0],12);                                         
        MOVW	R19:R18, R29:R28
        SUBI	R18, 252
        SBCI	R19, 255
        LDI	R30, LOW((modbus_mem1 + 62))
        LDI	R31, HIGH((modbus_mem1 + 62))
        LD	R20, Z
        LDD	R21, Z+1
        LDI	R16, 12
        LDI	R17, 0
        CALL	?S_EC_MUL_L02
        SUBI	R17, 224
        LDI	R20, 12
        LDI	R21, 0
        RCALL	?Subroutine39
// 1677  if((*(int*)&zapis[10])==crc_sum(&zapis[0],10))                                          
??CrossCallReturnLabel_46:
        LDD	R4, Y+14
        LDD	R5, Y+15
        LDI	R18, 10
        RCALL	??Subroutine42_0
??CrossCallReturnLabel_260:
        CP	R4, R16
        CPC	R5, R17
        BRNE	??local_psm_26
// 1678 
// 1679             
// 1680                                         {     
// 1681                                            tik.st[0]=zapis[0];
        RCALL	?Subroutine28
// 1682                                            tik.st[1]=zapis[1];
// 1683                                            tik.st[2]=zapis[2];
// 1684                                            tik.st[3]=zapis[3];
// 1685                                            if ( zapis[8] !=tekpsm ) goto new_zamer;
??CrossCallReturnLabel_33:
        MOVW	R31:R30, R27:R26
        LDD	R16, Z+43
        LDD	R17, Y+12
        CP	R17, R16
        BRNE	??local_psm_26
// 1686                                           if( unix >tik.unix) goto new_zamer;
        LD	R20, Y
        LDD	R21, Y+1
        LDD	R22, Y+2
        LDD	R23, Y+3
        RCALL	?Subroutine23
??CrossCallReturnLabel_214:
        CP	R20, R0
        CPC	R21, R1
        CPC	R22, R2
        CPC	R23, R3
        BRCS	??local_psm_26
// 1687                                           index=6*2+( tekpsm-1)*2;
        LSL	R16
        SUBI	R16, 246
// 1688                                           t_i=  c1_byte.mb[index] + c1_byte.mb[index+1]*256; 
// 1689                                           if ( (tik.unix-unix) > ((unsigned long int)t_i*60) ) goto new_zamer; //..
        MOV	R18, R16
        LDI	R19, 0
        MOVW	R17:R16, R25:R24
        ADD	R16, R18
        ADC	R17, R19
        MOVW	R5:R4, R21:R20
        MOVW	R7:R6, R23:R22
        SUB	R4, R0
        SBC	R5, R1
        SBC	R6, R2
        SBC	R7, R3
        MOVW	R31:R30, R17:R16
        LD	R20, Z
        LDD	R21, Z+1
        RCALL	?Subroutine46
??CrossCallReturnLabel_236:
        RCALL	?Subroutine14
??CrossCallReturnLabel_281:
        CP	R16, R4
        CPC	R17, R5
        CPC	R18, R6
        CPC	R19, R7
        BRCS	??local_psm_26
// 1690                                           timer_psm= (tik.unix-unix);
        ST	X+, R4
        ST	X+, R5
        ST	X+, R6
        ST	X, R7
        SBIW	R27:R26, 3
// 1691                                           delta_ys=zapis[6]+(zapis[7]*256); // то что уже намеряно
        LDD	R16, Y+10
        LDD	R17, Y+11
        MOV	R18, R17
        LSL	R18
        SBC	R18, R18
        MOVW	R31:R30, R27:R26
        STD	Z+20, R16
        STD	Z+21, R17
        STD	Z+22, R18
        STD	Z+23, R18
// 1692                                           unix_psm=tik.unix; // время конец замера из архива
        RCALL	?Subroutine90
??CrossCallReturnLabel_162:
        STD	Z+4, R16
        STD	Z+5, R17
        STD	Z+6, R18
        STD	Z+7, R19
        RJMP	??local_psm_25
// 1693                                           
// 1694    
// 1695                                         } 
// 1696                        else        // перезаписать п о новой 
// 1697                                          {  
// 1698                               new_zamer:
// 1699                                           index=6*2+( tekpsm-1)*2;
??local_psm_26:
        RCALL	?Subroutine58
// 1700                                           t_i=  c1_byte.mb[index] + c1_byte.mb[index+1]*256;
??CrossCallReturnLabel_84:
        LDI	R17, 0
        ADD	R24, R16
        ADC	R25, R17
        MOVW	R31:R30, R25:R24
        LD	R20, Z
        LDI	R19, 0
        LDD	R21, Z+1
// 1701                                           timer_psm= (unsigned long int)t_i*60;
        LDI	R22, 0
        LDI	R23, 0
        LDI	R16, 60
        RCALL	?Subroutine14
??CrossCallReturnLabel_282:
        RCALL	?Subroutine67
// 1702                                           unix_psm=unix+((unsigned long int)t_i*60); // время конец замера   //..
??CrossCallReturnLabel_252:
        RCALL	?Subroutine21
??CrossCallReturnLabel_202:
        RCALL	?Subroutine105
??CrossCallReturnLabel_207:
        MOVW	R31:R30, R27:R26
        RCALL	?Subroutine68
// 1703                                           bit_zamer_psm=0;
??CrossCallReturnLabel_97:
        LDI	R16, 0
        STD	Z+34, R16
// 1704                                           delta_ys=0;
        STD	Z+20, R16
        STD	Z+21, R16
        STD	Z+22, R16
        STD	Z+23, R16
// 1705                                         
// 1706                                          } 
// 1707 ////////////////////////                                         
// 1708                                          
// 1709                                         
// 1710                                         }
// 1711                       if( ((modbus_mem1[AD_TS]>> 4) &0xf) != tekpsm ) sost_psm=1;
??local_psm_25:
        RCALL	?Subroutine50
??CrossCallReturnLabel_60:
        BRNE	$+2+2
        RJMP	??local_psm_20
??local_psm_2:
        LDI	R16, 1
        RJMP	??local_psm_24
// 1712                      break;
// 1713                      }       
// 1714               
// 1715            case 4:        // замер
// 1716                     {                   
// 1717                     if ( bit_zamer_psm==1)  store_ys_minut();
??local_psm_9:
        LDD	R16, Z+34
        CPI	R16, 1
        BRNE	??local_psm_27
        RCALL	store_ys_minut
// 1718                     if ( bit_level_psm==1)  
??local_psm_27:
        MOVW	R31:R30, R27:R26
        LDD	R16, Z+38
        CPI	R16, 1
        BRNE	??local_psm_28
// 1719                                                {
// 1720                                                bit_level_psm=0; 
        STD	Z+38, R5
        RJMP	??local_psm_2
// 1721                                          // store_ys();            // 26 06 06 начать замер по новой
// 1722                                           sost_psm=1; break;
// 1723                                                } 
// 1724                     if (unix >= unix_psm)        
??local_psm_28:
        LDI	R30, LOW(unix)
        LDI	R31, (unix) >> 8
        RCALL	?Subroutine26
??CrossCallReturnLabel_250:
        RCALL	?Subroutine72
??CrossCallReturnLabel_113:
        RCALL	?Subroutine108
??CrossCallReturnLabel_225:
        BRCS	??local_psm_29
// 1725                      //if (timer_psm==0)
// 1726                                           {  
// 1727                                           
// 1728                                           store_ys();
        RCALL	?Subroutine100
// 1729                                           if ( c1_byte.mb[5*2]==0) {sost_psm=1; break;}
??CrossCallReturnLabel_190:
        MOVW	R31:R30, R25:R24
        LDD	R16, Z+10
        TST	R16
        BREQ	??local_psm_2
// 1730                                           else 
// 1731                                                {
// 1732                      // если это единственный разрешенный ус                   
// 1733                                                        c=test_nenull();
        RCALL	?Subroutine99
// 1734                                                       
// 1735                                                      if (c==0)  { sost_psm=1;break;}   // нет ненулевых усов
??CrossCallReturnLabel_187:
        BREQ	??local_psm_2
// 1736                                                      if (c==1)
        CPI	R16, 1
        BRNE	??local_psm_30
// 1737                                                                  {
// 1738                                                                
// 1739                                                                    // тот ус на котором я стою единственный
// 1740                                                             index=6*2+(tekpsm-1)*2;
        RCALL	?Subroutine58
// 1741                                          t_i=  c1_byte.mb[index] + c1_byte.mb[index+1]*256;
// 1742                                                              if ( t_i !=0) { sost_psm=1;break;}
??CrossCallReturnLabel_85:
        ADD	R24, R16
        RCALL	??Subroutine25_0
??CrossCallReturnLabel_256:
        BRNE	??local_psm_2
// 1743                                                                          
// 1744                                                              
// 1745                                                                  }           
// 1746                                                        
// 1747                                                       
// 1748                                                 if (global_try==0) { err_psm=1;sost_psm=1;break;}
??local_psm_30:
        MOVW	R31:R30, R27:R26
        LDD	R16, Z+48
        TST	R16
        BREQ	$+2+2
        RJMP	??local_psm_22
        RJMP	??local_psm_1
// 1749                                                cnt_try_ys=3;                                                     
// 1750                                                sost_psm=5; 
// 1751                                                  break;
// 1752                                                } // переключится
// 1753                                           }
// 1754                       if( ((modbus_mem1[AD_TS]>> 4) &0xf) != tekpsm ) {global_try=3;store_ys();sost_psm=1;}
??local_psm_29:
        RCALL	?Subroutine50
??CrossCallReturnLabel_61:
        BRNE	$+2+2
        RJMP	??local_psm_20
        LDI	R16, 3
        STD	Z+48, R16
        RCALL	?Subroutine100
??CrossCallReturnLabel_189:
        RJMP	??local_psm_2
// 1755                     break;
// 1756                     }   
// 1757            case 5:             // импульс ту
// 1758                     {
// 1759 ////////////////////                              
// 1760                c=test_nenull();
??local_psm_10:
        RCALL	?Subroutine99
// 1761                                                       
// 1762                                                      if (c==0)  { sost_psm=1;break;}   // нет ненулевых усов
??CrossCallReturnLabel_188:
        BREQ	??local_psm_2
// 1763                                                      if (c==1)
        CPI	R16, 1
        BRNE	??local_psm_31
// 1764                                                                  {
// 1765                                                                
// 1766                                                                    // тот ус на котором я стою единственный
// 1767                                                             index=6*2+(tekpsm-1)*2;
// 1768                                          t_i=  c1_byte.mb[index] + c1_byte.mb[index+1]*256;
// 1769                                                              if ( t_i !=0) { sost_psm=1;break;}
        RCALL	?Subroutine25
??CrossCallReturnLabel_257:
        BRNE	??local_psm_2
// 1770                                                                          
// 1771                                                              
// 1772                                                                  }    
// 1773 ////////////////////                  
// 1774                     if (global_try==0) { err_psm=1;sost_psm=1;break;} 
??local_psm_31:
        TST	R14
        BRNE	$+2+2
        RJMP	??local_psm_1
// 1775                     pred_mask=tekpsm;
        MOVW	R31:R30, R27:R26
        RCALL	?Subroutine101
// 1776                     TU1_ON;
// 1777                     timer_psm=(unsigned long int)c1_byte.mb[3*2]; 
// 1778                     sost_psm=6;
??CrossCallReturnLabel_226:
        LDI	R16, 6
        RJMP	??local_psm_19
// 1779                     break;
// 1780                     }   
// 1781               
// 1782            case 6:
// 1783                    {     
// 1784                     if (timer_psm==0) 
??local_psm_11:
        RCALL	?Subroutine70
??CrossCallReturnLabel_103:
        BREQ	$+2+2
        RJMP	??local_psm_20
// 1785                                     { 
// 1786                                     TU1_OFF; 
        CBI	0x02, 0x04
// 1787                                               if ( c1_byte.mb[5*2]==0) {sost_psm=1;break;}
        TST	R15
        BREQ	??local_psm_2
// 1788                                      
// 1789                                      timer_psm=120;   // 2 минуты ждем
        RCALL	?Subroutine66
// 1790                                      sost_psm=7; 
??CrossCallReturnLabel_228:
        LDI	R16, 7
        RJMP	??local_psm_19
// 1791                                     }
// 1792                    break;
// 1793                    }
// 1794           case 7:       // ожидание 2 минуты
// 1795                     {     
// 1796                      if (timer_psm==0) 
??local_psm_12:
        RCALL	?Subroutine70
??CrossCallReturnLabel_104:
        BREQ	$+2+2
        RJMP	??local_psm_20
// 1797                                         {
// 1798                                         if( ((modbus_mem1[AD_TS]>> 4) &0xf) == pred_mask )
        CP	R10, R12
        BRNE	??local_psm_32
// 1799                                                                 {
// 1800                                                                    timer_psm=60;
        LDI	R16, 60
        RCALL	??Subroutine66_0
// 1801                                                                    sost_psm=8;  
??CrossCallReturnLabel_229:
        LDI	R16, 8
        RJMP	??local_psm_19
// 1802                                                                    break;
// 1803                                                                 } 
// 1804                                                                 global_try=3;
??local_psm_32:
        LDI	R16, 3
        STD	Z+48, R16
// 1805                                            if (test_switch_psm()==1)
        RCALL	test_switch_psm
        CPI	R16, 1
        BRNE	??local_psm_33
// 1806                                                             { 
// 1807                                                             err_switch=0;
??local_psm_34:
        MOVW	R31:R30, R27:R26
        STD	Z+41, R5
        RJMP	??local_psm_2
// 1808                                                             sost_psm=1;
// 1809                                                             break; 
// 1810                                                             }            
// 1811                                                            
// 1812                                            err_switch=1;                 
// 1813                                            sost_psm=1;                     
// 1814                                            break;
// 1815                                         }
// 1816                     break;
// 1817                     }
// 1818            
// 1819          case 8:     // ожидание 60 секунд
// 1820                 {     
// 1821                  if (timer_psm==0) 
??local_psm_13:
        RCALL	?Subroutine70
??CrossCallReturnLabel_105:
        BRNE	??local_psm_20
// 1822                                         {
// 1823                                          if (test_switch_psm()==1)
        RCALL	test_switch_psm
        CPI	R16, 1
        BREQ	??local_psm_34
// 1824                                                             { 
// 1825                                                             err_switch=0;
// 1826                                                             sost_psm=1;
// 1827                                                             break; 
// 1828                                                             } 
// 1829                                                             if( ((modbus_mem1[AD_TS]>> 4) &0xf) == pred_mask )
        CP	R10, R12
        BRNE	??local_psm_35
// 1830                                                                  { 
// 1831                                                                    if (cnt_try_ys ==0) 
        MOVW	R31:R30, R27:R26
        LDD	R16, Z+42
        TST	R16
        BRNE	??local_psm_36
// 1832                                                                                {
// 1833                                                                               err_switch=1;                 
        LDI	R16, 1
        STD	Z+41, R16
// 1834                                                                               sost_psm=1;
        STD	Z+49, R16
// 1835                                                                               if (global_try !=0) global_try--;
        TST	R14
        BREQ	??local_psm_20
        LDD	R16, Z+48
        DEC	R16
        STD	Z+48, R16
        RJMP	??local_psm_20
// 1836                                                                               break;    
// 1837                                                                                 }
// 1838                                                             else cnt_try_ys--;    
??local_psm_36:
        DEC	R16
        RJMP	??local_psm_23
// 1839                                                            sost_psm=5;   // попытаться переключиться 3 раза      
// 1840                                                             break;                          
// 1841                                                                   }
// 1842                               // переключился неправильно                                    
// 1843                                             global_try=3;
??local_psm_35:
        LDI	R16, 3
        MOVW	R31:R30, R27:R26
        STD	Z+48, R16
// 1844                                             err_switch=1;
// 1845                                             sost_psm=1;
// 1846                                             break;                      
// 1847                                          
// 1848                                          
// 1849                                         }
// 1850                 break;
// 1851                 }
??local_psm_33:
        LDI	R16, 1
        MOVW	R31:R30, R27:R26
        STD	Z+41, R16
        RJMP	??local_psm_2
// 1852 
// 1853 ////////////////////////////////////////////////
// 1854 // для преключения до заданного уса
// 1855 case 9:
// 1856          { 
// 1857          pred_mask=tekpsm;
??local_psm_14:
        RCALL	?Subroutine101
// 1858                     TU1_ON;
// 1859                     timer_psm=(unsigned long int)c1_byte.mb[3*2]; 
// 1860                     sost_psm=10; 
??CrossCallReturnLabel_227:
        LDI	R16, 10
        RJMP	??local_psm_19
// 1861          break;
// 1862          }  
// 1863 case 10:
// 1864          {
// 1865          if (timer_psm==0) 
??local_psm_15:
        RCALL	?Subroutine70
??CrossCallReturnLabel_106:
        BRNE	??local_psm_20
// 1866                                     {
// 1867                                      TU1_OFF;
        CBI	0x02, 0x04
// 1868                                      timer_psm=120;
        RCALL	?Subroutine66
// 1869                                      sost_psm=11; 
??CrossCallReturnLabel_230:
        LDI	R16, 11
        RJMP	??local_psm_19
// 1870                                     }
// 1871          break;
// 1872          } 
// 1873 case 11:
// 1874          { 
// 1875          if (timer_psm==0) 
??local_psm_16:
        RCALL	?Subroutine70
??CrossCallReturnLabel_107:
        BRNE	??local_psm_20
// 1876                                         { 
// 1877                                        tekpsm=((modbus_mem1[AD_TS]>> 4) &0xf); 
        STD	Z+43, R10
// 1878                                        if ( tekpsm==fin_ys) {sost_psm=1;err_switch=0;break;}
        LDD	R16, Z+45
        CP	R10, R16
        BRNE	??local_psm_37
        LDI	R16, 1
        STD	Z+49, R16
        STD	Z+41, R5
        RJMP	??local_psm_20
// 1879                                        count_sboj--;
??local_psm_37:
        LDD	R16, Z+46
        DEC	R16
        STD	Z+46, R16
// 1880                                        
// 1881                                        
// 1882                                        if (  count_sboj==0 )
        BREQ	??local_psm_33
// 1883                                       
// 1884                                                             { 
// 1885                                                             err_switch=1;
// 1886                                                             sost_psm=1;
// 1887                                                             break; 
// 1888                                                             }
// 1889                                                           
// 1890                                            sost_psm=9;               
??local_psm_5:
        LDI	R16, 9
??local_psm_19:
        STD	Z+49, R16
// 1891                                            break;
??local_psm_20:
        ADIW	R29:R28, 18
        CFI CFA_Y Y+16
        LDI	R30, 16
        JMP	?EPILOGUE_B16_L09
        CFI EndBlock cfiBlock345
// 1892                                         } 
// 1893          break;
// 1894          }                                
// 1895    default: {sost_psm=1;break;}
// 1896    }                     
// 1897 }    

        RSEG FARCODE:CODE:NOROOT(1)
?Subroutine101:
        CFI Block cfiCond346 Using cfiCommon0
        CFI NoFunction
        CFI Conditional ??CrossCallReturnLabel_226
        CFI R24 Frame(CFA_Y, -16)
        CFI R25 Frame(CFA_Y, -15)
        CFI R26 Frame(CFA_Y, -14)
        CFI R27 Frame(CFA_Y, -13)
        CFI R4 Frame(CFA_Y, -12)
        CFI R5 Frame(CFA_Y, -11)
        CFI R6 Frame(CFA_Y, -10)
        CFI R7 Frame(CFA_Y, -9)
        CFI R8 Frame(CFA_Y, -8)
        CFI R9 Frame(CFA_Y, -7)
        CFI R10 Frame(CFA_Y, -6)
        CFI R11 Frame(CFA_Y, -5)
        CFI R12 Frame(CFA_Y, -4)
        CFI R13 Frame(CFA_Y, -3)
        CFI R14 Frame(CFA_Y, -2)
        CFI R15 Frame(CFA_Y, -1)
        CFI CFA_SP SP+6
        CFI CFA_Y Y+34
        CFI Block cfiCond347 Using cfiCommon0
        CFI (cfiCond347) NoFunction
        CFI (cfiCond347) Conditional ??CrossCallReturnLabel_227
        CFI (cfiCond347) R24 Frame(CFA_Y, -16)
        CFI (cfiCond347) R25 Frame(CFA_Y, -15)
        CFI (cfiCond347) R26 Frame(CFA_Y, -14)
        CFI (cfiCond347) R27 Frame(CFA_Y, -13)
        CFI (cfiCond347) R4 Frame(CFA_Y, -12)
        CFI (cfiCond347) R5 Frame(CFA_Y, -11)
        CFI (cfiCond347) R6 Frame(CFA_Y, -10)
        CFI (cfiCond347) R7 Frame(CFA_Y, -9)
        CFI (cfiCond347) R8 Frame(CFA_Y, -8)
        CFI (cfiCond347) R9 Frame(CFA_Y, -7)
        CFI (cfiCond347) R10 Frame(CFA_Y, -6)
        CFI (cfiCond347) R11 Frame(CFA_Y, -5)
        CFI (cfiCond347) R12 Frame(CFA_Y, -4)
        CFI (cfiCond347) R13 Frame(CFA_Y, -3)
        CFI (cfiCond347) R14 Frame(CFA_Y, -2)
        CFI (cfiCond347) R15 Frame(CFA_Y, -1)
        CFI (cfiCond347) CFA_SP SP+6
        CFI (cfiCond347) CFA_Y Y+34
        CFI Block cfiPicker348 Using cfiCommon1
        CFI (cfiPicker348) NoFunction
        CFI (cfiPicker348) Picker
        STD	Z+44, R13
        SBI	0x02, 0x04
        ST	X+, R4
        CFI EndBlock cfiCond346
        CFI EndBlock cfiCond347
        CFI EndBlock cfiPicker348
        REQUIRE ?Subroutine109
        ;		// Fall through to label ?Subroutine109

        RSEG FARCODE:CODE:NOROOT(1)
?Subroutine109:
        CFI Block cfiCond349 Using cfiCommon0
        CFI NoFunction
        CFI Conditional ??CrossCallReturnLabel_226
        CFI R24 Frame(CFA_Y, -16)
        CFI R25 Frame(CFA_Y, -15)
        CFI R26 Frame(CFA_Y, -14)
        CFI R27 Frame(CFA_Y, -13)
        CFI R4 Frame(CFA_Y, -12)
        CFI R5 Frame(CFA_Y, -11)
        CFI R6 Frame(CFA_Y, -10)
        CFI R7 Frame(CFA_Y, -9)
        CFI R8 Frame(CFA_Y, -8)
        CFI R9 Frame(CFA_Y, -7)
        CFI R10 Frame(CFA_Y, -6)
        CFI R11 Frame(CFA_Y, -5)
        CFI R12 Frame(CFA_Y, -4)
        CFI R13 Frame(CFA_Y, -3)
        CFI R14 Frame(CFA_Y, -2)
        CFI R15 Frame(CFA_Y, -1)
        CFI CFA_SP SP+6
        CFI CFA_Y Y+34
        CFI Block cfiCond350 Using cfiCommon0
        CFI (cfiCond350) NoFunction
        CFI (cfiCond350) Conditional ??CrossCallReturnLabel_227
        CFI (cfiCond350) R24 Frame(CFA_Y, -16)
        CFI (cfiCond350) R25 Frame(CFA_Y, -15)
        CFI (cfiCond350) R26 Frame(CFA_Y, -14)
        CFI (cfiCond350) R27 Frame(CFA_Y, -13)
        CFI (cfiCond350) R4 Frame(CFA_Y, -12)
        CFI (cfiCond350) R5 Frame(CFA_Y, -11)
        CFI (cfiCond350) R6 Frame(CFA_Y, -10)
        CFI (cfiCond350) R7 Frame(CFA_Y, -9)
        CFI (cfiCond350) R8 Frame(CFA_Y, -8)
        CFI (cfiCond350) R9 Frame(CFA_Y, -7)
        CFI (cfiCond350) R10 Frame(CFA_Y, -6)
        CFI (cfiCond350) R11 Frame(CFA_Y, -5)
        CFI (cfiCond350) R12 Frame(CFA_Y, -4)
        CFI (cfiCond350) R13 Frame(CFA_Y, -3)
        CFI (cfiCond350) R14 Frame(CFA_Y, -2)
        CFI (cfiCond350) R15 Frame(CFA_Y, -1)
        CFI (cfiCond350) CFA_SP SP+6
        CFI (cfiCond350) CFA_Y Y+34
        CFI Block cfiCond351 Using cfiCommon0
        CFI (cfiCond351) NoFunction
        CFI (cfiCond351) Conditional ??CrossCallReturnLabel_228
        CFI (cfiCond351) R24 Frame(CFA_Y, -16)
        CFI (cfiCond351) R25 Frame(CFA_Y, -15)
        CFI (cfiCond351) R26 Frame(CFA_Y, -14)
        CFI (cfiCond351) R27 Frame(CFA_Y, -13)
        CFI (cfiCond351) R4 Frame(CFA_Y, -12)
        CFI (cfiCond351) R5 Frame(CFA_Y, -11)
        CFI (cfiCond351) R6 Frame(CFA_Y, -10)
        CFI (cfiCond351) R7 Frame(CFA_Y, -9)
        CFI (cfiCond351) R8 Frame(CFA_Y, -8)
        CFI (cfiCond351) R9 Frame(CFA_Y, -7)
        CFI (cfiCond351) R10 Frame(CFA_Y, -6)
        CFI (cfiCond351) R11 Frame(CFA_Y, -5)
        CFI (cfiCond351) R12 Frame(CFA_Y, -4)
        CFI (cfiCond351) R13 Frame(CFA_Y, -3)
        CFI (cfiCond351) R14 Frame(CFA_Y, -2)
        CFI (cfiCond351) R15 Frame(CFA_Y, -1)
        CFI (cfiCond351) CFA_SP SP+6
        CFI (cfiCond351) CFA_Y Y+34
        CFI Block cfiCond352 Using cfiCommon0
        CFI (cfiCond352) NoFunction
        CFI (cfiCond352) Conditional ??CrossCallReturnLabel_230
        CFI (cfiCond352) R24 Frame(CFA_Y, -16)
        CFI (cfiCond352) R25 Frame(CFA_Y, -15)
        CFI (cfiCond352) R26 Frame(CFA_Y, -14)
        CFI (cfiCond352) R27 Frame(CFA_Y, -13)
        CFI (cfiCond352) R4 Frame(CFA_Y, -12)
        CFI (cfiCond352) R5 Frame(CFA_Y, -11)
        CFI (cfiCond352) R6 Frame(CFA_Y, -10)
        CFI (cfiCond352) R7 Frame(CFA_Y, -9)
        CFI (cfiCond352) R8 Frame(CFA_Y, -8)
        CFI (cfiCond352) R9 Frame(CFA_Y, -7)
        CFI (cfiCond352) R10 Frame(CFA_Y, -6)
        CFI (cfiCond352) R11 Frame(CFA_Y, -5)
        CFI (cfiCond352) R12 Frame(CFA_Y, -4)
        CFI (cfiCond352) R13 Frame(CFA_Y, -3)
        CFI (cfiCond352) R14 Frame(CFA_Y, -2)
        CFI (cfiCond352) R15 Frame(CFA_Y, -1)
        CFI (cfiCond352) CFA_SP SP+6
        CFI (cfiCond352) CFA_Y Y+34
        CFI Block cfiCond353 Using cfiCommon0
        CFI (cfiCond353) NoFunction
        CFI (cfiCond353) Conditional ??CrossCallReturnLabel_229
        CFI (cfiCond353) R24 Frame(CFA_Y, -16)
        CFI (cfiCond353) R25 Frame(CFA_Y, -15)
        CFI (cfiCond353) R26 Frame(CFA_Y, -14)
        CFI (cfiCond353) R27 Frame(CFA_Y, -13)
        CFI (cfiCond353) R4 Frame(CFA_Y, -12)
        CFI (cfiCond353) R5 Frame(CFA_Y, -11)
        CFI (cfiCond353) R6 Frame(CFA_Y, -10)
        CFI (cfiCond353) R7 Frame(CFA_Y, -9)
        CFI (cfiCond353) R8 Frame(CFA_Y, -8)
        CFI (cfiCond353) R9 Frame(CFA_Y, -7)
        CFI (cfiCond353) R10 Frame(CFA_Y, -6)
        CFI (cfiCond353) R11 Frame(CFA_Y, -5)
        CFI (cfiCond353) R12 Frame(CFA_Y, -4)
        CFI (cfiCond353) R13 Frame(CFA_Y, -3)
        CFI (cfiCond353) R14 Frame(CFA_Y, -2)
        CFI (cfiCond353) R15 Frame(CFA_Y, -1)
        CFI (cfiCond353) CFA_SP SP+6
        CFI (cfiCond353) CFA_Y Y+34
        CFI Block cfiPicker354 Using cfiCommon1
        CFI (cfiPicker354) NoFunction
        CFI (cfiPicker354) Picker
        ST	X+, R5
        ST	X+, R5
        ST	X, R5
        RET
        CFI EndBlock cfiCond349
        CFI EndBlock cfiCond350
        CFI EndBlock cfiCond351
        CFI EndBlock cfiCond352
        CFI EndBlock cfiCond353
        CFI EndBlock cfiPicker354

        RSEG FARCODE:CODE:NOROOT(1)
?Subroutine100:
        CFI Block cfiCond355 Using cfiCommon0
        CFI NoFunction
        CFI Conditional ??CrossCallReturnLabel_191
        CFI R24 Frame(CFA_Y, -16)
        CFI R25 Frame(CFA_Y, -15)
        CFI R26 Frame(CFA_Y, -14)
        CFI R27 Frame(CFA_Y, -13)
        CFI R4 Frame(CFA_Y, -12)
        CFI R5 Frame(CFA_Y, -11)
        CFI R6 Frame(CFA_Y, -10)
        CFI R7 Frame(CFA_Y, -9)
        CFI R8 Frame(CFA_Y, -8)
        CFI R9 Frame(CFA_Y, -7)
        CFI R10 Frame(CFA_Y, -6)
        CFI R11 Frame(CFA_Y, -5)
        CFI R12 Frame(CFA_Y, -4)
        CFI R13 Frame(CFA_Y, -3)
        CFI R14 Frame(CFA_Y, -2)
        CFI R15 Frame(CFA_Y, -1)
        CFI CFA_SP SP+6
        CFI CFA_Y Y+34
        CFI Block cfiCond356 Using cfiCommon0
        CFI (cfiCond356) NoFunction
        CFI (cfiCond356) Conditional ??CrossCallReturnLabel_190
        CFI (cfiCond356) R24 Frame(CFA_Y, -16)
        CFI (cfiCond356) R25 Frame(CFA_Y, -15)
        CFI (cfiCond356) R26 Frame(CFA_Y, -14)
        CFI (cfiCond356) R27 Frame(CFA_Y, -13)
        CFI (cfiCond356) R4 Frame(CFA_Y, -12)
        CFI (cfiCond356) R5 Frame(CFA_Y, -11)
        CFI (cfiCond356) R6 Frame(CFA_Y, -10)
        CFI (cfiCond356) R7 Frame(CFA_Y, -9)
        CFI (cfiCond356) R8 Frame(CFA_Y, -8)
        CFI (cfiCond356) R9 Frame(CFA_Y, -7)
        CFI (cfiCond356) R10 Frame(CFA_Y, -6)
        CFI (cfiCond356) R11 Frame(CFA_Y, -5)
        CFI (cfiCond356) R12 Frame(CFA_Y, -4)
        CFI (cfiCond356) R13 Frame(CFA_Y, -3)
        CFI (cfiCond356) R14 Frame(CFA_Y, -2)
        CFI (cfiCond356) R15 Frame(CFA_Y, -1)
        CFI (cfiCond356) CFA_SP SP+6
        CFI (cfiCond356) CFA_Y Y+34
        CFI Block cfiCond357 Using cfiCommon0
        CFI (cfiCond357) NoFunction
        CFI (cfiCond357) Conditional ??CrossCallReturnLabel_189
        CFI (cfiCond357) R24 Frame(CFA_Y, -16)
        CFI (cfiCond357) R25 Frame(CFA_Y, -15)
        CFI (cfiCond357) R26 Frame(CFA_Y, -14)
        CFI (cfiCond357) R27 Frame(CFA_Y, -13)
        CFI (cfiCond357) R4 Frame(CFA_Y, -12)
        CFI (cfiCond357) R5 Frame(CFA_Y, -11)
        CFI (cfiCond357) R6 Frame(CFA_Y, -10)
        CFI (cfiCond357) R7 Frame(CFA_Y, -9)
        CFI (cfiCond357) R8 Frame(CFA_Y, -8)
        CFI (cfiCond357) R9 Frame(CFA_Y, -7)
        CFI (cfiCond357) R10 Frame(CFA_Y, -6)
        CFI (cfiCond357) R11 Frame(CFA_Y, -5)
        CFI (cfiCond357) R12 Frame(CFA_Y, -4)
        CFI (cfiCond357) R13 Frame(CFA_Y, -3)
        CFI (cfiCond357) R14 Frame(CFA_Y, -2)
        CFI (cfiCond357) R15 Frame(CFA_Y, -1)
        CFI (cfiCond357) CFA_SP SP+6
        CFI (cfiCond357) CFA_Y Y+34
        CFI Block cfiPicker358 Using cfiCommon1
        CFI (cfiPicker358) NoFunction
        CFI (cfiPicker358) Picker
        RJMP	store_ys
        CFI EndBlock cfiCond355
        CFI EndBlock cfiCond356
        CFI EndBlock cfiCond357
        CFI EndBlock cfiPicker358

        RSEG FARCODE:CODE:NOROOT(1)
?Subroutine99:
        CFI Block cfiCond359 Using cfiCommon0
        CFI NoFunction
        CFI Conditional ??CrossCallReturnLabel_186
        CFI R24 Frame(CFA_Y, -16)
        CFI R25 Frame(CFA_Y, -15)
        CFI R26 Frame(CFA_Y, -14)
        CFI R27 Frame(CFA_Y, -13)
        CFI R4 Frame(CFA_Y, -12)
        CFI R5 Frame(CFA_Y, -11)
        CFI R6 Frame(CFA_Y, -10)
        CFI R7 Frame(CFA_Y, -9)
        CFI R8 Frame(CFA_Y, -8)
        CFI R9 Frame(CFA_Y, -7)
        CFI R10 Frame(CFA_Y, -6)
        CFI R11 Frame(CFA_Y, -5)
        CFI R12 Frame(CFA_Y, -4)
        CFI R13 Frame(CFA_Y, -3)
        CFI R14 Frame(CFA_Y, -2)
        CFI R15 Frame(CFA_Y, -1)
        CFI CFA_SP SP+6
        CFI CFA_Y Y+34
        CFI Block cfiCond360 Using cfiCommon0
        CFI (cfiCond360) NoFunction
        CFI (cfiCond360) Conditional ??CrossCallReturnLabel_187
        CFI (cfiCond360) R24 Frame(CFA_Y, -16)
        CFI (cfiCond360) R25 Frame(CFA_Y, -15)
        CFI (cfiCond360) R26 Frame(CFA_Y, -14)
        CFI (cfiCond360) R27 Frame(CFA_Y, -13)
        CFI (cfiCond360) R4 Frame(CFA_Y, -12)
        CFI (cfiCond360) R5 Frame(CFA_Y, -11)
        CFI (cfiCond360) R6 Frame(CFA_Y, -10)
        CFI (cfiCond360) R7 Frame(CFA_Y, -9)
        CFI (cfiCond360) R8 Frame(CFA_Y, -8)
        CFI (cfiCond360) R9 Frame(CFA_Y, -7)
        CFI (cfiCond360) R10 Frame(CFA_Y, -6)
        CFI (cfiCond360) R11 Frame(CFA_Y, -5)
        CFI (cfiCond360) R12 Frame(CFA_Y, -4)
        CFI (cfiCond360) R13 Frame(CFA_Y, -3)
        CFI (cfiCond360) R14 Frame(CFA_Y, -2)
        CFI (cfiCond360) R15 Frame(CFA_Y, -1)
        CFI (cfiCond360) CFA_SP SP+6
        CFI (cfiCond360) CFA_Y Y+34
        CFI Block cfiCond361 Using cfiCommon0
        CFI (cfiCond361) NoFunction
        CFI (cfiCond361) Conditional ??CrossCallReturnLabel_188
        CFI (cfiCond361) R24 Frame(CFA_Y, -16)
        CFI (cfiCond361) R25 Frame(CFA_Y, -15)
        CFI (cfiCond361) R26 Frame(CFA_Y, -14)
        CFI (cfiCond361) R27 Frame(CFA_Y, -13)
        CFI (cfiCond361) R4 Frame(CFA_Y, -12)
        CFI (cfiCond361) R5 Frame(CFA_Y, -11)
        CFI (cfiCond361) R6 Frame(CFA_Y, -10)
        CFI (cfiCond361) R7 Frame(CFA_Y, -9)
        CFI (cfiCond361) R8 Frame(CFA_Y, -8)
        CFI (cfiCond361) R9 Frame(CFA_Y, -7)
        CFI (cfiCond361) R10 Frame(CFA_Y, -6)
        CFI (cfiCond361) R11 Frame(CFA_Y, -5)
        CFI (cfiCond361) R12 Frame(CFA_Y, -4)
        CFI (cfiCond361) R13 Frame(CFA_Y, -3)
        CFI (cfiCond361) R14 Frame(CFA_Y, -2)
        CFI (cfiCond361) R15 Frame(CFA_Y, -1)
        CFI (cfiCond361) CFA_SP SP+6
        CFI (cfiCond361) CFA_Y Y+34
        CFI Block cfiPicker362 Using cfiCommon1
        CFI (cfiPicker362) NoFunction
        CFI (cfiPicker362) Picker
        RCALL	test_nenull
        TST	R16
        RET
        CFI EndBlock cfiCond359
        CFI EndBlock cfiCond360
        CFI EndBlock cfiCond361
        CFI EndBlock cfiPicker362

        RSEG FARCODE:CODE:NOROOT(1)
?Subroutine90:
        CFI Block cfiCond363 Using cfiCommon0
        CFI NoFunction
        CFI Conditional ??CrossCallReturnLabel_161
        CFI R24 Frame(CFA_Y, -4)
        CFI R25 Frame(CFA_Y, -3)
        CFI R26 Frame(CFA_Y, -2)
        CFI R27 Frame(CFA_Y, -1)
        CFI CFA_SP SP+6
        CFI CFA_Y Y+22
        CFI Block cfiCond364 Using cfiCommon0
        CFI (cfiCond364) NoFunction
        CFI (cfiCond364) Conditional ??CrossCallReturnLabel_162
        CFI (cfiCond364) R24 Frame(CFA_Y, -16)
        CFI (cfiCond364) R25 Frame(CFA_Y, -15)
        CFI (cfiCond364) R26 Frame(CFA_Y, -14)
        CFI (cfiCond364) R27 Frame(CFA_Y, -13)
        CFI (cfiCond364) R4 Frame(CFA_Y, -12)
        CFI (cfiCond364) R5 Frame(CFA_Y, -11)
        CFI (cfiCond364) R6 Frame(CFA_Y, -10)
        CFI (cfiCond364) R7 Frame(CFA_Y, -9)
        CFI (cfiCond364) R8 Frame(CFA_Y, -8)
        CFI (cfiCond364) R9 Frame(CFA_Y, -7)
        CFI (cfiCond364) R10 Frame(CFA_Y, -6)
        CFI (cfiCond364) R11 Frame(CFA_Y, -5)
        CFI (cfiCond364) R12 Frame(CFA_Y, -4)
        CFI (cfiCond364) R13 Frame(CFA_Y, -3)
        CFI (cfiCond364) R14 Frame(CFA_Y, -2)
        CFI (cfiCond364) R15 Frame(CFA_Y, -1)
        CFI (cfiCond364) CFA_SP SP+6
        CFI (cfiCond364) CFA_Y Y+34
        CFI Block cfiCond365 Using cfiCommon0
        CFI (cfiCond365) NoFunction
        CFI (cfiCond365) Conditional ??CrossCallReturnLabel_163
        CFI (cfiCond365) R24 Frame(CFA_Y, -11)
        CFI (cfiCond365) R25 Frame(CFA_Y, -10)
        CFI (cfiCond365) R26 Frame(CFA_Y, -9)
        CFI (cfiCond365) R27 Frame(CFA_Y, -8)
        CFI (cfiCond365) R4 Frame(CFA_Y, -7)
        CFI (cfiCond365) R5 Frame(CFA_Y, -6)
        CFI (cfiCond365) R6 Frame(CFA_Y, -5)
        CFI (cfiCond365) R7 Frame(CFA_Y, -4)
        CFI (cfiCond365) R8 Frame(CFA_Y, -3)
        CFI (cfiCond365) R9 Frame(CFA_Y, -2)
        CFI (cfiCond365) R10 Frame(CFA_Y, -1)
        CFI (cfiCond365) CFA_SP SP+6
        CFI (cfiCond365) CFA_Y Y+29
        CFI Block cfiPicker366 Using cfiCommon1
        CFI (cfiPicker366) NoFunction
        CFI (cfiPicker366) Picker
        LD	R16, Y
        LDD	R17, Y+1
        LDD	R18, Y+2
        LDD	R19, Y+3
        RET
        CFI EndBlock cfiCond363
        CFI EndBlock cfiCond364
        CFI EndBlock cfiCond365
        CFI EndBlock cfiPicker366

        RSEG FARCODE:CODE:NOROOT(1)
?Subroutine72:
        CFI Block cfiCond367 Using cfiCommon0
        CFI NoFunction
        CFI Conditional ??CrossCallReturnLabel_112
        CFI R24 Frame(CFA_Y, -6)
        CFI R25 Frame(CFA_Y, -5)
        CFI R26 Frame(CFA_Y, -4)
        CFI R27 Frame(CFA_Y, -3)
        CFI R4 Frame(CFA_Y, -2)
        CFI R5 Frame(CFA_Y, -1)
        CFI CFA_SP SP+6
        CFI CFA_Y Y+28
        CFI Block cfiCond368 Using cfiCommon0
        CFI (cfiCond368) NoFunction
        CFI (cfiCond368) Conditional ??CrossCallReturnLabel_113
        CFI (cfiCond368) R24 Frame(CFA_Y, -16)
        CFI (cfiCond368) R25 Frame(CFA_Y, -15)
        CFI (cfiCond368) R26 Frame(CFA_Y, -14)
        CFI (cfiCond368) R27 Frame(CFA_Y, -13)
        CFI (cfiCond368) R4 Frame(CFA_Y, -12)
        CFI (cfiCond368) R5 Frame(CFA_Y, -11)
        CFI (cfiCond368) R6 Frame(CFA_Y, -10)
        CFI (cfiCond368) R7 Frame(CFA_Y, -9)
        CFI (cfiCond368) R8 Frame(CFA_Y, -8)
        CFI (cfiCond368) R9 Frame(CFA_Y, -7)
        CFI (cfiCond368) R10 Frame(CFA_Y, -6)
        CFI (cfiCond368) R11 Frame(CFA_Y, -5)
        CFI (cfiCond368) R12 Frame(CFA_Y, -4)
        CFI (cfiCond368) R13 Frame(CFA_Y, -3)
        CFI (cfiCond368) R14 Frame(CFA_Y, -2)
        CFI (cfiCond368) R15 Frame(CFA_Y, -1)
        CFI (cfiCond368) CFA_SP SP+6
        CFI (cfiCond368) CFA_Y Y+34
        CFI Block cfiPicker369 Using cfiCommon1
        CFI (cfiPicker369) NoFunction
        CFI (cfiPicker369) Picker
        LDD	R20, Z+4
        LDD	R21, Z+5
        LDD	R22, Z+6
        LDD	R23, Z+7
        RET
        CFI EndBlock cfiCond367
        CFI EndBlock cfiCond368
        CFI EndBlock cfiPicker369

        RSEG FARCODE:CODE:NOROOT(1)
?Subroutine68:
        CFI Block cfiCond370 Using cfiCommon0
        CFI NoFunction
        CFI Conditional ??CrossCallReturnLabel_96
        CFI R24 Frame(CFA_Y, -6)
        CFI R25 Frame(CFA_Y, -5)
        CFI R26 Frame(CFA_Y, -4)
        CFI R27 Frame(CFA_Y, -3)
        CFI R4 Frame(CFA_Y, -2)
        CFI R5 Frame(CFA_Y, -1)
        CFI CFA_SP SP+6
        CFI CFA_Y Y+28
        CFI Block cfiCond371 Using cfiCommon0
        CFI (cfiCond371) NoFunction
        CFI (cfiCond371) Conditional ??CrossCallReturnLabel_97
        CFI (cfiCond371) R24 Frame(CFA_Y, -16)
        CFI (cfiCond371) R25 Frame(CFA_Y, -15)
        CFI (cfiCond371) R26 Frame(CFA_Y, -14)
        CFI (cfiCond371) R27 Frame(CFA_Y, -13)
        CFI (cfiCond371) R4 Frame(CFA_Y, -12)
        CFI (cfiCond371) R5 Frame(CFA_Y, -11)
        CFI (cfiCond371) R6 Frame(CFA_Y, -10)
        CFI (cfiCond371) R7 Frame(CFA_Y, -9)
        CFI (cfiCond371) R8 Frame(CFA_Y, -8)
        CFI (cfiCond371) R9 Frame(CFA_Y, -7)
        CFI (cfiCond371) R10 Frame(CFA_Y, -6)
        CFI (cfiCond371) R11 Frame(CFA_Y, -5)
        CFI (cfiCond371) R12 Frame(CFA_Y, -4)
        CFI (cfiCond371) R13 Frame(CFA_Y, -3)
        CFI (cfiCond371) R14 Frame(CFA_Y, -2)
        CFI (cfiCond371) R15 Frame(CFA_Y, -1)
        CFI (cfiCond371) CFA_SP SP+6
        CFI (cfiCond371) CFA_Y Y+34
        CFI Block cfiPicker372 Using cfiCommon1
        CFI (cfiPicker372) NoFunction
        CFI (cfiPicker372) Picker
        STD	Z+4, R20
        STD	Z+5, R21
        STD	Z+6, R22
        STD	Z+7, R23
        RET
        CFI EndBlock cfiCond370
        CFI EndBlock cfiCond371
        CFI EndBlock cfiPicker372

        RSEG FARCODE:CODE:NOROOT(1)
?Subroutine67:
        CFI Block cfiCond373 Using cfiCommon0
        CFI NoFunction
        CFI Conditional ??CrossCallReturnLabel_251
        CFI R24 Frame(CFA_Y, -16)
        CFI R25 Frame(CFA_Y, -15)
        CFI R26 Frame(CFA_Y, -14)
        CFI R27 Frame(CFA_Y, -13)
        CFI R4 Frame(CFA_Y, -12)
        CFI R5 Frame(CFA_Y, -11)
        CFI R6 Frame(CFA_Y, -10)
        CFI R7 Frame(CFA_Y, -9)
        CFI R8 Frame(CFA_Y, -8)
        CFI R9 Frame(CFA_Y, -7)
        CFI R10 Frame(CFA_Y, -6)
        CFI R11 Frame(CFA_Y, -5)
        CFI R12 Frame(CFA_Y, -4)
        CFI R13 Frame(CFA_Y, -3)
        CFI R14 Frame(CFA_Y, -2)
        CFI R15 Frame(CFA_Y, -1)
        CFI CFA_SP SP+6
        CFI CFA_Y Y+34
        CFI Block cfiCond374 Using cfiCommon0
        CFI (cfiCond374) NoFunction
        CFI (cfiCond374) Conditional ??CrossCallReturnLabel_252
        CFI (cfiCond374) R24 Frame(CFA_Y, -16)
        CFI (cfiCond374) R25 Frame(CFA_Y, -15)
        CFI (cfiCond374) R26 Frame(CFA_Y, -14)
        CFI (cfiCond374) R27 Frame(CFA_Y, -13)
        CFI (cfiCond374) R4 Frame(CFA_Y, -12)
        CFI (cfiCond374) R5 Frame(CFA_Y, -11)
        CFI (cfiCond374) R6 Frame(CFA_Y, -10)
        CFI (cfiCond374) R7 Frame(CFA_Y, -9)
        CFI (cfiCond374) R8 Frame(CFA_Y, -8)
        CFI (cfiCond374) R9 Frame(CFA_Y, -7)
        CFI (cfiCond374) R10 Frame(CFA_Y, -6)
        CFI (cfiCond374) R11 Frame(CFA_Y, -5)
        CFI (cfiCond374) R12 Frame(CFA_Y, -4)
        CFI (cfiCond374) R13 Frame(CFA_Y, -3)
        CFI (cfiCond374) R14 Frame(CFA_Y, -2)
        CFI (cfiCond374) R15 Frame(CFA_Y, -1)
        CFI (cfiCond374) CFA_SP SP+6
        CFI (cfiCond374) CFA_Y Y+34
        CFI Block cfiPicker375 Using cfiCommon1
        CFI (cfiPicker375) NoFunction
        CFI (cfiPicker375) Picker
        ST	X+, R16
        ST	X+, R17
        ST	X+, R18
        ST	X, R19
        RJMP	?Subroutine116
        CFI EndBlock cfiCond373
        CFI EndBlock cfiCond374
        CFI EndBlock cfiPicker375

        RSEG FARCODE:CODE:NOROOT(1)
?Subroutine66:
        CFI Block cfiCond376 Using cfiCommon0
        CFI NoFunction
        CFI Conditional ??CrossCallReturnLabel_228
        CFI R24 Frame(CFA_Y, -16)
        CFI R25 Frame(CFA_Y, -15)
        CFI R26 Frame(CFA_Y, -14)
        CFI R27 Frame(CFA_Y, -13)
        CFI R4 Frame(CFA_Y, -12)
        CFI R5 Frame(CFA_Y, -11)
        CFI R6 Frame(CFA_Y, -10)
        CFI R7 Frame(CFA_Y, -9)
        CFI R8 Frame(CFA_Y, -8)
        CFI R9 Frame(CFA_Y, -7)
        CFI R10 Frame(CFA_Y, -6)
        CFI R11 Frame(CFA_Y, -5)
        CFI R12 Frame(CFA_Y, -4)
        CFI R13 Frame(CFA_Y, -3)
        CFI R14 Frame(CFA_Y, -2)
        CFI R15 Frame(CFA_Y, -1)
        CFI CFA_SP SP+6
        CFI CFA_Y Y+34
        CFI Block cfiCond377 Using cfiCommon0
        CFI (cfiCond377) NoFunction
        CFI (cfiCond377) Conditional ??CrossCallReturnLabel_230
        CFI (cfiCond377) R24 Frame(CFA_Y, -16)
        CFI (cfiCond377) R25 Frame(CFA_Y, -15)
        CFI (cfiCond377) R26 Frame(CFA_Y, -14)
        CFI (cfiCond377) R27 Frame(CFA_Y, -13)
        CFI (cfiCond377) R4 Frame(CFA_Y, -12)
        CFI (cfiCond377) R5 Frame(CFA_Y, -11)
        CFI (cfiCond377) R6 Frame(CFA_Y, -10)
        CFI (cfiCond377) R7 Frame(CFA_Y, -9)
        CFI (cfiCond377) R8 Frame(CFA_Y, -8)
        CFI (cfiCond377) R9 Frame(CFA_Y, -7)
        CFI (cfiCond377) R10 Frame(CFA_Y, -6)
        CFI (cfiCond377) R11 Frame(CFA_Y, -5)
        CFI (cfiCond377) R12 Frame(CFA_Y, -4)
        CFI (cfiCond377) R13 Frame(CFA_Y, -3)
        CFI (cfiCond377) R14 Frame(CFA_Y, -2)
        CFI (cfiCond377) R15 Frame(CFA_Y, -1)
        CFI (cfiCond377) CFA_SP SP+6
        CFI (cfiCond377) CFA_Y Y+34
        CFI Block cfiPicker378 Using cfiCommon1
        CFI (cfiPicker378) NoFunction
        CFI (cfiPicker378) Picker
        LDI	R16, 120
        CFI Block cfiCond379 Using cfiCommon0
        CFI (cfiCond379) NoFunction
        CFI (cfiCond379) Conditional ??CrossCallReturnLabel_229
        CFI (cfiCond379) R24 Frame(CFA_Y, -16)
        CFI (cfiCond379) R25 Frame(CFA_Y, -15)
        CFI (cfiCond379) R26 Frame(CFA_Y, -14)
        CFI (cfiCond379) R27 Frame(CFA_Y, -13)
        CFI (cfiCond379) R4 Frame(CFA_Y, -12)
        CFI (cfiCond379) R5 Frame(CFA_Y, -11)
        CFI (cfiCond379) R6 Frame(CFA_Y, -10)
        CFI (cfiCond379) R7 Frame(CFA_Y, -9)
        CFI (cfiCond379) R8 Frame(CFA_Y, -8)
        CFI (cfiCond379) R9 Frame(CFA_Y, -7)
        CFI (cfiCond379) R10 Frame(CFA_Y, -6)
        CFI (cfiCond379) R11 Frame(CFA_Y, -5)
        CFI (cfiCond379) R12 Frame(CFA_Y, -4)
        CFI (cfiCond379) R13 Frame(CFA_Y, -3)
        CFI (cfiCond379) R14 Frame(CFA_Y, -2)
        CFI (cfiCond379) R15 Frame(CFA_Y, -1)
        CFI (cfiCond379) CFA_SP SP+6
        CFI (cfiCond379) CFA_Y Y+34
??Subroutine66_0:
        ST	X+, R16
        RJMP	?Subroutine109
        CFI EndBlock cfiCond376
        CFI EndBlock cfiCond377
        CFI EndBlock cfiPicker378
        CFI EndBlock cfiCond379

        RSEG FARCODE:CODE:NOROOT(1)
?Subroutine58:
        CFI Block cfiCond380 Using cfiCommon0
        CFI NoFunction
        CFI Conditional ??CrossCallReturnLabel_84
        CFI R24 Frame(CFA_Y, -16)
        CFI R25 Frame(CFA_Y, -15)
        CFI R26 Frame(CFA_Y, -14)
        CFI R27 Frame(CFA_Y, -13)
        CFI R4 Frame(CFA_Y, -12)
        CFI R5 Frame(CFA_Y, -11)
        CFI R6 Frame(CFA_Y, -10)
        CFI R7 Frame(CFA_Y, -9)
        CFI R8 Frame(CFA_Y, -8)
        CFI R9 Frame(CFA_Y, -7)
        CFI R10 Frame(CFA_Y, -6)
        CFI R11 Frame(CFA_Y, -5)
        CFI R12 Frame(CFA_Y, -4)
        CFI R13 Frame(CFA_Y, -3)
        CFI R14 Frame(CFA_Y, -2)
        CFI R15 Frame(CFA_Y, -1)
        CFI CFA_SP SP+6
        CFI CFA_Y Y+34
        CFI Block cfiCond381 Using cfiCommon0
        CFI (cfiCond381) NoFunction
        CFI (cfiCond381) Conditional ??CrossCallReturnLabel_85
        CFI (cfiCond381) R24 Frame(CFA_Y, -16)
        CFI (cfiCond381) R25 Frame(CFA_Y, -15)
        CFI (cfiCond381) R26 Frame(CFA_Y, -14)
        CFI (cfiCond381) R27 Frame(CFA_Y, -13)
        CFI (cfiCond381) R4 Frame(CFA_Y, -12)
        CFI (cfiCond381) R5 Frame(CFA_Y, -11)
        CFI (cfiCond381) R6 Frame(CFA_Y, -10)
        CFI (cfiCond381) R7 Frame(CFA_Y, -9)
        CFI (cfiCond381) R8 Frame(CFA_Y, -8)
        CFI (cfiCond381) R9 Frame(CFA_Y, -7)
        CFI (cfiCond381) R10 Frame(CFA_Y, -6)
        CFI (cfiCond381) R11 Frame(CFA_Y, -5)
        CFI (cfiCond381) R12 Frame(CFA_Y, -4)
        CFI (cfiCond381) R13 Frame(CFA_Y, -3)
        CFI (cfiCond381) R14 Frame(CFA_Y, -2)
        CFI (cfiCond381) R15 Frame(CFA_Y, -1)
        CFI (cfiCond381) CFA_SP SP+6
        CFI (cfiCond381) CFA_Y Y+34
        CFI Block cfiPicker382 Using cfiCommon1
        CFI (cfiPicker382) NoFunction
        CFI (cfiPicker382) Picker
        MOVW	R31:R30, R27:R26
        LDD	R16, Z+43
        LSL	R16
        SUBI	R16, 246
        RET
        CFI EndBlock cfiCond380
        CFI EndBlock cfiCond381
        CFI EndBlock cfiPicker382

        RSEG FARCODE:CODE:NOROOT(1)
?Subroutine108:
        CFI Block cfiCond383 Using cfiCommon0
        CFI NoFunction
        CFI Conditional ??CrossCallReturnLabel_223
        CFI R24 Frame(CFA_Y, -6)
        CFI R25 Frame(CFA_Y, -5)
        CFI R26 Frame(CFA_Y, -4)
        CFI R27 Frame(CFA_Y, -3)
        CFI R4 Frame(CFA_Y, -2)
        CFI R5 Frame(CFA_Y, -1)
        CFI CFA_SP SP+6
        CFI CFA_Y Y+28
        CFI Block cfiCond384 Using cfiCommon0
        CFI (cfiCond384) NoFunction
        CFI (cfiCond384) Conditional ??CrossCallReturnLabel_224
        CFI (cfiCond384) R24 Frame(CFA_Y, -6)
        CFI (cfiCond384) R25 Frame(CFA_Y, -5)
        CFI (cfiCond384) R26 Frame(CFA_Y, -4)
        CFI (cfiCond384) R27 Frame(CFA_Y, -3)
        CFI (cfiCond384) R4 Frame(CFA_Y, -2)
        CFI (cfiCond384) R5 Frame(CFA_Y, -1)
        CFI (cfiCond384) CFA_SP SP+6
        CFI (cfiCond384) CFA_Y Y+28
        CFI Block cfiCond385 Using cfiCommon0
        CFI (cfiCond385) NoFunction
        CFI (cfiCond385) Conditional ??CrossCallReturnLabel_225
        CFI (cfiCond385) R24 Frame(CFA_Y, -16)
        CFI (cfiCond385) R25 Frame(CFA_Y, -15)
        CFI (cfiCond385) R26 Frame(CFA_Y, -14)
        CFI (cfiCond385) R27 Frame(CFA_Y, -13)
        CFI (cfiCond385) R4 Frame(CFA_Y, -12)
        CFI (cfiCond385) R5 Frame(CFA_Y, -11)
        CFI (cfiCond385) R6 Frame(CFA_Y, -10)
        CFI (cfiCond385) R7 Frame(CFA_Y, -9)
        CFI (cfiCond385) R8 Frame(CFA_Y, -8)
        CFI (cfiCond385) R9 Frame(CFA_Y, -7)
        CFI (cfiCond385) R10 Frame(CFA_Y, -6)
        CFI (cfiCond385) R11 Frame(CFA_Y, -5)
        CFI (cfiCond385) R12 Frame(CFA_Y, -4)
        CFI (cfiCond385) R13 Frame(CFA_Y, -3)
        CFI (cfiCond385) R14 Frame(CFA_Y, -2)
        CFI (cfiCond385) R15 Frame(CFA_Y, -1)
        CFI (cfiCond385) CFA_SP SP+6
        CFI (cfiCond385) CFA_Y Y+34
        CFI Block cfiCond386 Using cfiCommon0
        CFI (cfiCond386) NoFunction
        CFI (cfiCond386) Conditional ??CrossCallReturnLabel_221
        CFI (cfiCond386) R24 Frame(CFA_Y, -4)
        CFI (cfiCond386) R25 Frame(CFA_Y, -3)
        CFI (cfiCond386) R26 Frame(CFA_Y, -2)
        CFI (cfiCond386) R27 Frame(CFA_Y, -1)
        CFI (cfiCond386) CFA_SP SP+6
        CFI (cfiCond386) CFA_Y Y+22
        CFI Block cfiCond387 Using cfiCommon0
        CFI (cfiCond387) NoFunction
        CFI (cfiCond387) Conditional ??CrossCallReturnLabel_222
        CFI (cfiCond387) R24 Frame(CFA_Y, -5)
        CFI (cfiCond387) R25 Frame(CFA_Y, -4)
        CFI (cfiCond387) R26 Frame(CFA_Y, -3)
        CFI (cfiCond387) R27 Frame(CFA_Y, -2)
        CFI (cfiCond387) R4 Frame(CFA_Y, -1)
        CFI (cfiCond387) CFA_SP SP+6
        CFI (cfiCond387) CFA_Y Y+23
        CFI Block cfiPicker388 Using cfiCommon1
        CFI (cfiPicker388) NoFunction
        CFI (cfiPicker388) Picker
        CP	R16, R20
        CPC	R17, R21
        CPC	R18, R22
        CPC	R19, R23
        RET
        CFI EndBlock cfiCond383
        CFI EndBlock cfiCond384
        CFI EndBlock cfiCond385
        CFI EndBlock cfiCond386
        CFI EndBlock cfiCond387
        CFI EndBlock cfiPicker388

        RSEG FARCODE:CODE:NOROOT(1)
?Subroutine50:
        CFI Block cfiCond389 Using cfiCommon0
        CFI NoFunction
        CFI Conditional ??CrossCallReturnLabel_60
        CFI R24 Frame(CFA_Y, -16)
        CFI R25 Frame(CFA_Y, -15)
        CFI R26 Frame(CFA_Y, -14)
        CFI R27 Frame(CFA_Y, -13)
        CFI R4 Frame(CFA_Y, -12)
        CFI R5 Frame(CFA_Y, -11)
        CFI R6 Frame(CFA_Y, -10)
        CFI R7 Frame(CFA_Y, -9)
        CFI R8 Frame(CFA_Y, -8)
        CFI R9 Frame(CFA_Y, -7)
        CFI R10 Frame(CFA_Y, -6)
        CFI R11 Frame(CFA_Y, -5)
        CFI R12 Frame(CFA_Y, -4)
        CFI R13 Frame(CFA_Y, -3)
        CFI R14 Frame(CFA_Y, -2)
        CFI R15 Frame(CFA_Y, -1)
        CFI CFA_SP SP+6
        CFI CFA_Y Y+34
        CFI Block cfiCond390 Using cfiCommon0
        CFI (cfiCond390) NoFunction
        CFI (cfiCond390) Conditional ??CrossCallReturnLabel_61
        CFI (cfiCond390) R24 Frame(CFA_Y, -16)
        CFI (cfiCond390) R25 Frame(CFA_Y, -15)
        CFI (cfiCond390) R26 Frame(CFA_Y, -14)
        CFI (cfiCond390) R27 Frame(CFA_Y, -13)
        CFI (cfiCond390) R4 Frame(CFA_Y, -12)
        CFI (cfiCond390) R5 Frame(CFA_Y, -11)
        CFI (cfiCond390) R6 Frame(CFA_Y, -10)
        CFI (cfiCond390) R7 Frame(CFA_Y, -9)
        CFI (cfiCond390) R8 Frame(CFA_Y, -8)
        CFI (cfiCond390) R9 Frame(CFA_Y, -7)
        CFI (cfiCond390) R10 Frame(CFA_Y, -6)
        CFI (cfiCond390) R11 Frame(CFA_Y, -5)
        CFI (cfiCond390) R12 Frame(CFA_Y, -4)
        CFI (cfiCond390) R13 Frame(CFA_Y, -3)
        CFI (cfiCond390) R14 Frame(CFA_Y, -2)
        CFI (cfiCond390) R15 Frame(CFA_Y, -1)
        CFI (cfiCond390) CFA_SP SP+6
        CFI (cfiCond390) CFA_Y Y+34
        CFI Block cfiPicker391 Using cfiCommon1
        CFI (cfiPicker391) NoFunction
        CFI (cfiPicker391) Picker
        LDI	R30, LOW(modbus_mem1)
        LDI	R31, (modbus_mem1) >> 8
        LDD	R16, Z+48
        SWAP	R16
        ANDI	R16, 0x0F
        MOVW	R31:R30, R27:R26
        LDD	R17, Z+43
        CP	R16, R17
        RET
        CFI EndBlock cfiCond389
        CFI EndBlock cfiCond390
        CFI EndBlock cfiPicker391

        RSEG FARCODE:CODE:NOROOT(1)
?Subroutine46:
        CFI Block cfiCond392 Using cfiCommon0
        CFI NoFunction
        CFI Conditional ??CrossCallReturnLabel_235
        CFI R24 Frame(CFA_Y, -16)
        CFI R25 Frame(CFA_Y, -15)
        CFI R26 Frame(CFA_Y, -14)
        CFI R27 Frame(CFA_Y, -13)
        CFI R4 Frame(CFA_Y, -12)
        CFI R5 Frame(CFA_Y, -11)
        CFI R6 Frame(CFA_Y, -10)
        CFI R7 Frame(CFA_Y, -9)
        CFI R8 Frame(CFA_Y, -8)
        CFI R9 Frame(CFA_Y, -7)
        CFI R10 Frame(CFA_Y, -6)
        CFI R11 Frame(CFA_Y, -5)
        CFI R12 Frame(CFA_Y, -4)
        CFI R13 Frame(CFA_Y, -3)
        CFI R14 Frame(CFA_Y, -2)
        CFI R15 Frame(CFA_Y, -1)
        CFI CFA_SP SP+6
        CFI CFA_Y Y+34
        CFI Block cfiCond393 Using cfiCommon0
        CFI (cfiCond393) NoFunction
        CFI (cfiCond393) Conditional ??CrossCallReturnLabel_236
        CFI (cfiCond393) R24 Frame(CFA_Y, -16)
        CFI (cfiCond393) R25 Frame(CFA_Y, -15)
        CFI (cfiCond393) R26 Frame(CFA_Y, -14)
        CFI (cfiCond393) R27 Frame(CFA_Y, -13)
        CFI (cfiCond393) R4 Frame(CFA_Y, -12)
        CFI (cfiCond393) R5 Frame(CFA_Y, -11)
        CFI (cfiCond393) R6 Frame(CFA_Y, -10)
        CFI (cfiCond393) R7 Frame(CFA_Y, -9)
        CFI (cfiCond393) R8 Frame(CFA_Y, -8)
        CFI (cfiCond393) R9 Frame(CFA_Y, -7)
        CFI (cfiCond393) R10 Frame(CFA_Y, -6)
        CFI (cfiCond393) R11 Frame(CFA_Y, -5)
        CFI (cfiCond393) R12 Frame(CFA_Y, -4)
        CFI (cfiCond393) R13 Frame(CFA_Y, -3)
        CFI (cfiCond393) R14 Frame(CFA_Y, -2)
        CFI (cfiCond393) R15 Frame(CFA_Y, -1)
        CFI (cfiCond393) CFA_SP SP+6
        CFI (cfiCond393) CFA_Y Y+34
        CFI Block cfiPicker394 Using cfiCommon1
        CFI (cfiPicker394) NoFunction
        CFI (cfiPicker394) Picker
        LDI	R22, 0
        LDI	R23, 0
        LDI	R16, 60
        RJMP	?Subroutine112
        CFI EndBlock cfiCond392
        CFI EndBlock cfiCond393
        CFI EndBlock cfiPicker394

        RSEG FARCODE:CODE:NOROOT(1)
?Subroutine39:
        CFI Block cfiCond395 Using cfiCommon0
        CFI NoFunction
        CFI Conditional ??CrossCallReturnLabel_48
        CFI R24 Frame(CFA_Y, -3)
        CFI R25 Frame(CFA_Y, -2)
        CFI R26 Frame(CFA_Y, -1)
        CFI CFA_SP SP+6
        CFI CFA_Y Y+21
        CFI Block cfiCond396 Using cfiCommon0
        CFI (cfiCond396) NoFunction
        CFI (cfiCond396) Conditional ??CrossCallReturnLabel_47
        CFI (cfiCond396) R24 Frame(CFA_Y, -6)
        CFI (cfiCond396) R25 Frame(CFA_Y, -5)
        CFI (cfiCond396) R26 Frame(CFA_Y, -4)
        CFI (cfiCond396) R27 Frame(CFA_Y, -3)
        CFI (cfiCond396) R4 Frame(CFA_Y, -2)
        CFI (cfiCond396) R5 Frame(CFA_Y, -1)
        CFI (cfiCond396) CFA_SP SP+6
        CFI (cfiCond396) CFA_Y Y+28
        CFI Block cfiCond397 Using cfiCommon0
        CFI (cfiCond397) NoFunction
        CFI (cfiCond397) Conditional ??CrossCallReturnLabel_46
        CFI (cfiCond397) R24 Frame(CFA_Y, -16)
        CFI (cfiCond397) R25 Frame(CFA_Y, -15)
        CFI (cfiCond397) R26 Frame(CFA_Y, -14)
        CFI (cfiCond397) R27 Frame(CFA_Y, -13)
        CFI (cfiCond397) R4 Frame(CFA_Y, -12)
        CFI (cfiCond397) R5 Frame(CFA_Y, -11)
        CFI (cfiCond397) R6 Frame(CFA_Y, -10)
        CFI (cfiCond397) R7 Frame(CFA_Y, -9)
        CFI (cfiCond397) R8 Frame(CFA_Y, -8)
        CFI (cfiCond397) R9 Frame(CFA_Y, -7)
        CFI (cfiCond397) R10 Frame(CFA_Y, -6)
        CFI (cfiCond397) R11 Frame(CFA_Y, -5)
        CFI (cfiCond397) R12 Frame(CFA_Y, -4)
        CFI (cfiCond397) R13 Frame(CFA_Y, -3)
        CFI (cfiCond397) R14 Frame(CFA_Y, -2)
        CFI (cfiCond397) R15 Frame(CFA_Y, -1)
        CFI (cfiCond397) CFA_SP SP+6
        CFI (cfiCond397) CFA_Y Y+34
        CFI Block cfiCond398 Using cfiCommon0
        CFI (cfiCond398) NoFunction
        CFI (cfiCond398) Conditional ??CrossCallReturnLabel_45
        CFI (cfiCond398) R24 Frame(CFA_Y, -11)
        CFI (cfiCond398) R25 Frame(CFA_Y, -10)
        CFI (cfiCond398) R26 Frame(CFA_Y, -9)
        CFI (cfiCond398) R27 Frame(CFA_Y, -8)
        CFI (cfiCond398) R4 Frame(CFA_Y, -7)
        CFI (cfiCond398) R5 Frame(CFA_Y, -6)
        CFI (cfiCond398) R6 Frame(CFA_Y, -5)
        CFI (cfiCond398) R7 Frame(CFA_Y, -4)
        CFI (cfiCond398) R8 Frame(CFA_Y, -3)
        CFI (cfiCond398) R9 Frame(CFA_Y, -2)
        CFI (cfiCond398) R10 Frame(CFA_Y, -1)
        CFI (cfiCond398) CFA_SP SP+6
        CFI (cfiCond398) CFA_Y Y+29
        CFI Block cfiPicker399 Using cfiCommon1
        CFI (cfiPicker399) NoFunction
        CFI (cfiPicker399) Picker
        JMP	RdFromFleshToArr
        CFI EndBlock cfiCond395
        CFI EndBlock cfiCond396
        CFI EndBlock cfiCond397
        CFI EndBlock cfiCond398
        CFI EndBlock cfiPicker399

        RSEG FARCODE:CODE:NOROOT(1)
?Subroutine26:
        CFI Block cfiCond400 Using cfiCommon0
        CFI NoFunction
        CFI Conditional ??CrossCallReturnLabel_249
        CFI R24 Frame(CFA_Y, -16)
        CFI R25 Frame(CFA_Y, -15)
        CFI R26 Frame(CFA_Y, -14)
        CFI R27 Frame(CFA_Y, -13)
        CFI R4 Frame(CFA_Y, -12)
        CFI R5 Frame(CFA_Y, -11)
        CFI R6 Frame(CFA_Y, -10)
        CFI R7 Frame(CFA_Y, -9)
        CFI R8 Frame(CFA_Y, -8)
        CFI R9 Frame(CFA_Y, -7)
        CFI R10 Frame(CFA_Y, -6)
        CFI R11 Frame(CFA_Y, -5)
        CFI R12 Frame(CFA_Y, -4)
        CFI R13 Frame(CFA_Y, -3)
        CFI R14 Frame(CFA_Y, -2)
        CFI R15 Frame(CFA_Y, -1)
        CFI CFA_SP SP+6
        CFI CFA_Y Y+34
        CFI Block cfiCond401 Using cfiCommon0
        CFI (cfiCond401) NoFunction
        CFI (cfiCond401) Conditional ??CrossCallReturnLabel_250
        CFI (cfiCond401) R24 Frame(CFA_Y, -16)
        CFI (cfiCond401) R25 Frame(CFA_Y, -15)
        CFI (cfiCond401) R26 Frame(CFA_Y, -14)
        CFI (cfiCond401) R27 Frame(CFA_Y, -13)
        CFI (cfiCond401) R4 Frame(CFA_Y, -12)
        CFI (cfiCond401) R5 Frame(CFA_Y, -11)
        CFI (cfiCond401) R6 Frame(CFA_Y, -10)
        CFI (cfiCond401) R7 Frame(CFA_Y, -9)
        CFI (cfiCond401) R8 Frame(CFA_Y, -8)
        CFI (cfiCond401) R9 Frame(CFA_Y, -7)
        CFI (cfiCond401) R10 Frame(CFA_Y, -6)
        CFI (cfiCond401) R11 Frame(CFA_Y, -5)
        CFI (cfiCond401) R12 Frame(CFA_Y, -4)
        CFI (cfiCond401) R13 Frame(CFA_Y, -3)
        CFI (cfiCond401) R14 Frame(CFA_Y, -2)
        CFI (cfiCond401) R15 Frame(CFA_Y, -1)
        CFI (cfiCond401) CFA_SP SP+6
        CFI (cfiCond401) CFA_Y Y+34
        CFI Block cfiPicker402 Using cfiCommon1
        CFI (cfiPicker402) NoFunction
        CFI (cfiPicker402) Picker
        LD	R16, Z
        LDD	R17, Z+1
        LDD	R18, Z+2
        LDD	R19, Z+3
        RJMP	?Subroutine115
        CFI EndBlock cfiCond400
        CFI EndBlock cfiCond401
        CFI EndBlock cfiPicker402

        RSEG FARCODE:CODE:NOROOT(1)
?Subroutine25:
        CFI Block cfiCond403 Using cfiCommon0
        CFI NoFunction
        CFI Conditional ??CrossCallReturnLabel_255
        CFI R24 Frame(CFA_Y, -16)
        CFI R25 Frame(CFA_Y, -15)
        CFI R26 Frame(CFA_Y, -14)
        CFI R27 Frame(CFA_Y, -13)
        CFI R4 Frame(CFA_Y, -12)
        CFI R5 Frame(CFA_Y, -11)
        CFI R6 Frame(CFA_Y, -10)
        CFI R7 Frame(CFA_Y, -9)
        CFI R8 Frame(CFA_Y, -8)
        CFI R9 Frame(CFA_Y, -7)
        CFI R10 Frame(CFA_Y, -6)
        CFI R11 Frame(CFA_Y, -5)
        CFI R12 Frame(CFA_Y, -4)
        CFI R13 Frame(CFA_Y, -3)
        CFI R14 Frame(CFA_Y, -2)
        CFI R15 Frame(CFA_Y, -1)
        CFI CFA_SP SP+6
        CFI CFA_Y Y+34
        CFI Block cfiCond404 Using cfiCommon0
        CFI (cfiCond404) NoFunction
        CFI (cfiCond404) Conditional ??CrossCallReturnLabel_257
        CFI (cfiCond404) R24 Frame(CFA_Y, -16)
        CFI (cfiCond404) R25 Frame(CFA_Y, -15)
        CFI (cfiCond404) R26 Frame(CFA_Y, -14)
        CFI (cfiCond404) R27 Frame(CFA_Y, -13)
        CFI (cfiCond404) R4 Frame(CFA_Y, -12)
        CFI (cfiCond404) R5 Frame(CFA_Y, -11)
        CFI (cfiCond404) R6 Frame(CFA_Y, -10)
        CFI (cfiCond404) R7 Frame(CFA_Y, -9)
        CFI (cfiCond404) R8 Frame(CFA_Y, -8)
        CFI (cfiCond404) R9 Frame(CFA_Y, -7)
        CFI (cfiCond404) R10 Frame(CFA_Y, -6)
        CFI (cfiCond404) R11 Frame(CFA_Y, -5)
        CFI (cfiCond404) R12 Frame(CFA_Y, -4)
        CFI (cfiCond404) R13 Frame(CFA_Y, -3)
        CFI (cfiCond404) R14 Frame(CFA_Y, -2)
        CFI (cfiCond404) R15 Frame(CFA_Y, -1)
        CFI (cfiCond404) CFA_SP SP+6
        CFI (cfiCond404) CFA_Y Y+34
        CFI Block cfiPicker405 Using cfiCommon1
        CFI (cfiPicker405) NoFunction
        CFI (cfiPicker405) Picker
        ADD	R24, R11
        CFI Block cfiCond406 Using cfiCommon0
        CFI (cfiCond406) NoFunction
        CFI (cfiCond406) Conditional ??CrossCallReturnLabel_256
        CFI (cfiCond406) R24 Frame(CFA_Y, -16)
        CFI (cfiCond406) R25 Frame(CFA_Y, -15)
        CFI (cfiCond406) R26 Frame(CFA_Y, -14)
        CFI (cfiCond406) R27 Frame(CFA_Y, -13)
        CFI (cfiCond406) R4 Frame(CFA_Y, -12)
        CFI (cfiCond406) R5 Frame(CFA_Y, -11)
        CFI (cfiCond406) R6 Frame(CFA_Y, -10)
        CFI (cfiCond406) R7 Frame(CFA_Y, -9)
        CFI (cfiCond406) R8 Frame(CFA_Y, -8)
        CFI (cfiCond406) R9 Frame(CFA_Y, -7)
        CFI (cfiCond406) R10 Frame(CFA_Y, -6)
        CFI (cfiCond406) R11 Frame(CFA_Y, -5)
        CFI (cfiCond406) R12 Frame(CFA_Y, -4)
        CFI (cfiCond406) R13 Frame(CFA_Y, -3)
        CFI (cfiCond406) R14 Frame(CFA_Y, -2)
        CFI (cfiCond406) R15 Frame(CFA_Y, -1)
        CFI (cfiCond406) CFA_SP SP+6
        CFI (cfiCond406) CFA_Y Y+34
??Subroutine25_0:
        ADC	R25, R5
        MOVW	R31:R30, R25:R24
        LD	R16, Z
        LDD	R17, Z+1
        CFI EndBlock cfiCond403
        CFI EndBlock cfiCond404
        CFI EndBlock cfiPicker405
        CFI EndBlock cfiCond406
        REQUIRE ?Subroutine117
        ;		// Fall through to label ?Subroutine117

        RSEG FARCODE:CODE:NOROOT(1)
?Subroutine117:
        CFI Block cfiCond407 Using cfiCommon0
        CFI NoFunction
        CFI Conditional ??CrossCallReturnLabel_255
        CFI R24 Frame(CFA_Y, -16)
        CFI R25 Frame(CFA_Y, -15)
        CFI R26 Frame(CFA_Y, -14)
        CFI R27 Frame(CFA_Y, -13)
        CFI R4 Frame(CFA_Y, -12)
        CFI R5 Frame(CFA_Y, -11)
        CFI R6 Frame(CFA_Y, -10)
        CFI R7 Frame(CFA_Y, -9)
        CFI R8 Frame(CFA_Y, -8)
        CFI R9 Frame(CFA_Y, -7)
        CFI R10 Frame(CFA_Y, -6)
        CFI R11 Frame(CFA_Y, -5)
        CFI R12 Frame(CFA_Y, -4)
        CFI R13 Frame(CFA_Y, -3)
        CFI R14 Frame(CFA_Y, -2)
        CFI R15 Frame(CFA_Y, -1)
        CFI CFA_SP SP+6
        CFI CFA_Y Y+34
        CFI Block cfiCond408 Using cfiCommon0
        CFI (cfiCond408) NoFunction
        CFI (cfiCond408) Conditional ??CrossCallReturnLabel_257
        CFI (cfiCond408) R24 Frame(CFA_Y, -16)
        CFI (cfiCond408) R25 Frame(CFA_Y, -15)
        CFI (cfiCond408) R26 Frame(CFA_Y, -14)
        CFI (cfiCond408) R27 Frame(CFA_Y, -13)
        CFI (cfiCond408) R4 Frame(CFA_Y, -12)
        CFI (cfiCond408) R5 Frame(CFA_Y, -11)
        CFI (cfiCond408) R6 Frame(CFA_Y, -10)
        CFI (cfiCond408) R7 Frame(CFA_Y, -9)
        CFI (cfiCond408) R8 Frame(CFA_Y, -8)
        CFI (cfiCond408) R9 Frame(CFA_Y, -7)
        CFI (cfiCond408) R10 Frame(CFA_Y, -6)
        CFI (cfiCond408) R11 Frame(CFA_Y, -5)
        CFI (cfiCond408) R12 Frame(CFA_Y, -4)
        CFI (cfiCond408) R13 Frame(CFA_Y, -3)
        CFI (cfiCond408) R14 Frame(CFA_Y, -2)
        CFI (cfiCond408) R15 Frame(CFA_Y, -1)
        CFI (cfiCond408) CFA_SP SP+6
        CFI (cfiCond408) CFA_Y Y+34
        CFI Block cfiCond409 Using cfiCommon0
        CFI (cfiCond409) NoFunction
        CFI (cfiCond409) Conditional ??CrossCallReturnLabel_256
        CFI (cfiCond409) R24 Frame(CFA_Y, -16)
        CFI (cfiCond409) R25 Frame(CFA_Y, -15)
        CFI (cfiCond409) R26 Frame(CFA_Y, -14)
        CFI (cfiCond409) R27 Frame(CFA_Y, -13)
        CFI (cfiCond409) R4 Frame(CFA_Y, -12)
        CFI (cfiCond409) R5 Frame(CFA_Y, -11)
        CFI (cfiCond409) R6 Frame(CFA_Y, -10)
        CFI (cfiCond409) R7 Frame(CFA_Y, -9)
        CFI (cfiCond409) R8 Frame(CFA_Y, -8)
        CFI (cfiCond409) R9 Frame(CFA_Y, -7)
        CFI (cfiCond409) R10 Frame(CFA_Y, -6)
        CFI (cfiCond409) R11 Frame(CFA_Y, -5)
        CFI (cfiCond409) R12 Frame(CFA_Y, -4)
        CFI (cfiCond409) R13 Frame(CFA_Y, -3)
        CFI (cfiCond409) R14 Frame(CFA_Y, -2)
        CFI (cfiCond409) R15 Frame(CFA_Y, -1)
        CFI (cfiCond409) CFA_SP SP+6
        CFI (cfiCond409) CFA_Y Y+34
        CFI Block cfiCond410 Using cfiCommon0
        CFI (cfiCond410) NoFunction
        CFI (cfiCond410) Conditional ??CrossCallReturnLabel_258
        CFI (cfiCond410) R24 Frame(CFA_Y, -9)
        CFI (cfiCond410) R25 Frame(CFA_Y, -8)
        CFI (cfiCond410) R26 Frame(CFA_Y, -7)
        CFI (cfiCond410) R27 Frame(CFA_Y, -6)
        CFI (cfiCond410) R4 Frame(CFA_Y, -5)
        CFI (cfiCond410) R5 Frame(CFA_Y, -4)
        CFI (cfiCond410) R6 Frame(CFA_Y, -3)
        CFI (cfiCond410) R7 Frame(CFA_Y, -2)
        CFI (cfiCond410) R8 Frame(CFA_Y, -1)
        CFI (cfiCond410) CFA_SP SP+6
        CFI (cfiCond410) CFA_Y Y+9
        CFI Block cfiCond411 Using cfiCommon0
        CFI (cfiCond411) NoFunction
        CFI (cfiCond411) Conditional ??CrossCallReturnLabel_259
        CFI (cfiCond411) R24 Frame(CFA_Y, -9)
        CFI (cfiCond411) R25 Frame(CFA_Y, -8)
        CFI (cfiCond411) R26 Frame(CFA_Y, -7)
        CFI (cfiCond411) R27 Frame(CFA_Y, -6)
        CFI (cfiCond411) R4 Frame(CFA_Y, -5)
        CFI (cfiCond411) R5 Frame(CFA_Y, -4)
        CFI (cfiCond411) R6 Frame(CFA_Y, -3)
        CFI (cfiCond411) R7 Frame(CFA_Y, -2)
        CFI (cfiCond411) R8 Frame(CFA_Y, -1)
        CFI (cfiCond411) CFA_SP SP+6
        CFI (cfiCond411) CFA_Y Y+9
        CFI Block cfiPicker412 Using cfiCommon1
        CFI (cfiPicker412) NoFunction
        CFI (cfiPicker412) Picker
        OR	R16, R17
        RET
        CFI EndBlock cfiCond407
        CFI EndBlock cfiCond408
        CFI EndBlock cfiCond409
        CFI EndBlock cfiCond410
        CFI EndBlock cfiCond411
        CFI EndBlock cfiPicker412

        RSEG FARCODE:CODE:NOROOT(1)
?Subroutine23:
        CFI Block cfiCond413 Using cfiCommon0
        CFI NoFunction
        CFI Conditional ??CrossCallReturnLabel_213
        CFI R24 Frame(CFA_Y, -2)
        CFI R25 Frame(CFA_Y, -1)
        CFI CFA_SP SP+6
        CFI CFA_Y Y+16
        CFI Block cfiCond414 Using cfiCommon0
        CFI (cfiCond414) NoFunction
        CFI (cfiCond414) Conditional ??CrossCallReturnLabel_214
        CFI (cfiCond414) R24 Frame(CFA_Y, -16)
        CFI (cfiCond414) R25 Frame(CFA_Y, -15)
        CFI (cfiCond414) R26 Frame(CFA_Y, -14)
        CFI (cfiCond414) R27 Frame(CFA_Y, -13)
        CFI (cfiCond414) R4 Frame(CFA_Y, -12)
        CFI (cfiCond414) R5 Frame(CFA_Y, -11)
        CFI (cfiCond414) R6 Frame(CFA_Y, -10)
        CFI (cfiCond414) R7 Frame(CFA_Y, -9)
        CFI (cfiCond414) R8 Frame(CFA_Y, -8)
        CFI (cfiCond414) R9 Frame(CFA_Y, -7)
        CFI (cfiCond414) R10 Frame(CFA_Y, -6)
        CFI (cfiCond414) R11 Frame(CFA_Y, -5)
        CFI (cfiCond414) R12 Frame(CFA_Y, -4)
        CFI (cfiCond414) R13 Frame(CFA_Y, -3)
        CFI (cfiCond414) R14 Frame(CFA_Y, -2)
        CFI (cfiCond414) R15 Frame(CFA_Y, -1)
        CFI (cfiCond414) CFA_SP SP+6
        CFI (cfiCond414) CFA_Y Y+34
        CFI Block cfiPicker415 Using cfiCommon1
        CFI (cfiPicker415) NoFunction
        CFI (cfiPicker415) Picker
        LDI	R30, LOW(unix)
        LDI	R31, (unix) >> 8
        RJMP	?Subroutine106
        CFI EndBlock cfiCond413
        CFI EndBlock cfiCond414
        CFI EndBlock cfiPicker415

        RSEG FARCODE:CODE:NOROOT(1)
?Subroutine14:
        CFI Block cfiCond416 Using cfiCommon0
        CFI NoFunction
        CFI Conditional ??CrossCallReturnLabel_281
        CFI R24 Frame(CFA_Y, -16)
        CFI R25 Frame(CFA_Y, -15)
        CFI R26 Frame(CFA_Y, -14)
        CFI R27 Frame(CFA_Y, -13)
        CFI R4 Frame(CFA_Y, -12)
        CFI R5 Frame(CFA_Y, -11)
        CFI R6 Frame(CFA_Y, -10)
        CFI R7 Frame(CFA_Y, -9)
        CFI R8 Frame(CFA_Y, -8)
        CFI R9 Frame(CFA_Y, -7)
        CFI R10 Frame(CFA_Y, -6)
        CFI R11 Frame(CFA_Y, -5)
        CFI R12 Frame(CFA_Y, -4)
        CFI R13 Frame(CFA_Y, -3)
        CFI R14 Frame(CFA_Y, -2)
        CFI R15 Frame(CFA_Y, -1)
        CFI CFA_SP SP+6
        CFI CFA_Y Y+34
        CFI Block cfiCond417 Using cfiCommon0
        CFI (cfiCond417) NoFunction
        CFI (cfiCond417) Conditional ??CrossCallReturnLabel_282
        CFI (cfiCond417) R24 Frame(CFA_Y, -16)
        CFI (cfiCond417) R25 Frame(CFA_Y, -15)
        CFI (cfiCond417) R26 Frame(CFA_Y, -14)
        CFI (cfiCond417) R27 Frame(CFA_Y, -13)
        CFI (cfiCond417) R4 Frame(CFA_Y, -12)
        CFI (cfiCond417) R5 Frame(CFA_Y, -11)
        CFI (cfiCond417) R6 Frame(CFA_Y, -10)
        CFI (cfiCond417) R7 Frame(CFA_Y, -9)
        CFI (cfiCond417) R8 Frame(CFA_Y, -8)
        CFI (cfiCond417) R9 Frame(CFA_Y, -7)
        CFI (cfiCond417) R10 Frame(CFA_Y, -6)
        CFI (cfiCond417) R11 Frame(CFA_Y, -5)
        CFI (cfiCond417) R12 Frame(CFA_Y, -4)
        CFI (cfiCond417) R13 Frame(CFA_Y, -3)
        CFI (cfiCond417) R14 Frame(CFA_Y, -2)
        CFI (cfiCond417) R15 Frame(CFA_Y, -1)
        CFI (cfiCond417) CFA_SP SP+6
        CFI (cfiCond417) CFA_Y Y+34
        CFI Block cfiPicker418 Using cfiCommon1
        CFI (cfiPicker418) NoFunction
        CFI (cfiPicker418) Picker
        LDI	R18, 0
        RJMP	?Subroutine123
        CFI EndBlock cfiCond416
        CFI EndBlock cfiCond417
        CFI EndBlock cfiPicker418
// 1898 
// 1899 
// 1900 // процедуры ГЗУ 
// 1901 
// 1902 
// 1903 
// 1904 /////////////////////////////////////////////***********************
// 1905 // пытаемся найти архивную запись с заданными параметрами в стеке архивов 

        RSEG FARCODE:CODE:NOROOT(1)
// 1906 char try_find_arhiv(unsigned long int matrix,char m)  
try_find_arhiv:
        CFI Block cfiBlock419 Using cfiCommon0
        CFI Function try_find_arhiv
// 1907 {
        FUNCALL try_find_arhiv, RdFromFleshToArr
        LOCFRAME CSTACK, 29, STACK
        LOCFRAME RSTACK, 3, STACK
        FUNCALL try_find_arhiv, crc_sum
        LOCFRAME CSTACK, 29, STACK
        LOCFRAME RSTACK, 3, STACK
        CALL	?PROLOGUE11_L09
        CFI R10 Frame(CFA_Y, -1)
        CFI R9 Frame(CFA_Y, -2)
        CFI R8 Frame(CFA_Y, -3)
        CFI R7 Frame(CFA_Y, -4)
        CFI R6 Frame(CFA_Y, -5)
        CFI R5 Frame(CFA_Y, -6)
        CFI R4 Frame(CFA_Y, -7)
        CFI R27 Frame(CFA_Y, -8)
        CFI R26 Frame(CFA_Y, -9)
        CFI R25 Frame(CFA_Y, -10)
        CFI R24 Frame(CFA_Y, -11)
        CFI CFA_Y Y+11
        REQUIRE	?Register_R4_is_cg_reg
        REQUIRE	?Register_R5_is_cg_reg
        REQUIRE	?Register_R6_is_cg_reg
        REQUIRE	?Register_R7_is_cg_reg
        REQUIRE	?Register_R10_is_cg_reg
        SBIW	R29:R28, 18
        CFI CFA_Y Y+29
        MOVW	R25:R24, R17:R16
        MOVW	R27:R26, R19:R18
        MOV	R10, R20
// 1908   
// 1909  unsigned char tek_ind,i;
// 1910   union
// 1911    {     
// 1912    unsigned long int unix;
// 1913    char st[4]; 
// 1914    } tik;
// 1915   
// 1916   unsigned char zapiska[14];
// 1917    
// 1918     tek_ind=modbus_mem1[AD_IND_DNS]; // текущий индекс архива
        LDS	R4, (modbus_mem1 + 64)
// 1919     if(tek_ind==0) tek_ind=99; // берем предыдущий
        RCALL	?Subroutine102
// 1920     else tek_ind--;
// 1921     
// 1922     for (i=0; i < 16;i++) {
??CrossCallReturnLabel_192:
        CLR	R5
// 1923                        /*
// 1924                        p_sys1=( char *) & zapiska[0];// point to arr zapis
// 1925                        sys1= STRUCT_TII_HEAP + (int)tek_ind*14;
// 1926                        
// 1927                        sys2=12;  
// 1928                        sys3=sys1+12; 
// 1929               
// 1930                        w_result(22);
// 1931                        */
// 1932       
// 1933                        RdFromFleshToArr(STRUCT_TII_HEAP + (int)tek_ind*14,&zapiska[0],14); 
??try_find_arhiv_0:
        LDI	R21, 0
        MOVW	R19:R18, R29:R28
        SUBI	R18, 252
        SBCI	R19, 255
        MOV	R20, R4
        RCALL	?Subroutine36
??CrossCallReturnLabel_40:
        LDI	R20, 14
        RCALL	?Subroutine39
// 1934                        if((*(int*)&zapiska[12])==crc_sum(&zapiska[0],12))
??CrossCallReturnLabel_45:
        LDD	R6, Y+16
        LDD	R7, Y+17
        RCALL	?Subroutine42
??CrossCallReturnLabel_261:
        CP	R6, R16
        CPC	R7, R17
        BRNE	??try_find_arhiv_1
// 1935                        // if (ret_cod==0)
// 1936                                         {     
// 1937                                         tik.st[0]=zapiska[0];
        RCALL	?Subroutine28
// 1938                                           tik.st[1]=zapiska[1];
// 1939                                            tik.st[2]=zapiska[2];
// 1940                                            tik.st[3]=zapiska[3];
// 1941                                       
// 1942                                          if( ( matrix== tik.unix) && (zapiska[10]==m) )  return(1); // есть такая запись !
??CrossCallReturnLabel_34:
        RCALL	?Subroutine90
??CrossCallReturnLabel_163:
        CP	R24, R16
        CPC	R25, R17
        CPC	R26, R18
        CPC	R27, R19
        BRNE	??try_find_arhiv_1
        LDD	R16, Y+14
        CP	R16, R10
        BRNE	??try_find_arhiv_1
        LDI	R16, 1
        RJMP	??try_find_arhiv_2
// 1943                                                                       
// 1944                                         }  
// 1945                                             
// 1946                                            
// 1947                         if(tek_ind==0) tek_ind=99; // берем предыдущий
??try_find_arhiv_1:
        RCALL	?Subroutine102
// 1948                         else tek_ind--;               
// 1949                        
// 1950                        
// 1951                        
// 1952                        
// 1953                        
// 1954                        } // цикл for
??CrossCallReturnLabel_193:
        INC	R5
        LDI	R16, 16
        CP	R5, R16
        BRCS	??try_find_arhiv_0
// 1955                        
// 1956                  return(0);  // не нашли записи
        LDI	R16, 0
??try_find_arhiv_2:
        ADIW	R29:R28, 18
        CFI CFA_Y Y+11
        LDI	R30, 11
        JMP	?EPILOGUE_B11_L09
        CFI EndBlock cfiBlock419
// 1957 }

        RSEG FARCODE:CODE:NOROOT(1)
?Subroutine102:
        CFI Block cfiCond420 Using cfiCommon0
        CFI NoFunction
        CFI Conditional ??CrossCallReturnLabel_192
        CFI R24 Frame(CFA_Y, -11)
        CFI R25 Frame(CFA_Y, -10)
        CFI R26 Frame(CFA_Y, -9)
        CFI R27 Frame(CFA_Y, -8)
        CFI R4 Frame(CFA_Y, -7)
        CFI R5 Frame(CFA_Y, -6)
        CFI R6 Frame(CFA_Y, -5)
        CFI R7 Frame(CFA_Y, -4)
        CFI R8 Frame(CFA_Y, -3)
        CFI R9 Frame(CFA_Y, -2)
        CFI R10 Frame(CFA_Y, -1)
        CFI CFA_SP SP+6
        CFI CFA_Y Y+29
        CFI Block cfiCond421 Using cfiCommon0
        CFI (cfiCond421) NoFunction
        CFI (cfiCond421) Conditional ??CrossCallReturnLabel_193
        CFI (cfiCond421) R24 Frame(CFA_Y, -11)
        CFI (cfiCond421) R25 Frame(CFA_Y, -10)
        CFI (cfiCond421) R26 Frame(CFA_Y, -9)
        CFI (cfiCond421) R27 Frame(CFA_Y, -8)
        CFI (cfiCond421) R4 Frame(CFA_Y, -7)
        CFI (cfiCond421) R5 Frame(CFA_Y, -6)
        CFI (cfiCond421) R6 Frame(CFA_Y, -5)
        CFI (cfiCond421) R7 Frame(CFA_Y, -4)
        CFI (cfiCond421) R8 Frame(CFA_Y, -3)
        CFI (cfiCond421) R9 Frame(CFA_Y, -2)
        CFI (cfiCond421) R10 Frame(CFA_Y, -1)
        CFI (cfiCond421) CFA_SP SP+6
        CFI (cfiCond421) CFA_Y Y+29
        CFI Block cfiPicker422 Using cfiCommon1
        CFI (cfiPicker422) NoFunction
        CFI (cfiPicker422) Picker
        TST	R4
        BRNE	??Subroutine102_0
        LDI	R16, 99
        MOV	R4, R16
        RET
??Subroutine102_0:
        DEC	R4
        RET
        CFI EndBlock cfiCond420
        CFI EndBlock cfiCond421
        CFI EndBlock cfiPicker422

        RSEG FARCODE:CODE:NOROOT(1)
?Subroutine36:
        CFI Block cfiCond423 Using cfiCommon0
        CFI NoFunction
        CFI Conditional ??CrossCallReturnLabel_39
        CFI R24 Frame(CFA_Y, -6)
        CFI R25 Frame(CFA_Y, -5)
        CFI R26 Frame(CFA_Y, -4)
        CFI R27 Frame(CFA_Y, -3)
        CFI R4 Frame(CFA_Y, -2)
        CFI R5 Frame(CFA_Y, -1)
        CFI CFA_SP SP+6
        CFI CFA_Y Y+28
        CFI Block cfiCond424 Using cfiCommon0
        CFI (cfiCond424) NoFunction
        CFI (cfiCond424) Conditional ??CrossCallReturnLabel_40
        CFI (cfiCond424) R24 Frame(CFA_Y, -11)
        CFI (cfiCond424) R25 Frame(CFA_Y, -10)
        CFI (cfiCond424) R26 Frame(CFA_Y, -9)
        CFI (cfiCond424) R27 Frame(CFA_Y, -8)
        CFI (cfiCond424) R4 Frame(CFA_Y, -7)
        CFI (cfiCond424) R5 Frame(CFA_Y, -6)
        CFI (cfiCond424) R6 Frame(CFA_Y, -5)
        CFI (cfiCond424) R7 Frame(CFA_Y, -4)
        CFI (cfiCond424) R8 Frame(CFA_Y, -3)
        CFI (cfiCond424) R9 Frame(CFA_Y, -2)
        CFI (cfiCond424) R10 Frame(CFA_Y, -1)
        CFI (cfiCond424) CFA_SP SP+6
        CFI (cfiCond424) CFA_Y Y+29
        CFI Block cfiPicker425 Using cfiCommon1
        CFI (cfiPicker425) NoFunction
        CFI (cfiPicker425) Picker
        LDI	R16, 14
        LDI	R17, 0
        CALL	?S_EC_MUL_L02
        SUBI	R17, 160
        RET
        CFI EndBlock cfiCond423
        CFI EndBlock cfiCond424
        CFI EndBlock cfiPicker425

        RSEG FARCODE:CODE:NOROOT(1)
?Subroutine28:
        CFI Block cfiCond426 Using cfiCommon0
        CFI NoFunction
        CFI Conditional ??CrossCallReturnLabel_33
        CFI R24 Frame(CFA_Y, -16)
        CFI R25 Frame(CFA_Y, -15)
        CFI R26 Frame(CFA_Y, -14)
        CFI R27 Frame(CFA_Y, -13)
        CFI R4 Frame(CFA_Y, -12)
        CFI R5 Frame(CFA_Y, -11)
        CFI R6 Frame(CFA_Y, -10)
        CFI R7 Frame(CFA_Y, -9)
        CFI R8 Frame(CFA_Y, -8)
        CFI R9 Frame(CFA_Y, -7)
        CFI R10 Frame(CFA_Y, -6)
        CFI R11 Frame(CFA_Y, -5)
        CFI R12 Frame(CFA_Y, -4)
        CFI R13 Frame(CFA_Y, -3)
        CFI R14 Frame(CFA_Y, -2)
        CFI R15 Frame(CFA_Y, -1)
        CFI CFA_SP SP+6
        CFI CFA_Y Y+34
        CFI Block cfiCond427 Using cfiCommon0
        CFI (cfiCond427) NoFunction
        CFI (cfiCond427) Conditional ??CrossCallReturnLabel_34
        CFI (cfiCond427) R24 Frame(CFA_Y, -11)
        CFI (cfiCond427) R25 Frame(CFA_Y, -10)
        CFI (cfiCond427) R26 Frame(CFA_Y, -9)
        CFI (cfiCond427) R27 Frame(CFA_Y, -8)
        CFI (cfiCond427) R4 Frame(CFA_Y, -7)
        CFI (cfiCond427) R5 Frame(CFA_Y, -6)
        CFI (cfiCond427) R6 Frame(CFA_Y, -5)
        CFI (cfiCond427) R7 Frame(CFA_Y, -4)
        CFI (cfiCond427) R8 Frame(CFA_Y, -3)
        CFI (cfiCond427) R9 Frame(CFA_Y, -2)
        CFI (cfiCond427) R10 Frame(CFA_Y, -1)
        CFI (cfiCond427) CFA_SP SP+6
        CFI (cfiCond427) CFA_Y Y+29
        CFI Block cfiPicker428 Using cfiCommon1
        CFI (cfiPicker428) NoFunction
        CFI (cfiPicker428) Picker
        LDD	R16, Y+4
        ST	Y, R16
        LDD	R16, Y+5
        STD	Y+1, R16
        LDD	R16, Y+6
        STD	Y+2, R16
        LDD	R16, Y+7
        STD	Y+3, R16
        RET
        CFI EndBlock cfiCond426
        CFI EndBlock cfiCond427
        CFI EndBlock cfiPicker428
// 1958   
// 1959 // попытаться сформировать архивы, которые не сформировались по причине пропадания питания, по последним минутным замерам  
// 1960 //////////////////
// 1961 // прочитать сначала архивы на предмет действительности

        RSEG FARCODE:CODE:NOROOT(1)
// 1962  char try_form_arhiv(char m)  // 
try_form_arhiv:
        CFI Block cfiBlock429 Using cfiCommon0
        CFI Function try_form_arhiv
// 1963  {
        FUNCALL try_form_arhiv, RdFromFleshToArr
        LOCFRAME CSTACK, 26, STACK
        LOCFRAME RSTACK, 3, STACK
        FUNCALL try_form_arhiv, crc_sum
        LOCFRAME CSTACK, 26, STACK
        LOCFRAME RSTACK, 3, STACK
        FUNCALL try_form_arhiv, try_find_arhiv
        LOCFRAME CSTACK, 26, STACK
        LOCFRAME RSTACK, 3, STACK
        FUNCALL try_form_arhiv, WrArrayToFlesh
        LOCFRAME CSTACK, 26, STACK
        LOCFRAME RSTACK, 3, STACK
        FUNCALL try_form_arhiv, WrArrayToFlesh
        LOCFRAME CSTACK, 26, STACK
        LOCFRAME RSTACK, 3, STACK
        CALL	?PROLOGUE5_L09
        CFI R4 Frame(CFA_Y, -1)
        CFI R27 Frame(CFA_Y, -2)
        CFI R26 Frame(CFA_Y, -3)
        CFI R25 Frame(CFA_Y, -4)
        CFI R24 Frame(CFA_Y, -5)
        CFI CFA_Y Y+5
        REQUIRE	?Register_R4_is_cg_reg
        SBIW	R29:R28, 18
        CFI CFA_Y Y+23
        MOV	R4, R16
// 1964  
// 1965 
// 1966  
// 1967   union
// 1968    {     
// 1969    unsigned long int unix;
// 1970    char st[4]; 
// 1971    } tik;
// 1972   
// 1973   unsigned char zapis[14],i;
// 1974    
// 1975                /*
// 1976                        p_sys1=( char *) & zapis[0];// point to arr zapis
// 1977                 sys1= STRUCT_TII + (int)m*0x100 + (int)arr_cnt_tii[m]*14;
// 1978                        
// 1979                        sys2=12;  
// 1980                        sys3=sys1+12; 
// 1981             // system_zap=22;   
// 1982                        w_result(22);
// 1983                  */      
// 1984                        RdFromFleshToArr(STRUCT_TII+m*14,&zapis[0],14);
        RCALL	?Subroutine31
// 1985                      
// 1986             //  если возвратило 0- значит правильно считали
// 1987             
// 1988                        // считали правидьно
// 1989                         if((*(int*)&zapis[12])==crc_sum(&zapis[0],12))   
??CrossCallReturnLabel_38:
        BRNE	??CrossCallReturnLabel_270
// 1990                       // if (ret_cod==0)
// 1991                                         {     
// 1992                                         tik.st[0]=zapis[0];
        RCALL	?Subroutine27
// 1993                                           tik.st[1]=zapis[1];
// 1994                                            tik.st[2]=zapis[2];
// 1995                                            tik.st[3]=zapis[3];
// 1996                                       
// 1997                                           if( timer_tii[m] > tik.unix)   // это просроченный минутный архив
??CrossCallReturnLabel_222:
        BRCC	??CrossCallReturnLabel_270
// 1998                                                                       {
// 1999                                                                  if( try_find_arhiv(tik.unix,m)==1) return(1);   // пытаюсь найти в стеке архивов запись с этим временем
        MOV	R20, R4
        RCALL	try_find_arhiv
        CPI	R16, 1
        BRNE	??try_form_arhiv_0
        LDI	R16, 1
        RJMP	??try_form_arhiv_1
// 2000                                                                       // не нашли архив,
// 2001                                                                       // последний минутный архив записать в общую кучу
// 2002                                                                       // это будет принудительно сфорировааный архив
// 2003                                                                  /*
// 2004                 p_sys1=( char *) & zapis[0];// point to arr zapis
// 2005                 sys1= STRUCT_TII_HEAP + (int)arr_cnt_tii_heap*14;
// 2006              sys2=12;  
// 2007              sys3=sys1+12; 
// 2008             // system_zap=24;  
// 2009             w_result(24);
// 2010             
// 2011             arr_cnt_tii_heap++; 
// 2012             if ( arr_cnt_tii_heap >99) {arr_cnt_tii_heap=0;arr_cnt_tii_heap_modbus=99;}
// 2013                                          else arr_cnt_tii_heap_modbus=arr_cnt_tii_heap-1;
// 2014                      
// 2015            
// 2016            
// 2017            write_ext_flesh( CNT_TII,arr_cnt_tii_heap);
// 2018            */
// 2019           ///////////////////////////
// 2020            WrArrayToFlesh(STRUCT_TII_HEAP + (int)modbus_mem1[AD_IND_DNS]*14,&zapis[0],14,0,0);      
??try_form_arhiv_0:
        RCALL	?Subroutine44
??CrossCallReturnLabel_55:
        SUBI	R18, 252
        RCALL	?Subroutine3
// 2021      modbus_mem1[AD_IND_DNS]++;
// 2022      if ( modbus_mem1[AD_IND_DNS] >99 ) {modbus_mem1[AD_IND_DNS]=0;}          
// 2023      i=modbus_mem1[AD_IND_DNS];     
// 2024      WrArrayToFlesh(A_IND_DNS,0,1,1,i);
// 2025               
// 2026                                                                       
// 2027                                                                       
// 2028                                                                       }
// 2029                                                                                      
// 2030                                           
// 2031                                          
// 2032                                           }
// 2033                      
// 2034 return(0);                                                       
??CrossCallReturnLabel_270:
        LDI	R16, 0
??try_form_arhiv_1:
        ADIW	R29:R28, 18
        CFI CFA_Y Y+5
        RJMP	?Subroutine121
        CFI EndBlock cfiBlock429
// 2035 /////////////////////////////////
// 2036 }                  

        RSEG FARCODE:CODE:NOROOT(1)
?Subroutine31:
        CFI Block cfiCond430 Using cfiCommon0
        CFI NoFunction
        CFI Conditional ??CrossCallReturnLabel_37
        CFI R24 Frame(CFA_Y, -4)
        CFI R25 Frame(CFA_Y, -3)
        CFI R26 Frame(CFA_Y, -2)
        CFI R27 Frame(CFA_Y, -1)
        CFI CFA_SP SP+6
        CFI CFA_Y Y+22
        CFI Block cfiCond431 Using cfiCommon0
        CFI (cfiCond431) NoFunction
        CFI (cfiCond431) Conditional ??CrossCallReturnLabel_38
        CFI (cfiCond431) R24 Frame(CFA_Y, -5)
        CFI (cfiCond431) R25 Frame(CFA_Y, -4)
        CFI (cfiCond431) R26 Frame(CFA_Y, -3)
        CFI (cfiCond431) R27 Frame(CFA_Y, -2)
        CFI (cfiCond431) R4 Frame(CFA_Y, -1)
        CFI (cfiCond431) CFA_SP SP+6
        CFI (cfiCond431) CFA_Y Y+23
        CFI Block cfiPicker432 Using cfiCommon1
        CFI (cfiPicker432) NoFunction
        CFI (cfiPicker432) Picker
        MOV	R26, R16
        LDI	R27, 0
        MOVW	R19:R18, R29:R28
        SUBI	R18, 252
        SBCI	R19, 255
        MOVW	R21:R20, R27:R26
        LDI	R16, 14
        LDI	R17, 0
        CALL	?S_EC_MUL_L02
        SUBI	R17, 144
        LDI	R20, 14
        CALL	RdFromFleshToArr
        LDD	R24, Y+16
        LDD	R25, Y+17
        LDI	R18, 12
        MOVW	R17:R16, R29:R28
        SUBI	R16, 252
        SBCI	R17, 255
        RCALL	crc_sum
        CP	R24, R16
        CPC	R25, R17
        RET
        CFI EndBlock cfiCond430
        CFI EndBlock cfiCond431
        CFI EndBlock cfiPicker432

        RSEG FARCODE:CODE:NOROOT(1)
?Subroutine27:
        CFI Block cfiCond433 Using cfiCommon0
        CFI NoFunction
        CFI Conditional ??CrossCallReturnLabel_221
        CFI R24 Frame(CFA_Y, -4)
        CFI R25 Frame(CFA_Y, -3)
        CFI R26 Frame(CFA_Y, -2)
        CFI R27 Frame(CFA_Y, -1)
        CFI CFA_SP SP+6
        CFI CFA_Y Y+22
        CFI Block cfiCond434 Using cfiCommon0
        CFI (cfiCond434) NoFunction
        CFI (cfiCond434) Conditional ??CrossCallReturnLabel_222
        CFI (cfiCond434) R24 Frame(CFA_Y, -5)
        CFI (cfiCond434) R25 Frame(CFA_Y, -4)
        CFI (cfiCond434) R26 Frame(CFA_Y, -3)
        CFI (cfiCond434) R27 Frame(CFA_Y, -2)
        CFI (cfiCond434) R4 Frame(CFA_Y, -1)
        CFI (cfiCond434) CFA_SP SP+6
        CFI (cfiCond434) CFA_Y Y+23
        CFI Block cfiPicker435 Using cfiCommon1
        CFI (cfiPicker435) NoFunction
        CFI (cfiPicker435) Picker
        LDD	R16, Y+4
        ST	Y, R16
        LDD	R16, Y+5
        STD	Y+1, R16
        LDD	R16, Y+6
        STD	Y+2, R16
        LDD	R16, Y+7
        STD	Y+3, R16
        LD	R16, Y
        LDD	R17, Y+1
        LDD	R18, Y+2
        LDD	R19, Y+3
        LSL	R26
        ROL	R27
        LSL	R26
        ROL	R27
        MOVW	R31:R30, R27:R26
        SUBI	R30, LOW((-(timer_tii) & 0xFFFF))
        SBCI	R31, (-(timer_tii) & 0xFFFF) >> 8
        LD	R20, Z
        LDD	R21, Z+1
        LDD	R22, Z+2
        LDD	R23, Z+3
        RJMP	?Subroutine108
        CFI EndBlock cfiCond433
        CFI EndBlock cfiCond434
        CFI EndBlock cfiPicker435
// 2037  //////////        
// 2038  
// 2039 ////////////////////////////////////////////////////////////////////////////////////////
// 2040 

        RSEG FARCODE:CODE:NOROOT(1)
// 2041 void start_a(void)  //YES!!!!
start_a:
        CFI Block cfiBlock436 Using cfiCommon0
        CFI Function start_a
// 2042 {  
        FUNCALL start_a, end_zamer
        LOCFRAME CSTACK, 8, STACK
        LOCFRAME RSTACK, 3, STACK
        FUNCALL start_a, read_arhiv_tii
        LOCFRAME CSTACK, 8, STACK
        LOCFRAME RSTACK, 3, STACK
        FUNCALL start_a, try_form_arhiv
        LOCFRAME CSTACK, 8, STACK
        LOCFRAME RSTACK, 3, STACK
        FUNCALL start_a, end_zamer
        LOCFRAME CSTACK, 8, STACK
        LOCFRAME RSTACK, 3, STACK
        FUNCALL start_a, read_arhiv_tii
        LOCFRAME CSTACK, 8, STACK
        LOCFRAME RSTACK, 3, STACK
        FUNCALL start_a, try_form_arhiv
        LOCFRAME CSTACK, 8, STACK
        LOCFRAME RSTACK, 3, STACK
        FUNCALL start_a, end_zamer
        LOCFRAME CSTACK, 8, STACK
        LOCFRAME RSTACK, 3, STACK
        FUNCALL start_a, read_arhiv_tii
        LOCFRAME CSTACK, 8, STACK
        LOCFRAME RSTACK, 3, STACK
        FUNCALL start_a, try_form_arhiv
        LOCFRAME CSTACK, 8, STACK
        LOCFRAME RSTACK, 3, STACK
        FUNCALL start_a, set_time_day_zamer
        LOCFRAME CSTACK, 8, STACK
        LOCFRAME RSTACK, 3, STACK
        FUNCALL start_a, end_zamer_tit
        LOCFRAME CSTACK, 8, STACK
        LOCFRAME RSTACK, 3, STACK
        RCALL	?Subroutine95
        CFI R24 Frame(CFA_Y, -8)
        CFI R25 Frame(CFA_Y, -7)
        CFI R26 Frame(CFA_Y, -6)
        CFI R27 Frame(CFA_Y, -5)
        CFI R4 Frame(CFA_Y, -4)
        CFI R5 Frame(CFA_Y, -3)
        CFI R6 Frame(CFA_Y, -2)
        CFI R7 Frame(CFA_Y, -1)
        CFI CFA_Y Y+8
??CrossCallReturnLabel_179:
        REQUIRE	?Register_R4_is_cg_reg
        REQUIRE	?Register_R6_is_cg_reg
        REQUIRE	?Register_R7_is_cg_reg
// 2043 char m;       
// 2044 
// 2045 for (m=14; m < 16;m++) 
        LDI	R16, 14
        MOV	R4, R16
// 2046       {
// 2047       end_zamer(m); 
??start_a_0:
        RCALL	?Subroutine77
// 2048       start_ttii[m]=arr_tii_32[m]-read_arhiv_tii(m); // начать новый минутный заме   
// 2049       try_form_arhiv(m); // пытаемся сформировать утерянные архивы
// 2050      }
??CrossCallReturnLabel_118:
        LDI	R16, 16
        CP	R4, R16
        BRCS	??start_a_0
// 2051 //при старте все времена окончания замеров установить
// 2052 
// 2053 if(sel_modul==1)
        RCALL	?Subroutine103
??CrossCallReturnLabel_194:
        BRNE	??start_a_1
// 2054   {
// 2055     for (m=0; m < 5;m++) 
        CLR	R4
// 2056       {
// 2057       end_zamer(m); 
??start_a_2:
        RCALL	?Subroutine77
// 2058       start_ttii[m]=arr_tii_32[m]-read_arhiv_tii(m); // начать новый минутный заме      
// 2059       try_form_arhiv(m); // пытаемся сформировать утерянные архивы
// 2060      }
??CrossCallReturnLabel_119:
        LDI	R16, 5
        CP	R4, R16
        BRCC	??start_a_3
        RJMP	??start_a_2
// 2061   }
// 2062 else
// 2063 {
// 2064 for (m=0; m < 8;m++) 
??start_a_1:
        CLR	R4
// 2065       {
// 2066       end_zamer(m); 
??start_a_4:
        RCALL	?Subroutine77
// 2067       start_ttii[m]=arr_tii_32[m]-read_arhiv_tii(m); // начать новый минутный заме 
// 2068       try_form_arhiv(m); // пытаемся сформировать утерянные архивы
// 2069      }
??CrossCallReturnLabel_120:
        LDI	R16, 8
        CP	R4, R16
        BRCS	??start_a_4
// 2070 }
// 2071    lock_bit=0;  
??start_a_3:
        LDI	R16, 0
        RCALL	??Subroutine84_0
??CrossCallReturnLabel_143:
        STD	Z+26, R16
        STD	Z+27, R16
// 2072 time_sutok=set_time_day_zamer(real_time.r_date,real_time.r_month,real_time.r_year);
        RCALL	?Subroutine17
// 2073       if ( time_sutok <= unix) time_sutok+=86400; 
// 2074       for (m=0; m < 2;m++) end_zamer_tit(m);
??CrossCallReturnLabel_22:
        CLR	R4
??start_a_5:
        MOV	R16, R4
        RCALL	?Subroutine94
??CrossCallReturnLabel_175:
        INC	R4
        LDI	R16, 2
        CP	R4, R16
        BRCS	??start_a_5
// 2075 } 
        RJMP	?Subroutine126
        CFI EndBlock cfiBlock436

        RSEG FARCODE:CODE:NOROOT(1)
?Subroutine84:
        CFI Block cfiCond437 Using cfiCommon0
        CFI NoFunction
        CFI Conditional ??CrossCallReturnLabel_138
        CFI CFA_SP SP+6
        CFI Block cfiCond438 Using cfiCommon0
        CFI (cfiCond438) NoFunction
        CFI (cfiCond438) Conditional ??CrossCallReturnLabel_139
        CFI (cfiCond438) CFA_SP SP+6
        CFI Block cfiPicker439 Using cfiCommon1
        CFI (cfiPicker439) NoFunction
        CFI (cfiPicker439) Picker
        ST	-Y, R24
        CFI (cfiCond437) R24 Frame(CFA_Y, -1)
        CFI (cfiCond437) CFA_Y Y+1
        CFI (cfiCond438) R24 Frame(CFA_Y, -1)
        CFI (cfiCond438) CFA_Y Y+1
        CFI (cfiPicker439) R24 Frame(CFA_Y, -1)
        CFI Block cfiCond440 Using cfiCommon0
        CFI (cfiCond440) NoFunction
        CFI (cfiCond440) Conditional ??CrossCallReturnLabel_140
        CFI (cfiCond440) R24 Frame(CFA_Y, -13)
        CFI (cfiCond440) R25 Frame(CFA_Y, -12)
        CFI (cfiCond440) R26 Frame(CFA_Y, -11)
        CFI (cfiCond440) R27 Frame(CFA_Y, -10)
        CFI (cfiCond440) R4 Frame(CFA_Y, -9)
        CFI (cfiCond440) R5 Frame(CFA_Y, -8)
        CFI (cfiCond440) R6 Frame(CFA_Y, -7)
        CFI (cfiCond440) R7 Frame(CFA_Y, -6)
        CFI (cfiCond440) R8 Frame(CFA_Y, -5)
        CFI (cfiCond440) R9 Frame(CFA_Y, -4)
        CFI (cfiCond440) R10 Frame(CFA_Y, -3)
        CFI (cfiCond440) R11 Frame(CFA_Y, -2)
        CFI (cfiCond440) R12 Frame(CFA_Y, -1)
        CFI (cfiCond440) CFA_SP SP+6
        CFI (cfiCond440) CFA_Y Y+13
        CFI Block cfiCond441 Using cfiCommon0
        CFI (cfiCond441) NoFunction
        CFI (cfiCond441) Conditional ??CrossCallReturnLabel_141
        CFI (cfiCond441) R24 Frame(CFA_Y, -12)
        CFI (cfiCond441) R25 Frame(CFA_Y, -11)
        CFI (cfiCond441) R26 Frame(CFA_Y, -10)
        CFI (cfiCond441) R27 Frame(CFA_Y, -9)
        CFI (cfiCond441) R4 Frame(CFA_Y, -8)
        CFI (cfiCond441) R5 Frame(CFA_Y, -7)
        CFI (cfiCond441) R6 Frame(CFA_Y, -6)
        CFI (cfiCond441) R7 Frame(CFA_Y, -5)
        CFI (cfiCond441) R8 Frame(CFA_Y, -4)
        CFI (cfiCond441) R9 Frame(CFA_Y, -3)
        CFI (cfiCond441) R10 Frame(CFA_Y, -2)
        CFI (cfiCond441) R11 Frame(CFA_Y, -1)
        CFI (cfiCond441) CFA_SP SP+6
        CFI (cfiCond441) CFA_Y Y+12
        CFI Block cfiCond442 Using cfiCommon0
        CFI (cfiCond442) NoFunction
        CFI (cfiCond442) Conditional ??CrossCallReturnLabel_142
        CFI (cfiCond442) R24 Frame(CFA_Y, -2)
        CFI (cfiCond442) R25 Frame(CFA_Y, -1)
        CFI (cfiCond442) CFA_SP SP+6
        CFI (cfiCond442) CFA_Y Y+20
        CFI Block cfiCond443 Using cfiCommon0
        CFI (cfiCond443) NoFunction
        CFI (cfiCond443) Conditional ??CrossCallReturnLabel_143
        CFI (cfiCond443) R24 Frame(CFA_Y, -8)
        CFI (cfiCond443) R25 Frame(CFA_Y, -7)
        CFI (cfiCond443) R26 Frame(CFA_Y, -6)
        CFI (cfiCond443) R27 Frame(CFA_Y, -5)
        CFI (cfiCond443) R4 Frame(CFA_Y, -4)
        CFI (cfiCond443) R5 Frame(CFA_Y, -3)
        CFI (cfiCond443) R6 Frame(CFA_Y, -2)
        CFI (cfiCond443) R7 Frame(CFA_Y, -1)
        CFI (cfiCond443) CFA_SP SP+6
        CFI (cfiCond443) CFA_Y Y+8
??Subroutine84_0:
        LDI	R30, LOW(timer_psm)
        LDI	R31, (timer_psm) >> 8
        RET
        CFI EndBlock cfiCond437
        CFI EndBlock cfiCond438
        CFI EndBlock cfiPicker439
        CFI EndBlock cfiCond440
        CFI EndBlock cfiCond441
        CFI EndBlock cfiCond442
        CFI EndBlock cfiCond443

        RSEG FARCODE:CODE:NOROOT(1)
?Subroutine77:
        CFI Block cfiCond444 Using cfiCommon0
        CFI NoFunction
        CFI Conditional ??CrossCallReturnLabel_118
        CFI R24 Frame(CFA_Y, -8)
        CFI R25 Frame(CFA_Y, -7)
        CFI R26 Frame(CFA_Y, -6)
        CFI R27 Frame(CFA_Y, -5)
        CFI R4 Frame(CFA_Y, -4)
        CFI R5 Frame(CFA_Y, -3)
        CFI R6 Frame(CFA_Y, -2)
        CFI R7 Frame(CFA_Y, -1)
        CFI CFA_SP SP+6
        CFI CFA_Y Y+8
        CFI Block cfiCond445 Using cfiCommon0
        CFI (cfiCond445) NoFunction
        CFI (cfiCond445) Conditional ??CrossCallReturnLabel_119
        CFI (cfiCond445) R24 Frame(CFA_Y, -8)
        CFI (cfiCond445) R25 Frame(CFA_Y, -7)
        CFI (cfiCond445) R26 Frame(CFA_Y, -6)
        CFI (cfiCond445) R27 Frame(CFA_Y, -5)
        CFI (cfiCond445) R4 Frame(CFA_Y, -4)
        CFI (cfiCond445) R5 Frame(CFA_Y, -3)
        CFI (cfiCond445) R6 Frame(CFA_Y, -2)
        CFI (cfiCond445) R7 Frame(CFA_Y, -1)
        CFI (cfiCond445) CFA_SP SP+6
        CFI (cfiCond445) CFA_Y Y+8
        CFI Block cfiCond446 Using cfiCommon0
        CFI (cfiCond446) NoFunction
        CFI (cfiCond446) Conditional ??CrossCallReturnLabel_120
        CFI (cfiCond446) R24 Frame(CFA_Y, -8)
        CFI (cfiCond446) R25 Frame(CFA_Y, -7)
        CFI (cfiCond446) R26 Frame(CFA_Y, -6)
        CFI (cfiCond446) R27 Frame(CFA_Y, -5)
        CFI (cfiCond446) R4 Frame(CFA_Y, -4)
        CFI (cfiCond446) R5 Frame(CFA_Y, -3)
        CFI (cfiCond446) R6 Frame(CFA_Y, -2)
        CFI (cfiCond446) R7 Frame(CFA_Y, -1)
        CFI (cfiCond446) CFA_SP SP+6
        CFI (cfiCond446) CFA_Y Y+8
        CFI Block cfiPicker447 Using cfiCommon1
        CFI (cfiPicker447) NoFunction
        CFI (cfiPicker447) Picker
        MOV	R16, R4
        RCALL	end_zamer
        LDI	R16, 4
        MUL	R4, R16
        MOVW	R7:R6, R1:R0
        MOVW	R31:R30, R1:R0
        SUBI	R30, LOW((-(arr_tii_32) & 0xFFFF))
        SBCI	R31, (-(arr_tii_32) & 0xFFFF) >> 8
        LD	R24, Z
        LDD	R25, Z+1
        LDD	R26, Z+2
        LDD	R27, Z+3
        MOV	R16, R4
        RCALL	read_arhiv_tii
        SUB	R24, R16
        SBC	R25, R17
        SBC	R26, R18
        SBC	R27, R19
        MOVW	R31:R30, R7:R6
        SUBI	R30, LOW((-(start_ttii) & 0xFFFF))
        SBCI	R31, (-(start_ttii) & 0xFFFF) >> 8
        ST	Z, R24
        STD	Z+1, R25
        STD	Z+2, R26
        STD	Z+3, R27
        MOV	R16, R4
        RCALL	try_form_arhiv
        INC	R4
        RET
        CFI EndBlock cfiCond444
        CFI EndBlock cfiCond445
        CFI EndBlock cfiCond446
        CFI EndBlock cfiPicker447
// 2076 
// 2077 
// 2078 
// 2079 

        RSEG FARCODE:CODE:NOROOT(1)
// 2080 void refresh_a(char m)
refresh_a:
        CFI Block cfiBlock448 Using cfiCommon0
        CFI Function refresh_a
// 2081 { 
        FUNCALL refresh_a, set_time_day_zamer
        LOCFRAME CSTACK, 4, STACK
        LOCFRAME RSTACK, 3, STACK
        FUNCALL refresh_a, end_zamer_tit
        LOCFRAME CSTACK, 4, STACK
        LOCFRAME RSTACK, 3, STACK
        FUNCALL refresh_a, end_zamer_tit
        LOCFRAME CSTACK, 4, STACK
        LOCFRAME RSTACK, 3, STACK
        FUNCALL refresh_a, end_zamer
        LOCFRAME CSTACK, 4, STACK
        LOCFRAME RSTACK, 3, STACK
        RCALL	?Subroutine89
        CFI R24 Frame(CFA_Y, -4)
        CFI R25 Frame(CFA_Y, -3)
        CFI R26 Frame(CFA_Y, -2)
        CFI R27 Frame(CFA_Y, -1)
        CFI CFA_Y Y+4
??CrossCallReturnLabel_159:
        MOV	R24, R16
// 2082   time_sutok=set_time_day_zamer(real_time.r_date,real_time.r_month,real_time.r_year);
        RCALL	?Subroutine17
// 2083       if ( time_sutok <= unix) time_sutok+=86400;   
// 2084   if ( m==0x20 ) { end_zamer_tit(0);return; }
??CrossCallReturnLabel_23:
        CPI	R24, 32
        BRNE	??refresh_a_0
        LDI	R16, 0
??refresh_a_1:
        RCALL	?Subroutine94
??CrossCallReturnLabel_174:
        RJMP	??CrossCallReturnLabel_28
// 2085   if ( m==0x21 ) { end_zamer_tit(1);return; }
??refresh_a_0:
        CPI	R24, 33
        BRNE	??refresh_a_2
        LDI	R16, 1
        RJMP	??refresh_a_1
// 2086  
// 2087   if( (m==0xe)  || (m==0xf) ) goto lk1j;
??refresh_a_2:
        CPI	R24, 14
        BREQ	??refresh_a_3
        CPI	R24, 15
        BREQ	??refresh_a_3
// 2088   
// 2089   if (sel_modul==1){if (m >=5) return;}
        RCALL	?Subroutine103
??CrossCallReturnLabel_195:
        BRNE	??refresh_a_4
        CPI	R24, 5
        BRCS	??refresh_a_3
        RJMP	??CrossCallReturnLabel_28
// 2090   else {if (m >=8) return;}
??refresh_a_4:
        CPI	R24, 8
        BRCC	??CrossCallReturnLabel_28
// 2091   
// 2092 lk1j:
// 2093   
// 2094       end_zamer(m); 
??refresh_a_3:
        MOV	R16, R24
        RCALL	?Subroutine19
        CFI EndBlock cfiBlock448
// 2095      
// 2096      __disable_interrupt();
// 2097      start_ttii[m]=arr_tii_32[m ];    //    -read_arhiv_tii(m); // начать новый минутный заме 
// 2098      __enable_interrupt();
// 2099    
// 2100    
// 2101 } 
??CrossCallReturnLabel_28:
        REQUIRE ?Subroutine125
        ;		// Fall through to label ?Subroutine125

        RSEG FARCODE:CODE:NOROOT(1)
?Subroutine125:
        CFI Block cfiBlock449 Using cfiCommon0
        CFI NoFunction
        CFI CFA_Y Y+4
        CFI R24 Frame(CFA_Y, -4)
        CFI R25 Frame(CFA_Y, -3)
        CFI R26 Frame(CFA_Y, -2)
        CFI R27 Frame(CFA_Y, -1)
        LDI	R30, 4
        JMP	?EPILOGUE_B4_L09
        CFI EndBlock cfiBlock449

        RSEG FARCODE:CODE:NOROOT(1)
?Subroutine94:
        CFI Block cfiCond450 Using cfiCommon0
        CFI NoFunction
        CFI Conditional ??CrossCallReturnLabel_176
        CFI R24 Frame(CFA_Y, -1)
        CFI CFA_SP SP+6
        CFI CFA_Y Y+1
        CFI Block cfiCond451 Using cfiCommon0
        CFI (cfiCond451) NoFunction
        CFI (cfiCond451) Conditional ??CrossCallReturnLabel_175
        CFI (cfiCond451) R24 Frame(CFA_Y, -8)
        CFI (cfiCond451) R25 Frame(CFA_Y, -7)
        CFI (cfiCond451) R26 Frame(CFA_Y, -6)
        CFI (cfiCond451) R27 Frame(CFA_Y, -5)
        CFI (cfiCond451) R4 Frame(CFA_Y, -4)
        CFI (cfiCond451) R5 Frame(CFA_Y, -3)
        CFI (cfiCond451) R6 Frame(CFA_Y, -2)
        CFI (cfiCond451) R7 Frame(CFA_Y, -1)
        CFI (cfiCond451) CFA_SP SP+6
        CFI (cfiCond451) CFA_Y Y+8
        CFI Block cfiCond452 Using cfiCommon0
        CFI (cfiCond452) NoFunction
        CFI (cfiCond452) Conditional ??CrossCallReturnLabel_174
        CFI (cfiCond452) R24 Frame(CFA_Y, -4)
        CFI (cfiCond452) R25 Frame(CFA_Y, -3)
        CFI (cfiCond452) R26 Frame(CFA_Y, -2)
        CFI (cfiCond452) R27 Frame(CFA_Y, -1)
        CFI (cfiCond452) CFA_SP SP+6
        CFI (cfiCond452) CFA_Y Y+4
        CFI Block cfiCond453 Using cfiCommon0
        CFI (cfiCond453) NoFunction
        CFI (cfiCond453) Conditional ??CrossCallReturnLabel_173
        CFI (cfiCond453) R24 Frame(CFA_Y, -4)
        CFI (cfiCond453) R25 Frame(CFA_Y, -3)
        CFI (cfiCond453) R26 Frame(CFA_Y, -2)
        CFI (cfiCond453) R27 Frame(CFA_Y, -1)
        CFI (cfiCond453) CFA_SP SP+6
        CFI (cfiCond453) CFA_Y Y+4
        CFI Block cfiPicker454 Using cfiCommon1
        CFI (cfiPicker454) NoFunction
        CFI (cfiPicker454) Picker
        RJMP	end_zamer_tit
        CFI EndBlock cfiCond450
        CFI EndBlock cfiCond451
        CFI EndBlock cfiCond452
        CFI EndBlock cfiCond453
        CFI EndBlock cfiPicker454

        RSEG FARCODE:CODE:NOROOT(1)
?Subroutine89:
        CFI Block cfiCond455 Using cfiCommon0
        CFI NoFunction
        CFI Conditional ??CrossCallReturnLabel_157
        CFI CFA_SP SP+6
        CFI Block cfiCond456 Using cfiCommon0
        CFI (cfiCond456) NoFunction
        CFI (cfiCond456) Conditional ??CrossCallReturnLabel_158
        CFI (cfiCond456) CFA_SP SP+6
        CFI Block cfiCond457 Using cfiCommon0
        CFI (cfiCond457) NoFunction
        CFI (cfiCond457) Conditional ??CrossCallReturnLabel_159
        CFI (cfiCond457) CFA_SP SP+6
        CFI Block cfiCond458 Using cfiCommon0
        CFI (cfiCond458) NoFunction
        CFI (cfiCond458) Conditional ??CrossCallReturnLabel_160
        CFI (cfiCond458) CFA_SP SP+6
        CFI Block cfiPicker459 Using cfiCommon1
        CFI (cfiPicker459) NoFunction
        CFI (cfiPicker459) Picker
        JMP	?PROLOGUE4_L09
        CFI EndBlock cfiCond455
        CFI EndBlock cfiCond456
        CFI EndBlock cfiCond457
        CFI EndBlock cfiCond458
        CFI EndBlock cfiPicker459

        RSEG FARCODE:CODE:NOROOT(1)
?Subroutine19:
        CFI Block cfiCond460 Using cfiCommon0
        CFI NoFunction
        CFI Conditional ??CrossCallReturnLabel_27
        CFI R24 Frame(CFA_Y, -1)
        CFI CFA_SP SP+6
        CFI CFA_Y Y+1
        CFI Block cfiCond461 Using cfiCommon0
        CFI (cfiCond461) NoFunction
        CFI (cfiCond461) Conditional ??CrossCallReturnLabel_28
        CFI (cfiCond461) R24 Frame(CFA_Y, -4)
        CFI (cfiCond461) R25 Frame(CFA_Y, -3)
        CFI (cfiCond461) R26 Frame(CFA_Y, -2)
        CFI (cfiCond461) R27 Frame(CFA_Y, -1)
        CFI (cfiCond461) CFA_SP SP+6
        CFI (cfiCond461) CFA_Y Y+4
        CFI Block cfiPicker462 Using cfiCommon1
        CFI (cfiPicker462) NoFunction
        CFI (cfiPicker462) Picker
        RCALL	end_zamer
        CLI
        LDI	R16, 4
        MUL	R24, R16
        MOVW	R31:R30, R1:R0
        SUBI	R30, LOW((-(arr_tii_32) & 0xFFFF))
        SBCI	R31, (-(arr_tii_32) & 0xFFFF) >> 8
        LD	R16, Z
        LDD	R17, Z+1
        LDD	R18, Z+2
        LDD	R19, Z+3
        MOVW	R31:R30, R1:R0
        SUBI	R30, LOW((-(start_ttii) & 0xFFFF))
        SBCI	R31, (-(start_ttii) & 0xFFFF) >> 8
        ST	Z, R16
        STD	Z+1, R17
        STD	Z+2, R18
        STD	Z+3, R19
        SEI
        RET
        CFI EndBlock cfiCond460
        CFI EndBlock cfiCond461
        CFI EndBlock cfiPicker462

        RSEG FARCODE:CODE:NOROOT(1)
?Subroutine17:
        CFI Block cfiCond463 Using cfiCommon0
        CFI NoFunction
        CFI Conditional ??CrossCallReturnLabel_22
        CFI R24 Frame(CFA_Y, -8)
        CFI R25 Frame(CFA_Y, -7)
        CFI R26 Frame(CFA_Y, -6)
        CFI R27 Frame(CFA_Y, -5)
        CFI R4 Frame(CFA_Y, -4)
        CFI R5 Frame(CFA_Y, -3)
        CFI R6 Frame(CFA_Y, -2)
        CFI R7 Frame(CFA_Y, -1)
        CFI CFA_SP SP+6
        CFI CFA_Y Y+8
        CFI Block cfiCond464 Using cfiCommon0
        CFI (cfiCond464) NoFunction
        CFI (cfiCond464) Conditional ??CrossCallReturnLabel_23
        CFI (cfiCond464) R24 Frame(CFA_Y, -4)
        CFI (cfiCond464) R25 Frame(CFA_Y, -3)
        CFI (cfiCond464) R26 Frame(CFA_Y, -2)
        CFI (cfiCond464) R27 Frame(CFA_Y, -1)
        CFI (cfiCond464) CFA_SP SP+6
        CFI (cfiCond464) CFA_Y Y+4
        CFI Block cfiCond465 Using cfiCommon0
        CFI (cfiCond465) NoFunction
        CFI (cfiCond465) Conditional ??CrossCallReturnLabel_24
        CFI (cfiCond465) R24 Frame(CFA_Y, -4)
        CFI (cfiCond465) R25 Frame(CFA_Y, -3)
        CFI (cfiCond465) R26 Frame(CFA_Y, -2)
        CFI (cfiCond465) R27 Frame(CFA_Y, -1)
        CFI (cfiCond465) CFA_SP SP+6
        CFI (cfiCond465) CFA_Y Y+4
        CFI Block cfiPicker466 Using cfiCommon1
        CFI (cfiPicker466) NoFunction
        CFI (cfiPicker466) Picker
        LDI	R26, LOW(day_accum)
        LDI	R27, (day_accum) >> 8
        LDI	R30, LOW(real_time)
        LDI	R31, (real_time) >> 8
        LDD	R18, Z+6
        LDD	R17, Z+5
        LDD	R16, Z+4
        CALL	set_time_day_zamer
        MOVW	R31:R30, R27:R26
        STD	Z+8, R16
        STD	Z+9, R17
        STD	Z+10, R18
        STD	Z+11, R19
        LDI	R30, LOW(unix)
        LDI	R31, (unix) >> 8
        LD	R16, Z
        LDD	R17, Z+1
        LDD	R18, Z+2
        LDD	R19, Z+3
        MOVW	R31:R30, R27:R26
        LDD	R20, Z+8
        LDD	R21, Z+9
        LDD	R22, Z+10
        LDD	R23, Z+11
        CP	R16, R20
        CPC	R17, R21
        CPC	R18, R22
        CPC	R19, R23
        BRCS	??Subroutine17_0
        MOVW	R17:R16, R21:R20
        MOVW	R19:R18, R23:R22
        SUBI	R16, 128
        SBCI	R17, 174
        SBCI	R18, 254
        SBCI	R19, 255
        STD	Z+8, R16
        STD	Z+9, R17
        STD	Z+10, R18
        STD	Z+11, R19
??Subroutine17_0:
        RET
        CFI EndBlock cfiCond463
        CFI EndBlock cfiCond464
        CFI EndBlock cfiCond465
        CFI EndBlock cfiPicker466
// 2102                                         
// 2103  

        RSEG FARCODE:CODE:NOROOT(1)
// 2104  void start_aa(void)
start_aa:
        CFI Block cfiBlock467 Using cfiCommon0
        CFI Function start_aa
// 2105 {  
        FUNCALL start_aa, set_time_day_zamer
        LOCFRAME CSTACK, 4, STACK
        LOCFRAME RSTACK, 3, STACK
        FUNCALL start_aa, end_zamer
        LOCFRAME CSTACK, 4, STACK
        LOCFRAME RSTACK, 3, STACK
        FUNCALL start_aa, end_zamer
        LOCFRAME CSTACK, 4, STACK
        LOCFRAME RSTACK, 3, STACK
        FUNCALL start_aa, end_zamer_tit
        LOCFRAME CSTACK, 4, STACK
        LOCFRAME RSTACK, 3, STACK
        FUNCALL start_aa, end_zamer
        LOCFRAME CSTACK, 4, STACK
        LOCFRAME RSTACK, 3, STACK
        RCALL	?Subroutine89
        CFI R24 Frame(CFA_Y, -4)
        CFI R25 Frame(CFA_Y, -3)
        CFI R26 Frame(CFA_Y, -2)
        CFI R27 Frame(CFA_Y, -1)
        CFI CFA_Y Y+4
// 2106 char m;       
// 2107 time_sutok=set_time_day_zamer(real_time.r_date,real_time.r_month,real_time.r_year);
??CrossCallReturnLabel_160:
        RCALL	?Subroutine17
// 2108       if ( time_sutok <= unix) time_sutok+=86400; 
// 2109 //при смене времени все времена окончания замеров установить но начальное значение тии не устанавливат
// 2110 if(sel_modul==1){for (m=0; m < 5;m++) end_zamer(m);}
??CrossCallReturnLabel_24:
        RCALL	?Subroutine103
??CrossCallReturnLabel_196:
        LDI	R24, 0
        BRNE	??start_aa_0
??start_aa_1:
        RCALL	?Subroutine93
??CrossCallReturnLabel_170:
        CPI	R24, 5
        BRCC	??start_aa_2
        RJMP	??start_aa_1
// 2111 else{ for (m=0; m < 8;m++) end_zamer(m);}
??start_aa_0:
        RCALL	?Subroutine93
??CrossCallReturnLabel_171:
        CPI	R24, 8
        BRCS	??start_aa_0
// 2112 for (m=0; m < 2;m++) end_zamer_tit(m);
??start_aa_2:
        LDI	R24, 0
??start_aa_3:
        MOV	R16, R24
        RCALL	?Subroutine94
??CrossCallReturnLabel_173:
        INC	R24
        CPI	R24, 2
        BRCS	??start_aa_3
// 2113 for (m=14; m < 16;m++) end_zamer(m); 
        LDI	R24, 14
??start_aa_4:
        RCALL	?Subroutine93
??CrossCallReturnLabel_172:
        CPI	R24, 16
        BRCS	??start_aa_4
// 2114       
// 2115       
// 2116 }                                          
        RJMP	?Subroutine125
        CFI EndBlock cfiBlock467

        RSEG FARCODE:CODE:NOROOT(1)
?Subroutine103:
        CFI Block cfiCond468 Using cfiCommon0
        CFI NoFunction
        CFI Conditional ??CrossCallReturnLabel_194
        CFI R24 Frame(CFA_Y, -8)
        CFI R25 Frame(CFA_Y, -7)
        CFI R26 Frame(CFA_Y, -6)
        CFI R27 Frame(CFA_Y, -5)
        CFI R4 Frame(CFA_Y, -4)
        CFI R5 Frame(CFA_Y, -3)
        CFI R6 Frame(CFA_Y, -2)
        CFI R7 Frame(CFA_Y, -1)
        CFI CFA_SP SP+6
        CFI CFA_Y Y+8
        CFI Block cfiCond469 Using cfiCommon0
        CFI (cfiCond469) NoFunction
        CFI (cfiCond469) Conditional ??CrossCallReturnLabel_195
        CFI (cfiCond469) R24 Frame(CFA_Y, -4)
        CFI (cfiCond469) R25 Frame(CFA_Y, -3)
        CFI (cfiCond469) R26 Frame(CFA_Y, -2)
        CFI (cfiCond469) R27 Frame(CFA_Y, -1)
        CFI (cfiCond469) CFA_SP SP+6
        CFI (cfiCond469) CFA_Y Y+4
        CFI Block cfiCond470 Using cfiCommon0
        CFI (cfiCond470) NoFunction
        CFI (cfiCond470) Conditional ??CrossCallReturnLabel_196
        CFI (cfiCond470) R24 Frame(CFA_Y, -4)
        CFI (cfiCond470) R25 Frame(CFA_Y, -3)
        CFI (cfiCond470) R26 Frame(CFA_Y, -2)
        CFI (cfiCond470) R27 Frame(CFA_Y, -1)
        CFI (cfiCond470) CFA_SP SP+6
        CFI (cfiCond470) CFA_Y Y+4
        CFI Block cfiCond471 Using cfiCommon0
        CFI (cfiCond471) NoFunction
        CFI (cfiCond471) Conditional ??CrossCallReturnLabel_197
        CFI (cfiCond471) R24 Frame(CFA_Y, -9)
        CFI (cfiCond471) R25 Frame(CFA_Y, -8)
        CFI (cfiCond471) R26 Frame(CFA_Y, -7)
        CFI (cfiCond471) R27 Frame(CFA_Y, -6)
        CFI (cfiCond471) R4 Frame(CFA_Y, -5)
        CFI (cfiCond471) R5 Frame(CFA_Y, -4)
        CFI (cfiCond471) R6 Frame(CFA_Y, -3)
        CFI (cfiCond471) R7 Frame(CFA_Y, -2)
        CFI (cfiCond471) R8 Frame(CFA_Y, -1)
        CFI (cfiCond471) CFA_SP SP+6
        CFI (cfiCond471) CFA_Y Y+9
        CFI Block cfiCond472 Using cfiCommon0
        CFI (cfiCond472) NoFunction
        CFI (cfiCond472) Conditional ??CrossCallReturnLabel_198
        CFI (cfiCond472) R24 Frame(CFA_Y, -9)
        CFI (cfiCond472) R25 Frame(CFA_Y, -8)
        CFI (cfiCond472) R26 Frame(CFA_Y, -7)
        CFI (cfiCond472) R27 Frame(CFA_Y, -6)
        CFI (cfiCond472) R4 Frame(CFA_Y, -5)
        CFI (cfiCond472) R5 Frame(CFA_Y, -4)
        CFI (cfiCond472) R6 Frame(CFA_Y, -3)
        CFI (cfiCond472) R7 Frame(CFA_Y, -2)
        CFI (cfiCond472) R8 Frame(CFA_Y, -1)
        CFI (cfiCond472) CFA_SP SP+6
        CFI (cfiCond472) CFA_Y Y+9
        CFI Block cfiPicker473 Using cfiCommon1
        CFI (cfiPicker473) NoFunction
        CFI (cfiPicker473) Picker
        LDS	R16, sel_modul
        CPI	R16, 1
        RET
        CFI EndBlock cfiCond468
        CFI EndBlock cfiCond469
        CFI EndBlock cfiCond470
        CFI EndBlock cfiCond471
        CFI EndBlock cfiCond472
        CFI EndBlock cfiPicker473

        RSEG FARCODE:CODE:NOROOT(1)
?Subroutine93:
        CFI Block cfiCond474 Using cfiCommon0
        CFI NoFunction
        CFI Conditional ??CrossCallReturnLabel_170
        CFI R24 Frame(CFA_Y, -4)
        CFI R25 Frame(CFA_Y, -3)
        CFI R26 Frame(CFA_Y, -2)
        CFI R27 Frame(CFA_Y, -1)
        CFI CFA_SP SP+6
        CFI CFA_Y Y+4
        CFI Block cfiCond475 Using cfiCommon0
        CFI (cfiCond475) NoFunction
        CFI (cfiCond475) Conditional ??CrossCallReturnLabel_171
        CFI (cfiCond475) R24 Frame(CFA_Y, -4)
        CFI (cfiCond475) R25 Frame(CFA_Y, -3)
        CFI (cfiCond475) R26 Frame(CFA_Y, -2)
        CFI (cfiCond475) R27 Frame(CFA_Y, -1)
        CFI (cfiCond475) CFA_SP SP+6
        CFI (cfiCond475) CFA_Y Y+4
        CFI Block cfiCond476 Using cfiCommon0
        CFI (cfiCond476) NoFunction
        CFI (cfiCond476) Conditional ??CrossCallReturnLabel_172
        CFI (cfiCond476) R24 Frame(CFA_Y, -4)
        CFI (cfiCond476) R25 Frame(CFA_Y, -3)
        CFI (cfiCond476) R26 Frame(CFA_Y, -2)
        CFI (cfiCond476) R27 Frame(CFA_Y, -1)
        CFI (cfiCond476) CFA_SP SP+6
        CFI (cfiCond476) CFA_Y Y+4
        CFI Block cfiPicker477 Using cfiCommon1
        CFI (cfiPicker477) NoFunction
        CFI (cfiPicker477) Picker
        MOV	R16, R24
        CALL	end_zamer
        INC	R24
        RET
        CFI EndBlock cfiCond474
        CFI EndBlock cfiCond475
        CFI EndBlock cfiCond476
        CFI EndBlock cfiPicker477
// 2117 
// 2118 
// 2119   
// 2120   /////////////////////////////////                     
// 2121 
// 2122 
// 2123           
// 2124    
// 2125 
// 2126 /////////////////////////////////////////////////////////
// 2127 /* 
// 2128 void local_psm(void) 
// 2129 {     
// 2130 
// 2131 
// 2132   if (c2_byte.mb[38]!=0xaa) return; 
// 2133   if (c2_byte.mb[39]!=0) return;
// 2134   
// 2135   if ( bit_level==1) {bit_level=0;start_aa();} 
// 2136   
// 2137   store_tii();
// 2138   lock_arh();
// 2139   
// 2140   
// 2141 }
// 2142 
// 2143 
// 2144 
// 2145 void energy_plus(void)
// 2146 {
// 2147 char k;
// 2148 
// 2149 if(cnt_sec<DEF_CNT_SEC)return;
// 2150 cnt_sec=0;
// 2151 
// 2152 burst_ds_r();
// 2153 
// 2154   for (k=0;k<8;k++)
// 2155                         { 
// 2156                         if (timer_tii[k] ==0) continue;
// 2157                         if (lock_bit & (1<<k) ) continue;
// 2158                         if (unix >=timer_tii[k] )      // если ожидаемое время больше текущего
// 2159                                                   { 
// 2160                                                    tii_bit=tii_bit | (1<<k);
// 2161                                                    lock_bit=lock_bit | (1<<k);
// 2162                                                    }
// 2163                                            
// 2164                         }
// 2165      
// 2166 
// 2167 tarhiv++;
// 2168            if (tarhiv>=60)
// 2169                    { 
// 2170                    tii_bit_minut=0xff;
// 2171                     tarhiv=0;
// 2172                    }
// 2173   
// 2174    local_psm();
// 2175    
// 2176       }
// 2177    */
// 2178  
// 2179 

        RSEG FARCODE:CODE:NOROOT(1)
// 2180 void energy_plus(void)
energy_plus:
        CFI Block cfiBlock478 Using cfiCommon0
        CFI Function energy_plus
// 2181 {
        FUNCALL energy_plus, bpa_avtomat
        LOCFRAME CSTACK, 13, STACK
        LOCFRAME RSTACK, 3, STACK
        FUNCALL energy_plus, burst_ds_r
        LOCFRAME CSTACK, 13, STACK
        LOCFRAME RSTACK, 3, STACK
        FUNCALL energy_plus, start_aa
        LOCFRAME CSTACK, 13, STACK
        LOCFRAME RSTACK, 3, STACK
        FUNCALL energy_plus, store_tii
        LOCFRAME CSTACK, 13, STACK
        LOCFRAME RSTACK, 3, STACK
        FUNCALL energy_plus, lock_arh
        LOCFRAME CSTACK, 13, STACK
        LOCFRAME RSTACK, 3, STACK
        FUNCALL energy_plus, lock_arh_tit
        LOCFRAME CSTACK, 13, STACK
        LOCFRAME RSTACK, 3, STACK
        FUNCALL energy_plus, day_zamer
        LOCFRAME CSTACK, 13, STACK
        LOCFRAME RSTACK, 3, STACK
        FUNCALL energy_plus, local_psm
        LOCFRAME CSTACK, 13, STACK
        LOCFRAME RSTACK, 3, STACK
        CALL	?PROLOGUE9_L09
        CFI R8 Frame(CFA_Y, -1)
        CFI R7 Frame(CFA_Y, -2)
        CFI R6 Frame(CFA_Y, -3)
        CFI R5 Frame(CFA_Y, -4)
        CFI R4 Frame(CFA_Y, -5)
        CFI R27 Frame(CFA_Y, -6)
        CFI R26 Frame(CFA_Y, -7)
        CFI R25 Frame(CFA_Y, -8)
        CFI R24 Frame(CFA_Y, -9)
        CFI CFA_Y Y+9
        REQUIRE	?Register_R4_is_cg_reg
        REQUIRE	?Register_R5_is_cg_reg
        REQUIRE	?Register_R6_is_cg_reg
        REQUIRE	?Register_R7_is_cg_reg
        REQUIRE	?Register_R8_is_cg_reg
// 2182 char k,max;
// 2183 union
// 2184   {  int data;
// 2185 struct
// 2186    {     
// 2187      int psm_sost   :8 ;
// 2188      int err_switch     :4 ;
// 2189      int err_psm    :4 ;
// 2190    
// 2191    } sost;
// 2192   } mb; 
// 2193 
// 2194 //if (c2_byte.mb[38]!=0xaa) return; 
// 2195 //if (c2_byte.mb[39]!=0) return;
// 2196 
// 2197 
// 2198 
// 2199 if(cnt_sec<DEF_CNT_SEC)return;
        LDI	R26, LOW(timer_psm)
        LDI	R27, (timer_psm) >> 8
        MOVW	R31:R30, R27:R26
        LDD	R16, Z+32
        LDD	R17, Z+33
        CPI	R16, 214
        SBCI	R17, 3
        BRCC	$+2+2
        RJMP	??energy_plus_0
// 2200 cnt_sec=0;
        LDI	R16, 0
        STD	Z+32, R16
        STD	Z+33, R16
// 2201 
// 2202 
// 2203 bpa_avtomat();
        CALL	bpa_avtomat
// 2204 
// 2205 burst_ds_r();
        CALL	burst_ds_r
// 2206 
// 2207 if(sel_modul==1)max=5;else max=8;
        RCALL	?Subroutine103
??CrossCallReturnLabel_197:
        BRNE	??energy_plus_1
        LDI	R16, 5
        RJMP	??energy_plus_2
??energy_plus_1:
        LDI	R16, 8
??energy_plus_2:
        MOV	R8, R16
// 2208 
// 2209 if(timer_psm !=0) timer_psm--;    // время до переключения отсчитывается в секундах !!! // для ГЗУ
        RCALL	?Subroutine70
??CrossCallReturnLabel_108:
        BREQ	??energy_plus_3
        LD	R16, X+
        ADIW	R27:R26, 2
        SUBI	R16, 1
        SBCI	R17, 0
        SBCI	R18, 0
        SBCI	R19, 0
        ST	X, R19
        ST	-X, R18
        ST	-X, R17
        ST	-X, R16
// 2210 
// 2211   for (k=0;k<max;k++)
??energy_plus_3:
        LDI	R21, 0
        RJMP	??energy_plus_4
// 2212                         { 
// 2213                         if (timer_tii[k] ==0) continue;  
??energy_plus_5:
        RCALL	?Subroutine41
??CrossCallReturnLabel_51:
        BREQ	??CrossCallReturnLabel_25
// 2214                         if (lock_bit & (1<<k) ) continue;
        RCALL	?Subroutine35
??CrossCallReturnLabel_258:
        BRNE	??CrossCallReturnLabel_25
// 2215                         // условный счет
// 2216                         tii_moto.config=*(unsigned int*)&c2_byte.mb[k<<1];
        LSL	R4
        ROL	R5
        ADD	R24, R4
        ADC	R25, R5
        MOVW	R31:R30, R25:R24
        LD	R24, Z
        LDD	R25, Z+1
        MOVW	R31:R30, R27:R26
        STD	Z+24, R24
        STD	Z+25, R25
// 2217                         if (  (tii_moto.bit.type_zam==1)  && ((modbus_mem1[AD_TS] >> k) & 1 ) ) cnt_moto[k]++;
        LDI	R30, 0
        LDI	R31, 24
        AND	R31, R25
        CPI	R30, 0
        SBCI	R31, 8
        BRNE	??CrossCallReturnLabel_29
        RCALL	?Subroutine53
??CrossCallReturnLabel_71:
        BREQ	??CrossCallReturnLabel_29
        RCALL	?Subroutine20
// 2218                              /*
// 2219                              {
// 2220                                if ( old_realsec[k] <= real_time.r_sec)   cnt_moto[k]+=real_time.r_sec-old_realsec[k];
// 2221                                else  cnt_moto[k]+=60 + real_time.r_sec-old_realsec[k];
// 2222                              }
// 2223                         old_realsec[k]=real_time.r_sec;
// 2224                         */
// 2225                         
// 2226                         // условный счет
// 2227                         if (unix >=timer_tii[k] )      // если ожидаемое время больше текущего
??CrossCallReturnLabel_29:
        RCALL	?Subroutine18
// 2228                                                   { 
// 2229 
// 2230                                                    tii_bit=tii_bit | (1<<k);
// 2231                                                    lock_bit=lock_bit | (1<<k);
// 2232                                                    }
// 2233                                            
// 2234                         }
??CrossCallReturnLabel_25:
        INC	R21
??energy_plus_4:
        RCALL	?Subroutine52
??CrossCallReturnLabel_69:
        LDD	R6, Z+48
        LDD	R7, Z+49
        LDI	R24, LOW(c2_byte)
        LDI	R25, (c2_byte) >> 8
        CP	R21, R8
        BRCS	??energy_plus_5
// 2235   
// 2236   for (k=14;k<16;k++)
        LDI	R21, 14
// 2237                         { 
// 2238                         if (timer_tii[k] ==0) continue;  
??energy_plus_6:
        RCALL	?Subroutine41
??CrossCallReturnLabel_52:
        BREQ	??CrossCallReturnLabel_26
// 2239                         if (lock_bit & (1<<k) ) continue;
        RCALL	?Subroutine35
??CrossCallReturnLabel_259:
        BRNE	??CrossCallReturnLabel_26
// 2240                         // условный счет
// 2241                         tii_moto.config=*(unsigned int*)&c2_byte.mb[k<<1];
        LSL	R4
        ROL	R5
        MOVW	R31:R30, R25:R24
        ADD	R30, R4
        ADC	R31, R5
        LD	R4, Z
        LDD	R5, Z+1
        MOVW	R31:R30, R27:R26
        STD	Z+24, R4
        STD	Z+25, R5
// 2242                          if (  (tii_moto.bit.type_zam==1)  && ((modbus_mem1[AD_TS] >> k) & 1 ) ) cnt_moto[k]++;
        LDI	R30, 0
        LDI	R31, 24
        AND	R31, R5
        CPI	R30, 0
        SBCI	R31, 8
        BRNE	??CrossCallReturnLabel_30
        RCALL	?Subroutine53
??CrossCallReturnLabel_72:
        BREQ	??CrossCallReturnLabel_30
        RCALL	?Subroutine20
// 2243                         /*
// 2244                         if (  (tii_moto.bit.enable==1)  &&
// 2245                               (((modbus_mem1[AD_TS] >> tii_moto.bit.nomer_tc) & 1 )==tii_moto.bit.level_tc ) ) 
// 2246                         
// 2247                        {
// 2248                                if ( old_realsec[k] <= real_time.r_sec)   cnt_moto[k]+=real_time.r_sec-old_realsec[k];
// 2249                                else  cnt_moto[k]+=60 + real_time.r_sec-old_realsec[k];
// 2250                              }
// 2251                         old_realsec[k]=real_time.r_sec;
// 2252                         */
// 2253                         
// 2254                         // условный счет
// 2255                         if (unix >=timer_tii[k] )      // если ожидаемое время больше текущего
??CrossCallReturnLabel_30:
        RCALL	?Subroutine18
// 2256                                                   { 
// 2257 
// 2258                                                    tii_bit=tii_bit | (1<<k);
// 2259                                                    lock_bit=lock_bit | (1<<k);
// 2260                                                    }
// 2261                                            
// 2262                         }
??CrossCallReturnLabel_26:
        INC	R21
        CPI	R21, 16
        BRCS	??energy_plus_6
// 2263   
// 2264   
// 2265      
// 2266 //
// 2267   // для замеров ТИТ
// 2268   //
// 2269   for (k=0;k<2;k++)
        LDI	R21, 0
??energy_plus_7:
        LDI	R16, 4
        MUL	R21, R16
        MOVW	R31:R30, R27:R26
        ADD	R30, R0
        ADC	R31, R1
        RCALL	?Subroutine98
??CrossCallReturnLabel_185:
        MOV	R16, R0
        OR	R16, R1
        OR	R16, R2
        OR	R16, R3
        BREQ	??energy_plus_8
        RCALL	?Subroutine59
??CrossCallReturnLabel_242:
        MOV	R20, R21
        RCALL	?Subroutine85
??CrossCallReturnLabel_146:
        MOVW	R31:R30, R27:R26
        LDD	R17, Z+35
        AND	R17, R16
        BRNE	??energy_plus_8
// 2270                         { 
// 2271                         if (timer_tit[k] ==0) continue;
// 2272                         if (lock_bit_tit & (1<<k) ) continue;
// 2273                         if (unix >=timer_tit[k] )      // если ожидаемое время больше текущего
        RCALL	?Subroutine24
??CrossCallReturnLabel_32:
        CP	R4, R0
        CPC	R5, R1
        CPC	R6, R2
        CPC	R7, R3
        BRCS	??energy_plus_8
// 2274                                                   { 
// 2275                                                    tit_bit=tit_bit | (1<<k);
        MOVW	R31:R30, R27:R26
        LDD	R17, Z+36
        OR	R17, R16
        STD	Z+36, R17
// 2276                                                    lock_bit_tit=lock_bit_tit | (1<<k);
        LDD	R17, Z+35
        OR	R17, R16
        STD	Z+35, R17
// 2277                                                    //timer_tii[k]=0;
// 2278                                                    }
// 2279                                            
// 2280                         }
??energy_plus_8:
        INC	R21
        CPI	R21, 2
        BRCS	??energy_plus_7
// 2281   
// 2282   
// 2283   
// 2284 tarhiv++;
        MOVW	R31:R30, R27:R26
        LDD	R16, Z+39
        INC	R16
        STD	Z+39, R16
// 2285            if (tarhiv>=60)
        CPI	R16, 60
        BRCS	??energy_plus_9
// 2286                    { 
// 2287                    if( sost_psm==4) bit_zamer_psm=1;  // для ГЗУ
        LDD	R16, Z+49
        CPI	R16, 4
        BRNE	??energy_plus_10
        LDI	R16, 1
        STD	Z+34, R16
// 2288                    tii_bit_minut=0xffff;
??energy_plus_10:
        LDI	R16, 255
        STD	Z+30, R16
        STD	Z+31, R16
// 2289                    tarhiv=0;
        LDI	R16, 0
        STD	Z+39, R16
// 2290                    }
// 2291  
// 2292           if( *(unsigned int*)&c2_byte.mb[38]==0xaa) 
??energy_plus_9:
        MOVW	R31:R30, R25:R24
        LDD	R16, Z+38
        LDD	R17, Z+39
        CPI	R16, 170
        LDI	R18, 0
        SBCI	R17, 0
        BRNE	??energy_plus_11
// 2293 
// 2294           {
// 2295   if ( bit_level==1) {bit_level=0;start_aa();} 
        MOVW	R31:R30, R27:R26
        LDD	R16, Z+37
        CPI	R16, 1
        BRNE	??energy_plus_12
        STD	Z+37, R18
        RCALL	start_aa
// 2296   store_tii();
??energy_plus_12:
        RCALL	store_tii
// 2297   lock_arh();  
        RCALL	lock_arh
// 2298   lock_arh_tit(); 
        RCALL	lock_arh_tit
// 2299   
// 2300   if (*(unsigned int*)&c2_byte.mb[46]==1) day_zamer();
        MOVW	R31:R30, R25:R24
        LDD	R16, Z+46
        LDD	R17, Z+47
        CPI	R16, 1
        SBCI	R17, 0
        BRNE	??energy_plus_11
        CALL	day_zamer
// 2301           }
// 2302   
// 2303   if(sel_modul!=1) {
??energy_plus_11:
        RCALL	?Subroutine103
??CrossCallReturnLabel_198:
        BREQ	??energy_plus_0
// 2304                          local_psm();
        RCALL	local_psm
// 2305                         
// 2306                         mb.sost.psm_sost=sost_psm;
// 2307                         mb.sost.err_switch=err_switch;
// 2308                         mb.sost.err_psm=err_psm;
// 2309                         modbus_mem1[AD_SOST_PSM]=mb.data;
        MOVW	R31:R30, R27:R26
        LDD	R16, Z+49
        LDD	R17, Z+41
        ANDI	R17, 0x0F
        LDD	R19, Z+40
        LSL	R19
        LSL	R19
        LSL	R19
        LSL	R19
        OR	R19, R17
        LDI	R30, LOW((modbus_mem1 + 66))
        LDI	R31, HIGH((modbus_mem1 + 66))
        ST	Z, R16
        STD	Z+1, R19
// 2310                         modbus_mem1[AD_TIMER_PSM]=timer_psm;
        LD	R16, X+
        LD	R17, X+
        LDI	R30, LOW((modbus_mem1 + 68))
        LDI	R31, HIGH((modbus_mem1 + 68))
        ST	Z, R16
        STD	Z+1, R17
??energy_plus_0:
        RJMP	?Subroutine124
        CFI EndBlock cfiBlock478
// 2311                         
// 2312                         
// 2313      
// 2314                    } // только в режиме МТС
// 2315   
// 2316   
// 2317 
// 2318 
// 2319   }  

        RSEG FARCODE:CODE:NOROOT(1)
?Subroutine98:
        CFI Block cfiCond479 Using cfiCommon0
        CFI NoFunction
        CFI Conditional ??CrossCallReturnLabel_184
        CFI CFA_SP SP+6
        CFI CFA_Y Y+18
        CFI Block cfiCond480 Using cfiCommon0
        CFI (cfiCond480) NoFunction
        CFI (cfiCond480) Conditional ??CrossCallReturnLabel_185
        CFI (cfiCond480) R24 Frame(CFA_Y, -9)
        CFI (cfiCond480) R25 Frame(CFA_Y, -8)
        CFI (cfiCond480) R26 Frame(CFA_Y, -7)
        CFI (cfiCond480) R27 Frame(CFA_Y, -6)
        CFI (cfiCond480) R4 Frame(CFA_Y, -5)
        CFI (cfiCond480) R5 Frame(CFA_Y, -4)
        CFI (cfiCond480) R6 Frame(CFA_Y, -3)
        CFI (cfiCond480) R7 Frame(CFA_Y, -2)
        CFI (cfiCond480) R8 Frame(CFA_Y, -1)
        CFI (cfiCond480) CFA_SP SP+6
        CFI (cfiCond480) CFA_Y Y+9
        CFI Block cfiPicker481 Using cfiCommon1
        CFI (cfiPicker481) NoFunction
        CFI (cfiPicker481) Picker
        LDD	R0, Z+8
        LDD	R1, Z+9
        LDD	R2, Z+10
        LDD	R3, Z+11
        RET
        CFI EndBlock cfiCond479
        CFI EndBlock cfiCond480
        CFI EndBlock cfiPicker481

        RSEG FARCODE:CODE:NOROOT(1)
?Subroutine70:
        CFI Block cfiCond482 Using cfiCommon0
        CFI NoFunction
        CFI Conditional ??CrossCallReturnLabel_102
        CFI R24 Frame(CFA_Y, -16)
        CFI R25 Frame(CFA_Y, -15)
        CFI R26 Frame(CFA_Y, -14)
        CFI R27 Frame(CFA_Y, -13)
        CFI R4 Frame(CFA_Y, -12)
        CFI R5 Frame(CFA_Y, -11)
        CFI R6 Frame(CFA_Y, -10)
        CFI R7 Frame(CFA_Y, -9)
        CFI R8 Frame(CFA_Y, -8)
        CFI R9 Frame(CFA_Y, -7)
        CFI R10 Frame(CFA_Y, -6)
        CFI R11 Frame(CFA_Y, -5)
        CFI R12 Frame(CFA_Y, -4)
        CFI R13 Frame(CFA_Y, -3)
        CFI R14 Frame(CFA_Y, -2)
        CFI R15 Frame(CFA_Y, -1)
        CFI CFA_SP SP+6
        CFI CFA_Y Y+34
        CFI Block cfiCond483 Using cfiCommon0
        CFI (cfiCond483) NoFunction
        CFI (cfiCond483) Conditional ??CrossCallReturnLabel_103
        CFI (cfiCond483) R24 Frame(CFA_Y, -16)
        CFI (cfiCond483) R25 Frame(CFA_Y, -15)
        CFI (cfiCond483) R26 Frame(CFA_Y, -14)
        CFI (cfiCond483) R27 Frame(CFA_Y, -13)
        CFI (cfiCond483) R4 Frame(CFA_Y, -12)
        CFI (cfiCond483) R5 Frame(CFA_Y, -11)
        CFI (cfiCond483) R6 Frame(CFA_Y, -10)
        CFI (cfiCond483) R7 Frame(CFA_Y, -9)
        CFI (cfiCond483) R8 Frame(CFA_Y, -8)
        CFI (cfiCond483) R9 Frame(CFA_Y, -7)
        CFI (cfiCond483) R10 Frame(CFA_Y, -6)
        CFI (cfiCond483) R11 Frame(CFA_Y, -5)
        CFI (cfiCond483) R12 Frame(CFA_Y, -4)
        CFI (cfiCond483) R13 Frame(CFA_Y, -3)
        CFI (cfiCond483) R14 Frame(CFA_Y, -2)
        CFI (cfiCond483) R15 Frame(CFA_Y, -1)
        CFI (cfiCond483) CFA_SP SP+6
        CFI (cfiCond483) CFA_Y Y+34
        CFI Block cfiCond484 Using cfiCommon0
        CFI (cfiCond484) NoFunction
        CFI (cfiCond484) Conditional ??CrossCallReturnLabel_104
        CFI (cfiCond484) R24 Frame(CFA_Y, -16)
        CFI (cfiCond484) R25 Frame(CFA_Y, -15)
        CFI (cfiCond484) R26 Frame(CFA_Y, -14)
        CFI (cfiCond484) R27 Frame(CFA_Y, -13)
        CFI (cfiCond484) R4 Frame(CFA_Y, -12)
        CFI (cfiCond484) R5 Frame(CFA_Y, -11)
        CFI (cfiCond484) R6 Frame(CFA_Y, -10)
        CFI (cfiCond484) R7 Frame(CFA_Y, -9)
        CFI (cfiCond484) R8 Frame(CFA_Y, -8)
        CFI (cfiCond484) R9 Frame(CFA_Y, -7)
        CFI (cfiCond484) R10 Frame(CFA_Y, -6)
        CFI (cfiCond484) R11 Frame(CFA_Y, -5)
        CFI (cfiCond484) R12 Frame(CFA_Y, -4)
        CFI (cfiCond484) R13 Frame(CFA_Y, -3)
        CFI (cfiCond484) R14 Frame(CFA_Y, -2)
        CFI (cfiCond484) R15 Frame(CFA_Y, -1)
        CFI (cfiCond484) CFA_SP SP+6
        CFI (cfiCond484) CFA_Y Y+34
        CFI Block cfiCond485 Using cfiCommon0
        CFI (cfiCond485) NoFunction
        CFI (cfiCond485) Conditional ??CrossCallReturnLabel_105
        CFI (cfiCond485) R24 Frame(CFA_Y, -16)
        CFI (cfiCond485) R25 Frame(CFA_Y, -15)
        CFI (cfiCond485) R26 Frame(CFA_Y, -14)
        CFI (cfiCond485) R27 Frame(CFA_Y, -13)
        CFI (cfiCond485) R4 Frame(CFA_Y, -12)
        CFI (cfiCond485) R5 Frame(CFA_Y, -11)
        CFI (cfiCond485) R6 Frame(CFA_Y, -10)
        CFI (cfiCond485) R7 Frame(CFA_Y, -9)
        CFI (cfiCond485) R8 Frame(CFA_Y, -8)
        CFI (cfiCond485) R9 Frame(CFA_Y, -7)
        CFI (cfiCond485) R10 Frame(CFA_Y, -6)
        CFI (cfiCond485) R11 Frame(CFA_Y, -5)
        CFI (cfiCond485) R12 Frame(CFA_Y, -4)
        CFI (cfiCond485) R13 Frame(CFA_Y, -3)
        CFI (cfiCond485) R14 Frame(CFA_Y, -2)
        CFI (cfiCond485) R15 Frame(CFA_Y, -1)
        CFI (cfiCond485) CFA_SP SP+6
        CFI (cfiCond485) CFA_Y Y+34
        CFI Block cfiCond486 Using cfiCommon0
        CFI (cfiCond486) NoFunction
        CFI (cfiCond486) Conditional ??CrossCallReturnLabel_106
        CFI (cfiCond486) R24 Frame(CFA_Y, -16)
        CFI (cfiCond486) R25 Frame(CFA_Y, -15)
        CFI (cfiCond486) R26 Frame(CFA_Y, -14)
        CFI (cfiCond486) R27 Frame(CFA_Y, -13)
        CFI (cfiCond486) R4 Frame(CFA_Y, -12)
        CFI (cfiCond486) R5 Frame(CFA_Y, -11)
        CFI (cfiCond486) R6 Frame(CFA_Y, -10)
        CFI (cfiCond486) R7 Frame(CFA_Y, -9)
        CFI (cfiCond486) R8 Frame(CFA_Y, -8)
        CFI (cfiCond486) R9 Frame(CFA_Y, -7)
        CFI (cfiCond486) R10 Frame(CFA_Y, -6)
        CFI (cfiCond486) R11 Frame(CFA_Y, -5)
        CFI (cfiCond486) R12 Frame(CFA_Y, -4)
        CFI (cfiCond486) R13 Frame(CFA_Y, -3)
        CFI (cfiCond486) R14 Frame(CFA_Y, -2)
        CFI (cfiCond486) R15 Frame(CFA_Y, -1)
        CFI (cfiCond486) CFA_SP SP+6
        CFI (cfiCond486) CFA_Y Y+34
        CFI Block cfiCond487 Using cfiCommon0
        CFI (cfiCond487) NoFunction
        CFI (cfiCond487) Conditional ??CrossCallReturnLabel_107
        CFI (cfiCond487) R24 Frame(CFA_Y, -16)
        CFI (cfiCond487) R25 Frame(CFA_Y, -15)
        CFI (cfiCond487) R26 Frame(CFA_Y, -14)
        CFI (cfiCond487) R27 Frame(CFA_Y, -13)
        CFI (cfiCond487) R4 Frame(CFA_Y, -12)
        CFI (cfiCond487) R5 Frame(CFA_Y, -11)
        CFI (cfiCond487) R6 Frame(CFA_Y, -10)
        CFI (cfiCond487) R7 Frame(CFA_Y, -9)
        CFI (cfiCond487) R8 Frame(CFA_Y, -8)
        CFI (cfiCond487) R9 Frame(CFA_Y, -7)
        CFI (cfiCond487) R10 Frame(CFA_Y, -6)
        CFI (cfiCond487) R11 Frame(CFA_Y, -5)
        CFI (cfiCond487) R12 Frame(CFA_Y, -4)
        CFI (cfiCond487) R13 Frame(CFA_Y, -3)
        CFI (cfiCond487) R14 Frame(CFA_Y, -2)
        CFI (cfiCond487) R15 Frame(CFA_Y, -1)
        CFI (cfiCond487) CFA_SP SP+6
        CFI (cfiCond487) CFA_Y Y+34
        CFI Block cfiCond488 Using cfiCommon0
        CFI (cfiCond488) NoFunction
        CFI (cfiCond488) Conditional ??CrossCallReturnLabel_108
        CFI (cfiCond488) R24 Frame(CFA_Y, -9)
        CFI (cfiCond488) R25 Frame(CFA_Y, -8)
        CFI (cfiCond488) R26 Frame(CFA_Y, -7)
        CFI (cfiCond488) R27 Frame(CFA_Y, -6)
        CFI (cfiCond488) R4 Frame(CFA_Y, -5)
        CFI (cfiCond488) R5 Frame(CFA_Y, -4)
        CFI (cfiCond488) R6 Frame(CFA_Y, -3)
        CFI (cfiCond488) R7 Frame(CFA_Y, -2)
        CFI (cfiCond488) R8 Frame(CFA_Y, -1)
        CFI (cfiCond488) CFA_SP SP+6
        CFI (cfiCond488) CFA_Y Y+9
        CFI Block cfiPicker489 Using cfiCommon1
        CFI (cfiPicker489) NoFunction
        CFI (cfiPicker489) Picker
        LD	R16, X+
        LD	R17, X+
        LD	R18, X+
        LD	R19, X
        SBIW	R27:R26, 3
        OR	R16, R17
        OR	R16, R18
        OR	R16, R19
        RET
        CFI EndBlock cfiCond482
        CFI EndBlock cfiCond483
        CFI EndBlock cfiCond484
        CFI EndBlock cfiCond485
        CFI EndBlock cfiCond486
        CFI EndBlock cfiCond487
        CFI EndBlock cfiCond488
        CFI EndBlock cfiPicker489

        RSEG FARCODE:CODE:NOROOT(1)
?Subroutine53:
        CFI Block cfiCond490 Using cfiCommon0
        CFI NoFunction
        CFI Conditional ??CrossCallReturnLabel_71
        CFI R24 Frame(CFA_Y, -9)
        CFI R25 Frame(CFA_Y, -8)
        CFI R26 Frame(CFA_Y, -7)
        CFI R27 Frame(CFA_Y, -6)
        CFI R4 Frame(CFA_Y, -5)
        CFI R5 Frame(CFA_Y, -4)
        CFI R6 Frame(CFA_Y, -3)
        CFI R7 Frame(CFA_Y, -2)
        CFI R8 Frame(CFA_Y, -1)
        CFI CFA_SP SP+6
        CFI CFA_Y Y+9
        CFI Block cfiCond491 Using cfiCommon0
        CFI (cfiCond491) NoFunction
        CFI (cfiCond491) Conditional ??CrossCallReturnLabel_72
        CFI (cfiCond491) R24 Frame(CFA_Y, -9)
        CFI (cfiCond491) R25 Frame(CFA_Y, -8)
        CFI (cfiCond491) R26 Frame(CFA_Y, -7)
        CFI (cfiCond491) R27 Frame(CFA_Y, -6)
        CFI (cfiCond491) R4 Frame(CFA_Y, -5)
        CFI (cfiCond491) R5 Frame(CFA_Y, -4)
        CFI (cfiCond491) R6 Frame(CFA_Y, -3)
        CFI (cfiCond491) R7 Frame(CFA_Y, -2)
        CFI (cfiCond491) R8 Frame(CFA_Y, -1)
        CFI (cfiCond491) CFA_SP SP+6
        CFI (cfiCond491) CFA_Y Y+9
        CFI Block cfiPicker492 Using cfiCommon1
        CFI (cfiPicker492) NoFunction
        CFI (cfiPicker492) Picker
        MOVW	R17:R16, R7:R6
        MOV	R20, R21
        CFI Block cfiCond493 Using cfiCommon0
        CFI (cfiCond493) NoFunction
        CFI (cfiCond493) Conditional ??CrossCallReturnLabel_70
        CFI (cfiCond493) R24 Frame(CFA_Y, -2)
        CFI (cfiCond493) R25 Frame(CFA_Y, -1)
        CFI (cfiCond493) CFA_SP SP+6
        CFI (cfiCond493) CFA_Y Y+16
??Subroutine53_0:
        CALL	?US_SHR_L02
        ANDI	R16, 0x01
        RET
        CFI EndBlock cfiCond490
        CFI EndBlock cfiCond491
        CFI EndBlock cfiPicker492
        CFI EndBlock cfiCond493

        RSEG FARCODE:CODE:NOROOT(1)
?Subroutine41:
        CFI Block cfiCond494 Using cfiCommon0
        CFI NoFunction
        CFI Conditional ??CrossCallReturnLabel_51
        CFI R24 Frame(CFA_Y, -9)
        CFI R25 Frame(CFA_Y, -8)
        CFI R26 Frame(CFA_Y, -7)
        CFI R27 Frame(CFA_Y, -6)
        CFI R4 Frame(CFA_Y, -5)
        CFI R5 Frame(CFA_Y, -4)
        CFI R6 Frame(CFA_Y, -3)
        CFI R7 Frame(CFA_Y, -2)
        CFI R8 Frame(CFA_Y, -1)
        CFI CFA_SP SP+6
        CFI CFA_Y Y+9
        CFI Block cfiCond495 Using cfiCommon0
        CFI (cfiCond495) NoFunction
        CFI (cfiCond495) Conditional ??CrossCallReturnLabel_52
        CFI (cfiCond495) R24 Frame(CFA_Y, -9)
        CFI (cfiCond495) R25 Frame(CFA_Y, -8)
        CFI (cfiCond495) R26 Frame(CFA_Y, -7)
        CFI (cfiCond495) R27 Frame(CFA_Y, -6)
        CFI (cfiCond495) R4 Frame(CFA_Y, -5)
        CFI (cfiCond495) R5 Frame(CFA_Y, -4)
        CFI (cfiCond495) R6 Frame(CFA_Y, -3)
        CFI (cfiCond495) R7 Frame(CFA_Y, -2)
        CFI (cfiCond495) R8 Frame(CFA_Y, -1)
        CFI (cfiCond495) CFA_SP SP+6
        CFI (cfiCond495) CFA_Y Y+9
        CFI Block cfiPicker496 Using cfiCommon1
        CFI (cfiPicker496) NoFunction
        CFI (cfiPicker496) Picker
        MOV	R4, R21
        CLR	R5
        MOVW	R19:R18, R5:R4
        LSL	R18
        ROL	R19
        LSL	R18
        ROL	R19
        MOVW	R31:R30, R19:R18
        SUBI	R30, LOW((-(timer_tii) & 0xFFFF))
        SBCI	R31, (-(timer_tii) & 0xFFFF) >> 8
        LD	R0, Z
        LDD	R1, Z+1
        LDD	R2, Z+2
        LDD	R3, Z+3
        MOV	R16, R0
        OR	R16, R1
        OR	R16, R2
        OR	R16, R3
        RET
        CFI EndBlock cfiCond494
        CFI EndBlock cfiCond495
        CFI EndBlock cfiPicker496

        RSEG FARCODE:CODE:NOROOT(1)
?Subroutine35:
        CFI Block cfiCond497 Using cfiCommon0
        CFI NoFunction
        CFI Conditional ??CrossCallReturnLabel_258
        CFI R24 Frame(CFA_Y, -9)
        CFI R25 Frame(CFA_Y, -8)
        CFI R26 Frame(CFA_Y, -7)
        CFI R27 Frame(CFA_Y, -6)
        CFI R4 Frame(CFA_Y, -5)
        CFI R5 Frame(CFA_Y, -4)
        CFI R6 Frame(CFA_Y, -3)
        CFI R7 Frame(CFA_Y, -2)
        CFI R8 Frame(CFA_Y, -1)
        CFI CFA_SP SP+6
        CFI CFA_Y Y+9
        CFI Block cfiCond498 Using cfiCommon0
        CFI (cfiCond498) NoFunction
        CFI (cfiCond498) Conditional ??CrossCallReturnLabel_259
        CFI (cfiCond498) R24 Frame(CFA_Y, -9)
        CFI (cfiCond498) R25 Frame(CFA_Y, -8)
        CFI (cfiCond498) R26 Frame(CFA_Y, -7)
        CFI (cfiCond498) R27 Frame(CFA_Y, -6)
        CFI (cfiCond498) R4 Frame(CFA_Y, -5)
        CFI (cfiCond498) R5 Frame(CFA_Y, -4)
        CFI (cfiCond498) R6 Frame(CFA_Y, -3)
        CFI (cfiCond498) R7 Frame(CFA_Y, -2)
        CFI (cfiCond498) R8 Frame(CFA_Y, -1)
        CFI (cfiCond498) CFA_SP SP+6
        CFI (cfiCond498) CFA_Y Y+9
        CFI Block cfiPicker499 Using cfiCommon1
        CFI (cfiPicker499) NoFunction
        CFI (cfiPicker499) Picker
        LDI	R16, 1
        LDI	R17, 0
        MOV	R20, R21
        CALL	?S_SHL_L02
        MOVW	R23:R22, R17:R16
        MOVW	R31:R30, R27:R26
        LDD	R16, Z+26
        LDD	R17, Z+27
        AND	R16, R22
        AND	R17, R23
        RJMP	?Subroutine117
        CFI EndBlock cfiCond497
        CFI EndBlock cfiCond498
        CFI EndBlock cfiPicker499

        RSEG FARCODE:CODE:NOROOT(1)
?Subroutine24:
        CFI Block cfiCond500 Using cfiCommon0
        CFI NoFunction
        CFI Conditional ??CrossCallReturnLabel_31
        CFI R24 Frame(CFA_Y, -12)
        CFI R25 Frame(CFA_Y, -11)
        CFI R26 Frame(CFA_Y, -10)
        CFI R27 Frame(CFA_Y, -9)
        CFI R4 Frame(CFA_Y, -8)
        CFI R5 Frame(CFA_Y, -7)
        CFI R6 Frame(CFA_Y, -6)
        CFI R7 Frame(CFA_Y, -5)
        CFI R8 Frame(CFA_Y, -4)
        CFI R9 Frame(CFA_Y, -3)
        CFI R10 Frame(CFA_Y, -2)
        CFI R11 Frame(CFA_Y, -1)
        CFI CFA_SP SP+6
        CFI CFA_Y Y+12
        CFI Block cfiCond501 Using cfiCommon0
        CFI (cfiCond501) NoFunction
        CFI (cfiCond501) Conditional ??CrossCallReturnLabel_32
        CFI (cfiCond501) R24 Frame(CFA_Y, -9)
        CFI (cfiCond501) R25 Frame(CFA_Y, -8)
        CFI (cfiCond501) R26 Frame(CFA_Y, -7)
        CFI (cfiCond501) R27 Frame(CFA_Y, -6)
        CFI (cfiCond501) R4 Frame(CFA_Y, -5)
        CFI (cfiCond501) R5 Frame(CFA_Y, -4)
        CFI (cfiCond501) R6 Frame(CFA_Y, -3)
        CFI (cfiCond501) R7 Frame(CFA_Y, -2)
        CFI (cfiCond501) R8 Frame(CFA_Y, -1)
        CFI (cfiCond501) CFA_SP SP+6
        CFI (cfiCond501) CFA_Y Y+9
        CFI Block cfiPicker502 Using cfiCommon1
        CFI (cfiPicker502) NoFunction
        CFI (cfiPicker502) Picker
        LDI	R30, LOW(unix)
        LDI	R31, (unix) >> 8
        LD	R4, Z
        LDD	R5, Z+1
        LDD	R6, Z+2
        LDD	R7, Z+3
        RET
        CFI EndBlock cfiCond500
        CFI EndBlock cfiCond501
        CFI EndBlock cfiPicker502

        RSEG FARCODE:CODE:NOROOT(1)
?Subroutine20:
        CFI Block cfiCond503 Using cfiCommon0
        CFI NoFunction
        CFI Conditional ??CrossCallReturnLabel_29
        CFI R24 Frame(CFA_Y, -9)
        CFI R25 Frame(CFA_Y, -8)
        CFI R26 Frame(CFA_Y, -7)
        CFI R27 Frame(CFA_Y, -6)
        CFI R4 Frame(CFA_Y, -5)
        CFI R5 Frame(CFA_Y, -4)
        CFI R6 Frame(CFA_Y, -3)
        CFI R7 Frame(CFA_Y, -2)
        CFI R8 Frame(CFA_Y, -1)
        CFI CFA_SP SP+6
        CFI CFA_Y Y+9
        CFI Block cfiCond504 Using cfiCommon0
        CFI (cfiCond504) NoFunction
        CFI (cfiCond504) Conditional ??CrossCallReturnLabel_30
        CFI (cfiCond504) R24 Frame(CFA_Y, -9)
        CFI (cfiCond504) R25 Frame(CFA_Y, -8)
        CFI (cfiCond504) R26 Frame(CFA_Y, -7)
        CFI (cfiCond504) R27 Frame(CFA_Y, -6)
        CFI (cfiCond504) R4 Frame(CFA_Y, -5)
        CFI (cfiCond504) R5 Frame(CFA_Y, -4)
        CFI (cfiCond504) R6 Frame(CFA_Y, -3)
        CFI (cfiCond504) R7 Frame(CFA_Y, -2)
        CFI (cfiCond504) R8 Frame(CFA_Y, -1)
        CFI (cfiCond504) CFA_SP SP+6
        CFI (cfiCond504) CFA_Y Y+9
        CFI Block cfiPicker505 Using cfiCommon1
        CFI (cfiPicker505) NoFunction
        CFI (cfiPicker505) Picker
        MOVW	R31:R30, R19:R18
        SUBI	R30, LOW((-(cnt_moto) & 0xFFFF))
        SBCI	R31, (-(cnt_moto) & 0xFFFF) >> 8
        LD	R16, Z
        LDD	R17, Z+1
        LDD	R18, Z+2
        LDD	R19, Z+3
        SUBI	R16, 255
        SBCI	R17, 255
        SBCI	R18, 255
        SBCI	R19, 255
        ST	Z, R16
        STD	Z+1, R17
        STD	Z+2, R18
        STD	Z+3, R19
        RET
        CFI EndBlock cfiCond503
        CFI EndBlock cfiCond504
        CFI EndBlock cfiPicker505

        RSEG FARCODE:CODE:NOROOT(1)
?Subroutine18:
        CFI Block cfiCond506 Using cfiCommon0
        CFI NoFunction
        CFI Conditional ??CrossCallReturnLabel_25
        CFI R24 Frame(CFA_Y, -9)
        CFI R25 Frame(CFA_Y, -8)
        CFI R26 Frame(CFA_Y, -7)
        CFI R27 Frame(CFA_Y, -6)
        CFI R4 Frame(CFA_Y, -5)
        CFI R5 Frame(CFA_Y, -4)
        CFI R6 Frame(CFA_Y, -3)
        CFI R7 Frame(CFA_Y, -2)
        CFI R8 Frame(CFA_Y, -1)
        CFI CFA_SP SP+6
        CFI CFA_Y Y+9
        CFI Block cfiCond507 Using cfiCommon0
        CFI (cfiCond507) NoFunction
        CFI (cfiCond507) Conditional ??CrossCallReturnLabel_26
        CFI (cfiCond507) R24 Frame(CFA_Y, -9)
        CFI (cfiCond507) R25 Frame(CFA_Y, -8)
        CFI (cfiCond507) R26 Frame(CFA_Y, -7)
        CFI (cfiCond507) R27 Frame(CFA_Y, -6)
        CFI (cfiCond507) R4 Frame(CFA_Y, -5)
        CFI (cfiCond507) R5 Frame(CFA_Y, -4)
        CFI (cfiCond507) R6 Frame(CFA_Y, -3)
        CFI (cfiCond507) R7 Frame(CFA_Y, -2)
        CFI (cfiCond507) R8 Frame(CFA_Y, -1)
        CFI (cfiCond507) CFA_SP SP+6
        CFI (cfiCond507) CFA_Y Y+9
        CFI Block cfiPicker508 Using cfiCommon1
        CFI (cfiPicker508) NoFunction
        CFI (cfiPicker508) Picker
        LDI	R30, LOW(unix)
        LDI	R31, (unix) >> 8
        LD	R16, Z
        LDD	R17, Z+1
        LDD	R18, Z+2
        LDD	R19, Z+3
        CP	R16, R0
        CPC	R17, R1
        CPC	R18, R2
        CPC	R19, R3
        BRCS	??Subroutine18_0
        MOVW	R31:R30, R27:R26
        LDD	R16, Z+28
        LDD	R17, Z+29
        OR	R16, R22
        OR	R17, R23
        STD	Z+28, R16
        STD	Z+29, R17
        LDD	R16, Z+26
        LDD	R17, Z+27
        OR	R16, R22
        OR	R17, R23
        STD	Z+26, R16
        STD	Z+27, R17
??Subroutine18_0:
        RET
        CFI EndBlock cfiCond506
        CFI EndBlock cfiCond507
        CFI EndBlock cfiPicker508

        ASEGN ABSOLUTE:DATA:NOROOT,01fH
__?EECR:

        ASEGN ABSOLUTE:DATA:NOROOT,020H
__?EEDR:

        ASEGN ABSOLUTE:DATA:NOROOT,021H
__?EEARL:

        ASEGN ABSOLUTE:DATA:NOROOT,022H
__?EEARH:

        RSEG NEAR_ID:CODE:NOROOT(0)
`?<Initializer for timer_psm>`:
        DB 0, 0, 0, 0
`?<Initializer for unix_psm>`:
        DB 0, 0, 0, 0
`?<Initializer for timer_tit>`:
        DB 0, 0, 0, 0, 0, 0, 0, 0
`?<Initializer for start_tii_gzu>`:
        DB 0, 0, 0, 0
`?<Initializer for delta_ys>`:
        DB 0, 0, 0, 0
`?<Initializer for tii_moto>`:
        DB 0, 0
`?<Initializer for lock_bit>`:
        DB 0, 0
`?<Initializer for tii_bit>`:
        DB 0, 0
`?<Initializer for tii_bit_minut>`:
        DB 0, 0
`?<Initializer for cnt_sec>`:
        DB 0, 0
`?<Initializer for bit_zamer_psm>`:
        DB 0
`?<Initializer for lock_bit_tit>`:
        DB 0
`?<Initializer for tit_bit>`:
        DB 0
`?<Initializer for bit_level>`:
        DB 0
`?<Initializer for bit_level_psm>`:
        DB 0
`?<Initializer for tarhiv>`:
        DB 0
`?<Initializer for err_psm>`:
        DB 0
`?<Initializer for err_switch>`:
        DB 0
`?<Initializer for cnt_try_ys>`:
        DB 0
`?<Initializer for tekpsm>`:
        DB 0
`?<Initializer for pred_mask>`:
        DB 0
`?<Initializer for fin_ys>`:
        DB 0
`?<Initializer for count_sboj>`:
        DB 0
`?<Initializer for zadan_ys>`:
        DB 0
`?<Initializer for global_try>`:
        DB 3
`?<Initializer for sost_psm>`:
        DB 0

        RSEG INITTAB:CODE:NOROOT(0)
`?<Segment init: NEAR_I>`:
        DW	SFE(NEAR_I) - SFB(NEAR_I)
        DW	SFB(NEAR_I)
        DP	SFB(NEAR_ID)
        REQUIRE ?need_segment_init

        RSEG INITTAB:CODE:NOROOT(0)
`?<Segment init: NEAR_Z>`:
        DW	SFE(NEAR_Z) - SFB(NEAR_Z)
        DW	SFB(NEAR_Z)
        DP	0
        REQUIRE ?need_segment_init

        RSEG SWITCH:CODE:NOROOT(1)
`?<Jumptable for end_zamer>_0`:
        DW	0
        DB	1
        DP	(??end_zamer_14) /2
        DP	(??end_zamer_9) /2
        DB	0xa
        DP	(??end_zamer_1) /2
        DB	0xa
        DP	(??end_zamer_3) /2
        DB	0xa
        DP	(??end_zamer_4) /2
        DB	0x1e
        DP	(??end_zamer_5) /2
        DB	0x3c
        DP	(??end_zamer_6) /2
        DB	0x78
        DP	(??end_zamer_7) /2
        DB	0x78
        DP	(??end_zamer_8) /2
        DB	254,0x4,0x38
        DP	(??end_zamer_10) /2
        DB	251

        RSEG SWITCH:CODE:NOROOT(1)
`?<Jumptable for end_zamer_tit>_0`:
        DW	0
        DB	1
        DP	(??end_zamer_tit_16) /2
        DP	(??end_zamer_tit_2) /2
        DB	0x5
        DP	(??end_zamer_tit_3) /2
        DB	0x5
        DP	(??end_zamer_tit_5) /2
        DB	0xa
        DP	(??end_zamer_tit_6) /2
        DB	0xa
        DP	(??end_zamer_tit_7) /2
        DB	0x1e
        DP	(??end_zamer_tit_8) /2
        DB	0x3c
        DP	(??end_zamer_tit_9) /2
        DB	0x78
        DP	(??end_zamer_tit_10) /2
        DB	0x78
        DP	(??end_zamer_tit_11) /2
        DB	254,0x4,0x38
        DP	(??end_zamer_tit_12) /2
        DB	251

        END
// 2320 
// 2321  
// 2322   
// 2323   
// 2324   
// 2325   
// 2326   
// 2327 
// 2328 
// 2329 
// 
//     1 byte  in segment ABSOLUTE
// 5 908 bytes in segment FARCODE
//    14 bytes in segment INITTAB
//    50 bytes in segment NEAR_I
//    50 bytes in segment NEAR_ID
//   398 bytes in segment NEAR_Z
//    92 bytes in segment SWITCH
// 
// 6 050 bytes of CODE memory (+ 14 bytes shared)
//   448 bytes of DATA memory (+  1 byte  shared)
//
//Errors: none
//Warnings: none
