//////////////////////////////////////////////////////////////////////////////
//                                                                           /
//                                                     24/Oct/2025  13:29:17 /
// IAR Atmel AVR C/C++ Compiler V4.12A/W32, Evaluation Version               /
// Copyright 1996-2005 IAR Systems. All rights reserved.                     /
//                                                                           /
//    Source file  =  E:\sim800Elam2560_bootnew_i2cerr_a7682e\local.c        /
//    Command line =  E:\sim800Elam2560_bootnew_i2cerr_a7682e\local.c        /
//                    --cpu=m2560 -ms -o E:\sim800Elam2560_bootnew_i2cerr_a7 /
//                    682e\Debug\Obj\ -lCN E:\sim800Elam2560_bootnew_i2cerr_ /
//                    a7682e\Debug\List\ -lA E:\sim800Elam2560_bootnew_i2cer /
//                    r_a7682e\Debug\List\ -y --initializers_in_flash -z9    /
//                    --no_inline --no_tbaa --cross_call_passes=1 --debug    /
//                    -e -I "E:\box\IAR Systems\Embedded Workbench 4.0       /
//                    Evaluation\avr\INC\" -I "E:\box\IAR Systems\Embedded   /
//                    Workbench 4.0 Evaluation\avr\INC\DLIB\" --eeprom_size  /
//                    4096 --dlib_config "E:\box\IAR Systems\Embedded        /
//                    Workbench 4.0 Evaluation\avr\LIB\DLIB\dlAVR-5s-ec-n.h" /
//    List file    =  E:\sim800Elam2560_bootnew_i2cerr_a7682e\Debug\List\loc /
//                    al.s90                                                 /
//                                                                           /
//                                                                           /
//////////////////////////////////////////////////////////////////////////////

        NAME local

        RTMODEL "__64bit_doubles", "disabled"
        RTMODEL "__cpu", "5"
        RTMODEL "__cpu_name", "ATmega2560"
        RTMODEL "__enhanced_core", "enabled"
        RTMODEL "__has_elpm", "true"
        RTMODEL "__memory_model", "2"
        RTMODEL "__no_rampd", "enabled"
        RTMODEL "__rt_version", "3"

        RSEG CSTACK:DATA:NOROOT(0)
        RSEG RSTACK:DATA:NOROOT(0)

        EXTERN ?EPILOGUE_B11_L09
        EXTERN ?EPILOGUE_B12_L09
        EXTERN ?EPILOGUE_B13_L09
        EXTERN ?EPILOGUE_B16_L09
        EXTERN ?EPILOGUE_B3_L09
        EXTERN ?EPILOGUE_B4_L09
        EXTERN ?EPILOGUE_B5_L09
        EXTERN ?EPILOGUE_B6_L09
        EXTERN ?EPILOGUE_B8_L09
        EXTERN ?EPILOGUE_B9_L09
        EXTERN ?L_EC_MUL_L03
        EXTERN ?PROLOGUE11_L09
        EXTERN ?PROLOGUE12_L09
        EXTERN ?PROLOGUE13_L09
        EXTERN ?PROLOGUE16_L09
        EXTERN ?PROLOGUE3_L09
        EXTERN ?PROLOGUE4_L09
        EXTERN ?PROLOGUE5_L09
        EXTERN ?PROLOGUE6_L09
        EXTERN ?PROLOGUE8_L09
        EXTERN ?PROLOGUE9_L09
        EXTERN ?Register_R10_is_cg_reg
        EXTERN ?Register_R11_is_cg_reg
        EXTERN ?Register_R12_is_cg_reg
        EXTERN ?Register_R13_is_cg_reg
        EXTERN ?Register_R14_is_cg_reg
        EXTERN ?Register_R15_is_cg_reg
        EXTERN ?Register_R4_is_cg_reg
        EXTERN ?Register_R5_is_cg_reg
        EXTERN ?Register_R6_is_cg_reg
        EXTERN ?Register_R7_is_cg_reg
        EXTERN ?Register_R8_is_cg_reg
        EXTERN ?Register_R9_is_cg_reg
        EXTERN ?SV_SWITCH_L06
        EXTERN ?S_EC_MUL_L02
        EXTERN ?S_SHL_L02
        EXTERN ?UC_DIVMOD_L01
        EXTERN ?UL_DIVMOD_L03
        EXTERN ?US_SHR_L02
        EXTERN ?need_segment_init

        PUBWEAK `?<Segment init: NEAR_I>`
        PUBWEAK `?<Segment init: NEAR_Z>`
?Subroutine30 EQU 0
?Subroutine57 EQU 0
?Subroutine73 EQU 0
        PUBWEAK _A_PORTA
        PUBWEAK __?EEARH
        PUBWEAK __?EEARL
        PUBWEAK __?EECR
        PUBWEAK __?EEDR
        PUBLIC arr_tii_32
        PUBLIC bit_level
        PUBLIC bit_level_psm
        PUBLIC bit_zamer_psm
        PUBLIC c1_byte
        PUBLIC c2_byte
        PUBLIC cnt_moto
        PUBLIC cnt_sec
        PUBLIC cnt_try_ys
        PUBLIC count_sboj
        PUBLIC count_try
        PUBLIC crc_sum
        FUNCTION crc_sum,0203H
        LOCFRAME RSTACK, 3, STACK
        PUBLIC day_accum
        PUBLIC day_chan
        PUBLIC day_good
        PUBLIC day_unix
        PUBLIC day_zamer
        FUNCTION day_zamer,021203H
        LOCFRAME CSTACK, 30, STACK
        LOCFRAME RSTACK, 6, STACK
        PUBLIC day_zap
        PUBLIC delta_ys
        PUBLIC end_zamer
        FUNCTION end_zamer,021203H
        LOCFRAME CSTACK, 13, STACK
        LOCFRAME RSTACK, 6, STACK
        PUBLIC end_zamer_tit
        FUNCTION end_zamer_tit,021203H
        LOCFRAME CSTACK, 12, STACK
        LOCFRAME RSTACK, 6, STACK
        PUBLIC energy_plus
        FUNCTION energy_plus,021203H
        LOCFRAME CSTACK, 13, STACK
        LOCFRAME RSTACK, 6, STACK
        PUBLIC err_psm
        PUBLIC err_switch
        PUBLIC fin_ys
        PUBLIC global_try
        PUBLIC insert_zapis_kd
        FUNCTION insert_zapis_kd,021203H
        LOCFRAME CSTACK, 24, STACK
        LOCFRAME RSTACK, 6, STACK
        PUBLIC insert_zapis_tc
        FUNCTION insert_zapis_tc,021203H
        LOCFRAME CSTACK, 20, STACK
        LOCFRAME RSTACK, 6, STACK
        PUBLIC insert_zapis_tit
        FUNCTION insert_zapis_tit,021203H
        LOCFRAME CSTACK, 20, STACK
        LOCFRAME RSTACK, 6, STACK
        PUBLIC local_psm
        FUNCTION local_psm,021203H
        LOCFRAME CSTACK, 34, STACK
        LOCFRAME RSTACK, 6, STACK
        PUBLIC lock_arh
        FUNCTION lock_arh,021203H
        LOCFRAME CSTACK, 1, STACK
        LOCFRAME RSTACK, 6, STACK
        PUBLIC lock_arh_tit
        FUNCTION lock_arh_tit,021203H
        LOCFRAME CSTACK, 1, STACK
        LOCFRAME RSTACK, 6, STACK
        PUBLIC lock_bit
        PUBLIC lock_bit_tit
        PUBLIC old_realsec
        PUBLIC pred_mask
        PUBLIC read_arhiv_tii
        FUNCTION read_arhiv_tii,021203H
        LOCFRAME CSTACK, 24, STACK
        LOCFRAME RSTACK, 6, STACK
        PUBLIC refresh_a
        FUNCTION refresh_a,021203H
        LOCFRAME CSTACK, 4, STACK
        LOCFRAME RSTACK, 3, STACK
        PUBLIC set_end_time
        FUNCTION set_end_time,0203H
        LOCFRAME CSTACK, 9, STACK
        LOCFRAME RSTACK, 6, STACK
        PUBLIC set_time_day_zamer
        FUNCTION set_time_day_zamer,0203H
        LOCFRAME CSTACK, 6, STACK
        LOCFRAME RSTACK, 6, STACK
        PUBLIC sost_psm
        PUBLIC start_a
        FUNCTION start_a,021203H
        LOCFRAME CSTACK, 8, STACK
        LOCFRAME RSTACK, 3, STACK
        PUBLIC start_aa
        FUNCTION start_aa,021203H
        LOCFRAME CSTACK, 4, STACK
        LOCFRAME RSTACK, 3, STACK
        PUBLIC start_day_zamer
        PUBLIC start_tii_gzu
        PUBLIC start_ttii
        PUBLIC store_tii
        FUNCTION store_tii,021203H
        LOCFRAME CSTACK, 26, STACK
        LOCFRAME RSTACK, 6, STACK
        PUBLIC store_tii_lock
        FUNCTION store_tii_lock,021203H
        LOCFRAME CSTACK, 26, STACK
        LOCFRAME RSTACK, 6, STACK
        PUBLIC store_tit_lock
        FUNCTION store_tit_lock,021203H
        LOCFRAME CSTACK, 24, STACK
        LOCFRAME RSTACK, 6, STACK
        PUBLIC store_ys
        FUNCTION store_ys,021203H
        LOCFRAME CSTACK, 4, STACK
        LOCFRAME RSTACK, 3, STACK
        PUBLIC store_ys_lock
        FUNCTION store_ys_lock,021203H
        LOCFRAME CSTACK, 26, STACK
        LOCFRAME RSTACK, 6, STACK
        PUBLIC store_ys_minut
        FUNCTION store_ys_minut,021203H
        LOCFRAME CSTACK, 26, STACK
        LOCFRAME RSTACK, 6, STACK
        PUBLIC tarhiv
        PUBLIC tekpsm
        PUBLIC test_nenull
        FUNCTION test_nenull,0203H
        LOCFRAME RSTACK, 3, STACK
        PUBLIC test_switch_psm
        FUNCTION test_switch_psm,0203H
        LOCFRAME RSTACK, 3, STACK
        PUBLIC tii_bit
        PUBLIC tii_bit_minut
        PUBLIC tii_moto
        PUBLIC time_sutok
        PUBLIC timer_psm
        PUBLIC timer_tii
        PUBLIC timer_tit
        PUBLIC tit_bit
        PUBLIC try_find_arhiv
        FUNCTION try_find_arhiv,021203H
        LOCFRAME CSTACK, 29, STACK
        LOCFRAME RSTACK, 6, STACK
        PUBLIC try_form_arhiv
        FUNCTION try_form_arhiv,021203H
        LOCFRAME CSTACK, 26, STACK
        LOCFRAME RSTACK, 6, STACK
        PUBLIC try_ty
        PUBLIC unix_psm
        PUBLIC zadan_ys
        
        CFI Names cfiNames0
        CFI StackFrame CFA_Y Y DATA
        CFI StackFrame CFA_SP SP DATA
        CFI VirtualResource ?RetPad:1, ?RetByte3:8, ?RetHigh:8, ?RetLow:8
        CFI VirtualResource ?Ret:25
        CFI Resource R0:8, R1:8, R2:8, R3:8, R4:8, R5:8, R6:8, R7:8, R8:8, R9:8
        CFI Resource R10:8, R11:8, R12:8, R13:8, R14:8, R15:8, R16:8, R17:8
        CFI Resource R18:8, R19:8, R20:8, R21:8, R22:8, R23:8, R24:8, R25:8
        CFI Resource R26:8, R27:8, R28:8, R29:8, R30:8, R31:8
        CFI Resource ?RetHighByteMask:8, SP:16, SPH:8, SPL:8, Y:16
        CFI ResourceParts ?Ret ?RetByte3, ?RetHigh, ?RetLow, ?RetPad
        CFI ResourceParts SP SPH, SPL
        CFI ResourceParts Y R29, R28
        CFI EndNames cfiNames0
        
        CFI Common cfiCommon0 Using cfiNames0
        CFI CodeAlign 1
        CFI DataAlign 1
        CFI ReturnAddress ?Ret CODE
        CFI CFA_Y Y+0
        CFI CFA_SP SP+3
        CFI ?RetPad 0
        CFI ?RetByte3 and(load(1, DATA, sub(CFA_SP, 2)), ?RetHighByteMask)
        CFI ?RetHigh Frame(CFA_SP, -1)
        CFI ?RetLow Frame(CFA_SP, 0)
        CFI ?Ret Concat
        CFI R0 Undefined
        CFI R1 Undefined
        CFI R2 Undefined
        CFI R3 Undefined
        CFI R4 SameValue
        CFI R5 SameValue
        CFI R6 SameValue
        CFI R7 SameValue
        CFI R8 SameValue
        CFI R9 SameValue
        CFI R10 SameValue
        CFI R11 SameValue
        CFI R12 SameValue
        CFI R13 SameValue
        CFI R14 SameValue
        CFI R15 SameValue
        CFI R16 Undefined
        CFI R17 Undefined
        CFI R18 Undefined
        CFI R19 Undefined
        CFI R20 Undefined
        CFI R21 Undefined
        CFI R22 Undefined
        CFI R23 Undefined
        CFI R24 SameValue
        CFI R25 SameValue
        CFI R26 SameValue
        CFI R27 SameValue
        CFI R28 Undefined
        CFI R29 Undefined
        CFI R30 Undefined
        CFI R31 Undefined
        CFI ?RetHighByteMask SameValue
        CFI SPH Undefined
        CFI SPL Undefined
        CFI EndCommon cfiCommon0
        
        
        CFI Common cfiCommon1 Using cfiNames0
        CFI CodeAlign 1
        CFI DataAlign 1
        CFI ReturnAddress ?Ret CODE
        CFI CFA_Y Notused
        CFI CFA_SP SP+3
        CFI ?RetPad 0
        CFI ?RetByte3 and(load(1, DATA, sub(CFA_SP, 2)), ?RetHighByteMask)
        CFI ?RetHigh Frame(CFA_SP, -1)
        CFI ?RetLow Frame(CFA_SP, 0)
        CFI ?Ret Concat
        CFI R0 SameValue
        CFI R1 SameValue
        CFI R2 SameValue
        CFI R3 SameValue
        CFI R4 SameValue
        CFI R5 SameValue
        CFI R6 SameValue
        CFI R7 SameValue
        CFI R8 SameValue
        CFI R9 SameValue
        CFI R10 SameValue
        CFI R11 SameValue
        CFI R12 SameValue
        CFI R13 SameValue
        CFI R14 SameValue
        CFI R15 SameValue
        CFI R16 SameValue
        CFI R17 SameValue
        CFI R18 SameValue
        CFI R19 SameValue
        CFI R20 SameValue
        CFI R21 SameValue
        CFI R22 SameValue
        CFI R23 SameValue
        CFI R24 SameValue
        CFI R25 SameValue
        CFI R26 SameValue
        CFI R27 SameValue
        CFI R28 Undefined
        CFI R29 Undefined
        CFI R30 SameValue
        CFI R31 SameValue
        CFI ?RetHighByteMask SameValue
        CFI SPH Undefined
        CFI SPL Undefined
        CFI Y SameValue
        CFI EndCommon cfiCommon1
        
        EXTERN RdFromFleshToArr
        FUNCTION RdFromFleshToArr,0202H
        EXTERN WrArrayToFlesh
        FUNCTION WrArrayToFlesh,0202H
        EXTERN bpa_avtomat
        FUNCTION bpa_avtomat,0202H
        EXTERN burst_ds_r
        FUNCTION burst_ds_r,0202H
        EXTERN kodec
        EXTERN modbus_mem1
        EXTERN real_time
        EXTERN sel_modul
        EXTERN unix

// E:\sim800Elam2560_bootnew_i2cerr_a7682e\local.c
//    1 #include <iom2560.h>      

        ASEGN ABSOLUTE:DATA:NOROOT,022H
// union <unnamed> volatile __io _A_PORTA
_A_PORTA:
        DS 1
//    2 #include <inavr.h>
//    3 
//    4 #include "map_ef.h"
//    5 #include "map_mbus.h"
//    6 #include "dfcnst.h"
//    7 #include "dfpin.h"
//    8 #include "dfproc.h"
//    9 #include "bpa.h"
//   10 
//   11 //__flash char prov1[]={'P','R','O','V','1'};
//   12 //__flash char prov2[]={'P','R','O','V','2'};
//   13 char try_find_arhiv(unsigned long int matrix,char m);
//   14 char try_form_arhiv(char m);
//   15 
//   16 extern void RdFromFleshToArr(unsigned int adres_flesh, unsigned char *adres_ozu,unsigned int num);
//   17 extern void WrArrayToFlesh(unsigned int adres_flesh,  unsigned char *adres_ozu, unsigned int num,unsigned char flag,unsigned char znach);
//   18 
//   19 int crc_sum(unsigned char *ff,unsigned char kol);
//   20 
//   21 extern unsigned long int burst_ds_r(void);
//   22              
//   23 extern unsigned int modbus_mem1[SEG1];
//   24                  
//   25 extern void s_port(unsigned char ch); 
//   26 
//   27 //extern void send_info(char size,char __flash *p,unsigned char fl_id,unsigned char id);
//   28 
//   29   /*                                      
//   30    extern   union
//   31             {
//   32           char arr_tii_byte[32];
//   33           unsigned int  arr_tii[16];
//   34             } sstii; 
//   35     
//   36   */
//   37  
//   38      
//   39       
//   40 // для разрешения счета мотоминут
//   41 // аналогично как в УЗЭП надо сделать
//   42 union
//   43             {                        // структура байта управления
//   44              unsigned int config;
//   45              struct
//   46                    {
//   47                    unsigned int interval_zamera      :11;       // 
//   48                    unsigned int type_zam   :2;
//   49                    unsigned int TC_zam     :3;  
//   50                   // unsigned int level_tc             :1;       // ТС_ON_OFF
//   51                   // unsigned int nomer_tc             :3;       // номер ТС 0-7
//   52                   // unsigned int enable               :1;  
//   53                    }  bit;
//   54              }tii_moto; 
//   55 
//   56 
//   57  
//   58  
//   59    
//   60    extern  struct
//   61         { // в двоичном коде
//   62           char r_sec;
//   63           char r_min;
//   64           char r_hor;
//   65           char r_day;
//   66           char r_date;
//   67           char r_month;
//   68           char r_year;
//   69           char r_control;
//   70         }  real_time;
//   71 
//   72 

        RSEG NEAR_Z:DATA:NOROOT(0)
        REQUIRE `?<Segment init: NEAR_Z>`
//   73 unsigned long int cnt_moto[16];
cnt_moto:
        DS 64
//   74 
//   75  
//   76   
//   77  
//   78 
//   79 
//   80  //YES!!! //YES!!! //YES!!! 
//   81 
//   82 //char err_cnt[8];
//   83 
//   84 union {
//   85        unsigned char mb[SEG3*2];//байтовый массив 

        RSEG NEAR_Z:DATA:NOROOT(0)
        REQUIRE `?<Segment init: NEAR_Z>`
//   86        } c2_byte; //1я страница конфигурации 
c2_byte:
        DS 68
//   87 
//   88 union {
//   89        unsigned char mb[SEG99*2];//байтовый массив 

        RSEG NEAR_Z:DATA:NOROOT(0)
        REQUIRE `?<Segment init: NEAR_Z>`
//   90        } c1_byte; // страница конфигурации ГЗУ 
c1_byte:
        DS 40
//   91 
//   92 char bit_zamer_psm,sost_psm ;
//   93 unsigned long int timer_psm,unix_psm;
//   94 

        RSEG NEAR_Z:DATA:NOROOT(0)
        REQUIRE `?<Segment init: NEAR_Z>`
//   95 unsigned long int timer_tii[16],timer_tit[2];
timer_tii:
        DS 64

        RSEG NEAR_Z:DATA:NOROOT(0)
        REQUIRE `?<Segment init: NEAR_Z>`
//   96 char old_realsec[16];
old_realsec:
        DS 16
//   97 
//   98 unsigned int lock_bit,tii_bit,tii_bit_minut;
//   99 unsigned char lock_bit_tit,tit_bit;
//  100 
//  101 extern unsigned long int unix; 
//  102 
//  103 extern char kodec[4];
//  104 extern unsigned char sel_modul;
//  105 //char arr_cnt_tii_heap;
//  106 
//  107 char bit_level,bit_level_psm; 
//  108 
//  109 unsigned char tarhiv;

        RSEG NEAR_Z:DATA:NOROOT(0)
        REQUIRE `?<Segment init: NEAR_Z>`
//  110 unsigned long int start_ttii[16],arr_tii_32[16],start_tii_gzu,delta_ys;
start_ttii:
        DS 64

        RSEG NEAR_Z:DATA:NOROOT(0)
        REQUIRE `?<Segment init: NEAR_Z>`
arr_tii_32:
        DS 64
//  111 unsigned int cnt_sec;
//  112 //YES!!!  //YES!!! //YES!!! //YES!!! 
//  113 
//  114 

        RSEG NEAR_Z:DATA:NOROOT(0)
        REQUIRE `?<Segment init: NEAR_Z>`
//  115 unsigned long int day_accum; 
day_accum:
        DS 4
//  116 char day_chan,day_zap,start_day_zamer,day_good;
//  117 unsigned long int day_unix,time_sutok;
day_unix:
        DS 4
time_sutok:
        DS 4
day_chan:
        DS 1
day_zap:
        DS 1
start_day_zamer:
        DS 1
day_good:
        DS 1
//  118 

        RSEG NEAR_Z:DATA:NOROOT(0)
        REQUIRE `?<Segment init: NEAR_Z>`
//  119 char err_psm,err_switch,cnt_try_ys,tekpsm,pred_mask,fin_ys,count_try,count_sboj,try_ty;
count_try:
        DS 1

        RSEG NEAR_Z:DATA:NOROOT(0)
        REQUIRE `?<Segment init: NEAR_Z>`
try_ty:
        DS 1

        RSEG NEAR_I:DATA:NOROOT(0)
        REQUIRE `?<Segment init: NEAR_I>`
timer_psm:
        DS 4
        REQUIRE `?<Initializer for timer_psm>`
unix_psm:
        DS 4
        REQUIRE `?<Initializer for unix_psm>`
timer_tit:
        DS 8
        REQUIRE `?<Initializer for timer_tit>`
start_tii_gzu:
        DS 4
        REQUIRE `?<Initializer for start_tii_gzu>`
delta_ys:
        DS 4
        REQUIRE `?<Initializer for delta_ys>`
tii_moto:
        DS 2
        REQUIRE `?<Initializer for tii_moto>`
lock_bit:
        DS 2
        REQUIRE `?<Initializer for lock_bit>`
tii_bit:
        DS 2
        REQUIRE `?<Initializer for tii_bit>`
tii_bit_minut:
        DS 2
        REQUIRE `?<Initializer for tii_bit_minut>`
cnt_sec:
        DS 2
        REQUIRE `?<Initializer for cnt_sec>`
bit_zamer_psm:
        DS 1
        REQUIRE `?<Initializer for bit_zamer_psm>`
lock_bit_tit:
        DS 1
        REQUIRE `?<Initializer for lock_bit_tit>`
tit_bit:
        DS 1
        REQUIRE `?<Initializer for tit_bit>`
bit_level:
        DS 1
        REQUIRE `?<Initializer for bit_level>`
bit_level_psm:
        DS 1
        REQUIRE `?<Initializer for bit_level_psm>`
tarhiv:
        DS 1
        REQUIRE `?<Initializer for tarhiv>`
err_psm:
        DS 1
        REQUIRE `?<Initializer for err_psm>`
err_switch:
        DS 1
        REQUIRE `?<Initializer for err_switch>`
cnt_try_ys:
        DS 1
        REQUIRE `?<Initializer for cnt_try_ys>`
tekpsm:
        DS 1
        REQUIRE `?<Initializer for tekpsm>`
pred_mask:
        DS 1
        REQUIRE `?<Initializer for pred_mask>`
fin_ys:
        DS 1
        REQUIRE `?<Initializer for fin_ys>`
count_sboj:
        DS 1
        REQUIRE `?<Initializer for count_sboj>`
//  120 char zadan_ys,global_try=3,sost_psm;
zadan_ys:
        DS 1
        REQUIRE `?<Initializer for zadan_ys>`
global_try:
        DS 1
        REQUIRE `?<Initializer for global_try>`
sost_psm:
        DS 1
        REQUIRE `?<Initializer for sost_psm>`
//  121  
//  122 
//  123 
//  124 ///////// 
//  125 //////////////////////
//  126 void end_zamer(char m);
//  127 unsigned long int set_end_time(char mi,char ch,char da,char ma,char ye);
//  128 
//  129 

        RSEG FARCODE:CODE:NOROOT(1)
//  130 void insert_zapis_kd(unsigned char nomer,unsigned char type)
insert_zapis_kd:
        CFI Block cfiBlock0 Using cfiCommon0
        CFI Function insert_zapis_kd
//  131 {
        FUNCALL insert_zapis_kd, RdFromFleshToArr
        LOCFRAME CSTACK, 24, STACK
        LOCFRAME RSTACK, 3, STACK
        FUNCALL insert_zapis_kd, crc_sum
        LOCFRAME CSTACK, 24, STACK
        LOCFRAME RSTACK, 3, STACK
        FUNCALL insert_zapis_kd, WrArrayToFlesh
        LOCFRAME CSTACK, 24, STACK
        LOCFRAME RSTACK, 3, STACK
        FUNCALL insert_zapis_kd, WrArrayToFlesh
        LOCFRAME CSTACK, 24, STACK
        LOCFRAME RSTACK, 3, STACK
        CALL	?PROLOGUE3_L09
        CFI R26 Frame(CFA_Y, -1)
        CFI R25 Frame(CFA_Y, -2)
        CFI R24 Frame(CFA_Y, -3)
        CFI CFA_Y Y+3
        SBIW	R29:R28, 18
        CFI CFA_Y Y+21
        MOV	R24, R16
        MOV	R26, R17
//  132      unsigned char i,buf[4];
//  133      unsigned char zapis[14];
//  134 
//  135      for(i=0;i<12;i++)zapis[i]=0;
        LDI	R16, 0
??insert_zapis_kd_0:
        LDI	R18, 0
        MOVW	R31:R30, R29:R28
        RCALL	?Subroutine15
??CrossCallReturnLabel_16:
        CPI	R16, 12
        BRCS	??insert_zapis_kd_0
//  136       *(unsigned long int*)&zapis[0]=unix;
        RCALL	?Subroutine22
//  137       zapis[4]=0;
??CrossCallReturnLabel_219:
        LDI	R16, 0
        STD	Y+4, R16
//  138       zapis[5]=0;
        STD	Y+5, R16
//  139       for(i=0;i<6;i++)zapis[4+i]=0;
??insert_zapis_kd_1:
        LDI	R18, 0
        MOVW	R31:R30, R29:R28
        ADIW	R31:R30, 4
        LDI	R17, 0
        RCALL	?Subroutine15
??CrossCallReturnLabel_17:
        CPI	R16, 6
        BRCS	??insert_zapis_kd_1
//  140     //  if(nomer!=0)for(i=0;i<4;i++)zapis[6+i]=tab_proxy[(nomer-1)*4+i];   
//  141       
//  142       if(nomer!=0)
        TST	R24
        BREQ	??insert_zapis_kd_2
//  143       {
//  144         
//  145         if(nomer!=254)
        CPI	R24, 254
        BREQ	??insert_zapis_kd_3
//  146         {
//  147         RdFromFleshToArr(A_SEG6+((nomer-1)*4),&buf[0],4);
        LDI	R20, 4
        LDI	R21, 0
        MOVW	R19:R18, R29:R28
        SUBI	R18, 242
        SBCI	R19, 255
        MUL	R24, R20
        LDI	R16, 252
        ADD	R0, R16
        LDI	R16, 47
        ADC	R1, R16
        MOVW	R17:R16, R1:R0
        CALL	?Subroutine39
//  148         for(i=0;i<4;i++)zapis[6+i]=buf[i]; 
??CrossCallReturnLabel_48:
        LDI	R16, 0
??insert_zapis_kd_4:
        LDI	R19, 0
        MOVW	R31:R30, R29:R28
        ADIW	R31:R30, 14
        ADD	R30, R16
        ADC	R31, R19
        RCALL	?Subroutine8
??CrossCallReturnLabel_6:
        BRCC	??insert_zapis_kd_5
        RJMP	??insert_zapis_kd_4
//  149         }
//  150         else
//  151         {
//  152           for(i=0;i<4;i++)zapis[6+i]=kodec[i];
??insert_zapis_kd_3:
        LDI	R16, 0
??insert_zapis_kd_6:
        MOV	R18, R16
        LDI	R19, 0
        MOVW	R31:R30, R19:R18
        SUBI	R30, LOW((-(kodec) & 0xFFFF))
        SBCI	R31, (-(kodec) & 0xFFFF) >> 8
        RCALL	?Subroutine8
??CrossCallReturnLabel_7:
        BRCC	??insert_zapis_kd_5
        RJMP	??insert_zapis_kd_6
//  153         }
//  154         
//  155       }
//  156       
//  157       if(nomer==0)
//  158       {
//  159        for(i=0;i<4;i++)zapis[6+i]=0x55;
??insert_zapis_kd_2:
        LDI	R16, 0
??insert_zapis_kd_7:
        LDI	R18, 85
        MOVW	R31:R30, R29:R28
        ADIW	R31:R30, 6
        RCALL	??Subroutine16_0
??CrossCallReturnLabel_20:
        ST	Z, R18
        INC	R16
        CPI	R16, 4
        BRCS	??insert_zapis_kd_7
//  160       }
//  161       
//  162 
//  163       *(unsigned int*)&zapis[4]=nomer;
??insert_zapis_kd_5:
        LDI	R25, 0
        STD	Y+4, R24
        STD	Y+5, R25
//  164       *(unsigned int*)&zapis[10]=type;  
        STD	Y+10, R26
        STD	Y+11, R25
//  165       *(unsigned int*)&zapis[12]=crc_sum(&zapis[0],12); 
        LDI	R18, 12
        MOVW	R17:R16, R29:R28
        RCALL	crc_sum
        STD	Y+12, R16
        STD	Y+13, R17
//  166      
//  167      WrArrayToFlesh(STRUCT_TII_HEAP + (int)modbus_mem1[AD_IND_DNS]*14,&zapis[0],14,0,0);      
        RCALL	?Subroutine44
??CrossCallReturnLabel_53:
        RCALL	??Subroutine3_0
//  168      modbus_mem1[AD_IND_DNS]++;
//  169      if ( modbus_mem1[AD_IND_DNS] >99 ) {modbus_mem1[AD_IND_DNS]=0;}          
//  170      i=modbus_mem1[AD_IND_DNS];     
//  171      WrArrayToFlesh(A_IND_DNS,0,1,1,i);
//  172 }
??CrossCallReturnLabel_269:
        ADIW	R29:R28, 18
        CFI CFA_Y Y+3
        LDI	R30, 3
        JMP	?EPILOGUE_B3_L09
        CFI EndBlock cfiBlock0

        RSEG FARCODE:CODE:NOROOT(1)
?Subroutine15:
        CFI Block cfiCond1 Using cfiCommon0
        CFI NoFunction
        CFI Conditional ??CrossCallReturnLabel_16
        CFI R24 Frame(CFA_Y, -3)
        CFI R25 Frame(CFA_Y, -2)
        CFI R26 Frame(CFA_Y, -1)
        CFI CFA_SP SP+6
        CFI CFA_Y Y+21
        CFI Block cfiCond2 Using cfiCommon0
        CFI (cfiCond2) NoFunction
        CFI (cfiCond2) Conditional ??CrossCallReturnLabel_17
        CFI (cfiCond2) R24 Frame(CFA_Y, -3)
        CFI (cfiCond2) R25 Frame(CFA_Y, -2)
        CFI (cfiCond2) R26 Frame(CFA_Y, -1)
        CFI (cfiCond2) CFA_SP SP+6
        CFI (cfiCond2) CFA_Y Y+21
        CFI Block cfiPicker3 Using cfiCommon1
        CFI (cfiPicker3) NoFunction
        CFI (cfiPicker3) Picker
        ADD	R30, R16
        ADC	R31, R18
        ST	Z, R18
        INC	R16
        RET
        CFI EndBlock cfiCond1
        CFI EndBlock cfiCond2
        CFI EndBlock cfiPicker3

        RSEG FARCODE:CODE:NOROOT(1)
?Subroutine8:
        CFI Block cfiCond4 Using cfiCommon0
        CFI NoFunction
        CFI Conditional ??CrossCallReturnLabel_6
        CFI R24 Frame(CFA_Y, -3)
        CFI R25 Frame(CFA_Y, -2)
        CFI R26 Frame(CFA_Y, -1)
        CFI CFA_SP SP+6
        CFI CFA_Y Y+21
        CFI Block cfiCond5 Using cfiCommon0
        CFI (cfiCond5) NoFunction
        CFI (cfiCond5) Conditional ??CrossCallReturnLabel_7
        CFI (cfiCond5) R24 Frame(CFA_Y, -3)
        CFI (cfiCond5) R25 Frame(CFA_Y, -2)
        CFI (cfiCond5) R26 Frame(CFA_Y, -1)
        CFI (cfiCond5) CFA_SP SP+6
        CFI (cfiCond5) CFA_Y Y+21
        CFI Block cfiPicker6 Using cfiCommon1
        CFI (cfiPicker6) NoFunction
        CFI (cfiPicker6) Picker
        LD	R17, Z
        MOVW	R31:R30, R29:R28
        ADIW	R31:R30, 6
        ADD	R30, R16
        ADC	R31, R19
        ST	Z, R17
        INC	R16
        CPI	R16, 4
        RET
        CFI EndBlock cfiCond4
        CFI EndBlock cfiCond5
        CFI EndBlock cfiPicker6
//  173 
//  174 
//  175 
//  176 

        RSEG FARCODE:CODE:NOROOT(1)
//  177 void insert_zapis_tc(unsigned char nomer, unsigned char kod)
insert_zapis_tc:
        CFI Block cfiBlock7 Using cfiCommon0
        CFI Function insert_zapis_tc
//  178 {
        FUNCALL insert_zapis_tc, crc_sum
        LOCFRAME CSTACK, 20, STACK
        LOCFRAME RSTACK, 3, STACK
        FUNCALL insert_zapis_tc, WrArrayToFlesh
        LOCFRAME CSTACK, 20, STACK
        LOCFRAME RSTACK, 3, STACK
        FUNCALL insert_zapis_tc, WrArrayToFlesh
        LOCFRAME CSTACK, 20, STACK
        LOCFRAME RSTACK, 3, STACK
        ST	-Y, R25
        CFI R25 Frame(CFA_Y, -1)
        CFI CFA_Y Y+1
        ST	-Y, R24
        CFI R24 Frame(CFA_Y, -2)
        CFI CFA_Y Y+2
        SBIW	R29:R28, 14
        CFI CFA_Y Y+16
        MOV	R20, R16
        MOV	R18, R17
//  179     unsigned char i;
//  180     unsigned char zapis[14];
//  181 
//  182      for(i=0;i<12;i++)zapis[i]=0;
        LDI	R16, 0
??insert_zapis_tc_0:
        LDI	R19, 0
        MOVW	R31:R30, R29:R28
        ADD	R30, R16
        ADC	R31, R19
        ST	Z, R19
        INC	R16
        CPI	R16, 12
        BRCS	??insert_zapis_tc_0
//  183      *(unsigned long int*)&zapis[0]=unix;
        CALL	?Subroutine23
??CrossCallReturnLabel_213:
        RCALL	?Subroutine49
//  184      *(unsigned int*)&zapis[4]=nomer+1;
??CrossCallReturnLabel_58:
        MOV	R24, R20
        LDI	R25, 0
        ADIW	R25:R24, 1
        STD	Y+4, R24
        STD	Y+5, R25
//  185      *(unsigned int*)&zapis[6]=modbus_mem1[AD_TS];
        RCALL	?Subroutine52
??CrossCallReturnLabel_65:
        LDD	R16, Z+48
        LDD	R17, Z+49
        STD	Y+6, R16
        STD	Y+7, R17
//  186      *(unsigned int*)&zapis[8]=(modbus_mem1[AD_TS]>>nomer) & 0x01;
        CALL	??Subroutine53_0
??CrossCallReturnLabel_70:
        STD	Y+8, R16
        STD	Y+9, R19
//  187      *(unsigned int*)&zapis[10]=kod; 
        STD	Y+10, R18
        STD	Y+11, R19
//  188      *(unsigned int*)&zapis[12]=crc_sum(&zapis[0],12); 
        RJMP	?Subroutine0
        CFI EndBlock cfiBlock7
//  189      
//  190      WrArrayToFlesh(STRUCT_TII_HEAP + (int)modbus_mem1[AD_IND_DNS]*14,&zapis[0],14,0,0);      
//  191      modbus_mem1[AD_IND_DNS]++;
//  192      if ( modbus_mem1[AD_IND_DNS] >99 ) {modbus_mem1[AD_IND_DNS]=0;}          
//  193      i=modbus_mem1[AD_IND_DNS];     
//  194      WrArrayToFlesh(A_IND_DNS,0,1,1,i);
//  195 }  
//  196 
//  197 

        RSEG FARCODE:CODE:NOROOT(1)
//  198 void insert_zapis_tit(unsigned char nomer)
insert_zapis_tit:
        CFI Block cfiBlock8 Using cfiCommon0
        CFI Function insert_zapis_tit
//  199 {
        FUNCALL insert_zapis_tit, crc_sum
        LOCFRAME CSTACK, 20, STACK
        LOCFRAME RSTACK, 3, STACK
        FUNCALL insert_zapis_tit, WrArrayToFlesh
        LOCFRAME CSTACK, 20, STACK
        LOCFRAME RSTACK, 3, STACK
        FUNCALL insert_zapis_tit, WrArrayToFlesh
        LOCFRAME CSTACK, 20, STACK
        LOCFRAME RSTACK, 3, STACK
        ST	-Y, R25
        CFI R25 Frame(CFA_Y, -1)
        CFI CFA_Y Y+1
        ST	-Y, R24
        CFI R24 Frame(CFA_Y, -2)
        CFI CFA_Y Y+2
        SBIW	R29:R28, 14
        CFI CFA_Y Y+16
//  200     unsigned char i;
//  201     unsigned char zapis[14];
//  202 
//  203      for(i=0;i<12;i++)zapis[i]=0;
        LDI	R18, 0
??insert_zapis_tit_0:
        LDI	R17, 0
        MOVW	R31:R30, R29:R28
        ADD	R30, R18
        ADC	R31, R17
        ST	Z, R17
        INC	R18
        CPI	R18, 12
        BRCS	??insert_zapis_tit_0
//  204      *(unsigned long int*)&zapis[0]=unix;
        RCALL	?Subroutine21
??CrossCallReturnLabel_200:
        RCALL	?Subroutine51
//  205      
//  206      *(unsigned int*)&zapis[6]=modbus_mem1[AD_TIT1+nomer];
??CrossCallReturnLabel_62:
        MOVW	R25:R24, R17:R16
        RCALL	??Subroutine54_0
??CrossCallReturnLabel_73:
        MOVW	R31:R30, R17:R16
        SUBI	R30, LOW((-(modbus_mem1) & 0xFFFF))
        SBCI	R31, (-(modbus_mem1) & 0xFFFF) >> 8
        LDD	R16, Z+32
        LDD	R17, Z+33
        STD	Y+6, R16
        STD	Y+7, R17
//  207      
//  208      *(unsigned int*)&zapis[10]=16+nomer; 
        ADIW	R25:R24, 16
        STD	Y+10, R24
        STD	Y+11, R25
        CFI EndBlock cfiBlock8
//  209      *(unsigned int*)&zapis[12]=crc_sum(&zapis[0],12); 
        REQUIRE ?Subroutine0
        ;		// Fall through to label ?Subroutine0
//  210      
//  211      WrArrayToFlesh(STRUCT_TII_HEAP + (int)modbus_mem1[AD_IND_DNS]*14,&zapis[0],14,0,0);      
//  212      modbus_mem1[AD_IND_DNS]++;
//  213      if ( modbus_mem1[AD_IND_DNS] >99 ) {modbus_mem1[AD_IND_DNS]=0;}          
//  214      i=modbus_mem1[AD_IND_DNS];     
//  215      WrArrayToFlesh(A_IND_DNS,0,1,1,i);
//  216 }  

        RSEG FARCODE:CODE:NOROOT(1)
?Subroutine0:
        CFI Block cfiBlock9 Using cfiCommon0
        CFI NoFunction
        CFI CFA_Y Y+16
        CFI R24 Frame(CFA_Y, -2)
        CFI R25 Frame(CFA_Y, -1)
        CFI Block cfiPicker10 Using cfiCommon1
        CFI (cfiPicker10) NoFunction
        CFI (cfiPicker10) Picker
        LDI	R18, 12
        MOVW	R17:R16, R29:R28
        RCALL	crc_sum
        STD	Y+12, R16
        STD	Y+13, R17
        LDI	R23, 0
        LDI	R22, 0
        MOVW	R19:R18, R29:R28
        LDI	R30, LOW((modbus_mem1 + 64))
        LDI	R31, HIGH((modbus_mem1 + 64))
        LD	R20, Z
        LDD	R21, Z+1
        LDI	R16, 14
        LDI	R17, 0
        CALL	?S_EC_MUL_L02
        SUBI	R17, 160
        LDI	R20, 14
        LDI	R21, 0
        CALL	WrArrayToFlesh
        LDI	R30, LOW((modbus_mem1 + 64))
        LDI	R31, HIGH((modbus_mem1 + 64))
        LD	R16, Z
        LDD	R17, Z+1
        SUBI	R16, 255
        SBCI	R17, 255
        ST	Z, R16
        STD	Z+1, R17
        CPI	R16, 100
        LDI	R18, 0
        SBCI	R17, 0
        BRCS	??Subroutine0_0
        ST	Z, R18
        STD	Z+1, R18
??Subroutine0_0:
        LD	R23, Z
        LDI	R22, 1
        LDI	R20, 1
        LDI	R21, 0
        LDI	R19, 0
        LDI	R16, 240
        LDI	R17, 3
        CALL	WrArrayToFlesh
        ADIW	R29:R28, 14
        CFI EndBlock cfiBlock9
        CFI EndBlock cfiPicker10
        REQUIRE ?Subroutine110
        ;		// Fall through to label ?Subroutine110

        RSEG FARCODE:CODE:NOROOT(1)
?Subroutine110:
        CFI Block cfiBlock11 Using cfiCommon0
        CFI NoFunction
        CFI CFA_Y Y+2
        CFI R24 Frame(CFA_Y, -2)
        CFI R25 Frame(CFA_Y, -1)
        CFI Block cfiPicker12 Using cfiCommon1
        CFI (cfiPicker12) NoFunction
        CFI (cfiPicker12) Picker
        LD	R24, Y+
        CFI (cfiBlock11) CFA_Y Y+1
        CFI (cfiBlock11) R24 SameValue
        LD	R25, Y+
        CFI (cfiBlock11) CFA_Y Y+0
        CFI (cfiBlock11) R25 SameValue
        RET
        CFI EndBlock cfiBlock11
        CFI EndBlock cfiPicker12
//  217 ////////////////////////////////////////// 10 11 2014
//  218 

        RSEG FARCODE:CODE:NOROOT(1)
//  219 void day_zamer(void)
day_zamer:
        CFI Block cfiBlock13 Using cfiCommon0
        CFI Function day_zamer
//  220   {  
        FUNCALL day_zamer, RdFromFleshToArr
        LOCFRAME CSTACK, 30, STACK
        LOCFRAME RSTACK, 3, STACK
        FUNCALL day_zamer, crc_sum
        LOCFRAME CSTACK, 30, STACK
        LOCFRAME RSTACK, 3, STACK
        FUNCALL day_zamer, crc_sum
        LOCFRAME CSTACK, 30, STACK
        LOCFRAME RSTACK, 3, STACK
        FUNCALL day_zamer, WrArrayToFlesh
        LOCFRAME CSTACK, 30, STACK
        LOCFRAME RSTACK, 3, STACK
        FUNCALL day_zamer, WrArrayToFlesh
        LOCFRAME CSTACK, 30, STACK
        LOCFRAME RSTACK, 3, STACK
        CALL	?PROLOGUE6_L09
        CFI R5 Frame(CFA_Y, -1)
        CFI R4 Frame(CFA_Y, -2)
        CFI R27 Frame(CFA_Y, -3)
        CFI R26 Frame(CFA_Y, -4)
        CFI R25 Frame(CFA_Y, -5)
        CFI R24 Frame(CFA_Y, -6)
        CFI CFA_Y Y+6
        REQUIRE	?Register_R4_is_cg_reg
        REQUIRE	?Register_R5_is_cg_reg
        SBIW	R29:R28, 22
        CFI CFA_Y Y+28
//  221     
//  222     int zamer;
//  223     unsigned char i;
//  224 //    char i, akaka, mus;
//  225   
//  226   
//  227     unsigned char zapis[14];
//  228 
//  229    union
//  230    {     
//  231    long int unix;
//  232    char st[4]; 
//  233    } tik;
//  234    
//  235     union
//  236    {     
//  237    long int acc;
//  238    char a[4]; 
//  239    } sum;
//  240    
//  241    // проверка совпадения на время суточного замера
//  242    
//  243    
//  244     if( start_day_zamer==0) 
        LDI	R26, LOW(day_accum)
        LDI	R27, (day_accum) >> 8
        MOVW	R31:R30, R27:R26
        LDD	R16, Z+14
        TST	R16
        BRNE	??day_zamer_0
//  245           {
//  246     
//  247      if (unix <= time_sutok)   return;
        LDD	R16, Z+8
        LDD	R17, Z+9
        LDD	R18, Z+10
        LDD	R19, Z+11
        RCALL	?Subroutine21
??CrossCallReturnLabel_201:
        CALL	?Subroutine108
??CrossCallReturnLabel_223:
        BRCC	??CrossCallReturnLabel_96
//  248    
//  249    
//  250  // время ч
//  251  time_sutok+=86400;
        MOVW	R31:R30, R27:R26
        RCALL	?Subroutine60
??CrossCallReturnLabel_86:
        SBCI	R19, 255
        RCALL	?Subroutine62
//  252     
//  253  
//  254       start_day_zamer=1;
??CrossCallReturnLabel_91:
        LDI	R16, 1
        STD	Z+14, R16
//  255       day_good=0;
        LDI	R16, 0
        RCALL	?Subroutine61
//  256       day_accum=0;
//  257       day_chan=0;
??CrossCallReturnLabel_89:
        STD	Z+12, R16
//  258       day_zap=0;
        STD	Z+13, R16
//  259       
//  260       day_unix=unix;
        CALL	?Subroutine68
//  261       return;
??CrossCallReturnLabel_96:
        ADIW	R29:R28, 22
        CFI CFA_Y Y+6
        RJMP	?Subroutine118
        CFI CFA_Y Y+28
//  262            }
//  263            
//  264     
//  265      if ( (day_chan>8) && (day_chan<14)) 
??day_zamer_0:
        LDD	R16, Z+12
        CPI	R16, 9
        BRCS	??day_zamer_1
        CPI	R16, 14
        BRCC	??day_zamer_1
//  266      {
//  267      day_zap=0;day_good=0; day_accum=0;day_chan++; return; 
        LDI	R16, 0
        STD	Z+13, R16
        RCALL	?Subroutine61
??CrossCallReturnLabel_90:
        LDD	R16, Z+12
        INC	R16
        STD	Z+12, R16
        RJMP	??CrossCallReturnLabel_96
//  268                   
//  269      }
//  270            
//  271                              zamer=c2_byte.mb[0+(2*day_chan)]+(c2_byte.mb[1+(2*day_chan)] & 7)*256;
??day_zamer_1:
        RCALL	?Subroutine69
??CrossCallReturnLabel_98:
        LDI	R17, 2
        MUL	R16, R17
        ADD	R30, R0
        ADC	R31, R1
        RCALL	?Subroutine65
//  272                          if (  (zamer >= 1440)  || (zamer ==0)  )  // не снимать замеры для таких каналов
??CrossCallReturnLabel_93:
        CPI	R18, 160
        LDI	R18, 5
        CPC	R17, R18
        BRGE	??day_zamer_2
        OR	R16, R17
        BRNE	??day_zamer_3
//  273                                                         {
//  274                                                         day_zap=0;
??day_zamer_2:
        RCALL	?Subroutine13
??CrossCallReturnLabel_245:
        STD	Z+13, R16
//  275                                                         day_good=0;
        STD	Z+15, R16
//  276                                             day_accum=0;
        LDI	R17, 0
        ST	X+, R16
        ST	X+, R16
        ST	X+, R16
        ST	X, R16
//  277                                             day_chan++;
        LDD	R16, Z+12
        INC	R16
        STD	Z+12, R16
//  278                                          
//  279                                             if (day_chan==16) start_day_zamer=0;
        CPI	R16, 16
        BRNE	??CrossCallReturnLabel_96
        STD	Z+14, R17
        RJMP	??CrossCallReturnLabel_96
//  280                                            
//  281                                             return;
//  282                                                         }
//  283                        /*
//  284                        ДОЛЖНА БЫТЬ ЧТЕНИЕ!!!!!!!!! ПРОВЕРКРЙ СРС!!!
//  285                          if (eprom_busy()==1)  return;
//  286                        p_sys1= & zapis[0];// point to arr                
//  287                        sys1= STRUCT_TII_HEAP + (int)day_zap*14;
//  288                        sys2=12;  
//  289                        sys3=sys1+12;   
//  290                        w_result(22);   
//  291                        */
//  292                   
//  293                        RdFromFleshToArr(STRUCT_TII_HEAP + (int)day_zap*14,&zapis[0],14);   
??day_zamer_3:
        LDI	R20, 14
        LDI	R21, 0
        MOVW	R19:R18, R29:R28
        SUBI	R18, 248
        SBCI	R19, 255
        MOVW	R5:R4, R21:R20
        MOVW	R31:R30, R27:R26
        LDD	R20, Z+13
        CALL	?Subroutine36
??CrossCallReturnLabel_39:
        MOVW	R21:R20, R5:R4
        RCALL	?Subroutine39
//  294                          
//  295                          
//  296                       
//  297                        // считали правильно
//  298                        day_zap++; 
??CrossCallReturnLabel_47:
        MOVW	R31:R30, R27:R26
        LDD	R16, Z+13
        INC	R16
        STD	Z+13, R16
//  299                        if((*(int*)&zapis[12])==crc_sum(&zapis[0],12))  //!!!!!ДОЛЖНА БЫТЬ ЧТЕНИЕ!!!!!!!!! ПРОВЕРКРЙ СРС!!! записи
        LDD	R24, Y+20
        LDD	R25, Y+21
        RCALL	?Subroutine43
??CrossCallReturnLabel_264:
        CP	R24, R16
        CPC	R25, R17
        BREQ	$+2+2
        RJMP	??day_zamer_4
//  300                                         {
//  301                                         
//  302                                         if ( zapis[10]!=day_chan)  goto hlop;  // ищем записи только для даного канала в куче
        LDD	R16, Y+18
        MOVW	R31:R30, R27:R26
        LDD	R17, Z+12
        CP	R16, R17
        BRNE	??day_zamer_4
//  303                                         
//  304                                         
//  305                                          tik.st[0]=zapis[0];
        LDD	R16, Y+8
        ST	Y, R16
//  306                                          tik.st[1]=zapis[1];
        LDD	R16, Y+9
        STD	Y+1, R16
//  307                                          tik.st[2]=zapis[2];
        LDD	R16, Y+10
        STD	Y+2, R16
//  308                                          tik.st[3]=zapis[3];  // круг назад и еще 200 секунд  чтобы не зацепить замеры
        LDD	R16, Y+11
        STD	Y+3, R16
//  309                                          if ( ( tik.unix >= (day_unix-86400-200) ) && ( tik.unix < (day_unix -10)))
        RCALL	?Subroutine72
??CrossCallReturnLabel_112:
        LD	R0, Y
        LDD	R1, Y+1
        LDD	R2, Y+2
        MOV	R3, R16
        MOVW	R17:R16, R21:R20
        MOVW	R19:R18, R23:R22
        SUBI	R16, 72
        SBCI	R17, 82
        SBCI	R18, 1
        SBCI	R19, 0
        CP	R0, R16
        CPC	R1, R17
        CPC	R2, R18
        CPC	R3, R19
        BRCS	??day_zamer_4
        MOVW	R17:R16, R1:R0
        MOVW	R19:R18, R3:R2
        SUBI	R20, 10
        RCALL	??Subroutine71_0
??CrossCallReturnLabel_109:
        RCALL	?Subroutine108
??CrossCallReturnLabel_224:
        BRCC	??day_zamer_4
//  310                                                       {
//  311                                                     if ( (zapis[5]==5) && (zapis[4]==0xa0) ) {goto hlop;} // если есть суточная запись не писать
        LDD	R16, Y+13
        CPI	R16, 5
        BRNE	??day_zamer_5
        LDD	R16, Y+12
        CPI	R16, 160
        BREQ	??day_zamer_4
//  312                                                      day_good++;
??day_zamer_5:
        LDD	R16, Z+15
        INC	R16
        STD	Z+15, R16
//  313                                                     
//  314                                                     /*
//  315                                                       #if DEBUG==1
//  316                                                      day_accum++;
//  317                                                       #endif
//  318                                                       #if DEBUG==0
//  319                                                       */
//  320                                                      
//  321                                                       sum.a[0]=zapis[6];
        LDD	R16, Y+14
        STD	Y+4, R16
//  322                                                       sum.a[1]=zapis[7];
        LDD	R16, Y+15
        STD	Y+5, R16
//  323                                                       sum.a[2]=zapis[8];
        LDD	R16, Y+16
        STD	Y+6, R16
//  324                                                       sum.a[3]=zapis[9];
        LDD	R16, Y+17
        STD	Y+7, R16
//  325                                                       day_accum=day_accum+sum.acc;
        LDD	R16, Y+4
        LDD	R17, Y+5
        LDD	R18, Y+6
        LDD	R19, Y+7
        LD	R20, X+
        LD	R21, X+
        LD	R22, X+
        LD	R23, X
        RCALL	?Subroutine105
??CrossCallReturnLabel_205:
        ST	X, R23
        ST	-X, R22
        ST	-X, R21
        ST	-X, R20
//  326                                                       
//  327                                                      
//  328                                                     //  #endif
//  329                                                       }
//  330                                         } 
//  331                                         
//  332                                         
//  333                          
//  334                                         
//  335                                         
//  336                                         
//  337 hlop:                                         
//  338                        if(day_zap >99)  
??day_zamer_4:
        MOVW	R31:R30, R27:R26
        LDD	R16, Z+13
        CPI	R16, 100
        BRCC	$+2+2
        RJMP	??CrossCallReturnLabel_96
//  339                                          { 
//  340                                        
//  341                                        
//  342                                        if (day_good==0) goto no_zap;   // если нет ни одного замера то нет и суточного
        LDD	R16, Z+15
        TST	R16
        BRNE	$+2+2
        RJMP	??day_zamer_2
//  343                                        
//  344                                        
//  345                                         tik.unix=day_unix+2;        
        RCALL	?Subroutine75
??CrossCallReturnLabel_114:
        RCALL	?Subroutine76
??CrossCallReturnLabel_116:
        RCALL	?Subroutine107
//  346                                         zapis[0]=tik.st[0];
??CrossCallReturnLabel_217:
        STD	Y+8, R16
//  347                                         zapis[1]=tik.st[1];
        STD	Y+9, R17
//  348                                         zapis[2]=tik.st[2];
        STD	Y+10, R18
//  349                                         zapis[3]=tik.st[3]; 
        STD	Y+11, R19
//  350   zapis[4]=0xa0;    // 1440  записать суточное время по этому каналу 
        LDI	R16, 160
        STD	Y+12, R16
//  351   zapis[5]=5;
        LDI	R16, 5
        STD	Y+13, R16
//  352   
//  353   
//  354   zapis[10]=day_chan;    
        LDD	R16, Z+12
        STD	Y+18, R16
//  355   zapis[11]=0;
        STD	Y+19, R5
//  356   
//  357   sum.acc=day_accum;
        RCALL	?Subroutine74
??CrossCallReturnLabel_253:
        STD	Y+4, R16
        STD	Y+5, R17
        STD	Y+6, R18
        STD	Y+7, R19
//  358   
//  359   zapis[6]=sum.a[0];
        STD	Y+14, R16
//  360   zapis[7]=sum.a[1];
        STD	Y+15, R17
//  361   zapis[8]=sum.a[2];
        STD	Y+16, R18
//  362   zapis[9]=sum.a[3]; 
        STD	Y+17, R19
//  363  
//  364 
//  365  
//  366 /* ДОЛЖНА БЫТЬ ЗАПИСЬ В ОСНОВНУЮ КУЧУ!!!!!!!! 
//  367        
//  368 
//  369 */ 
//  370  
//  371   
//  372 *(int*)&zapis[12]=crc_sum(&zapis[0],12);     
        RCALL	?Subroutine43
??CrossCallReturnLabel_263:
        STD	Y+20, R16
        STD	Y+21, R17
//  373 WrArrayToFlesh(STRUCT_TII_HEAP + (int)modbus_mem1[AD_IND_DNS]*14,&zapis[0],14,0,0);
        RCALL	?Subroutine44
??CrossCallReturnLabel_54:
        SUBI	R18, 248
        RCALL	?Subroutine3
//  374   
//  375   
//  376   
//  377   
//  378 /* 
//  379             arr_cnt_tii_heap++; 
//  380             if ( arr_cnt_tii_heap >99) {arr_cnt_tii_heap=0;arr_cnt_tii_heap_modbus=99;}
//  381                                          else arr_cnt_tii_heap_modbus=arr_cnt_tii_heap-1;
//  382                      
//  383            
//  384              dop_sys1=CNT_TII;
//  385              dop_sys2=arr_cnt_tii_heap; 
//  386               
//  387              w_result(23);
//  388             
//  389   передвижка указателя
//  390   */     
//  391   
//  392                         
//  393            modbus_mem1[AD_IND_DNS]++;
//  394            if ( modbus_mem1[AD_IND_DNS] >99 ) {modbus_mem1[AD_IND_DNS]=0;}
//  395            i=modbus_mem1[AD_IND_DNS];
//  396            WrArrayToFlesh(A_IND_DNS,0,1,1,i);
??CrossCallReturnLabel_271:
        RJMP	??day_zamer_2
        CFI EndBlock cfiBlock13
//  397 
//  398   
//  399             
//  400             no_zap:
//  401             
//  402                                             day_zap=0;
//  403                                             day_good=0;
//  404                                             day_accum=0;
//  405                                             day_chan++;
//  406                                             if (day_chan==16) start_day_zamer=0;
//  407                                             
//  408                                           }
//  409            
//  410     }       

        RSEG FARCODE:CODE:NOROOT(1)
?Subroutine61:
        CFI Block cfiCond14 Using cfiCommon0
        CFI NoFunction
        CFI Conditional ??CrossCallReturnLabel_89
        CFI R24 Frame(CFA_Y, -6)
        CFI R25 Frame(CFA_Y, -5)
        CFI R26 Frame(CFA_Y, -4)
        CFI R27 Frame(CFA_Y, -3)
        CFI R4 Frame(CFA_Y, -2)
        CFI R5 Frame(CFA_Y, -1)
        CFI CFA_SP SP+6
        CFI CFA_Y Y+28
        CFI Block cfiCond15 Using cfiCommon0
        CFI (cfiCond15) NoFunction
        CFI (cfiCond15) Conditional ??CrossCallReturnLabel_90
        CFI (cfiCond15) R24 Frame(CFA_Y, -6)
        CFI (cfiCond15) R25 Frame(CFA_Y, -5)
        CFI (cfiCond15) R26 Frame(CFA_Y, -4)
        CFI (cfiCond15) R27 Frame(CFA_Y, -3)
        CFI (cfiCond15) R4 Frame(CFA_Y, -2)
        CFI (cfiCond15) R5 Frame(CFA_Y, -1)
        CFI (cfiCond15) CFA_SP SP+6
        CFI (cfiCond15) CFA_Y Y+28
        CFI Block cfiPicker16 Using cfiCommon1
        CFI (cfiPicker16) NoFunction
        CFI (cfiPicker16) Picker
        STD	Z+15, R16
        ST	X+, R16
        ST	X+, R16
        ST	X+, R16
        ST	X, R16
        RET
        CFI EndBlock cfiCond14
        CFI EndBlock cfiCond15
        CFI EndBlock cfiPicker16

        RSEG FARCODE:CODE:NOROOT(1)
?Subroutine44:
        CFI Block cfiCond17 Using cfiCommon0
        CFI NoFunction
        CFI Conditional ??CrossCallReturnLabel_53
        CFI R24 Frame(CFA_Y, -3)
        CFI R25 Frame(CFA_Y, -2)
        CFI R26 Frame(CFA_Y, -1)
        CFI CFA_SP SP+6
        CFI CFA_Y Y+21
        CFI Block cfiCond18 Using cfiCommon0
        CFI (cfiCond18) NoFunction
        CFI (cfiCond18) Conditional ??CrossCallReturnLabel_54
        CFI (cfiCond18) R24 Frame(CFA_Y, -6)
        CFI (cfiCond18) R25 Frame(CFA_Y, -5)
        CFI (cfiCond18) R26 Frame(CFA_Y, -4)
        CFI (cfiCond18) R27 Frame(CFA_Y, -3)
        CFI (cfiCond18) R4 Frame(CFA_Y, -2)
        CFI (cfiCond18) R5 Frame(CFA_Y, -1)
        CFI (cfiCond18) CFA_SP SP+6
        CFI (cfiCond18) CFA_Y Y+28
        CFI Block cfiCond19 Using cfiCommon0
        CFI (cfiCond19) NoFunction
        CFI (cfiCond19) Conditional ??CrossCallReturnLabel_55
        CFI (cfiCond19) R24 Frame(CFA_Y, -5)
        CFI (cfiCond19) R25 Frame(CFA_Y, -4)
        CFI (cfiCond19) R26 Frame(CFA_Y, -3)
        CFI (cfiCond19) R27 Frame(CFA_Y, -2)
        CFI (cfiCond19) R4 Frame(CFA_Y, -1)
        CFI (cfiCond19) CFA_SP SP+6
        CFI (cfiCond19) CFA_Y Y+23
        CFI Block cfiPicker20 Using cfiCommon1
        CFI (cfiPicker20) NoFunction
        CFI (cfiPicker20) Picker
        LDI	R23, 0
        LDI	R22, 0
        MOVW	R19:R18, R29:R28
        RET
        CFI EndBlock cfiCond17
        CFI EndBlock cfiCond18
        CFI EndBlock cfiCond19
        CFI EndBlock cfiPicker20

        RSEG FARCODE:CODE:NOROOT(1)
?Subroutine43:
        CFI Block cfiCond21 Using cfiCommon0
        CFI NoFunction
        CFI Conditional ??CrossCallReturnLabel_264
        CFI R24 Frame(CFA_Y, -6)
        CFI R25 Frame(CFA_Y, -5)
        CFI R26 Frame(CFA_Y, -4)
        CFI R27 Frame(CFA_Y, -3)
        CFI R4 Frame(CFA_Y, -2)
        CFI R5 Frame(CFA_Y, -1)
        CFI CFA_SP SP+6
        CFI CFA_Y Y+28
        CFI Block cfiCond22 Using cfiCommon0
        CFI (cfiCond22) NoFunction
        CFI (cfiCond22) Conditional ??CrossCallReturnLabel_263
        CFI (cfiCond22) R24 Frame(CFA_Y, -6)
        CFI (cfiCond22) R25 Frame(CFA_Y, -5)
        CFI (cfiCond22) R26 Frame(CFA_Y, -4)
        CFI (cfiCond22) R27 Frame(CFA_Y, -3)
        CFI (cfiCond22) R4 Frame(CFA_Y, -2)
        CFI (cfiCond22) R5 Frame(CFA_Y, -1)
        CFI (cfiCond22) CFA_SP SP+6
        CFI (cfiCond22) CFA_Y Y+28
        CFI Block cfiPicker23 Using cfiCommon1
        CFI (cfiPicker23) NoFunction
        CFI (cfiPicker23) Picker
        LDI	R18, 12
        MOVW	R17:R16, R29:R28
        SUBI	R16, 248
        CFI EndBlock cfiCond21
        CFI EndBlock cfiCond22
        CFI EndBlock cfiPicker23
        REQUIRE ?Subroutine119
        ;		// Fall through to label ?Subroutine119

        RSEG FARCODE:CODE:NOROOT(1)
?Subroutine119:
        CFI Block cfiCond24 Using cfiCommon0
        CFI NoFunction
        CFI Conditional ??CrossCallReturnLabel_264
        CFI R24 Frame(CFA_Y, -6)
        CFI R25 Frame(CFA_Y, -5)
        CFI R26 Frame(CFA_Y, -4)
        CFI R27 Frame(CFA_Y, -3)
        CFI R4 Frame(CFA_Y, -2)
        CFI R5 Frame(CFA_Y, -1)
        CFI CFA_SP SP+6
        CFI CFA_Y Y+28
        CFI Block cfiCond25 Using cfiCommon0
        CFI (cfiCond25) NoFunction
        CFI (cfiCond25) Conditional ??CrossCallReturnLabel_263
        CFI (cfiCond25) R24 Frame(CFA_Y, -6)
        CFI (cfiCond25) R25 Frame(CFA_Y, -5)
        CFI (cfiCond25) R26 Frame(CFA_Y, -4)
        CFI (cfiCond25) R27 Frame(CFA_Y, -3)
        CFI (cfiCond25) R4 Frame(CFA_Y, -2)
        CFI (cfiCond25) R5 Frame(CFA_Y, -1)
        CFI (cfiCond25) CFA_SP SP+6
        CFI (cfiCond25) CFA_Y Y+28
        CFI Block cfiCond26 Using cfiCommon0
        CFI (cfiCond26) NoFunction
        CFI (cfiCond26) Conditional ??CrossCallReturnLabel_262
        CFI (cfiCond26) CFA_SP SP+6
        CFI (cfiCond26) CFA_Y Y+18
        CFI Block cfiCond27 Using cfiCommon0
        CFI (cfiCond27) NoFunction
        CFI (cfiCond27) Conditional ??CrossCallReturnLabel_261
        CFI (cfiCond27) R24 Frame(CFA_Y, -11)
        CFI (cfiCond27) R25 Frame(CFA_Y, -10)
        CFI (cfiCond27) R26 Frame(CFA_Y, -9)
        CFI (cfiCond27) R27 Frame(CFA_Y, -8)
        CFI (cfiCond27) R4 Frame(CFA_Y, -7)
        CFI (cfiCond27) R5 Frame(CFA_Y, -6)
        CFI (cfiCond27) R6 Frame(CFA_Y, -5)
        CFI (cfiCond27) R7 Frame(CFA_Y, -4)
        CFI (cfiCond27) R8 Frame(CFA_Y, -3)
        CFI (cfiCond27) R9 Frame(CFA_Y, -2)
        CFI (cfiCond27) R10 Frame(CFA_Y, -1)
        CFI (cfiCond27) CFA_SP SP+6
        CFI (cfiCond27) CFA_Y Y+29
        CFI Block cfiCond28 Using cfiCommon0
        CFI (cfiCond28) NoFunction
        CFI (cfiCond28) Conditional ??CrossCallReturnLabel_260
        CFI (cfiCond28) R24 Frame(CFA_Y, -16)
        CFI (cfiCond28) R25 Frame(CFA_Y, -15)
        CFI (cfiCond28) R26 Frame(CFA_Y, -14)
        CFI (cfiCond28) R27 Frame(CFA_Y, -13)
        CFI (cfiCond28) R4 Frame(CFA_Y, -12)
        CFI (cfiCond28) R5 Frame(CFA_Y, -11)
        CFI (cfiCond28) R6 Frame(CFA_Y, -10)
        CFI (cfiCond28) R7 Frame(CFA_Y, -9)
        CFI (cfiCond28) R8 Frame(CFA_Y, -8)
        CFI (cfiCond28) R9 Frame(CFA_Y, -7)
        CFI (cfiCond28) R10 Frame(CFA_Y, -6)
        CFI (cfiCond28) R11 Frame(CFA_Y, -5)
        CFI (cfiCond28) R12 Frame(CFA_Y, -4)
        CFI (cfiCond28) R13 Frame(CFA_Y, -3)
        CFI (cfiCond28) R14 Frame(CFA_Y, -2)
        CFI (cfiCond28) R15 Frame(CFA_Y, -1)
        CFI (cfiCond28) CFA_SP SP+6
        CFI (cfiCond28) CFA_Y Y+34
        CFI Block cfiPicker29 Using cfiCommon1
        CFI (cfiPicker29) NoFunction
        CFI (cfiPicker29) Picker
        SBCI	R17, 255
        RJMP	crc_sum
        CFI EndBlock cfiCond24
        CFI EndBlock cfiCond25
        CFI EndBlock cfiCond26
        CFI EndBlock cfiCond27
        CFI EndBlock cfiCond28
        CFI EndBlock cfiPicker29

        RSEG FARCODE:CODE:NOROOT(1)
?Subroutine21:
        CFI Block cfiCond30 Using cfiCommon0
        CFI NoFunction
        CFI Conditional ??CrossCallReturnLabel_200
        CFI R24 Frame(CFA_Y, -2)
        CFI R25 Frame(CFA_Y, -1)
        CFI CFA_SP SP+6
        CFI CFA_Y Y+16
        CFI Block cfiCond31 Using cfiCommon0
        CFI (cfiCond31) NoFunction
        CFI (cfiCond31) Conditional ??CrossCallReturnLabel_201
        CFI (cfiCond31) R24 Frame(CFA_Y, -6)
        CFI (cfiCond31) R25 Frame(CFA_Y, -5)
        CFI (cfiCond31) R26 Frame(CFA_Y, -4)
        CFI (cfiCond31) R27 Frame(CFA_Y, -3)
        CFI (cfiCond31) R4 Frame(CFA_Y, -2)
        CFI (cfiCond31) R5 Frame(CFA_Y, -1)
        CFI (cfiCond31) CFA_SP SP+6
        CFI (cfiCond31) CFA_Y Y+28
        CFI Block cfiCond32 Using cfiCommon0
        CFI (cfiCond32) NoFunction
        CFI (cfiCond32) Conditional ??CrossCallReturnLabel_202
        CFI (cfiCond32) R24 Frame(CFA_Y, -16)
        CFI (cfiCond32) R25 Frame(CFA_Y, -15)
        CFI (cfiCond32) R26 Frame(CFA_Y, -14)
        CFI (cfiCond32) R27 Frame(CFA_Y, -13)
        CFI (cfiCond32) R4 Frame(CFA_Y, -12)
        CFI (cfiCond32) R5 Frame(CFA_Y, -11)
        CFI (cfiCond32) R6 Frame(CFA_Y, -10)
        CFI (cfiCond32) R7 Frame(CFA_Y, -9)
        CFI (cfiCond32) R8 Frame(CFA_Y, -8)
        CFI (cfiCond32) R9 Frame(CFA_Y, -7)
        CFI (cfiCond32) R10 Frame(CFA_Y, -6)
        CFI (cfiCond32) R11 Frame(CFA_Y, -5)
        CFI (cfiCond32) R12 Frame(CFA_Y, -4)
        CFI (cfiCond32) R13 Frame(CFA_Y, -3)
        CFI (cfiCond32) R14 Frame(CFA_Y, -2)
        CFI (cfiCond32) R15 Frame(CFA_Y, -1)
        CFI (cfiCond32) CFA_SP SP+6
        CFI (cfiCond32) CFA_Y Y+34
        CFI Block cfiPicker33 Using cfiCommon1
        CFI (cfiPicker33) NoFunction
        CFI (cfiPicker33) Picker
        LDI	R30, LOW(unix)
        LDI	R31, (unix) >> 8
        CFI EndBlock cfiCond30
        CFI EndBlock cfiCond31
        CFI EndBlock cfiCond32
        CFI EndBlock cfiPicker33
        REQUIRE ?Subroutine104
        ;		// Fall through to label ?Subroutine104

        RSEG FARCODE:CODE:NOROOT(1)
?Subroutine104:
        CFI Block cfiCond34 Using cfiCommon0
        CFI NoFunction
        CFI Conditional ??CrossCallReturnLabel_200
        CFI R24 Frame(CFA_Y, -2)
        CFI R25 Frame(CFA_Y, -1)
        CFI CFA_SP SP+6
        CFI CFA_Y Y+16
        CFI Block cfiCond35 Using cfiCommon0
        CFI (cfiCond35) NoFunction
        CFI (cfiCond35) Conditional ??CrossCallReturnLabel_201
        CFI (cfiCond35) R24 Frame(CFA_Y, -6)
        CFI (cfiCond35) R25 Frame(CFA_Y, -5)
        CFI (cfiCond35) R26 Frame(CFA_Y, -4)
        CFI (cfiCond35) R27 Frame(CFA_Y, -3)
        CFI (cfiCond35) R4 Frame(CFA_Y, -2)
        CFI (cfiCond35) R5 Frame(CFA_Y, -1)
        CFI (cfiCond35) CFA_SP SP+6
        CFI (cfiCond35) CFA_Y Y+28
        CFI Block cfiCond36 Using cfiCommon0
        CFI (cfiCond36) NoFunction
        CFI (cfiCond36) Conditional ??CrossCallReturnLabel_202
        CFI (cfiCond36) R24 Frame(CFA_Y, -16)
        CFI (cfiCond36) R25 Frame(CFA_Y, -15)
        CFI (cfiCond36) R26 Frame(CFA_Y, -14)
        CFI (cfiCond36) R27 Frame(CFA_Y, -13)
        CFI (cfiCond36) R4 Frame(CFA_Y, -12)
        CFI (cfiCond36) R5 Frame(CFA_Y, -11)
        CFI (cfiCond36) R6 Frame(CFA_Y, -10)
        CFI (cfiCond36) R7 Frame(CFA_Y, -9)
        CFI (cfiCond36) R8 Frame(CFA_Y, -8)
        CFI (cfiCond36) R9 Frame(CFA_Y, -7)
        CFI (cfiCond36) R10 Frame(CFA_Y, -6)
        CFI (cfiCond36) R11 Frame(CFA_Y, -5)
        CFI (cfiCond36) R12 Frame(CFA_Y, -4)
        CFI (cfiCond36) R13 Frame(CFA_Y, -3)
        CFI (cfiCond36) R14 Frame(CFA_Y, -2)
        CFI (cfiCond36) R15 Frame(CFA_Y, -1)
        CFI (cfiCond36) CFA_SP SP+6
        CFI (cfiCond36) CFA_Y Y+34
        CFI Block cfiCond37 Using cfiCommon0
        CFI (cfiCond37) NoFunction
        CFI (cfiCond37) Conditional ??CrossCallReturnLabel_203
        CFI (cfiCond37) R24 Frame(CFA_Y, -2)
        CFI (cfiCond37) R25 Frame(CFA_Y, -1)
        CFI (cfiCond37) CFA_SP SP+6
        CFI (cfiCond37) CFA_Y Y+20
        CFI Block cfiCond38 Using cfiCommon0
        CFI (cfiCond38) NoFunction
        CFI (cfiCond38) Conditional ??CrossCallReturnLabel_204
        CFI (cfiCond38) R24 Frame(CFA_Y, -6)
        CFI (cfiCond38) R25 Frame(CFA_Y, -5)
        CFI (cfiCond38) R26 Frame(CFA_Y, -4)
        CFI (cfiCond38) R27 Frame(CFA_Y, -3)
        CFI (cfiCond38) R4 Frame(CFA_Y, -2)
        CFI (cfiCond38) R5 Frame(CFA_Y, -1)
        CFI (cfiCond38) CFA_SP SP+6
        CFI (cfiCond38) CFA_Y Y+24
        CFI Block cfiCond39 Using cfiCommon0
        CFI (cfiCond39) NoFunction
        CFI (cfiCond39) Conditional ??CrossCallReturnLabel_199
        CFI (cfiCond39) R24 Frame(CFA_Y, -2)
        CFI (cfiCond39) R25 Frame(CFA_Y, -1)
        CFI (cfiCond39) CFA_SP SP+6
        CFI (cfiCond39) CFA_Y Y+20
        CFI Block cfiPicker40 Using cfiCommon1
        CFI (cfiPicker40) NoFunction
        CFI (cfiPicker40) Picker
        LD	R20, Z
        LDD	R21, Z+1
        LDD	R22, Z+2
        LDD	R23, Z+3
        RET
        CFI EndBlock cfiCond34
        CFI EndBlock cfiCond35
        CFI EndBlock cfiCond36
        CFI EndBlock cfiCond37
        CFI EndBlock cfiCond38
        CFI EndBlock cfiCond39
        CFI EndBlock cfiPicker40

        RSEG FARCODE:CODE:NOROOT(1)
?Subroutine3:
        CFI Block cfiCond41 Using cfiCommon0
        CFI NoFunction
        CFI Conditional ??CrossCallReturnLabel_271
        CFI R24 Frame(CFA_Y, -6)
        CFI R25 Frame(CFA_Y, -5)
        CFI R26 Frame(CFA_Y, -4)
        CFI R27 Frame(CFA_Y, -3)
        CFI R4 Frame(CFA_Y, -2)
        CFI R5 Frame(CFA_Y, -1)
        CFI CFA_SP SP+6
        CFI CFA_Y Y+28
        CFI Block cfiCond42 Using cfiCommon0
        CFI (cfiCond42) NoFunction
        CFI (cfiCond42) Conditional ??CrossCallReturnLabel_270
        CFI (cfiCond42) R24 Frame(CFA_Y, -5)
        CFI (cfiCond42) R25 Frame(CFA_Y, -4)
        CFI (cfiCond42) R26 Frame(CFA_Y, -3)
        CFI (cfiCond42) R27 Frame(CFA_Y, -2)
        CFI (cfiCond42) R4 Frame(CFA_Y, -1)
        CFI (cfiCond42) CFA_SP SP+6
        CFI (cfiCond42) CFA_Y Y+23
        CFI Block cfiPicker43 Using cfiCommon1
        CFI (cfiPicker43) NoFunction
        CFI (cfiPicker43) Picker
        SBCI	R19, 255
        CFI Block cfiCond44 Using cfiCommon0
        CFI (cfiCond44) NoFunction
        CFI (cfiCond44) Conditional ??CrossCallReturnLabel_269
        CFI (cfiCond44) R24 Frame(CFA_Y, -3)
        CFI (cfiCond44) R25 Frame(CFA_Y, -2)
        CFI (cfiCond44) R26 Frame(CFA_Y, -1)
        CFI (cfiCond44) CFA_SP SP+6
        CFI (cfiCond44) CFA_Y Y+21
??Subroutine3_0:
        LDI	R30, LOW((modbus_mem1 + 64))
        LDI	R31, HIGH((modbus_mem1 + 64))
        LD	R20, Z
        LDD	R21, Z+1
        LDI	R16, 14
        LDI	R17, 0
        CALL	?S_EC_MUL_L02
        SUBI	R17, 160
        LDI	R20, 14
        LDI	R21, 0
        CALL	WrArrayToFlesh
        LDI	R30, LOW((modbus_mem1 + 64))
        LDI	R31, HIGH((modbus_mem1 + 64))
        LD	R16, Z
        LDD	R17, Z+1
        SUBI	R16, 255
        SBCI	R17, 255
        ST	Z, R16
        STD	Z+1, R17
        CPI	R16, 100
        LDI	R18, 0
        SBCI	R17, 0
        BRCS	??Subroutine3_1
        ST	Z, R18
        STD	Z+1, R18
??Subroutine3_1:
        LD	R23, Z
        LDI	R22, 1
        LDI	R20, 1
        LDI	R21, 0
        LDI	R19, 0
        LDI	R16, 240
        LDI	R17, 3
        CFI EndBlock cfiCond41
        CFI EndBlock cfiCond42
        CFI EndBlock cfiPicker43
        CFI EndBlock cfiCond44
        REQUIRE ?Subroutine120
        ;		// Fall through to label ?Subroutine120

        RSEG FARCODE:CODE:NOROOT(1)
?Subroutine120:
        CFI Block cfiCond45 Using cfiCommon0
        CFI NoFunction
        CFI Conditional ??CrossCallReturnLabel_271
        CFI R24 Frame(CFA_Y, -6)
        CFI R25 Frame(CFA_Y, -5)
        CFI R26 Frame(CFA_Y, -4)
        CFI R27 Frame(CFA_Y, -3)
        CFI R4 Frame(CFA_Y, -2)
        CFI R5 Frame(CFA_Y, -1)
        CFI CFA_SP SP+6
        CFI CFA_Y Y+28
        CFI Block cfiCond46 Using cfiCommon0
        CFI (cfiCond46) NoFunction
        CFI (cfiCond46) Conditional ??CrossCallReturnLabel_270
        CFI (cfiCond46) R24 Frame(CFA_Y, -5)
        CFI (cfiCond46) R25 Frame(CFA_Y, -4)
        CFI (cfiCond46) R26 Frame(CFA_Y, -3)
        CFI (cfiCond46) R27 Frame(CFA_Y, -2)
        CFI (cfiCond46) R4 Frame(CFA_Y, -1)
        CFI (cfiCond46) CFA_SP SP+6
        CFI (cfiCond46) CFA_Y Y+23
        CFI Block cfiCond47 Using cfiCommon0
        CFI (cfiCond47) NoFunction
        CFI (cfiCond47) Conditional ??CrossCallReturnLabel_269
        CFI (cfiCond47) R24 Frame(CFA_Y, -3)
        CFI (cfiCond47) R25 Frame(CFA_Y, -2)
        CFI (cfiCond47) R26 Frame(CFA_Y, -1)
        CFI (cfiCond47) CFA_SP SP+6
        CFI (cfiCond47) CFA_Y Y+21
        CFI Block cfiCond48 Using cfiCommon0
        CFI (cfiCond48) NoFunction
        CFI (cfiCond48) Conditional ??CrossCallReturnLabel_268
        CFI (cfiCond48) R24 Frame(CFA_Y, -2)
        CFI (cfiCond48) R25 Frame(CFA_Y, -1)
        CFI (cfiCond48) CFA_SP SP+6
        CFI (cfiCond48) CFA_Y Y+20
        CFI Block cfiCond49 Using cfiCommon0
        CFI (cfiCond49) NoFunction
        CFI (cfiCond49) Conditional ??CrossCallReturnLabel_267
        CFI (cfiCond49) R24 Frame(CFA_Y, -8)
        CFI (cfiCond49) R25 Frame(CFA_Y, -7)
        CFI (cfiCond49) R26 Frame(CFA_Y, -6)
        CFI (cfiCond49) R27 Frame(CFA_Y, -5)
        CFI (cfiCond49) R4 Frame(CFA_Y, -4)
        CFI (cfiCond49) R5 Frame(CFA_Y, -3)
        CFI (cfiCond49) R6 Frame(CFA_Y, -2)
        CFI (cfiCond49) R7 Frame(CFA_Y, -1)
        CFI (cfiCond49) CFA_SP SP+6
        CFI (cfiCond49) CFA_Y Y+26
        CFI Block cfiCond50 Using cfiCommon0
        CFI (cfiCond50) NoFunction
        CFI (cfiCond50) Conditional ??CrossCallReturnLabel_266
        CFI (cfiCond50) R24 Frame(CFA_Y, -8)
        CFI (cfiCond50) R25 Frame(CFA_Y, -7)
        CFI (cfiCond50) R26 Frame(CFA_Y, -6)
        CFI (cfiCond50) R27 Frame(CFA_Y, -5)
        CFI (cfiCond50) R4 Frame(CFA_Y, -4)
        CFI (cfiCond50) R5 Frame(CFA_Y, -3)
        CFI (cfiCond50) R6 Frame(CFA_Y, -2)
        CFI (cfiCond50) R7 Frame(CFA_Y, -1)
        CFI (cfiCond50) CFA_SP SP+6
        CFI (cfiCond50) CFA_Y Y+26
        CFI Block cfiCond51 Using cfiCommon0
        CFI (cfiCond51) NoFunction
        CFI (cfiCond51) Conditional ??CrossCallReturnLabel_265
        CFI (cfiCond51) CFA_SP SP+6
        CFI (cfiCond51) CFA_Y Y+18
        CFI Block cfiPicker52 Using cfiCommon1
        CFI (cfiPicker52) NoFunction
        CFI (cfiPicker52) Picker
        JMP	WrArrayToFlesh
        CFI EndBlock cfiCond45
        CFI EndBlock cfiCond46
        CFI EndBlock cfiCond47
        CFI EndBlock cfiCond48
        CFI EndBlock cfiCond49
        CFI EndBlock cfiCond50
        CFI EndBlock cfiCond51
        CFI EndBlock cfiPicker52
//  411 
//  412 
//  413 /////////////////////////////////////////
//  414 
//  415 
//  416 
//  417 ////////////////////////////////////////////// 10 11 14
//  418 

        RSEG FARCODE:CODE:NOROOT(1)
//  419 unsigned long int set_time_day_zamer(char date,char month,char year)
set_time_day_zamer:
        CFI Block cfiBlock53 Using cfiCommon0
        CFI Function set_time_day_zamer
//  420 { unsigned long int sek_32;
        CALL	?PROLOGUE5_L09
        CFI R4 Frame(CFA_Y, -1)
        CFI R27 Frame(CFA_Y, -2)
        CFI R26 Frame(CFA_Y, -3)
        CFI R25 Frame(CFA_Y, -4)
        CFI R24 Frame(CFA_Y, -5)
        CFI CFA_Y Y+5
        REQUIRE	?Register_R4_is_cg_reg
        MOV	R4, R16
        MOV	R24, R17
        MOV	R26, R18
//  421   struct
//  422         { // в двоичном коде
//  423           char r_sec;
//  424           char r_min;
//  425           char r_hor;
//  426           char r_day;
//  427           char r_date;
//  428           char r_month;
//  429           char r_year;
//  430           char r_control;
//  431         }  real_time;   
//  432          
//  433         real_time.r_sec=c2_byte.mb[0x12*2];
//  434         real_time.r_min=c2_byte.mb[0x11*2];
//  435         real_time.r_hor=c2_byte.mb[0x10*2];
//  436         real_time.r_date=date;
//  437         real_time.r_month=month;
//  438         real_time.r_year=year; 
//  439 //  real_time.r_year = real_time.r_year & 0x7F; 
//  440 //  if (real_time.r_year > 99) real_time.r_year = 0; 
//  441 //  if ( (real_time.r_date > 31) | (real_time.r_date <1) ) real_time.r_date = 1;    
//  442 //  if (real_time.r_hor > 60) real_time.r_hor = 0;      
//  443 //  if (real_time.r_min > 60) real_time.r_min = 0;  
//  444 //  if (real_time.r_sec > 60) real_time.r_sec = 1;  
//  445 //  
//  446    sek_32 = ( ( (unsigned long int)real_time.r_year * 365 ) + (real_time.r_year>>2) );
        MOV	R20, R18
        RCALL	?Subroutine5
//  447    
//  448      switch ( real_time.r_month )
??CrossCallReturnLabel_208:
        MOV	R16, R4
        RCALL	?Subroutine37
??CrossCallReturnLabel_41:
        BREQ	??set_time_day_zamer_0
        DEC	R30
        BREQ	??set_time_day_zamer_1
        DEC	R30
        BREQ	??set_time_day_zamer_2
        DEC	R30
        BREQ	??set_time_day_zamer_3
        DEC	R30
        BREQ	??set_time_day_zamer_4
        DEC	R30
        BREQ	??set_time_day_zamer_5
        DEC	R30
        BREQ	??set_time_day_zamer_6
        DEC	R30
        BREQ	??set_time_day_zamer_7
        DEC	R30
        BREQ	??set_time_day_zamer_8
        DEC	R30
        BREQ	??set_time_day_zamer_9
        DEC	R30
        BREQ	??set_time_day_zamer_10
//  449          {
//  450           case 1: sek_32 = (sek_32 + real_time.r_date); break;
        ADD	R20, R4
        ADC	R21, R19
        RJMP	??set_time_day_zamer_11
//  451           case 2: sek_32 = (sek_32 + real_time.r_date + 31); break;
??set_time_day_zamer_0:
        SUBI	R16, 225
??set_time_day_zamer_12:
        SBCI	R17, 255
        RJMP	??set_time_day_zamer_13
//  452           case 3: sek_32 = (sek_32 + real_time.r_date + 59); break;
??set_time_day_zamer_1:
        SUBI	R16, 197
        RJMP	??set_time_day_zamer_12
//  453           case 4: sek_32 = (sek_32 + real_time.r_date + 90); break;
??set_time_day_zamer_2:
        SUBI	R16, 166
        RJMP	??set_time_day_zamer_12
//  454           case 5: sek_32 = (sek_32 + real_time.r_date + 120); break;
??set_time_day_zamer_3:
        SUBI	R16, 136
        RJMP	??set_time_day_zamer_12
//  455           case 6: sek_32 = (sek_32 + real_time.r_date + 151); break;
??set_time_day_zamer_4:
        SUBI	R16, 105
        RJMP	??set_time_day_zamer_12
//  456           case 7: sek_32 = (sek_32 + real_time.r_date + 181); break;
??set_time_day_zamer_5:
        SUBI	R16, 75
        RJMP	??set_time_day_zamer_12
//  457           case 8: sek_32 = (sek_32 + real_time.r_date + 212); break;
??set_time_day_zamer_6:
        SUBI	R16, 44
        RJMP	??set_time_day_zamer_12
//  458           case 9: sek_32 = (sek_32 + real_time.r_date + 243); break;
??set_time_day_zamer_7:
        SUBI	R16, 13
        RJMP	??set_time_day_zamer_12
//  459           case 10: sek_32 = (sek_32 + real_time.r_date + 273); break;
??set_time_day_zamer_8:
        SUBI	R16, 239
        RJMP	??set_time_day_zamer_14
//  460           case 11: sek_32 = (sek_32 + real_time.r_date + 304); break;
??set_time_day_zamer_9:
        SUBI	R16, 208
        RJMP	??set_time_day_zamer_14
//  461           case 12: sek_32 = (sek_32 + real_time.r_date + 334); break;
??set_time_day_zamer_10:
        SUBI	R16, 178
??set_time_day_zamer_14:
        SBCI	R17, 254
??set_time_day_zamer_13:
        ADD	R20, R16
        ADC	R21, R17
??set_time_day_zamer_11:
        ADC	R22, R19
        ADC	R23, R19
//  462           default:
//  463           sek_32 = (sek_32 + real_time.r_date);
//  464          }
//  465     if ( (real_time.r_year & 0x03) == 0 )
        ANDI	R26, 0x03
        BRNE	??CrossCallReturnLabel_110
//  466          {
//  467           if (real_time.r_month < 3) sek_32--;
        CPI	R24, 3
        BRCC	??CrossCallReturnLabel_110
        RCALL	?Subroutine71
//  468          }
//  469   sek_32 = ((sek_32 * 86400)+((unsigned long int)real_time.r_hor * 3600)+((unsigned long int)real_time.r_min * 60)+real_time.r_sec );
//  470   sek_32=sek_32+2;   // чтобы избежать 00 часов
//  471  // cek_Unix_2000 = 946684800   
//  472    return sek_32;
??CrossCallReturnLabel_110:
        RCALL	?Subroutine78
??CrossCallReturnLabel_233:
        RCALL	?Subroutine69
??CrossCallReturnLabel_99:
        LDD	R20, Z+32
        RCALL	?Subroutine6
??CrossCallReturnLabel_231:
        LDD	R20, Z+34
        RCALL	?Subroutine7
??CrossCallReturnLabel_4:
        LDD	R20, Z+36
        RCALL	?Subroutine105
??CrossCallReturnLabel_206:
        SUBI	R20, 254
        SBCI	R21, 255
        SBCI	R22, 255
        SBCI	R23, 255
        MOVW	R17:R16, R21:R20
        MOVW	R19:R18, R23:R22
        CFI EndBlock cfiBlock53
        REQUIRE ?Subroutine121
        ;		// Fall through to label ?Subroutine121
//  473 } 

        RSEG FARCODE:CODE:NOROOT(1)
?Subroutine121:
        CFI Block cfiBlock54 Using cfiCommon0
        CFI NoFunction
        CFI CFA_Y Y+5
        CFI R4 Frame(CFA_Y, -1)
        CFI R24 Frame(CFA_Y, -5)
        CFI R25 Frame(CFA_Y, -4)
        CFI R26 Frame(CFA_Y, -3)
        CFI R27 Frame(CFA_Y, -2)
        LDI	R30, 5
        JMP	?EPILOGUE_B5_L09
        CFI EndBlock cfiBlock54

        RSEG FARCODE:CODE:NOROOT(1)
?Subroutine105:
        CFI Block cfiCond55 Using cfiCommon0
        CFI NoFunction
        CFI Conditional ??CrossCallReturnLabel_205
        CFI R24 Frame(CFA_Y, -6)
        CFI R25 Frame(CFA_Y, -5)
        CFI R26 Frame(CFA_Y, -4)
        CFI R27 Frame(CFA_Y, -3)
        CFI R4 Frame(CFA_Y, -2)
        CFI R5 Frame(CFA_Y, -1)
        CFI CFA_SP SP+6
        CFI CFA_Y Y+28
        CFI Block cfiCond56 Using cfiCommon0
        CFI (cfiCond56) NoFunction
        CFI (cfiCond56) Conditional ??CrossCallReturnLabel_206
        CFI (cfiCond56) R24 Frame(CFA_Y, -5)
        CFI (cfiCond56) R25 Frame(CFA_Y, -4)
        CFI (cfiCond56) R26 Frame(CFA_Y, -3)
        CFI (cfiCond56) R27 Frame(CFA_Y, -2)
        CFI (cfiCond56) R4 Frame(CFA_Y, -1)
        CFI (cfiCond56) CFA_SP SP+6
        CFI (cfiCond56) CFA_Y Y+5
        CFI Block cfiCond57 Using cfiCommon0
        CFI (cfiCond57) NoFunction
        CFI (cfiCond57) Conditional ??CrossCallReturnLabel_207
        CFI (cfiCond57) R24 Frame(CFA_Y, -16)
        CFI (cfiCond57) R25 Frame(CFA_Y, -15)
        CFI (cfiCond57) R26 Frame(CFA_Y, -14)
        CFI (cfiCond57) R27 Frame(CFA_Y, -13)
        CFI (cfiCond57) R4 Frame(CFA_Y, -12)
        CFI (cfiCond57) R5 Frame(CFA_Y, -11)
        CFI (cfiCond57) R6 Frame(CFA_Y, -10)
        CFI (cfiCond57) R7 Frame(CFA_Y, -9)
        CFI (cfiCond57) R8 Frame(CFA_Y, -8)
        CFI (cfiCond57) R9 Frame(CFA_Y, -7)
        CFI (cfiCond57) R10 Frame(CFA_Y, -6)
        CFI (cfiCond57) R11 Frame(CFA_Y, -5)
        CFI (cfiCond57) R12 Frame(CFA_Y, -4)
        CFI (cfiCond57) R13 Frame(CFA_Y, -3)
        CFI (cfiCond57) R14 Frame(CFA_Y, -2)
        CFI (cfiCond57) R15 Frame(CFA_Y, -1)
        CFI (cfiCond57) CFA_SP SP+6
        CFI (cfiCond57) CFA_Y Y+34
        CFI Block cfiCond58 Using cfiCommon0
        CFI (cfiCond58) NoFunction
        CFI (cfiCond58) Conditional ??CrossCallReturnLabel_208
        CFI (cfiCond58) R24 Frame(CFA_Y, -5)
        CFI (cfiCond58) R25 Frame(CFA_Y, -4)
        CFI (cfiCond58) R26 Frame(CFA_Y, -3)
        CFI (cfiCond58) R27 Frame(CFA_Y, -2)
        CFI (cfiCond58) R4 Frame(CFA_Y, -1)
        CFI (cfiCond58) CFA_SP SP+6
        CFI (cfiCond58) CFA_Y Y+5
        CFI Block cfiCond59 Using cfiCommon0
        CFI (cfiCond59) NoFunction
        CFI (cfiCond59) Conditional ??CrossCallReturnLabel_209
        CFI (cfiCond59) R24 Frame(CFA_Y, -9)
        CFI (cfiCond59) R25 Frame(CFA_Y, -8)
        CFI (cfiCond59) R26 Frame(CFA_Y, -7)
        CFI (cfiCond59) R27 Frame(CFA_Y, -6)
        CFI (cfiCond59) R4 Frame(CFA_Y, -5)
        CFI (cfiCond59) R5 Frame(CFA_Y, -4)
        CFI (cfiCond59) R6 Frame(CFA_Y, -3)
        CFI (cfiCond59) R7 Frame(CFA_Y, -2)
        CFI (cfiCond59) R8 Frame(CFA_Y, -1)
        CFI (cfiCond59) CFA_SP SP+6
        CFI (cfiCond59) CFA_Y Y+9
        CFI Block cfiPicker60 Using cfiCommon1
        CFI (cfiPicker60) NoFunction
        CFI (cfiPicker60) Picker
        ADD	R20, R16
        ADC	R21, R17
        ADC	R22, R18
        ADC	R23, R19
        RET
        CFI EndBlock cfiCond55
        CFI EndBlock cfiCond56
        CFI EndBlock cfiCond57
        CFI EndBlock cfiCond58
        CFI EndBlock cfiCond59
        CFI EndBlock cfiPicker60

        RSEG FARCODE:CODE:NOROOT(1)
?Subroutine71:
        CFI Block cfiCond61 Using cfiCommon0
        CFI NoFunction
        CFI Conditional ??CrossCallReturnLabel_110
        CFI R24 Frame(CFA_Y, -5)
        CFI R25 Frame(CFA_Y, -4)
        CFI R26 Frame(CFA_Y, -3)
        CFI R27 Frame(CFA_Y, -2)
        CFI R4 Frame(CFA_Y, -1)
        CFI CFA_SP SP+6
        CFI CFA_Y Y+5
        CFI Block cfiCond62 Using cfiCommon0
        CFI (cfiCond62) NoFunction
        CFI (cfiCond62) Conditional ??CrossCallReturnLabel_111
        CFI (cfiCond62) R24 Frame(CFA_Y, -9)
        CFI (cfiCond62) R25 Frame(CFA_Y, -8)
        CFI (cfiCond62) R26 Frame(CFA_Y, -7)
        CFI (cfiCond62) R27 Frame(CFA_Y, -6)
        CFI (cfiCond62) R4 Frame(CFA_Y, -5)
        CFI (cfiCond62) R5 Frame(CFA_Y, -4)
        CFI (cfiCond62) R6 Frame(CFA_Y, -3)
        CFI (cfiCond62) R7 Frame(CFA_Y, -2)
        CFI (cfiCond62) R8 Frame(CFA_Y, -1)
        CFI (cfiCond62) CFA_SP SP+6
        CFI (cfiCond62) CFA_Y Y+9
        CFI Block cfiPicker63 Using cfiCommon1
        CFI (cfiPicker63) NoFunction
        CFI (cfiPicker63) Picker
        SUBI	R20, 1
        CFI Block cfiCond64 Using cfiCommon0
        CFI (cfiCond64) NoFunction
        CFI (cfiCond64) Conditional ??CrossCallReturnLabel_109
        CFI (cfiCond64) R24 Frame(CFA_Y, -6)
        CFI (cfiCond64) R25 Frame(CFA_Y, -5)
        CFI (cfiCond64) R26 Frame(CFA_Y, -4)
        CFI (cfiCond64) R27 Frame(CFA_Y, -3)
        CFI (cfiCond64) R4 Frame(CFA_Y, -2)
        CFI (cfiCond64) R5 Frame(CFA_Y, -1)
        CFI (cfiCond64) CFA_SP SP+6
        CFI (cfiCond64) CFA_Y Y+28
??Subroutine71_0:
        SBCI	R21, 0
        SBCI	R22, 0
        SBCI	R23, 0
        RET
        CFI EndBlock cfiCond61
        CFI EndBlock cfiCond62
        CFI EndBlock cfiPicker63
        CFI EndBlock cfiCond64

        RSEG FARCODE:CODE:NOROOT(1)
?Subroutine69:
        CFI Block cfiCond65 Using cfiCommon0
        CFI NoFunction
        CFI Conditional ??CrossCallReturnLabel_98
        CFI R24 Frame(CFA_Y, -6)
        CFI R25 Frame(CFA_Y, -5)
        CFI R26 Frame(CFA_Y, -4)
        CFI R27 Frame(CFA_Y, -3)
        CFI R4 Frame(CFA_Y, -2)
        CFI R5 Frame(CFA_Y, -1)
        CFI CFA_SP SP+6
        CFI CFA_Y Y+28
        CFI Block cfiCond66 Using cfiCommon0
        CFI (cfiCond66) NoFunction
        CFI (cfiCond66) Conditional ??CrossCallReturnLabel_99
        CFI (cfiCond66) R24 Frame(CFA_Y, -5)
        CFI (cfiCond66) R25 Frame(CFA_Y, -4)
        CFI (cfiCond66) R26 Frame(CFA_Y, -3)
        CFI (cfiCond66) R27 Frame(CFA_Y, -2)
        CFI (cfiCond66) R4 Frame(CFA_Y, -1)
        CFI (cfiCond66) CFA_SP SP+6
        CFI (cfiCond66) CFA_Y Y+5
        CFI Block cfiCond67 Using cfiCommon0
        CFI (cfiCond67) NoFunction
        CFI (cfiCond67) Conditional ??CrossCallReturnLabel_100
        CFI (cfiCond67) R24 Frame(CFA_Y, -13)
        CFI (cfiCond67) R25 Frame(CFA_Y, -12)
        CFI (cfiCond67) R26 Frame(CFA_Y, -11)
        CFI (cfiCond67) R27 Frame(CFA_Y, -10)
        CFI (cfiCond67) R4 Frame(CFA_Y, -9)
        CFI (cfiCond67) R5 Frame(CFA_Y, -8)
        CFI (cfiCond67) R6 Frame(CFA_Y, -7)
        CFI (cfiCond67) R7 Frame(CFA_Y, -6)
        CFI (cfiCond67) R8 Frame(CFA_Y, -5)
        CFI (cfiCond67) R9 Frame(CFA_Y, -4)
        CFI (cfiCond67) R10 Frame(CFA_Y, -3)
        CFI (cfiCond67) R11 Frame(CFA_Y, -2)
        CFI (cfiCond67) R12 Frame(CFA_Y, -1)
        CFI (cfiCond67) CFA_SP SP+6
        CFI (cfiCond67) CFA_Y Y+13
        CFI Block cfiCond68 Using cfiCommon0
        CFI (cfiCond68) NoFunction
        CFI (cfiCond68) Conditional ??CrossCallReturnLabel_101
        CFI (cfiCond68) R24 Frame(CFA_Y, -13)
        CFI (cfiCond68) R25 Frame(CFA_Y, -12)
        CFI (cfiCond68) R26 Frame(CFA_Y, -11)
        CFI (cfiCond68) R27 Frame(CFA_Y, -10)
        CFI (cfiCond68) R4 Frame(CFA_Y, -9)
        CFI (cfiCond68) R5 Frame(CFA_Y, -8)
        CFI (cfiCond68) R6 Frame(CFA_Y, -7)
        CFI (cfiCond68) R7 Frame(CFA_Y, -6)
        CFI (cfiCond68) R8 Frame(CFA_Y, -5)
        CFI (cfiCond68) R9 Frame(CFA_Y, -4)
        CFI (cfiCond68) R10 Frame(CFA_Y, -3)
        CFI (cfiCond68) R11 Frame(CFA_Y, -2)
        CFI (cfiCond68) R12 Frame(CFA_Y, -1)
        CFI (cfiCond68) CFA_SP SP+6
        CFI (cfiCond68) CFA_Y Y+13
        CFI Block cfiPicker69 Using cfiCommon1
        CFI (cfiPicker69) NoFunction
        CFI (cfiPicker69) Picker
        LDI	R30, LOW(c2_byte)
        LDI	R31, (c2_byte) >> 8
        RET
        CFI EndBlock cfiCond65
        CFI EndBlock cfiCond66
        CFI EndBlock cfiCond67
        CFI EndBlock cfiCond68
        CFI EndBlock cfiPicker69
//  474 
//  475 
//  476 
//  477   
//  478 
//  479 

        RSEG FARCODE:CODE:NOROOT(1)
//  480    void  end_zamer(char m)
end_zamer:
        CFI Block cfiBlock70 Using cfiCommon0
        CFI Function end_zamer
//  481 {
        FUNCALL end_zamer, set_end_time
        LOCFRAME CSTACK, 13, STACK
        LOCFRAME RSTACK, 3, STACK
        FUNCALL end_zamer, set_end_time
        LOCFRAME CSTACK, 13, STACK
        LOCFRAME RSTACK, 3, STACK
        FUNCALL end_zamer, set_end_time
        LOCFRAME CSTACK, 13, STACK
        LOCFRAME RSTACK, 3, STACK
        FUNCALL end_zamer, set_end_time
        LOCFRAME CSTACK, 13, STACK
        LOCFRAME RSTACK, 3, STACK
        FUNCALL end_zamer, set_end_time
        LOCFRAME CSTACK, 13, STACK
        LOCFRAME RSTACK, 3, STACK
        FUNCALL end_zamer, set_end_time
        LOCFRAME CSTACK, 13, STACK
        LOCFRAME RSTACK, 3, STACK
        FUNCALL end_zamer, set_end_time
        LOCFRAME CSTACK, 13, STACK
        LOCFRAME RSTACK, 3, STACK
        FUNCALL end_zamer, set_end_time
        LOCFRAME CSTACK, 13, STACK
        LOCFRAME RSTACK, 3, STACK
        CALL	?PROLOGUE13_L09
        CFI R12 Frame(CFA_Y, -1)
        CFI R11 Frame(CFA_Y, -2)
        CFI R10 Frame(CFA_Y, -3)
        CFI R9 Frame(CFA_Y, -4)
        CFI R8 Frame(CFA_Y, -5)
        CFI R7 Frame(CFA_Y, -6)
        CFI R6 Frame(CFA_Y, -7)
        CFI R5 Frame(CFA_Y, -8)
        CFI R4 Frame(CFA_Y, -9)
        CFI R27 Frame(CFA_Y, -10)
        CFI R26 Frame(CFA_Y, -11)
        CFI R25 Frame(CFA_Y, -12)
        CFI R24 Frame(CFA_Y, -13)
        CFI CFA_Y Y+13
        REQUIRE	?Register_R4_is_cg_reg
        REQUIRE	?Register_R5_is_cg_reg
        REQUIRE	?Register_R6_is_cg_reg
        REQUIRE	?Register_R7_is_cg_reg
        REQUIRE	?Register_R8_is_cg_reg
        REQUIRE	?Register_R9_is_cg_reg
        REQUIRE	?Register_R10_is_cg_reg
        REQUIRE	?Register_R11_is_cg_reg
        REQUIRE	?Register_R12_is_cg_reg
        MOV	R12, R16
//  482 unsigned long int u_i;
//  483 unsigned int zamer;                                     
//  484                               ////////////////////
//  485                              
//  486                                             
//  487                                             zamer=c2_byte.mb[0+(2*m)]+(c2_byte.mb[1+(2*m)] & 7)*256;
        MOV	R22, R16
        LDI	R23, 0
        LDI	R16, LOW(c2_byte)
        MOV	R6, R16
        LDI	R16, (c2_byte) >> 8
        MOV	R7, R16
        RCALL	?Subroutine54
??CrossCallReturnLabel_74:
        MOVW	R5:R4, R7:R6
        ADD	R4, R16
        ADC	R5, R17
        MOVW	R31:R30, R5:R4
        LD	R16, Z
        LDD	R20, Z+1
        ANDI	R20, 0x07
        MOV	R21, R20
        MOV	R20, R16
//  488                                             if ( zamer> 1440) {timer_tii[m]=0;cnt_moto[m]=0;return;}
        RCALL	?Subroutine54
??CrossCallReturnLabel_75:
        RCALL	??Subroutine54_0
??CrossCallReturnLabel_76:
        LDI	R24, LOW(timer_tii)
        LDI	R25, (timer_tii) >> 8
        ADD	R24, R16
        ADC	R25, R17
        LDI	R30, LOW(cnt_moto)
        LDI	R31, (cnt_moto) >> 8
        RCALL	??Subroutine16_0
??CrossCallReturnLabel_21:
        CPI	R20, 161
        LDI	R16, 5
        CPC	R21, R16
        BRCS	??end_zamer_0
        MOVW	R27:R26, R25:R24
        ST	X+, R23
        ST	X+, R23
        ST	X+, R23
        ST	X, R23
        RCALL	?Subroutine81
??CrossCallReturnLabel_130:
        LDI	R30, 13
        JMP	?EPILOGUE_B13_L09
//  489                                             cnt_moto[m]=0;
??end_zamer_0:
        RCALL	?Subroutine81
//  490                                             old_realsec[m]=real_time.r_sec;
??CrossCallReturnLabel_131:
        LDI	R26, LOW(real_time)
        LDI	R27, (real_time) >> 8
        LD	R16, X
        MOVW	R31:R30, R23:R22
        SUBI	R30, LOW((-(old_realsec) & 0xFFFF))
        SBCI	R31, (-(old_realsec) & 0xFFFF) >> 8
        ST	Z, R16
//  491                                          switch(zamer)
        MOVW	R17:R16, R21:R20
        LDI	R30, LOW(`?<Jumptable for end_zamer>_0`)
        LDI	R31, (`?<Jumptable for end_zamer>_0`) >> 16
        OUT	0x3B, R31
        LDI	R31, HIGH(`?<Jumptable for end_zamer>_0`)
        JMP	?SV_SWITCH_L06
//  492                                               {              
//  493                                                  
//  494                                                  case 10: 
//  495                                                  {  
//  496                                                
//  497                   timer_tii[m]=set_end_time((real_time.r_min/10)*10,
//  498                                              real_time.r_hor,
//  499                                              real_time.r_date,
//  500                                              real_time.r_month,
//  501                                              real_time.r_year)+600; 
??end_zamer_1:
        RCALL	?Subroutine55
??CrossCallReturnLabel_78:
        RCALL	?Subroutine80
??CrossCallReturnLabel_123:
        LDI	R17, 10
        RCALL	?Subroutine64
??CrossCallReturnLabel_278:
        SUBI	R16, 168
        SBCI	R17, 253
        RJMP	??end_zamer_2
//  502                                              
//  503                                              lock_bit= lock_bit & ~(1<<m);
//  504                                                 
//  505                                                  break;
//  506                                                  } 
//  507                                                 
//  508                                                  
//  509                                                   case 20: 
//  510                                                  { 
//  511                   timer_tii[m]=set_end_time((real_time.r_min/20)*20,
//  512                                              real_time.r_hor,
//  513                                              real_time.r_date,
//  514                                              real_time.r_month,
//  515                                              real_time.r_year)+1200; 
??end_zamer_3:
        RCALL	?Subroutine55
??CrossCallReturnLabel_79:
        LDI	R20, 20
        RCALL	??Subroutine80_0
??CrossCallReturnLabel_124:
        LDI	R17, 20
        RCALL	?Subroutine64
??CrossCallReturnLabel_277:
        SUBI	R16, 80
        SBCI	R17, 251
        RJMP	??end_zamer_2
//  516                                              
//  517                                                lock_bit= lock_bit & ~(1<<m);
//  518                                               
//  519                                                  break;
//  520                                                  }  
//  521                                                   case 30: 
//  522                                                  {
//  523                     timer_tii[m]=set_end_time((real_time.r_min/30)*30,
//  524                                              real_time.r_hor,
//  525                                              real_time.r_date,
//  526                                              real_time.r_month,
//  527                                              real_time.r_year)+1800;                                
??end_zamer_4:
        RCALL	?Subroutine55
??CrossCallReturnLabel_80:
        LDI	R20, 30
        RCALL	??Subroutine80_0
??CrossCallReturnLabel_125:
        LDI	R17, 30
        RCALL	?Subroutine64
??CrossCallReturnLabel_276:
        SUBI	R16, 248
        SBCI	R17, 248
        RJMP	??end_zamer_2
//  528                                                    
//  529                                                lock_bit= lock_bit & ~(1<<m);
//  530                                                 
//  531                                                  break;
//  532                                                  }
//  533                                                  
//  534                                                  case 60: 
//  535                                                  {
//  536                   timer_tii[m]=set_end_time(0,
//  537                                              real_time.r_hor,
//  538                                              real_time.r_date,
//  539                                              real_time.r_month,
//  540                                              real_time.r_year)+3600;                                  
??end_zamer_5:
        RCALL	?Subroutine56
??CrossCallReturnLabel_81:
        RCALL	?Subroutine9
??CrossCallReturnLabel_8:
        RJMP	??end_zamer_2
//  541                                                    
//  542                                                lock_bit= lock_bit & ~(1<<m);
//  543                                                 
//  544                                                  break;
//  545                                                  }
//  546                                                
//  547                                                  case 120: 
//  548                                                  { 
//  549                  timer_tii[m]=set_end_time(0,
//  550                                              (real_time.r_hor/2)*2,
//  551                                              real_time.r_date,
//  552                                              real_time.r_month,
//  553                                              real_time.r_year)+7200;                                   
??end_zamer_6:
        RCALL	?Subroutine56
??CrossCallReturnLabel_82:
        ANDI	R17, 0xFE
        RCALL	?Subroutine10
??CrossCallReturnLabel_10:
        RJMP	??end_zamer_2
//  554                                                
//  555                                                lock_bit= lock_bit & ~(1<<m);
//  556                                                 
//  557                                                  break;
//  558                                                  } 
//  559                                                
//  560                                                  case 240: 
//  561                                                  { 
//  562                  timer_tii[m]=set_end_time(0,
//  563                                              (real_time.r_hor/4)*4,
//  564                                              real_time.r_date,
//  565                                              real_time.r_month,
//  566                                              real_time.r_year)+14400;                                   
??end_zamer_7:
        RCALL	?Subroutine56
??CrossCallReturnLabel_83:
        ANDI	R17, 0xFC
        RCALL	?Subroutine11
??CrossCallReturnLabel_12:
        RJMP	??end_zamer_2
//  567                                               
//  568                                                lock_bit= lock_bit & ~(1<<m);
//  569                                                
//  570                                                  break;
//  571                                                  }
//  572                                                  
//  573                                                  case 360: 
//  574                                                  {
//  575            timer_tii[m]=set_end_time(0,
//  576                                              (real_time.r_hor/6)*6,
//  577                                              real_time.r_date,
//  578                                              real_time.r_month,
//  579                                              real_time.r_year)+21600;                                   
??end_zamer_8:
        MOVW	R31:R30, R27:R26
        LDD	R6, Z+6
        LDD	R19, Z+5
        LDD	R18, Z+4
        LDD	R16, Z+2
        RCALL	?Subroutine79
??CrossCallReturnLabel_121:
        MOV	R20, R6
        RCALL	?Subroutine12
??CrossCallReturnLabel_14:
        RJMP	??end_zamer_2
//  580                                               
//  581                                                lock_bit= lock_bit & ~(1<<m);
//  582                                               
//  583                                                  break;
//  584                                                  }    
//  585                                                  case 0: {timer_tii[m]=0;break;}
??end_zamer_9:
        LDI	R16, 0
        MOVW	R31:R30, R25:R24
        ST	Z, R16
        STD	Z+1, R16
        STD	Z+2, R16
        STD	Z+3, R16
        RJMP	??CrossCallReturnLabel_130
//  586                                                  
//  587                                                  
//  588                                    case 1440:
//  589                                                       {  
//  590                                      u_i=set_end_time(c2_byte.mb[34],
//  591                                              c2_byte.mb[32],
//  592                                              real_time.r_date,
//  593                                              real_time.r_month,
//  594                                              real_time.r_year)+(unsigned long int)c2_byte.mb[36];                                   
??end_zamer_10:
        MOVW	R31:R30, R27:R26
        LDD	R20, Z+6
        LDD	R19, Z+5
        LDD	R18, Z+4
        RCALL	?Subroutine69
??CrossCallReturnLabel_100:
        RCALL	?Subroutine82
??CrossCallReturnLabel_132:
        RCALL	?Subroutine69
??CrossCallReturnLabel_101:
        RCALL	?Subroutine1
//  595                                       if (u_i <= unix ) timer_tii[m]=u_i+86400;  // если время окончания замера меньше текущего
??CrossCallReturnLabel_0:
        BRCS	??end_zamer_11
        RCALL	?Subroutine60
??CrossCallReturnLabel_87:
        RJMP	??end_zamer_12
//  596                                       else  timer_tii[m]=u_i+5;       
??end_zamer_11:
        SUBI	R16, 251
        SBCI	R17, 255
??end_zamer_2:
        SBCI	R18, 255
??end_zamer_12:
        SBCI	R19, 255
??end_zamer_13:
        MOVW	R31:R30, R25:R24
        ST	Z, R16
        STD	Z+1, R17
        STD	Z+2, R18
        STD	Z+3, R19
//  597                                                lock_bit= lock_bit & ~(1<<m); 
        RCALL	?Subroutine59
??CrossCallReturnLabel_237:
        MOV	R20, R12
        RCALL	?Subroutine83
??CrossCallReturnLabel_134:
        RCALL	??Subroutine84_0
??CrossCallReturnLabel_140:
        LDD	R18, Z+26
        LDD	R19, Z+27
        AND	R18, R16
        AND	R19, R17
        STD	Z+26, R18
        STD	Z+27, R19
//  598                                                                           
//  599                                      
//  600                                                       break;
        RJMP	??CrossCallReturnLabel_130
//  601                                                       }               
//  602                                                  
//  603                                                  
//  604                                                  
//  605                                                  
//  606                                                  
//  607                                                     
//  608                                                 default:
//  609                                                              {
//  610                                                
//  611                                                timer_tii[m]=unix+( (long int)c2_byte.mb[0+2*m]+(long int)(c2_byte.mb[1+2*m] & 7)*256)*60; 
??end_zamer_14:
        LDI	R30, LOW(unix)
        LDI	R31, (unix) >> 8
        LD	R8, Z
        LDD	R9, Z+1
        LDD	R10, Z+2
        LDD	R11, Z+3
        MOVW	R31:R30, R5:R4
        RCALL	?Subroutine4
??CrossCallReturnLabel_279:
        ADD	R16, R8
        ADC	R17, R9
        ADC	R18, R10
        ADC	R19, R11
        RJMP	??end_zamer_13
        CFI EndBlock cfiBlock70
//  612                                                lock_bit= lock_bit & ~(1<<m);
//  613                                                
//  614                                                               break;
//  615                                                               }
//  616                                               }     // sw
//  617                                               
//  618                                           
//  619                              /////////////////////
//  620                                 
//  621     }                     

        RSEG FARCODE:CODE:NOROOT(1)
?Subroutine81:
        CFI Block cfiCond71 Using cfiCommon0
        CFI NoFunction
        CFI Conditional ??CrossCallReturnLabel_130
        CFI R24 Frame(CFA_Y, -13)
        CFI R25 Frame(CFA_Y, -12)
        CFI R26 Frame(CFA_Y, -11)
        CFI R27 Frame(CFA_Y, -10)
        CFI R4 Frame(CFA_Y, -9)
        CFI R5 Frame(CFA_Y, -8)
        CFI R6 Frame(CFA_Y, -7)
        CFI R7 Frame(CFA_Y, -6)
        CFI R8 Frame(CFA_Y, -5)
        CFI R9 Frame(CFA_Y, -4)
        CFI R10 Frame(CFA_Y, -3)
        CFI R11 Frame(CFA_Y, -2)
        CFI R12 Frame(CFA_Y, -1)
        CFI CFA_SP SP+6
        CFI CFA_Y Y+13
        CFI Block cfiCond72 Using cfiCommon0
        CFI (cfiCond72) NoFunction
        CFI (cfiCond72) Conditional ??CrossCallReturnLabel_131
        CFI (cfiCond72) R24 Frame(CFA_Y, -13)
        CFI (cfiCond72) R25 Frame(CFA_Y, -12)
        CFI (cfiCond72) R26 Frame(CFA_Y, -11)
        CFI (cfiCond72) R27 Frame(CFA_Y, -10)
        CFI (cfiCond72) R4 Frame(CFA_Y, -9)
        CFI (cfiCond72) R5 Frame(CFA_Y, -8)
        CFI (cfiCond72) R6 Frame(CFA_Y, -7)
        CFI (cfiCond72) R7 Frame(CFA_Y, -6)
        CFI (cfiCond72) R8 Frame(CFA_Y, -5)
        CFI (cfiCond72) R9 Frame(CFA_Y, -4)
        CFI (cfiCond72) R10 Frame(CFA_Y, -3)
        CFI (cfiCond72) R11 Frame(CFA_Y, -2)
        CFI (cfiCond72) R12 Frame(CFA_Y, -1)
        CFI (cfiCond72) CFA_SP SP+6
        CFI (cfiCond72) CFA_Y Y+13
        CFI Block cfiPicker73 Using cfiCommon1
        CFI (cfiPicker73) NoFunction
        CFI (cfiPicker73) Picker
        ST	Z, R23
        STD	Z+1, R23
        STD	Z+2, R23
        STD	Z+3, R23
        RET
        CFI EndBlock cfiCond71
        CFI EndBlock cfiCond72
        CFI EndBlock cfiPicker73

        RSEG FARCODE:CODE:NOROOT(1)
?Subroutine64:
        CFI Block cfiCond74 Using cfiCommon0
        CFI NoFunction
        CFI Conditional ??CrossCallReturnLabel_278
        CFI R24 Frame(CFA_Y, -13)
        CFI R25 Frame(CFA_Y, -12)
        CFI R26 Frame(CFA_Y, -11)
        CFI R27 Frame(CFA_Y, -10)
        CFI R4 Frame(CFA_Y, -9)
        CFI R5 Frame(CFA_Y, -8)
        CFI R6 Frame(CFA_Y, -7)
        CFI R7 Frame(CFA_Y, -6)
        CFI R8 Frame(CFA_Y, -5)
        CFI R9 Frame(CFA_Y, -4)
        CFI R10 Frame(CFA_Y, -3)
        CFI R11 Frame(CFA_Y, -2)
        CFI R12 Frame(CFA_Y, -1)
        CFI CFA_SP SP+6
        CFI CFA_Y Y+13
        CFI Block cfiCond75 Using cfiCommon0
        CFI (cfiCond75) NoFunction
        CFI (cfiCond75) Conditional ??CrossCallReturnLabel_277
        CFI (cfiCond75) R24 Frame(CFA_Y, -13)
        CFI (cfiCond75) R25 Frame(CFA_Y, -12)
        CFI (cfiCond75) R26 Frame(CFA_Y, -11)
        CFI (cfiCond75) R27 Frame(CFA_Y, -10)
        CFI (cfiCond75) R4 Frame(CFA_Y, -9)
        CFI (cfiCond75) R5 Frame(CFA_Y, -8)
        CFI (cfiCond75) R6 Frame(CFA_Y, -7)
        CFI (cfiCond75) R7 Frame(CFA_Y, -6)
        CFI (cfiCond75) R8 Frame(CFA_Y, -5)
        CFI (cfiCond75) R9 Frame(CFA_Y, -4)
        CFI (cfiCond75) R10 Frame(CFA_Y, -3)
        CFI (cfiCond75) R11 Frame(CFA_Y, -2)
        CFI (cfiCond75) R12 Frame(CFA_Y, -1)
        CFI (cfiCond75) CFA_SP SP+6
        CFI (cfiCond75) CFA_Y Y+13
        CFI Block cfiCond76 Using cfiCommon0
        CFI (cfiCond76) NoFunction
        CFI (cfiCond76) Conditional ??CrossCallReturnLabel_276
        CFI (cfiCond76) R24 Frame(CFA_Y, -13)
        CFI (cfiCond76) R25 Frame(CFA_Y, -12)
        CFI (cfiCond76) R26 Frame(CFA_Y, -11)
        CFI (cfiCond76) R27 Frame(CFA_Y, -10)
        CFI (cfiCond76) R4 Frame(CFA_Y, -9)
        CFI (cfiCond76) R5 Frame(CFA_Y, -8)
        CFI (cfiCond76) R6 Frame(CFA_Y, -7)
        CFI (cfiCond76) R7 Frame(CFA_Y, -6)
        CFI (cfiCond76) R8 Frame(CFA_Y, -5)
        CFI (cfiCond76) R9 Frame(CFA_Y, -4)
        CFI (cfiCond76) R10 Frame(CFA_Y, -3)
        CFI (cfiCond76) R11 Frame(CFA_Y, -2)
        CFI (cfiCond76) R12 Frame(CFA_Y, -1)
        CFI (cfiCond76) CFA_SP SP+6
        CFI (cfiCond76) CFA_Y Y+13
        CFI Block cfiPicker77 Using cfiCommon1
        CFI (cfiPicker77) NoFunction
        CFI (cfiPicker77) Picker
        MUL	R16, R17
        MOV	R16, R0
        MOV	R20, R7
        CFI EndBlock cfiCond74
        CFI EndBlock cfiCond75
        CFI EndBlock cfiCond76
        CFI EndBlock cfiPicker77
        REQUIRE ?Subroutine122
        ;		// Fall through to label ?Subroutine122

        RSEG FARCODE:CODE:NOROOT(1)
?Subroutine122:
        CFI Block cfiCond78 Using cfiCommon0
        CFI NoFunction
        CFI Conditional ??CrossCallReturnLabel_278
        CFI R24 Frame(CFA_Y, -13)
        CFI R25 Frame(CFA_Y, -12)
        CFI R26 Frame(CFA_Y, -11)
        CFI R27 Frame(CFA_Y, -10)
        CFI R4 Frame(CFA_Y, -9)
        CFI R5 Frame(CFA_Y, -8)
        CFI R6 Frame(CFA_Y, -7)
        CFI R7 Frame(CFA_Y, -6)
        CFI R8 Frame(CFA_Y, -5)
        CFI R9 Frame(CFA_Y, -4)
        CFI R10 Frame(CFA_Y, -3)
        CFI R11 Frame(CFA_Y, -2)
        CFI R12 Frame(CFA_Y, -1)
        CFI CFA_SP SP+6
        CFI CFA_Y Y+13
        CFI Block cfiCond79 Using cfiCommon0
        CFI (cfiCond79) NoFunction
        CFI (cfiCond79) Conditional ??CrossCallReturnLabel_277
        CFI (cfiCond79) R24 Frame(CFA_Y, -13)
        CFI (cfiCond79) R25 Frame(CFA_Y, -12)
        CFI (cfiCond79) R26 Frame(CFA_Y, -11)
        CFI (cfiCond79) R27 Frame(CFA_Y, -10)
        CFI (cfiCond79) R4 Frame(CFA_Y, -9)
        CFI (cfiCond79) R5 Frame(CFA_Y, -8)
        CFI (cfiCond79) R6 Frame(CFA_Y, -7)
        CFI (cfiCond79) R7 Frame(CFA_Y, -6)
        CFI (cfiCond79) R8 Frame(CFA_Y, -5)
        CFI (cfiCond79) R9 Frame(CFA_Y, -4)
        CFI (cfiCond79) R10 Frame(CFA_Y, -3)
        CFI (cfiCond79) R11 Frame(CFA_Y, -2)
        CFI (cfiCond79) R12 Frame(CFA_Y, -1)
        CFI (cfiCond79) CFA_SP SP+6
        CFI (cfiCond79) CFA_Y Y+13
        CFI Block cfiCond80 Using cfiCommon0
        CFI (cfiCond80) NoFunction
        CFI (cfiCond80) Conditional ??CrossCallReturnLabel_276
        CFI (cfiCond80) R24 Frame(CFA_Y, -13)
        CFI (cfiCond80) R25 Frame(CFA_Y, -12)
        CFI (cfiCond80) R26 Frame(CFA_Y, -11)
        CFI (cfiCond80) R27 Frame(CFA_Y, -10)
        CFI (cfiCond80) R4 Frame(CFA_Y, -9)
        CFI (cfiCond80) R5 Frame(CFA_Y, -8)
        CFI (cfiCond80) R6 Frame(CFA_Y, -7)
        CFI (cfiCond80) R7 Frame(CFA_Y, -6)
        CFI (cfiCond80) R8 Frame(CFA_Y, -5)
        CFI (cfiCond80) R9 Frame(CFA_Y, -4)
        CFI (cfiCond80) R10 Frame(CFA_Y, -3)
        CFI (cfiCond80) R11 Frame(CFA_Y, -2)
        CFI (cfiCond80) R12 Frame(CFA_Y, -1)
        CFI (cfiCond80) CFA_SP SP+6
        CFI (cfiCond80) CFA_Y Y+13
        CFI Block cfiCond81 Using cfiCommon0
        CFI (cfiCond81) NoFunction
        CFI (cfiCond81) Conditional ??CrossCallReturnLabel_275
        CFI (cfiCond81) R24 Frame(CFA_Y, -12)
        CFI (cfiCond81) R25 Frame(CFA_Y, -11)
        CFI (cfiCond81) R26 Frame(CFA_Y, -10)
        CFI (cfiCond81) R27 Frame(CFA_Y, -9)
        CFI (cfiCond81) R4 Frame(CFA_Y, -8)
        CFI (cfiCond81) R5 Frame(CFA_Y, -7)
        CFI (cfiCond81) R6 Frame(CFA_Y, -6)
        CFI (cfiCond81) R7 Frame(CFA_Y, -5)
        CFI (cfiCond81) R8 Frame(CFA_Y, -4)
        CFI (cfiCond81) R9 Frame(CFA_Y, -3)
        CFI (cfiCond81) R10 Frame(CFA_Y, -2)
        CFI (cfiCond81) R11 Frame(CFA_Y, -1)
        CFI (cfiCond81) CFA_SP SP+6
        CFI (cfiCond81) CFA_Y Y+12
        CFI Block cfiCond82 Using cfiCommon0
        CFI (cfiCond82) NoFunction
        CFI (cfiCond82) Conditional ??CrossCallReturnLabel_274
        CFI (cfiCond82) R24 Frame(CFA_Y, -12)
        CFI (cfiCond82) R25 Frame(CFA_Y, -11)
        CFI (cfiCond82) R26 Frame(CFA_Y, -10)
        CFI (cfiCond82) R27 Frame(CFA_Y, -9)
        CFI (cfiCond82) R4 Frame(CFA_Y, -8)
        CFI (cfiCond82) R5 Frame(CFA_Y, -7)
        CFI (cfiCond82) R6 Frame(CFA_Y, -6)
        CFI (cfiCond82) R7 Frame(CFA_Y, -5)
        CFI (cfiCond82) R8 Frame(CFA_Y, -4)
        CFI (cfiCond82) R9 Frame(CFA_Y, -3)
        CFI (cfiCond82) R10 Frame(CFA_Y, -2)
        CFI (cfiCond82) R11 Frame(CFA_Y, -1)
        CFI (cfiCond82) CFA_SP SP+6
        CFI (cfiCond82) CFA_Y Y+12
        CFI Block cfiCond83 Using cfiCommon0
        CFI (cfiCond83) NoFunction
        CFI (cfiCond83) Conditional ??CrossCallReturnLabel_273
        CFI (cfiCond83) R24 Frame(CFA_Y, -12)
        CFI (cfiCond83) R25 Frame(CFA_Y, -11)
        CFI (cfiCond83) R26 Frame(CFA_Y, -10)
        CFI (cfiCond83) R27 Frame(CFA_Y, -9)
        CFI (cfiCond83) R4 Frame(CFA_Y, -8)
        CFI (cfiCond83) R5 Frame(CFA_Y, -7)
        CFI (cfiCond83) R6 Frame(CFA_Y, -6)
        CFI (cfiCond83) R7 Frame(CFA_Y, -5)
        CFI (cfiCond83) R8 Frame(CFA_Y, -4)
        CFI (cfiCond83) R9 Frame(CFA_Y, -3)
        CFI (cfiCond83) R10 Frame(CFA_Y, -2)
        CFI (cfiCond83) R11 Frame(CFA_Y, -1)
        CFI (cfiCond83) CFA_SP SP+6
        CFI (cfiCond83) CFA_Y Y+12
        CFI Block cfiCond84 Using cfiCommon0
        CFI (cfiCond84) NoFunction
        CFI (cfiCond84) Conditional ??CrossCallReturnLabel_272
        CFI (cfiCond84) R24 Frame(CFA_Y, -12)
        CFI (cfiCond84) R25 Frame(CFA_Y, -11)
        CFI (cfiCond84) R26 Frame(CFA_Y, -10)
        CFI (cfiCond84) R27 Frame(CFA_Y, -9)
        CFI (cfiCond84) R4 Frame(CFA_Y, -8)
        CFI (cfiCond84) R5 Frame(CFA_Y, -7)
        CFI (cfiCond84) R6 Frame(CFA_Y, -6)
        CFI (cfiCond84) R7 Frame(CFA_Y, -5)
        CFI (cfiCond84) R8 Frame(CFA_Y, -4)
        CFI (cfiCond84) R9 Frame(CFA_Y, -3)
        CFI (cfiCond84) R10 Frame(CFA_Y, -2)
        CFI (cfiCond84) R11 Frame(CFA_Y, -1)
        CFI (cfiCond84) CFA_SP SP+6
        CFI (cfiCond84) CFA_Y Y+12
        CFI Block cfiPicker85 Using cfiCommon1
        CFI (cfiPicker85) NoFunction
        CFI (cfiPicker85) Picker
        MOV	R17, R4
        RJMP	set_end_time
        CFI EndBlock cfiCond78
        CFI EndBlock cfiCond79
        CFI EndBlock cfiCond80
        CFI EndBlock cfiCond81
        CFI EndBlock cfiCond82
        CFI EndBlock cfiCond83
        CFI EndBlock cfiCond84
        CFI EndBlock cfiPicker85

        RSEG FARCODE:CODE:NOROOT(1)
?Subroutine60:
        CFI Block cfiCond86 Using cfiCommon0
        CFI NoFunction
        CFI Conditional ??CrossCallReturnLabel_86
        CFI R24 Frame(CFA_Y, -6)
        CFI R25 Frame(CFA_Y, -5)
        CFI R26 Frame(CFA_Y, -4)
        CFI R27 Frame(CFA_Y, -3)
        CFI R4 Frame(CFA_Y, -2)
        CFI R5 Frame(CFA_Y, -1)
        CFI CFA_SP SP+6
        CFI CFA_Y Y+28
        CFI Block cfiCond87 Using cfiCommon0
        CFI (cfiCond87) NoFunction
        CFI (cfiCond87) Conditional ??CrossCallReturnLabel_87
        CFI (cfiCond87) R24 Frame(CFA_Y, -13)
        CFI (cfiCond87) R25 Frame(CFA_Y, -12)
        CFI (cfiCond87) R26 Frame(CFA_Y, -11)
        CFI (cfiCond87) R27 Frame(CFA_Y, -10)
        CFI (cfiCond87) R4 Frame(CFA_Y, -9)
        CFI (cfiCond87) R5 Frame(CFA_Y, -8)
        CFI (cfiCond87) R6 Frame(CFA_Y, -7)
        CFI (cfiCond87) R7 Frame(CFA_Y, -6)
        CFI (cfiCond87) R8 Frame(CFA_Y, -5)
        CFI (cfiCond87) R9 Frame(CFA_Y, -4)
        CFI (cfiCond87) R10 Frame(CFA_Y, -3)
        CFI (cfiCond87) R11 Frame(CFA_Y, -2)
        CFI (cfiCond87) R12 Frame(CFA_Y, -1)
        CFI (cfiCond87) CFA_SP SP+6
        CFI (cfiCond87) CFA_Y Y+13
        CFI Block cfiCond88 Using cfiCommon0
        CFI (cfiCond88) NoFunction
        CFI (cfiCond88) Conditional ??CrossCallReturnLabel_88
        CFI (cfiCond88) R24 Frame(CFA_Y, -12)
        CFI (cfiCond88) R25 Frame(CFA_Y, -11)
        CFI (cfiCond88) R26 Frame(CFA_Y, -10)
        CFI (cfiCond88) R27 Frame(CFA_Y, -9)
        CFI (cfiCond88) R4 Frame(CFA_Y, -8)
        CFI (cfiCond88) R5 Frame(CFA_Y, -7)
        CFI (cfiCond88) R6 Frame(CFA_Y, -6)
        CFI (cfiCond88) R7 Frame(CFA_Y, -5)
        CFI (cfiCond88) R8 Frame(CFA_Y, -4)
        CFI (cfiCond88) R9 Frame(CFA_Y, -3)
        CFI (cfiCond88) R10 Frame(CFA_Y, -2)
        CFI (cfiCond88) R11 Frame(CFA_Y, -1)
        CFI (cfiCond88) CFA_SP SP+6
        CFI (cfiCond88) CFA_Y Y+12
        CFI Block cfiPicker89 Using cfiCommon1
        CFI (cfiPicker89) NoFunction
        CFI (cfiPicker89) Picker
        SUBI	R16, 128
        SBCI	R17, 174
        SBCI	R18, 254
        RET
        CFI EndBlock cfiCond86
        CFI EndBlock cfiCond87
        CFI EndBlock cfiCond88
        CFI EndBlock cfiPicker89

        RSEG FARCODE:CODE:NOROOT(1)
?Subroutine56:
        CFI Block cfiCond90 Using cfiCommon0
        CFI NoFunction
        CFI Conditional ??CrossCallReturnLabel_81
        CFI R24 Frame(CFA_Y, -13)
        CFI R25 Frame(CFA_Y, -12)
        CFI R26 Frame(CFA_Y, -11)
        CFI R27 Frame(CFA_Y, -10)
        CFI R4 Frame(CFA_Y, -9)
        CFI R5 Frame(CFA_Y, -8)
        CFI R6 Frame(CFA_Y, -7)
        CFI R7 Frame(CFA_Y, -6)
        CFI R8 Frame(CFA_Y, -5)
        CFI R9 Frame(CFA_Y, -4)
        CFI R10 Frame(CFA_Y, -3)
        CFI R11 Frame(CFA_Y, -2)
        CFI R12 Frame(CFA_Y, -1)
        CFI CFA_SP SP+6
        CFI CFA_Y Y+13
        CFI Block cfiCond91 Using cfiCommon0
        CFI (cfiCond91) NoFunction
        CFI (cfiCond91) Conditional ??CrossCallReturnLabel_82
        CFI (cfiCond91) R24 Frame(CFA_Y, -13)
        CFI (cfiCond91) R25 Frame(CFA_Y, -12)
        CFI (cfiCond91) R26 Frame(CFA_Y, -11)
        CFI (cfiCond91) R27 Frame(CFA_Y, -10)
        CFI (cfiCond91) R4 Frame(CFA_Y, -9)
        CFI (cfiCond91) R5 Frame(CFA_Y, -8)
        CFI (cfiCond91) R6 Frame(CFA_Y, -7)
        CFI (cfiCond91) R7 Frame(CFA_Y, -6)
        CFI (cfiCond91) R8 Frame(CFA_Y, -5)
        CFI (cfiCond91) R9 Frame(CFA_Y, -4)
        CFI (cfiCond91) R10 Frame(CFA_Y, -3)
        CFI (cfiCond91) R11 Frame(CFA_Y, -2)
        CFI (cfiCond91) R12 Frame(CFA_Y, -1)
        CFI (cfiCond91) CFA_SP SP+6
        CFI (cfiCond91) CFA_Y Y+13
        CFI Block cfiCond92 Using cfiCommon0
        CFI (cfiCond92) NoFunction
        CFI (cfiCond92) Conditional ??CrossCallReturnLabel_83
        CFI (cfiCond92) R24 Frame(CFA_Y, -13)
        CFI (cfiCond92) R25 Frame(CFA_Y, -12)
        CFI (cfiCond92) R26 Frame(CFA_Y, -11)
        CFI (cfiCond92) R27 Frame(CFA_Y, -10)
        CFI (cfiCond92) R4 Frame(CFA_Y, -9)
        CFI (cfiCond92) R5 Frame(CFA_Y, -8)
        CFI (cfiCond92) R6 Frame(CFA_Y, -7)
        CFI (cfiCond92) R7 Frame(CFA_Y, -6)
        CFI (cfiCond92) R8 Frame(CFA_Y, -5)
        CFI (cfiCond92) R9 Frame(CFA_Y, -4)
        CFI (cfiCond92) R10 Frame(CFA_Y, -3)
        CFI (cfiCond92) R11 Frame(CFA_Y, -2)
        CFI (cfiCond92) R12 Frame(CFA_Y, -1)
        CFI (cfiCond92) CFA_SP SP+6
        CFI (cfiCond92) CFA_Y Y+13
        CFI Block cfiPicker93 Using cfiCommon1
        CFI (cfiPicker93) NoFunction
        CFI (cfiPicker93) Picker
        MOVW	R31:R30, R27:R26
        LDD	R20, Z+6
        LDD	R19, Z+5
        LDD	R18, Z+4
        LDD	R17, Z+2
        RET
        CFI EndBlock cfiCond90
        CFI EndBlock cfiCond91
        CFI EndBlock cfiCond92
        CFI EndBlock cfiPicker93

        RSEG FARCODE:CODE:NOROOT(1)
?Subroutine55:
        CFI Block cfiCond94 Using cfiCommon0
        CFI NoFunction
        CFI Conditional ??CrossCallReturnLabel_78
        CFI R24 Frame(CFA_Y, -13)
        CFI R25 Frame(CFA_Y, -12)
        CFI R26 Frame(CFA_Y, -11)
        CFI R27 Frame(CFA_Y, -10)
        CFI R4 Frame(CFA_Y, -9)
        CFI R5 Frame(CFA_Y, -8)
        CFI R6 Frame(CFA_Y, -7)
        CFI R7 Frame(CFA_Y, -6)
        CFI R8 Frame(CFA_Y, -5)
        CFI R9 Frame(CFA_Y, -4)
        CFI R10 Frame(CFA_Y, -3)
        CFI R11 Frame(CFA_Y, -2)
        CFI R12 Frame(CFA_Y, -1)
        CFI CFA_SP SP+6
        CFI CFA_Y Y+13
        CFI Block cfiCond95 Using cfiCommon0
        CFI (cfiCond95) NoFunction
        CFI (cfiCond95) Conditional ??CrossCallReturnLabel_79
        CFI (cfiCond95) R24 Frame(CFA_Y, -13)
        CFI (cfiCond95) R25 Frame(CFA_Y, -12)
        CFI (cfiCond95) R26 Frame(CFA_Y, -11)
        CFI (cfiCond95) R27 Frame(CFA_Y, -10)
        CFI (cfiCond95) R4 Frame(CFA_Y, -9)
        CFI (cfiCond95) R5 Frame(CFA_Y, -8)
        CFI (cfiCond95) R6 Frame(CFA_Y, -7)
        CFI (cfiCond95) R7 Frame(CFA_Y, -6)
        CFI (cfiCond95) R8 Frame(CFA_Y, -5)
        CFI (cfiCond95) R9 Frame(CFA_Y, -4)
        CFI (cfiCond95) R10 Frame(CFA_Y, -3)
        CFI (cfiCond95) R11 Frame(CFA_Y, -2)
        CFI (cfiCond95) R12 Frame(CFA_Y, -1)
        CFI (cfiCond95) CFA_SP SP+6
        CFI (cfiCond95) CFA_Y Y+13
        CFI Block cfiCond96 Using cfiCommon0
        CFI (cfiCond96) NoFunction
        CFI (cfiCond96) Conditional ??CrossCallReturnLabel_80
        CFI (cfiCond96) R24 Frame(CFA_Y, -13)
        CFI (cfiCond96) R25 Frame(CFA_Y, -12)
        CFI (cfiCond96) R26 Frame(CFA_Y, -11)
        CFI (cfiCond96) R27 Frame(CFA_Y, -10)
        CFI (cfiCond96) R4 Frame(CFA_Y, -9)
        CFI (cfiCond96) R5 Frame(CFA_Y, -8)
        CFI (cfiCond96) R6 Frame(CFA_Y, -7)
        CFI (cfiCond96) R7 Frame(CFA_Y, -6)
        CFI (cfiCond96) R8 Frame(CFA_Y, -5)
        CFI (cfiCond96) R9 Frame(CFA_Y, -4)
        CFI (cfiCond96) R10 Frame(CFA_Y, -3)
        CFI (cfiCond96) R11 Frame(CFA_Y, -2)
        CFI (cfiCond96) R12 Frame(CFA_Y, -1)
        CFI (cfiCond96) CFA_SP SP+6
        CFI (cfiCond96) CFA_Y Y+13
        CFI Block cfiPicker97 Using cfiCommon1
        CFI (cfiPicker97) NoFunction
        CFI (cfiPicker97) Picker
        MOVW	R31:R30, R27:R26
        LDD	R7, Z+6
        LDD	R19, Z+5
        LDD	R18, Z+4
        LDD	R4, Z+2
        LDD	R16, Z+1
        RET
        CFI EndBlock cfiCond94
        CFI EndBlock cfiCond95
        CFI EndBlock cfiCond96
        CFI EndBlock cfiPicker97

        RSEG FARCODE:CODE:NOROOT(1)
?Subroutine54:
        CFI Block cfiCond98 Using cfiCommon0
        CFI NoFunction
        CFI Conditional ??CrossCallReturnLabel_74
        CFI R24 Frame(CFA_Y, -13)
        CFI R25 Frame(CFA_Y, -12)
        CFI R26 Frame(CFA_Y, -11)
        CFI R27 Frame(CFA_Y, -10)
        CFI R4 Frame(CFA_Y, -9)
        CFI R5 Frame(CFA_Y, -8)
        CFI R6 Frame(CFA_Y, -7)
        CFI R7 Frame(CFA_Y, -6)
        CFI R8 Frame(CFA_Y, -5)
        CFI R9 Frame(CFA_Y, -4)
        CFI R10 Frame(CFA_Y, -3)
        CFI R11 Frame(CFA_Y, -2)
        CFI R12 Frame(CFA_Y, -1)
        CFI CFA_SP SP+6
        CFI CFA_Y Y+13
        CFI Block cfiCond99 Using cfiCommon0
        CFI (cfiCond99) NoFunction
        CFI (cfiCond99) Conditional ??CrossCallReturnLabel_75
        CFI (cfiCond99) R24 Frame(CFA_Y, -13)
        CFI (cfiCond99) R25 Frame(CFA_Y, -12)
        CFI (cfiCond99) R26 Frame(CFA_Y, -11)
        CFI (cfiCond99) R27 Frame(CFA_Y, -10)
        CFI (cfiCond99) R4 Frame(CFA_Y, -9)
        CFI (cfiCond99) R5 Frame(CFA_Y, -8)
        CFI (cfiCond99) R6 Frame(CFA_Y, -7)
        CFI (cfiCond99) R7 Frame(CFA_Y, -6)
        CFI (cfiCond99) R8 Frame(CFA_Y, -5)
        CFI (cfiCond99) R9 Frame(CFA_Y, -4)
        CFI (cfiCond99) R10 Frame(CFA_Y, -3)
        CFI (cfiCond99) R11 Frame(CFA_Y, -2)
        CFI (cfiCond99) R12 Frame(CFA_Y, -1)
        CFI (cfiCond99) CFA_SP SP+6
        CFI (cfiCond99) CFA_Y Y+13
        CFI Block cfiPicker100 Using cfiCommon1
        CFI (cfiPicker100) NoFunction
        CFI (cfiPicker100) Picker
        MOVW	R17:R16, R23:R22
        CFI Block cfiCond101 Using cfiCommon0
        CFI (cfiCond101) NoFunction
        CFI (cfiCond101) Conditional ??CrossCallReturnLabel_73
        CFI (cfiCond101) R24 Frame(CFA_Y, -2)
        CFI (cfiCond101) R25 Frame(CFA_Y, -1)
        CFI (cfiCond101) CFA_SP SP+6
        CFI (cfiCond101) CFA_Y Y+16
        CFI Block cfiCond102 Using cfiCommon0
        CFI (cfiCond102) NoFunction
        CFI (cfiCond102) Conditional ??CrossCallReturnLabel_76
        CFI (cfiCond102) R24 Frame(CFA_Y, -13)
        CFI (cfiCond102) R25 Frame(CFA_Y, -12)
        CFI (cfiCond102) R26 Frame(CFA_Y, -11)
        CFI (cfiCond102) R27 Frame(CFA_Y, -10)
        CFI (cfiCond102) R4 Frame(CFA_Y, -9)
        CFI (cfiCond102) R5 Frame(CFA_Y, -8)
        CFI (cfiCond102) R6 Frame(CFA_Y, -7)
        CFI (cfiCond102) R7 Frame(CFA_Y, -6)
        CFI (cfiCond102) R8 Frame(CFA_Y, -5)
        CFI (cfiCond102) R9 Frame(CFA_Y, -4)
        CFI (cfiCond102) R10 Frame(CFA_Y, -3)
        CFI (cfiCond102) R11 Frame(CFA_Y, -2)
        CFI (cfiCond102) R12 Frame(CFA_Y, -1)
        CFI (cfiCond102) CFA_SP SP+6
        CFI (cfiCond102) CFA_Y Y+13
        CFI Block cfiCond103 Using cfiCommon0
        CFI (cfiCond103) NoFunction
        CFI (cfiCond103) Conditional ??CrossCallReturnLabel_77
        CFI (cfiCond103) R24 Frame(CFA_Y, -12)
        CFI (cfiCond103) R25 Frame(CFA_Y, -11)
        CFI (cfiCond103) R26 Frame(CFA_Y, -10)
        CFI (cfiCond103) R27 Frame(CFA_Y, -9)
        CFI (cfiCond103) R4 Frame(CFA_Y, -8)
        CFI (cfiCond103) R5 Frame(CFA_Y, -7)
        CFI (cfiCond103) R6 Frame(CFA_Y, -6)
        CFI (cfiCond103) R7 Frame(CFA_Y, -5)
        CFI (cfiCond103) R8 Frame(CFA_Y, -4)
        CFI (cfiCond103) R9 Frame(CFA_Y, -3)
        CFI (cfiCond103) R10 Frame(CFA_Y, -2)
        CFI (cfiCond103) R11 Frame(CFA_Y, -1)
        CFI (cfiCond103) CFA_SP SP+6
        CFI (cfiCond103) CFA_Y Y+12
??Subroutine54_0:
        LSL	R16
        ROL	R17
        RET
        CFI EndBlock cfiCond98
        CFI EndBlock cfiCond99
        CFI EndBlock cfiPicker100
        CFI EndBlock cfiCond101
        CFI EndBlock cfiCond102
        CFI EndBlock cfiCond103
//  622  
//  623 
//  624 
//  625 // замеры по ТИТ
//  626 //

        RSEG FARCODE:CODE:NOROOT(1)
//  627 void  end_zamer_tit(char m)
end_zamer_tit:
        CFI Block cfiBlock104 Using cfiCommon0
        CFI Function end_zamer_tit
//  628 {
        FUNCALL end_zamer_tit, set_end_time
        LOCFRAME CSTACK, 12, STACK
        LOCFRAME RSTACK, 3, STACK
        FUNCALL end_zamer_tit, set_end_time
        LOCFRAME CSTACK, 12, STACK
        LOCFRAME RSTACK, 3, STACK
        FUNCALL end_zamer_tit, set_end_time
        LOCFRAME CSTACK, 12, STACK
        LOCFRAME RSTACK, 3, STACK
        FUNCALL end_zamer_tit, set_end_time
        LOCFRAME CSTACK, 12, STACK
        LOCFRAME RSTACK, 3, STACK
        FUNCALL end_zamer_tit, set_end_time
        LOCFRAME CSTACK, 12, STACK
        LOCFRAME RSTACK, 3, STACK
        FUNCALL end_zamer_tit, set_end_time
        LOCFRAME CSTACK, 12, STACK
        LOCFRAME RSTACK, 3, STACK
        FUNCALL end_zamer_tit, set_end_time
        LOCFRAME CSTACK, 12, STACK
        LOCFRAME RSTACK, 3, STACK
        FUNCALL end_zamer_tit, set_end_time
        LOCFRAME CSTACK, 12, STACK
        LOCFRAME RSTACK, 3, STACK
        FUNCALL end_zamer_tit, set_end_time
        LOCFRAME CSTACK, 12, STACK
        LOCFRAME RSTACK, 3, STACK
        CALL	?PROLOGUE12_L09
        CFI R11 Frame(CFA_Y, -1)
        CFI R10 Frame(CFA_Y, -2)
        CFI R9 Frame(CFA_Y, -3)
        CFI R8 Frame(CFA_Y, -4)
        CFI R7 Frame(CFA_Y, -5)
        CFI R6 Frame(CFA_Y, -6)
        CFI R5 Frame(CFA_Y, -7)
        CFI R4 Frame(CFA_Y, -8)
        CFI R27 Frame(CFA_Y, -9)
        CFI R26 Frame(CFA_Y, -10)
        CFI R25 Frame(CFA_Y, -11)
        CFI R24 Frame(CFA_Y, -12)
        CFI CFA_Y Y+12
        REQUIRE	?Register_R4_is_cg_reg
        REQUIRE	?Register_R5_is_cg_reg
        REQUIRE	?Register_R6_is_cg_reg
        REQUIRE	?Register_R7_is_cg_reg
        REQUIRE	?Register_R8_is_cg_reg
        REQUIRE	?Register_R9_is_cg_reg
        REQUIRE	?Register_R10_is_cg_reg
        REQUIRE	?Register_R11_is_cg_reg
        MOV	R10, R16
//  629 unsigned long int u_i;
//  630 unsigned int zamer;    
//  631 if ( m>=2 ) return;                                 
        LDI	R16, 2
        CP	R10, R16
        BRCC	??end_zamer_tit_0
//  632                               ////////////////////
//  633                                          
//  634                                             zamer=c2_byte.mb[0x40+(2*m)]+(c2_byte.mb[0x41+(2*m)] & 7)*256;
        MOV	R20, R10
        LDI	R21, 0
        LDI	R24, LOW(c2_byte)
        LDI	R25, (c2_byte) >> 8
        MOVW	R17:R16, R21:R20
        RCALL	??Subroutine54_0
??CrossCallReturnLabel_77:
        MOVW	R9:R8, R25:R24
        ADD	R8, R16
        ADC	R9, R17
        LDI	R16, 64
        ADD	R8, R16
        ADC	R9, R21
        MOVW	R31:R30, R9:R8
        RCALL	?Subroutine65
//  635                                             if ( zamer> 1440) {timer_tit[m]=0;return;}
??CrossCallReturnLabel_94:
        LDI	R26, LOW(timer_psm)
        LDI	R27, (timer_psm) >> 8
        RCALL	?Subroutine86
??CrossCallReturnLabel_147:
        ADD	R26, R20
        ADC	R27, R21
        CPI	R18, 161
        LDI	R18, 5
        CPC	R17, R18
        BRCS	??end_zamer_tit_1
??end_zamer_tit_2:
        RCALL	?Subroutine13
??CrossCallReturnLabel_246:
        STD	Z+8, R16
        STD	Z+9, R16
        STD	Z+10, R16
        STD	Z+11, R16
??end_zamer_tit_0:
        LDI	R30, 12
        JMP	?EPILOGUE_B12_L09
//  636                                          switch(zamer)
??end_zamer_tit_1:
        LDI	R30, LOW(real_time)
        LDI	R31, (real_time) >> 8
        LDD	R7, Z+1
        LDD	R4, Z+2
        LDD	R5, Z+4
        LDD	R6, Z+5
        LDD	R11, Z+6
        LDI	R30, LOW(`?<Jumptable for end_zamer_tit>_0`)
        LDI	R31, (`?<Jumptable for end_zamer_tit>_0`) >> 16
        OUT	0x3B, R31
        LDI	R31, HIGH(`?<Jumptable for end_zamer_tit>_0`)
        JMP	?SV_SWITCH_L06
//  637                                               {
//  638                                               
//  639                                               
//  640                                               case 5: 
//  641                                                  {  
//  642                                                
//  643                   timer_tit[m]=set_end_time((real_time.r_min/5)*5,
//  644                                              real_time.r_hor,
//  645                                              real_time.r_date,
//  646                                              real_time.r_month,
//  647                                              real_time.r_year)+300; 
??end_zamer_tit_3:
        RCALL	?Subroutine87
??CrossCallReturnLabel_149:
        LDI	R20, 5
        RCALL	??Subroutine80_0
??CrossCallReturnLabel_126:
        LDI	R17, 5
        RCALL	?Subroutine63
??CrossCallReturnLabel_275:
        SUBI	R16, 212
        SBCI	R17, 254
        RJMP	??end_zamer_tit_4
//  648                                              
//  649                                              lock_bit_tit= lock_bit_tit & ~(1<<m);
//  650                                                 
//  651                                                  break;
//  652                                                  }               
//  653                                                  
//  654                                                  case 10: 
//  655                                                  {  
//  656                                                
//  657                   timer_tit[m]=set_end_time((real_time.r_min/10)*10,
//  658                                              real_time.r_hor,
//  659                                              real_time.r_date,
//  660                                              real_time.r_month,
//  661                                              real_time.r_year)+600; 
??end_zamer_tit_5:
        RCALL	?Subroutine87
??CrossCallReturnLabel_150:
        RCALL	?Subroutine80
??CrossCallReturnLabel_127:
        LDI	R17, 10
        RCALL	?Subroutine63
??CrossCallReturnLabel_274:
        SUBI	R16, 168
        SBCI	R17, 253
        RJMP	??end_zamer_tit_4
//  662                                              
//  663                                              lock_bit_tit= lock_bit_tit & ~(1<<m);
//  664                                                 
//  665                                                  break;
//  666                                                  } 
//  667                                                 
//  668                                                  
//  669                                                   case 20: 
//  670                                                  { 
//  671                   timer_tit[m]=set_end_time((real_time.r_min/20)*20,
//  672                                              real_time.r_hor,
//  673                                              real_time.r_date,
//  674                                              real_time.r_month,
//  675                                              real_time.r_year)+1200; 
??end_zamer_tit_6:
        RCALL	?Subroutine87
??CrossCallReturnLabel_151:
        LDI	R20, 20
        RCALL	??Subroutine80_0
??CrossCallReturnLabel_128:
        LDI	R17, 20
        RCALL	?Subroutine63
??CrossCallReturnLabel_273:
        SUBI	R16, 80
        SBCI	R17, 251
        RJMP	??end_zamer_tit_4
//  676                                              
//  677                                                lock_bit_tit= lock_bit_tit & ~(1<<m);
//  678                                               
//  679                                                  break;
//  680                                                  }  
//  681                                                   case 30: 
//  682                                                  {
//  683                     timer_tit[m]=set_end_time((real_time.r_min/30)*30,
//  684                                              real_time.r_hor,
//  685                                              real_time.r_date,
//  686                                              real_time.r_month,
//  687                                              real_time.r_year)+1800;                                
??end_zamer_tit_7:
        RCALL	?Subroutine87
??CrossCallReturnLabel_152:
        LDI	R20, 30
        RCALL	??Subroutine80_0
??CrossCallReturnLabel_129:
        LDI	R17, 30
        RCALL	?Subroutine63
??CrossCallReturnLabel_272:
        SUBI	R16, 248
        SBCI	R17, 248
        RJMP	??end_zamer_tit_4
//  688                                                    
//  689                                                lock_bit_tit= lock_bit_tit & ~(1<<m);
//  690                                                 
//  691                                                  break;
//  692                                                  }
//  693                                                  
//  694                                                  case 60: 
//  695                                                  {
//  696                   timer_tit[m]=set_end_time(0,
//  697                                              real_time.r_hor,
//  698                                              real_time.r_date,
//  699                                              real_time.r_month,
//  700                                              real_time.r_year)+3600;                                  
??end_zamer_tit_8:
        RCALL	?Subroutine88
??CrossCallReturnLabel_153:
        MOV	R17, R4
        RCALL	?Subroutine9
??CrossCallReturnLabel_9:
        RJMP	??end_zamer_tit_4
//  701                                                    
//  702                                                lock_bit_tit= lock_bit_tit & ~(1<<m);
//  703                                                 
//  704                                                  break;
//  705                                                  }
//  706                                                
//  707                                                  case 120: 
//  708                                                  { 
//  709                  timer_tit[m]=set_end_time(0,
//  710                                              (real_time.r_hor/2)*2,
//  711                                              real_time.r_date,
//  712                                              real_time.r_month,
//  713                                              real_time.r_year)+7200;                                   
??end_zamer_tit_9:
        RCALL	?Subroutine88
??CrossCallReturnLabel_154:
        LDI	R16, 254
        AND	R4, R16
        MOV	R17, R4
        RCALL	?Subroutine10
??CrossCallReturnLabel_11:
        RJMP	??end_zamer_tit_4
//  714                                                
//  715                                                lock_bit_tit= lock_bit_tit & ~(1<<m);
//  716                                                 
//  717                                                  break;
//  718                                                  } 
//  719                                                
//  720                                                  case 240: 
//  721                                                  { 
//  722                  timer_tit[m]=set_end_time(0,
//  723                                              (real_time.r_hor/4)*4,
//  724                                              real_time.r_date,
//  725                                              real_time.r_month,
//  726                                              real_time.r_year)+14400;                                   
??end_zamer_tit_10:
        RCALL	?Subroutine88
??CrossCallReturnLabel_155:
        LDI	R16, 252
        AND	R4, R16
        MOV	R17, R4
        RCALL	?Subroutine11
??CrossCallReturnLabel_13:
        RJMP	??end_zamer_tit_4
//  727                                               
//  728                                                lock_bit_tit= lock_bit_tit & ~(1<<m);
//  729                                                
//  730                                                  break;
//  731                                                  }
//  732                                                  
//  733                                                  case 360: 
//  734                                                  {
//  735            timer_tit[m]=set_end_time(0,
//  736                                              (real_time.r_hor/6)*6,
//  737                                              real_time.r_date,
//  738                                              real_time.r_month,
//  739                                              real_time.r_year)+21600;                                   
??end_zamer_tit_11:
        MOV	R19, R6
        MOV	R18, R5
        MOV	R16, R4
        RCALL	?Subroutine79
??CrossCallReturnLabel_122:
        MOV	R20, R11
        RCALL	?Subroutine12
??CrossCallReturnLabel_15:
        RJMP	??end_zamer_tit_4
//  740                                               
//  741                                                lock_bit_tit= lock_bit_tit & ~(1<<m);
//  742                                               
//  743                                                  break;
//  744                                                  }    
//  745                                                  case 0: {timer_tit[m]=0;break;}
//  746                                                  
//  747                                                  
//  748                                    case 1440:
//  749                                                       {  
//  750                                      u_i=set_end_time(c2_byte.mb[34],
//  751                                              c2_byte.mb[32],
//  752                                              real_time.r_date,
//  753                                              real_time.r_month,
//  754                                              real_time.r_year)+(unsigned long int)c2_byte.mb[36];                                   
??end_zamer_tit_12:
        RCALL	?Subroutine88
??CrossCallReturnLabel_156:
        MOVW	R31:R30, R25:R24
        RCALL	?Subroutine82
??CrossCallReturnLabel_133:
        MOVW	R31:R30, R25:R24
        RCALL	?Subroutine1
//  755                                       if (u_i <= unix ) timer_tit[m]=u_i+86400;  // если время окончания замера меньше текущего
??CrossCallReturnLabel_1:
        BRCS	??end_zamer_tit_13
        RCALL	?Subroutine60
??CrossCallReturnLabel_88:
        RJMP	??end_zamer_tit_14
//  756                                       else  timer_tit[m]=u_i+5;   
??end_zamer_tit_13:
        SUBI	R16, 251
        SBCI	R17, 255
??end_zamer_tit_4:
        SBCI	R18, 255
??end_zamer_tit_14:
        SBCI	R19, 255
??end_zamer_tit_15:
        MOVW	R31:R30, R27:R26
        RCALL	?Subroutine62
//  757                                       
//  758                                      
//  759                                       
//  760                                           
//  761                                                lock_bit_tit= lock_bit_tit & ~(1<<m); 
??CrossCallReturnLabel_92:
        RCALL	?Subroutine59
??CrossCallReturnLabel_238:
        MOV	R20, R10
        RCALL	?Subroutine85
??CrossCallReturnLabel_144:
        COM	R16
        RCALL	??Subroutine84_0
??CrossCallReturnLabel_141:
        LDD	R17, Z+35
        AND	R17, R16
        STD	Z+35, R17
//  762                                                                           
//  763                                      
//  764                                                       break;
        RJMP	??end_zamer_tit_0
//  765                                                       }               
//  766                                                  
//  767                                                  
//  768                                                  
//  769                                                  
//  770                                                  
//  771                                                     
//  772                                                 default:
//  773                                                              {
//  774                                                
//  775                                                timer_tit[m]=unix+( (long int)c2_byte.mb[0x40+ (2*m)]+(long int)(c2_byte.mb[0x41+ (2*m)] & 7)*256)*60; 
??end_zamer_tit_16:
        CALL	?Subroutine24
??CrossCallReturnLabel_31:
        MOVW	R31:R30, R9:R8
        RCALL	?Subroutine4
??CrossCallReturnLabel_280:
        ADD	R16, R4
        ADC	R17, R5
        ADC	R18, R6
        ADC	R19, R7
        RJMP	??end_zamer_tit_15
        CFI EndBlock cfiBlock104
//  776                                                lock_bit_tit= lock_bit_tit & ~(1<<m);
//  777                                                
//  778                                                               break;
//  779                                                               }
//  780                                               }     // sw
//  781                                               
//  782                                           
//  783                              /////////////////////
//  784                                 
//  785     }                     

        RSEG FARCODE:CODE:NOROOT(1)
?Subroutine88:
        CFI Block cfiCond105 Using cfiCommon0
        CFI NoFunction
        CFI Conditional ??CrossCallReturnLabel_153
        CFI R24 Frame(CFA_Y, -12)
        CFI R25 Frame(CFA_Y, -11)
        CFI R26 Frame(CFA_Y, -10)
        CFI R27 Frame(CFA_Y, -9)
        CFI R4 Frame(CFA_Y, -8)
        CFI R5 Frame(CFA_Y, -7)
        CFI R6 Frame(CFA_Y, -6)
        CFI R7 Frame(CFA_Y, -5)
        CFI R8 Frame(CFA_Y, -4)
        CFI R9 Frame(CFA_Y, -3)
        CFI R10 Frame(CFA_Y, -2)
        CFI R11 Frame(CFA_Y, -1)
        CFI CFA_SP SP+6
        CFI CFA_Y Y+12
        CFI Block cfiCond106 Using cfiCommon0
        CFI (cfiCond106) NoFunction
        CFI (cfiCond106) Conditional ??CrossCallReturnLabel_154
        CFI (cfiCond106) R24 Frame(CFA_Y, -12)
        CFI (cfiCond106) R25 Frame(CFA_Y, -11)
        CFI (cfiCond106) R26 Frame(CFA_Y, -10)
        CFI (cfiCond106) R27 Frame(CFA_Y, -9)
        CFI (cfiCond106) R4 Frame(CFA_Y, -8)
        CFI (cfiCond106) R5 Frame(CFA_Y, -7)
        CFI (cfiCond106) R6 Frame(CFA_Y, -6)
        CFI (cfiCond106) R7 Frame(CFA_Y, -5)
        CFI (cfiCond106) R8 Frame(CFA_Y, -4)
        CFI (cfiCond106) R9 Frame(CFA_Y, -3)
        CFI (cfiCond106) R10 Frame(CFA_Y, -2)
        CFI (cfiCond106) R11 Frame(CFA_Y, -1)
        CFI (cfiCond106) CFA_SP SP+6
        CFI (cfiCond106) CFA_Y Y+12
        CFI Block cfiCond107 Using cfiCommon0
        CFI (cfiCond107) NoFunction
        CFI (cfiCond107) Conditional ??CrossCallReturnLabel_155
        CFI (cfiCond107) R24 Frame(CFA_Y, -12)
        CFI (cfiCond107) R25 Frame(CFA_Y, -11)
        CFI (cfiCond107) R26 Frame(CFA_Y, -10)
        CFI (cfiCond107) R27 Frame(CFA_Y, -9)
        CFI (cfiCond107) R4 Frame(CFA_Y, -8)
        CFI (cfiCond107) R5 Frame(CFA_Y, -7)
        CFI (cfiCond107) R6 Frame(CFA_Y, -6)
        CFI (cfiCond107) R7 Frame(CFA_Y, -5)
        CFI (cfiCond107) R8 Frame(CFA_Y, -4)
        CFI (cfiCond107) R9 Frame(CFA_Y, -3)
        CFI (cfiCond107) R10 Frame(CFA_Y, -2)
        CFI (cfiCond107) R11 Frame(CFA_Y, -1)
        CFI (cfiCond107) CFA_SP SP+6
        CFI (cfiCond107) CFA_Y Y+12
        CFI Block cfiCond108 Using cfiCommon0
        CFI (cfiCond108) NoFunction
        CFI (cfiCond108) Conditional ??CrossCallReturnLabel_156
        CFI (cfiCond108) R24 Frame(CFA_Y, -12)
        CFI (cfiCond108) R25 Frame(CFA_Y, -11)
        CFI (cfiCond108) R26 Frame(CFA_Y, -10)
        CFI (cfiCond108) R27 Frame(CFA_Y, -9)
        CFI (cfiCond108) R4 Frame(CFA_Y, -8)
        CFI (cfiCond108) R5 Frame(CFA_Y, -7)
        CFI (cfiCond108) R6 Frame(CFA_Y, -6)
        CFI (cfiCond108) R7 Frame(CFA_Y, -5)
        CFI (cfiCond108) R8 Frame(CFA_Y, -4)
        CFI (cfiCond108) R9 Frame(CFA_Y, -3)
        CFI (cfiCond108) R10 Frame(CFA_Y, -2)
        CFI (cfiCond108) R11 Frame(CFA_Y, -1)
        CFI (cfiCond108) CFA_SP SP+6
        CFI (cfiCond108) CFA_Y Y+12
        CFI Block cfiPicker109 Using cfiCommon1
        CFI (cfiPicker109) NoFunction
        CFI (cfiPicker109) Picker
        MOV	R20, R11
        MOV	R19, R6
        MOV	R18, R5
        RET
        CFI EndBlock cfiCond105
        CFI EndBlock cfiCond106
        CFI EndBlock cfiCond107
        CFI EndBlock cfiCond108
        CFI EndBlock cfiPicker109

        RSEG FARCODE:CODE:NOROOT(1)
?Subroutine87:
        CFI Block cfiCond110 Using cfiCommon0
        CFI NoFunction
        CFI Conditional ??CrossCallReturnLabel_149
        CFI R24 Frame(CFA_Y, -12)
        CFI R25 Frame(CFA_Y, -11)
        CFI R26 Frame(CFA_Y, -10)
        CFI R27 Frame(CFA_Y, -9)
        CFI R4 Frame(CFA_Y, -8)
        CFI R5 Frame(CFA_Y, -7)
        CFI R6 Frame(CFA_Y, -6)
        CFI R7 Frame(CFA_Y, -5)
        CFI R8 Frame(CFA_Y, -4)
        CFI R9 Frame(CFA_Y, -3)
        CFI R10 Frame(CFA_Y, -2)
        CFI R11 Frame(CFA_Y, -1)
        CFI CFA_SP SP+6
        CFI CFA_Y Y+12
        CFI Block cfiCond111 Using cfiCommon0
        CFI (cfiCond111) NoFunction
        CFI (cfiCond111) Conditional ??CrossCallReturnLabel_150
        CFI (cfiCond111) R24 Frame(CFA_Y, -12)
        CFI (cfiCond111) R25 Frame(CFA_Y, -11)
        CFI (cfiCond111) R26 Frame(CFA_Y, -10)
        CFI (cfiCond111) R27 Frame(CFA_Y, -9)
        CFI (cfiCond111) R4 Frame(CFA_Y, -8)
        CFI (cfiCond111) R5 Frame(CFA_Y, -7)
        CFI (cfiCond111) R6 Frame(CFA_Y, -6)
        CFI (cfiCond111) R7 Frame(CFA_Y, -5)
        CFI (cfiCond111) R8 Frame(CFA_Y, -4)
        CFI (cfiCond111) R9 Frame(CFA_Y, -3)
        CFI (cfiCond111) R10 Frame(CFA_Y, -2)
        CFI (cfiCond111) R11 Frame(CFA_Y, -1)
        CFI (cfiCond111) CFA_SP SP+6
        CFI (cfiCond111) CFA_Y Y+12
        CFI Block cfiCond112 Using cfiCommon0
        CFI (cfiCond112) NoFunction
        CFI (cfiCond112) Conditional ??CrossCallReturnLabel_151
        CFI (cfiCond112) R24 Frame(CFA_Y, -12)
        CFI (cfiCond112) R25 Frame(CFA_Y, -11)
        CFI (cfiCond112) R26 Frame(CFA_Y, -10)
        CFI (cfiCond112) R27 Frame(CFA_Y, -9)
        CFI (cfiCond112) R4 Frame(CFA_Y, -8)
        CFI (cfiCond112) R5 Frame(CFA_Y, -7)
        CFI (cfiCond112) R6 Frame(CFA_Y, -6)
        CFI (cfiCond112) R7 Frame(CFA_Y, -5)
        CFI (cfiCond112) R8 Frame(CFA_Y, -4)
        CFI (cfiCond112) R9 Frame(CFA_Y, -3)
        CFI (cfiCond112) R10 Frame(CFA_Y, -2)
        CFI (cfiCond112) R11 Frame(CFA_Y, -1)
        CFI (cfiCond112) CFA_SP SP+6
        CFI (cfiCond112) CFA_Y Y+12
        CFI Block cfiCond113 Using cfiCommon0
        CFI (cfiCond113) NoFunction
        CFI (cfiCond113) Conditional ??CrossCallReturnLabel_152
        CFI (cfiCond113) R24 Frame(CFA_Y, -12)
        CFI (cfiCond113) R25 Frame(CFA_Y, -11)
        CFI (cfiCond113) R26 Frame(CFA_Y, -10)
        CFI (cfiCond113) R27 Frame(CFA_Y, -9)
        CFI (cfiCond113) R4 Frame(CFA_Y, -8)
        CFI (cfiCond113) R5 Frame(CFA_Y, -7)
        CFI (cfiCond113) R6 Frame(CFA_Y, -6)
        CFI (cfiCond113) R7 Frame(CFA_Y, -5)
        CFI (cfiCond113) R8 Frame(CFA_Y, -4)
        CFI (cfiCond113) R9 Frame(CFA_Y, -3)
        CFI (cfiCond113) R10 Frame(CFA_Y, -2)
        CFI (cfiCond113) R11 Frame(CFA_Y, -1)
        CFI (cfiCond113) CFA_SP SP+6
        CFI (cfiCond113) CFA_Y Y+12
        CFI Block cfiPicker114 Using cfiCommon1
        CFI (cfiPicker114) NoFunction
        CFI (cfiPicker114) Picker
        MOV	R19, R6
        MOV	R18, R5
        MOV	R16, R7
        RET
        CFI EndBlock cfiCond110
        CFI EndBlock cfiCond111
        CFI EndBlock cfiCond112
        CFI EndBlock cfiCond113
        CFI EndBlock cfiPicker114

        RSEG FARCODE:CODE:NOROOT(1)
?Subroutine82:
        CFI Block cfiCond115 Using cfiCommon0
        CFI NoFunction
        CFI Conditional ??CrossCallReturnLabel_132
        CFI R24 Frame(CFA_Y, -13)
        CFI R25 Frame(CFA_Y, -12)
        CFI R26 Frame(CFA_Y, -11)
        CFI R27 Frame(CFA_Y, -10)
        CFI R4 Frame(CFA_Y, -9)
        CFI R5 Frame(CFA_Y, -8)
        CFI R6 Frame(CFA_Y, -7)
        CFI R7 Frame(CFA_Y, -6)
        CFI R8 Frame(CFA_Y, -5)
        CFI R9 Frame(CFA_Y, -4)
        CFI R10 Frame(CFA_Y, -3)
        CFI R11 Frame(CFA_Y, -2)
        CFI R12 Frame(CFA_Y, -1)
        CFI CFA_SP SP+6
        CFI CFA_Y Y+13
        CFI Block cfiCond116 Using cfiCommon0
        CFI (cfiCond116) NoFunction
        CFI (cfiCond116) Conditional ??CrossCallReturnLabel_133
        CFI (cfiCond116) R24 Frame(CFA_Y, -12)
        CFI (cfiCond116) R25 Frame(CFA_Y, -11)
        CFI (cfiCond116) R26 Frame(CFA_Y, -10)
        CFI (cfiCond116) R27 Frame(CFA_Y, -9)
        CFI (cfiCond116) R4 Frame(CFA_Y, -8)
        CFI (cfiCond116) R5 Frame(CFA_Y, -7)
        CFI (cfiCond116) R6 Frame(CFA_Y, -6)
        CFI (cfiCond116) R7 Frame(CFA_Y, -5)
        CFI (cfiCond116) R8 Frame(CFA_Y, -4)
        CFI (cfiCond116) R9 Frame(CFA_Y, -3)
        CFI (cfiCond116) R10 Frame(CFA_Y, -2)
        CFI (cfiCond116) R11 Frame(CFA_Y, -1)
        CFI (cfiCond116) CFA_SP SP+6
        CFI (cfiCond116) CFA_Y Y+12
        CFI Block cfiPicker117 Using cfiCommon1
        CFI (cfiPicker117) NoFunction
        CFI (cfiPicker117) Picker
        LDD	R17, Z+32
        LDD	R16, Z+34
        RCALL	set_end_time
        MOVW	R21:R20, R17:R16
        MOVW	R23:R22, R19:R18
        RET
        CFI EndBlock cfiCond115
        CFI EndBlock cfiCond116
        CFI EndBlock cfiPicker117

        RSEG FARCODE:CODE:NOROOT(1)
?Subroutine80:
        CFI Block cfiCond118 Using cfiCommon0
        CFI NoFunction
        CFI Conditional ??CrossCallReturnLabel_123
        CFI R24 Frame(CFA_Y, -13)
        CFI R25 Frame(CFA_Y, -12)
        CFI R26 Frame(CFA_Y, -11)
        CFI R27 Frame(CFA_Y, -10)
        CFI R4 Frame(CFA_Y, -9)
        CFI R5 Frame(CFA_Y, -8)
        CFI R6 Frame(CFA_Y, -7)
        CFI R7 Frame(CFA_Y, -6)
        CFI R8 Frame(CFA_Y, -5)
        CFI R9 Frame(CFA_Y, -4)
        CFI R10 Frame(CFA_Y, -3)
        CFI R11 Frame(CFA_Y, -2)
        CFI R12 Frame(CFA_Y, -1)
        CFI CFA_SP SP+6
        CFI CFA_Y Y+13
        CFI Block cfiCond119 Using cfiCommon0
        CFI (cfiCond119) NoFunction
        CFI (cfiCond119) Conditional ??CrossCallReturnLabel_127
        CFI (cfiCond119) R24 Frame(CFA_Y, -12)
        CFI (cfiCond119) R25 Frame(CFA_Y, -11)
        CFI (cfiCond119) R26 Frame(CFA_Y, -10)
        CFI (cfiCond119) R27 Frame(CFA_Y, -9)
        CFI (cfiCond119) R4 Frame(CFA_Y, -8)
        CFI (cfiCond119) R5 Frame(CFA_Y, -7)
        CFI (cfiCond119) R6 Frame(CFA_Y, -6)
        CFI (cfiCond119) R7 Frame(CFA_Y, -5)
        CFI (cfiCond119) R8 Frame(CFA_Y, -4)
        CFI (cfiCond119) R9 Frame(CFA_Y, -3)
        CFI (cfiCond119) R10 Frame(CFA_Y, -2)
        CFI (cfiCond119) R11 Frame(CFA_Y, -1)
        CFI (cfiCond119) CFA_SP SP+6
        CFI (cfiCond119) CFA_Y Y+12
        CFI Block cfiPicker120 Using cfiCommon1
        CFI (cfiPicker120) NoFunction
        CFI (cfiPicker120) Picker
        LDI	R20, 10
        CFI Block cfiCond121 Using cfiCommon0
        CFI (cfiCond121) NoFunction
        CFI (cfiCond121) Conditional ??CrossCallReturnLabel_124
        CFI (cfiCond121) R24 Frame(CFA_Y, -13)
        CFI (cfiCond121) R25 Frame(CFA_Y, -12)
        CFI (cfiCond121) R26 Frame(CFA_Y, -11)
        CFI (cfiCond121) R27 Frame(CFA_Y, -10)
        CFI (cfiCond121) R4 Frame(CFA_Y, -9)
        CFI (cfiCond121) R5 Frame(CFA_Y, -8)
        CFI (cfiCond121) R6 Frame(CFA_Y, -7)
        CFI (cfiCond121) R7 Frame(CFA_Y, -6)
        CFI (cfiCond121) R8 Frame(CFA_Y, -5)
        CFI (cfiCond121) R9 Frame(CFA_Y, -4)
        CFI (cfiCond121) R10 Frame(CFA_Y, -3)
        CFI (cfiCond121) R11 Frame(CFA_Y, -2)
        CFI (cfiCond121) R12 Frame(CFA_Y, -1)
        CFI (cfiCond121) CFA_SP SP+6
        CFI (cfiCond121) CFA_Y Y+13
        CFI Block cfiCond122 Using cfiCommon0
        CFI (cfiCond122) NoFunction
        CFI (cfiCond122) Conditional ??CrossCallReturnLabel_125
        CFI (cfiCond122) R24 Frame(CFA_Y, -13)
        CFI (cfiCond122) R25 Frame(CFA_Y, -12)
        CFI (cfiCond122) R26 Frame(CFA_Y, -11)
        CFI (cfiCond122) R27 Frame(CFA_Y, -10)
        CFI (cfiCond122) R4 Frame(CFA_Y, -9)
        CFI (cfiCond122) R5 Frame(CFA_Y, -8)
        CFI (cfiCond122) R6 Frame(CFA_Y, -7)
        CFI (cfiCond122) R7 Frame(CFA_Y, -6)
        CFI (cfiCond122) R8 Frame(CFA_Y, -5)
        CFI (cfiCond122) R9 Frame(CFA_Y, -4)
        CFI (cfiCond122) R10 Frame(CFA_Y, -3)
        CFI (cfiCond122) R11 Frame(CFA_Y, -2)
        CFI (cfiCond122) R12 Frame(CFA_Y, -1)
        CFI (cfiCond122) CFA_SP SP+6
        CFI (cfiCond122) CFA_Y Y+13
        CFI Block cfiCond123 Using cfiCommon0
        CFI (cfiCond123) NoFunction
        CFI (cfiCond123) Conditional ??CrossCallReturnLabel_126
        CFI (cfiCond123) R24 Frame(CFA_Y, -12)
        CFI (cfiCond123) R25 Frame(CFA_Y, -11)
        CFI (cfiCond123) R26 Frame(CFA_Y, -10)
        CFI (cfiCond123) R27 Frame(CFA_Y, -9)
        CFI (cfiCond123) R4 Frame(CFA_Y, -8)
        CFI (cfiCond123) R5 Frame(CFA_Y, -7)
        CFI (cfiCond123) R6 Frame(CFA_Y, -6)
        CFI (cfiCond123) R7 Frame(CFA_Y, -5)
        CFI (cfiCond123) R8 Frame(CFA_Y, -4)
        CFI (cfiCond123) R9 Frame(CFA_Y, -3)
        CFI (cfiCond123) R10 Frame(CFA_Y, -2)
        CFI (cfiCond123) R11 Frame(CFA_Y, -1)
        CFI (cfiCond123) CFA_SP SP+6
        CFI (cfiCond123) CFA_Y Y+12
        CFI Block cfiCond124 Using cfiCommon0
        CFI (cfiCond124) NoFunction
        CFI (cfiCond124) Conditional ??CrossCallReturnLabel_128
        CFI (cfiCond124) R24 Frame(CFA_Y, -12)
        CFI (cfiCond124) R25 Frame(CFA_Y, -11)
        CFI (cfiCond124) R26 Frame(CFA_Y, -10)
        CFI (cfiCond124) R27 Frame(CFA_Y, -9)
        CFI (cfiCond124) R4 Frame(CFA_Y, -8)
        CFI (cfiCond124) R5 Frame(CFA_Y, -7)
        CFI (cfiCond124) R6 Frame(CFA_Y, -6)
        CFI (cfiCond124) R7 Frame(CFA_Y, -5)
        CFI (cfiCond124) R8 Frame(CFA_Y, -4)
        CFI (cfiCond124) R9 Frame(CFA_Y, -3)
        CFI (cfiCond124) R10 Frame(CFA_Y, -2)
        CFI (cfiCond124) R11 Frame(CFA_Y, -1)
        CFI (cfiCond124) CFA_SP SP+6
        CFI (cfiCond124) CFA_Y Y+12
        CFI Block cfiCond125 Using cfiCommon0
        CFI (cfiCond125) NoFunction
        CFI (cfiCond125) Conditional ??CrossCallReturnLabel_129
        CFI (cfiCond125) R24 Frame(CFA_Y, -12)
        CFI (cfiCond125) R25 Frame(CFA_Y, -11)
        CFI (cfiCond125) R26 Frame(CFA_Y, -10)
        CFI (cfiCond125) R27 Frame(CFA_Y, -9)
        CFI (cfiCond125) R4 Frame(CFA_Y, -8)
        CFI (cfiCond125) R5 Frame(CFA_Y, -7)
        CFI (cfiCond125) R6 Frame(CFA_Y, -6)
        CFI (cfiCond125) R7 Frame(CFA_Y, -5)
        CFI (cfiCond125) R8 Frame(CFA_Y, -4)
        CFI (cfiCond125) R9 Frame(CFA_Y, -3)
        CFI (cfiCond125) R10 Frame(CFA_Y, -2)
        CFI (cfiCond125) R11 Frame(CFA_Y, -1)
        CFI (cfiCond125) CFA_SP SP+6
        CFI (cfiCond125) CFA_Y Y+12
??Subroutine80_0:
        JMP	?UC_DIVMOD_L01
        CFI EndBlock cfiCond118
        CFI EndBlock cfiCond119
        CFI EndBlock cfiPicker120
        CFI EndBlock cfiCond121
        CFI EndBlock cfiCond122
        CFI EndBlock cfiCond123
        CFI EndBlock cfiCond124
        CFI EndBlock cfiCond125

        RSEG FARCODE:CODE:NOROOT(1)
?Subroutine79:
        CFI Block cfiCond126 Using cfiCommon0
        CFI NoFunction
        CFI Conditional ??CrossCallReturnLabel_121
        CFI R24 Frame(CFA_Y, -13)
        CFI R25 Frame(CFA_Y, -12)
        CFI R26 Frame(CFA_Y, -11)
        CFI R27 Frame(CFA_Y, -10)
        CFI R4 Frame(CFA_Y, -9)
        CFI R5 Frame(CFA_Y, -8)
        CFI R6 Frame(CFA_Y, -7)
        CFI R7 Frame(CFA_Y, -6)
        CFI R8 Frame(CFA_Y, -5)
        CFI R9 Frame(CFA_Y, -4)
        CFI R10 Frame(CFA_Y, -3)
        CFI R11 Frame(CFA_Y, -2)
        CFI R12 Frame(CFA_Y, -1)
        CFI CFA_SP SP+6
        CFI CFA_Y Y+13
        CFI Block cfiCond127 Using cfiCommon0
        CFI (cfiCond127) NoFunction
        CFI (cfiCond127) Conditional ??CrossCallReturnLabel_122
        CFI (cfiCond127) R24 Frame(CFA_Y, -12)
        CFI (cfiCond127) R25 Frame(CFA_Y, -11)
        CFI (cfiCond127) R26 Frame(CFA_Y, -10)
        CFI (cfiCond127) R27 Frame(CFA_Y, -9)
        CFI (cfiCond127) R4 Frame(CFA_Y, -8)
        CFI (cfiCond127) R5 Frame(CFA_Y, -7)
        CFI (cfiCond127) R6 Frame(CFA_Y, -6)
        CFI (cfiCond127) R7 Frame(CFA_Y, -5)
        CFI (cfiCond127) R8 Frame(CFA_Y, -4)
        CFI (cfiCond127) R9 Frame(CFA_Y, -3)
        CFI (cfiCond127) R10 Frame(CFA_Y, -2)
        CFI (cfiCond127) R11 Frame(CFA_Y, -1)
        CFI (cfiCond127) CFA_SP SP+6
        CFI (cfiCond127) CFA_Y Y+12
        CFI Block cfiPicker128 Using cfiCommon1
        CFI (cfiPicker128) NoFunction
        CFI (cfiPicker128) Picker
        LDI	R20, 6
        CALL	?UC_DIVMOD_L01
        LDI	R17, 6
        MUL	R16, R17
        MOV	R17, R0
        RET
        CFI EndBlock cfiCond126
        CFI EndBlock cfiCond127
        CFI EndBlock cfiPicker128

        RSEG FARCODE:CODE:NOROOT(1)
?Subroutine65:
        CFI Block cfiCond129 Using cfiCommon0
        CFI NoFunction
        CFI Conditional ??CrossCallReturnLabel_93
        CFI R24 Frame(CFA_Y, -6)
        CFI R25 Frame(CFA_Y, -5)
        CFI R26 Frame(CFA_Y, -4)
        CFI R27 Frame(CFA_Y, -3)
        CFI R4 Frame(CFA_Y, -2)
        CFI R5 Frame(CFA_Y, -1)
        CFI CFA_SP SP+6
        CFI CFA_Y Y+28
        CFI Block cfiCond130 Using cfiCommon0
        CFI (cfiCond130) NoFunction
        CFI (cfiCond130) Conditional ??CrossCallReturnLabel_94
        CFI (cfiCond130) R24 Frame(CFA_Y, -12)
        CFI (cfiCond130) R25 Frame(CFA_Y, -11)
        CFI (cfiCond130) R26 Frame(CFA_Y, -10)
        CFI (cfiCond130) R27 Frame(CFA_Y, -9)
        CFI (cfiCond130) R4 Frame(CFA_Y, -8)
        CFI (cfiCond130) R5 Frame(CFA_Y, -7)
        CFI (cfiCond130) R6 Frame(CFA_Y, -6)
        CFI (cfiCond130) R7 Frame(CFA_Y, -5)
        CFI (cfiCond130) R8 Frame(CFA_Y, -4)
        CFI (cfiCond130) R9 Frame(CFA_Y, -3)
        CFI (cfiCond130) R10 Frame(CFA_Y, -2)
        CFI (cfiCond130) R11 Frame(CFA_Y, -1)
        CFI (cfiCond130) CFA_SP SP+6
        CFI (cfiCond130) CFA_Y Y+12
        CFI Block cfiCond131 Using cfiCommon0
        CFI (cfiCond131) NoFunction
        CFI (cfiCond131) Conditional ??CrossCallReturnLabel_95
        CFI (cfiCond131) R24 Frame(CFA_Y, -8)
        CFI (cfiCond131) R25 Frame(CFA_Y, -7)
        CFI (cfiCond131) R26 Frame(CFA_Y, -6)
        CFI (cfiCond131) R27 Frame(CFA_Y, -5)
        CFI (cfiCond131) R4 Frame(CFA_Y, -4)
        CFI (cfiCond131) R5 Frame(CFA_Y, -3)
        CFI (cfiCond131) R6 Frame(CFA_Y, -2)
        CFI (cfiCond131) R7 Frame(CFA_Y, -1)
        CFI (cfiCond131) CFA_SP SP+6
        CFI (cfiCond131) CFA_Y Y+26
        CFI Block cfiPicker132 Using cfiCommon1
        CFI (cfiPicker132) NoFunction
        CFI (cfiPicker132) Picker
        LD	R18, Z
        LDD	R16, Z+1
        ANDI	R16, 0x07
        MOV	R17, R16
        MOV	R16, R18
        RET
        CFI EndBlock cfiCond129
        CFI EndBlock cfiCond130
        CFI EndBlock cfiCond131
        CFI EndBlock cfiPicker132

        RSEG FARCODE:CODE:NOROOT(1)
?Subroutine63:
        CFI Block cfiCond133 Using cfiCommon0
        CFI NoFunction
        CFI Conditional ??CrossCallReturnLabel_275
        CFI R24 Frame(CFA_Y, -12)
        CFI R25 Frame(CFA_Y, -11)
        CFI R26 Frame(CFA_Y, -10)
        CFI R27 Frame(CFA_Y, -9)
        CFI R4 Frame(CFA_Y, -8)
        CFI R5 Frame(CFA_Y, -7)
        CFI R6 Frame(CFA_Y, -6)
        CFI R7 Frame(CFA_Y, -5)
        CFI R8 Frame(CFA_Y, -4)
        CFI R9 Frame(CFA_Y, -3)
        CFI R10 Frame(CFA_Y, -2)
        CFI R11 Frame(CFA_Y, -1)
        CFI CFA_SP SP+6
        CFI CFA_Y Y+12
        CFI Block cfiCond134 Using cfiCommon0
        CFI (cfiCond134) NoFunction
        CFI (cfiCond134) Conditional ??CrossCallReturnLabel_274
        CFI (cfiCond134) R24 Frame(CFA_Y, -12)
        CFI (cfiCond134) R25 Frame(CFA_Y, -11)
        CFI (cfiCond134) R26 Frame(CFA_Y, -10)
        CFI (cfiCond134) R27 Frame(CFA_Y, -9)
        CFI (cfiCond134) R4 Frame(CFA_Y, -8)
        CFI (cfiCond134) R5 Frame(CFA_Y, -7)
        CFI (cfiCond134) R6 Frame(CFA_Y, -6)
        CFI (cfiCond134) R7 Frame(CFA_Y, -5)
        CFI (cfiCond134) R8 Frame(CFA_Y, -4)
        CFI (cfiCond134) R9 Frame(CFA_Y, -3)
        CFI (cfiCond134) R10 Frame(CFA_Y, -2)
        CFI (cfiCond134) R11 Frame(CFA_Y, -1)
        CFI (cfiCond134) CFA_SP SP+6
        CFI (cfiCond134) CFA_Y Y+12
        CFI Block cfiCond135 Using cfiCommon0
        CFI (cfiCond135) NoFunction
        CFI (cfiCond135) Conditional ??CrossCallReturnLabel_273
        CFI (cfiCond135) R24 Frame(CFA_Y, -12)
        CFI (cfiCond135) R25 Frame(CFA_Y, -11)
        CFI (cfiCond135) R26 Frame(CFA_Y, -10)
        CFI (cfiCond135) R27 Frame(CFA_Y, -9)
        CFI (cfiCond135) R4 Frame(CFA_Y, -8)
        CFI (cfiCond135) R5 Frame(CFA_Y, -7)
        CFI (cfiCond135) R6 Frame(CFA_Y, -6)
        CFI (cfiCond135) R7 Frame(CFA_Y, -5)
        CFI (cfiCond135) R8 Frame(CFA_Y, -4)
        CFI (cfiCond135) R9 Frame(CFA_Y, -3)
        CFI (cfiCond135) R10 Frame(CFA_Y, -2)
        CFI (cfiCond135) R11 Frame(CFA_Y, -1)
        CFI (cfiCond135) CFA_SP SP+6
        CFI (cfiCond135) CFA_Y Y+12
        CFI Block cfiCond136 Using cfiCommon0
        CFI (cfiCond136) NoFunction
        CFI (cfiCond136) Conditional ??CrossCallReturnLabel_272
        CFI (cfiCond136) R24 Frame(CFA_Y, -12)
        CFI (cfiCond136) R25 Frame(CFA_Y, -11)
        CFI (cfiCond136) R26 Frame(CFA_Y, -10)
        CFI (cfiCond136) R27 Frame(CFA_Y, -9)
        CFI (cfiCond136) R4 Frame(CFA_Y, -8)
        CFI (cfiCond136) R5 Frame(CFA_Y, -7)
        CFI (cfiCond136) R6 Frame(CFA_Y, -6)
        CFI (cfiCond136) R7 Frame(CFA_Y, -5)
        CFI (cfiCond136) R8 Frame(CFA_Y, -4)
        CFI (cfiCond136) R9 Frame(CFA_Y, -3)
        CFI (cfiCond136) R10 Frame(CFA_Y, -2)
        CFI (cfiCond136) R11 Frame(CFA_Y, -1)
        CFI (cfiCond136) CFA_SP SP+6
        CFI (cfiCond136) CFA_Y Y+12
        CFI Block cfiPicker137 Using cfiCommon1
        CFI (cfiPicker137) NoFunction
        CFI (cfiPicker137) Picker
        MUL	R16, R17
        MOV	R16, R0
        MOV	R20, R11
        RJMP	?Subroutine122
        CFI EndBlock cfiCond133
        CFI EndBlock cfiCond134
        CFI EndBlock cfiCond135
        CFI EndBlock cfiCond136
        CFI EndBlock cfiPicker137

        RSEG FARCODE:CODE:NOROOT(1)
?Subroutine62:
        CFI Block cfiCond138 Using cfiCommon0
        CFI NoFunction
        CFI Conditional ??CrossCallReturnLabel_91
        CFI R24 Frame(CFA_Y, -6)
        CFI R25 Frame(CFA_Y, -5)
        CFI R26 Frame(CFA_Y, -4)
        CFI R27 Frame(CFA_Y, -3)
        CFI R4 Frame(CFA_Y, -2)
        CFI R5 Frame(CFA_Y, -1)
        CFI CFA_SP SP+6
        CFI CFA_Y Y+28
        CFI Block cfiCond139 Using cfiCommon0
        CFI (cfiCond139) NoFunction
        CFI (cfiCond139) Conditional ??CrossCallReturnLabel_92
        CFI (cfiCond139) R24 Frame(CFA_Y, -12)
        CFI (cfiCond139) R25 Frame(CFA_Y, -11)
        CFI (cfiCond139) R26 Frame(CFA_Y, -10)
        CFI (cfiCond139) R27 Frame(CFA_Y, -9)
        CFI (cfiCond139) R4 Frame(CFA_Y, -8)
        CFI (cfiCond139) R5 Frame(CFA_Y, -7)
        CFI (cfiCond139) R6 Frame(CFA_Y, -6)
        CFI (cfiCond139) R7 Frame(CFA_Y, -5)
        CFI (cfiCond139) R8 Frame(CFA_Y, -4)
        CFI (cfiCond139) R9 Frame(CFA_Y, -3)
        CFI (cfiCond139) R10 Frame(CFA_Y, -2)
        CFI (cfiCond139) R11 Frame(CFA_Y, -1)
        CFI (cfiCond139) CFA_SP SP+6
        CFI (cfiCond139) CFA_Y Y+12
        CFI Block cfiPicker140 Using cfiCommon1
        CFI (cfiPicker140) NoFunction
        CFI (cfiPicker140) Picker
        STD	Z+8, R16
        STD	Z+9, R17
        STD	Z+10, R18
        STD	Z+11, R19
        RET
        CFI EndBlock cfiCond138
        CFI EndBlock cfiCond139
        CFI EndBlock cfiPicker140

        RSEG FARCODE:CODE:NOROOT(1)
?Subroutine12:
        CFI Block cfiCond141 Using cfiCommon0
        CFI NoFunction
        CFI Conditional ??CrossCallReturnLabel_14
        CFI R24 Frame(CFA_Y, -13)
        CFI R25 Frame(CFA_Y, -12)
        CFI R26 Frame(CFA_Y, -11)
        CFI R27 Frame(CFA_Y, -10)
        CFI R4 Frame(CFA_Y, -9)
        CFI R5 Frame(CFA_Y, -8)
        CFI R6 Frame(CFA_Y, -7)
        CFI R7 Frame(CFA_Y, -6)
        CFI R8 Frame(CFA_Y, -5)
        CFI R9 Frame(CFA_Y, -4)
        CFI R10 Frame(CFA_Y, -3)
        CFI R11 Frame(CFA_Y, -2)
        CFI R12 Frame(CFA_Y, -1)
        CFI CFA_SP SP+6
        CFI CFA_Y Y+13
        CFI Block cfiCond142 Using cfiCommon0
        CFI (cfiCond142) NoFunction
        CFI (cfiCond142) Conditional ??CrossCallReturnLabel_15
        CFI (cfiCond142) R24 Frame(CFA_Y, -12)
        CFI (cfiCond142) R25 Frame(CFA_Y, -11)
        CFI (cfiCond142) R26 Frame(CFA_Y, -10)
        CFI (cfiCond142) R27 Frame(CFA_Y, -9)
        CFI (cfiCond142) R4 Frame(CFA_Y, -8)
        CFI (cfiCond142) R5 Frame(CFA_Y, -7)
        CFI (cfiCond142) R6 Frame(CFA_Y, -6)
        CFI (cfiCond142) R7 Frame(CFA_Y, -5)
        CFI (cfiCond142) R8 Frame(CFA_Y, -4)
        CFI (cfiCond142) R9 Frame(CFA_Y, -3)
        CFI (cfiCond142) R10 Frame(CFA_Y, -2)
        CFI (cfiCond142) R11 Frame(CFA_Y, -1)
        CFI (cfiCond142) CFA_SP SP+6
        CFI (cfiCond142) CFA_Y Y+12
        CFI Block cfiPicker143 Using cfiCommon1
        CFI (cfiPicker143) NoFunction
        CFI (cfiPicker143) Picker
        LDI	R16, 0
        RCALL	set_end_time
        SUBI	R16, 160
        SBCI	R17, 171
        RET
        CFI EndBlock cfiCond141
        CFI EndBlock cfiCond142
        CFI EndBlock cfiPicker143

        RSEG FARCODE:CODE:NOROOT(1)
?Subroutine11:
        CFI Block cfiCond144 Using cfiCommon0
        CFI NoFunction
        CFI Conditional ??CrossCallReturnLabel_12
        CFI R24 Frame(CFA_Y, -13)
        CFI R25 Frame(CFA_Y, -12)
        CFI R26 Frame(CFA_Y, -11)
        CFI R27 Frame(CFA_Y, -10)
        CFI R4 Frame(CFA_Y, -9)
        CFI R5 Frame(CFA_Y, -8)
        CFI R6 Frame(CFA_Y, -7)
        CFI R7 Frame(CFA_Y, -6)
        CFI R8 Frame(CFA_Y, -5)
        CFI R9 Frame(CFA_Y, -4)
        CFI R10 Frame(CFA_Y, -3)
        CFI R11 Frame(CFA_Y, -2)
        CFI R12 Frame(CFA_Y, -1)
        CFI CFA_SP SP+6
        CFI CFA_Y Y+13
        CFI Block cfiCond145 Using cfiCommon0
        CFI (cfiCond145) NoFunction
        CFI (cfiCond145) Conditional ??CrossCallReturnLabel_13
        CFI (cfiCond145) R24 Frame(CFA_Y, -12)
        CFI (cfiCond145) R25 Frame(CFA_Y, -11)
        CFI (cfiCond145) R26 Frame(CFA_Y, -10)
        CFI (cfiCond145) R27 Frame(CFA_Y, -9)
        CFI (cfiCond145) R4 Frame(CFA_Y, -8)
        CFI (cfiCond145) R5 Frame(CFA_Y, -7)
        CFI (cfiCond145) R6 Frame(CFA_Y, -6)
        CFI (cfiCond145) R7 Frame(CFA_Y, -5)
        CFI (cfiCond145) R8 Frame(CFA_Y, -4)
        CFI (cfiCond145) R9 Frame(CFA_Y, -3)
        CFI (cfiCond145) R10 Frame(CFA_Y, -2)
        CFI (cfiCond145) R11 Frame(CFA_Y, -1)
        CFI (cfiCond145) CFA_SP SP+6
        CFI (cfiCond145) CFA_Y Y+12
        CFI Block cfiPicker146 Using cfiCommon1
        CFI (cfiPicker146) NoFunction
        CFI (cfiPicker146) Picker
        LDI	R16, 0
        RCALL	set_end_time
        SUBI	R16, 192
        SBCI	R17, 199
        RET
        CFI EndBlock cfiCond144
        CFI EndBlock cfiCond145
        CFI EndBlock cfiPicker146

        RSEG FARCODE:CODE:NOROOT(1)
?Subroutine10:
        CFI Block cfiCond147 Using cfiCommon0
        CFI NoFunction
        CFI Conditional ??CrossCallReturnLabel_10
        CFI R24 Frame(CFA_Y, -13)
        CFI R25 Frame(CFA_Y, -12)
        CFI R26 Frame(CFA_Y, -11)
        CFI R27 Frame(CFA_Y, -10)
        CFI R4 Frame(CFA_Y, -9)
        CFI R5 Frame(CFA_Y, -8)
        CFI R6 Frame(CFA_Y, -7)
        CFI R7 Frame(CFA_Y, -6)
        CFI R8 Frame(CFA_Y, -5)
        CFI R9 Frame(CFA_Y, -4)
        CFI R10 Frame(CFA_Y, -3)
        CFI R11 Frame(CFA_Y, -2)
        CFI R12 Frame(CFA_Y, -1)
        CFI CFA_SP SP+6
        CFI CFA_Y Y+13
        CFI Block cfiCond148 Using cfiCommon0
        CFI (cfiCond148) NoFunction
        CFI (cfiCond148) Conditional ??CrossCallReturnLabel_11
        CFI (cfiCond148) R24 Frame(CFA_Y, -12)
        CFI (cfiCond148) R25 Frame(CFA_Y, -11)
        CFI (cfiCond148) R26 Frame(CFA_Y, -10)
        CFI (cfiCond148) R27 Frame(CFA_Y, -9)
        CFI (cfiCond148) R4 Frame(CFA_Y, -8)
        CFI (cfiCond148) R5 Frame(CFA_Y, -7)
        CFI (cfiCond148) R6 Frame(CFA_Y, -6)
        CFI (cfiCond148) R7 Frame(CFA_Y, -5)
        CFI (cfiCond148) R8 Frame(CFA_Y, -4)
        CFI (cfiCond148) R9 Frame(CFA_Y, -3)
        CFI (cfiCond148) R10 Frame(CFA_Y, -2)
        CFI (cfiCond148) R11 Frame(CFA_Y, -1)
        CFI (cfiCond148) CFA_SP SP+6
        CFI (cfiCond148) CFA_Y Y+12
        CFI Block cfiPicker149 Using cfiCommon1
        CFI (cfiPicker149) NoFunction
        CFI (cfiPicker149) Picker
        LDI	R16, 0
        RCALL	set_end_time
        SUBI	R16, 224
        SBCI	R17, 227
        RET
        CFI EndBlock cfiCond147
        CFI EndBlock cfiCond148
        CFI EndBlock cfiPicker149

        RSEG FARCODE:CODE:NOROOT(1)
?Subroutine9:
        CFI Block cfiCond150 Using cfiCommon0
        CFI NoFunction
        CFI Conditional ??CrossCallReturnLabel_8
        CFI R24 Frame(CFA_Y, -13)
        CFI R25 Frame(CFA_Y, -12)
        CFI R26 Frame(CFA_Y, -11)
        CFI R27 Frame(CFA_Y, -10)
        CFI R4 Frame(CFA_Y, -9)
        CFI R5 Frame(CFA_Y, -8)
        CFI R6 Frame(CFA_Y, -7)
        CFI R7 Frame(CFA_Y, -6)
        CFI R8 Frame(CFA_Y, -5)
        CFI R9 Frame(CFA_Y, -4)
        CFI R10 Frame(CFA_Y, -3)
        CFI R11 Frame(CFA_Y, -2)
        CFI R12 Frame(CFA_Y, -1)
        CFI CFA_SP SP+6
        CFI CFA_Y Y+13
        CFI Block cfiCond151 Using cfiCommon0
        CFI (cfiCond151) NoFunction
        CFI (cfiCond151) Conditional ??CrossCallReturnLabel_9
        CFI (cfiCond151) R24 Frame(CFA_Y, -12)
        CFI (cfiCond151) R25 Frame(CFA_Y, -11)
        CFI (cfiCond151) R26 Frame(CFA_Y, -10)
        CFI (cfiCond151) R27 Frame(CFA_Y, -9)
        CFI (cfiCond151) R4 Frame(CFA_Y, -8)
        CFI (cfiCond151) R5 Frame(CFA_Y, -7)
        CFI (cfiCond151) R6 Frame(CFA_Y, -6)
        CFI (cfiCond151) R7 Frame(CFA_Y, -5)
        CFI (cfiCond151) R8 Frame(CFA_Y, -4)
        CFI (cfiCond151) R9 Frame(CFA_Y, -3)
        CFI (cfiCond151) R10 Frame(CFA_Y, -2)
        CFI (cfiCond151) R11 Frame(CFA_Y, -1)
        CFI (cfiCond151) CFA_SP SP+6
        CFI (cfiCond151) CFA_Y Y+12
        CFI Block cfiPicker152 Using cfiCommon1
        CFI (cfiPicker152) NoFunction
        CFI (cfiPicker152) Picker
        LDI	R16, 0
        RCALL	set_end_time
        SUBI	R16, 240
        SBCI	R17, 241
        RET
        CFI EndBlock cfiCond150
        CFI EndBlock cfiCond151
        CFI EndBlock cfiPicker152

        RSEG FARCODE:CODE:NOROOT(1)
?Subroutine4:
        CFI Block cfiCond153 Using cfiCommon0
        CFI NoFunction
        CFI Conditional ??CrossCallReturnLabel_279
        CFI R24 Frame(CFA_Y, -13)
        CFI R25 Frame(CFA_Y, -12)
        CFI R26 Frame(CFA_Y, -11)
        CFI R27 Frame(CFA_Y, -10)
        CFI R4 Frame(CFA_Y, -9)
        CFI R5 Frame(CFA_Y, -8)
        CFI R6 Frame(CFA_Y, -7)
        CFI R7 Frame(CFA_Y, -6)
        CFI R8 Frame(CFA_Y, -5)
        CFI R9 Frame(CFA_Y, -4)
        CFI R10 Frame(CFA_Y, -3)
        CFI R11 Frame(CFA_Y, -2)
        CFI R12 Frame(CFA_Y, -1)
        CFI CFA_SP SP+6
        CFI CFA_Y Y+13
        CFI Block cfiCond154 Using cfiCommon0
        CFI (cfiCond154) NoFunction
        CFI (cfiCond154) Conditional ??CrossCallReturnLabel_280
        CFI (cfiCond154) R24 Frame(CFA_Y, -12)
        CFI (cfiCond154) R25 Frame(CFA_Y, -11)
        CFI (cfiCond154) R26 Frame(CFA_Y, -10)
        CFI (cfiCond154) R27 Frame(CFA_Y, -9)
        CFI (cfiCond154) R4 Frame(CFA_Y, -8)
        CFI (cfiCond154) R5 Frame(CFA_Y, -7)
        CFI (cfiCond154) R6 Frame(CFA_Y, -6)
        CFI (cfiCond154) R7 Frame(CFA_Y, -5)
        CFI (cfiCond154) R8 Frame(CFA_Y, -4)
        CFI (cfiCond154) R9 Frame(CFA_Y, -3)
        CFI (cfiCond154) R10 Frame(CFA_Y, -2)
        CFI (cfiCond154) R11 Frame(CFA_Y, -1)
        CFI (cfiCond154) CFA_SP SP+6
        CFI (cfiCond154) CFA_Y Y+12
        CFI Block cfiPicker155 Using cfiCommon1
        CFI (cfiPicker155) NoFunction
        CFI (cfiPicker155) Picker
        LD	R16, Z
        LDI	R17, 0
        LDI	R18, 0
        LDI	R19, 0
        LDD	R20, Z+1
        LDI	R22, 0
        ANDI	R20, 0x07
        LDI	R23, 0
        MOV	R21, R20
        MOV	R20, R16
        LDI	R16, 60
        CFI EndBlock cfiCond153
        CFI EndBlock cfiCond154
        CFI EndBlock cfiPicker155
        REQUIRE ?Subroutine123
        ;		// Fall through to label ?Subroutine123

        RSEG FARCODE:CODE:NOROOT(1)
?Subroutine123:
        CFI Block cfiCond156 Using cfiCommon0
        CFI NoFunction
        CFI Conditional ??CrossCallReturnLabel_279
        CFI R24 Frame(CFA_Y, -13)
        CFI R25 Frame(CFA_Y, -12)
        CFI R26 Frame(CFA_Y, -11)
        CFI R27 Frame(CFA_Y, -10)
        CFI R4 Frame(CFA_Y, -9)
        CFI R5 Frame(CFA_Y, -8)
        CFI R6 Frame(CFA_Y, -7)
        CFI R7 Frame(CFA_Y, -6)
        CFI R8 Frame(CFA_Y, -5)
        CFI R9 Frame(CFA_Y, -4)
        CFI R10 Frame(CFA_Y, -3)
        CFI R11 Frame(CFA_Y, -2)
        CFI R12 Frame(CFA_Y, -1)
        CFI CFA_SP SP+6
        CFI CFA_Y Y+13
        CFI Block cfiCond157 Using cfiCommon0
        CFI (cfiCond157) NoFunction
        CFI (cfiCond157) Conditional ??CrossCallReturnLabel_280
        CFI (cfiCond157) R24 Frame(CFA_Y, -12)
        CFI (cfiCond157) R25 Frame(CFA_Y, -11)
        CFI (cfiCond157) R26 Frame(CFA_Y, -10)
        CFI (cfiCond157) R27 Frame(CFA_Y, -9)
        CFI (cfiCond157) R4 Frame(CFA_Y, -8)
        CFI (cfiCond157) R5 Frame(CFA_Y, -7)
        CFI (cfiCond157) R6 Frame(CFA_Y, -6)
        CFI (cfiCond157) R7 Frame(CFA_Y, -5)
        CFI (cfiCond157) R8 Frame(CFA_Y, -4)
        CFI (cfiCond157) R9 Frame(CFA_Y, -3)
        CFI (cfiCond157) R10 Frame(CFA_Y, -2)
        CFI (cfiCond157) R11 Frame(CFA_Y, -1)
        CFI (cfiCond157) CFA_SP SP+6
        CFI (cfiCond157) CFA_Y Y+12
        CFI Block cfiCond158 Using cfiCommon0
        CFI (cfiCond158) NoFunction
        CFI (cfiCond158) Conditional ??CrossCallReturnLabel_281
        CFI (cfiCond158) R24 Frame(CFA_Y, -16)
        CFI (cfiCond158) R25 Frame(CFA_Y, -15)
        CFI (cfiCond158) R26 Frame(CFA_Y, -14)
        CFI (cfiCond158) R27 Frame(CFA_Y, -13)
        CFI (cfiCond158) R4 Frame(CFA_Y, -12)
        CFI (cfiCond158) R5 Frame(CFA_Y, -11)
        CFI (cfiCond158) R6 Frame(CFA_Y, -10)
        CFI (cfiCond158) R7 Frame(CFA_Y, -9)
        CFI (cfiCond158) R8 Frame(CFA_Y, -8)
        CFI (cfiCond158) R9 Frame(CFA_Y, -7)
        CFI (cfiCond158) R10 Frame(CFA_Y, -6)
        CFI (cfiCond158) R11 Frame(CFA_Y, -5)
        CFI (cfiCond158) R12 Frame(CFA_Y, -4)
        CFI (cfiCond158) R13 Frame(CFA_Y, -3)
        CFI (cfiCond158) R14 Frame(CFA_Y, -2)
        CFI (cfiCond158) R15 Frame(CFA_Y, -1)
        CFI (cfiCond158) CFA_SP SP+6
        CFI (cfiCond158) CFA_Y Y+34
        CFI Block cfiCond159 Using cfiCommon0
        CFI (cfiCond159) NoFunction
        CFI (cfiCond159) Conditional ??CrossCallReturnLabel_282
        CFI (cfiCond159) R24 Frame(CFA_Y, -16)
        CFI (cfiCond159) R25 Frame(CFA_Y, -15)
        CFI (cfiCond159) R26 Frame(CFA_Y, -14)
        CFI (cfiCond159) R27 Frame(CFA_Y, -13)
        CFI (cfiCond159) R4 Frame(CFA_Y, -12)
        CFI (cfiCond159) R5 Frame(CFA_Y, -11)
        CFI (cfiCond159) R6 Frame(CFA_Y, -10)
        CFI (cfiCond159) R7 Frame(CFA_Y, -9)
        CFI (cfiCond159) R8 Frame(CFA_Y, -8)
        CFI (cfiCond159) R9 Frame(CFA_Y, -7)
        CFI (cfiCond159) R10 Frame(CFA_Y, -6)
        CFI (cfiCond159) R11 Frame(CFA_Y, -5)
        CFI (cfiCond159) R12 Frame(CFA_Y, -4)
        CFI (cfiCond159) R13 Frame(CFA_Y, -3)
        CFI (cfiCond159) R14 Frame(CFA_Y, -2)
        CFI (cfiCond159) R15 Frame(CFA_Y, -1)
        CFI (cfiCond159) CFA_SP SP+6
        CFI (cfiCond159) CFA_Y Y+34
        CFI Block cfiPicker160 Using cfiCommon1
        CFI (cfiPicker160) NoFunction
        CFI (cfiPicker160) Picker
        JMP	?L_EC_MUL_L03
        CFI EndBlock cfiCond156
        CFI EndBlock cfiCond157
        CFI EndBlock cfiCond158
        CFI EndBlock cfiCond159
        CFI EndBlock cfiPicker160

        RSEG FARCODE:CODE:NOROOT(1)
?Subroutine1:
        CFI Block cfiCond161 Using cfiCommon0
        CFI NoFunction
        CFI Conditional ??CrossCallReturnLabel_0
        CFI R24 Frame(CFA_Y, -13)
        CFI R25 Frame(CFA_Y, -12)
        CFI R26 Frame(CFA_Y, -11)
        CFI R27 Frame(CFA_Y, -10)
        CFI R4 Frame(CFA_Y, -9)
        CFI R5 Frame(CFA_Y, -8)
        CFI R6 Frame(CFA_Y, -7)
        CFI R7 Frame(CFA_Y, -6)
        CFI R8 Frame(CFA_Y, -5)
        CFI R9 Frame(CFA_Y, -4)
        CFI R10 Frame(CFA_Y, -3)
        CFI R11 Frame(CFA_Y, -2)
        CFI R12 Frame(CFA_Y, -1)
        CFI CFA_SP SP+6
        CFI CFA_Y Y+13
        CFI Block cfiCond162 Using cfiCommon0
        CFI (cfiCond162) NoFunction
        CFI (cfiCond162) Conditional ??CrossCallReturnLabel_1
        CFI (cfiCond162) R24 Frame(CFA_Y, -12)
        CFI (cfiCond162) R25 Frame(CFA_Y, -11)
        CFI (cfiCond162) R26 Frame(CFA_Y, -10)
        CFI (cfiCond162) R27 Frame(CFA_Y, -9)
        CFI (cfiCond162) R4 Frame(CFA_Y, -8)
        CFI (cfiCond162) R5 Frame(CFA_Y, -7)
        CFI (cfiCond162) R6 Frame(CFA_Y, -6)
        CFI (cfiCond162) R7 Frame(CFA_Y, -5)
        CFI (cfiCond162) R8 Frame(CFA_Y, -4)
        CFI (cfiCond162) R9 Frame(CFA_Y, -3)
        CFI (cfiCond162) R10 Frame(CFA_Y, -2)
        CFI (cfiCond162) R11 Frame(CFA_Y, -1)
        CFI (cfiCond162) CFA_SP SP+6
        CFI (cfiCond162) CFA_Y Y+12
        CFI Block cfiPicker163 Using cfiCommon1
        CFI (cfiPicker163) NoFunction
        CFI (cfiPicker163) Picker
        LDD	R16, Z+36
        LDI	R17, 0
        LDI	R18, 0
        LDI	R19, 0
        ADD	R16, R20
        ADC	R17, R21
        ADC	R18, R22
        ADC	R19, R23
        LDI	R30, LOW(unix)
        LDI	R31, (unix) >> 8
        LD	R20, Z
        LDD	R21, Z+1
        LDD	R22, Z+2
        LDD	R23, Z+3
        CP	R20, R16
        CPC	R21, R17
        CPC	R22, R18
        CPC	R23, R19
        RET
        CFI EndBlock cfiCond161
        CFI EndBlock cfiCond162
        CFI EndBlock cfiPicker163
//  786 
//  787 
//  788     
//  789 ////////////////////// 

        RSEG FARCODE:CODE:NOROOT(1)
//  790 unsigned long int set_end_time(char mi,char ch,char da,char ma,char ye)
set_end_time:
        CFI Block cfiBlock164 Using cfiCommon0
        CFI Function set_end_time
//  791 { unsigned long int sek_32;
        CALL	?PROLOGUE9_L09
        CFI R8 Frame(CFA_Y, -1)
        CFI R7 Frame(CFA_Y, -2)
        CFI R6 Frame(CFA_Y, -3)
        CFI R5 Frame(CFA_Y, -4)
        CFI R4 Frame(CFA_Y, -5)
        CFI R27 Frame(CFA_Y, -6)
        CFI R26 Frame(CFA_Y, -7)
        CFI R25 Frame(CFA_Y, -8)
        CFI R24 Frame(CFA_Y, -9)
        CFI CFA_Y Y+9
        REQUIRE	?Register_R4_is_cg_reg
        REQUIRE	?Register_R6_is_cg_reg
        REQUIRE	?Register_R8_is_cg_reg
        MOV	R6, R16
        MOV	R4, R17
        MOV	R8, R18
        MOV	R24, R19
        MOV	R26, R20
//  792   struct
//  793         { // в двоичном коде
//  794           char r_sec;
//  795           char r_min;
//  796           char r_hor;
//  797           char r_day;
//  798           char r_date;
//  799           char r_month;
//  800           char r_year;
//  801           char r_control;
//  802         }  real_time;   
//  803          
//  804         real_time.r_sec=0;
//  805         real_time.r_min=mi;
//  806         real_time.r_hor=ch;
//  807         real_time.r_date=da;
//  808         real_time.r_month=ma;
//  809         real_time.r_year=ye; 
//  810   
//  811    sek_32 = ( ( (unsigned long int)real_time.r_year * 365 ) + (real_time.r_year>>2) );
        RCALL	?Subroutine5
//  812    
//  813      switch ( real_time.r_month )
??CrossCallReturnLabel_209:
        MOV	R16, R8
        RCALL	?Subroutine37
??CrossCallReturnLabel_42:
        BREQ	??set_end_time_0
        DEC	R30
        BREQ	??set_end_time_1
        DEC	R30
        BREQ	??set_end_time_2
        DEC	R30
        BREQ	??set_end_time_3
        DEC	R30
        BREQ	??set_end_time_4
        DEC	R30
        BREQ	??set_end_time_5
        DEC	R30
        BREQ	??set_end_time_6
        DEC	R30
        BREQ	??set_end_time_7
        DEC	R30
        BREQ	??set_end_time_8
        DEC	R30
        BREQ	??set_end_time_9
        DEC	R30
        BREQ	??set_end_time_10
//  814          {
//  815           case 1: sek_32 = (sek_32 + real_time.r_date); break;
        ADD	R20, R8
        ADC	R21, R19
        RJMP	??set_end_time_11
//  816           case 2: sek_32 = (sek_32 + real_time.r_date + 31); break;
??set_end_time_0:
        SUBI	R16, 225
??set_end_time_12:
        SBCI	R17, 255
        RJMP	??set_end_time_13
//  817           case 3: sek_32 = (sek_32 + real_time.r_date + 59); break;
??set_end_time_1:
        SUBI	R16, 197
        RJMP	??set_end_time_12
//  818           case 4: sek_32 = (sek_32 + real_time.r_date + 90); break;
??set_end_time_2:
        SUBI	R16, 166
        RJMP	??set_end_time_12
//  819           case 5: sek_32 = (sek_32 + real_time.r_date + 120); break;
??set_end_time_3:
        SUBI	R16, 136
        RJMP	??set_end_time_12
//  820           case 6: sek_32 = (sek_32 + real_time.r_date + 151); break;
??set_end_time_4:
        SUBI	R16, 105
        RJMP	??set_end_time_12
//  821           case 7: sek_32 = (sek_32 + real_time.r_date + 181); break;
??set_end_time_5:
        SUBI	R16, 75
        RJMP	??set_end_time_12
//  822           case 8: sek_32 = (sek_32 + real_time.r_date + 212); break;
??set_end_time_6:
        SUBI	R16, 44
        RJMP	??set_end_time_12
//  823           case 9: sek_32 = (sek_32 + real_time.r_date + 243); break;
??set_end_time_7:
        SUBI	R16, 13
        RJMP	??set_end_time_12
//  824           case 10: sek_32 = (sek_32 + real_time.r_date + 273); break;
??set_end_time_8:
        SUBI	R16, 239
        RJMP	??set_end_time_14
//  825           case 11: sek_32 = (sek_32 + real_time.r_date + 304); break;
??set_end_time_9:
        SUBI	R16, 208
        RJMP	??set_end_time_14
//  826           case 12: sek_32 = (sek_32 + real_time.r_date + 334); break;
??set_end_time_10:
        SUBI	R16, 178
??set_end_time_14:
        SBCI	R17, 254
??set_end_time_13:
        ADD	R20, R16
        ADC	R21, R17
??set_end_time_11:
        ADC	R22, R19
        ADC	R23, R19
//  827           default:
//  828           sek_32 = (sek_32 + real_time.r_date);
//  829          }
//  830     if ( (real_time.r_year & 0x03) == 0 )
        ANDI	R26, 0x03
        BRNE	??CrossCallReturnLabel_111
//  831          {
//  832           if (real_time.r_month < 3) sek_32--;
        CPI	R24, 3
        BRCC	??CrossCallReturnLabel_111
        RCALL	?Subroutine71
//  833          }
//  834   sek_32 = ((sek_32 * 86400)+((unsigned long int)real_time.r_hor * 3600)+((unsigned long int)real_time.r_min * 60)+real_time.r_sec );
//  835   sek_32=sek_32+2;   // чтобы избежать 00 часов
//  836    return sek_32;
??CrossCallReturnLabel_111:
        RCALL	?Subroutine78
??CrossCallReturnLabel_234:
        MOV	R20, R4
        RCALL	?Subroutine6
??CrossCallReturnLabel_232:
        MOV	R20, R6
        RCALL	?Subroutine7
??CrossCallReturnLabel_5:
        RCALL	?Subroutine76
        CFI EndBlock cfiBlock164
??CrossCallReturnLabel_117:
        REQUIRE ?Subroutine124
        ;		// Fall through to label ?Subroutine124
//  837 } 

        RSEG FARCODE:CODE:NOROOT(1)
?Subroutine124:
        CFI Block cfiBlock165 Using cfiCommon0
        CFI NoFunction
        CFI CFA_Y Y+9
        CFI R4 Frame(CFA_Y, -5)
        CFI R5 Frame(CFA_Y, -4)
        CFI R6 Frame(CFA_Y, -3)
        CFI R7 Frame(CFA_Y, -2)
        CFI R8 Frame(CFA_Y, -1)
        CFI R24 Frame(CFA_Y, -9)
        CFI R25 Frame(CFA_Y, -8)
        CFI R26 Frame(CFA_Y, -7)
        CFI R27 Frame(CFA_Y, -6)
        LDI	R30, 9
        JMP	?EPILOGUE_B9_L09
        CFI EndBlock cfiBlock165

        RSEG FARCODE:CODE:NOROOT(1)
?Subroutine78:
        CFI Block cfiCond166 Using cfiCommon0
        CFI NoFunction
        CFI Conditional ??CrossCallReturnLabel_233
        CFI R24 Frame(CFA_Y, -5)
        CFI R25 Frame(CFA_Y, -4)
        CFI R26 Frame(CFA_Y, -3)
        CFI R27 Frame(CFA_Y, -2)
        CFI R4 Frame(CFA_Y, -1)
        CFI CFA_SP SP+6
        CFI CFA_Y Y+5
        CFI Block cfiCond167 Using cfiCommon0
        CFI (cfiCond167) NoFunction
        CFI (cfiCond167) Conditional ??CrossCallReturnLabel_234
        CFI (cfiCond167) R24 Frame(CFA_Y, -9)
        CFI (cfiCond167) R25 Frame(CFA_Y, -8)
        CFI (cfiCond167) R26 Frame(CFA_Y, -7)
        CFI (cfiCond167) R27 Frame(CFA_Y, -6)
        CFI (cfiCond167) R4 Frame(CFA_Y, -5)
        CFI (cfiCond167) R5 Frame(CFA_Y, -4)
        CFI (cfiCond167) R6 Frame(CFA_Y, -3)
        CFI (cfiCond167) R7 Frame(CFA_Y, -2)
        CFI (cfiCond167) R8 Frame(CFA_Y, -1)
        CFI (cfiCond167) CFA_SP SP+6
        CFI (cfiCond167) CFA_Y Y+9
        CFI Block cfiPicker168 Using cfiCommon1
        CFI (cfiPicker168) NoFunction
        CFI (cfiPicker168) Picker
        LDI	R16, 128
        LDI	R17, 81
        LDI	R18, 1
        CALL	?L_EC_MUL_L03
        CFI EndBlock cfiCond166
        CFI EndBlock cfiCond167
        CFI EndBlock cfiPicker168
        REQUIRE ?Subroutine111
        ;		// Fall through to label ?Subroutine111

        RSEG FARCODE:CODE:NOROOT(1)
?Subroutine111:
        CFI Block cfiCond169 Using cfiCommon0
        CFI NoFunction
        CFI Conditional ??CrossCallReturnLabel_233
        CFI R24 Frame(CFA_Y, -5)
        CFI R25 Frame(CFA_Y, -4)
        CFI R26 Frame(CFA_Y, -3)
        CFI R27 Frame(CFA_Y, -2)
        CFI R4 Frame(CFA_Y, -1)
        CFI CFA_SP SP+6
        CFI CFA_Y Y+5
        CFI Block cfiCond170 Using cfiCommon0
        CFI (cfiCond170) NoFunction
        CFI (cfiCond170) Conditional ??CrossCallReturnLabel_234
        CFI (cfiCond170) R24 Frame(CFA_Y, -9)
        CFI (cfiCond170) R25 Frame(CFA_Y, -8)
        CFI (cfiCond170) R26 Frame(CFA_Y, -7)
        CFI (cfiCond170) R27 Frame(CFA_Y, -6)
        CFI (cfiCond170) R4 Frame(CFA_Y, -5)
        CFI (cfiCond170) R5 Frame(CFA_Y, -4)
        CFI (cfiCond170) R6 Frame(CFA_Y, -3)
        CFI (cfiCond170) R7 Frame(CFA_Y, -2)
        CFI (cfiCond170) R8 Frame(CFA_Y, -1)
        CFI (cfiCond170) CFA_SP SP+6
        CFI (cfiCond170) CFA_Y Y+9
        CFI Block cfiCond171 Using cfiCommon0
        CFI (cfiCond171) NoFunction
        CFI (cfiCond171) Conditional ??CrossCallReturnLabel_231
        CFI (cfiCond171) R24 Frame(CFA_Y, -5)
        CFI (cfiCond171) R25 Frame(CFA_Y, -4)
        CFI (cfiCond171) R26 Frame(CFA_Y, -3)
        CFI (cfiCond171) R27 Frame(CFA_Y, -2)
        CFI (cfiCond171) R4 Frame(CFA_Y, -1)
        CFI (cfiCond171) CFA_SP SP+6
        CFI (cfiCond171) CFA_Y Y+5
        CFI Block cfiCond172 Using cfiCommon0
        CFI (cfiCond172) NoFunction
        CFI (cfiCond172) Conditional ??CrossCallReturnLabel_232
        CFI (cfiCond172) R24 Frame(CFA_Y, -9)
        CFI (cfiCond172) R25 Frame(CFA_Y, -8)
        CFI (cfiCond172) R26 Frame(CFA_Y, -7)
        CFI (cfiCond172) R27 Frame(CFA_Y, -6)
        CFI (cfiCond172) R4 Frame(CFA_Y, -5)
        CFI (cfiCond172) R5 Frame(CFA_Y, -4)
        CFI (cfiCond172) R6 Frame(CFA_Y, -3)
        CFI (cfiCond172) R7 Frame(CFA_Y, -2)
        CFI (cfiCond172) R8 Frame(CFA_Y, -1)
        CFI (cfiCond172) CFA_SP SP+6
        CFI (cfiCond172) CFA_Y Y+9
        CFI Block cfiPicker173 Using cfiCommon1
        CFI (cfiPicker173) NoFunction
        CFI (cfiPicker173) Picker
        MOVW	R25:R24, R17:R16
        MOVW	R27:R26, R19:R18
        RET
        CFI EndBlock cfiCond169
        CFI EndBlock cfiCond170
        CFI EndBlock cfiCond171
        CFI EndBlock cfiCond172
        CFI EndBlock cfiPicker173

        RSEG FARCODE:CODE:NOROOT(1)
?Subroutine76:
        CFI Block cfiCond174 Using cfiCommon0
        CFI NoFunction
        CFI Conditional ??CrossCallReturnLabel_116
        CFI R24 Frame(CFA_Y, -6)
        CFI R25 Frame(CFA_Y, -5)
        CFI R26 Frame(CFA_Y, -4)
        CFI R27 Frame(CFA_Y, -3)
        CFI R4 Frame(CFA_Y, -2)
        CFI R5 Frame(CFA_Y, -1)
        CFI CFA_SP SP+6
        CFI CFA_Y Y+28
        CFI Block cfiCond175 Using cfiCommon0
        CFI (cfiCond175) NoFunction
        CFI (cfiCond175) Conditional ??CrossCallReturnLabel_117
        CFI (cfiCond175) R24 Frame(CFA_Y, -9)
        CFI (cfiCond175) R25 Frame(CFA_Y, -8)
        CFI (cfiCond175) R26 Frame(CFA_Y, -7)
        CFI (cfiCond175) R27 Frame(CFA_Y, -6)
        CFI (cfiCond175) R4 Frame(CFA_Y, -5)
        CFI (cfiCond175) R5 Frame(CFA_Y, -4)
        CFI (cfiCond175) R6 Frame(CFA_Y, -3)
        CFI (cfiCond175) R7 Frame(CFA_Y, -2)
        CFI (cfiCond175) R8 Frame(CFA_Y, -1)
        CFI (cfiCond175) CFA_SP SP+6
        CFI (cfiCond175) CFA_Y Y+9
        CFI Block cfiPicker176 Using cfiCommon1
        CFI (cfiPicker176) NoFunction
        CFI (cfiPicker176) Picker
        SUBI	R16, 254
        SBCI	R17, 255
        SBCI	R18, 255
        SBCI	R19, 255
        RET
        CFI EndBlock cfiCond174
        CFI EndBlock cfiCond175
        CFI EndBlock cfiPicker176

        RSEG FARCODE:CODE:NOROOT(1)
?Subroutine37:
        CFI Block cfiCond177 Using cfiCommon0
        CFI NoFunction
        CFI Conditional ??CrossCallReturnLabel_41
        CFI R24 Frame(CFA_Y, -5)
        CFI R25 Frame(CFA_Y, -4)
        CFI R26 Frame(CFA_Y, -3)
        CFI R27 Frame(CFA_Y, -2)
        CFI R4 Frame(CFA_Y, -1)
        CFI CFA_SP SP+6
        CFI CFA_Y Y+5
        CFI Block cfiCond178 Using cfiCommon0
        CFI (cfiCond178) NoFunction
        CFI (cfiCond178) Conditional ??CrossCallReturnLabel_42
        CFI (cfiCond178) R24 Frame(CFA_Y, -9)
        CFI (cfiCond178) R25 Frame(CFA_Y, -8)
        CFI (cfiCond178) R26 Frame(CFA_Y, -7)
        CFI (cfiCond178) R27 Frame(CFA_Y, -6)
        CFI (cfiCond178) R4 Frame(CFA_Y, -5)
        CFI (cfiCond178) R5 Frame(CFA_Y, -4)
        CFI (cfiCond178) R6 Frame(CFA_Y, -3)
        CFI (cfiCond178) R7 Frame(CFA_Y, -2)
        CFI (cfiCond178) R8 Frame(CFA_Y, -1)
        CFI (cfiCond178) CFA_SP SP+6
        CFI (cfiCond178) CFA_Y Y+9
        CFI Block cfiPicker179 Using cfiCommon1
        CFI (cfiPicker179) NoFunction
        CFI (cfiPicker179) Picker
        LDI	R17, 0
        LDI	R19, 0
        MOV	R30, R24
        SUBI	R30, 2
        RET
        CFI EndBlock cfiCond177
        CFI EndBlock cfiCond178
        CFI EndBlock cfiPicker179

        RSEG FARCODE:CODE:NOROOT(1)
?Subroutine7:
        CFI Block cfiCond180 Using cfiCommon0
        CFI NoFunction
        CFI Conditional ??CrossCallReturnLabel_4
        CFI R24 Frame(CFA_Y, -5)
        CFI R25 Frame(CFA_Y, -4)
        CFI R26 Frame(CFA_Y, -3)
        CFI R27 Frame(CFA_Y, -2)
        CFI R4 Frame(CFA_Y, -1)
        CFI CFA_SP SP+6
        CFI CFA_Y Y+5
        CFI Block cfiCond181 Using cfiCommon0
        CFI (cfiCond181) NoFunction
        CFI (cfiCond181) Conditional ??CrossCallReturnLabel_5
        CFI (cfiCond181) R24 Frame(CFA_Y, -9)
        CFI (cfiCond181) R25 Frame(CFA_Y, -8)
        CFI (cfiCond181) R26 Frame(CFA_Y, -7)
        CFI (cfiCond181) R27 Frame(CFA_Y, -6)
        CFI (cfiCond181) R4 Frame(CFA_Y, -5)
        CFI (cfiCond181) R5 Frame(CFA_Y, -4)
        CFI (cfiCond181) R6 Frame(CFA_Y, -3)
        CFI (cfiCond181) R7 Frame(CFA_Y, -2)
        CFI (cfiCond181) R8 Frame(CFA_Y, -1)
        CFI (cfiCond181) CFA_SP SP+6
        CFI (cfiCond181) CFA_Y Y+9
        CFI Block cfiPicker182 Using cfiCommon1
        CFI (cfiPicker182) NoFunction
        CFI (cfiPicker182) Picker
        LDI	R16, 60
        LDI	R17, 0
        LDI	R18, 0
        LDI	R19, 0
        CALL	?L_EC_MUL_L03
        ADD	R16, R24
        ADC	R17, R25
        ADC	R18, R26
        ADC	R19, R27
        RET
        CFI EndBlock cfiCond180
        CFI EndBlock cfiCond181
        CFI EndBlock cfiPicker182

        RSEG FARCODE:CODE:NOROOT(1)
?Subroutine6:
        CFI Block cfiCond183 Using cfiCommon0
        CFI NoFunction
        CFI Conditional ??CrossCallReturnLabel_231
        CFI R24 Frame(CFA_Y, -5)
        CFI R25 Frame(CFA_Y, -4)
        CFI R26 Frame(CFA_Y, -3)
        CFI R27 Frame(CFA_Y, -2)
        CFI R4 Frame(CFA_Y, -1)
        CFI CFA_SP SP+6
        CFI CFA_Y Y+5
        CFI Block cfiCond184 Using cfiCommon0
        CFI (cfiCond184) NoFunction
        CFI (cfiCond184) Conditional ??CrossCallReturnLabel_232
        CFI (cfiCond184) R24 Frame(CFA_Y, -9)
        CFI (cfiCond184) R25 Frame(CFA_Y, -8)
        CFI (cfiCond184) R26 Frame(CFA_Y, -7)
        CFI (cfiCond184) R27 Frame(CFA_Y, -6)
        CFI (cfiCond184) R4 Frame(CFA_Y, -5)
        CFI (cfiCond184) R5 Frame(CFA_Y, -4)
        CFI (cfiCond184) R6 Frame(CFA_Y, -3)
        CFI (cfiCond184) R7 Frame(CFA_Y, -2)
        CFI (cfiCond184) R8 Frame(CFA_Y, -1)
        CFI (cfiCond184) CFA_SP SP+6
        CFI (cfiCond184) CFA_Y Y+9
        CFI Block cfiPicker185 Using cfiCommon1
        CFI (cfiPicker185) NoFunction
        CFI (cfiPicker185) Picker
        LDI	R21, 0
        LDI	R22, 0
        LDI	R23, 0
        LDI	R16, 16
        LDI	R17, 14
        LDI	R18, 0
        LDI	R19, 0
        CALL	?L_EC_MUL_L03
        ADD	R16, R24
        ADC	R17, R25
        ADC	R18, R26
        ADC	R19, R27
        RJMP	?Subroutine111
        CFI EndBlock cfiCond183
        CFI EndBlock cfiCond184
        CFI EndBlock cfiPicker185

        RSEG FARCODE:CODE:NOROOT(1)
?Subroutine5:
        CFI Block cfiCond186 Using cfiCommon0
        CFI NoFunction
        CFI Conditional ??CrossCallReturnLabel_208
        CFI R24 Frame(CFA_Y, -5)
        CFI R25 Frame(CFA_Y, -4)
        CFI R26 Frame(CFA_Y, -3)
        CFI R27 Frame(CFA_Y, -2)
        CFI R4 Frame(CFA_Y, -1)
        CFI CFA_SP SP+6
        CFI CFA_Y Y+5
        CFI Block cfiCond187 Using cfiCommon0
        CFI (cfiCond187) NoFunction
        CFI (cfiCond187) Conditional ??CrossCallReturnLabel_209
        CFI (cfiCond187) R24 Frame(CFA_Y, -9)
        CFI (cfiCond187) R25 Frame(CFA_Y, -8)
        CFI (cfiCond187) R26 Frame(CFA_Y, -7)
        CFI (cfiCond187) R27 Frame(CFA_Y, -6)
        CFI (cfiCond187) R4 Frame(CFA_Y, -5)
        CFI (cfiCond187) R5 Frame(CFA_Y, -4)
        CFI (cfiCond187) R6 Frame(CFA_Y, -3)
        CFI (cfiCond187) R7 Frame(CFA_Y, -2)
        CFI (cfiCond187) R8 Frame(CFA_Y, -1)
        CFI (cfiCond187) CFA_SP SP+6
        CFI (cfiCond187) CFA_Y Y+9
        CFI Block cfiPicker188 Using cfiCommon1
        CFI (cfiPicker188) NoFunction
        CFI (cfiPicker188) Picker
        LDI	R21, 0
        LDI	R22, 0
        LDI	R23, 0
        LDI	R16, 109
        LDI	R17, 1
        LDI	R18, 0
        LDI	R19, 0
        CALL	?L_EC_MUL_L03
        LSR	R20
        LSR	R20
        RJMP	?Subroutine105
        CFI EndBlock cfiCond186
        CFI EndBlock cfiCond187
        CFI EndBlock cfiPicker188
//  838 //////////////////////////////////
//  839 
//  840   

        RSEG FARCODE:CODE:NOROOT(1)
//  841 int crc_sum(unsigned char *ff,unsigned char kol)
crc_sum:
        CFI Block cfiBlock189 Using cfiCommon0
        CFI Function crc_sum
//  842 {
//  843   int sum_crc;
//  844   char i;
//  845   sum_crc=0;
        LDI	R20, 0
        LDI	R21, 0
//  846                
//  847                for (i=0;i<kol;i++)
        LDI	R19, 0
        RJMP	??crc_sum_0
//  848                                 {
//  849                                 sum_crc+= *ff;                                
??crc_sum_1:
        MOVW	R31:R30, R17:R16
        LD	R22, Z+
        MOVW	R17:R16, R31:R30
        LDI	R23, 0
        ADD	R20, R22
        ADC	R21, R23
//  850                                 *ff++ ;
//  851                                  }     
        INC	R19
??crc_sum_0:
        CP	R19, R18
        BRCS	??crc_sum_1
//  852   
//  853   return(sum_crc);
        MOVW	R17:R16, R21:R20
        RET
        CFI EndBlock cfiBlock189
//  854 }
//  855 
//  856 
//  857 
//  858 //////////////////
//  859 // прочитать сначала архивы на предмет действительности

        RSEG FARCODE:CODE:NOROOT(1)
//  860  unsigned long int read_arhiv_tii(char m)  // 
read_arhiv_tii:
        CFI Block cfiBlock190 Using cfiCommon0
        CFI Function read_arhiv_tii
//  861  {
        FUNCALL read_arhiv_tii, RdFromFleshToArr
        LOCFRAME CSTACK, 24, STACK
        LOCFRAME RSTACK, 3, STACK
        FUNCALL read_arhiv_tii, crc_sum
        LOCFRAME CSTACK, 24, STACK
        LOCFRAME RSTACK, 3, STACK
        RCALL	?Subroutine89
        CFI R24 Frame(CFA_Y, -4)
        CFI R25 Frame(CFA_Y, -3)
        CFI R26 Frame(CFA_Y, -2)
        CFI R27 Frame(CFA_Y, -1)
        CFI CFA_Y Y+4
??CrossCallReturnLabel_157:
        SBIW	R29:R28, 18
        CFI CFA_Y Y+22
//  862  char index;
//  863 
//  864  unsigned int t_i; 
//  865   union
//  866    {     
//  867    long int unix;
//  868    char st[4]; 
//  869    } tik;
//  870    
//  871 unsigned char zapis[14];
//  872  
//  873 index=0+m*2; 
        MOV	R18, R16
        LSL	R18
//  874 t_i=  ( ( unsigned long int)c2_byte.mb[index] + ( unsigned long int)(c2_byte.mb[index+1] & 7)*256);
        RCALL	?Subroutine38
//  875 if (t_i > 1440) return(0);
??CrossCallReturnLabel_43:
        CPI	R20, 161
        LDI	R17, 5
        CPC	R19, R17
        BRCS	??read_arhiv_tii_0
??read_arhiv_tii_1:
        LDI	R16, 0
        LDI	R17, 0
        LDI	R18, 0
        LDI	R19, 0
        RJMP	??CrossCallReturnLabel_161
//  876 if (t_i==0) return(0);
??read_arhiv_tii_0:
        OR	R18, R19
        BREQ	??read_arhiv_tii_1
//  877                        
//  878 
//  879 
//  880                         
//  881                       RdFromFleshToArr(STRUCT_TII+m*14,&zapis[0],14); 
        RCALL	?Subroutine31
//  882                      
//  883                      /*
//  884                       //proverka
//  885                      
//  886                       __disable_interrupt(); 
//  887                       UCSR2B=0; 
//  888                       UBRR2H = R115200_H;
//  889                       UBRR2L = R115200_L;     
//  890                       UCSR2B=UCSR2B | TXEN;
//  891                       s_port('r');
//  892                       s_port('d');
//  893                       s_port(' ');
//  894                       s_port('f');
//  895                       s_port('l');
//  896                       s_port('a');
//  897                       s_port('s');
//  898                       s_port('h');
//  899                       s_port(':');
//  900                       s_port(zapis[0]);
//  901                       s_port(zapis[1]);
//  902                       s_port(zapis[2]);
//  903                       s_port(zapis[3]);
//  904                       s_port(zapis[4]);
//  905                       s_port(zapis[5]);
//  906                       s_port(zapis[6]);
//  907                       s_port(zapis[7]);
//  908                       s_port(zapis[8]);
//  909                       s_port(zapis[9]);
//  910                       s_port(zapis[10]);
//  911                       s_port(zapis[11]);
//  912                       s_port(zapis[12]);
//  913                       s_port(zapis[13]);
//  914                       */
//  915                       
//  916                       if((*(int*)&zapis[12])==crc_sum(&zapis[0],12)) 
??CrossCallReturnLabel_37:
        BRNE	??read_arhiv_tii_1
//  917                                         {     
//  918                                            tik.st[0]=zapis[0];
        RCALL	?Subroutine27
//  919                                            tik.st[1]=zapis[1];
//  920                                            tik.st[2]=zapis[2];
//  921                                            tik.st[3]=zapis[3];
//  922                                            
//  923                                            /*
//  924                                            S3_RD;//proverka
//  925                                             s_port('r');
//  926                                             s_port('d');
//  927                                             s_port(' ');
//  928                                             s_port('t');
//  929                                             s_port('i');
//  930                                             s_port('k');
//  931                                             s_port(':');
//  932                                            
//  933                                            s_port(tik.st[0]);
//  934                                            s_port(tik.st[1]);
//  935                                            s_port(tik.st[2]);
//  936                                            s_port(tik.st[3]);
//  937                                            s_port('e');
//  938                                            s_port('n');
//  939                                            s_port('d');
//  940                                              */
//  941                                            
//  942                                            
//  943                                           if( tik.unix==timer_tii[m])
??CrossCallReturnLabel_221:
        BRNE	??read_arhiv_tii_1
//  944                                                                       {
//  945                                                                       tik.st[0]=zapis[6];
        LDD	R16, Y+10
        ST	Y, R16
//  946                                                                       tik.st[1]=zapis[7];
        LDD	R16, Y+11
        STD	Y+1, R16
//  947                                                                       tik.st[2]=zapis[8];
        LDD	R16, Y+12
        STD	Y+2, R16
//  948                                                                       tik.st[3]=zapis[9];
        LDD	R16, Y+13
        STD	Y+3, R16
//  949                                                                    //   err_cnt[m]=1;
//  950                                                                     
//  951                                                                       return(tik.unix);  // пишем в тот же архив
        RCALL	?Subroutine90
??CrossCallReturnLabel_161:
        ADIW	R29:R28, 18
        CFI CFA_Y Y+4
        RJMP	?Subroutine125
        CFI EndBlock cfiBlock190
//  952                                                                       
//  953                                                                       }
//  954                                           
//  955                                             
//  956                                            
//  957                                           else
//  958                                                           {
//  959                                                       //    err_cnt[m]=2;                                         
//  960                                                           return(0);  // создаем новый архив 
//  961                                                           }
//  962                                           }
//  963                        else  
//  964                        
//  965                                                          {
//  966                                                       //    err_cnt[m]=3;                                         
//  967                                                           return(0);  // архив неправильный 
//  968                                                           }      
//  969                                                        
//  970 /////////////////////////////////
//  971 }                  
//  972  //////////           
//  973 
//  974 
//  975 

        RSEG FARCODE:CODE:NOROOT(1)
//  976  void store_tii(void)  // записать в архив значения 1 минутные
store_tii:
        CFI Block cfiBlock191 Using cfiCommon0
        CFI Function store_tii
//  977  {
        FUNCALL store_tii, crc_sum
        LOCFRAME CSTACK, 26, STACK
        LOCFRAME RSTACK, 3, STACK
        FUNCALL store_tii, WrArrayToFlesh
        LOCFRAME CSTACK, 26, STACK
        LOCFRAME RSTACK, 3, STACK
        ST	-Y, R25
        CFI R25 Frame(CFA_Y, -1)
        CFI CFA_Y Y+1
        ST	-Y, R24
        CFI R24 Frame(CFA_Y, -2)
        CFI CFA_Y Y+2
        SBIW	R29:R28, 18
        CFI CFA_Y Y+20
//  978  char index,m;
//  979  unsigned char zapis[14];
//  980  
//  981  unsigned int t_i,te; 
//  982  
//  983   union
//  984    {     
//  985    long int unix;
//  986    char st[4]; 
//  987    } tik;
//  988    
//  989  te=tii_bit_minut;   
        RCALL	??Subroutine84_0
??CrossCallReturnLabel_142:
        LDD	R16, Z+30
        LDD	R17, Z+31
//  990  if (te==0) return;   
        MOV	R18, R16
        OR	R18, R17
        BRNE	$+2+2
        RJMP	??CrossCallReturnLabel_268
//  991  
//  992  if( te & 0x8000) { m=15;goto zap_tii; }
        BST	R17, 7
        BRTC	??store_tii_0
        LDI	R18, 15
        RJMP	??store_tii_1
//  993  if( te & 0x4000) { m=14;goto zap_tii; }
??store_tii_0:
        BST	R17, 6
        BRTC	??store_tii_2
        LDI	R18, 14
        RJMP	??store_tii_1
//  994  
//  995 
//  996  if(sel_modul==1)
??store_tii_2:
        LDS	R18, sel_modul
        CPI	R18, 1
        LDI	R18, 0
        BRNE	??store_tii_3
//  997  {
//  998    for (m=0; m < 5;m++)
//  999           {
// 1000           if( te & 1)goto zap_tii; 
??store_tii_4:
        SBRC	R16, 0
        RJMP	??store_tii_1
// 1001                           
// 1002            te=te >> 1;               
        RCALL	?Subroutine91
// 1003           }
??CrossCallReturnLabel_164:
        INC	R18
        CPI	R18, 5
        BRCC	??store_tii_1
        RJMP	??store_tii_4
// 1004  }
// 1005  else
// 1006  {
// 1007  for (m=0; m < 8;m++)
// 1008           {
// 1009           if( te & 1)goto zap_tii; 
??store_tii_3:
        SBRC	R16, 0
        RJMP	??store_tii_1
// 1010                           
// 1011            te=te >> 1;               
        RCALL	?Subroutine91
// 1012           }
??CrossCallReturnLabel_165:
        INC	R18
        CPI	R18, 8
        BRCS	??store_tii_3
// 1013  
// 1014  }
// 1015  
// 1016 zap_tii:               
// 1017  
// 1018       
// 1019 te=  1<<m;
// 1020                           
// 1021 tii_bit_minut= tii_bit_minut & ~te; 
??store_tii_1:
        RCALL	?Subroutine59
??CrossCallReturnLabel_239:
        MOV	R20, R18
        RCALL	?Subroutine83
??CrossCallReturnLabel_135:
        LDD	R20, Z+30
        LDD	R21, Z+31
        AND	R20, R16
        AND	R21, R17
        STD	Z+30, R20
        STD	Z+31, R21
// 1022  
// 1023 index=0+m*2; 
        MOV	R16, R18
        RCALL	?Subroutine16
// 1024 t_i=  ( ( unsigned long int)c2_byte.mb[index] + ( unsigned long int)(c2_byte.mb[index+1] & 7)*256);
??CrossCallReturnLabel_18:
        LD	R20, Z
        LDD	R16, Z+1
        ANDI	R16, 0x07
        MOV	R17, R16
        MOV	R16, R20
// 1025 if (t_i > 1440) return;
        CPI	R20, 161
        LDI	R19, 5
        CPC	R17, R19
        BRCC	??CrossCallReturnLabel_268
// 1026 if (t_i==0) return;
        MOV	R19, R20
        OR	R19, R17
        BREQ	??CrossCallReturnLabel_268
// 1027 
// 1028                       
// 1029                                         {
// 1030                                         tik.unix=timer_tii[m];        
        MOV	R24, R18
        LDI	R25, 0
        MOVW	R1:R0, R25:R24
        LSL	R0
        ROL	R1
        LSL	R0
        ROL	R1
        MOVW	R31:R30, R1:R0
        SUBI	R30, LOW((-(timer_tii) & 0xFFFF))
        SBCI	R31, (-(timer_tii) & 0xFFFF) >> 8
        RCALL	?Subroutine104
??CrossCallReturnLabel_199:
        RCALL	?Subroutine51
// 1031      
// 1032                                          zapis[0]=tik.st[0];
??CrossCallReturnLabel_63:
        STD	Y+4, R20
// 1033                                          zapis[1]=tik.st[1];
        STD	Y+5, R21
// 1034                                          zapis[2]=tik.st[2];
        STD	Y+6, R22
// 1035                                          zapis[3]=tik.st[3];
        STD	Y+7, R23
// 1036                                              
// 1037  
// 1038   
// 1039     __disable_interrupt();
        CLI
// 1040   tik.unix=(arr_tii_32[m ]- start_ttii[m]);
        RCALL	?Subroutine45
??CrossCallReturnLabel_203:
        MOVW	R31:R30, R1:R0
        SUBI	R30, LOW((-(start_ttii) & 0xFFFF))
        SBCI	R31, (-(start_ttii) & 0xFFFF) >> 8
        RCALL	?Subroutine106
??CrossCallReturnLabel_210:
        RCALL	?Subroutine92
??CrossCallReturnLabel_168:
        RCALL	?Subroutine51
// 1041    __enable_interrupt();
??CrossCallReturnLabel_64:
        SEI
// 1042   
// 1043                                          zapis[6]=tik.st[0];
        STD	Y+10, R20
// 1044                                          zapis[7]=tik.st[1];
        STD	Y+11, R21
// 1045                                          zapis[8]=tik.st[2];
        STD	Y+12, R22
// 1046                                          zapis[9]=tik.st[3];
        STD	Y+13, R23
// 1047   
// 1048   
// 1049   
// 1050 
// 1051   
// 1052   zapis[4]=t_i;
        STD	Y+8, R16
// 1053   zapis[5]=(t_i >>8);  
        STD	Y+9, R17
// 1054   
// 1055   zapis[10]=m;
        STD	Y+14, R18
// 1056   zapis[11]=0;  
        STD	Y+15, R25
// 1057                                      }
// 1058  *(int*)&zapis[12]=crc_sum(&zapis[0],12);
        RCALL	?Subroutine34
// 1059   
// 1060 
// 1061 //send_info(sizeof(prov1),prov1,0,0);
// 1062    
// 1063 WrArrayToFlesh(STRUCT_TII+m*14,&zapis[0],14,0,0);            
// 1064 
// 1065                      /*
// 1066                      //proverka
// 1067                       S4_CH;
// 1068                       UCSR2B=0; 
// 1069                       UBRR2H = R115200_H;
// 1070                       UBRR2L = R115200_L;     
// 1071                       UCSR2B=UCSR2B | TXEN;
// 1072                       s_port('w');
// 1073                       s_port('r');
// 1074                       s_port(' ');
// 1075                       s_port('f');
// 1076                       s_port('l');
// 1077                       s_port('a');
// 1078                       s_port('s');
// 1079                       s_port('h');
// 1080                       s_port(':');
// 1081                       s_port(zapis[0]);
// 1082                       s_port(zapis[1]);
// 1083                       s_port(zapis[2]);
// 1084                       s_port(zapis[3]);
// 1085                       s_port(zapis[4]);
// 1086                       s_port(zapis[5]);
// 1087                       s_port(zapis[6]);
// 1088                       s_port(zapis[7]);
// 1089                       s_port(zapis[8]);
// 1090                       s_port(zapis[9]);
// 1091                       s_port(zapis[10]);
// 1092                       s_port(zapis[11]);
// 1093                       s_port(zapis[12]);
// 1094                       s_port(zapis[13]);
// 1095                       */
// 1096 
// 1097 /////////////////////////////////
// 1098 }                  
??CrossCallReturnLabel_268:
        ADIW	R29:R28, 18
        CFI CFA_Y Y+2
        RJMP	?Subroutine110
        CFI EndBlock cfiBlock191

        RSEG FARCODE:CODE:NOROOT(1)
?Subroutine51:
        CFI Block cfiCond192 Using cfiCommon0
        CFI NoFunction
        CFI Conditional ??CrossCallReturnLabel_62
        CFI R24 Frame(CFA_Y, -2)
        CFI R25 Frame(CFA_Y, -1)
        CFI CFA_SP SP+6
        CFI CFA_Y Y+16
        CFI Block cfiCond193 Using cfiCommon0
        CFI (cfiCond193) NoFunction
        CFI (cfiCond193) Conditional ??CrossCallReturnLabel_63
        CFI (cfiCond193) R24 Frame(CFA_Y, -2)
        CFI (cfiCond193) R25 Frame(CFA_Y, -1)
        CFI (cfiCond193) CFA_SP SP+6
        CFI (cfiCond193) CFA_Y Y+20
        CFI Block cfiCond194 Using cfiCommon0
        CFI (cfiCond194) NoFunction
        CFI (cfiCond194) Conditional ??CrossCallReturnLabel_64
        CFI (cfiCond194) R24 Frame(CFA_Y, -2)
        CFI (cfiCond194) R25 Frame(CFA_Y, -1)
        CFI (cfiCond194) CFA_SP SP+6
        CFI (cfiCond194) CFA_Y Y+20
        CFI Block cfiPicker195 Using cfiCommon1
        CFI (cfiPicker195) NoFunction
        CFI (cfiPicker195) Picker
        ST	Y, R20
        STD	Y+1, R21
        STD	Y+2, R22
        STD	Y+3, R23
        RET
        CFI EndBlock cfiCond192
        CFI EndBlock cfiCond193
        CFI EndBlock cfiCond194
        CFI EndBlock cfiPicker195

        RSEG FARCODE:CODE:NOROOT(1)
?Subroutine16:
        CFI Block cfiCond196 Using cfiCommon0
        CFI NoFunction
        CFI Conditional ??CrossCallReturnLabel_18
        CFI R24 Frame(CFA_Y, -2)
        CFI R25 Frame(CFA_Y, -1)
        CFI CFA_SP SP+6
        CFI CFA_Y Y+20
        CFI Block cfiCond197 Using cfiCommon0
        CFI (cfiCond197) NoFunction
        CFI (cfiCond197) Conditional ??CrossCallReturnLabel_19
        CFI (cfiCond197) R24 Frame(CFA_Y, -8)
        CFI (cfiCond197) R25 Frame(CFA_Y, -7)
        CFI (cfiCond197) R26 Frame(CFA_Y, -6)
        CFI (cfiCond197) R27 Frame(CFA_Y, -5)
        CFI (cfiCond197) R4 Frame(CFA_Y, -4)
        CFI (cfiCond197) R5 Frame(CFA_Y, -3)
        CFI (cfiCond197) R6 Frame(CFA_Y, -2)
        CFI (cfiCond197) R7 Frame(CFA_Y, -1)
        CFI (cfiCond197) CFA_SP SP+6
        CFI (cfiCond197) CFA_Y Y+26
        CFI Block cfiPicker198 Using cfiCommon1
        CFI (cfiPicker198) NoFunction
        CFI (cfiPicker198) Picker
        LSL	R16
        LDI	R30, LOW(c2_byte)
        LDI	R31, (c2_byte) >> 8
        LDI	R17, 0
        CFI Block cfiCond199 Using cfiCommon0
        CFI (cfiCond199) NoFunction
        CFI (cfiCond199) Conditional ??CrossCallReturnLabel_20
        CFI (cfiCond199) R24 Frame(CFA_Y, -3)
        CFI (cfiCond199) R25 Frame(CFA_Y, -2)
        CFI (cfiCond199) R26 Frame(CFA_Y, -1)
        CFI (cfiCond199) CFA_SP SP+6
        CFI (cfiCond199) CFA_Y Y+21
        CFI Block cfiCond200 Using cfiCommon0
        CFI (cfiCond200) NoFunction
        CFI (cfiCond200) Conditional ??CrossCallReturnLabel_21
        CFI (cfiCond200) R24 Frame(CFA_Y, -13)
        CFI (cfiCond200) R25 Frame(CFA_Y, -12)
        CFI (cfiCond200) R26 Frame(CFA_Y, -11)
        CFI (cfiCond200) R27 Frame(CFA_Y, -10)
        CFI (cfiCond200) R4 Frame(CFA_Y, -9)
        CFI (cfiCond200) R5 Frame(CFA_Y, -8)
        CFI (cfiCond200) R6 Frame(CFA_Y, -7)
        CFI (cfiCond200) R7 Frame(CFA_Y, -6)
        CFI (cfiCond200) R8 Frame(CFA_Y, -5)
        CFI (cfiCond200) R9 Frame(CFA_Y, -4)
        CFI (cfiCond200) R10 Frame(CFA_Y, -3)
        CFI (cfiCond200) R11 Frame(CFA_Y, -2)
        CFI (cfiCond200) R12 Frame(CFA_Y, -1)
        CFI (cfiCond200) CFA_SP SP+6
        CFI (cfiCond200) CFA_Y Y+13
??Subroutine16_0:
        ADD	R30, R16
        ADC	R31, R17
        RET
        CFI EndBlock cfiCond196
        CFI EndBlock cfiCond197
        CFI EndBlock cfiPicker198
        CFI EndBlock cfiCond199
        CFI EndBlock cfiCond200
// 1099  //////////
// 1100  
// 1101  
// 1102  

        RSEG FARCODE:CODE:NOROOT(1)
// 1103  void store_tii_lock(char m)  // записать в архив значения 1 минутные
store_tii_lock:
        CFI Block cfiBlock201 Using cfiCommon0
        CFI Function store_tii_lock
// 1104  {
        FUNCALL store_tii_lock, crc_sum
        LOCFRAME CSTACK, 26, STACK
        LOCFRAME RSTACK, 3, STACK
        FUNCALL store_tii_lock, WrArrayToFlesh
        LOCFRAME CSTACK, 26, STACK
        LOCFRAME RSTACK, 3, STACK
        FUNCALL store_tii_lock, WrArrayToFlesh
        LOCFRAME CSTACK, 26, STACK
        LOCFRAME RSTACK, 3, STACK
        RCALL	?Subroutine95
        CFI R24 Frame(CFA_Y, -8)
        CFI R25 Frame(CFA_Y, -7)
        CFI R26 Frame(CFA_Y, -6)
        CFI R27 Frame(CFA_Y, -5)
        CFI R4 Frame(CFA_Y, -4)
        CFI R5 Frame(CFA_Y, -3)
        CFI R6 Frame(CFA_Y, -2)
        CFI R7 Frame(CFA_Y, -1)
        CFI CFA_Y Y+8
??CrossCallReturnLabel_177:
        REQUIRE	?Register_R4_is_cg_reg
        REQUIRE	?Register_R5_is_cg_reg
        REQUIRE	?Register_R6_is_cg_reg
        REQUIRE	?Register_R7_is_cg_reg
        SBIW	R29:R28, 18
        CFI CFA_Y Y+26
        MOV	R20, R16
// 1105  char index;
// 1106  unsigned char zapis[14];
// 1107  unsigned int t_i,te; 
// 1108  
// 1109   union
// 1110    {     
// 1111    long int unix;
// 1112    char st[4]; 
// 1113    } tik;
// 1114    
// 1115  
// 1116  
// 1117 
// 1118  
// 1119 index=0+m*2; 
        RCALL	?Subroutine16
// 1120 t_i=  ( ( unsigned long int)c2_byte.mb[index] + ( unsigned long int)(c2_byte.mb[index+1] & 7)*256);
??CrossCallReturnLabel_19:
        RCALL	?Subroutine65
// 1121 if (t_i > 1440) return;
??CrossCallReturnLabel_95:
        CPI	R18, 161
        LDI	R18, 5
        CPC	R17, R18
        BRCS	$+2+2
        RJMP	??CrossCallReturnLabel_266
// 1122 if (t_i==0) return;
        MOV	R18, R16
        OR	R18, R17
        BRNE	$+2+2
        RJMP	??CrossCallReturnLabel_266
// 1123 
// 1124                       
// 1125                                         {
// 1126                                         tik.unix=timer_tii[m];        
        MOV	R24, R20
        LDI	R25, 0
        MOVW	R19:R18, R25:R24
        LSL	R18
        ROL	R19
        LSL	R18
        ROL	R19
        MOVW	R31:R30, R19:R18
        SUBI	R30, LOW((-(timer_tii) & 0xFFFF))
        SBCI	R31, (-(timer_tii) & 0xFFFF) >> 8
        RCALL	?Subroutine106
??CrossCallReturnLabel_211:
        RCALL	?Subroutine48
// 1127      
// 1128                                          zapis[0]=tik.st[0];
// 1129                                          zapis[1]=tik.st[1];
// 1130                                          zapis[2]=tik.st[2];
// 1131                                          zapis[3]=tik.st[3];
// 1132                                              
// 1133  
// 1134  __disable_interrupt();
??CrossCallReturnLabel_56:
        CLI
// 1135   tik.unix=(arr_tii_32[m ]- start_ttii[m]);
        MOVW	R31:R30, R19:R18
        RCALL	?Subroutine47
??CrossCallReturnLabel_215:
        MOVW	R31:R30, R19:R18
        SUBI	R30, LOW((-(start_ttii) & 0xFFFF))
        SBCI	R31, (-(start_ttii) & 0xFFFF) >> 8
        LD	R4, Z
        LDD	R5, Z+1
        LDD	R6, Z+2
        LDD	R7, Z+3
        RCALL	?Subroutine96
??CrossCallReturnLabel_180:
        RCALL	?Subroutine49
// 1136   __enable_interrupt();
??CrossCallReturnLabel_59:
        SEI
// 1137                                          zapis[6]=tik.st[0];
        RCALL	?Subroutine97
// 1138                                          zapis[7]=tik.st[1];
// 1139                                          zapis[8]=tik.st[2];
// 1140                                          zapis[9]=tik.st[3];
// 1141   
// 1142   // записываем в архив либо замер импульсов либо мотоминуты
// 1143   
// 1144                         tii_moto.config=*(unsigned int*)&c2_byte.mb[m<<1];
??CrossCallReturnLabel_182:
        MOVW	R23:R22, R25:R24
        LSL	R22
        ROL	R23
        MOVW	R31:R30, R23:R22
        SUBI	R30, LOW((-(c2_byte) & 0xFFFF))
        SBCI	R31, (-(c2_byte) & 0xFFFF) >> 8
        LD	R0, Z
        LDD	R1, Z+1
        LDI	R26, LOW(timer_psm)
        LDI	R27, (timer_psm) >> 8
        MOVW	R31:R30, R27:R26
        STD	Z+24, R0
        STD	Z+25, R1
// 1145                         if (tii_moto.bit.type_zam==1)  { *(unsigned long int*)&zapis[6]=cnt_moto[m];   }
        LDI	R23, 24
        AND	R23, R1
        CPI	R25, 0
        SBCI	R23, 8
        BRNE	??CrossCallReturnLabel_183
        MOVW	R31:R30, R19:R18
        SUBI	R30, LOW((-(cnt_moto) & 0xFFFF))
        SBCI	R31, (-(cnt_moto) & 0xFFFF) >> 8
        RCALL	?Subroutine106
??CrossCallReturnLabel_212:
        RCALL	?Subroutine97
// 1146                          *(unsigned int*)&zapis[4]=t_i; 
??CrossCallReturnLabel_183:
        STD	Y+8, R16
        STD	Y+9, R17
// 1147                         
// 1148   
// 1149   
// 1150   //zapis[4]=t_i;
// 1151   //zapis[5]=(t_i >>8);  
// 1152   
// 1153   zapis[10]=m;
        STD	Y+14, R20
// 1154   zapis[11]=0;  
        STD	Y+15, R25
// 1155                                      }
// 1156   
// 1157   
// 1158 
// 1159  te=  1<<m;
// 1160                           
// 1161 tii_bit_minut= tii_bit_minut & ~te;         
        RCALL	?Subroutine59
??CrossCallReturnLabel_240:
        RCALL	?Subroutine83
??CrossCallReturnLabel_136:
        MOVW	R31:R30, R27:R26
        LDD	R18, Z+30
        LDD	R19, Z+31
        AND	R18, R16
        AND	R19, R17
        STD	Z+30, R18
        STD	Z+31, R19
// 1162                           
// 1163                                                    
// 1164 *(int*)&zapis[12]=crc_sum(&zapis[0],12);     
        RCALL	?Subroutine34
// 1165 WrArrayToFlesh(STRUCT_TII+m*14,&zapis[0],14,0,0);   
// 1166 
// 1167 
// 1168  // записать в общую кучу
// 1169 
// 1170 
// 1171 
// 1172 WrArrayToFlesh(STRUCT_TII_HEAP + (int)modbus_mem1[AD_IND_DNS]*14,&zapis[0],14,0,0);
??CrossCallReturnLabel_267:
        RCALL	?Subroutine33
// 1173 
// 1174 
// 1175 
// 1176  
// 1177 }                  
??CrossCallReturnLabel_266:
        ADIW	R29:R28, 18
        CFI EndBlock cfiBlock201
        REQUIRE ?Subroutine126
        ;		// Fall through to label ?Subroutine126

        RSEG FARCODE:CODE:NOROOT(1)
?Subroutine126:
        CFI Block cfiBlock202 Using cfiCommon0
        CFI NoFunction
        CFI CFA_Y Y+8
        CFI R4 Frame(CFA_Y, -4)
        CFI R5 Frame(CFA_Y, -3)
        CFI R6 Frame(CFA_Y, -2)
        CFI R7 Frame(CFA_Y, -1)
        CFI R24 Frame(CFA_Y, -8)
        CFI R25 Frame(CFA_Y, -7)
        CFI R26 Frame(CFA_Y, -6)
        CFI R27 Frame(CFA_Y, -5)
        LDI	R30, 8
        JMP	?EPILOGUE_B8_L09
        CFI EndBlock cfiBlock202

        RSEG FARCODE:CODE:NOROOT(1)
?Subroutine97:
        CFI Block cfiCond203 Using cfiCommon0
        CFI NoFunction
        CFI Conditional ??CrossCallReturnLabel_182
        CFI R24 Frame(CFA_Y, -8)
        CFI R25 Frame(CFA_Y, -7)
        CFI R26 Frame(CFA_Y, -6)
        CFI R27 Frame(CFA_Y, -5)
        CFI R4 Frame(CFA_Y, -4)
        CFI R5 Frame(CFA_Y, -3)
        CFI R6 Frame(CFA_Y, -2)
        CFI R7 Frame(CFA_Y, -1)
        CFI CFA_SP SP+6
        CFI CFA_Y Y+26
        CFI Block cfiCond204 Using cfiCommon0
        CFI (cfiCond204) NoFunction
        CFI (cfiCond204) Conditional ??CrossCallReturnLabel_183
        CFI (cfiCond204) R24 Frame(CFA_Y, -8)
        CFI (cfiCond204) R25 Frame(CFA_Y, -7)
        CFI (cfiCond204) R26 Frame(CFA_Y, -6)
        CFI (cfiCond204) R27 Frame(CFA_Y, -5)
        CFI (cfiCond204) R4 Frame(CFA_Y, -4)
        CFI (cfiCond204) R5 Frame(CFA_Y, -3)
        CFI (cfiCond204) R6 Frame(CFA_Y, -2)
        CFI (cfiCond204) R7 Frame(CFA_Y, -1)
        CFI (cfiCond204) CFA_SP SP+6
        CFI (cfiCond204) CFA_Y Y+26
        CFI Block cfiPicker205 Using cfiCommon1
        CFI (cfiPicker205) NoFunction
        CFI (cfiPicker205) Picker
        STD	Y+10, R0
        STD	Y+11, R1
        STD	Y+12, R2
        STD	Y+13, R3
        RET
        CFI EndBlock cfiCond203
        CFI EndBlock cfiCond204
        CFI EndBlock cfiPicker205

        RSEG FARCODE:CODE:NOROOT(1)
?Subroutine83:
        CFI Block cfiCond206 Using cfiCommon0
        CFI NoFunction
        CFI Conditional ??CrossCallReturnLabel_134
        CFI R24 Frame(CFA_Y, -13)
        CFI R25 Frame(CFA_Y, -12)
        CFI R26 Frame(CFA_Y, -11)
        CFI R27 Frame(CFA_Y, -10)
        CFI R4 Frame(CFA_Y, -9)
        CFI R5 Frame(CFA_Y, -8)
        CFI R6 Frame(CFA_Y, -7)
        CFI R7 Frame(CFA_Y, -6)
        CFI R8 Frame(CFA_Y, -5)
        CFI R9 Frame(CFA_Y, -4)
        CFI R10 Frame(CFA_Y, -3)
        CFI R11 Frame(CFA_Y, -2)
        CFI R12 Frame(CFA_Y, -1)
        CFI CFA_SP SP+6
        CFI CFA_Y Y+13
        CFI Block cfiCond207 Using cfiCommon0
        CFI (cfiCond207) NoFunction
        CFI (cfiCond207) Conditional ??CrossCallReturnLabel_135
        CFI (cfiCond207) R24 Frame(CFA_Y, -2)
        CFI (cfiCond207) R25 Frame(CFA_Y, -1)
        CFI (cfiCond207) CFA_SP SP+6
        CFI (cfiCond207) CFA_Y Y+20
        CFI Block cfiCond208 Using cfiCommon0
        CFI (cfiCond208) NoFunction
        CFI (cfiCond208) Conditional ??CrossCallReturnLabel_136
        CFI (cfiCond208) R24 Frame(CFA_Y, -8)
        CFI (cfiCond208) R25 Frame(CFA_Y, -7)
        CFI (cfiCond208) R26 Frame(CFA_Y, -6)
        CFI (cfiCond208) R27 Frame(CFA_Y, -5)
        CFI (cfiCond208) R4 Frame(CFA_Y, -4)
        CFI (cfiCond208) R5 Frame(CFA_Y, -3)
        CFI (cfiCond208) R6 Frame(CFA_Y, -2)
        CFI (cfiCond208) R7 Frame(CFA_Y, -1)
        CFI (cfiCond208) CFA_SP SP+6
        CFI (cfiCond208) CFA_Y Y+26
        CFI Block cfiCond209 Using cfiCommon0
        CFI (cfiCond209) NoFunction
        CFI (cfiCond209) Conditional ??CrossCallReturnLabel_137
        CFI (cfiCond209) R24 Frame(CFA_Y, -1)
        CFI (cfiCond209) CFA_SP SP+6
        CFI (cfiCond209) CFA_Y Y+1
        CFI Block cfiPicker210 Using cfiCommon1
        CFI (cfiPicker210) NoFunction
        CFI (cfiPicker210) Picker
        CALL	?S_SHL_L02
        COM	R16
        COM	R17
        RET
        CFI EndBlock cfiCond206
        CFI EndBlock cfiCond207
        CFI EndBlock cfiCond208
        CFI EndBlock cfiCond209
        CFI EndBlock cfiPicker210

        RSEG FARCODE:CODE:NOROOT(1)
?Subroutine59:
        CFI Block cfiCond211 Using cfiCommon0
        CFI NoFunction
        CFI Conditional ??CrossCallReturnLabel_237
        CFI R24 Frame(CFA_Y, -13)
        CFI R25 Frame(CFA_Y, -12)
        CFI R26 Frame(CFA_Y, -11)
        CFI R27 Frame(CFA_Y, -10)
        CFI R4 Frame(CFA_Y, -9)
        CFI R5 Frame(CFA_Y, -8)
        CFI R6 Frame(CFA_Y, -7)
        CFI R7 Frame(CFA_Y, -6)
        CFI R8 Frame(CFA_Y, -5)
        CFI R9 Frame(CFA_Y, -4)
        CFI R10 Frame(CFA_Y, -3)
        CFI R11 Frame(CFA_Y, -2)
        CFI R12 Frame(CFA_Y, -1)
        CFI CFA_SP SP+6
        CFI CFA_Y Y+13
        CFI Block cfiCond212 Using cfiCommon0
        CFI (cfiCond212) NoFunction
        CFI (cfiCond212) Conditional ??CrossCallReturnLabel_238
        CFI (cfiCond212) R24 Frame(CFA_Y, -12)
        CFI (cfiCond212) R25 Frame(CFA_Y, -11)
        CFI (cfiCond212) R26 Frame(CFA_Y, -10)
        CFI (cfiCond212) R27 Frame(CFA_Y, -9)
        CFI (cfiCond212) R4 Frame(CFA_Y, -8)
        CFI (cfiCond212) R5 Frame(CFA_Y, -7)
        CFI (cfiCond212) R6 Frame(CFA_Y, -6)
        CFI (cfiCond212) R7 Frame(CFA_Y, -5)
        CFI (cfiCond212) R8 Frame(CFA_Y, -4)
        CFI (cfiCond212) R9 Frame(CFA_Y, -3)
        CFI (cfiCond212) R10 Frame(CFA_Y, -2)
        CFI (cfiCond212) R11 Frame(CFA_Y, -1)
        CFI (cfiCond212) CFA_SP SP+6
        CFI (cfiCond212) CFA_Y Y+12
        CFI Block cfiCond213 Using cfiCommon0
        CFI (cfiCond213) NoFunction
        CFI (cfiCond213) Conditional ??CrossCallReturnLabel_239
        CFI (cfiCond213) R24 Frame(CFA_Y, -2)
        CFI (cfiCond213) R25 Frame(CFA_Y, -1)
        CFI (cfiCond213) CFA_SP SP+6
        CFI (cfiCond213) CFA_Y Y+20
        CFI Block cfiCond214 Using cfiCommon0
        CFI (cfiCond214) NoFunction
        CFI (cfiCond214) Conditional ??CrossCallReturnLabel_240
        CFI (cfiCond214) R24 Frame(CFA_Y, -8)
        CFI (cfiCond214) R25 Frame(CFA_Y, -7)
        CFI (cfiCond214) R26 Frame(CFA_Y, -6)
        CFI (cfiCond214) R27 Frame(CFA_Y, -5)
        CFI (cfiCond214) R4 Frame(CFA_Y, -4)
        CFI (cfiCond214) R5 Frame(CFA_Y, -3)
        CFI (cfiCond214) R6 Frame(CFA_Y, -2)
        CFI (cfiCond214) R7 Frame(CFA_Y, -1)
        CFI (cfiCond214) CFA_SP SP+6
        CFI (cfiCond214) CFA_Y Y+26
        CFI Block cfiCond215 Using cfiCommon0
        CFI (cfiCond215) NoFunction
        CFI (cfiCond215) Conditional ??CrossCallReturnLabel_241
        CFI (cfiCond215) R24 Frame(CFA_Y, -1)
        CFI (cfiCond215) CFA_SP SP+6
        CFI (cfiCond215) CFA_Y Y+1
        CFI Block cfiCond216 Using cfiCommon0
        CFI (cfiCond216) NoFunction
        CFI (cfiCond216) Conditional ??CrossCallReturnLabel_242
        CFI (cfiCond216) R24 Frame(CFA_Y, -9)
        CFI (cfiCond216) R25 Frame(CFA_Y, -8)
        CFI (cfiCond216) R26 Frame(CFA_Y, -7)
        CFI (cfiCond216) R27 Frame(CFA_Y, -6)
        CFI (cfiCond216) R4 Frame(CFA_Y, -5)
        CFI (cfiCond216) R5 Frame(CFA_Y, -4)
        CFI (cfiCond216) R6 Frame(CFA_Y, -3)
        CFI (cfiCond216) R7 Frame(CFA_Y, -2)
        CFI (cfiCond216) R8 Frame(CFA_Y, -1)
        CFI (cfiCond216) CFA_SP SP+6
        CFI (cfiCond216) CFA_Y Y+9
        CFI Block cfiPicker217 Using cfiCommon1
        CFI (cfiPicker217) NoFunction
        CFI (cfiPicker217) Picker
        LDI	R16, 1
        CFI EndBlock cfiCond211
        CFI EndBlock cfiCond212
        CFI EndBlock cfiCond213
        CFI EndBlock cfiCond214
        CFI EndBlock cfiCond215
        CFI EndBlock cfiCond216
        CFI EndBlock cfiPicker217
        REQUIRE ?Subroutine112
        ;		// Fall through to label ?Subroutine112

        RSEG FARCODE:CODE:NOROOT(1)
?Subroutine112:
        CFI Block cfiCond218 Using cfiCommon0
        CFI NoFunction
        CFI Conditional ??CrossCallReturnLabel_237
        CFI R24 Frame(CFA_Y, -13)
        CFI R25 Frame(CFA_Y, -12)
        CFI R26 Frame(CFA_Y, -11)
        CFI R27 Frame(CFA_Y, -10)
        CFI R4 Frame(CFA_Y, -9)
        CFI R5 Frame(CFA_Y, -8)
        CFI R6 Frame(CFA_Y, -7)
        CFI R7 Frame(CFA_Y, -6)
        CFI R8 Frame(CFA_Y, -5)
        CFI R9 Frame(CFA_Y, -4)
        CFI R10 Frame(CFA_Y, -3)
        CFI R11 Frame(CFA_Y, -2)
        CFI R12 Frame(CFA_Y, -1)
        CFI CFA_SP SP+6
        CFI CFA_Y Y+13
        CFI Block cfiCond219 Using cfiCommon0
        CFI (cfiCond219) NoFunction
        CFI (cfiCond219) Conditional ??CrossCallReturnLabel_238
        CFI (cfiCond219) R24 Frame(CFA_Y, -12)
        CFI (cfiCond219) R25 Frame(CFA_Y, -11)
        CFI (cfiCond219) R26 Frame(CFA_Y, -10)
        CFI (cfiCond219) R27 Frame(CFA_Y, -9)
        CFI (cfiCond219) R4 Frame(CFA_Y, -8)
        CFI (cfiCond219) R5 Frame(CFA_Y, -7)
        CFI (cfiCond219) R6 Frame(CFA_Y, -6)
        CFI (cfiCond219) R7 Frame(CFA_Y, -5)
        CFI (cfiCond219) R8 Frame(CFA_Y, -4)
        CFI (cfiCond219) R9 Frame(CFA_Y, -3)
        CFI (cfiCond219) R10 Frame(CFA_Y, -2)
        CFI (cfiCond219) R11 Frame(CFA_Y, -1)
        CFI (cfiCond219) CFA_SP SP+6
        CFI (cfiCond219) CFA_Y Y+12
        CFI Block cfiCond220 Using cfiCommon0
        CFI (cfiCond220) NoFunction
        CFI (cfiCond220) Conditional ??CrossCallReturnLabel_239
        CFI (cfiCond220) R24 Frame(CFA_Y, -2)
        CFI (cfiCond220) R25 Frame(CFA_Y, -1)
        CFI (cfiCond220) CFA_SP SP+6
        CFI (cfiCond220) CFA_Y Y+20
        CFI Block cfiCond221 Using cfiCommon0
        CFI (cfiCond221) NoFunction
        CFI (cfiCond221) Conditional ??CrossCallReturnLabel_240
        CFI (cfiCond221) R24 Frame(CFA_Y, -8)
        CFI (cfiCond221) R25 Frame(CFA_Y, -7)
        CFI (cfiCond221) R26 Frame(CFA_Y, -6)
        CFI (cfiCond221) R27 Frame(CFA_Y, -5)
        CFI (cfiCond221) R4 Frame(CFA_Y, -4)
        CFI (cfiCond221) R5 Frame(CFA_Y, -3)
        CFI (cfiCond221) R6 Frame(CFA_Y, -2)
        CFI (cfiCond221) R7 Frame(CFA_Y, -1)
        CFI (cfiCond221) CFA_SP SP+6
        CFI (cfiCond221) CFA_Y Y+26
        CFI Block cfiCond222 Using cfiCommon0
        CFI (cfiCond222) NoFunction
        CFI (cfiCond222) Conditional ??CrossCallReturnLabel_241
        CFI (cfiCond222) R24 Frame(CFA_Y, -1)
        CFI (cfiCond222) CFA_SP SP+6
        CFI (cfiCond222) CFA_Y Y+1
        CFI Block cfiCond223 Using cfiCommon0
        CFI (cfiCond223) NoFunction
        CFI (cfiCond223) Conditional ??CrossCallReturnLabel_242
        CFI (cfiCond223) R24 Frame(CFA_Y, -9)
        CFI (cfiCond223) R25 Frame(CFA_Y, -8)
        CFI (cfiCond223) R26 Frame(CFA_Y, -7)
        CFI (cfiCond223) R27 Frame(CFA_Y, -6)
        CFI (cfiCond223) R4 Frame(CFA_Y, -5)
        CFI (cfiCond223) R5 Frame(CFA_Y, -4)
        CFI (cfiCond223) R6 Frame(CFA_Y, -3)
        CFI (cfiCond223) R7 Frame(CFA_Y, -2)
        CFI (cfiCond223) R8 Frame(CFA_Y, -1)
        CFI (cfiCond223) CFA_SP SP+6
        CFI (cfiCond223) CFA_Y Y+9
        CFI Block cfiCond224 Using cfiCommon0
        CFI (cfiCond224) NoFunction
        CFI (cfiCond224) Conditional ??CrossCallReturnLabel_235
        CFI (cfiCond224) R24 Frame(CFA_Y, -16)
        CFI (cfiCond224) R25 Frame(CFA_Y, -15)
        CFI (cfiCond224) R26 Frame(CFA_Y, -14)
        CFI (cfiCond224) R27 Frame(CFA_Y, -13)
        CFI (cfiCond224) R4 Frame(CFA_Y, -12)
        CFI (cfiCond224) R5 Frame(CFA_Y, -11)
        CFI (cfiCond224) R6 Frame(CFA_Y, -10)
        CFI (cfiCond224) R7 Frame(CFA_Y, -9)
        CFI (cfiCond224) R8 Frame(CFA_Y, -8)
        CFI (cfiCond224) R9 Frame(CFA_Y, -7)
        CFI (cfiCond224) R10 Frame(CFA_Y, -6)
        CFI (cfiCond224) R11 Frame(CFA_Y, -5)
        CFI (cfiCond224) R12 Frame(CFA_Y, -4)
        CFI (cfiCond224) R13 Frame(CFA_Y, -3)
        CFI (cfiCond224) R14 Frame(CFA_Y, -2)
        CFI (cfiCond224) R15 Frame(CFA_Y, -1)
        CFI (cfiCond224) CFA_SP SP+6
        CFI (cfiCond224) CFA_Y Y+34
        CFI Block cfiCond225 Using cfiCommon0
        CFI (cfiCond225) NoFunction
        CFI (cfiCond225) Conditional ??CrossCallReturnLabel_236
        CFI (cfiCond225) R24 Frame(CFA_Y, -16)
        CFI (cfiCond225) R25 Frame(CFA_Y, -15)
        CFI (cfiCond225) R26 Frame(CFA_Y, -14)
        CFI (cfiCond225) R27 Frame(CFA_Y, -13)
        CFI (cfiCond225) R4 Frame(CFA_Y, -12)
        CFI (cfiCond225) R5 Frame(CFA_Y, -11)
        CFI (cfiCond225) R6 Frame(CFA_Y, -10)
        CFI (cfiCond225) R7 Frame(CFA_Y, -9)
        CFI (cfiCond225) R8 Frame(CFA_Y, -8)
        CFI (cfiCond225) R9 Frame(CFA_Y, -7)
        CFI (cfiCond225) R10 Frame(CFA_Y, -6)
        CFI (cfiCond225) R11 Frame(CFA_Y, -5)
        CFI (cfiCond225) R12 Frame(CFA_Y, -4)
        CFI (cfiCond225) R13 Frame(CFA_Y, -3)
        CFI (cfiCond225) R14 Frame(CFA_Y, -2)
        CFI (cfiCond225) R15 Frame(CFA_Y, -1)
        CFI (cfiCond225) CFA_SP SP+6
        CFI (cfiCond225) CFA_Y Y+34
        CFI Block cfiPicker226 Using cfiCommon1
        CFI (cfiPicker226) NoFunction
        CFI (cfiPicker226) Picker
        LDI	R17, 0
        RET
        CFI EndBlock cfiCond218
        CFI EndBlock cfiCond219
        CFI EndBlock cfiCond220
        CFI EndBlock cfiCond221
        CFI EndBlock cfiCond222
        CFI EndBlock cfiCond223
        CFI EndBlock cfiCond224
        CFI EndBlock cfiCond225
        CFI EndBlock cfiPicker226

        RSEG FARCODE:CODE:NOROOT(1)
?Subroutine49:
        CFI Block cfiCond227 Using cfiCommon0
        CFI NoFunction
        CFI Conditional ??CrossCallReturnLabel_58
        CFI R24 Frame(CFA_Y, -2)
        CFI R25 Frame(CFA_Y, -1)
        CFI CFA_SP SP+6
        CFI CFA_Y Y+16
        CFI Block cfiCond228 Using cfiCommon0
        CFI (cfiCond228) NoFunction
        CFI (cfiCond228) Conditional ??CrossCallReturnLabel_59
        CFI (cfiCond228) R24 Frame(CFA_Y, -8)
        CFI (cfiCond228) R25 Frame(CFA_Y, -7)
        CFI (cfiCond228) R26 Frame(CFA_Y, -6)
        CFI (cfiCond228) R27 Frame(CFA_Y, -5)
        CFI (cfiCond228) R4 Frame(CFA_Y, -4)
        CFI (cfiCond228) R5 Frame(CFA_Y, -3)
        CFI (cfiCond228) R6 Frame(CFA_Y, -2)
        CFI (cfiCond228) R7 Frame(CFA_Y, -1)
        CFI (cfiCond228) CFA_SP SP+6
        CFI (cfiCond228) CFA_Y Y+26
        CFI Block cfiPicker229 Using cfiCommon1
        CFI (cfiPicker229) NoFunction
        CFI (cfiPicker229) Picker
        ST	Y, R0
        STD	Y+1, R1
        STD	Y+2, R2
        STD	Y+3, R3
        RET
        CFI EndBlock cfiCond227
        CFI EndBlock cfiCond228
        CFI EndBlock cfiPicker229

        RSEG FARCODE:CODE:NOROOT(1)
?Subroutine47:
        CFI Block cfiCond230 Using cfiCommon0
        CFI NoFunction
        CFI Conditional ??CrossCallReturnLabel_215
        CFI R24 Frame(CFA_Y, -8)
        CFI R25 Frame(CFA_Y, -7)
        CFI R26 Frame(CFA_Y, -6)
        CFI R27 Frame(CFA_Y, -5)
        CFI R4 Frame(CFA_Y, -4)
        CFI R5 Frame(CFA_Y, -3)
        CFI R6 Frame(CFA_Y, -2)
        CFI R7 Frame(CFA_Y, -1)
        CFI CFA_SP SP+6
        CFI CFA_Y Y+26
        CFI Block cfiCond231 Using cfiCommon0
        CFI (cfiCond231) NoFunction
        CFI (cfiCond231) Conditional ??CrossCallReturnLabel_216
        CFI (cfiCond231) R24 Frame(CFA_Y, -8)
        CFI (cfiCond231) R25 Frame(CFA_Y, -7)
        CFI (cfiCond231) R26 Frame(CFA_Y, -6)
        CFI (cfiCond231) R27 Frame(CFA_Y, -5)
        CFI (cfiCond231) R4 Frame(CFA_Y, -4)
        CFI (cfiCond231) R5 Frame(CFA_Y, -3)
        CFI (cfiCond231) R6 Frame(CFA_Y, -2)
        CFI (cfiCond231) R7 Frame(CFA_Y, -1)
        CFI (cfiCond231) CFA_SP SP+6
        CFI (cfiCond231) CFA_Y Y+26
        CFI Block cfiPicker232 Using cfiCommon1
        CFI (cfiPicker232) NoFunction
        CFI (cfiPicker232) Picker
        SUBI	R30, LOW((-(arr_tii_32) & 0xFFFF))
        SBCI	R31, (-(arr_tii_32) & 0xFFFF) >> 8
        CFI EndBlock cfiCond230
        CFI EndBlock cfiCond231
        CFI EndBlock cfiPicker232
        REQUIRE ?Subroutine106
        ;		// Fall through to label ?Subroutine106

        RSEG FARCODE:CODE:NOROOT(1)
?Subroutine106:
        CFI Block cfiCond233 Using cfiCommon0
        CFI NoFunction
        CFI Conditional ??CrossCallReturnLabel_215
        CFI R24 Frame(CFA_Y, -8)
        CFI R25 Frame(CFA_Y, -7)
        CFI R26 Frame(CFA_Y, -6)
        CFI R27 Frame(CFA_Y, -5)
        CFI R4 Frame(CFA_Y, -4)
        CFI R5 Frame(CFA_Y, -3)
        CFI R6 Frame(CFA_Y, -2)
        CFI R7 Frame(CFA_Y, -1)
        CFI CFA_SP SP+6
        CFI CFA_Y Y+26
        CFI Block cfiCond234 Using cfiCommon0
        CFI (cfiCond234) NoFunction
        CFI (cfiCond234) Conditional ??CrossCallReturnLabel_216
        CFI (cfiCond234) R24 Frame(CFA_Y, -8)
        CFI (cfiCond234) R25 Frame(CFA_Y, -7)
        CFI (cfiCond234) R26 Frame(CFA_Y, -6)
        CFI (cfiCond234) R27 Frame(CFA_Y, -5)
        CFI (cfiCond234) R4 Frame(CFA_Y, -4)
        CFI (cfiCond234) R5 Frame(CFA_Y, -3)
        CFI (cfiCond234) R6 Frame(CFA_Y, -2)
        CFI (cfiCond234) R7 Frame(CFA_Y, -1)
        CFI (cfiCond234) CFA_SP SP+6
        CFI (cfiCond234) CFA_Y Y+26
        CFI Block cfiCond235 Using cfiCommon0
        CFI (cfiCond235) NoFunction
        CFI (cfiCond235) Conditional ??CrossCallReturnLabel_210
        CFI (cfiCond235) R24 Frame(CFA_Y, -2)
        CFI (cfiCond235) R25 Frame(CFA_Y, -1)
        CFI (cfiCond235) CFA_SP SP+6
        CFI (cfiCond235) CFA_Y Y+20
        CFI Block cfiCond236 Using cfiCommon0
        CFI (cfiCond236) NoFunction
        CFI (cfiCond236) Conditional ??CrossCallReturnLabel_211
        CFI (cfiCond236) R24 Frame(CFA_Y, -8)
        CFI (cfiCond236) R25 Frame(CFA_Y, -7)
        CFI (cfiCond236) R26 Frame(CFA_Y, -6)
        CFI (cfiCond236) R27 Frame(CFA_Y, -5)
        CFI (cfiCond236) R4 Frame(CFA_Y, -4)
        CFI (cfiCond236) R5 Frame(CFA_Y, -3)
        CFI (cfiCond236) R6 Frame(CFA_Y, -2)
        CFI (cfiCond236) R7 Frame(CFA_Y, -1)
        CFI (cfiCond236) CFA_SP SP+6
        CFI (cfiCond236) CFA_Y Y+26
        CFI Block cfiCond237 Using cfiCommon0
        CFI (cfiCond237) NoFunction
        CFI (cfiCond237) Conditional ??CrossCallReturnLabel_212
        CFI (cfiCond237) R24 Frame(CFA_Y, -8)
        CFI (cfiCond237) R25 Frame(CFA_Y, -7)
        CFI (cfiCond237) R26 Frame(CFA_Y, -6)
        CFI (cfiCond237) R27 Frame(CFA_Y, -5)
        CFI (cfiCond237) R4 Frame(CFA_Y, -4)
        CFI (cfiCond237) R5 Frame(CFA_Y, -3)
        CFI (cfiCond237) R6 Frame(CFA_Y, -2)
        CFI (cfiCond237) R7 Frame(CFA_Y, -1)
        CFI (cfiCond237) CFA_SP SP+6
        CFI (cfiCond237) CFA_Y Y+26
        CFI Block cfiCond238 Using cfiCommon0
        CFI (cfiCond238) NoFunction
        CFI (cfiCond238) Conditional ??CrossCallReturnLabel_213
        CFI (cfiCond238) R24 Frame(CFA_Y, -2)
        CFI (cfiCond238) R25 Frame(CFA_Y, -1)
        CFI (cfiCond238) CFA_SP SP+6
        CFI (cfiCond238) CFA_Y Y+16
        CFI Block cfiCond239 Using cfiCommon0
        CFI (cfiCond239) NoFunction
        CFI (cfiCond239) Conditional ??CrossCallReturnLabel_214
        CFI (cfiCond239) R24 Frame(CFA_Y, -16)
        CFI (cfiCond239) R25 Frame(CFA_Y, -15)
        CFI (cfiCond239) R26 Frame(CFA_Y, -14)
        CFI (cfiCond239) R27 Frame(CFA_Y, -13)
        CFI (cfiCond239) R4 Frame(CFA_Y, -12)
        CFI (cfiCond239) R5 Frame(CFA_Y, -11)
        CFI (cfiCond239) R6 Frame(CFA_Y, -10)
        CFI (cfiCond239) R7 Frame(CFA_Y, -9)
        CFI (cfiCond239) R8 Frame(CFA_Y, -8)
        CFI (cfiCond239) R9 Frame(CFA_Y, -7)
        CFI (cfiCond239) R10 Frame(CFA_Y, -6)
        CFI (cfiCond239) R11 Frame(CFA_Y, -5)
        CFI (cfiCond239) R12 Frame(CFA_Y, -4)
        CFI (cfiCond239) R13 Frame(CFA_Y, -3)
        CFI (cfiCond239) R14 Frame(CFA_Y, -2)
        CFI (cfiCond239) R15 Frame(CFA_Y, -1)
        CFI (cfiCond239) CFA_SP SP+6
        CFI (cfiCond239) CFA_Y Y+34
        CFI Block cfiPicker240 Using cfiCommon1
        CFI (cfiPicker240) NoFunction
        CFI (cfiPicker240) Picker
        LD	R0, Z
        LDD	R1, Z+1
        LDD	R2, Z+2
        LDD	R3, Z+3
        RET
        CFI EndBlock cfiCond233
        CFI EndBlock cfiCond234
        CFI EndBlock cfiCond235
        CFI EndBlock cfiCond236
        CFI EndBlock cfiCond237
        CFI EndBlock cfiCond238
        CFI EndBlock cfiCond239
        CFI EndBlock cfiPicker240

        RSEG FARCODE:CODE:NOROOT(1)
?Subroutine34:
        CFI Block cfiCond241 Using cfiCommon0
        CFI NoFunction
        CFI Conditional ??CrossCallReturnLabel_268
        CFI R24 Frame(CFA_Y, -2)
        CFI R25 Frame(CFA_Y, -1)
        CFI CFA_SP SP+6
        CFI CFA_Y Y+20
        CFI Block cfiCond242 Using cfiCommon0
        CFI (cfiCond242) NoFunction
        CFI (cfiCond242) Conditional ??CrossCallReturnLabel_267
        CFI (cfiCond242) R24 Frame(CFA_Y, -8)
        CFI (cfiCond242) R25 Frame(CFA_Y, -7)
        CFI (cfiCond242) R26 Frame(CFA_Y, -6)
        CFI (cfiCond242) R27 Frame(CFA_Y, -5)
        CFI (cfiCond242) R4 Frame(CFA_Y, -4)
        CFI (cfiCond242) R5 Frame(CFA_Y, -3)
        CFI (cfiCond242) R6 Frame(CFA_Y, -2)
        CFI (cfiCond242) R7 Frame(CFA_Y, -1)
        CFI (cfiCond242) CFA_SP SP+6
        CFI (cfiCond242) CFA_Y Y+26
        CFI Block cfiPicker243 Using cfiCommon1
        CFI (cfiPicker243) NoFunction
        CFI (cfiPicker243) Picker
        LDI	R18, 12
        MOVW	R17:R16, R29:R28
        SUBI	R16, 252
        SBCI	R17, 255
        RCALL	crc_sum
        STD	Y+16, R16
        STD	Y+17, R17
        LDI	R23, 0
        LDI	R22, 0
        MOVW	R19:R18, R29:R28
        SUBI	R18, 252
        SBCI	R19, 255
        MOVW	R21:R20, R25:R24
        LDI	R16, 14
        LDI	R17, 0
        CALL	?S_EC_MUL_L02
        SUBI	R17, 144
        LDI	R20, 14
        RJMP	?Subroutine120
        CFI EndBlock cfiCond241
        CFI EndBlock cfiCond242
        CFI EndBlock cfiPicker243
// 1178  ////////// 
// 1179 
// 1180 

        RSEG FARCODE:CODE:NOROOT(1)
// 1181  void store_tit_lock(char m)  // записать в архив значения 1 минутные
store_tit_lock:
        CFI Block cfiBlock244 Using cfiCommon0
        CFI Function store_tit_lock
// 1182  {
        FUNCALL store_tit_lock, crc_sum
        LOCFRAME CSTACK, 24, STACK
        LOCFRAME RSTACK, 3, STACK
        FUNCALL store_tit_lock, WrArrayToFlesh
        LOCFRAME CSTACK, 24, STACK
        LOCFRAME RSTACK, 3, STACK
        SBIW	R29:R28, 18
        CFI CFA_Y Y+18
// 1183  char index;
// 1184  unsigned char zapis[14];
// 1185  unsigned int t_i; 
// 1186  
// 1187   union
// 1188    {     
// 1189    long int unix;
// 1190    char st[4]; 
// 1191    } tik;
// 1192    
// 1193  
// 1194  
// 1195 
// 1196  
// 1197 index=0x40+m*2; 
        MOV	R18, R16
        LSL	R18
        SUBI	R18, 192
// 1198 t_i=  ( ( unsigned long int)c2_byte.mb[index] + ( unsigned long int)(c2_byte.mb[index+1] & 7)*256);
        RCALL	?Subroutine38
// 1199 
// 1200 
// 1201                       
// 1202                                         {
// 1203                                         tik.unix=timer_tit[m];        
??CrossCallReturnLabel_44:
        MOV	R22, R16
        LDI	R23, 0
        MOVW	R21:R20, R23:R22
        RCALL	?Subroutine86
??CrossCallReturnLabel_148:
        MOVW	R31:R30, R21:R20
        SUBI	R30, LOW((-(timer_psm) & 0xFFFF))
        SBCI	R31, (-(timer_psm) & 0xFFFF) >> 8
        RCALL	?Subroutine98
??CrossCallReturnLabel_184:
        RCALL	?Subroutine48
// 1204      
// 1205                                          zapis[0]=tik.st[0];
// 1206                                          zapis[1]=tik.st[1];
// 1207                                          zapis[2]=tik.st[2];
// 1208                                          zapis[3]=tik.st[3];
??CrossCallReturnLabel_57:
        RCALL	?Subroutine52
??CrossCallReturnLabel_66:
        LSL	R22
        ROL	R23
        ADD	R30, R22
        ADC	R31, R23
        LDD	R17, Z+32
        LDD	R20, Z+33
        STD	Y+10, R17
// 1209                                              
// 1210 
// 1211                                          zapis[6]=modbus_mem1[AD_TIT1+m];
// 1212                                          zapis[7]=modbus_mem1[AD_TIT1+m]>>8;
        STD	Y+11, R20
// 1213                                          zapis[8]=0;
        LDI	R17, 0
        STD	Y+12, R17
// 1214                                          zapis[9]=0;
        STD	Y+13, R17
// 1215   
// 1216   
// 1217   
// 1218 
// 1219   
// 1220   
// 1221   zapis[4]=t_i;
        STD	Y+8, R18
// 1222   zapis[5]=(t_i >>8);  
        STD	Y+9, R19
// 1223   
// 1224   zapis[10]=m+80;
        SUBI	R16, 176
        STD	Y+14, R16
// 1225   zapis[11]=0;  
        STD	Y+15, R17
// 1226                                      }
// 1227   
// 1228   
// 1229 
// 1230      
// 1231                           
// 1232                                                    
// 1233 *(int*)&zapis[12]=crc_sum(&zapis[0],12);     
        RCALL	?Subroutine42
??CrossCallReturnLabel_262:
        STD	Y+16, R16
        STD	Y+17, R17
// 1234 //WrArrayToFlesh(STRUCT_TII+m*14,&zapis[0],14,0,0);   26 01 2015
// 1235 
// 1236 
// 1237  // записать в общую кучу
// 1238 
// 1239 
// 1240 
// 1241 WrArrayToFlesh(STRUCT_TII_HEAP + (int)modbus_mem1[AD_IND_DNS]*14,&zapis[0],14,0,0);
        RCALL	?Subroutine33
        CFI EndBlock cfiBlock244
// 1242 
// 1243 
// 1244 
// 1245  
// 1246 }                  
??CrossCallReturnLabel_265:
        REQUIRE ?Subroutine113
        ;		// Fall through to label ?Subroutine113

        RSEG FARCODE:CODE:NOROOT(1)
?Subroutine113:
        CFI Block cfiCond245 Using cfiCommon0
        CFI NoFunction
        CFI Conditional ??CrossCallReturnLabel_243
        CFI R24 Frame(CFA_Y, -8)
        CFI R25 Frame(CFA_Y, -7)
        CFI R26 Frame(CFA_Y, -6)
        CFI R27 Frame(CFA_Y, -5)
        CFI R4 Frame(CFA_Y, -4)
        CFI R5 Frame(CFA_Y, -3)
        CFI R6 Frame(CFA_Y, -2)
        CFI R7 Frame(CFA_Y, -1)
        CFI CFA_SP SP+6
        CFI CFA_Y Y+26
        CFI Block cfiCond246 Using cfiCommon0
        CFI (cfiCond246) NoFunction
        CFI (cfiCond246) Conditional ??CrossCallReturnLabel_244
        CFI (cfiCond246) R24 Frame(CFA_Y, -6)
        CFI (cfiCond246) R25 Frame(CFA_Y, -5)
        CFI (cfiCond246) R26 Frame(CFA_Y, -4)
        CFI (cfiCond246) R27 Frame(CFA_Y, -3)
        CFI (cfiCond246) R4 Frame(CFA_Y, -2)
        CFI (cfiCond246) R5 Frame(CFA_Y, -1)
        CFI (cfiCond246) CFA_SP SP+6
        CFI (cfiCond246) CFA_Y Y+24
        CFI Block cfiBlock247 Using cfiCommon0
        CFI (cfiBlock247) NoFunction
        CFI (cfiBlock247) CFA_Y Y+18
        CFI Block cfiPicker248 Using cfiCommon1
        CFI (cfiPicker248) NoFunction
        CFI (cfiPicker248) Picker
        ADIW	R29:R28, 18
        CFI (cfiCond245) CFA_Y Y+8
        CFI (cfiCond246) CFA_Y Y+6
        CFI (cfiBlock247) CFA_Y Y+0
        RET
        CFI EndBlock cfiCond245
        CFI EndBlock cfiCond246
        CFI EndBlock cfiBlock247
        CFI EndBlock cfiPicker248

        RSEG FARCODE:CODE:NOROOT(1)
?Subroutine86:
        CFI Block cfiCond249 Using cfiCommon0
        CFI NoFunction
        CFI Conditional ??CrossCallReturnLabel_147
        CFI R24 Frame(CFA_Y, -12)
        CFI R25 Frame(CFA_Y, -11)
        CFI R26 Frame(CFA_Y, -10)
        CFI R27 Frame(CFA_Y, -9)
        CFI R4 Frame(CFA_Y, -8)
        CFI R5 Frame(CFA_Y, -7)
        CFI R6 Frame(CFA_Y, -6)
        CFI R7 Frame(CFA_Y, -5)
        CFI R8 Frame(CFA_Y, -4)
        CFI R9 Frame(CFA_Y, -3)
        CFI R10 Frame(CFA_Y, -2)
        CFI R11 Frame(CFA_Y, -1)
        CFI CFA_SP SP+6
        CFI CFA_Y Y+12
        CFI Block cfiCond250 Using cfiCommon0
        CFI (cfiCond250) NoFunction
        CFI (cfiCond250) Conditional ??CrossCallReturnLabel_148
        CFI (cfiCond250) CFA_SP SP+6
        CFI (cfiCond250) CFA_Y Y+18
        CFI Block cfiPicker251 Using cfiCommon1
        CFI (cfiPicker251) NoFunction
        CFI (cfiPicker251) Picker
        LSL	R20
        ROL	R21
        LSL	R20
        ROL	R21
        RET
        CFI EndBlock cfiCond249
        CFI EndBlock cfiCond250
        CFI EndBlock cfiPicker251

        RSEG FARCODE:CODE:NOROOT(1)
?Subroutine48:
        CFI Block cfiCond252 Using cfiCommon0
        CFI NoFunction
        CFI Conditional ??CrossCallReturnLabel_56
        CFI R24 Frame(CFA_Y, -8)
        CFI R25 Frame(CFA_Y, -7)
        CFI R26 Frame(CFA_Y, -6)
        CFI R27 Frame(CFA_Y, -5)
        CFI R4 Frame(CFA_Y, -4)
        CFI R5 Frame(CFA_Y, -3)
        CFI R6 Frame(CFA_Y, -2)
        CFI R7 Frame(CFA_Y, -1)
        CFI CFA_SP SP+6
        CFI CFA_Y Y+26
        CFI Block cfiCond253 Using cfiCommon0
        CFI (cfiCond253) NoFunction
        CFI (cfiCond253) Conditional ??CrossCallReturnLabel_57
        CFI (cfiCond253) CFA_SP SP+6
        CFI (cfiCond253) CFA_Y Y+18
        CFI Block cfiPicker254 Using cfiCommon1
        CFI (cfiPicker254) NoFunction
        CFI (cfiPicker254) Picker
        ST	Y, R0
        STD	Y+1, R1
        STD	Y+2, R2
        STD	Y+3, R3
        STD	Y+4, R0
        STD	Y+5, R1
        STD	Y+6, R2
        STD	Y+7, R3
        RET
        CFI EndBlock cfiCond252
        CFI EndBlock cfiCond253
        CFI EndBlock cfiPicker254

        RSEG FARCODE:CODE:NOROOT(1)
?Subroutine42:
        CFI Block cfiCond255 Using cfiCommon0
        CFI NoFunction
        CFI Conditional ??CrossCallReturnLabel_262
        CFI CFA_SP SP+6
        CFI CFA_Y Y+18
        CFI Block cfiCond256 Using cfiCommon0
        CFI (cfiCond256) NoFunction
        CFI (cfiCond256) Conditional ??CrossCallReturnLabel_261
        CFI (cfiCond256) R24 Frame(CFA_Y, -11)
        CFI (cfiCond256) R25 Frame(CFA_Y, -10)
        CFI (cfiCond256) R26 Frame(CFA_Y, -9)
        CFI (cfiCond256) R27 Frame(CFA_Y, -8)
        CFI (cfiCond256) R4 Frame(CFA_Y, -7)
        CFI (cfiCond256) R5 Frame(CFA_Y, -6)
        CFI (cfiCond256) R6 Frame(CFA_Y, -5)
        CFI (cfiCond256) R7 Frame(CFA_Y, -4)
        CFI (cfiCond256) R8 Frame(CFA_Y, -3)
        CFI (cfiCond256) R9 Frame(CFA_Y, -2)
        CFI (cfiCond256) R10 Frame(CFA_Y, -1)
        CFI (cfiCond256) CFA_SP SP+6
        CFI (cfiCond256) CFA_Y Y+29
        CFI Block cfiPicker257 Using cfiCommon1
        CFI (cfiPicker257) NoFunction
        CFI (cfiPicker257) Picker
        LDI	R18, 12
        CFI Block cfiCond258 Using cfiCommon0
        CFI (cfiCond258) NoFunction
        CFI (cfiCond258) Conditional ??CrossCallReturnLabel_260
        CFI (cfiCond258) R24 Frame(CFA_Y, -16)
        CFI (cfiCond258) R25 Frame(CFA_Y, -15)
        CFI (cfiCond258) R26 Frame(CFA_Y, -14)
        CFI (cfiCond258) R27 Frame(CFA_Y, -13)
        CFI (cfiCond258) R4 Frame(CFA_Y, -12)
        CFI (cfiCond258) R5 Frame(CFA_Y, -11)
        CFI (cfiCond258) R6 Frame(CFA_Y, -10)
        CFI (cfiCond258) R7 Frame(CFA_Y, -9)
        CFI (cfiCond258) R8 Frame(CFA_Y, -8)
        CFI (cfiCond258) R9 Frame(CFA_Y, -7)
        CFI (cfiCond258) R10 Frame(CFA_Y, -6)
        CFI (cfiCond258) R11 Frame(CFA_Y, -5)
        CFI (cfiCond258) R12 Frame(CFA_Y, -4)
        CFI (cfiCond258) R13 Frame(CFA_Y, -3)
        CFI (cfiCond258) R14 Frame(CFA_Y, -2)
        CFI (cfiCond258) R15 Frame(CFA_Y, -1)
        CFI (cfiCond258) CFA_SP SP+6
        CFI (cfiCond258) CFA_Y Y+34
??Subroutine42_0:
        MOVW	R17:R16, R29:R28
        SUBI	R16, 252
        RJMP	?Subroutine119
        CFI EndBlock cfiCond255
        CFI EndBlock cfiCond256
        CFI EndBlock cfiPicker257
        CFI EndBlock cfiCond258

        RSEG FARCODE:CODE:NOROOT(1)
?Subroutine38:
        CFI Block cfiCond259 Using cfiCommon0
        CFI NoFunction
        CFI Conditional ??CrossCallReturnLabel_43
        CFI R24 Frame(CFA_Y, -4)
        CFI R25 Frame(CFA_Y, -3)
        CFI R26 Frame(CFA_Y, -2)
        CFI R27 Frame(CFA_Y, -1)
        CFI CFA_SP SP+6
        CFI CFA_Y Y+22
        CFI Block cfiCond260 Using cfiCommon0
        CFI (cfiCond260) NoFunction
        CFI (cfiCond260) Conditional ??CrossCallReturnLabel_44
        CFI (cfiCond260) CFA_SP SP+6
        CFI (cfiCond260) CFA_Y Y+18
        CFI Block cfiPicker261 Using cfiCommon1
        CFI (cfiPicker261) NoFunction
        CFI (cfiPicker261) Picker
        LDI	R30, LOW(c2_byte)
        LDI	R31, (c2_byte) >> 8
        LDI	R19, 0
        ADD	R30, R18
        ADC	R31, R19
        LD	R20, Z
        LDD	R18, Z+1
        ANDI	R18, 0x07
        MOV	R19, R18
        MOV	R18, R20
        RET
        CFI EndBlock cfiCond259
        CFI EndBlock cfiCond260
        CFI EndBlock cfiPicker261

        RSEG FARCODE:CODE:NOROOT(1)
?Subroutine33:
        CFI Block cfiCond262 Using cfiCommon0
        CFI NoFunction
        CFI Conditional ??CrossCallReturnLabel_266
        CFI R24 Frame(CFA_Y, -8)
        CFI R25 Frame(CFA_Y, -7)
        CFI R26 Frame(CFA_Y, -6)
        CFI R27 Frame(CFA_Y, -5)
        CFI R4 Frame(CFA_Y, -4)
        CFI R5 Frame(CFA_Y, -3)
        CFI R6 Frame(CFA_Y, -2)
        CFI R7 Frame(CFA_Y, -1)
        CFI CFA_SP SP+6
        CFI CFA_Y Y+26
        CFI Block cfiCond263 Using cfiCommon0
        CFI (cfiCond263) NoFunction
        CFI (cfiCond263) Conditional ??CrossCallReturnLabel_265
        CFI (cfiCond263) CFA_SP SP+6
        CFI (cfiCond263) CFA_Y Y+18
        CFI Block cfiPicker264 Using cfiCommon1
        CFI (cfiPicker264) NoFunction
        CFI (cfiPicker264) Picker
        LDI	R23, 0
        LDI	R22, 0
        MOVW	R19:R18, R29:R28
        SUBI	R18, 252
        SBCI	R19, 255
        LDI	R30, LOW((modbus_mem1 + 64))
        LDI	R31, HIGH((modbus_mem1 + 64))
        LD	R20, Z
        LDD	R21, Z+1
        LDI	R16, 14
        LDI	R17, 0
        CALL	?S_EC_MUL_L02
        SUBI	R17, 160
        LDI	R20, 14
        LDI	R21, 0
        RJMP	?Subroutine120
        CFI EndBlock cfiCond262
        CFI EndBlock cfiCond263
        CFI EndBlock cfiPicker264
// 1247  ////////// 
// 1248 
// 1249 
// 1250 

        RSEG FARCODE:CODE:NOROOT(1)
// 1251 void lock_arh_tit(void)  // записать в архив значения 
lock_arh_tit:
        CFI Block cfiBlock265 Using cfiCommon0
        CFI Function lock_arh_tit
// 1252  {
        FUNCALL lock_arh_tit, store_tit_lock
        LOCFRAME CSTACK, 1, STACK
        LOCFRAME RSTACK, 3, STACK
        FUNCALL lock_arh_tit, WrArrayToFlesh
        LOCFRAME CSTACK, 1, STACK
        LOCFRAME RSTACK, 3, STACK
        FUNCALL lock_arh_tit, end_zamer_tit
        LOCFRAME CSTACK, 1, STACK
        LOCFRAME RSTACK, 3, STACK
        RCALL	?Subroutine84
        CFI R24 Frame(CFA_Y, -1)
        CFI CFA_Y Y+1
// 1253  char m;
// 1254  unsigned char i;
// 1255 
// 1256  unsigned int te; 
// 1257  
// 1258    
// 1259  te=tit_bit;   
??CrossCallReturnLabel_138:
        LDD	R16, Z+36
        LDI	R17, 0
// 1260  if (te==0) return; 
        TST	R16
        BREQ	??CrossCallReturnLabel_176
// 1261  
